ccopy_reg
_reconstructor
p0
(cutils.eval
ConfusionMatrix
p1
c__builtin__
object
p2
Ntp3
Rp4
(dp5
S'labels'
p6
(lp7
S'serum.n.01'
p8
aS'remove.v.01'
p9
aVremove.v.05
p10
aS'part.n.03'
p11
aVpart.n.10
p12
aVremoved.s.01
p13
aS'dirt.n.02'
p14
aVland.n.02
p15
aVtake_out.v.01
p16
aS'restriction.n.01'
p17
aVrestriction.n.03
p18
aS'saying.n.01'
p19
aVexpression.n.09
p20
aS'event.n.01'
p21
aS'prickle.v.03'
p22
aVsting.v.02
p23
aVremove.v.02
p24
aS'body.n.01'
p25
aVtorso.n.01
p26
aS'beginning.n.04'
p27
aVsource.v.02
p28
aS'spectacles.n.01'
p29
aS'issue.n.01'
p30
aVissue.n.04
p31
aS'most.a.02'
p32
aS'thyroid_gland.n.01'
p33
aVthyroid.a.01
p34
aS'temptation.n.01'
p35
aVtemptation.n.02
p36
aS'child.n.02'
p37
aVchild.n.04
p38
aVremove.v.08
p39
aS'ball.n.01'
p40
aVtestis.n.01
p41
aS'staining.n.01'
p42
aVstaining.n.02
p43
aS'substance.n.01'
p44
aVsubstance.n.07
p45
aS'shoe.n.01'
p46
aS'church.n.02'
p47
aVchurch.v.01
p48
aS'handspike.n.01'
p49
aS'insinuation.n.01'
p50
aVingratiation.n.01
p51
aS'impurity.n.01'
p52
aVslag.n.01
p53
aS'board.n.02'
p54
aVboard.v.01
p55
aS'branch.n.02'
p56
aS'tape.n.01'
p57
aVtape.n.04
p58
asS'instanceCount'
p59
I62
sS'matrix'
p60
(dp61
g19
(dp62
g20
I1
ssg56
(dp63
Vbranch.n.02
p64
I1
ssg42
(dp65
g43
I1
ssg41
(dp66
g41
I0
ssg33
(dp67
g34
I1
ssg38
(dp68
g38
I0
ssg40
(dp69
g41
I1
ssg37
(dp70
g38
I1
ssg58
(dp71
g58
I0
ssg46
(dp72
Vshoe.n.01
p73
I1
ssg53
(dp74
g53
I0
ssg55
(dp75
g55
I0
ssg13
(dp76
g13
I0
ssg11
(dp77
g12
I1
ssg50
(dp78
g51
I1
ssg31
(dp79
g31
I0
ssg44
(dp80
Vsubstance.n.01
p81
I1
sg45
I1
ssg30
(dp82
g31
I1
ssg39
(dp83
g39
I0
ssg43
(dp84
g43
I0
ssg29
(dp85
Vspectacles.n.01
p86
I1
ssg47
(dp87
g48
I1
ssg17
(dp88
Vrestriction.n.01
p89
I1
sg18
I1
ssg18
(dp90
g18
I0
ssg9
(dp91
g13
I8
sg24
I7
sg10
I8
sg16
I6
sg39
I2
ssg24
(dp92
g24
I0
ssg10
(dp93
g10
I0
ssg22
(dp94
g23
I1
ssg25
(dp95
g26
I1
ssg49
(dp96
Vhandspike.n.01
p97
I1
ssg32
(dp98
Vmost.a.02
p99
I1
ssg20
(dp100
g20
I0
ssg51
(dp101
g51
I0
ssg14
(dp102
g15
I4
ssg23
(dp103
g23
I0
ssg15
(dp104
g15
I0
ssg8
(dp105
Vserum.n.01
p106
I1
ssg34
(dp107
g34
I0
ssg28
(dp108
g28
I0
ssg27
(dp109
g28
I1
ssg57
(dp110
g58
I1
ssg16
(dp111
g16
I0
ssg45
(dp112
g45
I0
ssg12
(dp113
g12
I0
ssg21
(dp114
Vevent.n.01
p115
I1
ssg36
(dp116
g36
I0
ssg52
(dp117
g53
I1
ssg35
(dp118
g36
I1
ssg54
(dp119
g55
I1
ssg26
(dp120
g26
I0
ssg48
(dp121
g48
I0
sssb.