ccopy_reg
_reconstructor
p0
(cutils.eval
ConfusionMatrix
p1
c__builtin__
object
p2
Ntp3
Rp4
(dp5
S'labels'
p6
(lp7
S'temperature.n.01'
p8
aVtemperature.n.02
p9
aS'keep.v.01'
p10
aVsustain.v.04
p11
aS'strip.n.02'
p12
aVstrip.n.06
p13
aVkeep.v.20
p14
aS'degree.n.01'
p15
aVhorizontal_surface.n.01
p16
aVobserve.v.08
p17
aS'integrity.n.01'
p18
aVoneness.n.01
p19
aS'domination.n.02'
p20
aS'employment.n.01'
p21
aVemployment.n.03
p22
aS'relationship.n.01'
p23
aVwield.v.01
p24
aS'pressure.n.01'
p25
aVcoerce.v.01
p26
aS'standard.n.01'
p27
aVstandard.a.01
p28
aVlevel.v.06
p29
aS'effectiveness.n.01'
p30
aS'condition.n.01'
p31
aVweather.n.01
p32
aVkeep.v.08
p33
aS'tranquillity.n.02'
p34
aS'watch.n.03'
p35
aVlookout.n.01
p36
aS'patient.n.01'
p37
aVaffected_role.n.01
p38
aS'mentality.n.01'
p39
aVlookout.n.04
p40
aS'state.n.02'
p41
aVstate.n.03
p42
asS'instanceCount'
p43
I42
sS'matrix'
p44
(dp45
g28
(dp46
g28
I0
ssg30
(dp47
Veffectiveness.n.01
p48
I1
ssg23
(dp49
Vrelationship.n.01
p50
I4
ssg19
(dp51
g19
I0
ssg42
(dp52
g42
I0
ssg41
(dp53
g42
I1
ssg17
(dp54
g17
I0
ssg20
(dp55
Vdomination.n.02
p56
I1
ssg18
(dp57
g19
I1
ssg14
(dp58
g14
I0
ssg33
(dp59
g33
I0
ssg31
(dp60
g32
I1
ssg39
(dp61
g40
I1
ssg10
(dp62
g24
I2
sg11
I1
sg14
I5
sg33
I1
sg17
I4
sVkeep.v.01
p63
I8
ssg40
(dp64
g40
I0
ssg36
(dp65
g36
I0
ssg27
(dp66
g28
I1
ssg16
(dp67
g16
I0
ssg26
(dp68
g26
I0
ssg13
(dp69
g13
I0
ssg12
(dp70
g13
I1
ssg15
(dp71
g16
I1
sg29
I2
ssg25
(dp72
g26
I1
ssg37
(dp73
g38
I1
ssg11
(dp74
g11
I0
ssg29
(dp75
g29
I0
ssg35
(dp76
g36
I1
ssg38
(dp77
g38
I0
ssg24
(dp78
g24
I0
ssg34
(dp79
Vtranquillity.n.02
p80
I1
ssg8
(dp81
g9
I1
ssg9
(dp82
g9
I0
ssg32
(dp83
g32
I0
ssg22
(dp84
g22
I0
ssg21
(dp85
g22
I1
sssb.