ccopy_reg
_reconstructor
p0
(cutils.eval
ConfusionMatrix
p1
c__builtin__
object
p2
Ntp3
Rp4
(dp5
S'labels'
p6
(lp7
S'action.n.02'
p8
aVnatural_process.n.01
p9
aS'detect.v.01'
p10
aVfound.n.01
p11
aS'type.n.01'
p12
aVtype.v.01
p13
aVrecover.v.01
p14
aS'evidence.n.02'
p15
aVevidence.n.03
p16
aS'player.n.01'
p17
aVfind.v.05
p18
aS'one.s.01'
p19
aVfind.v.13
p20
aS'shunt.n.01'
p21
aVshunt.n.02
p22
aVfind.v.03
p23
aS'softness.n.01'
p24
aVgentleness.n.02
p25
aS'trace.n.01'
p26
aVsuggestion.n.04
p27
aS'ratio.n.01'
p28
aS'time.n.04'
p29
aVclock.v.01
p30
aS'nothing.n.01'
p31
aVnothing.r.01
p32
aS'case.n.05'
p33
aVsubject.n.06
p34
aVwitness.v.02
p35
aS'cavalryman.n.01'
p36
aVcavalryman.n.02
p37
aVrule.v.04
p38
aS'manner.n.01'
p39
aVway.n.11
p40
aS'bogey.n.01'
p41
aVbogey.v.01
p42
aS'cache.n.01'
p43
aVhoard.v.01
p44
aVline_up.v.02
p45
aS'mineral.n.01'
p46
aS'fasciculation.n.01'
p47
aVestablish.v.01
p48
aS'osteoporosis.n.01'
p49
aS'cell.n.02'
p50
aS'discrepancy.n.01'
p51
aS'difference.n.01'
p52
aVremainder.n.03
p53
aS'doctor.n.01'
p54
aVsophisticate.v.03
p55
aS'kind.n.01'
p56
aS'apparel.n.01'
p57
aVdress.v.02
p58
aVestablish.v.08
p59
asS'instanceCount'
p60
I50
sS'matrix'
p61
(dp62
g12
(dp63
g13
I1
ssg52
(dp64
g53
I1
ssg15
(dp65
g16
I1
ssg16
(dp66
g16
I0
ssg32
(dp67
g32
I0
ssg42
(dp68
g42
I0
ssg31
(dp69
g32
I1
ssg10
(dp70
g20
I1
sg18
I4
sg35
I1
sg48
I2
sg23
I3
sg59
I1
sg38
I1
sg11
I6
sg14
I5
sg45
I1
ssg51
(dp71
Vdiscrepancy.n.01
p72
I1
ssg40
(dp73
g40
I0
ssg13
(dp74
g13
I0
ssg44
(dp75
g44
I0
ssg50
(dp76
Vcell.n.02
p77
I1
ssg20
(dp78
g20
I0
ssg24
(dp79
g25
I1
ssg38
(dp80
g38
I0
ssg56
(dp81
Vkind.n.01
p82
I1
ssg29
(dp83
g30
I1
ssg57
(dp84
g58
I1
ssg30
(dp85
g30
I0
ssg14
(dp86
g14
I0
ssg47
(dp87
Vfasciculation.n.01
p88
I1
ssg11
(dp89
g11
I0
ssg46
(dp90
Vmineral.n.01
p91
I1
ssg55
(dp92
g55
I0
ssg48
(dp93
g48
I0
ssg37
(dp94
g37
I0
ssg36
(dp95
g37
I1
ssg39
(dp96
g40
I1
ssg59
(dp97
g59
I0
ssg8
(dp98
g9
I1
ssg43
(dp99
g44
I1
ssg9
(dp100
g9
I0
ssg49
(dp101
Vosteoporosis.n.01
p102
I1
ssg19
(dp103
Vone.s.01
p104
I1
ssg58
(dp105
g58
I0
ssg26
(dp106
g27
I1
ssg41
(dp107
g42
I1
ssg34
(dp108
g34
I0
ssg18
(dp109
g18
I0
ssg35
(dp110
g35
I0
ssg25
(dp111
g25
I0
ssg23
(dp112
g23
I0
ssg33
(dp113
g34
I1
ssg53
(dp114
g53
I0
ssg17
(dp115
Vplayer.n.01
p116
I1
ssg27
(dp117
g27
I0
ssg28
(dp118
Vratio.n.01
p119
I1
ssg54
(dp120
g55
I1
ssg21
(dp121
g22
I1
ssg22
(dp122
g22
I0
ssg45
(dp123
g45
I0
sssb.