ccopy_reg
_reconstructor
p0
(cutils.eval
ConfusionMatrix
p1
c__builtin__
object
p2
Ntp3
Rp4
(dp5
S'labels'
p6
(lp7
S'crowd.n.01'
p8
aVherd.v.01
p9
aS'ask.v.01'
p10
aVask.v.05
p11
aS'church.n.02'
p12
aVchurch.n.04
p13
aS'people.n.01'
p14
aVmultitude.n.03
p15
aVask.v.07
p16
aS'question.n.01'
p17
aVwonder.v.02
p18
aS'state.n.04'
p19
aVnecessitate.v.01
p20
aS'light.n.01'
p21
aVinner_light.n.01
p22
aS'merely.r.01'
p23
aS'daughter.n.01'
p24
aS'person.n.01'
p25
aVsurface-to-air_missile.n.01
p26
aS'man.n.01'
p27
aS'cost.n.01'
p28
aVmonetary_value.n.01
p29
aS'husband.n.01'
p30
aS'father.n.01'
p31
aVfounder.n.02
p32
aS'witness.n.01'
p33
aVwitness.n.05
p34
asS'instanceCount'
p35
I34
sS'matrix'
p36
(dp37
g14
(dp38
g15
I1
ssg24
(dp39
Vdaughter.n.01
p40
I1
ssg23
(dp41
Vmerely.r.01
p42
I1
ssg19
(dp43
Vstate.n.04
p44
I1
ssg15
(dp45
g15
I0
ssg33
(dp46
g34
I1
ssg8
(dp47
g9
I1
ssg9
(dp48
g9
I0
ssg34
(dp49
g34
I0
ssg17
(dp50
g18
I1
ssg26
(dp51
g26
I0
ssg20
(dp52
g20
I0
ssg13
(dp53
g13
I0
ssg12
(dp54
g13
I1
ssg21
(dp55
g22
I1
ssg25
(dp56
g26
I1
ssg32
(dp57
g32
I0
ssg27
(dp58
Vman.n.01
p59
I1
ssg22
(dp60
g22
I0
ssg18
(dp61
g18
I0
ssg16
(dp62
g16
I0
ssg11
(dp63
g11
I0
ssg10
(dp64
g16
I10
sg20
I5
sg11
I5
ssg28
(dp65
g29
I1
ssg30
(dp66
Vhusband.n.01
p67
I1
ssg29
(dp68
g29
I0
ssg31
(dp69
g32
I1
sssb.