ccopy_reg
_reconstructor
p0
(cutils.eval
ConfusionMatrix
p1
c__builtin__
object
p2
Ntp3
Rp4
(dp5
S'labels'
p6
(lp7
S'door.n.01'
p8
aVdoorway.n.01
p9
aS'open.v.01'
p10
aVopen.v.11
p11
aS'can.n.01'
p12
aVcan.v.01
p13
aVorifice.n.01
p14
aS'mouth.n.01'
p15
aVmouth.n.02
p16
aVopen.s.04
p17
aS'window.n.01'
p18
aVwindow.n.02
p19
aS'thorax.n.02'
p20
aS'trunk.n.02'
p21
aVtrunk.n.01
p22
aVunfold.v.04
p23
aS'eye.n.01'
p24
aVeyes.n.01
p25
aS'answer.n.01'
p26
aS'purse.n.03'
p27
aVpurse.n.02
p28
aVopen.n.03
p29
aS'gap.n.03'
p30
aVcrack.n.07
p31
aS'wardrobe.n.01'
p32
aS'cabinet.n.03'
p33
aS'front_door.n.01'
p34
asS'instanceCount'
p35
I54
sS'matrix'
p36
(dp37
g16
(dp38
g16
I0
ssg15
(dp39
g16
I1
ssg25
(dp40
g25
I0
ssg9
(dp41
g9
I0
ssg32
(dp42
Vwardrobe.n.01
p43
I1
ssg26
(dp44
Vanswer.n.01
p45
I1
ssg21
(dp46
g22
I1
ssg23
(dp47
g23
I0
ssg22
(dp48
g22
I0
ssg17
(dp49
g17
I0
ssg18
(dp50
g19
I2
ssg19
(dp51
g19
I0
ssg24
(dp52
g25
I1
ssg20
(dp53
Vthorax.n.02
p54
I1
ssg30
(dp55
g31
I1
ssg27
(dp56
g28
I1
ssg28
(dp57
g28
I0
ssg33
(dp58
Vcabinet.n.03
p59
I1
ssg11
(dp60
g11
I0
ssg13
(dp61
g13
I0
ssg12
(dp62
g13
I1
ssg8
(dp63
g9
I14
ssg29
(dp64
g29
I0
ssg14
(dp65
g14
I0
ssg31
(dp66
g31
I0
ssg34
(dp67
Vfront_door.n.01
p68
I1
ssg10
(dp69
g29
I1
sg14
I1
sg23
I6
sg17
I1
sVopen.v.01
p70
I1
sg11
I17
sssb.