ccopy_reg
_reconstructor
p0
(cutils.eval
ConfusionMatrix
p1
c__builtin__
object
p2
Ntp3
Rp4
(dp5
S'labels'
p6
(lp7
S'addition.n.01'
p8
aVaddition.n.02
p9
aS'expect.v.01'
p10
aVexpect.v.05
p11
aS'resignation.n.03'
p12
aVhave_a_bun_in_the_oven.v.01
p13
aS'person.n.01'
p14
aVcaldwell.n.01
p15
aS'senate.n.01'
p16
aVunited_states_senate.n.01
p17
aS'submarine.n.01'
p18
aVbomber.n.03
p19
aS'kind.n.01'
p20
aS'worker.n.01'
p21
aVworker.n.03
p22
aS'family.n.01'
p23
aVsyndicate.n.01
p24
aS'farm.n.01'
p25
aS'worst.n.01'
p26
aVworst.r.01
p27
aS'cavalryman.n.01'
p28
aVtrooper.n.03
p29
aS'grandma.n.01'
p30
aS'grief.n.02'
p31
aVsadness.n.02
p32
aS'information.n.02'
p33
aVdata.n.01
p34
aS'pendulum.n.01'
p35
aS'monetary_value.n.01'
p36
aVprice.v.02
p37
aS'industry.n.01'
p38
aS'calamity.n.01'
p39
aVcatastrophe.n.03
p40
aS'spread.n.01'
p41
aVspread.n.08
p42
aS'event.n.01'
p43
aVevent.n.03
p44
aS'choice.n.01'
p45
aVsurvival.n.02
p46
aS'group.n.01'
p47
aVeagle.n.03
p48
aS'crowd.n.01'
p49
aVcrowd.v.02
p50
aS'radiation.n.02'
p51
aVradiation_sickness.n.01
p52
aS'solar_radiation.n.01'
p53
aS'cheat.v.02'
p54
aVjockey.v.02
p55
aS'cocktail_party.n.01'
p56
aS'sewage_system.n.01'
p57
aS'speed.n.01'
p58
aS'nothing.n.01'
p59
aVnothing.r.01
p60
aS'continuance.n.01'
p61
aVgood_continuation.n.01
p62
aS'justness.n.01'
p63
aS'body.n.01'
p64
aVtorso.n.01
p65
aS'hand.n.01'
p66
aVhand.n.05
p67
aS'independence.n.01'
p68
aVindependence.n.03
p69
aS'latter.a.01'
p70
aS'committee.n.01'
p71
aVcommittee.n.02
p72
aS'association.n.03'
p73
aVassociation.n.08
p74
aS'team.n.01'
p75
aVpolice_squad.n.01
p76
aS'toilet.n.01'
p77
aVjohn.n.05
p78
aS'distribution.n.01'
p79
aVdistribution.n.04
p80
aS'instrument.n.01'
p81
aVmusical_instrument.n.01
p82
asS'instanceCount'
p83
I84
sS'matrix'
p84
(dp85
g19
(dp86
g19
I0
ssg80
(dp87
g80
I0
ssg18
(dp88
g19
I1
ssg26
(dp89
g27
I1
ssg70
(dp90
Vlatter.a.01
p91
I1
ssg12
(dp92
Vresignation.n.03
p93
I1
ssg68
(dp94
g69
I1
ssg60
(dp95
g60
I0
ssg42
(dp96
g42
I0
ssg59
(dp97
g60
I1
ssg30
(dp98
Vgrandma.n.01
p99
I1
ssg55
(dp100
g55
I0
ssg82
(dp101
g82
I0
ssg47
(dp102
g48
I1
ssg23
(dp103
g24
I1
ssg63
(dp104
Vjustness.n.01
p105
I1
ssg78
(dp106
g78
I0
ssg22
(dp107
g22
I0
ssg51
(dp108
g52
I1
ssg21
(dp109
g22
I1
ssg57
(dp110
Vsewage_system.n.01
p111
I1
ssg34
(dp112
g34
I0
ssg46
(dp113
g46
I0
ssg25
(dp114
Vfarm.n.01
p115
I1
ssg20
(dp116
Vkind.n.01
p117
I1
ssg49
(dp118
g50
I1
ssg53
(dp119
Vsolar_radiation.n.01
p120
I1
ssg75
(dp121
g76
I1
ssg76
(dp122
g76
I0
ssg72
(dp123
g72
I0
ssg67
(dp124
g67
I0
ssg58
(dp125
Vspeed.n.01
p126
I1
ssg24
(dp127
g24
I0
ssg17
(dp128
g17
I0
ssg77
(dp129
g78
I1
ssg9
(dp130
g9
I0
ssg15
(dp131
g15
I0
ssg38
(dp132
Vindustry.n.01
p133
I1
ssg11
(dp134
g11
I0
ssg16
(dp135
g17
I1
ssg35
(dp136
Vpendulum.n.01
p137
I1
ssg10
(dp138
g11
I37
sg13
I5
ssg28
(dp139
g29
I1
ssg41
(dp140
g42
I1
ssg71
(dp141
g72
I1
ssg61
(dp142
g62
I1
ssg48
(dp143
g48
I0
ssg14
(dp144
g15
I1
ssg44
(dp145
g44
I0
ssg64
(dp146
g65
I1
ssg50
(dp147
g50
I0
ssg54
(dp148
g55
I1
ssg32
(dp149
g32
I0
ssg56
(dp150
Vcocktail_party.n.01
p151
I1
ssg66
(dp152
g67
I1
ssg43
(dp153
g44
I1
ssg27
(dp154
g27
I0
ssg37
(dp155
g37
I0
ssg13
(dp156
g13
I0
ssg33
(dp157
g34
I1
ssg31
(dp158
g32
I1
ssg62
(dp159
g62
I0
ssg69
(dp160
g69
I0
ssg45
(dp161
g46
I1
ssg39
(dp162
g40
I1
ssg73
(dp163
g74
I1
ssg8
(dp164
g9
I1
ssg29
(dp165
g29
I0
ssg79
(dp166
g80
I1
ssg74
(dp167
g74
I0
ssg81
(dp168
g82
I1
ssg40
(dp169
g40
I0
ssg36
(dp170
g37
I1
ssg65
(dp171
g65
I0
ssg52
(dp172
g52
I0
sssb.