ccopy_reg
_reconstructor
p0
(cutils.eval
ConfusionMatrix
p1
c__builtin__
object
p2
Ntp3
Rp4
(dp5
S'labels'
p6
(lp7
S'body.n.01'
p8
aVtorso.n.01
p9
aS'see.v.01'
p10
aVvisit.v.01
p11
aS'piano.n.01'
p12
aVsee.v.19
p13
aS'blanket.n.01'
p14
aVblanket.n.03
p15
aVsee.n.01
p16
aS'person.n.01'
p17
aVburton.n.01
p18
aVdetermine.v.08
p19
aS'scar.n.01'
p20
aVscar.v.01
p21
aS'handwriting.n.01'
p22
aVpass.v.05
p23
aVvisual_perception.n.01
p24
aS'light.n.02'
p25
aVlight.n.07
p26
aVunderstand.v.02
p27
aS'chagrin.n.01'
p28
aVhumiliation.n.04
p29
aVsee.v.17
p30
aS'incident.n.01'
p31
aVincident.a.01
p32
aS'couple.n.01'
p33
aVcouple.n.05
p34
aVvisualize.v.01
p35
aS'occupation.n.01'
p36
aVsubcontract.v.01
p37
aVwitness.v.02
p38
aS'one-half.n.01'
p39
aVhalf.r.01
p40
aVsee.v.10
p41
aS'maggot.n.01'
p42
aVwatch.v.03
p43
aS'object.n.01'
p44
aS'corner.n.05'
p45
aVcorner.n.04
p46
aS'presentation.n.02'
p47
aVpresentation.n.03
p48
aS'hand.n.01'
p49
aVperson.n.03
p50
aS'face.n.01'
p51
aVface.n.08
p52
aS'distill.v.03'
p53
aVpurify.v.01
p54
aVface.v.07
p55
aS'match.v.01'
p56
aVrepresent.v.01
p57
aS'part.n.01'
p58
aS'video.n.01'
p59
aVphotograph.n.01
p60
aS'guy.n.01'
p61
aVguy.v.02
p62
aS'man.n.01'
p63
aVhomo.n.02
p64
aS'face.n.03'
p65
aS'handicraft.n.01'
p66
aS'tooth.n.01'
p67
aVdentition.n.02
p68
aVseeing.s.01
p69
aS'enchantress.n.02'
p70
aVwitch.n.02
p71
aVface.n.07
p72
aS'steeple.n.01'
p73
aS'thing.n.05'
p74
aVthing.n.12
p75
aS'nothing.n.01'
p76
aVobject.n.05
p77
aS'tree.n.01'
p78
aVtree.v.02
p79
aVgranny_knot.n.01
p80
aS'torch.n.01'
p81
aVcommon_mullein.n.01
p82
aS'buckle.v.02'
p83
aVbuckle.v.01
p84
aVpart.n.02
p85
aS'money.n.01'
p86
aVmoney.n.02
p87
aS'cloud.n.02'
p88
aVswarm.n.02
p89
aS'woman.n.01'
p90
aVface.v.05
p91
aVsparling.n.02
p92
aS'populate.v.01'
p93
aVliving.n.02
p94
aS'ahead.r.01'
p95
aS'wildcat_well.n.01'
p96
aS'close.v.02'
p97
aVclose.v.10
p98
aS'thing.n.04'
p99
aS'battery.n.02'
p100
aVbattery.n.05
p101
aS'abdomen.n.01'
p102
aVbelly.n.05
p103
aS'tons.n.01'
p104
aVwad.n.01
p105
aVnothing.r.01
p106
aS'newspaper.n.01'
p107
aVnewspaper.n.04
p108
aS'macrophage.n.01'
p109
aS'illustration.n.01'
p110
aVillustration.n.04
p111
aS'definition.n.02'
p112
aVdefinition.n.01
p113
aS'envelope.n.01'
p114
aVenvelope.n.05
p115
aS'hassle.n.02'
p116
aVshuffle.v.01
p117
aS'copy.n.02'
p118
aVtranscript.n.02
p119
aS'assortment.n.01'
p120
aVvariety.n.03
p121
aS'doctor.n.01'
p122
aVsophisticate.v.03
p123
aS'close_in.v.01'
p124
aS'girl.n.01'
p125
aVgirlfriend.n.02
p126
aS'car.n.01'
p127
aVcar.n.03
p128
aS'smile.n.01'
p129
asS'instanceCount'
p130
I145
sS'matrix'
p131
(dp132
g127
(dp133
g128
I1
ssg51
(dp134
g55
I3
sg91
I1
sg52
I1
ssg75
(dp135
g75
I0
ssg98
(dp136
g98
I0
ssg89
(dp137
g89
I0
ssg94
(dp138
g94
I0
ssg108
(dp139
g108
I0
ssg85
(dp140
g85
I0
ssg118
(dp141
g119
I1
ssg58
(dp142
g85
I1
sVpart.n.01
p143
I1
ssg111
(dp144
g111
I0
ssg22
(dp145
g23
I1
ssg16
(dp146
g16
I0
ssg59
(dp147
g60
I1
ssg114
(dp148
g115
I1
ssg20
(dp149
g21
I1
ssg56
(dp150
g57
I1
ssg115
(dp151
g115
I0
ssg72
(dp152
g72
I0
ssg38
(dp153
g38
I0
ssg65
(dp154
g55
I1
sg72
I1
ssg42
(dp155
Vmaggot.n.01
p156
I1
ssg52
(dp157
g52
I0
ssg54
(dp158
g54
I0
ssg86
(dp159
g87
I1
ssg87
(dp160
g87
I0
ssg30
(dp161
g30
I0
ssg64
(dp162
g64
I0
ssg11
(dp163
g11
I0
ssg71
(dp164
g71
I0
ssg84
(dp165
g84
I0
ssg76
(dp166
g106
I1
sVnothing.n.01
p167
I1
ssg83
(dp168
g84
I1
ssg81
(dp169
g82
I1
ssg102
(dp170
g103
I1
ssg69
(dp171
g69
I0
ssg88
(dp172
g89
I1
ssg93
(dp173
g94
I1
ssg73
(dp174
Vsteeple.n.01
p175
I1
ssg53
(dp176
g54
I1
ssg35
(dp177
g35
I0
ssg129
(dp178
Vsmile.n.01
p179
I1
ssg49
(dp180
g23
I1
ssg37
(dp181
g37
I0
ssg67
(dp182
g68
I1
ssg23
(dp183
g23
I0
ssg79
(dp184
g79
I0
ssg107
(dp185
g108
I1
ssg8
(dp186
g9
I1
ssg124
(dp187
Vclose_in.v.01
p188
I1
ssg116
(dp189
g117
I1
ssg95
(dp190
Vahead.r.01
p191
I1
ssg32
(dp192
g32
I0
ssg96
(dp193
Vwildcat_well.n.01
p194
I1
ssg70
(dp195
g71
I1
ssg66
(dp196
Vhandicraft.n.01
p197
I1
ssg126
(dp198
g126
I0
ssg57
(dp199
g57
I0
ssg80
(dp200
g80
I0
ssg123
(dp201
g123
I0
ssg61
(dp202
g62
I1
ssg31
(dp203
g32
I1
ssg40
(dp204
g40
I0
ssg14
(dp205
g15
I1
ssg15
(dp206
g15
I0
ssg92
(dp207
g92
I0
ssg117
(dp208
g117
I0
ssg119
(dp209
g119
I0
ssg97
(dp210
g98
I1
ssg128
(dp211
g128
I0
ssg90
(dp212
Vwoman.n.01
p213
I1
ssg62
(dp214
g62
I0
ssg29
(dp215
g29
I0
ssg113
(dp216
g113
I0
ssg112
(dp217
g113
I1
ssg63
(dp218
g64
I2
ssg101
(dp219
g101
I0
ssg68
(dp220
g68
I0
ssg100
(dp221
g101
I1
ssg105
(dp222
g105
I0
ssg110
(dp223
g111
I1
ssg109
(dp224
Vmacrophage.n.01
p225
I1
ssg48
(dp226
g48
I0
ssg47
(dp227
g48
I1
ssg18
(dp228
g18
I0
ssg21
(dp229
g21
I0
ssg104
(dp230
g105
I1
ssg106
(dp231
g106
I0
ssg24
(dp232
g24
I0
ssg120
(dp233
g121
I1
ssg44
(dp234
Vobject.n.01
p235
I1
sg77
I1
ssg43
(dp236
g43
I0
ssg77
(dp237
g77
I0
ssg34
(dp238
g34
I0
ssg33
(dp239
g34
I1
ssg36
(dp240
g37
I1
ssg13
(dp241
g13
I0
ssg55
(dp242
g55
I0
ssg41
(dp243
g41
I0
ssg91
(dp244
g91
I0
ssg27
(dp245
g27
I0
ssg26
(dp246
g26
I0
ssg25
(dp247
g26
I1
ssg46
(dp248
g46
I0
ssg45
(dp249
g46
I1
ssg17
(dp250
g80
I1
sg18
I1
sg50
I1
sg92
I1
ssg78
(dp251
g79
I1
ssg50
(dp252
g50
I0
ssg60
(dp253
g60
I0
ssg99
(dp254
g75
I1
ssg74
(dp255
g75
I1
ssg121
(dp256
g121
I0
ssg28
(dp257
g29
I1
ssg12
(dp258
Vpiano.n.01
p259
I1
ssg10
(dp260
g69
I1
sg38
I6
sg16
I4
sg24
I7
sg27
I1
sg13
I1
sg43
I9
sg35
I6
sg11
I18
sg30
I11
sg41
I3
sVsee.v.01
p261
I6
sg19
I1
ssg103
(dp262
g103
I0
ssg125
(dp263
g126
I2
ssg122
(dp264
g123
I1
ssg39
(dp265
g40
I1
ssg82
(dp266
g82
I0
ssg19
(dp267
g19
I0
ssg9
(dp268
g9
I0
sssb.