ccopy_reg
_reconstructor
p0
(cutils.eval
ConfusionMatrix
p1
c__builtin__
object
p2
Ntp3
Rp4
(dp5
S'labels'
p6
(lp7
S'employee.n.01'
p8
aS'necessitate.v.01'
p9
aS'storage.n.01'
p10
aVstorage.n.04
p11
aVwant.v.02
p12
aS'list.n.01'
p13
aVlist.v.01
p14
aS'understanding.n.01'
p15
aVunderstand.v.01
p16
aS'hydrogen_bond.n.01'
p17
aS'support.n.01'
p18
aVsupport.n.04
p19
aS'exposition.n.01'
p20
aVexposition.n.04
p21
aS'revision.n.01'
p22
aVrevision.n.02
p23
aS'musician.n.01'
p24
aVplayer.n.05
p25
aS'operation.n.03'
p26
aVoperation.n.11
p27
aS'force.n.01'
p28
aVforce_out.n.01
p29
aS'comment.n.02'
p30
aS'energy.n.03'
p31
aVenergy.n.01
p32
aVcompulsory.s.01
p33
aS'batch.n.02'
p34
aS'exploration.n.02'
p35
aVneeded.s.01
p36
aS'recognition.n.02'
p37
aVrecognition.n.05
p38
aS'fall.v.01'
p39
aVdescend.v.01
p40
aS'production.n.04'
p41
aVproduction.n.08
p42
aS'report.n.01'
p43
aVreport.v.05
p44
aS'nothing.n.01'
p45
aVnothing.r.01
p46
aS'remark.n.01'
p47
aVcomment.v.01
p48
aS'oversimplification.n.01'
p49
aS'experiment.n.01'
p50
aVexperiment.n.02
p51
aVask.v.04
p52
aS'prolongation.n.01'
p53
aS'series.n.01'
p54
aVseries.n.05
p55
aS'contractor.n.01'
p56
aVcontractor.n.02
p57
aS'thinking.n.01'
p58
aVthink.v.03
p59
aS'cooperation.n.01'
p60
aVcooperation.n.02
p61
aS'theory.n.01'
p62
aS'unit_of_measurement.n.01'
p63
aVwhole.n.02
p64
aS'study.n.04'
p65
aVsurvey.n.01
p66
aS'area.n.01'
p67
aVsphere.n.01
p68
aS'removal.n.01'
p69
aS'construction.n.01'
p70
aVconstruction.n.07
p71
aS'addition.n.01'
p72
aVsummation.n.04
p73
aS'ballast_resistor.n.01'
p74
aS'eye.n.01'
p75
aVeye.n.03
p76
aS'unfeelingness.n.01'
p77
aS'merchandise.n.01'
p78
aVintersection.n.04
p79
aS'process.v.01'
p80
aS'eye.n.02'
p81
aVeye.n.05
p82
aS'mystique.n.01'
p83
asS'instanceCount'
p84
I87
sS'matrix'
p85
(dp86
g48
(dp87
g48
I0
ssg30
(dp88
Vcomment.n.02
p89
I1
ssg39
(dp90
g40
I1
ssg17
(dp91
Vhydrogen_bond.n.01
p92
I1
ssg46
(dp93
g46
I0
ssg27
(dp94
g27
I0
ssg45
(dp95
g46
I1
ssg10
(dp96
g11
I1
ssg21
(dp97
g21
I0
ssg23
(dp98
g23
I0
ssg67
(dp99
g68
I1
ssg20
(dp100
g21
I1
ssg22
(dp101
g23
I1
ssg59
(dp102
g59
I0
ssg57
(dp103
g57
I0
ssg83
(dp104
Vmystique.n.01
p105
I1
ssg12
(dp106
g12
I0
ssg76
(dp107
g76
I0
ssg81
(dp108
g82
I1
ssg65
(dp109
g66
I1
ssg58
(dp110
g59
I1
ssg53
(dp111
Vprolongation.n.01
p112
I1
ssg80
(dp113
Vprocess.v.01
p114
I1
ssg68
(dp115
g68
I0
ssg66
(dp116
g66
I0
ssg43
(dp117
g44
I1
ssg79
(dp118
g79
I0
ssg62
(dp119
Vtheory.n.01
p120
I1
ssg35
(dp121
Vexploration.n.02
p122
I1
ssg42
(dp123
g42
I0
ssg37
(dp124
g38
I1
ssg38
(dp125
g38
I0
ssg33
(dp126
g33
I0
ssg51
(dp127
g51
I0
ssg9
(dp128
Vnecessitate.v.01
p129
I7
sg36
I2
sg52
I1
sg33
I3
sg12
I31
ssg50
(dp130
g51
I1
ssg26
(dp131
g27
I1
ssg16
(dp132
g16
I0
ssg15
(dp133
g16
I1
ssg11
(dp134
g11
I0
ssg29
(dp135
g29
I0
ssg73
(dp136
g73
I0
ssg74
(dp137
Vballast_resistor.n.01
p138
I1
ssg14
(dp139
g14
I0
ssg75
(dp140
g76
I1
ssg77
(dp141
Vunfeelingness.n.01
p142
I1
ssg60
(dp143
g61
I1
ssg13
(dp144
g14
I1
ssg56
(dp145
g57
I1
ssg28
(dp146
g29
I1
ssg40
(dp147
g40
I0
ssg54
(dp148
g55
I1
ssg24
(dp149
g25
I1
ssg55
(dp150
g55
I0
ssg63
(dp151
g64
I1
ssg61
(dp152
g61
I0
ssg32
(dp153
g32
I0
ssg82
(dp154
g82
I0
ssg31
(dp155
g32
I1
ssg41
(dp156
g42
I1
ssg69
(dp157
Vremoval.n.01
p158
I1
ssg52
(dp159
g52
I0
ssg47
(dp160
g48
I1
ssg34
(dp161
Vbatch.n.02
p162
I2
ssg8
(dp163
Vemployee.n.01
p164
I1
ssg44
(dp165
g44
I0
ssg78
(dp166
g79
I1
ssg19
(dp167
g19
I0
ssg36
(dp168
g36
I0
ssg70
(dp169
g71
I1
ssg18
(dp170
g19
I1
ssg25
(dp171
g25
I0
ssg49
(dp172
Voversimplification.n.01
p173
I1
ssg64
(dp174
g64
I0
ssg72
(dp175
g73
I1
ssg71
(dp176
g71
I0
sssb.