ccopy_reg
_reconstructor
p0
(cutils.eval
ConfusionMatrix
p1
c__builtin__
object
p2
Ntp3
Rp4
(dp5
S'labels'
p6
(lp7
S'wire.n.02'
p8
aVwire.v.03
p9
aS'enter.v.01'
p10
aVentrance.n.03
p11
aS'cloudiness.n.01'
p12
aVovercast.v.03
p13
aVenter.v.06
p14
aVrecord.v.01
p15
aS'area.n.01'
p16
aVarea.n.06
p17
aVfigure.v.02
p18
aS'room.n.01'
p19
aVroom.n.04
p20
aVinsert.v.01
p21
aS'living_room.n.01'
p22
aS'test_room.n.01'
p23
aS'area.n.02'
p24
aS'master_bedroom.n.01'
p25
aS'soapsuds.n.01'
p26
aVsuds.v.01
p27
aS'alveolar_bed.n.01'
p28
aS'stream.n.01'
p29
aVstream.n.04
p30
aS'barn.n.01'
p31
aVbarn.n.02
p32
aS'mind.n.01'
p33
aS'manor_hall.n.01'
p34
aS'suite.n.02'
p35
aS'hair.n.01'
p36
aVhair.n.04
p37
aS'church.n.02'
p38
aVchurch.n.04
p39
asS'instanceCount'
p40
I44
sS'matrix'
p41
(dp42
g18
(dp43
g18
I0
ssg13
(dp44
g13
I0
ssg29
(dp45
g30
I1
ssg21
(dp46
g21
I0
ssg11
(dp47
g11
I0
ssg30
(dp48
g30
I0
ssg8
(dp49
g9
I1
ssg12
(dp50
g13
I1
ssg32
(dp51
g32
I0
ssg25
(dp52
Vmaster_bedroom.n.01
p53
I1
ssg31
(dp54
g32
I1
ssg15
(dp55
g15
I0
ssg20
(dp56
g20
I0
ssg19
(dp57
g20
I5
ssg35
(dp58
Vsuite.n.02
p59
I1
ssg17
(dp60
g17
I0
ssg24
(dp61
g17
I1
ssg16
(dp62
g17
I1
ssg39
(dp63
g39
I0
ssg38
(dp64
g39
I1
ssg27
(dp65
g27
I0
ssg26
(dp66
g27
I1
ssg9
(dp67
g9
I0
ssg22
(dp68
Vliving_room.n.01
p69
I1
ssg23
(dp70
Vtest_room.n.01
p71
I1
ssg34
(dp72
Vmanor_hall.n.01
p73
I1
ssg33
(dp74
Vmind.n.01
p75
I1
ssg28
(dp76
Valveolar_bed.n.01
p77
I1
ssg14
(dp78
g14
I0
ssg37
(dp79
g37
I0
ssg36
(dp80
g37
I1
ssg10
(dp81
g18
I12
sg15
I4
sg14
I1
sg21
I1
sg11
I1
sVenter.v.01
p82
I4
sssb.