ccopy_reg
_reconstructor
p0
(cutils.eval
ConfusionMatrix
p1
c__builtin__
object
p2
Ntp3
Rp4
(dp5
S'labels'
p6
(lp7
S'limit.n.01'
p8
aVlimit.v.02
p9
aS'put.v.01'
p10
aVput_option.n.02
p11
aS'marker.n.02'
p12
aVscore.v.02
p13
aS'hand.n.01'
p14
aVpass.v.05
p15
aS'opium.n.01'
p16
aVput.v.02
p17
aS'shell.n.01'
p18
aVplate.n.14
p19
aS'edge.n.04'
p20
aVedge.v.04
p21
aS'towel.n.01'
p22
aVtowel.v.01
p23
aS'arm.n.01'
p24
aVarm.v.02
p25
aVsleeve.n.01
p26
aS'chin.n.01'
p27
aVkuki.n.01
p28
aS'slipper.n.01'
p29
aVskidder.n.01
p30
aS'shirt.n.01'
p31
aVshirt.v.01
p32
aS'emphasis.n.01'
p33
aVstress.n.01
p34
aS'nigger.n.01'
p35
aS'atom_bomb.n.01'
p36
aS'cloud.n.01'
p37
aVswarm.n.02
p38
aS'military_post.n.01'
p39
aVpost.v.08
p40
aS'piece.n.01'
p41
aVpatch.v.01
p42
aVputt.n.01
p43
aS'time.n.01'
p44
aVtime.v.05
p45
aS'berth.n.03'
p46
aVscat.v.01
p47
aS'satellite.n.01'
p48
aVlimit.n.06
p49
aS'wagon.n.01'
p50
aVpolice_van.n.01
p51
aS'cat.n.01'
p52
aVvomit.v.01
p53
aS'girl.n.01'
p54
aVgirlfriend.n.02
p55
aS'ahead.r.01'
p56
aS'hair.n.01'
p57
aVhair.n.04
p58
aS'bullet.n.01'
p59
aVfastball.n.01
p60
aS'gun.n.01'
p61
aVgunman.n.02
p62
aS'figure.n.04'
p63
aVfigure.v.02
p64
aS'scoop.n.01'
p65
aVscoop.v.01
p66
aS'mulch.n.01'
p67
aVmulch.v.01
p68
aS'play.n.03'
p69
aVplay.v.15
p70
aS'things.n.01'
p71
aVthing.n.12
p72
aS'money.n.01'
p73
aVmoney.n.03
p74
aS'key.n.01'
p75
aVkey.v.03
p76
aS'piece.n.02'
p77
aVwhile.n.01
p78
aS'beer_mug.n.01'
p79
asS'instanceCount'
p80
I90
sS'matrix'
p81
(dp82
g76
(dp83
g76
I0
ssg64
(dp84
g64
I0
ssg19
(dp85
g19
I0
ssg69
(dp86
g70
I1
ssg18
(dp87
g19
I1
ssg23
(dp88
g23
I0
ssg50
(dp89
g51
I1
ssg13
(dp90
g13
I0
ssg72
(dp91
g72
I0
ssg75
(dp92
g76
I1
ssg43
(dp93
g43
I0
ssg67
(dp94
g68
I1
ssg30
(dp95
g30
I0
ssg63
(dp96
g64
I1
ssg38
(dp97
g38
I0
ssg32
(dp98
g32
I0
ssg45
(dp99
g45
I0
ssg37
(dp100
g38
I1
ssg8
(dp101
g49
I1
sg9
I1
ssg24
(dp102
g26
I4
sVarm.n.01
p103
I1
sg25
I1
ssg52
(dp104
g53
I1
ssg21
(dp105
g21
I0
ssg44
(dp106
g45
I1
ssg48
(dp107
Vsatellite.n.01
p108
I1
ssg40
(dp109
g40
I0
ssg66
(dp110
g66
I0
ssg22
(dp111
g23
I2
ssg14
(dp112
g15
I1
ssg31
(dp113
g32
I1
ssg79
(dp114
Vbeer_mug.n.01
p115
I1
ssg53
(dp116
g53
I0
ssg68
(dp117
g68
I0
ssg65
(dp118
g66
I1
ssg15
(dp119
g15
I0
ssg49
(dp120
g49
I0
ssg27
(dp121
g28
I1
ssg74
(dp122
g74
I0
ssg60
(dp123
g60
I0
ssg77
(dp124
g78
I1
ssg55
(dp125
g55
I0
ssg41
(dp126
g42
I1
ssg62
(dp127
g62
I0
ssg20
(dp128
g21
I1
ssg71
(dp129
g72
I1
ssg56
(dp130
Vahead.r.01
p131
I1
ssg59
(dp132
g60
I1
ssg35
(dp133
Vnigger.n.01
p134
I1
ssg9
(dp135
g9
I0
ssg73
(dp136
g74
I1
ssg51
(dp137
g51
I0
ssg78
(dp138
g78
I0
ssg46
(dp139
g47
I1
ssg61
(dp140
g62
I1
ssg47
(dp141
g47
I0
ssg28
(dp142
g28
I0
ssg39
(dp143
g40
I1
ssg33
(dp144
g34
I2
ssg70
(dp145
g70
I0
ssg34
(dp146
g34
I0
ssg17
(dp147
g17
I0
ssg10
(dp148
g43
I5
sg11
I27
sg17
I7
sVput.v.01
p149
I7
ssg54
(dp150
g55
I1
ssg12
(dp151
g13
I1
ssg36
(dp152
Vatom_bomb.n.01
p153
I1
ssg29
(dp154
g30
I1
ssg42
(dp155
g42
I0
ssg26
(dp156
g26
I0
ssg16
(dp157
Vopium.n.01
p158
I1
ssg25
(dp159
g25
I0
ssg58
(dp160
g58
I0
ssg11
(dp161
g11
I0
ssg57
(dp162
g58
I1
sssb.