ccopy_reg
_reconstructor
p0
(cutils.eval
ConfusionMatrix
p1
c__builtin__
object
p2
Ntp3
Rp4
(dp5
S'labels'
p6
(lp7
S'benefit.n.01'
p8
aVbenefit.n.02
p9
aS'pay.v.01'
p10
aVwage.n.01
p11
aS'customer.n.01'
p12
aVpay.v.09
p13
aS'tax.n.01'
p14
aVpay.v.10
p15
aS'one-half.n.01'
p16
aVhalf.r.01
p17
aVpay.v.05
p18
aS'tuition.n.01'
p19
aVtutelage.n.01
p20
aS'services.n.01'
p21
aVservice.n.11
p22
aVpaid.a.01
p23
aVpay_up.v.01
p24
aS'remainder.n.01'
p25
aVrest.n.06
p26
aS'royalty.n.01'
p27
aS'monetary_value.n.01'
p28
aVprice.n.05
p29
aS'rent.n.01'
p30
aVrent.n.04
p31
aVpay.v.07
p32
aVtaxis.n.02
p33
aS'usher.n.03'
p34
aVguide.n.06
p35
aS'in_full.r.01'
p36
aS'payment.n.01'
p37
aS'interest.n.04'
p38
aVmatter_to.v.01
p39
aS'bill.n.02'
p40
aVbill.n.07
p41
aS'check.n.01'
p42
aVcheck.v.18
p43
aVbill.n.09
p44
asS'instanceCount'
p45
I48
sS'matrix'
p46
(dp47
g37
(dp48
Vpayment.n.01
p49
I1
ssg17
(dp50
g17
I0
ssg8
(dp51
g9
I1
ssg21
(dp52
g22
I1
ssg9
(dp53
g9
I0
ssg38
(dp54
g39
I1
ssg29
(dp55
g29
I0
ssg43
(dp56
g43
I0
ssg33
(dp57
g33
I0
ssg20
(dp58
g20
I0
ssg11
(dp59
g11
I0
ssg18
(dp60
g18
I0
ssg32
(dp61
g32
I0
ssg10
(dp62
g23
I1
sg11
I1
sg18
I5
sg32
I3
sVpay.v.01
p63
I1
sg15
I5
sg13
I6
sg24
I2
ssg22
(dp64
g22
I0
ssg40
(dp65
g44
I1
sg41
I1
ssg27
(dp66
Vroyalty.n.01
p67
I1
ssg13
(dp68
g13
I0
ssg44
(dp69
g44
I0
ssg31
(dp70
g31
I0
ssg34
(dp71
g35
I1
ssg30
(dp72
g31
I2
sVrent.n.01
p73
I1
ssg35
(dp74
g35
I0
ssg39
(dp75
g39
I0
ssg19
(dp76
g20
I1
ssg36
(dp77
Vin_full.r.01
p78
I2
ssg12
(dp79
Vcustomer.n.01
p80
I1
ssg14
(dp81
Vtax.n.01
p82
I2
sg33
I1
ssg26
(dp83
g26
I0
ssg42
(dp84
g43
I1
ssg23
(dp85
g23
I0
ssg25
(dp86
g26
I1
ssg41
(dp87
g41
I0
ssg15
(dp88
g15
I0
ssg16
(dp89
Vone-half.n.01
p90
I1
sg17
I2
ssg28
(dp91
g29
I1
ssg24
(dp92
g24
I0
sssb.