ccopy_reg
_reconstructor
p0
(cutils.eval
ConfusionMatrix
p1
c__builtin__
object
p2
Ntp3
Rp4
(dp5
S'labels'
p6
(lp7
S'inclination.n.01'
p8
aVtendency.n.04
p9
aS'increase.v.02'
p10
aVincrease.n.05
p11
aS'responsiveness.n.01'
p12
aVresponsiveness.n.02
p13
aVincreased.a.01
p14
aS'discharge.n.01'
p15
aVdismissal.n.04
p16
aS'intensity.n.01'
p17
aVvolume.n.06
p18
aS'pressure.n.02'
p19
aVcoerce.v.01
p20
aVincrease.n.02
p21
aS'suffering.n.02'
p22
aVsuffer.v.09
p23
aS'comfort.n.02'
p24
aVcomfort.v.01
p25
aS'production.n.01'
p26
aVproduction.n.08
p27
aS'rate.n.01'
p28
aVrate.n.02
p29
aS'degree.n.01'
p30
aVtied.s.05
p31
aS'end_product.n.01'
p32
aVoutput.n.04
p33
aS'speed.n.03'
p34
aVfocal_ratio.n.01
p35
aS'flexibility.n.01'
p36
aVtractability.n.01
p37
aS'power.n.01'
p38
aVexponent.n.03
p39
aS'size.n.01'
p40
aVsize.v.03
p41
aVincrease.n.04
p42
aS'concentration.n.02'
p43
aVconcentration.n.03
p44
aS'effectiveness.n.01'
p45
aS'allotment.n.01'
p46
aVallotment.n.02
p47
aS'possibility.n.02'
p48
aVhypothesis.n.02
p49
aS'increase.v.01'
p50
aS'fear.n.01'
p51
aVreverence.v.01
p52
aVincreasing.a.02
p53
aS'cost.n.01'
p54
aVmonetary_value.n.01
p55
aS'volume.n.01'
p56
aS'column_inch.n.01'
p57
aVinch.n.01
p58
aS'acceleration.n.01'
p59
aVacceleration.n.03
p60
aS'dose.n.02'
p61
aS'strength.n.01'
p62
aVpersuasiveness.n.01
p63
aS'time_period.n.01'
p64
aVperiod.n.07
p65
aS'schedule.n.02'
p66
aVschedule.v.02
p67
aS'attraction.n.01'
p68
aVattraction.n.04
p69
aS'absorption.n.01'
p70
aVpreoccupation.n.02
p71
aS'temperature.n.01'
p72
aVtemperature.n.02
p73
aVrate.v.02
p74
aS'efficiency.n.01'
p75
aS'capacity.n.03'
p76
aVcapacity.n.06
p77
aS'dark.n.01'
p78
aViniquity.n.01
p79
aS'popularity.n.01'
p80
aS'loan.n.01'
p81
aVloanword.n.01
p82
aS'intensity.n.02'
p83
aS'diameter.n.01'
p84
asS'instanceCount'
p85
I88
sS'matrix'
p86
(dp87
g24
(dp88
g25
I1
ssg76
(dp89
g77
I1
ssg11
(dp90
g11
I0
ssg42
(dp91
g42
I0
ssg36
(dp92
g37
I2
ssg21
(dp93
g21
I0
ssg66
(dp94
g67
I1
ssg8
(dp95
g9
I1
ssg64
(dp96
g65
I1
ssg25
(dp97
g25
I0
ssg63
(dp98
g63
I0
ssg15
(dp99
g16
I1
ssg65
(dp100
g65
I0
ssg45
(dp101
Veffectiveness.n.01
p102
I1
ssg57
(dp103
g58
I1
ssg59
(dp104
g60
I1
ssg34
(dp105
g35
I1
ssg10
(dp106
g11
I11
sg42
I1
sg14
I5
sg21
I4
sVincrease.v.02
p107
I1
ssg50
(dp108
g53
I2
sg11
I4
sg14
I10
sg21
I3
sg107
I1
sVincrease.v.01
p109
I2
ssg77
(dp110
g77
I0
ssg17
(dp111
g18
I1
ssg53
(dp112
g53
I0
ssg48
(dp113
g49
I1
ssg40
(dp114
g41
I1
ssg62
(dp115
g63
I1
ssg60
(dp116
g60
I0
ssg33
(dp117
g33
I0
ssg41
(dp118
g41
I0
ssg80
(dp119
Vpopularity.n.01
p120
I1
ssg27
(dp121
g27
I0
ssg54
(dp122
g55
I1
ssg52
(dp123
g52
I0
ssg49
(dp124
g49
I0
ssg58
(dp125
g58
I0
ssg82
(dp126
g82
I0
ssg70
(dp127
g71
I1
ssg32
(dp128
g33
I1
ssg26
(dp129
g27
I3
ssg16
(dp130
g16
I0
ssg78
(dp131
g79
I1
ssg81
(dp132
g82
I1
ssg68
(dp133
g69
I1
ssg84
(dp134
Vdiameter.n.01
p135
I1
ssg69
(dp136
g69
I0
ssg75
(dp137
Vefficiency.n.01
p138
I1
ssg20
(dp139
g20
I0
ssg37
(dp140
g37
I0
ssg74
(dp141
g74
I0
ssg23
(dp142
g23
I0
ssg72
(dp143
g73
I1
ssg30
(dp144
g31
I1
ssg67
(dp145
g67
I0
ssg19
(dp146
g20
I1
ssg38
(dp147
g39
I1
ssg56
(dp148
g18
I1
ssg12
(dp149
g13
I1
ssg13
(dp150
g13
I0
ssg22
(dp151
g23
I1
ssg14
(dp152
g14
I0
ssg35
(dp153
g35
I0
ssg83
(dp154
g18
I1
ssg44
(dp155
g44
I0
ssg43
(dp156
g44
I1
ssg71
(dp157
g71
I0
ssg18
(dp158
g18
I0
ssg51
(dp159
g52
I1
ssg46
(dp160
g47
I1
ssg47
(dp161
g47
I0
ssg31
(dp162
g31
I0
ssg61
(dp163
Vdose.n.02
p164
I1
ssg39
(dp165
g39
I0
ssg28
(dp166
g29
I3
sg74
I1
ssg9
(dp167
g9
I0
ssg73
(dp168
g73
I0
ssg29
(dp169
g29
I0
ssg55
(dp170
g55
I0
ssg79
(dp171
g79
I0
sssb.