ccopy_reg
_reconstructor
p0
(cutils.eval
ConfusionMatrix
p1
c__builtin__
object
p2
Ntp3
Rp4
(dp5
S'labels'
p6
(lp7
S'event.n.01'
p8
aVevent.n.03
p9
aS'watch.v.01'
p10
aVwatch.v.05
p11
aS'bee.n.01'
p12
aS'form.n.03'
p13
aVradiation_pattern.n.01
p14
aVobservation.n.02
p15
aS'girl.n.01'
p16
aVgirlfriend.n.02
p17
aS'half-breed.n.01'
p18
aS'ball.n.03'
p19
aVtestis.n.01
p20
aS'board.v.01'
p21
aVcontrol_panel.n.01
p22
aS'volley.n.02'
p23
aVvolley.v.03
p24
aS'boarding.n.01'
p25
aVvigil.n.02
p26
aS'human_body.n.01'
p27
aVnumber.n.01
p28
aS'bat.n.01'
p29
aVcream.v.02
p30
aS'ride.v.02'
p31
aVride.n.02
p32
aS'tree.n.01'
p33
aVtree.v.04
p34
aS'grope.v.01'
p35
aVfumble.v.05
p36
aVwatch.v.06
p37
aS'bending.n.01'
p38
aVcrouch.v.01
p39
aS'opportunity.n.01'
p40
aS'manner.n.01'
p41
aVway.n.11
p42
aS'reaction.n.03'
p43
aS'hand.n.01'
p44
aVhand.n.13
p45
aS'face.n.03'
p46
aVface.v.07
p47
aS'cloud.n.02'
p48
aVswarm.n.02
p49
aS'ship.n.01'
p50
aVtransport.v.04
p51
aS'progress.n.03'
p52
aVprogress.n.02
p53
asS'instanceCount'
p54
I48
sS'matrix'
p55
(dp56
g38
(dp57
g39
I1
ssg26
(dp58
g26
I0
ssg42
(dp59
g42
I0
ssg37
(dp60
g37
I0
ssg11
(dp61
g11
I0
ssg10
(dp62
g26
I1
sg11
I15
sg15
I7
sg37
I1
ssg36
(dp63
g36
I0
ssg49
(dp64
g49
I0
ssg50
(dp65
g51
I1
ssg32
(dp66
g32
I0
ssg30
(dp67
g30
I0
ssg13
(dp68
g14
I1
ssg48
(dp69
g49
I1
ssg23
(dp70
g24
I1
ssg20
(dp71
g20
I0
ssg18
(dp72
Vhalf-breed.n.01
p73
I1
ssg29
(dp74
g30
I1
ssg44
(dp75
g45
I1
ssg47
(dp76
g47
I0
ssg15
(dp77
g15
I0
ssg52
(dp78
g53
I1
ssg19
(dp79
g20
I1
ssg43
(dp80
Vreaction.n.03
p81
I1
ssg12
(dp82
Vbee.n.01
p83
I1
ssg51
(dp84
g51
I0
ssg31
(dp85
g32
I1
ssg41
(dp86
g42
I1
ssg39
(dp87
g39
I0
ssg14
(dp88
g14
I0
ssg35
(dp89
g36
I1
ssg17
(dp90
g17
I0
ssg27
(dp91
g28
I1
ssg24
(dp92
g24
I0
ssg46
(dp93
g47
I1
ssg25
(dp94
Vboarding.n.01
p95
I1
ssg34
(dp96
g34
I0
ssg8
(dp97
g9
I1
ssg53
(dp98
g53
I0
ssg9
(dp99
g9
I0
ssg22
(dp100
g22
I0
ssg33
(dp101
g34
I1
ssg16
(dp102
g17
I2
ssg21
(dp103
g22
I1
ssg28
(dp104
g28
I0
ssg45
(dp105
g45
I0
ssg40
(dp106
Vopportunity.n.01
p107
I1
sssb.