ccopy_reg
_reconstructor
p0
(cutils.eval
ConfusionMatrix
p1
c__builtin__
object
p2
Ntp3
Rp4
(dp5
S'labels'
p6
(lp7
S'eulogize.v.01'
p8
aS'hear.v.01'
p9
aVlearn.v.02
p10
aS'shooting.n.01'
p11
aVstroke.n.01
p12
aVhear.v.03
p13
aS'distinctly.r.01'
p14
aVlisten.v.02
p15
aS'chink.n.03'
p16
aVsuction_stop.n.01
p17
aVheard.s.01
p18
aS'sound.n.03'
p19
aVfathom.v.02
p20
aS'horseman.n.01'
p21
aVhorseman.n.02
p22
aS'raucously.r.01'
p23
aVrowdily.r.01
p24
aVhearing.n.01
p25
aVstrait.n.01
p26
aS'close.v.02'
p27
aVstopping_point.n.01
p28
aS'playback.n.01'
p29
aVplayback.n.02
p30
aS'one.s.01'
p31
aVone.s.03
p32
aS'narrative.n.01'
p33
aVreport.n.03
p34
aS'thump.n.01'
p35
aVthump.v.03
p36
aS'front_door.n.01'
p37
aS'paraphrase.n.01'
p38
aVparaphrase.v.01
p39
aS'animal_foot.n.01'
p40
aVmetrical_foot.n.01
p41
aS'sound.n.02'
p42
aVphone.n.02
p43
aS'water.n.01'
p44
aVbody_of_water.n.01
p45
aS'boot.n.01'
p46
aVkick.n.01
p47
aS'people.n.01'
p48
aVcitizenry.n.01
p49
aS'strike.v.05'
p50
aVstrike.v.14
p51
aS'word.n.01'
p52
aVwords.n.01
p53
aS'reactionary.n.01'
p54
aVreactionary.s.01
p55
aS'voice.n.01'
p56
aVvoice.v.01
p57
aS'bell.n.01'
p58
aVchime.n.01
p59
aS'hundredfold.r.01'
p60
aS'news_program.n.01'
p61
aVnewsworthiness.n.01
p62
aS'stereotype.n.01'
p63
aVpigeonhole.v.02
p64
aS'voice.n.02'
p65
aVpart.n.11
p66
aS'rehearse.v.01'
p67
aVlistening.n.01
p68
aS'tone.n.02'
p69
aS'boom.n.01'
p70
aVroar.v.01
p71
aS'pace.n.04'
p72
aVtread.n.04
p73
aS'stream.n.01'
p74
aVstream.v.01
p75
aVhear.v.04
p76
aS'remark.n.01'
p77
aVcomment.n.02
p78
aS'screech.n.01'
p79
aVwhine.v.03
p80
aVboom.n.05
p81
aS'rustle.v.01'
p82
aVrustle.n.01
p83
aS'laugh.n.01'
p84
aVlaughter.n.02
p85
aVshutting.n.01
p86
aS'horse.n.01'
p87
aVknight.n.02
p88
aS'crunch.n.01'
p89
aVcrush.n.04
p90
aS'footfall.n.01'
p91
aVfootstep.n.03
p92
aS'rumble.n.01'
p93
aVrumble.n.02
p94
aS'sigh.n.01'
p95
aVsigh.v.02
p96
aS'person.n.01'
p97
aVpompeii.n.01
p98
aS'rehearsal.n.01'
p99
aVrehearsal.n.02
p100
aS'musical_composition.n.01'
p101
aVpatch.v.01
p102
aS'dialogue.n.01'
p103
aVdialogue.n.03
p104
aS'gasp.n.01'
p105
aS'word.n.02'
p106
aVpassword.n.01
p107
aS'music.n.02'
p108
aVmusic.n.04
p109
aS'debate.n.02'
p110
aS'address.n.03'
p111
aVtread.n.03
p112
aS'first.r.02'
p113
asS'instanceCount'
p114
I116
sS'matrix'
p115
(dp116
g107
(dp117
g107
I0
ssg68
(dp118
g68
I0
ssg46
(dp119
g47
I1
ssg100
(dp120
g100
I0
ssg74
(dp121
g75
I1
ssg96
(dp122
g96
I0
ssg58
(dp123
g59
I1
ssg64
(dp124
g64
I0
ssg112
(dp125
g112
I0
ssg73
(dp126
g73
I0
ssg30
(dp127
g30
I0
ssg29
(dp128
g30
I1
ssg53
(dp129
g53
I0
ssg11
(dp130
g12
I1
ssg26
(dp131
g26
I0
ssg31
(dp132
g32
I1
ssg32
(dp133
g32
I0
ssg57
(dp134
g57
I0
ssg81
(dp135
g81
I0
ssg92
(dp136
g92
I0
ssg38
(dp137
g39
I1
ssg70
(dp138
g81
I1
sg71
I1
ssg44
(dp139
g45
I1
ssg77
(dp140
g78
I1
ssg41
(dp141
g41
I0
ssg35
(dp142
g36
I1
ssg106
(dp143
g107
I1
ssg52
(dp144
g53
I1
ssg111
(dp145
Vaddress.n.03
p146
I1
ssg91
(dp147
g92
I1
ssg69
(dp148
Vtone.n.02
p149
I1
ssg101
(dp150
g102
I1
ssg21
(dp151
g22
I1
ssg22
(dp152
g22
I0
ssg34
(dp153
g34
I0
ssg14
(dp154
Vdistinctly.r.01
p155
I1
ssg61
(dp156
g62
I1
ssg88
(dp157
g88
I0
ssg25
(dp158
g25
I0
ssg84
(dp159
g85
I1
ssg90
(dp160
g90
I0
ssg67
(dp161
Vrehearse.v.01
p162
I1
ssg19
(dp163
g26
I1
sg20
I1
ssg42
(dp164
g43
I1
ssg40
(dp165
g41
I1
ssg109
(dp166
g109
I0
ssg108
(dp167
g109
I1
ssg47
(dp168
g47
I0
ssg83
(dp169
g83
I0
ssg75
(dp170
g75
I0
ssg15
(dp171
g15
I0
ssg49
(dp172
g49
I0
ssg105
(dp173
Vgasp.n.01
p174
I1
ssg13
(dp175
g13
I0
ssg9
(dp176
g18
I19
sg15
I11
sg76
I2
sg68
I2
sg13
I10
sg25
I4
sg10
I11
ssg76
(dp177
g76
I0
ssg103
(dp178
g104
I1
ssg104
(dp179
g104
I0
ssg39
(dp180
g39
I0
ssg50
(dp181
g51
I1
ssg86
(dp182
g86
I0
ssg80
(dp183
g80
I1
ssg55
(dp184
g55
I0
ssg60
(dp185
Vhundredfold.r.01
p186
I1
ssg36
(dp187
g36
I0
ssg27
(dp188
g86
I1
sg28
I1
ssg89
(dp189
g90
I1
ssg18
(dp190
g18
I0
ssg71
(dp191
g71
I0
ssg95
(dp192
g96
I1
ssg79
(dp193
g80
I1
ssg33
(dp194
g34
I1
ssg85
(dp195
g85
I0
ssg99
(dp196
g100
I1
ssg51
(dp197
g51
I0
ssg16
(dp198
g17
I1
ssg113
(dp199
Vfirst.r.02
p200
I1
ssg24
(dp201
g24
I0
ssg10
(dp202
g10
I0
ssg20
(dp203
g20
I0
ssg82
(dp204
g83
I1
ssg102
(dp205
g102
I0
ssg78
(dp206
g78
I0
ssg62
(dp207
g62
I0
ssg54
(dp208
g55
I1
ssg72
(dp209
g112
I1
sg73
I1
ssg45
(dp210
g45
I0
ssg59
(dp211
g59
I0
ssg87
(dp212
g88
I1
ssg17
(dp213
g17
I0
ssg110
(dp214
Vdebate.n.02
p215
I1
ssg8
(dp216
Veulogize.v.01
p217
I1
ssg93
(dp218
g94
I1
ssg94
(dp219
g94
I0
ssg43
(dp220
g43
I0
ssg98
(dp221
g98
I0
ssg65
(dp222
g66
I1
ssg97
(dp223
g98
I1
ssg56
(dp224
g57
I1
ssg48
(dp225
g49
I1
ssg63
(dp226
g64
I1
ssg23
(dp227
g24
I1
ssg66
(dp228
g66
I0
ssg37
(dp229
Vfront_door.n.01
p230
I1
ssg28
(dp231
g28
I0
ssg12
(dp232
g12
I0
sssb.