ccopy_reg
_reconstructor
p0
(cutils.eval
ConfusionMatrix
p1
c__builtin__
object
p2
Ntp3
Rp4
(dp5
S'labels'
p6
(lp7
S'chromatography.n.01'
p8
aS'make.v.01'
p9
aVpractice.v.01
p10
aS'surveying.n.01'
p11
aVdo.v.03
p12
aS'job.n.02'
p13
aVoccupation.n.01
p14
aVserve.v.09
p15
aS'nothing.n.01'
p16
aVnothing.r.01
p17
aVsuffice.v.01
p18
aS'thing.n.02'
p19
aVthing.n.08
p20
aS'corner.n.01'
p21
aVcorner.v.02
p22
aVthing.n.12
p23
aVdone.s.02
p24
aS'commercial_enterprise.n.02'
p25
aS'best.a.01'
p26
aVbest.n.03
p27
aS'week.n.01'
p28
aVworkweek.n.01
p29
aS'research.n.01'
p30
aVresearch.v.01
p31
aS'analysis.n.01'
p32
aVanalysis.n.02
p33
aS'roleplaying.n.01'
p34
aS'composition.n.01'
p35
aVdo.n.02
p36
aS'headstand.n.01'
p37
aS'pull-up.n.02'
p38
aVchin.v.01
p39
aS'same.a.01'
p40
aVlapp.n.02
p41
aS'kick_up.n.01'
p42
aVkick_up.v.01
p43
aS'utmost.n.01'
p44
aVfarthermost.s.01
p45
aS'here.r.01'
p46
aVhere.s.01
p47
aS'work.n.01'
p48
aVwork.n.05
p49
aS'survey.n.01'
p50
aVstudy.n.09
p51
aS'study.n.02'
p52
aVjob.n.12
p53
aS'much.a.01'
p54
aS'word.n.01'
p55
aVson.n.02
p56
aS'apparel.n.01'
p57
aVdress.v.02
p58
aS'rustling.n.01'
p59
aS'shooting.n.02'
p60
aVshooting.n.01
p61
aS'batch.n.02'
p62
aS'training.n.01'
p63
aVtrain.v.02
p64
aS'front.n.04'
p65
aVfront.n.09
p66
aVjob.n.11
p67
aVjob.n.09
p68
aS'duty.n.01'
p69
aS'undoubtedly.r.01'
p70
aS'fight.n.02'
p71
aS'command.n.01'
p72
aVbid.v.04
p73
aS'employment.n.02'
p74
aS'plowing.n.01'
p75
aVcause.v.01
p76
aS'job.n.06'
p77
aS'commercial.n.01'
p78
aVdo.v.08
p79
aVsame.s.04
p80
aVworkplace.n.01
p81
aVsubcontract.v.01
p82
aS'duty.n.02'
p83
aVthing.n.11
p84
aVmuch.r.05
p85
aS'part.n.04'
p86
aVcontribution.n.01
p87
asS'instanceCount'
p88
I147
sS'matrix'
p89
(dp90
g46
(dp91
g47
I1
ssg35
(dp92
Vcomposition.n.01
p93
I1
ssg61
(dp94
g61
I0
ssg77
(dp95
g53
I1
ssg34
(dp96
Vroleplaying.n.01
p97
I1
ssg76
(dp98
g76
I0
ssg13
(dp99
g53
I3
sg67
I1
sg68
I1
sVjob.n.02
p100
I2
sg14
I3
ssg9
(dp101
g36
I5
sg10
I18
sg24
I1
sg12
I2
sg18
I14
sg15
I8
ssg75
(dp102
Vplowing.n.01
p103
I2
ssg17
(dp104
g17
I0
ssg85
(dp105
g85
I0
ssg68
(dp106
g68
I0
ssg83
(dp107
Vduty.n.01
p108
I1
ssg16
(dp109
g17
I4
ssg62
(dp110
Vbatch.n.02
p111
I1
ssg23
(dp112
g23
I0
ssg84
(dp113
g84
I0
ssg67
(dp114
g67
I0
ssg24
(dp115
g24
I0
ssg33
(dp116
g33
I0
ssg26
(dp117
g27
I1
ssg15
(dp118
g15
I0
ssg78
(dp119
Vcommercial.n.01
p120
I1
ssg42
(dp121
g43
I1
ssg30
(dp122
g31
I2
ssg8
(dp123
Vchromatography.n.01
p124
I1
ssg72
(dp125
g73
I1
ssg32
(dp126
g33
I1
ssg41
(dp127
g41
I0
ssg57
(dp128
g58
I1
ssg14
(dp129
g53
I1
sg82
I1
sg14
I0
ssg51
(dp130
g51
I0
ssg69
(dp131
g108
I1
ssg80
(dp132
g80
I0
ssg70
(dp133
Vundoubtedly.r.01
p134
I1
ssg25
(dp135
g14
I1
ssg43
(dp136
g43
I0
ssg63
(dp137
g64
I1
ssg48
(dp138
g81
I1
sg49
I6
ssg87
(dp139
g87
I0
ssg49
(dp140
g49
I0
ssg53
(dp141
g53
I0
ssg37
(dp142
Vheadstand.n.01
p143
I1
ssg59
(dp144
Vrustling.n.01
p145
I1
ssg50
(dp146
g51
I1
ssg44
(dp147
g45
I1
ssg65
(dp148
g66
I1
ssg60
(dp149
g61
I1
ssg21
(dp150
g22
I1
ssg66
(dp151
g66
I0
ssg38
(dp152
g39
I1
ssg40
(dp153
g41
I1
sg80
I1
ssg28
(dp154
g29
I1
ssg73
(dp155
g73
I0
ssg45
(dp156
g45
I0
ssg36
(dp157
g36
I0
ssg64
(dp158
g64
I0
ssg20
(dp159
g20
I0
ssg27
(dp160
g27
I0
ssg54
(dp161
g85
I1
sVmuch.a.01
p162
I1
ssg47
(dp163
g47
I0
ssg82
(dp164
g82
I0
ssg19
(dp165
g23
I5
sg84
I1
sg20
I2
ssg31
(dp166
g31
I0
ssg52
(dp167
g49
I2
ssg56
(dp168
g56
I0
ssg58
(dp169
g58
I0
ssg29
(dp170
g29
I0
ssg71
(dp171
Vfight.n.02
p172
I1
ssg39
(dp173
g39
I0
ssg79
(dp174
g79
I0
ssg81
(dp175
g81
I0
ssg22
(dp176
g22
I0
ssg10
(dp177
g10
I0
ssg86
(dp178
g87
I1
ssg11
(dp179
Vsurveying.n.01
p180
I1
ssg55
(dp181
g56
I1
ssg12
(dp182
g76
I2
sg79
I1
sg36
I2
sg10
I10
sg12
I2
sg18
I5
sg15
I5
ssg18
(dp183
g18
I0
ssg74
(dp184
g49
I1
sssb.