ccopy_reg
_reconstructor
p0
(cutils.eval
ConfusionMatrix
p1
c__builtin__
object
p2
Ntp3
Rp4
(dp5
S'labels'
p6
(lp7
S'action.n.02'
p8
aVnatural_process.n.01
p9
aS'determine.v.01'
p10
aVdetermined.s.04
p11
aS'destiny.n.01'
p12
aVdestiny.n.02
p13
aVdetermine.v.06
p14
aS'group.n.01'
p15
aVgroup.v.02
p16
aS'rate.n.01'
p17
aVrate.v.02
p18
aVdeciding.s.01
p19
aS'value.n.02'
p20
aVvalue.v.01
p21
aS'digit.n.01'
p22
aVfigure.n.11
p23
aS'defect.n.01'
p24
aVdefect.v.01
p25
aVdetermine.v.08
p26
aS'designation.n.03'
p27
aVrecognition.n.02
p28
aS'cost.n.01'
p29
aVcosts.n.01
p30
aS'feasibility.n.01'
p31
aS'condition.n.01'
p32
aVweather.n.01
p33
aVsettle.v.03
p34
aVrate.v.03
p35
aS'temperature.n.01'
p36
aS'loss.n.02'
p37
aVloss.n.06
p38
aS'relationship.n.01'
p39
aVdetermined.a.02
p40
aS'distribution.n.01'
p41
aVdistribution.n.04
p42
aS'income.n.01'
p43
aS'percentage.n.01'
p44
aS'population.n.01'
p45
aVpopulation.n.05
p46
aVspecify.v.02
p47
aS'ratio.n.01'
p48
aVproportion.n.04
p49
aS'allotment.n.01'
p50
aVallotment.n.02
p51
aS'share.n.01'
p52
aVshare.n.02
p53
aVdecide.v.01
p54
aS'pressure.n.01'
p55
aVpress.n.09
p56
asS'instanceCount'
p57
I52
sS'matrix'
p58
(dp59
g12
(dp60
g13
I1
ssg13
(dp61
g13
I0
ssg49
(dp62
g49
I0
ssg39
(dp63
Vrelationship.n.01
p64
I1
ssg53
(dp65
g53
I0
ssg54
(dp66
g54
I0
ssg41
(dp67
g42
I1
ssg19
(dp68
g19
I0
ssg28
(dp69
g28
I0
ssg34
(dp70
g34
I0
ssg47
(dp71
g47
I0
ssg40
(dp72
g40
I0
ssg27
(dp73
g28
I1
ssg51
(dp74
g51
I0
ssg52
(dp75
g53
I2
ssg14
(dp76
g14
I0
ssg29
(dp77
g30
I1
ssg32
(dp78
g33
I1
ssg21
(dp79
g21
I0
ssg31
(dp80
Vfeasibility.n.01
p81
I1
ssg22
(dp82
g23
I1
ssg11
(dp83
g11
I0
ssg42
(dp84
g42
I0
ssg56
(dp85
g56
I0
ssg16
(dp86
g16
I0
ssg8
(dp87
g9
I1
ssg9
(dp88
g9
I0
ssg20
(dp89
g21
I1
ssg55
(dp90
g56
I1
ssg37
(dp91
g38
I1
ssg30
(dp92
g30
I0
ssg25
(dp93
g25
I0
ssg38
(dp94
g38
I0
ssg23
(dp95
g23
I0
ssg43
(dp96
Vincome.n.01
p97
I3
ssg48
(dp98
g49
I1
ssg46
(dp99
g46
I0
ssg44
(dp100
Vpercentage.n.01
p101
I1
ssg45
(dp102
g46
I1
ssg50
(dp103
g51
I1
ssg35
(dp104
g35
I0
ssg18
(dp105
g18
I0
ssg10
(dp106
g11
I2
sg47
I1
sg34
I2
sg40
I1
sg54
I1
sg14
I15
sg19
I1
sg26
I3
ssg24
(dp107
g25
I1
ssg15
(dp108
g16
I1
ssg17
(dp109
g35
I1
sg18
I1
ssg36
(dp110
Vtemperature.n.01
p111
I1
ssg33
(dp112
g33
I0
ssg26
(dp113
g26
I0
sssb.