ccopy_reg
_reconstructor
p0
(cutils.eval
ConfusionMatrix
p1
c__builtin__
object
p2
Ntp3
Rp4
(dp5
S'labels'
p6
(lp7
S'content.n.01'
p8
aVcontent.n.03
p9
aS'better.v.02'
p10
aS'efficiency.n.02'
p11
aVefficiency.n.01
p12
aS'status.n.01'
p13
aVimproving.s.01
p14
aS'opportunity.n.01'
p15
aVprobability.n.01
p16
aS'thing.n.01'
p17
aVthings.n.01
p18
aVbetter.v.03
p19
aS'value.n.03'
p20
aVimproved.s.03
p21
aS'effect.n.03'
p22
aVeffect.n.04
p23
aS'quality.n.01'
p24
aVtimbre.n.01
p25
aS'shielding.n.02'
p26
aVshielding.n.01
p27
aS'utility.n.02'
p28
aS'contrast.n.04'
p29
aVcontrast.n.05
p30
aS'chemical_reaction.n.01'
p31
aVreaction.n.04
p32
aS'area.n.01'
p33
aVarea.n.06
p34
aS'life.n.05'
p35
aVbiography.n.01
p36
aS'size.n.01'
p37
aVsize.n.02
p38
aS'balance.n.01'
p39
aVlibra.n.03
p40
aS'ability.n.02'
p41
aVpower.v.01
p42
aS'skill.n.01'
p43
aVskill.n.02
p44
asS'instanceCount'
p45
I46
sS'matrix'
p46
(dp47
g8
(dp48
g9
I1
ssg13
(dp49
Vstatus.n.01
p50
I1
ssg32
(dp51
g32
I0
ssg19
(dp52
g19
I0
ssg10
(dp53
g19
I4
sVbetter.v.02
p54
I13
sg14
I1
sg21
I5
ssg9
(dp55
g9
I0
ssg26
(dp56
g27
I1
ssg27
(dp57
g27
I0
ssg40
(dp58
g40
I0
ssg30
(dp59
g30
I0
ssg29
(dp60
g30
I1
ssg14
(dp61
g14
I0
ssg24
(dp62
g25
I1
ssg38
(dp63
g38
I0
ssg37
(dp64
g38
I1
ssg15
(dp65
g16
I1
ssg42
(dp66
g42
I0
ssg23
(dp67
g23
I0
ssg43
(dp68
g44
I1
ssg22
(dp69
g23
I1
ssg34
(dp70
g34
I0
ssg25
(dp71
g25
I0
ssg21
(dp72
g21
I0
ssg16
(dp73
g16
I0
ssg35
(dp74
g36
I1
ssg44
(dp75
g44
I0
ssg41
(dp76
g42
I1
ssg20
(dp77
Vvalue.n.03
p78
I1
ssg17
(dp79
g18
I1
ssg12
(dp80
g12
I3
sVefficiency.n.02
p81
I2
ssg11
(dp82
g12
I1
ssg28
(dp83
Vutility.n.02
p84
I1
ssg31
(dp85
g32
I1
ssg39
(dp86
g40
I1
ssg36
(dp87
g36
I0
ssg18
(dp88
g18
I0
ssg33
(dp89
g34
I1
sssb.