ccopy_reg
_reconstructor
p0
(cutils.eval
ConfusionMatrix
p1
c__builtin__
object
p2
Ntp3
Rp4
(dp5
S'labels'
p6
(lp7
S'tell.v.02'
p8
aVstate.v.01
p9
aS'secret.n.01'
p10
aVsecret.n.02
p11
aVtell.v.03
p12
aS'guy.n.01'
p13
aVguy.v.02
p14
aVtell.n.01
p15
aS'customer.n.01'
p16
aS'murder.n.01'
p17
aVmurder.v.01
p18
aS'dad.n.01'
p19
aVtell.v.07
p20
aS'person.n.01'
p21
aVgeorge.n.01
p22
aVwilson.n.05
p23
aS'parent.n.01'
p24
aS'thing.n.07'
p25
aVthing.n.12
p26
aS'nothing.n.01'
p27
aVnothing.r.01
p28
aVorder.v.01
p29
aS'mother.n.01'
p30
aVmother.n.02
p31
aS'captain.n.03'
p32
aS'fear.n.01'
p33
aVreverence.v.01
p34
aS'truth.n.03'
p35
aVtruth.n.05
p36
aS'posseman.n.01'
p37
aVben.n.01
p38
aS'name.n.01'
p39
aVlist.v.01
p40
aS'police.n.01'
p41
aS'sheep.n.01'
p42
aS'roomful.n.01'
p43
aS'clotheshorse.n.01'
p44
aS'reporter.n.01'
p45
aVtelling.n.02
p46
aValexander.n.02
p47
aS'psychologist.n.01'
p48
aS'committee.n.01'
p49
aVcommittee.n.02
p50
aS'senate.n.01'
p51
aVunited_states_senate.n.01
p52
aS'man.n.01'
p53
aVvalet.n.01
p54
aVvirgo.n.03
p55
asS'instanceCount'
p56
I74
sS'matrix'
p57
(dp58
g45
(dp59
Vreporter.n.01
p60
I1
ssg20
(dp61
g20
I0
ssg8
(dp62
g9
I1
sg29
I3
sg20
I4
sg15
I5
sg12
I7
ssg12
(dp63
g12
I0
ssg28
(dp64
g28
I0
ssg46
(dp65
g46
I0
ssg27
(dp66
g28
I1
ssg37
(dp67
Vposseman.n.01
p68
I1
ssg26
(dp69
g26
I0
ssg42
(dp70
Vsheep.n.01
p71
I1
ssg10
(dp72
g11
I1
ssg11
(dp73
g11
I0
ssg43
(dp74
Vroomful.n.01
p75
I1
ssg31
(dp76
g31
I0
ssg22
(dp77
g22
I0
ssg30
(dp78
g31
I1
ssg23
(dp79
g23
I0
ssg41
(dp80
Vpolice.n.01
p81
I1
ssg35
(dp82
g36
I2
ssg18
(dp83
g18
I0
ssg34
(dp84
g34
I0
ssg39
(dp85
g40
I1
ssg17
(dp86
g18
I1
ssg47
(dp87
g47
I0
ssg15
(dp88
g15
I0
ssg51
(dp89
g52
I1
ssg44
(dp90
Vclotheshorse.n.01
p91
I1
ssg14
(dp92
g14
I0
ssg55
(dp93
g55
I0
ssg40
(dp94
g40
I0
ssg48
(dp95
Vpsychologist.n.01
p96
I1
ssg49
(dp97
g50
I1
ssg50
(dp98
g50
I0
ssg21
(dp99
g23
I1
sg55
I1
sg38
I1
sg47
I1
sg22
I2
ssg16
(dp100
Vcustomer.n.01
p101
I1
ssg53
(dp102
g54
I1
ssg24
(dp103
Vparent.n.01
p104
I1
ssg29
(dp105
g29
I0
ssg25
(dp106
g26
I1
ssg19
(dp107
Vdad.n.01
p108
I2
ssg38
(dp109
g38
I0
ssg52
(dp110
g52
I0
ssg32
(dp111
Vcaptain.n.03
p112
I1
ssg9
(dp113
g20
I2
sg12
I10
sg9
I0
sg46
I1
sg29
I3
sg15
I7
ssg33
(dp114
g34
I1
ssg36
(dp115
g36
I0
ssg13
(dp116
g14
I1
ssg54
(dp117
g54
I0
sssb.