ccopy_reg
_reconstructor
p0
(cutils.eval
ConfusionMatrix
p1
c__builtin__
object
p2
Ntp3
Rp4
(dp5
S'labels'
p6
(lp7
S'scheme.n.01'
p8
aVsystem.n.02
p9
aS'use.v.01'
p10
aVuse.v.04
p11
aS'series.n.01'
p12
aVseries.n.06
p13
aS'cell.n.02'
p14
aVcell.n.04
p15
aVsecondhand.s.02
p16
aVuse.v.03
p17
aS'elution.n.01'
p18
aS'buffer.n.01'
p19
aVfender.n.02
p20
aVuse.v.06
p21
aS'gradient.n.01'
p22
aS'dialysis.n.01'
p23
aS'fraction.n.01'
p24
aVfraction.n.02
p25
aS'method.n.01'
p26
aVmethod_acting.n.01
p27
aS'apparatus.n.01'
p28
aVapparatus.n.02
p29
aS'equipment.n.01'
p30
aS'attendant.n.01'
p31
aVattendant.n.02
p32
aVhabit.n.02
p33
aS'vending_machine.n.01'
p34
aS'form.n.01'
p35
aVphase.n.02
p36
aS'cell.n.01'
p37
aS'list.n.01'
p38
aVlist.v.01
p39
aVconsumption.n.03
p40
aS'table.n.01'
p41
aS'power.n.02'
p42
aVpower.v.01
p43
aS'path.n.02'
p44
aVway.n.05
p45
aS'term.n.01'
p46
aVterm.v.01
p47
aS'component.n.03'
p48
aS'frequency.n.01'
p49
aVfrequency.n.03
p50
aS'technology.n.01'
p51
aS'mimesis.n.01'
p52
aVmimesis.n.03
p53
aS'word.n.01'
p54
aS'analyzer.n.01'
p55
aVused.a.01
p56
aS'device.n.01'
p57
aVdevices.n.01
p58
aS'event.n.02'
p59
aVcase.v.01
p60
aS'polyphosphate.n.01'
p61
aS'detergent.n.01'
p62
aS'approach.n.01'
p63
aVset_about.v.01
p64
aS'standard.n.01'
p65
aVcriterion.n.02
p66
aVuse.n.07
p67
aVterminus.n.03
p68
aS'music_stool.n.01'
p69
aS'procedure.n.01'
p70
aVoperation.n.07
p71
aS'means.n.01'
p72
aVway.n.11
p73
aS'roleplaying.n.01'
p74
aS'sexual_intercourse.n.01'
p75
aVunited_states.n.01
p76
aS'assortment.n.01'
p77
aVvariety.n.03
p78
aS'hand_blower.n.01'
p79
aS'gymnastics.n.01'
p80
aS'part.n.10'
p81
aVpart.n.09
p82
aS'rhythm.n.02'
p83
aVrhythm.n.04
p84
aS'technique.n.01'
p85
aVproficiency.n.02
p86
aS'sonar.n.01'
p87
aS'signal.n.01'
p88
aVbespeak.v.01
p89
aS'arrangement.n.02'
p90
aVarrangement.n.06
p91
aS'myth.n.01'
p92
aS'intrinsically.r.01'
p93
aS'concept.n.01'
p94
aS'shower.n.01'
p95
aVshower.v.03
p96
aS'bit.n.02'
p97
aVbit.n.05
p98
aS'skill.n.02'
p99
aS'argument.n.01'
p100
aVargument.n.03
p101
aVwords.n.01
p102
aVword.n.07
p103
aVactor's_line.n.01
p104
aVpassword.n.01
p105
aS'particle.n.03'
p106
aS'weapon.n.01'
p107
aVweapon.n.02
p108
aS'agent.n.01'
p109
aVagent.n.05
p110
aS'food.n.01'
p111
aVfood.n.02
p112
aS'boundary.n.01'
p113
aVlimit.n.01
p114
aS'material.n.01'
p115
aVmaterial.n.05
p116
aS'patriotic.a.01'
p117
aS'folklore.n.01'
p118
aS'contraceptive.n.01'
p119
aS'stiffness.n.01'
p120
aS'illustration.n.04'
p121
aS'intentionally.r.01'
p122
aS'age.n.01'
p123
aVage.n.03
p124
aS'block.n.01'
p125
aVengine_block.n.01
p126
aS'ashcan.n.01'
p127
aS'heater.n.01'
p128
aS'part.n.01'
p129
aVpart.n.02
p130
aS'filter.n.01'
p131
aVfilter.v.01
p132
aVtrickle.v.01
p133
aS'machine.n.01'
p134
aS'appliance.n.01'
p135
aS'area.n.01'
p136
aVarea.n.06
p137
aS'weaponry.n.01'
p138
aVcoat_of_arms.n.01
p139
aS'name.n.01'
p140
aVname.v.02
p141
aVmaterial.n.02
p142
aS'radio_wave.n.01'
p143
aS'fifty.s.01'
p144
aVfifty.n.01
p145
aS'underscore.v.01'
p146
aVunderline.v.02
p147
aS'telephone.n.01'
p148
aVphone.n.02
p149
aS'runner.n.02'
p150
aVrunner.n.10
p151
aS'pond.n.01'
p152
aS'lagoon.n.01'
p153
aS'argon.n.01'
p154
aS'thermocouple.n.01'
p155
aS'starter.n.01'
p156
aVstarter.n.07
p157
aVname.v.05
p158
aS'front.n.01'
p159
aVfront_man.n.01
p160
aS'street.n.01'
p161
aVstreet.n.03
p162
aS'car.n.01'
p163
aVcar.n.02
p164
aS'tax_write-off.n.01'
p165
aS'calendar_year.n.01'
p166
aVfunction.n.02
p167
aS'fiscal_year.n.01'
p168
aS'money.n.01'
p169
aVmoney.n.03
p170
aS'thirty.s.01'
p171
aVthirty.n.01
p172
aS'computer.n.01'
p173
aVcalculator.n.01
p174
aS'selling.n.01'
p175
aS'on_the_other_hand.r.01'
p176
aS'cold_frame.n.01'
p177
aS'fertilizer.n.01'
p178
aS'bobby_pin.n.01'
p179
aS'clasp.n.02'
p180
aVgrip.n.05
p181
aVhandle.n.01
p182
aS'vacuum.n.04'
p183
aS'cognition.n.01'
p184
aS'powder.n.03'
p185
aS'bedroom.n.01'
p186
aS'equivalent.n.01'
p187
aS'compulsiveness.n.01'
p188
aS'whole-word_method.n.01'
p189
aS'production.n.02'
p190
aVproduction.n.08
p191
aS'speed.n.01'
p192
aS'value.n.01'
p193
aVvalue.v.01
p194
aS'funds.n.01'
p195
aVinvestment_company.n.01
p196
aS'tune.n.01'
p197
aVtune.n.03
p198
aS'voice.n.01'
p199
aVpart.n.11
p200
aS'rhythm.n.01'
p201
aVrhythm_method_of_birth_control.n.01
p202
asS'instanceCount'
p203
I282
sS'matrix'
p204
(dp205
g177
(dp206
Vcold_frame.n.01
p207
I1
ssg19
(dp208
g20
I1
ssg85
(dp209
Vtechnique.n.01
p210
I1
sg86
I2
ssg30
(dp211
Vequipment.n.01
p212
I1
ssg56
(dp213
g56
I0
ssg105
(dp214
g105
I0
ssg102
(dp215
g102
I0
ssg127
(dp216
Vashcan.n.01
p217
I1
ssg198
(dp218
g198
I0
ssg93
(dp219
Vintrinsically.r.01
p220
I1
ssg178
(dp221
Vfertilizer.n.01
p222
I1
ssg89
(dp223
g89
I0
ssg73
(dp224
g73
I0
ssg174
(dp225
g174
I0
ssg114
(dp226
g114
I0
ssg166
(dp227
Vcalendar_year.n.01
p228
I2
ssg64
(dp229
g64
I0
ssg191
(dp230
g191
I0
ssg130
(dp231
g130
I0
ssg129
(dp232
g130
I1
ssg121
(dp233
Villustration.n.04
p234
I1
ssg82
(dp235
g82
I0
ssg194
(dp236
g194
I0
ssg167
(dp237
g167
I0
ssg44
(dp238
g45
I1
ssg53
(dp239
g53
I0
ssg123
(dp240
g124
I1
ssg52
(dp241
g53
I1
sVmimesis.n.01
p242
I1
ssg175
(dp243
Vselling.n.01
p244
I1
ssg45
(dp245
g45
I0
ssg190
(dp246
g191
I1
ssg132
(dp247
g132
I0
sg133
I1
ssg76
(dp248
g76
I0
ssg70
(dp249
g71
I2
ssg95
(dp250
g96
I1
ssg187
(dp251
Vequivalent.n.01
p252
I1
ssg87
(dp253
Vsonar.n.01
p254
I1
ssg138
(dp255
g139
I1
ssg169
(dp256
g170
I1
ssg60
(dp257
g60
I0
ssg170
(dp258
g170
I0
ssg40
(dp259
g40
I0
ssg180
(dp260
g181
I1
sg182
I1
ssg67
(dp261
g67
I0
ssg54
(dp262
g103
I1
sVword.n.01
p263
I1
sg105
I1
sg102
I1
sg104
I1
ssg103
(dp264
g103
I0
ssg86
(dp265
g86
I0
ssg47
(dp266
g47
I0
ssg74
(dp267
Vroleplaying.n.01
p268
I1
ssg158
(dp269
g158
I0
ssg141
(dp270
g141
I0
ssg179
(dp271
Vbobby_pin.n.01
p272
I1
ssg155
(dp273
Vthermocouple.n.01
p274
I1
ssg24
(dp275
g25
I1
ssg134
(dp276
Vmachine.n.01
p277
I1
ssg25
(dp278
g25
I0
ssg63
(dp279
g64
I1
ssg15
(dp280
g15
I0
ssg14
(dp281
g15
I1
ssg37
(dp282
Vcell.n.02
p283
I1
ssg92
(dp284
Vmyth.n.01
p285
I1
ssg66
(dp286
g66
I0
ssg106
(dp287
Vparticle.n.03
p288
I1
ssg72
(dp289
g73
I1
ssg120
(dp290
Vstiffness.n.01
p291
I1
ssg16
(dp292
g16
I0
ssg189
(dp293
Vwhole-word_method.n.01
p294
I1
ssg165
(dp295
Vtax_write-off.n.01
p296
I2
ssg69
(dp297
Vmusic_stool.n.01
p298
I1
ssg22
(dp299
Vgradient.n.01
p300
I1
ssg150
(dp301
g151
I1
ssg159
(dp302
g160
I1
ssg99
(dp303
Vskill.n.02
p304
I1
ssg27
(dp305
g27
I0
ssg186
(dp306
Vbedroom.n.01
p307
I1
ssg68
(dp308
g68
I0
ssg38
(dp309
g39
I1
ssg173
(dp310
g174
I1
ssg193
(dp311
g194
I1
ssg160
(dp312
g160
I0
ssg98
(dp313
g98
I0
ssg131
(dp314
g132
I1
ssg188
(dp315
Vcompulsiveness.n.01
p316
I1
ssg135
(dp317
Vappliance.n.01
p318
I1
ssg42
(dp319
g43
I1
ssg79
(dp320
Vhand_blower.n.01
p321
I1
ssg23
(dp322
Vdialysis.n.01
p323
I1
ssg171
(dp324
g172
I1
ssg143
(dp325
Vradio_wave.n.01
p326
I1
ssg153
(dp327
Vlagoon.n.01
p328
I1
ssg172
(dp329
g172
I0
ssg51
(dp330
Vtechnology.n.01
p331
I1
ssg151
(dp332
g151
I0
ssg152
(dp333
Vpond.n.01
p334
I1
ssg183
(dp335
Vvacuum.n.04
p336
I1
ssg62
(dp337
Vdetergent.n.01
p338
I1
ssg94
(dp339
Vconcept.n.01
p340
I2
ssg55
(dp341
Vanalyzer.n.01
p342
I1
ssg124
(dp343
g124
I0
ssg61
(dp344
Vpolyphosphate.n.01
p345
I1
ssg133
(dp346
g133
I0
ssg126
(dp347
g126
I0
ssg119
(dp348
Vcontraceptive.n.01
p349
I1
ssg154
(dp350
Vargon.n.01
p351
I1
ssg8
(dp352
g9
I1
ssg46
(dp353
g47
I1
sg68
I1
ssg162
(dp354
g162
I0
ssg161
(dp355
g162
I1
ssg91
(dp356
g91
I0
ssg58
(dp357
g58
I0
ssg57
(dp358
g58
I1
ssg90
(dp359
g91
I1
ssg157
(dp360
g157
I0
ssg97
(dp361
g98
I1
ssg48
(dp362
Vcomponent.n.03
p363
I1
ssg163
(dp364
g164
I1
ssg164
(dp365
g164
I0
ssg36
(dp366
g36
I0
ssg88
(dp367
g89
I1
ssg26
(dp368
g27
I5
sVmethod.n.01
p369
I1
ssg65
(dp370
g66
I1
ssg11
(dp371
g11
I0
ssg181
(dp372
g181
I0
ssg21
(dp373
g21
I0
ssg10
(dp374
g33
I17
sg56
I6
sg11
I30
sg40
I4
sg21
I54
sVuse.v.01
p375
I12
sg16
I4
sg17
I5
sg67
I8
sg76
I2
sg167
I1
ssg17
(dp376
g17
I0
ssg185
(dp377
Vpowder.n.03
p378
I1
ssg18
(dp379
Velution.n.01
p380
I1
ssg142
(dp381
g142
I0
ssg115
(dp382
g142
I1
sg116
I1
ssg116
(dp383
g116
I0
ssg34
(dp384
Vvending_machine.n.01
p385
I1
ssg117
(dp386
Vpatriotic.a.01
p387
I1
ssg201
(dp388
g202
I1
ssg83
(dp389
g84
I1
ssg84
(dp390
g84
I0
ssg110
(dp391
g110
I0
ssg109
(dp392
g110
I1
ssg144
(dp393
g145
I1
ssg184
(dp394
Vcognition.n.01
p395
I1
ssg128
(dp396
Vheater.n.01
p397
I1
ssg125
(dp398
g126
I1
ssg20
(dp399
g20
I0
ssg31
(dp400
g32
I1
ssg148
(dp401
Vtelephone.n.01
p402
I1
sg149
I1
ssg32
(dp403
g32
I0
ssg77
(dp404
g78
I2
ssg41
(dp405
Vtable.n.01
p406
I1
ssg9
(dp407
g9
I0
ssg104
(dp408
g104
I0
ssg192
(dp409
Vspeed.n.01
p410
I1
ssg200
(dp411
g200
I0
ssg122
(dp412
Vintentionally.r.01
p413
I1
ssg35
(dp414
g36
I1
ssg112
(dp415
g112
I0
ssg111
(dp416
g112
I1
ssg139
(dp417
g139
I0
ssg202
(dp418
g202
I0
ssg176
(dp419
Von_the_other_hand.r.01
p420
I1
ssg75
(dp421
Vsexual_intercourse.n.01
p422
I1
ssg118
(dp423
Vfolklore.n.01
p424
I2
ssg140
(dp425
g158
I1
sg141
I1
ssg137
(dp426
g137
I0
ssg78
(dp427
g78
I0
ssg149
(dp428
g149
I0
ssg136
(dp429
g137
I1
ssg107
(dp430
g108
I1
ssg108
(dp431
g108
I0
ssg50
(dp432
g50
I0
ssg39
(dp433
g39
I0
ssg49
(dp434
g50
I1
ssg96
(dp435
g96
I0
ssg199
(dp436
g200
I1
ssg71
(dp437
g71
I0
ssg156
(dp438
g157
I1
ssg12
(dp439
g13
I1
ssg13
(dp440
g13
I0
ssg195
(dp441
g196
I1
ssg59
(dp442
g60
I1
ssg33
(dp443
g33
I0
ssg182
(dp444
g182
I0
ssg168
(dp445
Vfiscal_year.n.01
p446
I1
ssg147
(dp447
g147
I0
ssg145
(dp448
g145
I0
ssg196
(dp449
g196
I0
ssg113
(dp450
g114
I1
ssg81
(dp451
g82
I1
ssg43
(dp452
g43
I0
ssg80
(dp453
Vgymnastics.n.01
p454
I1
ssg146
(dp455
g147
I1
ssg101
(dp456
g101
I0
ssg28
(dp457
g29
I1
ssg100
(dp458
g101
I1
ssg197
(dp459
g198
I1
ssg29
(dp460
g29
I0
sssb.