ccopy_reg
_reconstructor
p0
(cutils.eval
ConfusionMatrix
p1
c__builtin__
object
p2
Ntp3
Rp4
(dp5
S'labels'
p6
(lp7
S'sample.n.01'
p8
aVsample_distribution.n.01
p9
aS'obtain.v.01'
p10
aVreceive.v.02
p11
aS'serum.n.01'
p12
aS'fraction.n.01'
p13
aVfraction.n.03
p14
aS'action.n.02'
p15
aVnatural_process.n.01
p16
aVaction.n.07
p17
aS'group.n.01'
p18
aVgroup.n.02
p19
aS'solution.n.02'
p20
aVprevail.v.02
p21
aS'spectrum.n.01'
p22
aVspectrum.n.02
p23
aS'signature.n.01'
p24
aVsignature.n.05
p25
aS'allotment.n.01'
p26
aVallotment.n.02
p27
aS'value.n.01'
p28
aVvalue.n.05
p29
aS'mortality.n.01'
p30
aS'funds.n.01'
p31
aVinvestment_company.n.01
p32
aS'information.n.01'
p33
aVdata.n.01
p34
aS'indication.n.01'
p35
aVindication.n.02
p36
aS'list.n.01'
p37
aVlist.v.01
p38
aS'status.n.01'
p39
aS'team.n.01'
p40
aVteam.v.01
p41
aS'instruction_manual.n.01'
p42
aS'conjugate_solution.n.01'
p43
aS'form.n.08'
p44
aVshape.n.02
p45
aS'refund.n.01'
p46
aVrefund.n.02
p47
aS'mark.n.01'
p48
aVscore.n.03
p49
aS'information.n.02'
p50
aVinformation.n.05
p51
aS'direct_evidence.n.01'
p52
aS'curve.n.02'
p53
aVcurve.n.03
p54
aS'occupation.n.01'
p55
aVjob.n.09
p56
aS'degree.n.02'
p57
aVacademic_degree.n.01
p58
aS'admission.n.01'
p59
aVentree.n.02
p60
aS'engagement.n.05'
p61
aS'agency.n.01'
p62
aVfunction.n.03
p63
aS'reading.n.03'
p64
aVreading.n.08
p65
asS'instanceCount'
p66
I74
sS'matrix'
p67
(dp68
g11
(dp69
g11
I0
ssg39
(dp70
Vstatus.n.01
p71
I1
ssg54
(dp72
g54
I0
ssg53
(dp73
g54
I1
ssg13
(dp74
g14
I1
ssg14
(dp75
g14
I0
ssg48
(dp76
g49
I1
ssg49
(dp77
g49
I0
ssg55
(dp78
g56
I1
ssg35
(dp79
g36
I1
ssg34
(dp80
g34
I1
ssg31
(dp81
g32
I1
ssg41
(dp82
g41
I0
ssg21
(dp83
g21
I0
ssg44
(dp84
g45
I1
ssg40
(dp85
g41
I1
ssg64
(dp86
g65
I1
ssg62
(dp87
g63
I1
ssg63
(dp88
g63
I0
ssg59
(dp89
g60
I1
ssg65
(dp90
g65
I0
ssg43
(dp91
Vconjugate_solution.n.01
p92
I1
ssg46
(dp93
g47
I1
ssg30
(dp94
Vmortality.n.01
p95
I1
ssg52
(dp96
Vdirect_evidence.n.01
p97
I1
ssg56
(dp98
g56
I0
ssg51
(dp99
g51
I0
ssg47
(dp100
g47
I0
ssg38
(dp101
g38
I0
ssg29
(dp102
g29
I0
ssg15
(dp103
g17
I1
sg16
I1
ssg37
(dp104
g38
I1
ssg25
(dp105
g25
I0
ssg17
(dp106
g17
I0
ssg36
(dp107
g36
I0
ssg9
(dp108
g9
I0
ssg24
(dp109
g25
I1
ssg57
(dp110
g58
I1
ssg10
(dp111
g21
I8
sg11
I21
sVobtain.v.01
p112
I8
ssg20
(dp113
Vsolution.n.02
p114
I1
ssg12
(dp115
Vserum.n.01
p116
I1
ssg42
(dp117
Vinstruction_manual.n.01
p118
I1
ssg33
(dp119
g34
I1
ssg50
(dp120
g51
I1
sVinformation.n.01
p121
I1
ssg16
(dp122
g16
I0
ssg58
(dp123
g58
I0
ssg60
(dp124
g60
I0
ssg32
(dp125
g32
I0
ssg26
(dp126
g27
I1
ssg27
(dp127
g27
I0
ssg45
(dp128
g45
I0
ssg19
(dp129
g19
I0
ssg18
(dp130
g19
I1
ssg61
(dp131
Vengagement.n.05
p132
I1
ssg28
(dp133
g29
I1
ssg8
(dp134
g9
I1
ssg22
(dp135
g23
I4
ssg23
(dp136
g23
I0
sssb.