(dp0
S'engine'
p1
S'internal'
p2
sS'params1'
p3
S'optimizer="bfgs"'
p4
sS'run'
p5
I00
sS'method1'
p6
S'pseudo-log-likelihood with blocking'
p7
sS'geometry'
p8
S'956x1179+0+17'
p9
sS'db'
p10
S'0.db'
p11
sS'priorStdDev'
p12
S'100'
p13
sS'mln'
p14
S'test.mln'
p15
sS'output_filename'
p16
S'wts.pybpll.0-test.mln'
p17
sS'pattern'
p18
S''
p19
sS'addUnitClauses'
p20
I0
sS'nePreds'
p21
S'hasSense'
p22
sS'usePrior'
p23
I0
s.