ccopy_reg
_reconstructor
p0
(cutils.eval
ConfusionMatrix
p1
c__builtin__
object
p2
Ntp3
Rp4
(dp5
S'labels'
p6
(lp7
S'cup.n.01'
p8
aS'cup.n.02'
p9
aS'fill.v.01'
p10
aS'occupy.v.03'
p11
aS'cola.n.02'
p12
aS'saltcellar.n.01'
p13
aS'salt.n.02'
p14
asS'instanceCount'
p15
I6
sS'matrix'
p16
(dp17
g14
(dp18
S'salt.n.02'
p19
I1
ssg12
(dp20
S'cola.n.02'
p21
I1
ssg13
(dp22
S'saltcellar.n.01'
p23
I1
ssg11
(dp24
g11
I0
ssg9
(dp25
g9
I0
ssg10
(dp26
g11
I2
ssg8
(dp27
g9
I1
sssb.