ccopy_reg
_reconstructor
p0
(cutils.eval
ConfusionMatrix
p1
c__builtin__
object
p2
Ntp3
Rp4
(dp5
S'labels'
p6
(lp7
S'jar.n.01'
p8
aS'fill.v.01'
p9
aS'gravy.n.01'
p10
aS'pitcher.n.02'
p11
aS'pitcher.n.03'
p12
aS'milk.n.01'
p13
asS'instanceCount'
p14
I6
sS'matrix'
p15
(dp16
g10
(dp17
S'gravy.n.01'
p18
I1
ssg9
(dp19
S'fill.v.01'
p20
I2
ssg12
(dp21
g12
I0
ssg11
(dp22
g12
I1
ssg8
(dp23
S'jar.n.01'
p24
I1
ssg13
(dp25
S'milk.n.01'
p26
I1
sssb.