ccopy_reg
_reconstructor
p0
(cutils.eval
ConfusionMatrix
p1
c__builtin__
object
p2
Ntp3
Rp4
(dp5
S'labels'
p6
(lp7
S'fill.v.01'
p8
aS'occupy.v.03'
p9
aS'bottle.n.01'
p10
aS'fruit_juice.n.01'
p11
aS'thermos.n.01'
p12
aS'coffee.n.01'
p13
aS'coffee_bean.n.01'
p14
asS'instanceCount'
p15
I6
sS'matrix'
p16
(dp17
g11
(dp18
S'fruit_juice.n.01'
p19
I1
ssg12
(dp20
S'thermos.n.01'
p21
I1
ssg14
(dp22
g14
I0
ssg10
(dp23
S'bottle.n.01'
p24
I1
ssg9
(dp25
g9
I0
ssg13
(dp26
g14
I1
ssg8
(dp27
g9
I2
sssb.