ccopy_reg
_reconstructor
p0
(cutils.eval
ConfusionMatrix
p1
c__builtin__
object
p2
Ntp3
Rp4
(dp5
S'labels'
p6
(lp7
S'fill.v.01'
p8
aS'fill.v.09'
p9
aS'foam.n.01'
p10
aS'mug.n.04'
p11
aS'glass.n.02'
p12
aS'field_glass.n.01'
p13
aS'milk.n.01'
p14
asS'instanceCount'
p15
I6
sS'matrix'
p16
(dp17
g11
(dp18
S'mug.n.04'
p19
I1
ssg9
(dp20
g9
I0
ssg13
(dp21
g13
I0
ssg8
(dp22
S'fill.v.01'
p23
I1
sg9
I1
ssg10
(dp24
S'foam.n.01'
p25
I1
ssg14
(dp26
S'milk.n.01'
p27
I1
ssg12
(dp28
g13
I1
sssb.