ccopy_reg
_reconstructor
p0
(cutils.eval
ConfusionMatrix
p1
c__builtin__
object
p2
Ntp3
Rp4
(dp5
S'labels'
p6
(lp7
S'piece.n.08'
p8
aS'slice.n.05'
p9
aS'pizza.n.01'
p10
aS'slice.v.03'
p11
aS'slice.v.02'
p12
aS'onion.n.01'
p13
aS'pepper.n.04'
p14
asS'instanceCount'
p15
I6
sS'matrix'
p16
(dp17
g12
(dp18
g12
I0
ssg11
(dp19
g12
I2
ssg14
(dp20
S'pepper.n.04'
p21
I1
ssg10
(dp22
S'pizza.n.01'
p23
I1
ssg8
(dp24
g9
I1
ssg9
(dp25
g9
I0
ssg13
(dp26
S'onion.n.01'
p27
I1
sssb.