ccopy_reg
_reconstructor
p0
(cutils.eval
ConfusionMatrix
p1
c__builtin__
object
p2
Ntp3
Rp4
(dp5
S'labels'
p6
(lp7
S'flesh.n.01'
p8
aS'slice.v.03'
p9
aS'slice.v.02'
p10
aS'fill.v.01'
p11
aS'fill.v.09'
p12
aS'foam.n.01'
p13
aS'mug.n.04'
p14
asS'instanceCount'
p15
I5
sS'matrix'
p16
(dp17
g10
(dp18
g10
I0
ssg9
(dp19
g10
I1
ssg12
(dp20
g12
I0
ssg8
(dp21
S'flesh.n.01'
p22
I1
ssg11
(dp23
g12
I1
ssg13
(dp24
S'foam.n.01'
p25
I1
ssg14
(dp26
S'mug.n.04'
p27
I1
sssb.