ccopy_reg
_reconstructor
p0
(cutils.eval
ConfusionMatrix
p1
c__builtin__
object
p2
Ntp3
Rp4
(dp5
S'labels'
p6
(lp7
S'cheese.n.01'
p8
aS'tall_mallow.n.01'
p9
aS'slice.v.03'
p10
aS'slice.v.02'
p11
aS'piece.n.08'
p12
aS'slice.n.05'
p13
aS'pizza.n.01'
p14
asS'instanceCount'
p15
I5
sS'matrix'
p16
(dp17
g11
(dp18
g11
I0
ssg8
(dp19
g9
I1
ssg10
(dp20
g11
I2
ssg13
(dp21
g13
I0
ssg14
(dp22
S'pizza.n.01'
p23
I1
ssg12
(dp24
g13
I1
ssg9
(dp25
g9
I0
sssb.