ccopy_reg
_reconstructor
p0
(cutils.eval
ConfusionMatrix
p1
c__builtin__
object
p2
Ntp3
Rp4
(dp5
S'labels'
p6
(lp7
S'egg.n.02'
p8
aS'cut.v.01'
p9
aS'piece.n.08'
p10
aS'slice.n.06'
p11
aS'knife.n.01'
p12
aS'banana.n.02'
p13
aS'zucchini.n.01'
p14
aS'zucchini.n.02'
p15
aS'lemon.n.01'
p16
aS'olive.n.01'
p17
aS'olive.n.04'
p18
aS'cheese.n.01'
p19
aS'flesh.n.01'
p20
aS'human_body.n.01'
p21
aS'meat.n.01'
p22
aS'cleaver.n.01'
p23
aS'vegetable.n.01'
p24
aS'green_onion.n.01'
p25
asS'instanceCount'
p26
I25
sS'matrix'
p27
(dp28
g19
(dp29
S'cheese.n.01'
p30
I1
ssg17
(dp31
g18
I1
ssg9
(dp32
S'cut.v.01'
p33
I10
ssg12
(dp34
S'knife.n.01'
p35
I3
ssg13
(dp36
S'banana.n.02'
p37
I1
ssg18
(dp38
g18
I0
ssg8
(dp39
S'egg.n.02'
p40
I1
ssg20
(dp41
g21
I1
ssg11
(dp42
g11
I0
ssg24
(dp43
S'vegetable.n.01'
p44
I1
ssg21
(dp45
g21
I0
ssg15
(dp46
g15
I0
ssg22
(dp47
S'meat.n.01'
p48
I1
ssg16
(dp49
S'lemon.n.01'
p50
I1
ssg14
(dp51
g15
I1
ssg10
(dp52
g11
I1
ssg25
(dp53
S'green_onion.n.01'
p54
I1
ssg23
(dp55
S'cleaver.n.01'
p56
I1
sssb.