ccopy_reg
_reconstructor
p0
(cutils.eval
ConfusionMatrix
p1
c__builtin__
object
p2
Ntp3
Rp4
(dp5
S'labels'
p6
(lp7
S'zucchini.n.01'
p8
aS'zucchini.n.02'
p9
aS'cut.v.01'
p10
aS'lemon.n.01'
p11
aS'olive.n.01'
p12
aS'olive.n.04'
p13
aS'cheese.n.01'
p14
aS'flesh.n.01'
p15
aS'pulp.n.02'
p16
aS'meat.n.01'
p17
aS'cleaver.n.01'
p18
aS'vegetable.n.01'
p19
aS'knife.n.01'
p20
aS'green_onion.n.01'
p21
aS'cabbage.n.01'
p22
aS'piece.n.08'
p23
aS'slice.n.06'
p24
aS'pizza.n.01'
p25
asS'instanceCount'
p26
I24
sS'matrix'
p27
(dp28
g14
(dp29
S'cheese.n.01'
p30
I1
ssg12
(dp31
g13
I1
ssg10
(dp32
S'cut.v.01'
p33
I10
ssg20
(dp34
S'knife.n.01'
p35
I2
ssg13
(dp36
g13
I0
ssg15
(dp37
g16
I1
ssg24
(dp38
g24
I0
ssg19
(dp39
S'vegetable.n.01'
p40
I1
ssg25
(dp41
S'pizza.n.01'
p42
I1
ssg9
(dp43
g9
I0
ssg17
(dp44
S'meat.n.01'
p45
I1
ssg11
(dp46
S'lemon.n.01'
p47
I1
ssg8
(dp48
g9
I1
ssg22
(dp49
S'cabbage.n.01'
p50
I1
ssg21
(dp51
S'green_onion.n.01'
p52
I1
ssg23
(dp53
g24
I1
ssg16
(dp54
g16
I0
ssg18
(dp55
S'cleaver.n.01'
p56
I1
sssb.