ccopy_reg
_reconstructor
p0
(cutils.eval
ConfusionMatrix
p1
c__builtin__
object
p2
Ntp3
Rp4
(dp5
S'labels'
p6
(lp7
S'piece.n.08'
p8
aS'slice.n.06'
p9
aS'potato.n.01'
p10
aS'cut.v.01'
p11
aS'bacon.n.01'
p12
aS'lemon.n.01'
p13
aS'tomato.n.01'
p14
aS'knife.n.01'
p15
aS'fork.n.01'
p16
aS'fork.n.04'
p17
aS'cake.n.03'
p18
aS'mushroom.n.05'
p19
aS'egg.n.02'
p20
aS'banana.n.02'
p21
aS'zucchini.n.01'
p22
aS'zucchini.n.02'
p23
asS'instanceCount'
p24
I25
sS'matrix'
p25
(dp26
g19
(dp27
S'mushroom.n.05'
p28
I1
ssg11
(dp29
S'cut.v.01'
p30
I10
ssg15
(dp31
S'knife.n.01'
p32
I2
ssg21
(dp33
S'banana.n.02'
p34
I1
ssg20
(dp35
S'egg.n.02'
p36
I1
ssg14
(dp37
S'tomato.n.01'
p38
I1
ssg17
(dp39
g17
I0
ssg9
(dp40
g9
I0
ssg12
(dp41
S'bacon.n.01'
p42
I1
ssg23
(dp43
g23
I0
ssg18
(dp44
S'cake.n.03'
p45
I1
ssg16
(dp46
g17
I1
ssg13
(dp47
S'lemon.n.01'
p48
I2
ssg10
(dp49
S'potato.n.01'
p50
I1
ssg22
(dp51
g23
I1
ssg8
(dp52
g9
I2
sssb.