ccopy_reg
_reconstructor
p0
(cutils.eval
ConfusionMatrix
p1
c__builtin__
object
p2
Ntp3
Rp4
(dp5
S'labels'
p6
(lp7
S'cut.v.01'
p8
aS'fork.n.01'
p9
aS'fork.n.04'
p10
aS'cake.n.03'
p11
aS'mushroom.n.05'
p12
aS'egg.n.02'
p13
aS'piece.n.08'
p14
aS'slice.n.06'
p15
aS'knife.n.01'
p16
aS'banana.n.02'
p17
aS'zucchini.n.01'
p18
aS'zucchini.n.02'
p19
aS'lemon.n.01'
p20
aS'olive.n.01'
p21
aS'olive.n.04'
p22
aS'cheese.n.01'
p23
aS'flesh.n.01'
p24
aS'human_body.n.01'
p25
aS'meat.n.01'
p26
aS'cleaver.n.01'
p27
asS'instanceCount'
p28
I24
sS'matrix'
p29
(dp30
g12
(dp31
S'mushroom.n.05'
p32
I1
ssg23
(dp33
S'cheese.n.01'
p34
I1
ssg21
(dp35
g22
I1
ssg8
(dp36
S'cut.v.01'
p37
I10
ssg16
(dp38
S'knife.n.01'
p39
I1
ssg17
(dp40
S'banana.n.02'
p41
I1
ssg22
(dp42
g22
I0
ssg13
(dp43
S'egg.n.02'
p44
I1
ssg10
(dp45
g10
I0
ssg15
(dp46
g15
I0
ssg9
(dp47
g10
I1
ssg25
(dp48
g25
I0
ssg11
(dp49
S'cake.n.03'
p50
I1
ssg26
(dp51
S'meat.n.01'
p52
I1
ssg20
(dp53
S'lemon.n.01'
p54
I1
ssg18
(dp55
g19
I1
ssg19
(dp56
g19
I0
ssg14
(dp57
g15
I1
ssg24
(dp58
g25
I1
ssg27
(dp59
S'cleaver.n.01'
p60
I1
sssb.