ccopy_reg
_reconstructor
p0
(cutils.eval
ConfusionMatrix
p1
c__builtin__
object
p2
Ntp3
Rp4
(dp5
S'labels'
p6
(lp7
S'olive.n.01'
p8
aS'olive.n.04'
p9
aS'cut.v.01'
p10
aS'cheese.n.01'
p11
aS'flesh.n.01'
p12
aS'human_body.n.01'
p13
aS'meat.n.01'
p14
aS'cleaver.n.01'
p15
aS'vegetable.n.01'
p16
aS'knife.n.01'
p17
aS'green_onion.n.01'
p18
aS'cabbage.n.01'
p19
aS'piece.n.08'
p20
aS'slice.n.06'
p21
aS'pizza.n.01'
p22
aS'bread.n.01'
p23
aS'orange.n.01'
p24
asS'instanceCount'
p25
I26
sS'matrix'
p26
(dp27
g11
(dp28
S'cheese.n.01'
p29
I1
ssg8
(dp30
g9
I1
ssg10
(dp31
S'cut.v.01'
p32
I10
ssg17
(dp33
S'knife.n.01'
p34
I3
ssg12
(dp35
g13
I1
ssg9
(dp36
g9
I0
ssg21
(dp37
g21
I0
ssg16
(dp38
S'vegetable.n.01'
p39
I1
ssg24
(dp40
S'orange.n.01'
p41
I1
ssg22
(dp42
S'pizza.n.01'
p43
I1
ssg13
(dp44
g13
I0
ssg14
(dp45
S'meat.n.01'
p46
I1
ssg19
(dp47
S'cabbage.n.01'
p48
I1
ssg18
(dp49
S'green_onion.n.01'
p50
I1
ssg23
(dp51
S'bread.n.01'
p52
I1
ssg20
(dp53
g21
I2
ssg15
(dp54
S'cleaver.n.01'
p55
I1
sssb.