ccopy_reg
_reconstructor
p0
(cutils.eval
ConfusionMatrix
p1
c__builtin__
object
p2
Ntp3
Rp4
(dp5
S'labels'
p6
(lp7
S'cut.v.01'
p8
aS'flesh.n.01'
p9
aS'pulp.n.02'
p10
aS'meat.n.01'
p11
aS'cleaver.n.01'
p12
aS'vegetable.n.01'
p13
aS'knife.n.01'
p14
aS'green_onion.n.01'
p15
aS'cabbage.n.01'
p16
aS'piece.n.08'
p17
aS'slice.n.06'
p18
aS'pizza.n.01'
p19
aS'bread.n.01'
p20
aS'orange.n.01'
p21
aS'potato.n.01'
p22
aS'bacon.n.01'
p23
asS'instanceCount'
p24
I27
sS'matrix'
p25
(dp26
g13
(dp27
S'vegetable.n.01'
p28
I1
ssg8
(dp29
S'cut.v.01'
p30
I10
ssg14
(dp31
S'knife.n.01'
p32
I3
ssg9
(dp33
g10
I1
ssg18
(dp34
g18
I0
ssg23
(dp35
S'bacon.n.01'
p36
I1
ssg19
(dp37
S'pizza.n.01'
p38
I1
ssg21
(dp39
S'orange.n.01'
p40
I1
ssg12
(dp41
S'cleaver.n.01'
p42
I1
ssg22
(dp43
S'potato.n.01'
p44
I1
ssg16
(dp45
S'cabbage.n.01'
p46
I1
ssg15
(dp47
S'green_onion.n.01'
p48
I1
ssg20
(dp49
S'bread.n.01'
p50
I1
ssg17
(dp51
g18
I3
ssg10
(dp52
g10
I0
ssg11
(dp53
S'meat.n.01'
p54
I1
sssb.