ccopy_reg
_reconstructor
p0
(cutils.eval
ConfusionMatrix
p1
c__builtin__
object
p2
Ntp3
Rp4
(dp5
S'labels'
p6
(lp7
S'vegetable.n.01'
p8
aS'cut.v.01'
p9
aS'knife.n.01'
p10
aS'green_onion.n.01'
p11
aS'cabbage.n.01'
p12
aS'piece.n.08'
p13
aS'slice.n.06'
p14
aS'pizza.n.01'
p15
aS'bread.n.01'
p16
aS'orange.n.01'
p17
aS'potato.n.01'
p18
aS'bacon.n.01'
p19
aS'lemon.n.01'
p20
aS'tomato.n.01'
p21
asS'instanceCount'
p22
I27
sS'matrix'
p23
(dp24
g8
(dp25
S'vegetable.n.01'
p26
I1
ssg9
(dp27
S'cut.v.01'
p28
I10
ssg12
(dp29
S'cabbage.n.01'
p30
I1
ssg21
(dp31
S'tomato.n.01'
p32
I1
ssg14
(dp33
g14
I0
ssg19
(dp34
S'bacon.n.01'
p35
I1
ssg15
(dp36
S'pizza.n.01'
p37
I1
ssg17
(dp38
S'orange.n.01'
p39
I1
ssg20
(dp40
S'lemon.n.01'
p41
I1
ssg18
(dp42
S'potato.n.01'
p43
I1
ssg10
(dp44
S'knife.n.01'
p45
I4
ssg13
(dp46
g14
I3
ssg16
(dp47
S'bread.n.01'
p48
I1
ssg11
(dp49
S'green_onion.n.01'
p50
I1
sssb.