ccopy_reg
_reconstructor
p0
(cutils.eval
ConfusionMatrix
p1
c__builtin__
object
p2
Ntp3
Rp4
(dp5
S'labels'
p6
(lp7
S'Neutralisation'
p8
aS'Stirring'
p9
aS'Filling'
p10
aS'Cutting'
p11
asS'instanceCount'
p12
I4
sS'matrix'
p13
(dp14
g10
(dp15
S'Filling'
p16
I1
ssg11
(dp17
S'Cutting'
p18
I1
ssg9
(dp19
S'Stirring'
p20
I1
ssg8
(dp21
S'Neutralisation'
p22
I1
sssb.