ccopy_reg
_reconstructor
p0
(cutils.eval
ConfusionMatrix
p1
c__builtin__
object
p2
Ntp3
Rp4
(dp5
S'labels'
p6
(lp7
S'put.v.01'
p8
aS'onion.n.01'
p9
aS'onion.n.03'
p10
aS'beef.n.02'
p11
aS'plate.n.04'
p12
aS'plate.n.11'
p13
aS'bowl.n.01'
p14
aS'stadium.n.01'
p15
aS'cherry.n.03'
p16
asS'instanceCount'
p17
I7
sS'matrix'
p18
(dp19
g15
(dp20
g15
I0
ssg13
(dp21
g13
I0
ssg11
(dp22
S'beef.n.02'
p23
I1
ssg12
(dp24
g13
I1
ssg8
(dp25
S'put.v.01'
p26
I2
ssg14
(dp27
g15
I1
ssg16
(dp28
S'cherry.n.03'
p29
I1
ssg9
(dp30
g10
I1
ssg10
(dp31
g10
I0
sssb.