ccopy_reg
_reconstructor
p0
(cutils.eval
ConfusionMatrix
p1
c__builtin__
object
p2
Ntp3
Rp4
(dp5
S'labels'
p6
(lp7
S'put.v.01'
p8
aS'dressing.n.01'
p9
aS'dressing.n.04'
p10
aS'salad.n.01'
p11
aS'salmon.n.03'
p12
aS'plate.n.04'
p13
aS'plate.n.13'
p14
asS'instanceCount'
p15
I6
sS'matrix'
p16
(dp17
g14
(dp18
g14
I0
ssg13
(dp19
g14
I1
ssg11
(dp20
S'salad.n.01'
p21
I1
ssg10
(dp22
g10
I0
ssg8
(dp23
S'put.v.01'
p24
I2
ssg9
(dp25
g10
I1
ssg12
(dp26
S'salmon.n.03'
p27
I1
sssb.