ccopy_reg
_reconstructor
p0
(cutils.eval
ConfusionMatrix
p1
c__builtin__
object
p2
Ntp3
Rp4
(dp5
S'labels'
p6
(lp7
S'put.v.01'
p8
aS'cake.n.03'
p9
aS'patty.n.01'
p10
aS'whipped_cream.n.01'
p11
aS'mug.n.04'
p12
aS'chump.n.01'
p13
aS'microwave.n.02'
p14
asS'instanceCount'
p15
I6
sS'matrix'
p16
(dp17
g12
(dp18
g13
I1
ssg13
(dp19
g13
I0
ssg14
(dp20
S'microwave.n.02'
p21
I1
ssg8
(dp22
S'put.v.01'
p23
I2
ssg10
(dp24
g10
I0
ssg11
(dp25
S'whipped_cream.n.01'
p26
I1
ssg9
(dp27
g10
I1
sssb.