ccopy_reg
_reconstructor
p0
(cutils.eval
ConfusionMatrix
p1
c__builtin__
object
p2
Ntp3
Rp4
(dp5
S'labels'
p6
(lp7
S'add.v.01'
p8
aS'lend.v.01'
p9
aS'vanilla.n.02'
p10
aS'egg.n.02'
p11
aS'egg.n.01'
p12
aS'concoction.n.01'
p13
aS'mix.n.03'
p14
aS'blend.v.03'
p15
aS'mix.v.05'
p16
aS'fill.v.01'
p17
aS'pitcher.n.02'
p18
aS'milk.n.01'
p19
aS'fork.n.01'
p20
aS'branching.n.01'
p21
aS'bowl.n.01'
p22
aS'bowl.n.08'
p23
aS'cut.n.16'
p24
aS'edit.v.03'
p25
aS'bag.n.01'
p26
aS'bag.n.04'
p27
aS'saltcellar.n.01'
p28
aS'salt.n.02'
p29
aS'mug.n.04'
p30
aS'put.v.01'
p31
aS'sauce.n.01'
p32
aS'avocado.n.01'
p33
aS'butter.n.01'
p34
aS'dough.n.01'
p35
aS'boodle.n.01'
p36
aS'mix.v.04'
p37
aS'liquid.n.01'
p38
aS'pour.v.01'
p39
aS'sink.n.01'
p40
aS'cesspool.n.01'
p41
aS'serve.v.05'
p42
aS'serve.v.11'
p43
aS'cut.v.01'
p44
aS'piece.n.08'
p45
aS'slice.n.06'
p46
aS'ice.n.01'
p47
aS'ice.n.05'
p48
aS'measuring_cup.n.01'
p49
aS'meal.n.03'
p50
aS'carve.v.03'
p51
aS'compartmentalize.v.01'
p52
aS'pepper.n.04'
p53
aS'pepper.n.03'
p54
aS'onion.n.01'
p55
aS'put.v.02'
p56
aS'blend.v.01'
p57
aS'stadium.n.01'
p58
aS'chicken.n.01'
p59
aS'wimp.n.01'
p60
aS'corn.n.02'
p61
aS'corn.n.03'
p62
aS'chop.v.01'
p63
aS'chop.v.05'
p64
aS'sugar.n.01'
p65
aS'teapot.n.01'
p66
aS'water.n.06'
p67
aS'glass.n.02'
p68
aS'apple.n.01'
p69
aS'pan.n.01'
p70
aS'pan.n.03'
p71
aS'kettle.n.01'
p72
aS'thermos.n.01'
p73
aS'coffee.n.01'
p74
aS'water_system.n.02'
p75
aS'rice.n.01'
p76
aS'jar.n.01'
p77
asS'instanceCount'
p78
I75
sS'matrix'
p79
(dp80
g62
(dp81
g62
I0
ssg61
(dp82
g62
I1
ssg59
(dp83
g60
I1
ssg40
(dp84
g41
I1
ssg51
(dp85
g52
I1
ssg75
(dp86
g75
I0
ssg56
(dp87
g56
I0
ssg22
(dp88
g58
I1
sS'bowl.n.01'
p89
I1
sg23
I1
ssg60
(dp90
g60
I0
ssg57
(dp91
S'blend.v.01'
p92
I1
ssg69
(dp93
S'apple.n.01'
p94
I1
ssg23
(dp95
g23
I0
ssg8
(dp96
g9
I4
ssg19
(dp97
S'milk.n.01'
p98
I2
ssg67
(dp99
g75
I1
sS'water.n.06'
p100
I3
ssg71
(dp101
g71
I0
ssg44
(dp102
S'edit.v.03'
p103
I1
ssg54
(dp104
g54
I0
ssg28
(dp105
S'saltcellar.n.01'
p106
I1
ssg11
(dp107
g12
I2
ssg12
(dp108
g12
I0
ssg17
(dp109
S'fill.v.01'
p110
I12
ssg27
(dp111
g27
I0
ssg18
(dp112
S'pitcher.n.02'
p113
I1
ssg64
(dp114
g64
I0
ssg65
(dp115
S'boodle.n.01'
p116
I1
ssg26
(dp117
g27
I1
ssg63
(dp118
g64
I1
ssg10
(dp119
S'vanilla.n.02'
p120
I1
ssg37
(dp121
S'mix.v.05'
p122
I1
ssg16
(dp123
g16
I0
ssg70
(dp124
g71
I1
ssg49
(dp125
S'measuring_cup.n.01'
p126
I1
ssg32
(dp127
S'sauce.n.01'
p128
I1
ssg29
(dp129
S'salt.n.02'
p130
I1
ssg15
(dp131
g16
I3
ssg74
(dp132
S'coffee.n.01'
p133
I1
ssg35
(dp134
g36
I1
ssg53
(dp135
g54
I1
ssg14
(dp136
g14
I0
ssg25
(dp137
g25
I0
ssg20
(dp138
g21
I1
ssg36
(dp139
g36
I0
ssg43
(dp140
g43
I0
ssg21
(dp141
g21
I0
ssg13
(dp142
g14
I2
ssg76
(dp143
S'rice.n.01'
p144
I1
ssg45
(dp145
g46
I1
ssg41
(dp146
g41
I0
ssg58
(dp147
g58
I0
ssg30
(dp148
S'mug.n.04'
p149
I1
ssg66
(dp150
S'teapot.n.01'
p151
I1
ssg42
(dp152
g43
I1
ssg68
(dp153
S'glass.n.02'
p154
I1
ssg73
(dp155
S'thermos.n.01'
p156
I1
ssg46
(dp157
g46
I0
ssg33
(dp158
S'avocado.n.01'
p159
I1
ssg31
(dp160
g56
I1
sS'put.v.01'
p161
I1
ssg47
(dp162
g48
I1
ssg72
(dp163
S'kettle.n.01'
p164
I1
ssg39
(dp165
S'pour.v.01'
p166
I2
ssg48
(dp167
g48
I0
ssg9
(dp168
g9
I0
ssg38
(dp169
S'liquid.n.01'
p170
I1
ssg52
(dp171
g52
I0
ssg77
(dp172
S'jar.n.01'
p173
I1
ssg24
(dp174
g25
I1
ssg55
(dp175
S'onion.n.01'
p176
I1
ssg34
(dp177
S'butter.n.01'
p178
I2
ssg50
(dp179
S'meal.n.03'
p180
I1
sssb.