ccopy_reg
_reconstructor
p0
(cutils.eval
ConfusionMatrix
p1
c__builtin__
object
p2
Ntp3
Rp4
(dp5
S'labels'
p6
(lp7
S'ActionCause'
p8
aS'ObjectToBeAdded'
p9
aS'Goal'
p10
asS'instanceCount'
p11
I58
sS'matrix'
p12
(dp13
g8
(dp14
g8
I20
sg10
I0
sg9
I0
ssg10
(dp15
g8
I0
sg10
I12
sg9
I0
ssg9
(dp16
g8
I0
sg10
I0
sg9
I26
sssb.