ccopy_reg
_reconstructor
p0
(cutils.eval
ConfusionMatrix
p1
c__builtin__
object
p2
Ntp3
Rp4
(dp5
S'labels'
p6
(lp7
S'put.v.01'
p8
aS'spoon.n.01'
p9
aS'batter.n.02'
p10
aS'spread.n.05'
p11
aS'bread.n.01'
p12
aS'onion.n.01'
p13
aS'onion.n.03'
p14
aS'beef.n.02'
p15
aS'plate.n.04'
p16
aS'plate.n.13'
p17
aS'jam.n.01'
p18
aS'refrigerator.n.01'
p19
aS'rib.n.03'
p20
aS'rib.n.01'
p21
aS'salt.n.02'
p22
aS'steak.n.01'
p23
aS'oven.n.01'
p24
aS'cake.n.03'
p25
aS'patty.n.01'
p26
aS'whipped_cream.n.01'
p27
aS'blender.n.01'
p28
aS'banana.n.02'
p29
aS'bowl.n.01'
p30
aS'bowl.n.08'
p31
aS'cherry.n.03'
p32
aS'pepper.n.03'
p33
aS'capsicum.n.01'
p34
aS'egg.n.02'
p35
aS'soup.n.01'
p36
aS'microwave.n.02'
p37
aS'french_fries.n.01'
p38
aS'pan.n.03'
p39
aS'pizza.n.01'
p40
aS'dish.n.02'
p41
aS'salmon.n.03'
p42
aS'rice.n.01'
p43
aS'mug.n.04'
p44
aS'microwave.n.01'
p45
aS'coca_cola.n.01'
p46
aS'coke.n.01'
p47
aS'electric_refrigerator.n.01'
p48
asS'instanceCount'
p49
I55
sS'matrix'
p50
(dp51
g17
(dp52
g17
I0
ssg47
(dp53
g47
I0
ssg43
(dp54
S'rice.n.01'
p55
I1
ssg15
(dp56
S'beef.n.02'
p57
I1
ssg36
(dp58
S'soup.n.01'
p59
I1
ssg19
(dp60
S'refrigerator.n.01'
p61
I1
ssg12
(dp62
S'bread.n.01'
p63
I1
ssg30
(dp64
g31
I2
ssg10
(dp65
S'batter.n.02'
p66
I1
ssg31
(dp67
g31
I0
ssg42
(dp68
S'salmon.n.03'
p69
I1
ssg39
(dp70
S'pan.n.03'
p71
I1
ssg46
(dp72
g47
I1
ssg45
(dp73
g45
I0
ssg34
(dp74
g34
I0
ssg35
(dp75
S'egg.n.02'
p76
I1
ssg26
(dp77
g26
I0
ssg9
(dp78
S'spoon.n.01'
p79
I1
ssg20
(dp80
g21
I1
ssg22
(dp81
S'salt.n.02'
p82
I2
ssg29
(dp83
S'banana.n.02'
p84
I1
ssg16
(dp85
g17
I2
ssg21
(dp86
g21
I0
ssg33
(dp87
g34
I1
ssg11
(dp88
S'spread.n.05'
p89
I1
ssg27
(dp90
S'whipped_cream.n.01'
p91
I1
ssg24
(dp92
S'oven.n.01'
p93
I2
ssg37
(dp94
g45
I1
sS'microwave.n.02'
p95
I1
ssg44
(dp96
S'mug.n.04'
p97
I1
ssg28
(dp98
S'blender.n.01'
p99
I1
ssg18
(dp100
S'jam.n.01'
p101
I1
ssg8
(dp102
S'put.v.01'
p103
I18
ssg40
(dp104
S'pizza.n.01'
p105
I1
ssg48
(dp106
S'electric_refrigerator.n.01'
p107
I1
ssg23
(dp108
S'steak.n.01'
p109
I1
ssg25
(dp110
g26
I1
ssg38
(dp111
S'french_fries.n.01'
p112
I1
ssg32
(dp113
S'cherry.n.03'
p114
I1
ssg13
(dp115
g14
I1
ssg14
(dp116
g14
I0
ssg41
(dp117
S'dish.n.02'
p118
I1
sssb.