ccopy_reg
_reconstructor
p0
(cutils.eval
ConfusionMatrix
p1
c__builtin__
object
p2
Ntp3
Rp4
(dp5
S'labels'
p6
(lp7
S'put.v.01'
p8
aS'soup.n.01'
p9
aS'microwave.n.02'
p10
aS'french_fries.n.01'
p11
aS'pan.n.03'
p12
aS'pizza.n.01'
p13
aS'dish.n.02'
p14
aS'oven.n.01'
p15
aS'salmon.n.03'
p16
aS'plate.n.04'
p17
aS'plate.n.13'
p18
aS'bowl.n.01'
p19
aS'rice.n.01'
p20
aS'mug.n.04'
p21
aS'coca_cola.n.01'
p22
aS'coke.n.01'
p23
aS'electric_refrigerator.n.01'
p24
aS'chicken.n.01'
p25
aS'dressing.n.01'
p26
aS'dressing.n.04'
p27
aS'salad.n.01'
p28
aS'spoon.n.01'
p29
aS'batter.n.02'
p30
aS'spread.n.05'
p31
aS'bread.n.01'
p32
aS'onion.n.01'
p33
aS'onion.n.03'
p34
aS'beef.n.02'
p35
aS'gripe.n.01'
p36
aS'jam.n.01'
p37
aS'refrigerator.n.01'
p38
aS'rib.n.03'
p39
aS'rib.n.01'
p40
aS'salt.n.02'
p41
aS'steak.n.01'
p42
aS'cake.n.03'
p43
aS'patty.n.01'
p44
aS'whipped_cream.n.01'
p45
aS'blender.n.01'
p46
aS'banana.n.02'
p47
asS'instanceCount'
p48
I54
sS'matrix'
p49
(dp50
g18
(dp51
g18
I0
ssg23
(dp52
g23
I0
ssg37
(dp53
S'jam.n.01'
p54
I1
ssg25
(dp55
S'chicken.n.01'
p56
I1
ssg35
(dp57
g36
I1
ssg9
(dp58
S'soup.n.01'
p59
I1
ssg38
(dp60
S'refrigerator.n.01'
p61
I1
ssg32
(dp62
S'bread.n.01'
p63
I1
ssg19
(dp64
S'bowl.n.01'
p65
I1
ssg14
(dp66
S'dish.n.02'
p67
I1
ssg26
(dp68
g27
I1
ssg16
(dp69
S'salmon.n.03'
p70
I1
ssg12
(dp71
S'pan.n.03'
p72
I2
ssg22
(dp73
g23
I1
ssg10
(dp74
S'microwave.n.02'
p75
I2
ssg24
(dp76
S'electric_refrigerator.n.01'
p77
I1
ssg29
(dp78
S'spoon.n.01'
p79
I1
ssg39
(dp80
g40
I1
ssg41
(dp81
S'salt.n.02'
p82
I1
ssg47
(dp83
S'banana.n.02'
p84
I1
ssg17
(dp85
g18
I2
ssg40
(dp86
g40
I0
ssg36
(dp87
g36
I0
ssg31
(dp88
S'spread.n.05'
p89
I1
ssg42
(dp90
S'steak.n.01'
p91
I1
ssg15
(dp92
S'oven.n.01'
p93
I2
ssg44
(dp94
g44
I0
ssg21
(dp95
S'mug.n.04'
p96
I1
ssg46
(dp97
S'blender.n.01'
p98
I1
ssg33
(dp99
g34
I1
ssg27
(dp100
g27
I0
ssg20
(dp101
S'rice.n.01'
p102
I1
ssg8
(dp103
S'put.v.01'
p104
I18
ssg13
(dp105
S'pizza.n.01'
p106
I1
ssg45
(dp107
S'whipped_cream.n.01'
p108
I1
ssg43
(dp109
g44
I1
ssg11
(dp110
S'french_fries.n.01'
p111
I1
ssg28
(dp112
S'salad.n.01'
p113
I1
ssg34
(dp114
g34
I0
ssg30
(dp115
S'batter.n.02'
p116
I1
sssb.