ccopy_reg
_reconstructor
p0
(cutils.eval
ConfusionMatrix
p1
c__builtin__
object
p2
Ntp3
Rp4
(dp5
S'labels'
p6
(lp7
S'put.v.01'
p8
aS'salmon.n.03'
p9
aS'plate.n.04'
p10
aS'plate.n.13'
p11
aS'bowl.n.01'
p12
aS'bowl.n.08'
p13
aS'rice.n.01'
p14
aS'mug.n.04'
p15
aS'countenance.n.03'
p16
aS'microwave.n.02'
p17
aS'coca_cola.n.01'
p18
aS'electric_refrigerator.n.01'
p19
aS'pan.n.03'
p20
aS'chicken.n.01'
p21
aS'dressing.n.01'
p22
aS'dressing.n.04'
p23
aS'salad.n.01'
p24
aS'spoon.n.01'
p25
aS'batter.n.02'
p26
aS'spread.n.05'
p27
aS'paste.n.03'
p28
aS'bread.n.01'
p29
aS'onion.n.01'
p30
aS'beef.n.02'
p31
aS'gripe.n.01'
p32
aS'plate.n.08'
p33
aS'jam.n.01'
p34
aS'refrigerator.n.01'
p35
aS'rib.n.03'
p36
aS'rib.n.01'
p37
aS'salt.n.02'
p38
aS'steak.n.01'
p39
aS'oven.n.01'
p40
aS'cake.n.03'
p41
aS'patty.n.01'
p42
aS'whipped_cream.n.01'
p43
aS'blender.n.01'
p44
aS'banana.n.02'
p45
aS'cherry.n.03'
p46
aS'cherry.n.01'
p47
aS'pepper.n.03'
p48
aS'capsicum.n.01'
p49
aS'salt.n.04'
p50
aS'egg.n.02'
p51
aS'soup.n.01'
p52
aS'french_fries.n.01'
p53
asS'instanceCount'
p54
I55
sS'matrix'
p55
(dp56
g11
(dp57
g11
I0
ssg34
(dp58
S'jam.n.01'
p59
I1
ssg21
(dp60
S'chicken.n.01'
p61
I1
ssg48
(dp62
g49
I1
ssg31
(dp63
g32
I1
ssg52
(dp64
S'soup.n.01'
p65
I1
ssg35
(dp66
S'refrigerator.n.01'
p67
I1
ssg29
(dp68
S'bread.n.01'
p69
I1
ssg12
(dp70
g13
I2
ssg26
(dp71
S'batter.n.02'
p72
I1
ssg18
(dp73
S'coca_cola.n.01'
p74
I1
ssg9
(dp75
S'salmon.n.03'
p76
I1
ssg20
(dp77
S'pan.n.03'
p78
I1
ssg13
(dp79
g13
I0
ssg45
(dp80
S'banana.n.02'
p81
I1
ssg17
(dp82
S'microwave.n.02'
p83
I2
ssg51
(dp84
S'egg.n.02'
p85
I1
ssg19
(dp86
S'electric_refrigerator.n.01'
p87
I1
ssg25
(dp88
S'spoon.n.01'
p89
I1
ssg36
(dp90
g37
I1
ssg38
(dp91
S'salt.n.02'
p92
I1
sg50
I1
ssg33
(dp93
g33
I0
ssg16
(dp94
g16
I0
ssg50
(dp95
g50
I0
ssg10
(dp96
g11
I1
sg33
I1
ssg37
(dp97
g37
I0
ssg32
(dp98
g32
I0
ssg27
(dp99
g28
I1
ssg39
(dp100
S'steak.n.01'
p101
I1
ssg40
(dp102
S'oven.n.01'
p103
I1
ssg42
(dp104
g42
I0
ssg49
(dp105
g49
I0
ssg28
(dp106
g28
I0
ssg15
(dp107
g16
I1
ssg44
(dp108
S'blender.n.01'
p109
I1
ssg30
(dp110
S'onion.n.01'
p111
I1
ssg23
(dp112
g23
I0
ssg14
(dp113
S'rice.n.01'
p114
I1
ssg8
(dp115
S'put.v.01'
p116
I18
ssg22
(dp117
g23
I1
ssg43
(dp118
S'whipped_cream.n.01'
p119
I1
ssg41
(dp120
g42
I1
ssg53
(dp121
S'french_fries.n.01'
p122
I1
ssg47
(dp123
g47
I0
ssg46
(dp124
g47
I1
ssg24
(dp125
S'salad.n.01'
p126
I1
sssb.