ccopy_reg
_reconstructor
p0
(cutils.eval
ConfusionMatrix
p1
c__builtin__
object
p2
Ntp3
Rp4
(dp5
S'labels'
p6
(lp7
S'put.v.01'
p8
aS'onion.n.01'
p9
aS'beef.n.02'
p10
aS'plate.n.04'
p11
aS'plate.n.08'
p12
aS'jam.n.01'
p13
aS'refrigerator.n.01'
p14
aS'rib.n.03'
p15
aS'rib.n.01'
p16
aS'salt.n.02'
p17
aS'steak.n.01'
p18
aS'oven.n.01'
p19
aS'cake.n.03'
p20
aS'patty.n.01'
p21
aS'whipped_cream.n.01'
p22
aS'blender.n.01'
p23
aS'banana.n.02'
p24
aS'bowl.n.01'
p25
aS'bowl.n.08'
p26
aS'cherry.n.03'
p27
aS'pepper.n.03'
p28
aS'capsicum.n.01'
p29
aS'egg.n.02'
p30
aS'soup.n.01'
p31
aS'microwave.n.02'
p32
aS'french_fries.n.01'
p33
aS'pan.n.03'
p34
aS'pizza.n.01'
p35
aS'dish.n.02'
p36
aS'salmon.n.03'
p37
aS'plate.n.13'
p38
aS'rice.n.01'
p39
aS'mug.n.04'
p40
aS'microwave.n.01'
p41
aS'coca_cola.n.01'
p42
aS'electric_refrigerator.n.01'
p43
aS'chicken.n.01'
p44
aS'dressing.n.01'
p45
aS'dressing.n.04'
p46
aS'salad.n.01'
p47
asS'instanceCount'
p48
I55
sS'matrix'
p49
(dp50
g38
(dp51
g38
I0
ssg39
(dp52
S'rice.n.01'
p53
I1
ssg44
(dp54
S'chicken.n.01'
p55
I1
ssg10
(dp56
S'beef.n.02'
p57
I1
ssg31
(dp58
S'soup.n.01'
p59
I1
ssg14
(dp60
S'refrigerator.n.01'
p61
I1
ssg25
(dp62
g26
I2
ssg36
(dp63
S'dish.n.02'
p64
I1
ssg45
(dp65
g46
I1
ssg26
(dp66
g26
I0
ssg37
(dp67
S'salmon.n.03'
p68
I1
ssg34
(dp69
S'pan.n.03'
p70
I2
ssg42
(dp71
S'coca_cola.n.01'
p72
I1
ssg41
(dp73
g41
I0
ssg29
(dp74
g29
I0
ssg30
(dp75
S'egg.n.02'
p76
I1
ssg21
(dp77
g21
I0
ssg15
(dp78
g16
I1
ssg17
(dp79
S'salt.n.02'
p80
I2
ssg12
(dp81
g12
I0
ssg24
(dp82
S'banana.n.02'
p83
I1
ssg11
(dp84
g38
I1
sg12
I1
ssg16
(dp85
g16
I0
ssg28
(dp86
g29
I1
ssg18
(dp87
S'steak.n.01'
p88
I1
ssg19
(dp89
S'oven.n.01'
p90
I2
ssg32
(dp91
g41
I1
sS'microwave.n.02'
p92
I1
ssg40
(dp93
S'mug.n.04'
p94
I1
ssg23
(dp95
S'blender.n.01'
p96
I1
ssg47
(dp97
S'salad.n.01'
p98
I1
ssg46
(dp99
g46
I0
ssg13
(dp100
S'jam.n.01'
p101
I1
ssg8
(dp102
S'put.v.01'
p103
I18
ssg35
(dp104
S'pizza.n.01'
p105
I1
ssg43
(dp106
S'electric_refrigerator.n.01'
p107
I1
ssg22
(dp108
S'whipped_cream.n.01'
p109
I1
ssg20
(dp110
g21
I1
ssg33
(dp111
S'french_fries.n.01'
p112
I1
ssg27
(dp113
S'cherry.n.03'
p114
I1
ssg9
(dp115
S'onion.n.01'
p116
I1
sssb.