ccopy_reg
_reconstructor
p0
(cutils.eval
ConfusionMatrix
p1
c__builtin__
object
p2
Ntp3
Rp4
(dp5
S'labels'
p6
(lp7
S'put.v.01'
p8
aS'rib.n.03'
p9
aS'rib.n.06'
p10
aS'salt.n.02'
p11
aS'steak.n.01'
p12
aS'oven.n.01'
p13
aS'cake.n.03'
p14
aS'patty.n.01'
p15
aS'whipped_cream.n.01'
p16
aS'blender.n.01'
p17
aS'banana.n.02'
p18
aS'bowl.n.01'
p19
aS'bowl.n.03'
p20
aS'cherry.n.03'
p21
aS'pepper.n.03'
p22
aS'capsicum.n.01'
p23
aS'salt.n.04'
p24
aS'egg.n.02'
p25
aS'soup.n.01'
p26
aS'microwave.n.02'
p27
aS'french_fries.n.01'
p28
aS'child.n.01'
p29
aS'pan.n.03'
p30
aS'pizza.n.01'
p31
aS'dish.n.02'
p32
aS'salmon.n.03'
p33
aS'plate.n.04'
p34
aS'rice.n.01'
p35
aS'mug.n.04'
p36
aS'countenance.n.03'
p37
aS'coca_cola.n.01'
p38
aS'electric_refrigerator.n.01'
p39
aS'chicken.n.01'
p40
aS'dressing.n.01'
p41
aS'dressing.n.04'
p42
aS'salad.n.01'
p43
aS'spoon.n.01'
p44
aS'batter.n.02'
p45
aS'spread.n.05'
p46
aS'paste.n.02'
p47
aS'bread.n.01'
p48
aS'boodle.n.01'
p49
asS'instanceCount'
p50
I54
sS'matrix'
p51
(dp52
g40
(dp53
S'chicken.n.01'
p54
I1
ssg26
(dp55
S'soup.n.01'
p56
I1
ssg48
(dp57
g49
I1
ssg20
(dp58
g20
I0
ssg19
(dp59
g20
I2
ssg32
(dp60
S'dish.n.02'
p61
I1
ssg29
(dp62
g29
I0
ssg38
(dp63
S'coca_cola.n.01'
p64
I1
ssg33
(dp65
S'salmon.n.03'
p66
I1
ssg41
(dp67
g42
I1
ssg30
(dp68
S'pan.n.03'
p69
I2
ssg37
(dp70
g37
I0
ssg27
(dp71
S'microwave.n.02'
p72
I2
ssg25
(dp73
S'egg.n.02'
p74
I1
ssg15
(dp75
g15
I0
ssg44
(dp76
S'spoon.n.01'
p77
I1
ssg23
(dp78
g23
I0
ssg34
(dp79
S'plate.n.04'
p80
I1
ssg11
(dp81
S'salt.n.02'
p82
I1
sg24
I1
ssg18
(dp83
S'banana.n.02'
p84
I1
ssg24
(dp85
g24
I0
ssg9
(dp86
g10
I1
ssg10
(dp87
g10
I0
ssg22
(dp88
g23
I1
ssg46
(dp89
g47
I1
ssg16
(dp90
S'whipped_cream.n.01'
p91
I1
ssg13
(dp92
S'oven.n.01'
p93
I2
ssg49
(dp94
g49
I0
ssg47
(dp95
g47
I0
ssg36
(dp96
g37
I1
ssg17
(dp97
S'blender.n.01'
p98
I1
ssg42
(dp99
g42
I0
ssg35
(dp100
S'rice.n.01'
p101
I1
ssg8
(dp102
S'put.v.01'
p103
I18
ssg31
(dp104
S'pizza.n.01'
p105
I1
ssg39
(dp106
S'electric_refrigerator.n.01'
p107
I1
ssg12
(dp108
S'steak.n.01'
p109
I1
ssg14
(dp110
g15
I1
ssg28
(dp111
g29
I1
ssg21
(dp112
S'cherry.n.03'
p113
I1
ssg43
(dp114
S'salad.n.01'
p115
I1
ssg45
(dp116
S'batter.n.02'
p117
I1
sssb.