ccopy_reg
_reconstructor
p0
(cutils.eval
ConfusionMatrix
p1
c__builtin__
object
p2
Ntp3
Rp4
(dp5
S'labels'
p6
(lp7
S'put.v.01'
p8
aS'mug.n.04'
p9
aS'microwave.n.02'
p10
aS'microwave.n.01'
p11
aS'coca_cola.n.01'
p12
aS'coke.n.01'
p13
aS'electric_refrigerator.n.01'
p14
aS'pan.n.03'
p15
aS'chicken.n.01'
p16
aS'dressing.n.01'
p17
aS'dressing.n.04'
p18
aS'salad.n.01'
p19
aS'spoon.n.01'
p20
aS'batter.n.02'
p21
aS'spread.n.05'
p22
aS'paste.n.03'
p23
aS'bread.n.01'
p24
aS'onion.n.01'
p25
aS'onion.n.03'
p26
aS'beef.n.02'
p27
aS'plate.n.04'
p28
aS'jam.n.01'
p29
aS'refrigerator.n.01'
p30
aS'rib.n.03'
p31
aS'rib.n.01'
p32
aS'salt.n.02'
p33
aS'steak.n.01'
p34
aS'oven.n.01'
p35
aS'cake.n.03'
p36
aS'whipped_cream.n.01'
p37
aS'blender.n.01'
p38
aS'banana.n.02'
p39
aS'bowl.n.01'
p40
aS'bowl.n.03'
p41
aS'cherry.n.03'
p42
aS'pepper.n.03'
p43
aS'pepper.n.04'
p44
aS'egg.n.02'
p45
aS'egg.n.01'
p46
aS'soup.n.01'
p47
aS'french_fries.n.01'
p48
aS'pizza.n.01'
p49
aS'dish.n.02'
p50
aS'plate.n.13'
p51
aS'patty.n.01'
p52
aS'bowl.n.08'
p53
aS'capsicum.n.01'
p54
aS'salmon.n.03'
p55
aS'rice.n.01'
p56
aS'stadium.n.01'
p57
aS'plate.n.11'
p58
aS'countenance.n.03'
p59
aS'plate.n.08'
p60
aS'salt.n.04'
p61
aS'soup.n.02'
p62
aS'pan.n.01'
p63
aS'gripe.n.01'
p64
aS'denture.n.01'
p65
aS'rib.n.06'
p66
aS'salt.n.01'
p67
aS'paste.n.02'
p68
aS'cherry.n.01'
p69
aS'child.n.01'
p70
aS'boodle.n.01'
p71
aS'plate.n.10'
p72
asS'instanceCount'
p73
I549
sS'matrix'
p74
(dp75
g13
(dp76
g13
I0
sg51
I0
sg58
I0
sg56
I0
sg16
I0
sg27
I0
sg47
I0
sg62
I0
sg30
I0
sg24
I0
sg41
I0
sg40
I0
sg49
I0
sg21
I0
sg12
I0
sg55
I0
sg63
I0
sg15
I0
sg53
I0
sg11
I0
sg59
I0
sg10
I0
sg45
I0
sg46
I0
sg14
I0
sg20
I0
sg31
I0
sg64
I0
sg65
I0
sg33
I0
sg67
I0
sg60
I0
sg39
I0
sg61
I0
sg28
I0
sg44
I0
sg32
I0
sg66
I0
sg43
I0
sg22
I0
sg34
I0
sg35
I0
sg52
I0
sg54
I0
sg23
I0
sg57
I0
sg9
I0
sg38
I0
sg19
I0
sg18
I0
sg29
I0
sg8
I0
sg17
I0
sg37
I0
sg36
I0
sg48
I0
sg42
I0
sg25
I0
sg26
I0
sg50
I0
ssg51
(dp77
g51
I0
sS'coke.n.01'
p78
I0
sg56
I0
sS'chicken.n.01'
p79
I0
sS'beef.n.02'
p80
I0
sS'soup.n.01'
p81
I0
sg62
I0
sg70
I0
sS'refrigerator.n.01'
p82
I0
sS'bread.n.01'
p83
I0
sS'bowl.n.01'
p84
I0
sS'batter.n.02'
p85
I0
sS'dressing.n.01'
p86
I0
sg53
I0
sg55
I0
sg63
I0
sS'pan.n.03'
p87
I0
sS'coca_cola.n.01'
p88
I0
sS'microwave.n.01'
p89
I0
sS'countenance.n.03'
p90
I0
sg54
I0
sS'egg.n.02'
p91
I0
sS'egg.n.01'
p92
I0
sg52
I0
sS'spoon.n.01'
p93
I0
sS'rib.n.03'
p94
I0
sg65
I0
sS'salt.n.02'
p95
I0
sg67
I0
sS'plate.n.08'
p96
I0
sS'banana.n.02'
p97
I0
sg61
I0
sS'plate.n.04'
p98
I0
sS'pepper.n.04'
p99
I0
sS'rib.n.01'
p100
I0
sg66
I0
sS'pepper.n.03'
p101
I0
sS'spread.n.05'
p102
I0
sS'whipped_cream.n.01'
p103
I0
sS'oven.n.01'
p104
I0
sg64
I0
sS'microwave.n.02'
p105
I0
sS'paste.n.03'
p106
I0
sg68
I0
sS'mug.n.04'
p107
I0
sS'blender.n.01'
p108
I0
sS'salad.n.01'
p109
I0
sS'dressing.n.04'
p110
I0
sS'jam.n.01'
p111
I0
sS'put.v.01'
p112
I0
sS'pizza.n.01'
p113
I0
sS'electric_refrigerator.n.01'
p114
I0
sS'steak.n.01'
p115
I0
sS'cake.n.03'
p116
I0
sS'french_fries.n.01'
p117
I0
sg69
I0
sS'cherry.n.03'
p118
I0
sS'onion.n.01'
p119
I0
sS'onion.n.03'
p120
I0
sS'dish.n.02'
p121
I0
ssg58
(dp122
S'coke.n.01'
p123
I0
sg58
I0
sS'jam.n.01'
p124
I0
sS'chicken.n.01'
p125
I0
sS'beef.n.02'
p126
I0
sS'soup.n.01'
p127
I0
sS'refrigerator.n.01'
p128
I0
sS'bread.n.01'
p129
I0
sS'bowl.n.01'
p130
I0
sS'dish.n.02'
p131
I0
sS'dressing.n.01'
p132
I0
sS'coca_cola.n.01'
p133
I0
sS'salmon.n.03'
p134
I0
sS'pan.n.03'
p135
I0
sg59
I0
sS'microwave.n.02'
p136
I0
sS'egg.n.02'
p137
I0
sS'egg.n.01'
p138
I0
sS'electric_refrigerator.n.01'
p139
I0
sS'spoon.n.01'
p140
I0
sS'salt.n.02'
p141
I0
sg60
I0
sS'banana.n.02'
p142
I0
sS'plate.n.04'
p143
I0
sS'pepper.n.04'
p144
I0
sS'pepper.n.03'
p145
I0
sS'spread.n.05'
p146
I0
sS'whipped_cream.n.01'
p147
I0
sS'oven.n.01'
p148
I0
sg57
I0
sS'mug.n.04'
p149
I0
sS'blender.n.01'
p150
I0
sS'onion.n.01'
p151
I0
sS'dressing.n.04'
p152
I0
sS'rice.n.01'
p153
I0
sS'put.v.01'
p154
I0
sS'pizza.n.01'
p155
I0
sS'cake.n.03'
p156
I0
sS'french_fries.n.01'
p157
I0
sS'cherry.n.03'
p158
I0
sS'salad.n.01'
p159
I0
sS'batter.n.02'
p160
I0
ssg56
(dp161
g51
I0
sg78
I0
sg58
I0
sg56
I9
sg125
I0
sg80
I0
sg81
I0
sg62
I0
sg70
I0
sg82
I0
sg83
I0
sS'bowl.n.03'
p162
I0
sg84
I0
sg72
I0
sg85
I0
sg132
I0
sg53
I0
sg55
I0
sg63
I0
sg87
I0
sg88
I0
sg89
I0
sg59
I0
sg54
I0
sg91
I0
sg138
I0
sg52
I0
sg93
I0
sg94
I0
sg65
I0
sg95
I0
sg67
I0
sg60
I0
sg97
I0
sg61
I0
sg98
I0
sg144
I0
sg100
I0
sg66
I0
sg101
I0
sg102
I0
sg103
I0
sg104
I0
sg64
I0
sg105
I0
sg71
I0
sg106
I0
sg68
I0
sg57
I0
sg107
I0
sg108
I0
sg159
I0
sg152
I0
sg111
I0
sg112
I0
sg113
I0
sg114
I0
sg115
I0
sg116
I0
sg117
I0
sg69
I0
sg118
I0
sg119
I0
sg120
I0
sg121
I0
ssg16
(dp163
g13
I0
sS'plate.n.13'
p164
I0
sg58
I0
sg153
I0
sg16
I9
sg27
I0
sg47
I0
sg62
I0
sg30
I0
sg24
I0
sg41
I0
sg40
I0
sg49
I0
sg21
I0
sg70
I0
sg12
I0
sg134
I0
sg63
I0
sg15
I0
sS'bowl.n.08'
p165
I0
sg11
I0
sg59
I0
sg10
I0
sg45
I0
sg46
I0
sg14
I0
sg20
I0
sg31
I0
sg72
I0
sg64
I0
sg65
I0
sg33
I0
sg67
I0
sg60
I0
sg39
I0
sg61
I0
sg28
I0
sg44
I0
sg32
I0
sg66
I0
sg43
I0
sg22
I0
sg34
I0
sg35
I0
sS'patty.n.01'
p166
I0
sS'capsicum.n.01'
p167
I0
sg71
I0
sg23
I0
sg68
I0
sg57
I0
sg9
I0
sg38
I0
sg19
I0
sg18
I0
sg29
I0
sg8
I0
sg17
I0
sg37
I0
sg36
I0
sg48
I0
sg69
I0
sg42
I0
sg25
I0
sg26
I0
sg50
I0
ssg27
(dp168
g13
I0
sg51
I0
sg58
I0
sg56
I0
sg16
I0
sg27
I6
sg47
I0
sg62
I0
sg30
I0
sg24
I0
sg41
I0
sg40
I0
sg49
I0
sg21
I0
sg70
I0
sg12
I0
sg55
I0
sg63
I0
sg15
I0
sg53
I0
sg11
I0
sg59
I0
sg10
I0
sg45
I0
sg46
I0
sg14
I0
sg20
I0
sg31
I0
sg72
I0
sg64
I3
sg65
I0
sg33
I0
sg67
I0
sg60
I0
sg39
I0
sg61
I0
sg28
I0
sg44
I0
sg32
I0
sg66
I0
sg43
I0
sg22
I0
sg34
I0
sg35
I0
sg52
I0
sg54
I0
sg23
I0
sg68
I0
sg57
I0
sg9
I0
sg38
I0
sg19
I0
sg18
I0
sg29
I0
sg8
I0
sg17
I0
sg37
I0
sg36
I0
sg48
I0
sg69
I0
sg42
I0
sg25
I0
sg26
I0
sg50
I0
ssg47
(dp169
g13
I0
sg51
I0
sg58
I0
sg56
I0
sg16
I0
sg27
I0
sg47
I8
sg62
I1
sg30
I0
sg24
I0
sg41
I0
sg40
I0
sg49
I0
sg21
I0
sg70
I0
sg12
I0
sg55
I0
sg63
I0
sg15
I0
sg53
I0
sg11
I0
sg59
I0
sg10
I0
sg45
I0
sg46
I0
sg14
I0
sg20
I0
sg31
I0
sg64
I0
sg65
I0
sg33
I0
sg67
I0
sg60
I0
sg39
I0
sg61
I0
sg28
I0
sg44
I0
sg32
I0
sg66
I0
sg43
I0
sg22
I0
sg34
I0
sg35
I0
sg52
I0
sg54
I0
sg71
I0
sg23
I0
sg68
I0
sg57
I0
sg9
I0
sg38
I0
sg19
I0
sg18
I0
sg29
I0
sg8
I0
sg17
I0
sg37
I0
sg36
I0
sg48
I0
sg69
I0
sg42
I0
sg25
I0
sg26
I0
sg50
I0
ssg62
(dp170
S'plate.n.13'
p171
I0
sS'coke.n.01'
p172
I0
sS'jam.n.01'
p173
I0
sS'chicken.n.01'
p174
I0
sS'beef.n.02'
p175
I0
sS'soup.n.01'
p176
I0
sg62
I0
sS'refrigerator.n.01'
p177
I0
sS'bread.n.01'
p178
I0
sS'bowl.n.01'
p179
I0
sS'dish.n.02'
p180
I0
sS'dressing.n.01'
p181
I0
sS'bowl.n.08'
p182
I0
sS'salmon.n.03'
p183
I0
sg63
I0
sS'pan.n.03'
p184
I0
sS'coca_cola.n.01'
p185
I0
sS'microwave.n.01'
p186
I0
sS'microwave.n.02'
p187
I0
sS'egg.n.02'
p188
I0
sg92
I0
sS'electric_refrigerator.n.01'
p189
I0
sS'spoon.n.01'
p190
I0
sS'rib.n.03'
p191
I0
sg65
I0
sS'salt.n.02'
p192
I0
sg67
I0
sg61
I0
sS'plate.n.04'
p193
I0
sg99
I0
sg66
I0
sS'pepper.n.03'
p194
I0
sS'spread.n.05'
p195
I0
sS'steak.n.01'
p196
I0
sS'oven.n.01'
p197
I0
sg64
I0
sg106
I0
sS'mug.n.04'
p198
I0
sS'onion.n.01'
p199
I0
sS'dressing.n.04'
p200
I0
sS'rice.n.01'
p201
I0
sS'put.v.01'
p202
I0
sS'pizza.n.01'
p203
I0
sS'french_fries.n.01'
p204
I0
sS'cherry.n.03'
p205
I0
sS'salad.n.01'
p206
I0
sS'onion.n.03'
p207
I0
sS'batter.n.02'
p208
I0
ssg30
(dp209
g13
I0
sg51
I0
sg58
I0
sg56
I0
sg16
I0
sg27
I0
sg47
I0
sg62
I0
sg30
I9
sg24
I0
sg41
I0
sg40
I0
sg49
I0
sg21
I0
sg70
I0
sg12
I0
sg55
I0
sg63
I0
sg15
I0
sg53
I0
sg11
I0
sg59
I0
sg10
I0
sg45
I0
sg46
I0
sg14
I0
sg20
I0
sg31
I0
sg72
I0
sg64
I0
sg65
I0
sg33
I0
sg67
I0
sg60
I0
sg39
I0
sg61
I0
sg28
I0
sg44
I0
sg32
I0
sg66
I0
sg43
I0
sg22
I0
sg34
I0
sg35
I0
sg52
I0
sg54
I0
sg23
I0
sg68
I0
sg57
I0
sg9
I0
sg38
I0
sg19
I0
sg18
I0
sg29
I0
sg8
I0
sg17
I0
sg37
I0
sg36
I0
sg48
I0
sg69
I0
sg42
I0
sg25
I0
sg26
I0
sg50
I0
ssg24
(dp210
g13
I0
sg51
I0
sg58
I0
sg56
I0
sg16
I0
sg27
I0
sg47
I0
sg62
I0
sg30
I0
sg24
I8
sg41
I0
sg40
I0
sg49
I0
sg21
I0
sg70
I0
sg12
I0
sg55
I0
sg63
I0
sg15
I0
sg53
I0
sg11
I0
sg59
I0
sg10
I0
sg45
I0
sg46
I0
sg14
I0
sg20
I0
sg31
I0
sg72
I0
sg64
I0
sg65
I0
sg33
I0
sg67
I0
sg60
I0
sg39
I0
sg61
I0
sg28
I0
sg44
I0
sg32
I0
sg66
I0
sg43
I0
sg22
I0
sg34
I0
sg35
I0
sg52
I0
sg54
I0
sg71
I1
sg23
I0
sg68
I0
sg57
I0
sg9
I0
sg38
I0
sg19
I0
sg18
I0
sg29
I0
sg8
I0
sg17
I0
sg37
I0
sg36
I0
sg48
I0
sg69
I0
sg42
I0
sg25
I0
sg26
I0
sg50
I0
ssg41
(dp211
g13
I0
sS'rice.n.01'
p212
I0
sg16
I0
sg27
I0
sg47
I0
sg30
I0
sg24
I0
sg41
I0
sg40
I0
sg49
I0
sg21
I0
sS'child.n.01'
p213
I0
sg12
I0
sS'salmon.n.03'
p214
I0
sg15
I0
sg11
I0
sS'countenance.n.03'
p215
I0
sg10
I0
sg45
I0
sg46
I0
sg14
I0
sg20
I0
sg31
I0
sg33
I0
sg39
I0
sS'salt.n.04'
p216
I0
sg28
I0
sg44
I0
sg32
I0
sS'rib.n.06'
p217
I0
sg43
I0
sg22
I0
sg34
I0
sg35
I0
sS'patty.n.01'
p218
I0
sS'capsicum.n.01'
p219
I0
sg71
I0
sg23
I0
sS'paste.n.02'
p220
I0
sg9
I0
sg38
I0
sg19
I0
sg18
I0
sg29
I0
sg8
I0
sg17
I0
sg37
I0
sg36
I0
sg48
I0
sg42
I0
sg25
I0
sg26
I0
sg50
I0
ssg40
(dp221
g13
I0
sg51
I0
sg58
I0
sg56
I0
sg16
I0
sg27
I0
sg47
I0
sg62
I0
sg30
I0
sg24
I0
sg41
I3
sg40
I3
sg49
I0
sg21
I0
sg70
I0
sg12
I0
sg55
I0
sg63
I0
sg15
I0
sg53
I8
sg11
I0
sg59
I0
sg10
I0
sg45
I0
sg46
I0
sg14
I0
sg20
I0
sg31
I0
sg72
I0
sg64
I0
sg65
I0
sg33
I0
sg67
I0
sg60
I0
sg39
I0
sg61
I0
sg28
I0
sg44
I0
sg32
I0
sg66
I0
sg43
I0
sg22
I0
sg34
I0
sg35
I0
sg52
I0
sg54
I0
sg71
I0
sg23
I0
sg68
I0
sg57
I4
sg9
I0
sg38
I0
sg19
I0
sg18
I0
sg29
I0
sg8
I0
sg17
I0
sg37
I0
sg36
I0
sg48
I0
sg69
I0
sg42
I0
sg25
I0
sg26
I0
sg50
I0
ssg49
(dp222
g13
I0
sg51
I0
sg58
I0
sg56
I0
sg16
I0
sg27
I0
sg47
I0
sg62
I0
sg30
I0
sg24
I0
sg41
I0
sg40
I0
sg72
I0
sg21
I0
sg70
I0
sg17
I0
sg55
I0
sg63
I0
sg15
I0
sg12
I0
sg11
I0
sg59
I0
sg10
I0
sg45
I0
sg46
I0
sg14
I0
sg20
I0
sg31
I0
sg64
I0
sg65
I0
sg33
I0
sg67
I0
sg60
I0
sg39
I0
sg61
I0
sg28
I0
sg44
I0
sg32
I0
sg66
I0
sg43
I0
sg22
I0
sg34
I0
sg35
I0
sg52
I0
sg54
I0
sg71
I0
sg23
I0
sg68
I0
sg57
I0
sg9
I0
sg38
I0
sg19
I0
sg18
I0
sg29
I0
sg8
I0
sg49
I9
sg37
I0
sg36
I0
sg53
I0
sg48
I0
sg69
I0
sg42
I0
sg25
I0
sg26
I0
sg50
I0
ssg21
(dp223
g13
I0
sg51
I0
sg58
I0
sg56
I0
sg16
I0
sg27
I0
sg47
I0
sg62
I0
sg30
I0
sg24
I0
sg41
I0
sg40
I0
sg49
I0
sg21
I9
sg70
I0
sg12
I0
sg55
I0
sg63
I0
sg15
I0
sg53
I0
sg11
I0
sg59
I0
sg10
I0
sg45
I0
sg46
I0
sg14
I0
sg20
I0
sg31
I0
sg72
I0
sg64
I0
sg65
I0
sg33
I0
sg67
I0
sg60
I0
sg39
I0
sg61
I0
sg28
I0
sg44
I0
sg32
I0
sg66
I0
sg43
I0
sg22
I0
sg34
I0
sg35
I0
sg52
I0
sg54
I0
sg71
I0
sg23
I0
sg68
I0
sg57
I0
sg9
I0
sg38
I0
sg19
I0
sg18
I0
sg29
I0
sg8
I0
sg17
I0
sg37
I0
sg36
I0
sg48
I0
sg69
I0
sg42
I0
sg25
I0
sg26
I0
sg50
I0
ssg70
(dp224
S'plate.n.13'
p225
I0
sS'rice.n.01'
p226
I0
sS'chicken.n.01'
p227
I0
sS'beef.n.02'
p228
I0
sS'soup.n.01'
p229
I0
sS'refrigerator.n.01'
p230
I0
sS'bread.n.01'
p231
I0
sg162
I0
sS'bowl.n.01'
p232
I0
sS'batter.n.02'
p233
I0
sg70
I0
sS'pizza.n.01'
p234
I0
sS'salmon.n.03'
p235
I0
sS'pan.n.03'
p236
I0
sS'coca_cola.n.01'
p237
I0
sg215
I0
sS'capsicum.n.01'
p238
I0
sS'egg.n.02'
p239
I0
sS'egg.n.01'
p240
I0
sS'patty.n.01'
p241
I0
sS'spoon.n.01'
p242
I0
sS'rib.n.03'
p243
I0
sS'salt.n.02'
p244
I0
sS'banana.n.02'
p245
I0
sg216
I0
sS'plate.n.04'
p246
I0
sS'rib.n.01'
p247
I0
sg217
I0
sS'pepper.n.03'
p248
I0
sS'spread.n.05'
p249
I0
sS'steak.n.01'
p250
I0
sS'oven.n.01'
p251
I0
sS'microwave.n.02'
p252
I0
sg71
I0
sg68
I0
sS'mug.n.04'
p253
I0
sS'blender.n.01'
p254
I0
sS'salad.n.01'
p255
I0
sS'dressing.n.04'
p256
I0
sS'jam.n.01'
p257
I0
sS'put.v.01'
p258
I0
sS'dressing.n.01'
p259
I0
sS'electric_refrigerator.n.01'
p260
I0
sS'whipped_cream.n.01'
p261
I0
sS'cake.n.03'
p262
I0
sS'french_fries.n.01'
p263
I0
sg69
I0
sS'cherry.n.03'
p264
I0
sS'onion.n.01'
p265
I0
sS'dish.n.02'
p266
I0
ssg12
(dp267
g13
I5
sg51
I0
sg58
I0
sg56
I0
sg16
I0
sg27
I0
sg47
I0
sg62
I0
sg30
I0
sg24
I0
sg41
I0
sg40
I0
sg49
I0
sg21
I0
sg213
I0
sg12
I4
sg55
I0
sg63
I0
sg15
I0
sg53
I0
sg11
I0
sg59
I0
sg10
I0
sg45
I0
sg46
I0
sg14
I0
sg20
I0
sg31
I0
sg72
I0
sg64
I0
sg65
I0
sg33
I0
sg67
I0
sg60
I0
sg39
I0
sg61
I0
sg28
I0
sg44
I0
sg32
I0
sg66
I0
sg43
I0
sg22
I0
sg34
I0
sg35
I0
sg52
I0
sg54
I0
sg71
I0
sg23
I0
sg220
I0
sg57
I0
sg9
I0
sg38
I0
sg19
I0
sg18
I0
sg29
I0
sg8
I0
sg17
I0
sg37
I0
sg36
I0
sg48
I0
sS'cherry.n.01'
p268
I0
sg42
I0
sg25
I0
sg26
I0
sg50
I0
ssg55
(dp269
g51
I0
sg78
I0
sg58
I0
sg56
I0
sg125
I0
sg80
I0
sg81
I0
sg62
I0
sg70
I0
sg82
I0
sg83
I0
sg162
I0
sg84
I0
sg72
I0
sg85
I0
sg132
I0
sg53
I0
sg55
I9
sg63
I0
sg87
I0
sg88
I0
sg89
I0
sg59
I0
sg54
I0
sg91
I0
sg138
I0
sg52
I0
sg93
I0
sg94
I0
sg65
I0
sg95
I0
sg67
I0
sg60
I0
sg97
I0
sg61
I0
sg98
I0
sg144
I0
sg100
I0
sg66
I0
sg101
I0
sg102
I0
sg103
I0
sg104
I0
sg64
I0
sg105
I0
sg71
I0
sg106
I0
sg68
I0
sg57
I0
sg107
I0
sg108
I0
sg159
I0
sg152
I0
sg111
I0
sg112
I0
sg113
I0
sg114
I0
sg115
I0
sg116
I0
sg117
I0
sg69
I0
sg118
I0
sg119
I0
sg120
I0
sg121
I0
ssg63
(dp270
g171
I0
sg172
I0
sg173
I0
sg174
I0
sg175
I0
sg176
I0
sg62
I0
sg177
I0
sg178
I0
sg179
I0
sg180
I0
sg181
I0
sg182
I0
sg183
I0
sg63
I0
sg184
I0
sg185
I0
sg186
I0
sg187
I0
sg188
I0
sg92
I0
sg189
I0
sg190
I0
sg191
I0
sg65
I0
sg192
I0
sg67
I0
sg61
I0
sg193
I0
sg99
I0
sg66
I0
sg194
I0
sg195
I0
sg196
I0
sg197
I0
sg64
I0
sg106
I0
sg198
I0
sg199
I0
sg200
I0
sg201
I0
sg202
I0
sg203
I0
sg204
I0
sg205
I0
sg206
I0
sg207
I0
sg208
I0
ssg15
(dp271
g13
I0
sg51
I0
sg58
I0
sg56
I0
sg16
I0
sg27
I0
sg47
I0
sg62
I0
sg30
I0
sg24
I0
sg41
I0
sg40
I0
sg49
I0
sg21
I0
sg70
I0
sg12
I0
sg55
I0
sg63
I2
sg15
I16
sg53
I0
sg11
I0
sg59
I0
sg10
I0
sg45
I0
sg46
I0
sg14
I0
sg20
I0
sg31
I0
sg72
I0
sg64
I0
sg65
I0
sg33
I0
sg67
I0
sg60
I0
sg39
I0
sg61
I0
sg28
I0
sg44
I0
sg32
I0
sg66
I0
sg43
I0
sg22
I0
sg34
I0
sg35
I0
sg52
I0
sg54
I0
sg71
I0
sg23
I0
sg68
I0
sg57
I0
sg9
I0
sg38
I0
sg19
I0
sg18
I0
sg29
I0
sg8
I0
sg17
I0
sg37
I0
sg36
I0
sg48
I0
sg69
I0
sg42
I0
sg25
I0
sg26
I0
sg50
I0
ssg53
(dp272
g51
I0
sg78
I0
sg56
I0
sg79
I0
sg80
I0
sg81
I0
sg62
I0
sg82
I0
sg83
I0
sg84
I0
sg85
I0
sg86
I0
sg53
I0
sg55
I0
sg63
I0
sg87
I0
sg88
I0
sg89
I0
sg90
I0
sg54
I0
sg91
I0
sg92
I0
sg52
I0
sg93
I0
sg94
I0
sg65
I0
sg95
I0
sg67
I0
sg96
I0
sg97
I0
sg61
I0
sg98
I0
sg99
I0
sg100
I0
sg66
I0
sg101
I0
sg102
I0
sg103
I0
sg104
I0
sg64
I0
sg105
I0
sg106
I0
sg107
I0
sg108
I0
sg109
I0
sg110
I0
sg111
I0
sg112
I0
sg113
I0
sg114
I0
sg115
I0
sg116
I0
sg117
I0
sg268
I0
sg118
I0
sg119
I0
sg120
I0
sg121
I0
ssg11
(dp273
g13
I0
sg51
I0
sg56
I0
sg16
I0
sg27
I0
sg47
I0
sg62
I0
sg30
I0
sg24
I0
sg41
I0
sg40
I0
sg49
I0
sg21
I0
sg12
I0
sg55
I0
sg63
I0
sg15
I0
sg53
I0
sg11
I0
sg10
I0
sg45
I0
sg46
I0
sg14
I0
sg20
I0
sg31
I0
sg64
I0
sg65
I0
sg33
I0
sg67
I0
sg96
I0
sg39
I0
sg61
I0
sg28
I0
sg44
I0
sg32
I0
sg66
I0
sg43
I0
sg22
I0
sg34
I0
sg35
I0
sg52
I0
sg54
I0
sg23
I0
sg9
I0
sg38
I0
sg19
I0
sg18
I0
sg29
I0
sg8
I0
sg17
I0
sg37
I0
sg36
I0
sg48
I0
sg42
I0
sg25
I0
sg26
I0
sg50
I0
ssg59
(dp274
g123
I0
sS'plate.n.13'
p275
I0
sg58
I0
sg124
I0
sg125
I0
sg126
I0
sg127
I0
sg213
I0
sg128
I0
sg129
I0
sg162
I0
sg130
I0
sg72
I0
sg131
I0
sg132
I0
sg133
I0
sg134
I0
sg135
I0
sS'bowl.n.08'
p276
I0
sg142
I0
sg136
I0
sg137
I0
sg138
I0
sg139
I0
sg140
I0
sS'rib.n.03'
p277
I0
sS'gripe.n.01'
p278
I0
sg141
I0
sg60
I0
sg59
I0
sg216
I0
sg143
I0
sg144
I0
sS'rib.n.01'
p279
I0
sg217
I0
sg145
I0
sg146
I0
sg147
I0
sg148
I0
sg218
I0
sg219
I0
sg71
I0
sS'paste.n.03'
p280
I0
sg220
I0
sg57
I0
sg149
I0
sg150
I0
sg151
I0
sg152
I0
sg153
I0
sg154
I0
sg155
I0
sS'steak.n.01'
p281
I0
sg156
I0
sg157
I0
sg268
I0
sg158
I0
sg159
I0
sS'onion.n.03'
p282
I0
sg160
I0
ssg10
(dp283
g13
I0
sg51
I0
sg58
I0
sg56
I0
sg16
I0
sg27
I0
sg47
I0
sg62
I0
sg30
I0
sg24
I0
sg41
I0
sg40
I0
sg49
I0
sg21
I0
sg70
I0
sg12
I0
sg55
I0
sg63
I0
sg15
I0
sg53
I0
sg11
I4
sg59
I0
sg10
I14
sg45
I0
sg46
I0
sg14
I0
sg20
I0
sg31
I0
sg72
I0
sg64
I0
sg65
I0
sg33
I0
sg67
I0
sg60
I0
sg39
I0
sg61
I0
sg28
I0
sg44
I0
sg32
I0
sg66
I0
sg43
I0
sg22
I0
sg34
I0
sg35
I0
sg52
I0
sg54
I0
sg71
I0
sg23
I0
sg68
I0
sg57
I0
sg9
I0
sg38
I0
sg19
I0
sg18
I0
sg29
I0
sg8
I0
sg17
I0
sg37
I0
sg36
I0
sg48
I0
sg69
I0
sg42
I0
sg25
I0
sg26
I0
sg50
I0
ssg45
(dp284
g13
I0
sg51
I0
sg58
I0
sg56
I0
sg16
I0
sg27
I0
sg47
I0
sg62
I0
sg30
I0
sg24
I0
sg41
I0
sg40
I0
sg49
I0
sg21
I0
sg70
I0
sg12
I0
sg55
I0
sg63
I0
sg15
I0
sg53
I0
sg11
I0
sg59
I0
sg10
I0
sg45
I4
sg46
I5
sg14
I0
sg20
I0
sg31
I0
sg72
I0
sg64
I0
sg65
I0
sg33
I0
sg67
I0
sg60
I0
sg39
I0
sg61
I0
sg28
I0
sg44
I0
sg32
I0
sg66
I0
sg43
I0
sg22
I0
sg34
I0
sg35
I0
sg52
I0
sg54
I0
sg71
I0
sg23
I0
sg68
I0
sg57
I0
sg9
I0
sg38
I0
sg19
I0
sg18
I0
sg29
I0
sg8
I0
sg17
I0
sg37
I0
sg36
I0
sg48
I0
sg69
I0
sg42
I0
sg25
I0
sg26
I0
sg50
I0
ssg46
(dp285
g13
I0
sg171
I0
sg58
I0
sg153
I0
sg16
I0
sg27
I0
sg47
I0
sg62
I0
sg30
I0
sg24
I0
sg41
I0
sg40
I0
sg49
I0
sg21
I0
sg70
I0
sg12
I0
sg134
I0
sg63
I0
sg15
I0
sg182
I0
sg11
I0
sg59
I0
sg10
I0
sg45
I0
sg46
I0
sg14
I0
sg20
I0
sg31
I0
sg72
I0
sg65
I0
sg33
I0
sg67
I0
sg60
I0
sg39
I0
sg61
I0
sg28
I0
sg44
I0
sg32
I0
sg66
I0
sg43
I0
sg22
I0
sg34
I0
sg35
I0
sg64
I0
sg238
I0
sg23
I0
sg68
I0
sg57
I0
sg9
I0
sg38
I0
sg19
I0
sg18
I0
sg29
I0
sg8
I0
sg17
I0
sg37
I0
sg36
I0
sg48
I0
sg241
I0
sg69
I0
sg42
I0
sg25
I0
sg26
I0
sg50
I0
ssg14
(dp286
g13
I0
sg51
I0
sg58
I0
sg56
I0
sg16
I0
sg27
I0
sg47
I0
sg62
I0
sg30
I0
sg24
I0
sg41
I0
sg40
I0
sg49
I0
sg21
I0
sg213
I0
sg12
I0
sg55
I0
sg63
I0
sg15
I0
sg53
I0
sg11
I0
sg59
I0
sg10
I0
sg45
I0
sg46
I0
sg14
I9
sg20
I0
sg31
I0
sg72
I0
sg64
I0
sg65
I0
sg33
I0
sg67
I0
sg60
I0
sg39
I0
sg61
I0
sg28
I0
sg44
I0
sg32
I0
sg66
I0
sg43
I0
sg22
I0
sg34
I0
sg35
I0
sg52
I0
sg54
I0
sg71
I0
sg23
I0
sg220
I0
sg57
I0
sg9
I0
sg38
I0
sg19
I0
sg18
I0
sg29
I0
sg8
I0
sg17
I0
sg37
I0
sg36
I0
sg48
I0
sg268
I0
sg42
I0
sg25
I0
sg26
I0
sg50
I0
ssg20
(dp287
g13
I0
sg51
I0
sg58
I0
sg56
I0
sg16
I0
sg27
I0
sg47
I0
sg62
I0
sg30
I0
sg24
I0
sg41
I0
sg40
I0
sg49
I0
sg21
I0
sg70
I0
sg12
I0
sg55
I0
sg63
I0
sg15
I0
sg53
I0
sg11
I0
sg59
I0
sg10
I0
sg45
I0
sg46
I0
sg14
I0
sg20
I9
sg31
I0
sg72
I0
sg64
I0
sg65
I0
sg33
I0
sg67
I0
sg60
I0
sg39
I0
sg61
I0
sg28
I0
sg44
I0
sg32
I0
sg66
I0
sg43
I0
sg22
I0
sg34
I0
sg35
I0
sg52
I0
sg54
I0
sg71
I0
sg23
I0
sg68
I0
sg57
I0
sg9
I0
sg38
I0
sg19
I0
sg18
I0
sg29
I0
sg8
I0
sg17
I0
sg37
I0
sg36
I0
sg48
I0
sg69
I0
sg42
I0
sg25
I0
sg26
I0
sg50
I0
ssg31
(dp288
g13
I0
sg51
I0
sg56
I0
sg16
I0
sg27
I0
sg47
I0
sg62
I0
sg30
I0
sg24
I0
sg41
I0
sg40
I0
sg49
I0
sg21
I0
sg70
I0
sg12
I0
sg55
I0
sg63
I0
sg15
I0
sg53
I0
sg11
I0
sg215
I0
sg10
I0
sg45
I0
sg46
I0
sg14
I0
sg20
I0
sg28
I0
sg72
I0
sg64
I0
sg65
I0
sg33
I0
sg67
I0
sg96
I0
sg39
I0
sg61
I0
sg31
I0
sg44
I0
sg32
I6
sg66
I3
sg43
I0
sg22
I0
sg34
I0
sg35
I0
sg52
I0
sg54
I0
sg71
I0
sg23
I0
sg68
I0
sS'stadium.n.01'
p289
I0
sg9
I0
sg38
I0
sg19
I0
sg18
I0
sg29
I0
sg8
I0
sg17
I0
sg37
I0
sg36
I0
sg48
I0
sg69
I0
sg42
I0
sg25
I0
sg26
I0
sg50
I0
ssg72
(dp290
g72
I0
sS'chicken.n.01'
p291
I0
sS'beef.n.02'
p292
I0
sS'jam.n.01'
p293
I0
sS'refrigerator.n.01'
p294
I0
sS'bread.n.01'
p295
I0
sS'bowl.n.01'
p296
I0
sS'dish.n.02'
p297
I0
sS'dressing.n.01'
p298
I0
sS'salmon.n.03'
p299
I0
sS'pan.n.03'
p300
I0
sS'coca_cola.n.01'
p301
I0
sS'banana.n.02'
p302
I0
sS'microwave.n.02'
p303
I0
sS'egg.n.02'
p304
I0
sS'egg.n.01'
p305
I0
sS'electric_refrigerator.n.01'
p306
I0
sS'spoon.n.01'
p307
I0
sS'rib.n.03'
p308
I0
sS'salt.n.02'
p309
I0
sS'plate.n.08'
p310
I0
sS'countenance.n.03'
p311
I0
sS'plate.n.04'
p312
I0
sS'pepper.n.04'
p313
I0
sS'rib.n.06'
p314
I0
sS'pepper.n.03'
p315
I0
sS'spread.n.05'
p316
I0
sS'steak.n.01'
p317
I0
sS'oven.n.01'
p318
I0
sS'patty.n.01'
p319
I0
sg289
I0
sS'mug.n.04'
p320
I0
sS'blender.n.01'
p321
I0
sS'onion.n.01'
p322
I0
sS'dressing.n.04'
p323
I0
sS'rice.n.01'
p324
I0
sS'put.v.01'
p325
I0
sS'pizza.n.01'
p326
I0
sS'whipped_cream.n.01'
p327
I0
sS'cake.n.03'
p328
I0
sS'cherry.n.03'
p329
I0
sS'salad.n.01'
p330
I0
sg282
I0
sS'batter.n.02'
p331
I0
ssg64
(dp332
g171
I0
sg172
I0
sg173
I0
sg174
I0
sg175
I0
sg176
I0
sg62
I0
sg177
I0
sg178
I0
sg179
I0
sg180
I0
sg181
I0
sg182
I0
sg183
I0
sg63
I0
sg184
I0
sg185
I0
sg186
I0
sg90
I0
sg187
I0
sg188
I0
sg92
I0
sg189
I0
sg190
I0
sg191
I0
sg65
I0
sg192
I0
sg67
I0
sS'plate.n.08'
p333
I0
sS'banana.n.02'
p334
I0
sg61
I0
sg193
I0
sg99
I0
sS'rib.n.01'
p335
I0
sg66
I0
sg194
I0
sg195
I0
sg196
I0
sg197
I0
sg64
I0
sS'capsicum.n.01'
p336
I0
sg106
I0
sg198
I0
sS'blender.n.01'
p337
I0
sg199
I0
sg200
I0
sg201
I0
sg202
I0
sg203
I0
sS'whipped_cream.n.01'
p338
I0
sS'cake.n.03'
p339
I0
sg204
I0
sS'patty.n.01'
p340
I0
sg268
I0
sg205
I0
sg206
I0
sg207
I0
sg208
I0
ssg65
(dp341
g171
I0
sg172
I0
sg173
I0
sg174
I0
sg175
I0
sg176
I0
sg62
I0
sg177
I0
sg178
I0
sg179
I0
sg180
I0
sg181
I0
sg182
I0
sg183
I0
sg63
I0
sg184
I0
sg185
I0
sg186
I0
sg187
I0
sg188
I0
sg92
I0
sg189
I0
sg190
I0
sg191
I0
sg65
I0
sg192
I0
sg67
I0
sg61
I0
sg193
I0
sg99
I0
sg66
I0
sg194
I0
sg195
I0
sg196
I0
sg197
I0
sg64
I0
sg106
I0
sg198
I0
sg199
I0
sg200
I0
sg201
I0
sg202
I0
sg203
I0
sg204
I0
sg205
I0
sg206
I0
sg207
I0
sg208
I0
ssg33
(dp342
g13
I0
sg51
I0
sg58
I0
sg56
I0
sg16
I0
sg27
I0
sg47
I0
sg62
I0
sg30
I0
sg24
I0
sg41
I0
sg40
I0
sg49
I0
sg21
I0
sg70
I0
sg12
I0
sg55
I0
sg63
I0
sg15
I0
sg53
I0
sg11
I0
sg59
I0
sg10
I0
sg45
I0
sg46
I0
sg14
I0
sg20
I0
sg31
I0
sg72
I0
sg64
I0
sg65
I0
sg33
I14
sg67
I1
sg60
I0
sg39
I0
sg61
I3
sg28
I0
sg44
I0
sg32
I0
sg66
I0
sg43
I0
sg22
I0
sg34
I0
sg35
I0
sg52
I0
sg54
I0
sg71
I0
sg23
I0
sg68
I0
sg57
I0
sg9
I0
sg38
I0
sg19
I0
sg18
I0
sg29
I0
sg8
I0
sg17
I0
sg37
I0
sg36
I0
sg48
I0
sg69
I0
sg42
I0
sg25
I0
sg26
I0
sg50
I0
ssg67
(dp343
g171
I0
sg172
I0
sg173
I0
sg174
I0
sg175
I0
sg176
I0
sg62
I0
sg177
I0
sg178
I0
sg179
I0
sg180
I0
sg181
I0
sg182
I0
sg183
I0
sg63
I0
sg184
I0
sg185
I0
sg186
I0
sg187
I0
sg188
I0
sg92
I0
sg189
I0
sg190
I0
sg191
I0
sg65
I0
sg192
I0
sg67
I0
sg61
I0
sg193
I0
sg99
I0
sg66
I0
sg194
I0
sg195
I0
sg196
I0
sg197
I0
sg64
I0
sg106
I0
sg198
I0
sg199
I0
sg200
I0
sg201
I0
sg202
I0
sg203
I0
sg204
I0
sg205
I0
sg206
I0
sg207
I0
sg208
I0
ssg60
(dp344
g123
I0
sg164
I0
sg58
I0
sg124
I0
sg125
I0
sg126
I0
sg127
I0
sg128
I0
sg129
I0
sg130
I0
sg72
I0
sg131
I0
sg132
I0
sg133
I0
sg134
I0
sg135
I0
sg165
I0
sS'microwave.n.01'
p345
I0
sg59
I0
sg136
I0
sg137
I0
sg138
I0
sg139
I0
sg140
I0
sS'rib.n.03'
p346
I0
sg278
I0
sg141
I0
sg60
I0
sg142
I0
sS'salt.n.04'
p347
I0
sg143
I0
sg144
I0
sS'rib.n.01'
p348
I0
sg314
I0
sg145
I0
sg146
I0
sg147
I0
sg148
I0
sg166
I0
sg167
I0
sg280
I0
sg57
I0
sg149
I0
sg150
I0
sg151
I0
sg152
I0
sg153
I0
sg154
I0
sg155
I0
sS'steak.n.01'
p349
I0
sg156
I0
sg157
I0
sg268
I0
sg158
I0
sg159
I0
sg282
I0
sg160
I0
ssg39
(dp350
g13
I0
sg51
I0
sg58
I0
sg56
I0
sg16
I0
sg27
I0
sg47
I0
sg30
I0
sg24
I0
sg41
I0
sg40
I0
sg49
I0
sg21
I0
sg70
I0
sg12
I0
sg55
I0
sg15
I0
sg53
I0
sg11
I0
sg59
I0
sg10
I0
sg45
I0
sg46
I0
sg14
I0
sg20
I0
sg31
I0
sg72
I0
sS'gripe.n.01'
p351
I0
sg33
I0
sg60
I0
sg39
I9
sg216
I0
sg28
I0
sg44
I0
sg32
I0
sg217
I0
sg43
I0
sg22
I0
sg34
I0
sg35
I0
sg52
I0
sg54
I0
sg71
I0
sg23
I0
sg68
I0
sg57
I0
sg9
I0
sg38
I0
sg19
I0
sg18
I0
sg29
I0
sg8
I0
sg17
I0
sg37
I0
sg36
I0
sg48
I0
sg69
I0
sg42
I0
sg25
I0
sg26
I0
sg50
I0
ssg61
(dp352
g171
I0
sg172
I0
sg173
I0
sg174
I0
sg175
I0
sg176
I0
sg62
I0
sg213
I0
sg177
I0
sg178
I0
sg162
I0
sg179
I0
sg180
I0
sg181
I0
sg182
I0
sg183
I0
sg63
I0
sg184
I0
sg185
I0
sg186
I0
sg215
I0
sg187
I0
sg188
I0
sg92
I0
sg189
I0
sg190
I0
sg191
I0
sg65
I0
sg192
I0
sg67
I0
sg333
I0
sS'banana.n.02'
p353
I0
sg61
I0
sg193
I0
sg99
I0
sg279
I0
sg66
I0
sg194
I0
sg195
I0
sg196
I0
sg197
I0
sg64
I0
sg219
I0
sg71
I0
sg106
I0
sg220
I0
sg198
I0
sS'blender.n.01'
p354
I0
sg199
I0
sg200
I0
sg201
I0
sg202
I0
sg203
I0
sS'whipped_cream.n.01'
p355
I0
sS'cake.n.03'
p356
I0
sg204
I0
sg218
I0
sg268
I0
sg205
I0
sg206
I0
sg207
I0
sg208
I0
ssg28
(dp357
g13
I0
sg51
I9
sg58
I1
sg56
I0
sg16
I0
sg27
I0
sg47
I0
sg62
I0
sg30
I0
sg24
I0
sg41
I0
sg40
I0
sg49
I0
sg21
I0
sg70
I0
sg12
I0
sg55
I0
sg63
I0
sg15
I0
sg53
I0
sg11
I0
sg59
I0
sg10
I0
sg45
I0
sg46
I0
sg14
I0
sg20
I0
sg31
I0
sg72
I1
sg64
I0
sg65
I1
sg33
I0
sg67
I0
sg60
I4
sg39
I0
sg61
I0
sg28
I2
sg44
I0
sg32
I0
sg66
I0
sg43
I0
sg22
I0
sg34
I0
sg35
I0
sg52
I0
sg54
I0
sg71
I0
sg23
I0
sg68
I0
sg57
I0
sg9
I0
sg38
I0
sg19
I0
sg18
I0
sg29
I0
sg8
I0
sg17
I0
sg37
I0
sg36
I0
sg48
I0
sg69
I0
sg42
I0
sg25
I0
sg26
I0
sg50
I0
ssg44
(dp358
g13
I0
sg171
I0
sg58
I0
sg153
I0
sg16
I0
sg27
I0
sg47
I0
sg62
I0
sg30
I0
sg24
I0
sg41
I0
sg40
I0
sg49
I0
sg21
I0
sg12
I0
sg134
I0
sg63
I0
sg15
I0
sg182
I0
sg11
I0
sg59
I0
sg10
I0
sg45
I0
sg46
I0
sg14
I0
sg20
I0
sg31
I0
sg72
I0
sg65
I0
sg33
I0
sg67
I0
sg60
I0
sg39
I0
sg61
I0
sg28
I0
sg44
I0
sg32
I0
sg66
I0
sg43
I0
sg22
I0
sg34
I0
sg35
I0
sg64
I0
sg23
I0
sg57
I0
sg9
I0
sg38
I0
sg19
I0
sg18
I0
sg29
I0
sg8
I0
sg17
I0
sg37
I0
sg36
I0
sg48
I0
sg319
I0
sg42
I0
sg25
I0
sg26
I0
sg50
I0
ssg32
(dp359
g13
I0
sg51
I0
sg56
I0
sg16
I0
sg27
I0
sg47
I0
sg30
I0
sg24
I0
sg41
I0
sg40
I0
sg49
I0
sg21
I0
sg70
I0
sg12
I0
sg55
I0
sg15
I0
sg53
I0
sg11
I0
sg90
I0
sg10
I0
sg45
I0
sg46
I0
sg14
I0
sg20
I0
sg31
I0
sg351
I0
sg33
I0
sg96
I0
sg39
I0
sg347
I0
sg28
I0
sg44
I0
sg32
I0
sg43
I0
sg22
I0
sg34
I0
sg35
I0
sg52
I0
sg54
I0
sg23
I0
sg68
I0
sg9
I0
sg38
I0
sg19
I0
sg18
I0
sg29
I0
sg8
I0
sg17
I0
sg37
I0
sg36
I0
sg48
I0
sg69
I0
sg42
I0
sg25
I0
sg26
I0
sg50
I0
ssg66
(dp360
g171
I0
sg172
I0
sg173
I0
sg174
I0
sg175
I0
sg176
I0
sg62
I0
sg213
I0
sg177
I0
sg178
I0
sg162
I0
sg179
I0
sg72
I0
sg180
I0
sg181
I0
sg182
I0
sg183
I0
sg63
I0
sg184
I0
sg185
I0
sg186
I0
sg215
I0
sg187
I0
sg188
I0
sg92
I0
sg189
I0
sg190
I0
sg191
I0
sg65
I0
sg192
I0
sg67
I0
sg310
I0
sg353
I0
sg61
I0
sg193
I0
sg99
I0
sg66
I0
sg194
I0
sg195
I0
sg196
I0
sg197
I0
sg64
I0
sg219
I0
sg71
I0
sg106
I0
sg220
I0
sg289
I0
sg198
I0
sg354
I0
sg199
I0
sg200
I0
sg201
I0
sg202
I0
sg203
I0
sg355
I0
sg356
I0
sg204
I0
sg218
I0
sg205
I0
sg206
I0
sg207
I0
sg208
I0
ssg43
(dp361
g13
I0
sg51
I0
sg58
I0
sg56
I0
sg16
I0
sg27
I0
sg47
I0
sg62
I0
sg30
I0
sg24
I0
sg41
I0
sg40
I0
sg49
I0
sg21
I0
sg70
I0
sg12
I0
sg55
I0
sg63
I0
sg15
I0
sg53
I0
sg11
I0
sg59
I0
sg10
I0
sg45
I0
sg46
I0
sg14
I0
sg20
I0
sg31
I0
sg72
I0
sg64
I0
sg65
I0
sg33
I0
sg67
I0
sg60
I0
sg39
I0
sg61
I0
sg28
I0
sg44
I4
sg32
I0
sg66
I0
sg43
I0
sg22
I0
sg34
I0
sg35
I0
sg52
I0
sg54
I5
sg71
I0
sg23
I0
sg68
I0
sg57
I0
sg9
I0
sg38
I0
sg19
I0
sg18
I0
sg29
I0
sg8
I0
sg17
I0
sg37
I0
sg36
I0
sg48
I0
sg69
I0
sg42
I0
sg25
I0
sg26
I0
sg50
I0
ssg22
(dp362
g13
I0
sg51
I0
sg58
I0
sg56
I0
sg16
I0
sg27
I0
sg47
I0
sg62
I0
sg30
I0
sg24
I0
sg41
I0
sg40
I0
sg49
I0
sg21
I0
sg70
I0
sg12
I0
sg55
I0
sg63
I0
sg15
I0
sg53
I0
sg11
I0
sg59
I0
sg10
I0
sg45
I0
sg46
I0
sg14
I0
sg20
I0
sg31
I0
sg72
I0
sg64
I0
sg65
I0
sg33
I0
sg67
I0
sg60
I0
sg39
I0
sg61
I0
sg28
I0
sg44
I0
sg32
I0
sg66
I0
sg43
I0
sg22
I4
sg34
I0
sg35
I0
sg52
I0
sg54
I0
sg71
I0
sg23
I3
sg68
I2
sg57
I0
sg9
I0
sg38
I0
sg19
I0
sg18
I0
sg29
I0
sg8
I0
sg17
I0
sg37
I0
sg36
I0
sg48
I0
sg69
I0
sg42
I0
sg25
I0
sg26
I0
sg50
I0
ssg34
(dp363
g13
I0
sg51
I0
sg56
I0
sg16
I0
sg27
I0
sg47
I0
sg62
I0
sg30
I0
sg24
I0
sg41
I0
sg40
I0
sg49
I0
sg21
I0
sg70
I0
sg12
I0
sg55
I0
sg63
I0
sg15
I0
sg53
I0
sg11
I0
sg215
I0
sg10
I0
sg45
I0
sg46
I0
sg14
I0
sg20
I0
sg31
I0
sg72
I0
sg64
I0
sg65
I0
sg33
I0
sg67
I0
sg96
I0
sg39
I0
sg61
I0
sg28
I0
sg44
I0
sg32
I0
sg66
I0
sg43
I0
sg22
I0
sg34
I9
sg35
I0
sg52
I0
sg54
I0
sg71
I0
sg23
I0
sg68
I0
sg289
I0
sg9
I0
sg38
I0
sg19
I0
sg18
I0
sg29
I0
sg8
I0
sg17
I0
sg37
I0
sg36
I0
sg48
I0
sg69
I0
sg42
I0
sg25
I0
sg26
I0
sg50
I0
ssg35
(dp364
g13
I0
sg51
I0
sg58
I0
sg56
I0
sg16
I0
sg27
I0
sg47
I0
sg62
I0
sg30
I0
sg24
I0
sg41
I0
sg40
I0
sg49
I0
sg21
I0
sg70
I0
sg12
I0
sg55
I0
sg63
I0
sg15
I0
sg53
I0
sg11
I0
sg59
I0
sg10
I0
sg45
I0
sg46
I0
sg14
I0
sg20
I0
sg31
I0
sg72
I0
sg64
I0
sg65
I0
sg33
I0
sg67
I0
sg60
I0
sg39
I0
sg61
I0
sg28
I0
sg44
I0
sg32
I0
sg66
I0
sg43
I0
sg22
I0
sg34
I0
sg35
I18
sg52
I0
sg54
I0
sg71
I0
sg23
I0
sg68
I0
sg57
I0
sg9
I0
sg38
I0
sg19
I0
sg18
I0
sg29
I0
sg8
I0
sg17
I0
sg37
I0
sg36
I0
sg48
I0
sg69
I0
sg42
I0
sg25
I0
sg26
I0
sg50
I0
ssg52
(dp365
g51
I0
sg78
I0
sg56
I0
sg79
I0
sg80
I0
sg81
I0
sg70
I0
sg82
I0
sg83
I0
sg162
I0
sg84
I0
sg72
I0
sg85
I0
sg86
I0
sg53
I0
sg55
I0
sg87
I0
sg88
I0
sg89
I0
sg215
I0
sg54
I0
sg91
I0
sg240
I0
sg52
I0
sg93
I0
sg94
I0
sg95
I0
sg96
I0
sg97
I0
sg216
I0
sg98
I0
sg313
I0
sg100
I0
sg217
I0
sg101
I0
sg102
I0
sg103
I0
sg104
I0
sg351
I0
sg105
I0
sg71
I0
sg280
I0
sg68
I0
sg289
I0
sg107
I0
sg108
I0
sg109
I0
sg110
I0
sg111
I0
sg112
I0
sg113
I0
sg114
I0
sg115
I0
sg116
I0
sg117
I0
sg69
I0
sg118
I0
sg119
I0
sg120
I0
sg121
I0
ssg54
(dp366
g51
I0
sg78
I0
sg56
I0
sg79
I0
sg80
I0
sg81
I0
sg70
I0
sg82
I0
sg83
I0
sg162
I0
sg84
I0
sg85
I0
sg86
I0
sg53
I0
sg55
I0
sg87
I0
sg88
I0
sg89
I0
sg215
I0
sg105
I0
sg91
I0
sg240
I0
sg52
I0
sg93
I0
sg54
I0
sg95
I0
sg96
I0
sg97
I0
sg216
I0
sg98
I0
sg100
I0
sg217
I0
sg101
I0
sg102
I0
sg103
I0
sg104
I0
sg278
I0
sg71
I0
sg280
I0
sg68
I0
sg107
I0
sg108
I0
sg94
I0
sg109
I0
sg110
I0
sg111
I0
sg112
I0
sg113
I0
sg114
I0
sg115
I0
sg116
I0
sg117
I0
sg69
I0
sg118
I0
sg119
I0
sg120
I0
sg121
I0
ssg71
(dp367
S'chicken.n.01'
p368
I0
sS'soup.n.01'
p369
I0
sS'bread.n.01'
p370
I0
sg162
I0
sS'bowl.n.01'
p371
I0
sS'dish.n.02'
p372
I0
sg213
I0
sg237
I0
sg214
I0
sS'dressing.n.01'
p373
I0
sS'pan.n.03'
p374
I0
sg215
I0
sS'microwave.n.02'
p375
I0
sS'egg.n.02'
p376
I0
sg218
I0
sS'spoon.n.01'
p377
I0
sg219
I0
sS'plate.n.04'
p378
I0
sS'salt.n.02'
p379
I0
sg353
I0
sg216
I0
sg277
I0
sg217
I0
sS'pepper.n.03'
p380
I0
sg71
I0
sg355
I0
sS'oven.n.01'
p381
I0
sS'spread.n.05'
p382
I0
sg220
I0
sg253
I0
sg354
I0
sS'dressing.n.04'
p383
I0
sg212
I0
sS'put.v.01'
p384
I0
sS'pizza.n.01'
p385
I0
sg260
I0
sg281
I0
sg356
I0
sS'french_fries.n.01'
p386
I0
sS'cherry.n.03'
p387
I0
sS'salad.n.01'
p388
I0
sS'batter.n.02'
p389
I0
ssg23
(dp390
g13
I0
sg171
I0
sg201
I0
sg16
I0
sg27
I0
sg47
I0
sg62
I0
sg30
I0
sg24
I0
sg41
I0
sg40
I0
sg49
I0
sg21
I0
sg12
I0
sg183
I0
sg63
I0
sg15
I0
sg182
I0
sg11
I0
sg90
I0
sg10
I0
sg45
I0
sg46
I0
sg14
I0
sg20
I0
sg31
I0
sg65
I0
sg33
I0
sg67
I0
sg333
I0
sg39
I0
sg61
I0
sg28
I0
sg44
I0
sg32
I0
sg66
I0
sg43
I0
sg22
I0
sg34
I0
sg35
I0
sg64
I0
sg336
I0
sg23
I0
sg9
I0
sg38
I0
sg25
I0
sg18
I0
sg29
I0
sg8
I0
sg17
I0
sg37
I0
sg36
I0
sg48
I0
sS'patty.n.01'
p391
I0
sg268
I0
sg42
I0
sg19
I0
sg26
I0
sg50
I0
ssg68
(dp392
g225
I0
sg226
I0
sg227
I0
sg228
I0
sg229
I0
sg230
I0
sg231
I0
sg162
I0
sg232
I0
sg233
I0
sg70
I0
sg234
I0
sg235
I0
sg236
I0
sg237
I0
sg215
I0
sg238
I0
sg239
I0
sg240
I0
sg241
I0
sg242
I0
sg243
I0
sg244
I0
sg245
I0
sg216
I0
sg246
I0
sg247
I0
sg217
I0
sg248
I0
sg249
I0
sg250
I0
sg251
I0
sg252
I0
sg71
I0
sg68
I0
sg253
I0
sg254
I0
sg255
I0
sg256
I0
sg257
I0
sg258
I0
sg259
I0
sg260
I0
sg261
I0
sg262
I0
sg263
I0
sg69
I0
sg264
I0
sg265
I0
sg266
I0
ssg57
(dp393
g123
I0
sg58
I0
sg124
I0
sg125
I0
sg126
I0
sg127
I0
sg128
I0
sg129
I0
sg130
I0
sg72
I0
sg131
I0
sg132
I0
sg133
I0
sg134
I0
sg135
I0
sg59
I0
sg136
I0
sg137
I0
sg138
I0
sg139
I0
sg140
I0
sg308
I0
sg141
I0
sg60
I0
sg142
I0
sg143
I0
sg144
I0
sg314
I0
sg145
I0
sg146
I0
sg147
I0
sg148
I0
sg319
I0
sg57
I0
sg149
I0
sg150
I0
sg151
I0
sg152
I0
sg153
I0
sg154
I0
sg155
I0
sg317
I0
sg156
I0
sg157
I0
sg158
I0
sg159
I0
sg282
I0
sg160
I0
ssg9
(dp394
g13
I0
sg51
I0
sg58
I0
sg56
I0
sg16
I0
sg27
I0
sg47
I0
sg62
I0
sg30
I0
sg24
I0
sg41
I0
sg40
I0
sg49
I0
sg21
I0
sg213
I0
sg12
I0
sg55
I0
sg63
I0
sg15
I0
sg53
I0
sg11
I0
sg59
I4
sg10
I0
sg45
I0
sg46
I0
sg14
I0
sg20
I0
sg31
I0
sg72
I0
sg64
I0
sg65
I0
sg33
I0
sg67
I0
sg60
I0
sg39
I0
sg61
I0
sg28
I0
sg44
I0
sg32
I0
sg66
I0
sg43
I0
sg22
I0
sg34
I0
sg35
I0
sg52
I0
sg54
I0
sg71
I0
sg23
I0
sg220
I0
sg57
I0
sg9
I5
sg38
I0
sg19
I0
sg18
I0
sg29
I0
sg8
I0
sg17
I0
sg37
I0
sg36
I0
sg48
I0
sg268
I0
sg42
I0
sg25
I0
sg26
I0
sg50
I0
ssg38
(dp395
g13
I0
sg51
I0
sg58
I0
sg56
I0
sg16
I0
sg27
I0
sg47
I0
sg30
I0
sg24
I0
sg41
I0
sg40
I0
sg49
I0
sg21
I0
sg70
I0
sg12
I0
sg55
I0
sg15
I0
sg53
I0
sg11
I0
sg59
I0
sg10
I0
sg45
I0
sg46
I0
sg14
I0
sg20
I0
sg31
I0
sg72
I0
sg351
I0
sg33
I0
sg60
I0
sg39
I0
sg216
I0
sg28
I0
sg44
I0
sg32
I0
sg217
I0
sg43
I0
sg22
I0
sg34
I0
sg35
I0
sg52
I0
sg54
I0
sg71
I0
sg23
I0
sg68
I0
sg57
I0
sg9
I0
sg38
I9
sg19
I0
sg18
I0
sg29
I0
sg8
I0
sg17
I0
sg37
I0
sg36
I0
sg48
I0
sg69
I0
sg42
I0
sg25
I0
sg26
I0
sg50
I0
ssg19
(dp396
g13
I0
sg164
I0
sg58
I0
sg153
I0
sg16
I0
sg27
I0
sg47
I0
sg62
I0
sg30
I0
sg24
I0
sg41
I0
sg40
I0
sg49
I0
sg21
I0
sg70
I0
sg12
I0
sg134
I0
sg63
I0
sg15
I0
sg165
I0
sg11
I0
sg59
I0
sg10
I0
sg45
I0
sg46
I0
sg14
I0
sg20
I0
sg31
I0
sg72
I0
sg64
I0
sg65
I0
sg33
I0
sg67
I0
sg60
I0
sg39
I0
sg61
I0
sg28
I0
sg44
I0
sg32
I0
sg66
I0
sg43
I0
sg22
I0
sg34
I0
sg35
I0
sg166
I0
sg167
I0
sg71
I0
sg23
I0
sg68
I0
sg57
I0
sg9
I0
sg38
I0
sg19
I9
sg18
I0
sg29
I0
sg8
I0
sg17
I0
sg37
I0
sg36
I0
sg48
I0
sg69
I0
sg42
I0
sg25
I0
sg26
I0
sg50
I0
ssg18
(dp397
g13
I0
sg164
I0
sg58
I0
sg153
I0
sg16
I0
sg27
I0
sg47
I0
sg62
I0
sg30
I0
sg24
I0
sg41
I0
sg40
I0
sg49
I0
sg21
I0
sg70
I0
sg12
I0
sg134
I0
sg63
I0
sg15
I0
sg165
I0
sg11
I0
sg59
I0
sg10
I0
sg45
I0
sg46
I0
sg14
I0
sg20
I0
sg31
I0
sg72
I0
sg64
I0
sg65
I0
sg33
I0
sg67
I0
sg60
I0
sg39
I0
sg61
I0
sg28
I0
sg44
I0
sg32
I0
sg66
I0
sg43
I0
sg22
I0
sg34
I0
sg35
I0
sg166
I0
sg167
I0
sg71
I0
sg23
I0
sg68
I0
sg57
I0
sg9
I0
sg38
I0
sg19
I0
sg18
I0
sg29
I0
sg8
I0
sg17
I0
sg37
I0
sg36
I0
sg48
I0
sg69
I0
sg42
I0
sg25
I0
sg26
I0
sg50
I0
ssg29
(dp398
g13
I0
sg51
I0
sg58
I0
sg56
I0
sg16
I0
sg27
I0
sg47
I0
sg62
I0
sg30
I0
sg24
I0
sg41
I0
sg40
I0
sg49
I0
sg21
I0
sg70
I0
sg12
I0
sg55
I0
sg63
I0
sg15
I0
sg53
I0
sg11
I0
sg59
I0
sg10
I0
sg45
I0
sg46
I0
sg14
I0
sg20
I0
sg31
I0
sg72
I0
sg64
I0
sg65
I0
sg33
I0
sg67
I0
sg60
I0
sg39
I0
sg61
I0
sg28
I0
sg44
I0
sg32
I0
sg66
I0
sg43
I0
sg22
I0
sg34
I0
sg35
I0
sg52
I0
sg54
I0
sg23
I0
sg68
I0
sg57
I0
sg9
I0
sg38
I0
sg19
I0
sg18
I0
sg29
I9
sg8
I0
sg17
I0
sg37
I0
sg36
I0
sg48
I0
sg69
I0
sg42
I0
sg25
I0
sg26
I0
sg50
I0
ssg8
(dp399
g13
I0
sg51
I0
sg58
I0
sg56
I0
sg16
I0
sg27
I0
sg47
I0
sg62
I0
sg30
I0
sg24
I0
sg41
I0
sg40
I0
sg49
I0
sg21
I0
sg70
I0
sg12
I0
sg55
I0
sg63
I0
sg15
I0
sg53
I0
sg11
I0
sg59
I0
sg10
I0
sg45
I0
sg46
I0
sg14
I0
sg20
I0
sg31
I0
sg72
I0
sg64
I0
sg65
I0
sg33
I0
sg67
I0
sg60
I0
sg39
I0
sg61
I0
sg28
I0
sg44
I0
sg32
I0
sg66
I0
sg43
I0
sg22
I0
sg34
I0
sg35
I0
sg52
I0
sg54
I0
sg71
I0
sg23
I0
sg68
I0
sg57
I0
sg9
I0
sg38
I0
sg19
I0
sg18
I0
sg29
I0
sg8
I180
sg17
I0
sg37
I0
sg36
I0
sg48
I0
sg69
I0
sg42
I0
sg25
I0
sg26
I0
sg50
I0
ssg17
(dp400
g13
I0
sg164
I0
sg58
I0
sg153
I0
sg16
I0
sg27
I0
sg47
I0
sg62
I0
sg30
I0
sg24
I0
sg41
I0
sg40
I0
sg49
I0
sg21
I0
sg70
I0
sg12
I0
sg134
I0
sg63
I0
sg15
I0
sg165
I0
sg11
I0
sg59
I0
sg10
I0
sg45
I0
sg46
I0
sg14
I0
sg20
I0
sg31
I0
sg72
I0
sg64
I0
sg65
I0
sg33
I0
sg67
I0
sg60
I0
sg39
I0
sg61
I0
sg28
I0
sg44
I0
sg32
I0
sg66
I0
sg43
I0
sg22
I0
sg34
I0
sg35
I0
sg166
I0
sg167
I0
sg71
I0
sg23
I0
sg68
I0
sg57
I0
sg9
I0
sg38
I0
sg19
I0
sg18
I9
sg29
I0
sg8
I0
sg17
I0
sg37
I0
sg36
I0
sg48
I0
sg69
I0
sg42
I0
sg25
I0
sg26
I0
sg50
I0
ssg37
(dp401
g13
I0
sg51
I0
sg58
I0
sg56
I0
sg16
I0
sg27
I0
sg47
I0
sg30
I0
sg24
I0
sg41
I0
sg40
I0
sg49
I0
sg21
I0
sg70
I0
sg12
I0
sg55
I0
sg15
I0
sg53
I0
sg11
I0
sg59
I0
sg10
I0
sg45
I0
sg46
I0
sg14
I0
sg20
I0
sg31
I0
sg72
I0
sg351
I0
sg33
I0
sg60
I0
sg39
I0
sg216
I0
sg28
I0
sg44
I0
sg32
I0
sg217
I0
sg43
I0
sg22
I0
sg37
I9
sg35
I0
sg52
I0
sg54
I0
sg71
I0
sg23
I0
sg68
I0
sg57
I0
sg9
I0
sg38
I0
sg19
I0
sg18
I0
sg29
I0
sg8
I0
sg17
I0
sg34
I0
sg36
I0
sg48
I0
sg69
I0
sg42
I0
sg25
I0
sg26
I0
sg50
I0
ssg36
(dp402
g13
I0
sg51
I0
sg58
I0
sg56
I0
sg16
I0
sg27
I0
sg47
I0
sg30
I0
sg24
I0
sg41
I0
sg40
I0
sg49
I0
sg21
I0
sg70
I0
sg12
I0
sg55
I0
sg15
I0
sg53
I0
sg11
I0
sg59
I0
sg10
I0
sg45
I0
sg46
I0
sg14
I0
sg20
I0
sg31
I0
sg72
I0
sg351
I0
sg33
I0
sg60
I0
sg39
I0
sg216
I0
sg28
I0
sg44
I0
sg32
I0
sg217
I0
sg43
I0
sg22
I0
sg34
I0
sg35
I0
sg52
I7
sg54
I0
sg71
I0
sg23
I0
sg68
I0
sg57
I0
sg9
I0
sg38
I0
sg19
I0
sg18
I0
sg29
I0
sg8
I0
sg17
I0
sg37
I0
sg36
I2
sg48
I0
sg69
I0
sg42
I0
sg25
I0
sg26
I0
sg50
I0
ssg48
(dp403
g13
I0
sg51
I0
sg58
I0
sg56
I0
sg16
I0
sg27
I0
sg47
I0
sg62
I0
sg30
I0
sg24
I0
sg41
I0
sg40
I0
sg49
I0
sg21
I0
sg70
I2
sg12
I0
sg55
I0
sg63
I0
sg15
I0
sg53
I0
sg11
I0
sg59
I0
sg10
I0
sg45
I0
sg46
I0
sg14
I0
sg20
I0
sg31
I0
sg64
I0
sg65
I0
sg33
I0
sg67
I0
sg60
I0
sg39
I0
sg61
I0
sg28
I0
sg44
I0
sg32
I0
sg66
I0
sg43
I0
sg22
I0
sg34
I0
sg35
I0
sg52
I0
sg54
I0
sg71
I0
sg23
I0
sg68
I0
sg57
I0
sg9
I0
sg38
I0
sg19
I0
sg18
I0
sg29
I0
sg8
I0
sg17
I0
sg37
I0
sg36
I0
sg48
I7
sg69
I0
sg42
I0
sg25
I0
sg26
I0
sg50
I0
ssg69
(dp404
g225
I0
sg226
I0
sg227
I0
sg228
I0
sg229
I0
sg230
I0
sg231
I0
sg232
I0
sg233
I0
sg70
I0
sg234
I0
sg235
I0
sg236
I0
sg276
I0
sg90
I0
sg238
I0
sg239
I0
sg240
I0
sg241
I0
sg242
I0
sg243
I0
sg244
I0
sS'coca_cola.n.01'
p405
I0
sg333
I0
sg245
I0
sg347
I0
sg246
I0
sg247
I0
sg248
I0
sg249
I0
sg250
I0
sg251
I0
sg278
I0
sg252
I0
sg280
I0
sg68
I0
sS'mug.n.04'
p406
I0
sg254
I0
sg255
I0
sg256
I0
sg257
I0
sg258
I0
sg259
I0
sS'electric_refrigerator.n.01'
p407
I0
sg261
I0
sg262
I0
sg263
I0
sg69
I0
sg264
I0
sg265
I0
sg266
I0
ssg42
(dp408
g13
I0
sg51
I0
sg58
I0
sg56
I0
sg16
I0
sg27
I0
sg47
I0
sg62
I0
sg30
I0
sg24
I0
sg41
I0
sg40
I0
sg49
I0
sg21
I0
sg70
I0
sg12
I0
sg55
I0
sg63
I0
sg15
I0
sg53
I0
sg11
I0
sg59
I0
sg10
I0
sg45
I0
sg46
I0
sg14
I0
sg20
I0
sg31
I0
sg72
I0
sg64
I0
sg65
I0
sg33
I0
sg67
I0
sg60
I0
sg39
I0
sg61
I0
sg28
I0
sg44
I0
sg32
I0
sg66
I0
sg43
I0
sg22
I0
sg34
I0
sg35
I0
sg52
I0
sg54
I0
sg71
I0
sg23
I0
sg68
I0
sg57
I0
sg9
I0
sg38
I0
sg19
I0
sg18
I0
sg29
I0
sg8
I0
sg17
I0
sg37
I0
sg36
I0
sg48
I0
sg69
I2
sg42
I7
sg25
I0
sg26
I0
sg50
I0
ssg25
(dp409
g13
I0
sg51
I0
sg58
I0
sg56
I0
sg16
I0
sg27
I0
sg47
I0
sg62
I0
sg30
I0
sg24
I0
sg41
I0
sg40
I0
sg49
I0
sg21
I0
sg70
I0
sg12
I0
sg55
I0
sg63
I0
sg15
I0
sg53
I0
sg11
I0
sg59
I0
sg10
I0
sg45
I0
sg46
I0
sg14
I0
sg20
I0
sg31
I0
sg72
I0
sg64
I0
sg65
I0
sg33
I0
sg67
I0
sg60
I0
sg39
I0
sg61
I0
sg28
I0
sg44
I0
sg32
I0
sg66
I0
sg43
I0
sg22
I0
sg34
I0
sg35
I0
sg52
I0
sg54
I0
sg23
I0
sg68
I0
sg57
I0
sg9
I0
sg38
I0
sg25
I4
sg18
I0
sg29
I0
sg8
I0
sg17
I0
sg37
I0
sg36
I0
sg48
I0
sg69
I0
sg42
I0
sg19
I0
sg26
I5
sg50
I0
ssg26
(dp410
g13
I0
sg51
I0
sg56
I0
sg16
I0
sg27
I0
sg47
I0
sg62
I0
sg30
I0
sg24
I0
sg41
I0
sg40
I0
sg49
I0
sg21
I0
sg12
I0
sg55
I0
sg63
I0
sg15
I0
sg53
I0
sg11
I0
sg311
I0
sg10
I0
sg45
I0
sg46
I0
sg14
I0
sg20
I0
sg31
I0
sg72
I0
sg64
I0
sg65
I0
sg33
I0
sg67
I0
sg310
I0
sg39
I0
sg61
I0
sg28
I0
sg44
I0
sg32
I0
sg66
I0
sg43
I0
sg22
I0
sg34
I0
sg35
I0
sg52
I0
sg54
I0
sg23
I0
sg289
I0
sg9
I0
sg38
I0
sg19
I0
sg18
I0
sg29
I0
sg8
I0
sg17
I0
sg37
I0
sg36
I0
sg48
I0
sg42
I0
sg25
I0
sg26
I0
sg50
I0
ssg50
(dp411
g13
I0
sg51
I0
sg58
I0
sg56
I0
sg16
I0
sg27
I0
sg47
I0
sg62
I0
sg30
I0
sg24
I0
sg41
I0
sg40
I0
sg49
I0
sg50
I9
sg70
I0
sg12
I0
sg55
I0
sg63
I0
sg15
I0
sg53
I0
sg11
I0
sg59
I0
sg10
I0
sg45
I0
sg46
I0
sg14
I0
sg20
I0
sg31
I0
sg72
I0
sg64
I0
sg65
I0
sg33
I0
sg67
I0
sg60
I0
sg39
I0
sg61
I0
sg28
I0
sg44
I0
sg32
I0
sg66
I0
sg43
I0
sg22
I0
sg34
I0
sg35
I0
sg52
I0
sg54
I0
sg71
I0
sg23
I0
sg68
I0
sg57
I0
sg9
I0
sg38
I0
sg19
I0
sg18
I0
sg29
I0
sg8
I0
sg17
I0
sg37
I0
sg36
I0
sg48
I0
sg69
I0
sg42
I0
sg25
I0
sg26
I0
sg21
I0
sssb.