ccopy_reg
_reconstructor
p0
(cutils.eval
ConfusionMatrix
p1
c__builtin__
object
p2
Ntp3
Rp4
(dp5
S'labels'
p6
(lp7
S'bread.n.01'
p8
aS'piece.n.08'
p9
aS'slice.n.06'
p10
aS'olive_oil.n.01'
p11
aS'rum.n.01'
p12
aS'shaker.n.03'
p13
aS'take.v.04'
p14
aS'bring.v.01'
p15
aS'decant.v.01'
p16
aS'pour.v.01'
p17
aS'pan.n.01'
p18
aS'pan.n.03'
p19
aS'mix.n.03'
p20
aS'mix.n.01'
p21
aS'catsup.n.01'
p22
aS'tomato.n.01'
p23
aS'onion.n.03'
p24
aS'onion.n.01'
p25
aS'mustard.n.02'
p26
aS'fill.v.01'
p27
aS'pitcher.n.02'
p28
aS'milk.n.01'
p29
aS'wok.n.01'
p30
aS'rice.n.01'
p31
aS'pepper.n.03'
p32
aS'salt.n.02'
p33
aS'salt.n.04'
p34
aS'egg.n.02'
p35
aS'egg.n.01'
p36
aS'pizza.n.01'
p37
aS'slice.v.03'
p38
aS'add.v.01'
p39
aS'lend.v.01'
p40
aS'burner.n.02'
p41
aS'burner.n.01'
p42
aS'butter.n.01'
p43
aS'vanilla.n.02'
p44
aS'walnut.n.01'
p45
aS'walnut.n.02'
p46
aS'get.v.01'
p47
aS'bring.v.04'
p48
aS'pear.n.01'
p49
aS'blend.v.03'
p50
aS'mix.v.05'
p51
aS'bowl.n.01'
p52
aS'bowl.n.08'
p53
aS'bleu.n.01'
p54
aS'teapot.n.01'
p55
aS'water.n.06'
p56
aS'fork.n.01'
p57
aS'fork.n.03'
p58
aS'put.v.01'
p59
aS'put.v.02'
p60
aS'beef.n.02'
p61
aS'plate.n.04'
p62
aS'plate.n.13'
p63
aS'oven.n.01'
p64
aS'lodge.v.02'
p65
aS'stick.v.08'
p66
aS'vanilla.n.01'
p67
aS'concoction.n.01'
p68
aS'cut.v.01'
p69
aS'cut.v.32'
p70
aS'squash.n.02'
p71
aS'squash.n.01'
p72
aS'cup.n.01'
p73
aS'cola.n.02'
p74
aS'blender.n.01'
p75
aS'apple.n.01'
p76
aS'whiskey.n.01'
p77
aS'carafe.n.01'
p78
aS'jar.n.01'
p79
aS'gravy.n.01'
p80
aS'gravy.n.02'
p81
aS'mixing_bowl.n.01'
p82
aS'sugar.n.01'
p83
aS'boodle.n.01'
p84
aS'foam.n.01'
p85
aS'mug.n.04'
p86
aS'serve.v.05'
p87
aS'serve.v.11'
p88
aS'slice.n.05'
p89
aS'thermos.n.01'
p90
aS'coffee.n.01'
p91
aS'butter.n.02'
p92
aS'dough.n.01'
p93
aS'mix.v.04'
p94
aS'cover.v.01'
p95
aS'cover.v.16'
p96
aS'rib.n.03'
p97
aS'rib.n.01'
p98
aS'cheese.n.01'
p99
aS'water_system.n.02'
p100
aS'mixture.n.01'
p101
aS'bottle.n.01'
p102
aS'fruit_juice.n.01'
p103
aS'knife.n.01'
p104
aS'tongue.n.03'
p105
aS'banana.n.02'
p106
aS'blend.v.01'
p107
aS'carve.v.03'
p108
aS'hack.v.07'
p109
aS'pepper.n.04'
p110
asS'instanceCount'
p111
I119
sS'matrix'
p112
(dp113
g52
(dp114
g63
I0
sg61
I0
sg108
I0
sg65
I0
sg54
I0
sg60
I0
sg52
I0
sg66
I0
sg104
I0
sg110
I0
sg53
I3
sg39
I0
sS'pan.n.01'
p115
I0
sS'pan.n.03'
p116
I0
sg107
I0
sg43
I0
sg109
I0
sS'fill.v.01'
p117
I0
sg49
I0
sg44
I0
sg51
I0
sS'slice.v.03'
p118
I0
sg50
I0
sg106
I0
sg47
I0
sg62
I0
sg58
I0
sg46
I0
sg57
I0
sg45
I0
sg48
I0
sg64
I0
sS'pepper.n.03'
p119
I0
sS'piece.n.08'
p120
I0
sg55
I0
sS'slice.n.06'
p121
I0
sg56
I0
sg59
I0
sS'pizza.n.01'
p122
I0
sg105
I0
sg40
I0
sS'onion.n.01'
p123
I0
sg41
I0
sg42
I0
ssg53
(dp124
g63
I0
sg61
I0
sg108
I0
sg65
I0
sg54
I0
sg60
I0
sg52
I0
sg66
I0
sg104
I0
sg110
I0
sg53
I0
sg39
I0
sg115
I0
sg116
I0
sg107
I0
sg43
I0
sg109
I0
sg117
I0
sg49
I0
sg44
I0
sg51
I0
sg118
I0
sg50
I0
sg106
I0
sg47
I0
sg62
I0
sg58
I0
sg46
I0
sg57
I0
sg45
I0
sg48
I0
sg64
I0
sg119
I0
sg120
I0
sg55
I0
sg121
I0
sg56
I0
sg59
I0
sg122
I0
sg105
I0
sg40
I0
sg123
I0
sg41
I0
sg42
I0
ssg69
(dp125
g87
I0
sg76
I0
sS'fill.v.01'
p126
I0
sS'add.v.01'
p127
I0
sg69
I1
sg74
I0
sS'egg.n.02'
p128
I0
sS'egg.n.01'
p129
I0
sg73
I0
sg67
I0
sg72
I0
sg71
I0
sS'vanilla.n.02'
p130
I0
sg94
I0
sS'mix.v.05'
p131
I0
sS'blend.v.03'
p132
I0
sg93
I0
sg91
I0
sg88
I0
sg68
I0
sS'piece.n.08'
p133
I0
sg75
I0
sg90
I0
sg70
I1
sg89
I0
sg92
I0
sS'lend.v.01'
p134
I0
sS'jar.n.01'
p135
I0
sS'butter.n.01'
p136
I0
ssg95
(dp137
g99
I0
sg103
I0
sg101
I0
sg95
I0
sS'slice.v.03'
p138
I0
sg97
I0
sg98
I0
sS'rice.n.01'
p139
I0
sg100
I0
sS'water.n.06'
p140
I0
sS'fill.v.01'
p141
I0
sg102
I0
sS'pour.v.01'
p142
I0
sg96
I1
sS'lend.v.01'
p143
I0
sS'concoction.n.01'
p144
I0
sS'add.v.01'
p145
I0
ssg80
(dp146
g80
I0
sg86
I0
sg81
I1
sS'add.v.01'
p147
I0
sS'butter.n.01'
p148
I0
sg82
I0
sS'fill.v.01'
p149
I0
sg85
I0
sS'lend.v.01'
p150
I0
sg79
I0
sg84
I0
sg78
I0
sg77
I0
sg83
I0
ssg81
(dp151
g80
I0
sg86
I0
sg81
I0
sg147
I0
sg148
I0
sg82
I0
sg149
I0
sg85
I0
sg150
I0
sg79
I0
sg84
I0
sg78
I0
sg77
I0
sg83
I0
ssg97
(dp152
g99
I0
sg103
I0
sg101
I0
sg95
I0
sg138
I0
sg97
I0
sg98
I1
sg139
I0
sg100
I0
sg140
I0
sg141
I0
sg102
I0
sg142
I0
sg96
I0
sg143
I0
sg144
I0
sg145
I0
ssg98
(dp153
g99
I0
sg103
I0
sg101
I0
sg95
I0
sg138
I0
sg97
I0
sg98
I0
sg139
I0
sg100
I0
sg140
I0
sg141
I0
sg102
I0
sg142
I0
sg96
I0
sg143
I0
sg144
I0
sg145
I0
ssg58
(dp154
g63
I0
sS'pan.n.01'
p155
I0
sS'pan.n.03'
p156
I0
sS'blend.v.03'
p157
I0
sg61
I0
sg62
I0
sg65
I0
sg58
I0
sg60
I0
sg57
I0
sS'fill.v.01'
p158
I0
sS'water.n.06'
p159
I0
sS'bowl.n.01'
p160
I0
sg122
I0
sg64
I0
sg59
I0
sg66
I0
sS'mix.v.05'
p161
I0
sS'bowl.n.08'
p162
I0
sg123
I0
ssg57
(dp163
g63
I0
sg155
I0
sg156
I0
sg157
I0
sg61
I0
sg62
I0
sg65
I0
sg58
I1
sg60
I0
sg57
I0
sg158
I0
sg159
I0
sg160
I0
sg122
I0
sg64
I0
sg59
I0
sg66
I0
sg161
I0
sg162
I0
sg123
I0
ssg45
(dp164
g54
I0
sg52
I0
sg53
I0
sg39
I0
sg115
I0
sg116
I0
sg43
I0
sg117
I0
sg49
I0
sg44
I0
sg51
I0
sg50
I0
sg47
I0
sg46
I1
sg45
I0
sg48
I0
sg120
I0
sg55
I0
sg121
I0
sg56
I0
sg40
I0
sg41
I0
sg42
I0
ssg48
(dp165
g54
I0
sg52
I0
sg53
I0
sg39
I0
sg115
I0
sg116
I0
sg43
I0
sg117
I0
sg49
I0
sg44
I0
sg51
I0
sg50
I0
sg47
I0
sg46
I0
sg45
I0
sg48
I0
sg120
I0
sg55
I0
sg121
I0
sg56
I0
sg40
I0
sg41
I0
sg42
I0
ssg88
(dp166
S'egg.n.02'
p167
I0
sS'cut.v.01'
p168
I0
sg93
I0
sg92
I0
sg136
I0
sg90
I0
sg91
I0
sS'fill.v.01'
p169
I0
sg88
I0
sg87
I0
sS'lend.v.01'
p170
I0
sg94
I0
sS'mix.v.05'
p171
I0
sg133
I0
sg89
I0
sS'add.v.01'
p172
I0
sg135
I0
sS'egg.n.01'
p173
I0
ssg15
(dp174
g18
I0
sg19
I0
sg23
I0
sg10
I0
sg26
I0
sg13
I0
sg12
I0
sg22
I0
sg21
I0
sg17
I0
sg11
I0
sg20
I0
sg14
I0
sg9
I0
sg8
I0
sg25
I0
sg16
I0
sg24
I0
sg15
I0
ssg77
(dp175
g80
I0
sg86
I0
sg81
I0
sg147
I0
sg148
I0
sg82
I0
sg149
I0
sg85
I0
sg150
I0
sg79
I0
sg84
I0
sg78
I0
sg77
I1
sg83
I0
ssg75
(dp176
g69
I0
sg132
I0
sg75
I1
sg128
I0
sg129
I0
sg130
I0
sg70
I0
sg73
I0
sg131
I0
sg67
I0
sg72
I0
sg71
I0
sg134
I0
sg76
I0
sg68
I0
sg126
I0
sg127
I0
sg74
I0
ssg56
(dp177
g63
I0
sg99
I0
sg61
I0
sg65
I0
sg54
I0
sg60
I0
sg52
I0
sg66
I0
sg53
I0
sg39
I0
sg115
I0
sg116
I0
sg102
I0
sg43
I0
sg117
I0
sg97
I0
sg49
I0
sg95
I0
sg44
I0
sg51
I0
sg138
I0
sg50
I0
sg47
I0
sg62
I0
sg58
I0
sg98
I0
sg101
I0
sg46
I0
sg57
I0
sg45
I0
sg48
I0
sg64
I0
sg144
I0
sg120
I0
sg103
I0
sg55
I0
sg100
I1
sg139
I0
sg121
I0
sg56
I2
sg59
I0
sg122
I0
sg142
I0
sg96
I0
sg40
I0
sg123
I0
sg41
I0
sg42
I0
ssg59
(dp178
g63
I0
sg61
I0
sg108
I0
sg65
I0
sg159
I0
sg160
I0
sg66
I0
sg104
I0
sg162
I0
sg155
I0
sg156
I0
sg107
I0
sg109
I0
sg158
I0
sg161
I0
sg118
I0
sg157
I0
sg106
I0
sg62
I0
sg110
I0
sg58
I0
sg57
I0
sg64
I0
sg119
I0
sg60
I3
sg59
I0
sg122
I0
sg105
I0
sg123
I0
ssg17
(dp179
g99
I0
sg100
I0
sg8
I0
sg14
I0
sg145
I0
sg18
I0
sg19
I0
sg102
I0
sg23
I0
sg141
I0
sg95
I0
sg144
I0
sg11
I0
sg138
I0
sg101
I0
sg97
I0
sg98
I0
sg20
I0
sg26
I0
sg13
I0
sg12
I0
sg15
I0
sg22
I0
sg9
I0
sg103
I0
sg139
I0
sg10
I0
sg140
I0
sg17
I2
sg21
I0
sg96
I0
sg143
I0
sg25
I0
sg16
I0
sg24
I0
ssg105
(dp180
g118
I0
sg104
I0
sg107
I0
sg106
I0
sg109
I0
sg108
I0
sg110
I0
sS'put.v.02'
p181
I0
sS'put.v.01'
p182
I0
sS'bowl.n.01'
p183
I0
sg119
I0
sg105
I0
sS'bowl.n.08'
p184
I0
sS'onion.n.01'
p185
I0
ssg79
(dp186
g82
I0
sg87
I0
sg85
I0
sg147
I0
sg168
I0
sg92
I0
sg148
I0
sg149
I0
sg94
I0
sg171
I0
sg80
I0
sg167
I0
sg81
I0
sg93
I0
sg91
I0
sg84
I0
sg88
I0
sg133
I0
sg77
I0
sg86
I0
sg90
I0
sg89
I0
sg150
I0
sg79
I2
sg78
I0
sg173
I0
sg83
I0
ssg78
(dp187
g80
I0
sg86
I0
sg81
I0
sg147
I0
sg148
I0
sg82
I0
sg149
I0
sg85
I0
sg150
I0
sg79
I0
sg84
I0
sg78
I1
sg77
I0
sg83
I0
ssg16
(dp188
g18
I0
sg19
I0
sg23
I0
sg10
I0
sg26
I0
sg13
I0
sg12
I0
sg22
I0
sg21
I0
sg17
I1
sg11
I0
sg20
I0
sg14
I0
sg9
I0
sg8
I0
sg25
I0
sg16
I0
sg24
I0
sg15
I0
ssg100
(dp189
g99
I0
sg103
I0
sg101
I0
sg95
I0
sg138
I0
sg97
I0
sg98
I0
sg139
I0
sg100
I0
sg140
I0
sg141
I0
sg102
I0
sg142
I0
sg96
I0
sg143
I0
sg144
I0
sg145
I0
ssg54
(dp190
g54
I1
sg52
I0
sg53
I0
sg39
I0
sg115
I0
sg116
I0
sg43
I0
sg117
I0
sg49
I0
sg44
I0
sg51
I0
sg50
I0
sg47
I0
sg46
I0
sg45
I0
sg48
I0
sg120
I0
sg55
I0
sg121
I0
sg56
I0
sg40
I0
sg41
I0
sg42
I0
ssg60
(dp191
g63
I0
sg61
I0
sg108
I0
sg65
I0
sg159
I0
sg160
I0
sg66
I0
sg104
I0
sg162
I0
sg155
I0
sg156
I0
sg107
I0
sg109
I0
sg158
I0
sg161
I0
sg118
I0
sg157
I0
sg106
I0
sg62
I0
sg110
I0
sg58
I0
sg57
I0
sg64
I0
sg119
I0
sg60
I0
sg59
I0
sg122
I0
sg105
I0
sg123
I0
ssg14
(dp192
g18
I0
sg19
I0
sg23
I0
sg10
I0
sg26
I0
sg13
I0
sg12
I0
sg22
I0
sg21
I0
sg17
I0
sg11
I0
sg20
I0
sg14
I0
sg9
I0
sg8
I0
sg25
I0
sg16
I0
sg24
I0
sg15
I1
ssg87
(dp193
g167
I0
sg168
I0
sg93
I0
sg92
I0
sg136
I0
sg90
I0
sg91
I0
sg169
I0
sg88
I1
sg87
I0
sg170
I0
sg94
I0
sg171
I0
sg133
I0
sg89
I0
sg172
I0
sg135
I0
sg173
I0
ssg76
(dp194
g69
I0
sg132
I0
sg75
I0
sg128
I0
sg129
I0
sg134
I0
sg70
I0
sg73
I0
sg131
I0
sg67
I0
sg72
I0
sg71
I0
sg130
I0
sg76
I1
sg126
I0
sg127
I0
sg68
I0
sg74
I0
ssg37
(dp195
g63
I0
sg38
I0
sg65
I0
sg159
I0
sg160
I0
sg66
I0
sg162
I0
sg29
I0
sg155
I0
sg156
I0
sg35
I0
sg36
I0
sg61
I0
sg27
I0
sg28
I0
sg161
I0
sg62
I0
sg33
I0
sg157
I0
sg34
I0
sg30
I0
sg58
I0
sg32
I0
sg64
I0
sg57
I0
sS'piece.n.08'
p196
I0
sg31
I0
sS'slice.n.06'
p197
I0
sg60
I0
sg59
I0
sg37
I2
sg123
I0
ssg39
(dp198
g99
I0
sg139
I0
sg100
I0
sg82
I0
sg54
I0
sg70
I0
sg52
I0
sg76
I0
sg53
I0
sg39
I0
sg115
I0
sg116
I0
sg69
I0
sg74
I0
sg102
I0
sg128
I0
sg43
I0
sg117
I0
sg49
I0
sg67
I0
sg72
I0
sg71
I0
sg44
I0
sg94
I0
sg51
I0
sg80
I0
sg138
I0
sg81
I0
sg50
I0
sg95
I0
sg93
I0
sg47
I0
sg97
I0
sg91
I0
sg98
I0
sg101
I0
sg46
I0
sg45
I0
sg48
I0
sg88
I0
sg68
I0
sg120
I0
sg84
I0
sg77
I0
sg85
I0
sg129
I0
sg86
I0
sg103
I0
sg55
I0
sg87
I0
sg75
I0
sg92
I0
sg90
I0
sg121
I0
sg56
I0
sg89
I0
sg73
I0
sg142
I0
sg96
I0
sg40
I6
sg79
I0
sg78
I0
sg41
I0
sg42
I0
sg83
I0
ssg18
(dp199
g63
I0
sg61
I0
sg65
I0
sg54
I0
sg8
I0
sg66
I0
sg52
I0
sg122
I0
sg14
I0
sg53
I0
sg39
I0
sg18
I0
sg19
I4
sg42
I0
sg23
I0
sg117
I0
sg49
I0
sg44
I0
sg43
I0
sg51
I0
sg57
I0
sg11
I0
sg50
I0
sg47
I0
sg62
I0
sg58
I0
sg20
I0
sg46
I0
sg26
I0
sg13
I0
sg12
I0
sg48
I0
sg64
I0
sg15
I0
sg22
I0
sg9
I0
sg45
I0
sg55
I0
sg10
I0
sg56
I0
sg59
I0
sg16
I0
sg17
I0
sg21
I0
sg40
I0
sg25
I0
sg41
I0
sg24
I0
sg60
I0
ssg19
(dp200
g63
I0
sg61
I0
sg65
I0
sg54
I0
sg8
I0
sg66
I0
sg52
I0
sg122
I0
sg14
I0
sg53
I0
sg39
I0
sg18
I0
sg19
I0
sg42
I0
sg23
I0
sg117
I0
sg49
I0
sg44
I0
sg43
I0
sg51
I0
sg57
I0
sg11
I0
sg50
I0
sg47
I0
sg62
I0
sg58
I0
sg20
I0
sg46
I0
sg26
I0
sg13
I0
sg12
I0
sg48
I0
sg64
I0
sg15
I0
sg22
I0
sg9
I0
sg45
I0
sg55
I0
sg10
I0
sg56
I0
sg59
I0
sg16
I0
sg17
I0
sg21
I0
sg40
I0
sg25
I0
sg41
I0
sg24
I0
sg60
I0
ssg85
(dp201
g80
I0
sg86
I0
sg81
I0
sg84
I0
sg147
I0
sg148
I0
sg82
I0
sg149
I0
sg150
I0
sg79
I0
sg85
I1
sg78
I0
sg77
I0
sg83
I0
ssg106
(dp202
g118
I0
sg104
I0
sg107
I0
sg106
I1
sg109
I0
sg108
I0
sg110
I0
sg181
I0
sg182
I0
sg183
I0
sg119
I0
sg105
I0
sg184
I0
sg185
I0
ssg73
(dp203
g69
I0
sg132
I0
sg75
I0
sg128
I0
sg129
I0
sg130
I0
sg70
I0
sg73
I1
sg131
I0
sg67
I0
sg72
I0
sg71
I0
sg134
I0
sg76
I0
sg68
I0
sg126
I0
sg127
I0
sg74
I0
ssg67
(dp204
g69
I0
sg132
I0
sg75
I0
sg128
I0
sg129
I0
sg134
I0
sg70
I0
sg73
I0
sg131
I0
sg67
I0
sg72
I0
sg71
I0
sg130
I0
sg76
I0
sg68
I0
sg126
I0
sg127
I0
sg74
I0
ssg44
(dp205
g54
I0
sg70
I0
sg52
I0
sg76
I0
sg53
I0
sg39
I0
sg115
I0
sg116
I0
sg69
I0
sg74
I0
sg128
I0
sg43
I0
sg117
I0
sg49
I0
sg67
I1
sg72
I0
sg71
I0
sg44
I1
sg51
I0
sg50
I0
sg47
I0
sg46
I0
sg45
I0
sg48
I0
sg68
I0
sg120
I0
sg129
I0
sg55
I0
sg75
I0
sg121
I0
sg56
I0
sg73
I0
sg40
I0
sg41
I0
sg42
I0
ssg38
(dp206
g99
I0
sg33
I0
sg108
I0
sg100
I0
sg181
I0
sg183
I0
sg184
I0
sg145
I0
sg29
I0
sg107
I0
sg28
I0
sg102
I0
sg35
I0
sg36
I0
sg109
I0
sg27
I0
sg30
I0
sg95
I0
sg144
I0
sg38
I3
sg104
I0
sg105
I0
sg106
I0
sg34
I0
sg97
I0
sg110
I0
sg98
I0
sg101
I0
sg32
I0
sg196
I0
sg103
I0
sg31
I0
sg197
I0
sg140
I0
sg182
I0
sg37
I0
sg142
I0
sg96
I0
sg143
I0
sg185
I0
ssg93
(dp207
g167
I0
sg168
I0
sg93
I1
sg92
I0
sg136
I0
sg90
I0
sg91
I0
sg169
I0
sg88
I0
sg87
I0
sg170
I0
sg94
I0
sg171
I0
sg135
I0
sg89
I0
sg172
I0
sg133
I0
sg173
I0
ssg47
(dp208
g54
I0
sg52
I0
sg53
I0
sg39
I0
sg115
I0
sg116
I0
sg43
I0
sg117
I0
sg49
I0
sg44
I0
sg51
I0
sg50
I0
sg47
I0
sg46
I0
sg45
I0
sg48
I1
sg120
I0
sg55
I0
sg121
I0
sg56
I0
sg40
I0
sg41
I0
sg42
I0
ssg30
(dp209
g33
I0
sg34
I0
sg30
I1
sg35
I0
sg36
I0
sg31
I0
sg197
I0
sg32
I0
sg27
I0
sg28
I0
sg196
I0
sg37
I0
sg29
I0
sg38
I0
ssg110
(dp210
g118
I0
sg104
I0
sg107
I0
sg106
I0
sg109
I0
sg108
I0
sg110
I0
sg181
I0
sg182
I0
sg183
I0
sg119
I1
sg105
I0
sg184
I0
sg185
I0
ssg32
(dp211
g38
I0
sg108
I0
sg183
I0
sg184
I0
sg29
I0
sg106
I0
sg35
I0
sg36
I0
sg109
I0
sg27
I0
sg28
I0
sg33
I0
sg104
I0
sg107
I0
sg34
I0
sg30
I0
sg110
I0
sg32
I1
sg196
I0
sg31
I0
sg197
I0
sg181
I0
sg182
I0
sg37
I0
sg105
I0
sg185
I0
ssg12
(dp212
g18
I0
sg19
I0
sg23
I0
sg10
I0
sg26
I0
sg13
I0
sg8
I0
sg22
I0
sg21
I0
sg17
I0
sg11
I0
sg20
I0
sg14
I0
sg9
I0
sg12
I1
sg25
I0
sg16
I0
sg24
I0
sg15
I0
ssg13
(dp213
g18
I0
sg19
I0
sg23
I0
sg10
I0
sg26
I0
sg13
I1
sg12
I0
sg22
I0
sg21
I0
sg17
I0
sg11
I0
sg20
I0
sg14
I0
sg9
I0
sg8
I0
sg25
I0
sg16
I0
sg24
I0
sg15
I0
ssg103
(dp214
g99
I0
sg103
I1
sg101
I0
sg95
I0
sg138
I0
sg97
I0
sg98
I0
sg139
I0
sg100
I0
sg140
I0
sg141
I0
sg102
I0
sg142
I0
sg96
I0
sg143
I0
sg144
I0
sg145
I0
ssg55
(dp215
g54
I0
sg52
I0
sg53
I0
sg39
I0
sg115
I0
sg116
I0
sg43
I0
sg117
I0
sg49
I0
sg44
I0
sg51
I0
sg50
I0
sg47
I0
sg46
I0
sg45
I0
sg48
I0
sg120
I0
sg55
I1
sg121
I0
sg56
I0
sg40
I0
sg41
I0
sg42
I0
ssg21
(dp216
g18
I0
sg19
I0
sg24
I0
sg23
I0
sg10
I0
sg26
I0
sg13
I0
sg12
I0
sg22
I0
sg17
I0
sg11
I0
sg20
I0
sg14
I0
sg9
I0
sg8
I0
sg25
I0
sg16
I0
sg15
I0
sg21
I0
ssg40
(dp217
g99
I0
sg139
I0
sg100
I0
sg82
I0
sg54
I0
sg70
I0
sg52
I0
sg76
I0
sg53
I0
sg39
I0
sg115
I0
sg116
I0
sg69
I0
sg74
I0
sg102
I0
sg128
I0
sg43
I0
sg117
I0
sg49
I0
sg67
I0
sg72
I0
sg71
I0
sg44
I0
sg94
I0
sg51
I0
sg80
I0
sg138
I0
sg81
I0
sg50
I0
sg95
I0
sg93
I0
sg47
I0
sg97
I0
sg91
I0
sg98
I0
sg101
I0
sg46
I0
sg45
I0
sg48
I0
sg88
I0
sg68
I0
sg120
I0
sg84
I0
sg77
I0
sg85
I0
sg129
I0
sg86
I0
sg103
I0
sg55
I0
sg87
I0
sg75
I0
sg92
I0
sg90
I0
sg121
I0
sg56
I0
sg89
I0
sg73
I0
sg142
I0
sg96
I0
sg40
I0
sg79
I0
sg78
I0
sg41
I0
sg42
I0
sg83
I0
ssg25
(dp218
g63
I0
sg109
I0
sg61
I0
sg108
I0
sg65
I0
sg8
I0
sg159
I0
sg160
I0
sg14
I0
sg104
I0
sg162
I0
sg18
I0
sg19
I0
sg107
I0
sg23
I0
sg66
I0
sg158
I0
sg119
I0
sg161
I0
sg11
I0
sg118
I0
sg157
I0
sg106
I0
sg62
I0
sg110
I0
sg58
I0
sg26
I0
sg57
I0
sg12
I0
sg64
I0
sg13
I0
sg22
I0
sg9
I0
sg10
I0
sg60
I0
sg59
I0
sg122
I0
sg17
I0
sg21
I0
sg105
I0
sg20
I0
sg25
I2
sg16
I0
sg24
I0
sg15
I0
ssg24
(dp219
g18
I0
sg19
I0
sg23
I0
sg10
I0
sg26
I0
sg13
I0
sg12
I0
sg22
I0
sg21
I0
sg17
I0
sg11
I0
sg20
I0
sg14
I0
sg9
I0
sg8
I0
sg25
I1
sg16
I0
sg24
I0
sg15
I0
ssg61
(dp220
g63
I0
sg155
I0
sg156
I0
sg157
I0
sg61
I1
sg62
I0
sg65
I0
sg58
I0
sg60
I0
sg57
I0
sg158
I0
sg159
I0
sg160
I0
sg122
I0
sg64
I0
sg59
I0
sg66
I0
sg161
I0
sg162
I0
sg123
I0
ssg108
(dp221
g118
I0
sg104
I0
sg107
I0
sg106
I0
sg109
I1
sg108
I0
sg110
I0
sg181
I0
sg182
I0
sg183
I0
sg119
I0
sg105
I0
sg184
I0
sg185
I0
ssg65
(dp222
g63
I0
sg155
I0
sg156
I0
sg157
I0
sg61
I0
sg62
I0
sg65
I0
sg58
I0
sg60
I0
sg57
I0
sg158
I0
sg159
I0
sg160
I0
sg122
I0
sg64
I0
sg59
I0
sg66
I1
sg161
I0
sg162
I0
sg123
I0
ssg82
(dp223
g80
I0
sg86
I0
sg81
I0
sg147
I0
sg148
I0
sg82
I1
sg149
I0
sg85
I0
sg150
I0
sg79
I0
sg84
I0
sg78
I0
sg77
I0
sg83
I0
ssg66
(dp224
g63
I0
sg155
I0
sg156
I0
sg157
I0
sg61
I0
sg62
I0
sg65
I0
sg58
I0
sg60
I0
sg57
I0
sg158
I0
sg159
I0
sg160
I0
sg122
I0
sg64
I0
sg59
I0
sg66
I0
sg161
I0
sg162
I0
sg123
I0
ssg26
(dp225
g18
I0
sg26
I1
sg23
I0
sg10
I0
sg19
I0
sg13
I0
sg12
I0
sg22
I0
sg21
I0
sg17
I0
sg11
I0
sg20
I0
sg14
I0
sg9
I0
sg8
I0
sg25
I0
sg16
I0
sg24
I0
sg15
I0
ssg102
(dp226
g99
I0
sg103
I0
sg101
I0
sg95
I0
sg138
I0
sg102
I1
sg98
I0
sg139
I0
sg100
I0
sg140
I0
sg141
I0
sg97
I0
sg142
I0
sg96
I0
sg143
I0
sg144
I0
sg145
I0
ssg27
(dp227
g63
I0
sg80
I0
sg89
I0
sg38
I0
sg91
I0
sg65
I0
sg61
I0
sg100
I0
sg82
I0
sg54
I0
sg43
I0
sg99
I0
sg52
I0
sg66
I0
sg76
I0
sg53
I0
sg39
I0
sg29
I0
sg115
I0
sg116
I0
sg69
I0
sg74
I0
sg102
I0
sg35
I0
sg36
I0
sg47
I0
sg27
I12
sg28
I0
sg49
I0
sg67
I0
sg72
I0
sg71
I0
sg44
I0
sg94
I0
sg51
I0
sg70
I0
sg62
I0
sg33
I0
sg81
I0
sg50
I0
sg95
I0
sg93
I0
sg34
I0
sg30
I0
sg58
I0
sg98
I0
sg101
I0
sg46
I0
sg32
I0
sg45
I0
sg48
I0
sg88
I0
sg64
I0
sg57
I0
sg68
I0
sg196
I0
sg84
I0
sg77
I0
sg85
I0
sg86
I0
sg103
I0
sg55
I0
sg87
I0
sg75
I0
sg97
I0
sg78
I0
sg92
I0
sg31
I0
sg197
I0
sg56
I0
sg59
I0
sg37
I0
sg73
I0
sg90
I0
sg142
I0
sg96
I0
sg40
I0
sg79
I0
sg83
I0
sg123
I0
sg41
I0
sg42
I0
sg60
I0
ssg28
(dp228
g33
I0
sg34
I0
sg30
I0
sg35
I0
sg36
I0
sg31
I0
sg197
I0
sg32
I0
sg27
I0
sg28
I1
sg196
I0
sg37
I0
sg29
I0
sg38
I0
ssg49
(dp229
g54
I0
sg52
I0
sg53
I0
sg39
I0
sg115
I0
sg116
I0
sg43
I0
sg117
I0
sg49
I1
sg44
I0
sg51
I0
sg50
I0
sg47
I0
sg46
I0
sg45
I0
sg48
I0
sg120
I0
sg55
I0
sg121
I0
sg56
I0
sg40
I0
sg41
I0
sg42
I0
ssg72
(dp230
g69
I0
sg132
I0
sg75
I0
sg128
I0
sg129
I0
sg134
I0
sg70
I0
sg73
I0
sg131
I0
sg67
I0
sg72
I0
sg71
I0
sg130
I0
sg76
I0
sg68
I0
sg126
I0
sg127
I0
sg74
I0
ssg71
(dp231
g69
I0
sg132
I0
sg75
I0
sg128
I0
sg129
I0
sg134
I0
sg70
I0
sg73
I0
sg131
I0
sg67
I0
sg72
I1
sg71
I0
sg130
I0
sg76
I0
sg68
I0
sg126
I0
sg127
I0
sg74
I0
ssg68
(dp232
g99
I0
sg140
I0
sg76
I0
sg126
I0
sg127
I0
sg69
I0
sg74
I0
sg102
I0
sg128
I0
sg129
I0
sg73
I0
sg67
I0
sg72
I0
sg95
I0
sg130
I0
sg131
I0
sg138
I0
sg132
I0
sg71
I0
sg97
I0
sg98
I0
sg101
I1
sg68
I1
sg103
I0
sg75
I0
sg139
I0
sg100
I0
sg70
I0
sg142
I0
sg96
I0
sg134
I0
ssg33
(dp233
g33
I0
sg34
I1
sg30
I0
sg35
I0
sg36
I0
sg31
I0
sg197
I0
sg32
I0
sg27
I0
sg28
I0
sg196
I0
sg37
I0
sg29
I0
sg38
I0
ssg104
(dp234
g118
I0
sg104
I0
sg107
I0
sg106
I0
sg109
I0
sg108
I0
sg110
I0
sg181
I0
sg182
I0
sg183
I0
sg119
I0
sg105
I1
sg184
I0
sg185
I0
ssg34
(dp235
g33
I0
sg34
I0
sg30
I0
sg35
I0
sg36
I0
sg31
I0
sg197
I0
sg32
I0
sg27
I0
sg28
I0
sg196
I0
sg37
I0
sg29
I0
sg38
I0
ssg62
(dp236
g63
I1
sg155
I0
sg156
I0
sg157
I0
sg61
I0
sg62
I0
sg65
I0
sg58
I0
sg60
I0
sg57
I0
sg158
I0
sg159
I0
sg160
I0
sg122
I0
sg64
I0
sg59
I0
sg66
I0
sg161
I0
sg162
I0
sg123
I0
ssg101
(dp237
g99
I0
sg103
I0
sg139
I0
sg95
I0
sg138
I0
sg97
I0
sg98
I0
sg101
I0
sg100
I0
sg140
I0
sg141
I0
sg102
I0
sg142
I0
sg96
I0
sg143
I0
sg144
I0
sg145
I0
ssg91
(dp238
g167
I0
sg168
I0
sg93
I0
sg92
I0
sg136
I0
sg90
I0
sg91
I1
sg169
I0
sg88
I0
sg87
I0
sg170
I0
sg94
I0
sg171
I0
sg135
I0
sg89
I0
sg172
I0
sg133
I0
sg173
I0
ssg64
(dp239
g63
I0
sg155
I0
sg156
I0
sg157
I0
sg61
I0
sg62
I0
sg65
I0
sg58
I0
sg60
I0
sg57
I0
sg158
I0
sg159
I0
sg160
I0
sg122
I0
sg64
I1
sg59
I0
sg66
I0
sg161
I0
sg162
I0
sg123
I0
ssg86
(dp240
g80
I0
sg86
I1
sg81
I0
sg147
I0
sg148
I0
sg82
I0
sg149
I0
sg85
I0
sg150
I0
sg79
I0
sg84
I0
sg78
I0
sg77
I0
sg83
I0
ssg10
(dp241
g38
I0
sg54
I0
sg8
I0
sg52
I0
sg14
I0
sg53
I0
sg39
I0
sg29
I0
sg18
I0
sg19
I0
sg42
I0
sg35
I0
sg23
I0
sg47
I0
sg27
I0
sg32
I0
sg28
I0
sg49
I0
sg44
I0
sg43
I0
sg51
I0
sg11
I0
sg33
I0
sg50
I0
sg34
I0
sg30
I0
sg40
I0
sg46
I0
sg26
I0
sg13
I0
sg12
I0
sg48
I0
sg15
I0
sg41
I0
sg22
I0
sg9
I0
sg45
I0
sg36
I0
sg55
I0
sg31
I0
sg10
I0
sg56
I0
sg37
I0
sg17
I0
sg21
I0
sg20
I0
sg25
I0
sg16
I0
sg24
I0
ssg89
(dp242
g167
I0
sg168
I0
sg93
I0
sg92
I0
sg136
I0
sg90
I0
sg91
I0
sg169
I0
sg88
I0
sg87
I0
sg170
I0
sg94
I0
sg171
I0
sg135
I0
sg89
I0
sg172
I0
sg133
I0
sg173
I0
ssg41
(dp243
g54
I0
sg52
I0
sg53
I0
sg39
I0
sg115
I0
sg116
I0
sg43
I0
sg117
I0
sg49
I0
sg44
I0
sg51
I0
sg50
I0
sg47
I0
sg46
I0
sg45
I0
sg48
I0
sg120
I0
sg55
I0
sg121
I0
sg56
I0
sg40
I0
sg41
I0
sg42
I1
ssg42
(dp244
g54
I0
sg52
I0
sg53
I0
sg39
I0
sg115
I0
sg116
I0
sg43
I0
sg117
I0
sg49
I0
sg44
I0
sg51
I0
sg50
I0
sg47
I0
sg46
I0
sg45
I0
sg48
I0
sg120
I0
sg55
I0
sg121
I0
sg56
I0
sg40
I0
sg41
I0
sg42
I0
ssg63
(dp245
g63
I0
sg155
I0
sg156
I0
sg157
I0
sg61
I0
sg62
I0
sg65
I0
sg58
I0
sg60
I0
sg57
I0
sg158
I0
sg159
I0
sg160
I0
sg122
I0
sg64
I0
sg59
I0
sg66
I0
sg161
I0
sg162
I0
sg123
I0
ssg99
(dp246
g99
I1
sg103
I0
sg101
I0
sg95
I0
sg138
I0
sg97
I0
sg98
I0
sg139
I0
sg100
I0
sg140
I0
sg141
I0
sg102
I0
sg142
I0
sg96
I0
sg143
I0
sg144
I0
sg145
I0
ssg90
(dp247
g167
I0
sg168
I0
sg93
I0
sg92
I0
sg136
I0
sg90
I1
sg91
I0
sg169
I0
sg88
I0
sg87
I0
sg170
I0
sg94
I0
sg171
I0
sg135
I0
sg89
I0
sg172
I0
sg133
I0
sg173
I0
ssg109
(dp248
g109
I0
sg104
I0
sg107
I0
sg106
I0
sg118
I0
sg108
I0
sg110
I0
sg181
I0
sg182
I0
sg183
I0
sg119
I0
sg105
I0
sg184
I0
sg185
I0
ssg8
(dp249
g18
I0
sg19
I0
sg23
I0
sg10
I0
sg26
I0
sg13
I0
sg12
I0
sg22
I0
sg21
I0
sg17
I0
sg11
I0
sg20
I0
sg14
I0
sg9
I0
sg8
I2
sg25
I0
sg16
I0
sg24
I0
sg15
I0
ssg29
(dp250
g33
I0
sg34
I0
sg30
I0
sg35
I0
sg36
I0
sg31
I0
sg197
I0
sg32
I0
sg27
I0
sg28
I0
sg196
I0
sg37
I0
sg29
I1
sg38
I0
ssg74
(dp251
g69
I0
sg74
I1
sg75
I0
sg128
I0
sg129
I0
sg134
I0
sg70
I0
sg73
I0
sg131
I0
sg132
I0
sg67
I0
sg72
I0
sg71
I0
sg130
I0
sg76
I0
sg68
I0
sg126
I0
sg127
I0
ssg35
(dp252
g89
I0
sg38
I0
sg90
I0
sg87
I0
sg76
I0
sg73
I0
sg127
I0
sg29
I0
sg69
I0
sg74
I0
sg35
I0
sg36
I3
sg27
I0
sg28
I0
sg67
I0
sg72
I0
sg71
I0
sg130
I0
sg94
I0
sg131
I0
sg33
I0
sg132
I0
sg93
I0
sg34
I0
sg30
I0
sg91
I0
sg32
I0
sg88
I0
sg68
I0
sg196
I0
sg75
I0
sg31
I0
sg197
I0
sg70
I0
sg37
I0
sg92
I0
sg134
I0
sg135
I0
sg136
I0
ssg23
(dp253
g18
I0
sg19
I0
sg23
I1
sg10
I0
sg26
I0
sg13
I0
sg12
I0
sg22
I0
sg21
I0
sg17
I0
sg11
I0
sg20
I0
sg14
I0
sg9
I0
sg8
I0
sg25
I0
sg16
I0
sg24
I0
sg15
I0
ssg94
(dp254
g167
I0
sg168
I0
sg93
I0
sg92
I0
sg136
I0
sg90
I0
sg91
I0
sg169
I0
sg88
I0
sg87
I0
sg170
I0
sg94
I0
sg171
I1
sg135
I0
sg89
I0
sg172
I0
sg133
I0
sg173
I0
ssg51
(dp255
g63
I0
sg89
I0
sg61
I0
sg91
I0
sg65
I0
sg54
I0
sg60
I0
sg52
I0
sg66
I0
sg76
I0
sg53
I0
sg39
I0
sg115
I0
sg116
I0
sg69
I0
sg74
I0
sg128
I0
sg43
I0
sg117
I0
sg49
I0
sg67
I0
sg72
I0
sg71
I0
sg44
I0
sg94
I0
sg51
I0
sg70
I0
sg50
I0
sg93
I0
sg47
I0
sg62
I0
sg58
I0
sg46
I0
sg57
I0
sg45
I0
sg48
I0
sg88
I0
sg64
I0
sg68
I0
sg120
I0
sg129
I0
sg55
I0
sg87
I0
sg75
I0
sg92
I0
sg90
I0
sg121
I0
sg56
I0
sg59
I0
sg122
I0
sg73
I0
sg40
I0
sg135
I0
sg123
I0
sg41
I0
sg42
I0
ssg50
(dp256
g63
I0
sg61
I0
sg65
I0
sg54
I0
sg60
I0
sg52
I0
sg66
I0
sg76
I0
sg53
I0
sg39
I0
sg115
I0
sg116
I0
sg69
I0
sg74
I0
sg128
I0
sg43
I0
sg117
I0
sg49
I0
sg67
I0
sg72
I0
sg71
I0
sg44
I0
sg51
I3
sg70
I0
sg50
I0
sg47
I0
sg62
I0
sg58
I0
sg46
I0
sg57
I0
sg45
I0
sg48
I0
sg64
I0
sg68
I0
sg120
I0
sg129
I0
sg55
I0
sg75
I0
sg121
I0
sg56
I0
sg59
I0
sg122
I0
sg73
I0
sg40
I0
sg123
I0
sg41
I0
sg42
I0
ssg107
(dp257
g118
I0
sg104
I0
sg107
I1
sg106
I0
sg109
I0
sg108
I0
sg110
I0
sg181
I0
sg182
I0
sg183
I0
sg119
I0
sg105
I0
sg184
I0
sg185
I0
ssg46
(dp258
g54
I0
sg52
I0
sg53
I0
sg39
I0
sg115
I0
sg116
I0
sg43
I0
sg117
I0
sg49
I0
sg44
I0
sg51
I0
sg50
I0
sg47
I0
sg46
I0
sg45
I0
sg48
I0
sg120
I0
sg55
I0
sg121
I0
sg56
I0
sg40
I0
sg41
I0
sg42
I0
ssg20
(dp259
g18
I0
sg19
I0
sg23
I0
sg10
I0
sg26
I0
sg13
I0
sg8
I0
sg22
I0
sg21
I1
sg17
I0
sg11
I0
sg20
I0
sg14
I0
sg9
I0
sg12
I0
sg25
I0
sg16
I0
sg24
I0
sg15
I0
ssg84
(dp260
g80
I0
sg86
I0
sg81
I0
sg147
I0
sg148
I0
sg82
I0
sg149
I0
sg85
I0
sg150
I0
sg79
I0
sg84
I0
sg78
I0
sg77
I0
sg83
I0
ssg22
(dp261
g18
I0
sg19
I0
sg23
I0
sg10
I0
sg26
I0
sg13
I0
sg12
I0
sg14
I0
sg21
I0
sg17
I0
sg11
I0
sg20
I0
sg22
I1
sg9
I0
sg8
I0
sg25
I0
sg16
I0
sg24
I0
sg15
I0
ssg9
(dp262
g89
I1
sg38
I0
sg54
I0
sg8
I0
sg52
I0
sg94
I0
sg14
I0
sg53
I0
sg39
I0
sg29
I0
sg18
I0
sg19
I0
sg168
I0
sg42
I0
sg35
I0
sg23
I0
sg47
I0
sg27
I0
sg32
I0
sg28
I0
sg49
I0
sg44
I0
sg43
I0
sg51
I0
sg11
I0
sg33
I0
sg50
I0
sg93
I0
sg34
I0
sg30
I0
sg91
I0
sg40
I0
sg46
I0
sg26
I0
sg13
I0
sg12
I0
sg48
I0
sg88
I0
sg15
I0
sg41
I0
sg22
I0
sg9
I0
sg45
I0
sg36
I0
sg55
I0
sg87
I0
sg31
I0
sg10
I4
sg56
I0
sg37
I0
sg92
I0
sg90
I0
sg17
I0
sg21
I0
sg20
I0
sg135
I0
sg25
I0
sg16
I0
sg24
I0
ssg36
(dp263
g89
I0
sg38
I0
sg90
I0
sg87
I0
sg76
I0
sg73
I0
sg127
I0
sg29
I0
sg69
I0
sg74
I0
sg35
I0
sg36
I0
sg27
I0
sg28
I0
sg67
I0
sg72
I0
sg71
I0
sg130
I0
sg94
I0
sg131
I0
sg33
I0
sg132
I0
sg93
I0
sg34
I0
sg30
I0
sg91
I0
sg32
I0
sg88
I0
sg68
I0
sg196
I0
sg75
I0
sg31
I0
sg197
I0
sg70
I0
sg37
I0
sg92
I0
sg134
I0
sg135
I0
sg136
I0
ssg31
(dp264
g99
I0
sg38
I0
sg100
I0
sg145
I0
sg29
I0
sg28
I0
sg102
I0
sg35
I0
sg36
I0
sg27
I0
sg30
I0
sg95
I0
sg144
I0
sg33
I0
sg34
I0
sg97
I0
sg98
I0
sg101
I0
sg32
I0
sg196
I0
sg103
I0
sg31
I2
sg197
I0
sg140
I0
sg37
I0
sg142
I0
sg96
I0
sg143
I0
ssg70
(dp265
g69
I0
sg132
I0
sg75
I0
sg128
I0
sg129
I0
sg134
I0
sg70
I0
sg73
I0
sg131
I0
sg67
I0
sg72
I0
sg71
I0
sg130
I0
sg76
I0
sg68
I0
sg126
I0
sg127
I0
sg74
I0
ssg11
(dp266
g18
I0
sg19
I0
sg23
I0
sg10
I0
sg26
I0
sg13
I0
sg12
I0
sg22
I0
sg21
I0
sg17
I0
sg11
I1
sg20
I0
sg14
I0
sg9
I0
sg8
I0
sg25
I0
sg16
I0
sg24
I0
sg15
I0
ssg96
(dp267
g99
I0
sg103
I0
sg101
I0
sg96
I0
sg138
I0
sg97
I0
sg98
I0
sg139
I0
sg100
I0
sg140
I0
sg141
I0
sg102
I0
sg142
I0
sg95
I0
sg143
I0
sg144
I0
sg145
I0
ssg92
(dp268
g167
I0
sg168
I0
sg93
I0
sg92
I0
sg136
I0
sg90
I0
sg91
I0
sg169
I0
sg88
I0
sg87
I0
sg170
I0
sg94
I0
sg171
I0
sg135
I0
sg89
I0
sg172
I0
sg133
I0
sg173
I0
ssg43
(dp269
g82
I0
sg54
I0
sg52
I0
sg53
I0
sg39
I0
sg115
I0
sg116
I0
sg85
I0
sg92
I1
sg43
I2
sg117
I0
sg49
I0
sg44
I0
sg94
I0
sg51
I0
sg80
I0
sg167
I0
sg81
I0
sg50
I0
sg93
I0
sg47
I0
sg91
I0
sg46
I0
sg45
I0
sg48
I0
sg88
I0
sg168
I0
sg120
I0
sg84
I0
sg77
I0
sg173
I0
sg86
I0
sg55
I0
sg87
I0
sg90
I0
sg121
I0
sg56
I0
sg89
I0
sg40
I0
sg79
I0
sg78
I0
sg41
I0
sg42
I0
sg83
I0
ssg83
(dp270
g80
I0
sg86
I0
sg81
I0
sg147
I0
sg148
I0
sg82
I0
sg149
I0
sg85
I0
sg150
I0
sg79
I0
sg84
I1
sg78
I0
sg77
I0
sg83
I0
sssb.