ccopy_reg
_reconstructor
p0
(cutils.eval
ConfusionMatrix
p1
c__builtin__
object
p2
Ntp3
Rp4
(dp5
S'labels'
p6
(lp7
S'jar.n.01'
p8
aS'fill.v.01'
p9
aS'serve.v.05'
p10
aS'serve.v.11'
p11
aS'cut.v.01'
p12
aS'piece.n.08'
p13
aS'slice.n.05'
p14
aS'thermos.n.01'
p15
aS'coffee.n.01'
p16
aS'add.v.01'
p17
aS'lend.v.01'
p18
aS'butter.n.01'
p19
aS'butter.n.02'
p20
aS'egg.n.02'
p21
aS'egg.n.01'
p22
aS'dough.n.01'
p23
aS'mix.v.04'
p24
aS'mix.v.05'
p25
asS'instanceCount'
p26
I13
sS'matrix'
p27
(dp28
g21
(dp29
g22
I1
ssg12
(dp30
S'cut.v.01'
p31
I1
ssg23
(dp32
S'dough.n.01'
p33
I1
ssg20
(dp34
g20
I0
ssg19
(dp35
g20
I1
ssg15
(dp36
S'thermos.n.01'
p37
I1
ssg16
(dp38
S'coffee.n.01'
p39
I1
ssg9
(dp40
S'fill.v.01'
p41
I2
ssg11
(dp42
g11
I0
ssg10
(dp43
g11
I1
ssg18
(dp44
g18
I0
ssg24
(dp45
g25
I1
ssg25
(dp46
g25
I0
ssg13
(dp47
g14
I1
ssg14
(dp48
g14
I0
ssg17
(dp49
g18
I1
ssg8
(dp50
S'jar.n.01'
p51
I1
ssg22
(dp52
g22
I0
sssb.