ccopy_reg
_reconstructor
p0
(cutils.eval
ConfusionMatrix
p1
c__builtin__
object
p2
Ntp3
Rp4
(dp5
S'labels'
p6
(lp7
S'fill.v.01'
p8
aS'whiskey.n.01'
p9
aS'carafe.n.01'
p10
aS'jar.n.01'
p11
aS'gravy.n.01'
p12
aS'gravy.n.02'
p13
aS'add.v.01'
p14
aS'lend.v.01'
p15
aS'mixing_bowl.n.01'
p16
aS'butter.n.01'
p17
aS'sugar.n.01'
p18
aS'boodle.n.01'
p19
aS'foam.n.01'
p20
aS'mug.n.04'
p21
asS'instanceCount'
p22
I13
sS'matrix'
p23
(dp24
g12
(dp25
g13
I1
ssg21
(dp26
S'mug.n.04'
p27
I1
ssg13
(dp28
g13
I0
ssg14
(dp29
g15
I1
ssg17
(dp30
S'butter.n.01'
p31
I1
ssg16
(dp32
S'mixing_bowl.n.01'
p33
I1
ssg8
(dp34
S'fill.v.01'
p35
I3
ssg20
(dp36
S'foam.n.01'
p37
I1
ssg15
(dp38
g15
I0
ssg11
(dp39
S'jar.n.01'
p40
I1
ssg19
(dp41
g19
I0
ssg10
(dp42
S'carafe.n.01'
p43
I1
ssg9
(dp44
S'whiskey.n.01'
p45
I1
ssg18
(dp46
g19
I1
sssb.