ccopy_reg
_reconstructor
p0
(cutils.eval
ConfusionMatrix
p1
c__builtin__
object
p2
Ntp3
Rp4
(dp5
S'labels'
p6
(lp7
S'add.v.01'
p8
aS'lend.v.01'
p9
aS'burner.n.02'
p10
aS'burner.n.01'
p11
aS'pan.n.01'
p12
aS'pan.n.03'
p13
aS'butter.n.01'
p14
aS'vanilla.n.02'
p15
aS'walnut.n.01'
p16
aS'walnut.n.02'
p17
aS'get.v.01'
p18
aS'bring.v.04'
p19
aS'pear.n.01'
p20
aS'blend.v.03'
p21
aS'mix.v.05'
p22
aS'bowl.n.01'
p23
aS'bowl.n.08'
p24
aS'bleu.n.01'
p25
aS'fill.v.01'
p26
aS'teapot.n.01'
p27
aS'water.n.06'
p28
aS'piece.n.08'
p29
aS'slice.n.06'
p30
asS'instanceCount'
p31
I16
sS'matrix'
p32
(dp33
g25
(dp34
S'bleu.n.01'
p35
I1
ssg23
(dp36
g24
I1
ssg24
(dp37
g24
I0
ssg8
(dp38
g9
I2
ssg12
(dp39
g13
I1
ssg13
(dp40
g13
I0
ssg14
(dp41
S'butter.n.01'
p42
I1
ssg26
(dp43
S'fill.v.01'
p44
I1
ssg20
(dp45
S'pear.n.01'
p46
I1
ssg15
(dp47
S'vanilla.n.02'
p48
I1
ssg22
(dp49
g22
I0
ssg21
(dp50
g22
I1
ssg18
(dp51
g19
I1
ssg17
(dp52
g17
I0
ssg16
(dp53
g17
I1
ssg19
(dp54
g19
I0
ssg29
(dp55
g30
I1
ssg27
(dp56
S'teapot.n.01'
p57
I1
ssg30
(dp58
g30
I0
ssg28
(dp59
S'water.n.06'
p60
I1
ssg9
(dp61
g9
I0
ssg10
(dp62
g11
I1
ssg11
(dp63
g11
I0
sssb.