ccopy_reg
_reconstructor
p0
(cutils.eval
ConfusionMatrix
p1
c__builtin__
object
p2
Ntp3
Rp4
(dp5
S'labels'
p6
(lp7
S'bread.n.01'
p8
aS'piece.n.08'
p9
aS'slice.n.06'
p10
aS'olive_oil.n.01'
p11
aS'rum.n.01'
p12
aS'shaker.n.03'
p13
aS'take.v.04'
p14
aS'bring.v.01'
p15
aS'decant.v.01'
p16
aS'pour.v.01'
p17
aS'pan.n.01'
p18
aS'pan.n.03'
p19
aS'mix.n.03'
p20
aS'mix.n.01'
p21
aS'catsup.n.01'
p22
aS'tomato.n.01'
p23
aS'onion.n.03'
p24
aS'onion.n.01'
p25
aS'mustard.n.02'
p26
asS'instanceCount'
p27
I16
sS'matrix'
p28
(dp29
g18
(dp30
g19
I1
ssg19
(dp31
g19
I0
ssg23
(dp32
S'tomato.n.01'
p33
I1
ssg10
(dp34
g10
I0
ssg26
(dp35
S'mustard.n.02'
p36
I1
ssg13
(dp37
S'shaker.n.03'
p38
I1
ssg12
(dp39
S'rum.n.01'
p40
I1
ssg22
(dp41
S'catsup.n.01'
p42
I1
ssg21
(dp43
g21
I0
ssg17
(dp44
g17
I1
ssg11
(dp45
S'olive_oil.n.01'
p46
I1
ssg20
(dp47
g21
I1
ssg14
(dp48
g15
I1
ssg9
(dp49
g10
I2
ssg8
(dp50
S'bread.n.01'
p51
I2
ssg25
(dp52
g25
I0
ssg16
(dp53
g17
I1
ssg24
(dp54
g25
I1
ssg15
(dp55
g15
I0
sssb.