ccopy_reg
_reconstructor
p0
(cutils.eval
ConfusionMatrix
p1
c__builtin__
object
p2
Ntp3
Rp4
(dp5
S'labels'
p6
(lp7
S'add.v.01'
p8
aS'lend.v.01'
p9
aS'vanilla.n.02'
p10
aS'vanilla.n.01'
p11
aS'egg.n.02'
p12
aS'egg.n.01'
p13
aS'concoction.n.01'
p14
aS'blend.v.03'
p15
aS'mix.v.05'
p16
aS'cut.v.01'
p17
aS'cut.v.32'
p18
aS'squash.n.02'
p19
aS'squash.n.01'
p20
aS'cup.n.01'
p21
aS'fill.v.01'
p22
aS'cola.n.02'
p23
aS'blender.n.01'
p24
aS'apple.n.01'
p25
asS'instanceCount'
p26
I13
sS'matrix'
p27
(dp28
g17
(dp29
g18
I1
ssg15
(dp30
g16
I1
ssg24
(dp31
S'blender.n.01'
p32
I1
ssg12
(dp33
g13
I1
ssg13
(dp34
g13
I0
ssg9
(dp35
g9
I0
ssg18
(dp36
g18
I0
ssg21
(dp37
S'cup.n.01'
p38
I1
ssg16
(dp39
g16
I0
ssg11
(dp40
g11
I0
ssg20
(dp41
g20
I0
ssg19
(dp42
g20
I1
ssg10
(dp43
g11
I1
ssg25
(dp44
S'apple.n.01'
p45
I1
ssg14
(dp46
S'concoction.n.01'
p47
I1
ssg22
(dp48
S'fill.v.01'
p49
I2
ssg8
(dp50
g9
I1
ssg23
(dp51
S'cola.n.02'
p52
I1
sssb.