ccopy_reg
_reconstructor
p0
(cutils.eval
ConfusionMatrix
p1
c__builtin__
object
p2
Ntp3
Rp4
(dp5
S'labels'
p6
(lp7
S'fill.v.01'
p8
aS'pitcher.n.02'
p9
aS'milk.n.01'
p10
aS'wok.n.01'
p11
aS'rice.n.01'
p12
aS'pepper.n.03'
p13
aS'salt.n.02'
p14
aS'salt.n.04'
p15
aS'egg.n.02'
p16
aS'egg.n.01'
p17
aS'piece.n.08'
p18
aS'slice.n.06'
p19
aS'pizza.n.01'
p20
aS'slice.v.03'
p21
asS'instanceCount'
p22
I12
sS'matrix'
p23
(dp24
g14
(dp25
g15
I1
ssg15
(dp26
g15
I0
ssg11
(dp27
S'wok.n.01'
p28
I1
ssg16
(dp29
g17
I1
ssg17
(dp30
g17
I0
ssg12
(dp31
S'rice.n.01'
p32
I1
ssg19
(dp33
g19
I0
ssg13
(dp34
S'pepper.n.03'
p35
I1
ssg8
(dp36
S'fill.v.01'
p37
I2
ssg9
(dp38
S'pitcher.n.02'
p39
I1
ssg18
(dp40
g19
I1
ssg20
(dp41
S'pizza.n.01'
p42
I1
ssg10
(dp43
S'milk.n.01'
p44
I1
ssg21
(dp45
S'slice.v.03'
p46
I1
sssb.