ccopy_reg
_reconstructor
p0
(cutils.eval
ConfusionMatrix
p1
c__builtin__
object
p2
Ntp3
Rp4
(dp5
S'labels'
p6
(lp7
S'AC_FILL_INGREDIENT_ML'
p8
aS'AC_FILL_INGREDIENT_L'
p9
aS'AC_FILL_INGREDIENT'
p10
asS'instanceCount'
p11
I15
sS'matrix'
p12
(dp13
g10
(dp14
g10
I4
sS'AC_FILL_INGREDIENT_L'
p15
I1
ssg8
(dp16
g8
I3
sg9
I2
ssg9
(dp17
S'AC_FILL_INGREDIENT'
p18
I0
sg8
I2
sg9
I3
sssb.