ccopy_reg
_reconstructor
p0
(cutils.eval
ConfusionMatrix
p1
c__builtin__
object
p2
Ntp3
Rp4
(dp5
S'labels'
p6
(lp7
S'cut.v.01'
p8
aS'knife.n.01'
p9
aS'banana.n.02'
p10
aS'bacon.n.01'
p11
aS'vegetable.n.01'
p12
aS'egg.n.02'
p13
aS'piece.n.08'
p14
aS'slice.n.06'
p15
aS'zucchini.n.01'
p16
aS'zucchini.n.02'
p17
aS'meat.n.01'
p18
aS'cleaver.n.01'
p19
aS'fork.n.01'
p20
aS'fork.n.04'
p21
aS'cake.n.03'
p22
aS'tomato.n.01'
p23
aS'cheese.n.01'
p24
aS'orange.n.01'
p25
aS'mushroom.n.05'
p26
aS'cabbage.n.01'
p27
aS'flesh.n.01'
p28
aS'pulp.n.02'
p29
aS'lemon.n.01'
p30
aS'potato.n.01'
p31
aS'olive.n.01'
p32
aS'olive.n.04'
p33
asS'instanceCount'
p34
I40
sS'matrix'
p35
(dp36
g26
(dp37
S'mushroom.n.05'
p38
I1
ssg24
(dp39
S'cheese.n.01'
p40
I1
ssg25
(dp41
S'orange.n.01'
p42
I1
ssg17
(dp43
g17
I0
ssg16
(dp44
g17
I1
ssg27
(dp45
S'cabbage.n.01'
p46
I1
ssg8
(dp47
S'cut.v.01'
p48
I16
ssg13
(dp49
S'egg.n.02'
p50
I1
ssg23
(dp51
S'tomato.n.01'
p52
I1
ssg11
(dp53
S'bacon.n.01'
p54
I1
ssg18
(dp55
S'meat.n.01'
p56
I1
ssg31
(dp57
S'potato.n.01'
p58
I1
ssg19
(dp59
S'cleaver.n.01'
p60
I1
ssg32
(dp61
g33
I1
ssg9
(dp62
S'knife.n.01'
p63
I3
ssg10
(dp64
S'banana.n.02'
p65
I1
ssg33
(dp66
g33
I0
ssg21
(dp67
g21
I0
ssg20
(dp68
g21
I1
ssg14
(dp69
g15
I3
ssg12
(dp70
S'vegetable.n.01'
p71
I1
ssg28
(dp72
g29
I1
ssg15
(dp73
g15
I0
ssg22
(dp74
S'cake.n.03'
p75
I1
ssg30
(dp76
S'lemon.n.01'
p77
I1
ssg29
(dp78
g29
I0
sssb.