ccopy_reg
_reconstructor
p0
(cutils.eval
ConfusionMatrix
p1
c__builtin__
object
p2
Ntp3
Rp4
(dp5
S'labels'
p6
(lp7
S'cut.v.01'
p8
aS'fork.n.01'
p9
aS'fork.n.04'
p10
aS'cake.n.03'
p11
aS'tomato.n.01'
p12
aS'knife.n.01'
p13
aS'cheese.n.01'
p14
aS'piece.n.08'
p15
aS'slice.n.06'
p16
aS'orange.n.01'
p17
aS'mushroom.n.05'
p18
aS'cabbage.n.01'
p19
aS'flesh.n.01'
p20
aS'human_body.n.01'
p21
aS'lemon.n.01'
p22
aS'potato.n.01'
p23
aS'olive.n.01'
p24
aS'olive.n.04'
p25
aS'pizza.n.01'
p26
aS'green_onion.n.01'
p27
aS'bread.n.01'
p28
aS'banana.n.02'
p29
aS'bacon.n.01'
p30
aS'bacon.n.02'
p31
asS'instanceCount'
p32
I40
sS'matrix'
p33
(dp34
g18
(dp35
S'mushroom.n.05'
p36
I1
ssg14
(dp37
S'cheese.n.01'
p38
I1
ssg28
(dp39
S'bread.n.01'
p40
I1
ssg17
(dp41
S'orange.n.01'
p42
I1
ssg19
(dp43
S'cabbage.n.01'
p44
I1
ssg27
(dp45
S'green_onion.n.01'
p46
I1
ssg8
(dp47
S'cut.v.01'
p48
I16
ssg12
(dp49
S'tomato.n.01'
p50
I1
ssg31
(dp51
g31
I0
ssg30
(dp52
g31
I1
ssg23
(dp53
S'potato.n.01'
p54
I1
ssg24
(dp55
g25
I1
ssg13
(dp56
S'knife.n.01'
p57
I4
ssg29
(dp58
S'banana.n.02'
p59
I1
ssg25
(dp60
g25
I0
ssg10
(dp61
g10
I0
ssg9
(dp62
g10
I1
ssg21
(dp63
g21
I0
ssg15
(dp64
g16
I3
ssg20
(dp65
g21
I1
ssg16
(dp66
g16
I0
ssg26
(dp67
S'pizza.n.01'
p68
I1
ssg11
(dp69
S'cake.n.03'
p70
I1
ssg22
(dp71
S'lemon.n.01'
p72
I2
sssb.