ccopy_reg
_reconstructor
p0
(cutils.eval
ConfusionMatrix
p1
c__builtin__
object
p2
Ntp3
Rp4
(dp5
S'labels'
p6
(lp7
S'piece.n.08'
p8
aS'cut.v.01'
p9
aS'pizza.n.01'
p10
aS'knife.n.01'
p11
aS'knife.n.02'
p12
aS'green_onion.n.01'
p13
aS'lemon.n.01'
p14
aS'bread.n.01'
p15
aS'banana.n.02'
p16
aS'bacon.n.01'
p17
aS'vegetable.n.01'
p18
aS'egg.n.02'
p19
aS'zucchini.n.01'
p20
aS'zucchini.n.02'
p21
aS'meat.n.01'
p22
aS'kernel.n.01'
p23
aS'cleaver.n.01'
p24
aS'chopper.n.02'
p25
aS'fork.n.01'
p26
aS'crotch.n.02'
p27
aS'cake.n.03'
p28
aS'tomato.n.01'
p29
aS'cheese.n.01'
p30
aS'orange.n.01'
p31
aS'mushroom.n.05'
p32
aS'cabbage.n.01'
p33
asS'instanceCount'
p34
I42
sS'matrix'
p35
(dp36
g32
(dp37
S'mushroom.n.05'
p38
I1
ssg23
(dp39
g23
I0
ssg30
(dp40
S'cheese.n.01'
p41
I1
ssg15
(dp42
S'bread.n.01'
p43
I1
ssg31
(dp44
S'orange.n.01'
p45
I1
ssg21
(dp46
g21
I0
ssg17
(dp47
S'bacon.n.01'
p48
I1
ssg20
(dp49
g21
I1
ssg33
(dp50
S'cabbage.n.01'
p51
I1
ssg13
(dp52
S'green_onion.n.01'
p53
I1
ssg9
(dp54
S'cut.v.01'
p55
I16
ssg19
(dp56
S'egg.n.02'
p57
I1
ssg29
(dp58
S'tomato.n.01'
p59
I1
ssg27
(dp60
g27
I0
ssg22
(dp61
g23
I1
ssg24
(dp62
g25
I1
ssg25
(dp63
g25
I0
ssg11
(dp64
g12
I5
ssg16
(dp65
S'banana.n.02'
p66
I1
ssg12
(dp67
g12
I0
ssg26
(dp68
g27
I1
ssg8
(dp69
S'piece.n.08'
p70
I3
ssg18
(dp71
S'vegetable.n.01'
p72
I1
ssg10
(dp73
S'pizza.n.01'
p74
I1
ssg28
(dp75
S'cake.n.03'
p76
I1
ssg14
(dp77
S'lemon.n.01'
p78
I1
sssb.