ccopy_reg
_reconstructor
p0
(cutils.eval
ConfusionMatrix
p1
c__builtin__
object
p2
Ntp3
Rp4
(dp5
S'labels'
p6
(lp7
S'cut.v.01'
p8
aS'lemon.n.01'
p9
aS'bread.n.01'
p10
aS'knife.n.01'
p11
aS'banana.n.02'
p12
aS'bacon.n.01'
p13
aS'vegetable.n.01'
p14
aS'egg.n.02'
p15
aS'piece.n.08'
p16
aS'zucchini.n.01'
p17
aS'zucchini.n.02'
p18
aS'meat.n.01'
p19
aS'cleaver.n.01'
p20
aS'fork.n.01'
p21
aS'fork.n.04'
p22
aS'cake.n.03'
p23
aS'tomato.n.01'
p24
aS'cheese.n.01'
p25
aS'orange.n.01'
p26
aS'mushroom.n.05'
p27
aS'cabbage.n.01'
p28
aS'flesh.n.01'
p29
aS'pulp.n.02'
p30
asS'instanceCount'
p31
I40
sS'matrix'
p32
(dp33
g27
(dp34
S'mushroom.n.05'
p35
I1
ssg25
(dp36
S'cheese.n.01'
p37
I1
ssg10
(dp38
S'bread.n.01'
p39
I1
ssg26
(dp40
S'orange.n.01'
p41
I1
ssg18
(dp42
g18
I0
ssg17
(dp43
g18
I1
ssg28
(dp44
S'cabbage.n.01'
p45
I1
ssg8
(dp46
S'cut.v.01'
p47
I16
ssg15
(dp48
S'egg.n.02'
p49
I1
ssg24
(dp50
S'tomato.n.01'
p51
I1
ssg13
(dp52
S'bacon.n.01'
p53
I1
ssg19
(dp54
S'meat.n.01'
p55
I1
ssg20
(dp56
S'cleaver.n.01'
p57
I1
ssg11
(dp58
S'knife.n.01'
p59
I4
ssg12
(dp60
S'banana.n.02'
p61
I1
ssg22
(dp62
g22
I0
ssg21
(dp63
g22
I1
ssg16
(dp64
S'piece.n.08'
p65
I2
ssg14
(dp66
S'vegetable.n.01'
p67
I1
ssg29
(dp68
g30
I1
ssg23
(dp69
S'cake.n.03'
p70
I1
ssg9
(dp71
S'lemon.n.01'
p72
I2
ssg30
(dp73
g30
I0
sssb.