ccopy_reg
_reconstructor
p0
(cutils.eval
ConfusionMatrix
p1
c__builtin__
object
p2
Ntp3
Rp4
(dp5
S'labels'
p6
(lp7
S'cut.v.01'
p8
aS'flesh.n.01'
p9
aS'human_body.n.01'
p10
aS'lemon.n.01'
p11
aS'piece.n.08'
p12
aS'potato.n.01'
p13
aS'olive.n.01'
p14
aS'olive.n.04'
p15
aS'pizza.n.01'
p16
aS'knife.n.01'
p17
aS'tongue.n.03'
p18
aS'green_onion.n.01'
p19
aS'bread.n.01'
p20
aS'banana.n.02'
p21
aS'bacon.n.01'
p22
aS'vegetable.n.01'
p23
aS'egg.n.02'
p24
aS'zucchini.n.01'
p25
aS'zucchini.n.02'
p26
aS'meat.n.01'
p27
aS'cleaver.n.01'
p28
aS'chopper.n.02'
p29
aS'fork.n.01'
p30
aS'crotch.n.02'
p31
aS'cake.n.03'
p32
aS'tomato.n.01'
p33
aS'knife.n.02'
p34
aS'kernel.n.01'
p35
aS'cheese.n.01'
p36
aS'orange.n.01'
p37
aS'mushroom.n.05'
p38
aS'cabbage.n.01'
p39
aS'slice.n.06'
p40
aS'fork.n.04'
p41
aS'pulp.n.02'
p42
aS'bacon.n.02'
p43
aS'slice.n.05'
p44
asS'instanceCount'
p45
I408
sS'matrix'
p46
(dp47
g38
(dp48
g38
I8
sg35
I0
sg36
I0
sS'bread.n.01'
p49
I0
sg37
I0
sS'zucchini.n.02'
p50
I0
sS'bacon.n.01'
p51
I0
sS'zucchini.n.01'
p52
I0
sg39
I0
sS'green_onion.n.01'
p53
I0
sS'cut.v.01'
p54
I0
sS'egg.n.02'
p55
I0
sS'tomato.n.01'
p56
I0
sS'olive.n.04'
p57
I0
sg43
I0
sS'crotch.n.02'
p58
I0
sS'meat.n.01'
p59
I0
sS'potato.n.01'
p60
I0
sS'cleaver.n.01'
p61
I0
sS'olive.n.01'
p62
I0
sS'chopper.n.02'
p63
I0
sS'knife.n.01'
p64
I0
sS'banana.n.02'
p65
I0
sg34
I0
sg41
I0
sS'fork.n.01'
p66
I0
sS'human_body.n.01'
p67
I0
sS'piece.n.08'
p68
I0
sS'vegetable.n.01'
p69
I0
sS'flesh.n.01'
p70
I0
sg40
I0
sS'pizza.n.01'
p71
I0
sS'cake.n.03'
p72
I0
sS'lemon.n.01'
p73
I0
sg42
I0
ssg35
(dp74
g38
I0
sg35
I0
sg36
I0
sg49
I0
sg37
I0
sg50
I0
sg51
I0
sg52
I0
sg39
I0
sg53
I0
sg54
I0
sg55
I0
sg56
I0
sg58
I0
sg59
I0
sg61
I0
sg63
I0
sg64
I0
sg65
I0
sg34
I0
sg66
I0
sg68
I0
sg69
I0
sg71
I0
sg72
I0
sg73
I0
ssg36
(dp75
g38
I0
sg36
I8
sg35
I0
sg49
I0
sg37
I0
sg50
I0
sg51
I0
sg52
I0
sg39
I0
sg53
I0
sg44
I0
sg54
I0
sg55
I0
sg56
I0
sg57
I0
sg43
I0
sg58
I0
sg61
I0
sg60
I0
sg59
I0
sg62
I0
sg63
I0
sg64
I0
sg65
I0
sg34
I0
sg41
I0
sg66
I0
sg67
I0
sg68
I0
sg69
I0
sg70
I0
sg40
I0
sg71
I0
sg72
I0
sg73
I0
sg42
I0
ssg20
(dp76
g38
I0
sg35
I0
sg36
I0
sg20
I8
sg37
I0
sg26
I0
sg31
I0
sg25
I0
sg39
I0
sg19
I0
sg44
I0
sg8
I0
sg24
I0
sg33
I0
sg34
I0
sg43
I0
sg22
I0
sg27
I0
sg13
I0
sg28
I0
sg14
I0
sg29
I0
sg17
I0
sg11
I0
sg21
I0
sg15
I0
sS'fork.n.04'
p77
I0
sg30
I0
sg10
I0
sg12
I0
sg23
I0
sg9
I0
sS'slice.n.06'
p78
I0
sg16
I0
sg32
I0
sg18
I0
sS'pulp.n.02'
p79
I0
ssg37
(dp80
g38
I0
sg35
I0
sg36
I0
sg49
I0
sg37
I8
sg50
I0
sg51
I0
sg52
I0
sg39
I0
sg53
I0
sg44
I0
sg54
I0
sg55
I0
sg56
I0
sg57
I0
sg43
I0
sg58
I0
sg59
I0
sg60
I0
sg61
I0
sg62
I0
sg63
I0
sg64
I0
sg65
I0
sg34
I0
sg41
I0
sg66
I0
sg67
I0
sg68
I0
sg69
I0
sg70
I0
sg40
I0
sg71
I0
sg72
I0
sg73
I0
sg42
I0
ssg26
(dp81
g38
I0
sg35
I0
sg36
I0
sg20
I0
sg37
I0
sg26
I0
sg31
I0
sg25
I0
sg39
I0
sg19
I0
sg44
I0
sg8
I0
sg24
I0
sg33
I0
sg34
I0
sg22
I0
sg27
I0
sg13
I0
sg28
I0
sg14
I0
sg29
I0
sg17
I0
sg11
I0
sg21
I0
sg15
I0
sg41
I0
sg30
I0
sg10
I0
sg12
I0
sg23
I0
sg9
I0
sg40
I0
sg16
I0
sg32
I0
sg18
I0
sg42
I0
ssg31
(dp82
g38
I0
sg35
I0
sg36
I0
sg20
I0
sg37
I0
sg26
I0
sg22
I0
sg25
I0
sg39
I0
sg19
I0
sg44
I0
sg8
I0
sg24
I0
sg33
I0
sg34
I0
sg31
I0
sg28
I0
sg13
I0
sg27
I0
sg14
I0
sg29
I0
sg17
I0
sg11
I0
sg21
I0
sg15
I0
sg30
I0
sg10
I0
sg12
I0
sg23
I0
sg9
I0
sg16
I0
sg32
I0
sg18
I0
ssg25
(dp83
g38
I0
sg35
I0
sg36
I0
sg20
I0
sg37
I0
sg26
I8
sg31
I0
sg25
I0
sg39
I0
sg19
I0
sg44
I0
sg8
I0
sg24
I0
sg33
I0
sg34
I0
sg22
I0
sg28
I0
sg13
I0
sg27
I0
sg14
I0
sg29
I0
sg17
I0
sg18
I0
sg21
I0
sg15
I0
sg41
I0
sg30
I0
sg10
I0
sg12
I0
sg23
I0
sg9
I0
sg40
I0
sg16
I0
sg32
I0
sg11
I0
sg42
I0
ssg39
(dp84
g38
I0
sg35
I0
sg36
I0
sg49
I0
sg37
I0
sg50
I0
sg51
I0
sg52
I0
sg39
I8
sg53
I0
sg54
I0
sg55
I0
sg56
I0
sg57
I0
sg43
I0
sg58
I0
sg59
I0
sg60
I0
sg61
I0
sg62
I0
sg63
I0
sg64
I0
sg65
I0
sg34
I0
sg41
I0
sg66
I0
sg67
I0
sg68
I0
sg69
I0
sg70
I0
sg40
I0
sg71
I0
sg72
I0
sg73
I0
sg42
I0
ssg19
(dp85
g38
I0
sg35
I0
sg36
I0
sg20
I0
sg37
I0
sg26
I0
sg31
I0
sg25
I0
sg39
I0
sg19
I8
sg44
I0
sg8
I0
sg24
I0
sg33
I0
sg34
I0
sg43
I0
sg22
I0
sg27
I0
sg13
I0
sg28
I0
sg14
I0
sg29
I0
sg17
I0
sg11
I0
sg21
I0
sg15
I0
sg41
I0
sg30
I0
sg10
I0
sg12
I0
sg23
I0
sg9
I0
sg40
I0
sg16
I0
sg32
I0
sg18
I0
sg42
I0
ssg44
(dp86
S'cheese.n.01'
p87
I0
sS'bread.n.01'
p88
I0
sS'orange.n.01'
p89
I0
sS'zucchini.n.02'
p90
I0
sS'crotch.n.02'
p91
I0
sS'zucchini.n.01'
p92
I0
sS'green_onion.n.01'
p93
I0
sS'pizza.n.01'
p94
I0
sS'cut.v.01'
p95
I0
sS'egg.n.02'
p96
I0
sS'tomato.n.01'
p97
I0
sS'knife.n.02'
p98
I0
sS'bacon.n.01'
p99
I0
sS'meat.n.01'
p100
I0
sS'potato.n.01'
p101
I0
sS'cleaver.n.01'
p102
I0
sS'olive.n.01'
p103
I0
sS'chopper.n.02'
p104
I0
sS'knife.n.01'
p105
I0
sS'banana.n.02'
p106
I0
sS'olive.n.04'
p107
I0
sS'fork.n.01'
p108
I0
sS'piece.n.08'
p109
I0
sS'vegetable.n.01'
p110
I0
sg44
I0
sS'cake.n.03'
p111
I0
sS'lemon.n.01'
p112
I0
ssg8
(dp113
g38
I0
sg35
I0
sg36
I0
sg20
I0
sg37
I0
sg26
I0
sg31
I0
sg25
I0
sg39
I0
sg19
I0
sg44
I0
sg8
I160
sg24
I0
sg33
I0
sg34
I0
sg43
I0
sg22
I0
sg27
I0
sg13
I0
sg28
I0
sg14
I0
sg29
I0
sg17
I0
sg11
I0
sg21
I0
sg15
I0
sg41
I0
sg30
I0
sg10
I0
sg12
I0
sg23
I0
sg9
I0
sg40
I0
sg16
I0
sg32
I0
sg18
I0
sg42
I0
ssg24
(dp114
g38
I0
sg35
I0
sg36
I0
sg20
I0
sg37
I0
sg26
I0
sg31
I0
sg25
I0
sg39
I0
sg19
I0
sg44
I0
sg8
I0
sg24
I8
sg33
I0
sg34
I0
sg22
I0
sg27
I0
sg13
I0
sg28
I0
sg14
I0
sg29
I0
sg17
I0
sg11
I0
sg21
I0
sg15
I0
sg41
I0
sg30
I0
sg10
I0
sg12
I0
sg23
I0
sg9
I0
sg40
I0
sg16
I0
sg32
I0
sg18
I0
sg42
I0
ssg33
(dp115
g38
I0
sg35
I0
sg36
I0
sg20
I0
sg37
I0
sg26
I0
sg31
I0
sg25
I0
sg39
I0
sg19
I0
sg44
I0
sg8
I0
sg24
I0
sg33
I8
sg34
I0
sg43
I0
sg22
I0
sg27
I0
sg13
I0
sg28
I0
sg14
I0
sg29
I0
sg17
I0
sg11
I0
sg21
I0
sg15
I0
sg41
I0
sg30
I0
sg10
I0
sg12
I0
sg23
I0
sg9
I0
sg40
I0
sg16
I0
sg32
I0
sg18
I0
sg42
I0
ssg34
(dp116
g38
I0
sg35
I0
sg36
I0
sg49
I0
sg37
I0
sg50
I0
sg51
I0
sg52
I0
sg39
I0
sg53
I0
sg44
I0
sg54
I0
sg55
I0
sg56
I0
sg107
I0
sg58
I0
sg59
I0
sg101
I0
sg61
I0
sg103
I0
sg63
I0
sg64
I0
sg65
I0
sg34
I0
sg66
I0
sg68
I0
sg69
I0
sg71
I0
sg72
I0
sg73
I0
ssg43
(dp117
S'mushroom.n.05'
p118
I0
sS'cheese.n.01'
p119
I0
sS'bread.n.01'
p120
I0
sS'orange.n.01'
p121
I0
sS'cabbage.n.01'
p122
I0
sS'green_onion.n.01'
p123
I0
sS'cut.v.01'
p124
I0
sS'tomato.n.01'
p125
I0
sg43
I0
sS'bacon.n.01'
p126
I0
sS'potato.n.01'
p127
I0
sS'olive.n.01'
p128
I0
sS'knife.n.01'
p129
I0
sS'banana.n.02'
p130
I0
sS'olive.n.04'
p131
I0
sS'fork.n.04'
p132
I0
sS'fork.n.01'
p133
I0
sS'human_body.n.01'
p134
I0
sS'piece.n.08'
p135
I0
sS'flesh.n.01'
p136
I0
sS'slice.n.06'
p137
I0
sS'pizza.n.01'
p138
I0
sS'cake.n.03'
p139
I0
sS'lemon.n.01'
p140
I0
ssg22
(dp141
g38
I0
sg35
I0
sg36
I0
sg20
I0
sg37
I0
sg26
I0
sg31
I0
sg25
I0
sg39
I0
sg19
I0
sg44
I0
sg8
I0
sg24
I0
sg33
I0
sg34
I0
sg43
I1
sg22
I7
sg27
I0
sg13
I0
sg28
I0
sg14
I0
sg29
I0
sg17
I0
sg11
I0
sg21
I0
sg15
I0
sg77
I0
sg30
I0
sg10
I0
sg12
I0
sg23
I0
sg9
I0
sg137
I0
sg16
I0
sg32
I0
sg18
I0
sg79
I0
ssg27
(dp142
g38
I0
sg35
I1
sg36
I0
sg20
I0
sg37
I0
sg26
I0
sg31
I0
sg25
I0
sg39
I0
sg19
I0
sg44
I0
sg8
I0
sg24
I0
sg33
I0
sg34
I0
sg22
I0
sg27
I7
sg13
I0
sg28
I0
sg14
I0
sg29
I0
sg17
I0
sg11
I0
sg21
I0
sg15
I0
sg41
I0
sg30
I0
sg10
I0
sg12
I0
sg23
I0
sg9
I0
sg40
I0
sg16
I0
sg32
I0
sg18
I0
sg42
I0
ssg13
(dp143
S'mushroom.n.05'
p144
I0
sS'cheese.n.01'
p145
I0
sg20
I0
sS'orange.n.01'
p146
I0
sg26
I0
sg31
I0
sg25
I0
sS'cabbage.n.01'
p147
I0
sg19
I0
sg44
I0
sg8
I0
sg24
I0
sg33
I0
sg98
I0
sg43
I0
sg22
I0
sg27
I0
sg13
I8
sg28
I0
sg14
I0
sg29
I0
sg17
I0
sg11
I0
sg21
I0
sg15
I0
sg41
I0
sg30
I0
sg10
I0
sg12
I0
sg23
I0
sg9
I0
sg40
I0
sg16
I0
sg32
I0
sg18
I0
sg42
I0
ssg28
(dp148
g38
I0
sg35
I0
sg36
I0
sg20
I0
sg37
I0
sg26
I0
sg31
I0
sg25
I0
sg39
I0
sg19
I0
sg44
I0
sg8
I0
sg24
I0
sg33
I0
sg34
I0
sg22
I0
sg28
I5
sg13
I0
sg27
I0
sg14
I0
sg29
I3
sg17
I0
sg11
I0
sg21
I0
sg15
I0
sg41
I0
sg30
I0
sg10
I0
sg12
I0
sg23
I0
sg9
I0
sg40
I0
sg16
I0
sg32
I0
sg18
I0
sg42
I0
ssg14
(dp149
g144
I0
sg145
I0
sg20
I0
sg146
I0
sg26
I0
sg31
I0
sg25
I0
sg147
I0
sg19
I0
sg44
I0
sg8
I0
sg24
I0
sg33
I0
sg98
I0
sg43
I0
sg22
I0
sg27
I0
sg13
I0
sg28
I0
sg14
I0
sg29
I0
sg17
I0
sg11
I0
sg21
I0
sg15
I8
sg41
I0
sg30
I0
sg10
I0
sg12
I0
sg23
I0
sg9
I0
sg40
I0
sg16
I0
sg32
I0
sg18
I0
sg42
I0
ssg29
(dp150
g38
I0
sg35
I0
sg36
I0
sg20
I0
sg37
I0
sg26
I0
sg31
I0
sg25
I0
sg39
I0
sg19
I0
sg44
I0
sg8
I0
sg24
I0
sg33
I0
sg34
I0
sg22
I0
sg27
I0
sg13
I0
sg28
I0
sg14
I0
sg29
I0
sg17
I0
sg11
I0
sg21
I0
sg15
I0
sg30
I0
sg10
I0
sg12
I0
sg23
I0
sg9
I0
sg16
I0
sg32
I0
sg18
I0
ssg17
(dp151
g38
I0
sg35
I0
sg36
I0
sg20
I0
sg37
I0
sg26
I0
sg31
I0
sg25
I0
sg39
I0
sg19
I0
sg44
I0
sg8
I0
sg24
I0
sg33
I0
sg34
I10
sg43
I0
sg22
I0
sg27
I0
sg13
I0
sg28
I0
sg14
I0
sg29
I0
sg17
I25
sg11
I0
sg21
I0
sg15
I0
sg41
I0
sg30
I0
sg10
I0
sg12
I0
sg23
I0
sg9
I0
sg40
I0
sg16
I0
sg32
I0
sg18
I5
sg42
I0
ssg11
(dp152
g38
I0
sg35
I0
sg36
I0
sg20
I0
sg37
I0
sg26
I0
sg31
I0
sg25
I0
sg39
I0
sg19
I0
sg44
I0
sg8
I0
sg24
I0
sg33
I0
sg34
I0
sg43
I0
sg22
I0
sg27
I0
sg13
I0
sg28
I0
sg14
I0
sg29
I0
sg17
I0
sg11
I16
sg21
I0
sg15
I0
sg41
I0
sg30
I0
sg10
I0
sg12
I0
sg23
I0
sg9
I0
sg40
I0
sg16
I0
sg32
I0
sg18
I0
sg42
I0
ssg21
(dp153
g38
I0
sg35
I0
sg36
I0
sg20
I0
sg37
I0
sg26
I0
sg31
I0
sg25
I0
sg39
I0
sg19
I0
sg44
I0
sg8
I0
sg24
I0
sg33
I0
sg34
I0
sg43
I0
sg22
I0
sg27
I0
sg13
I0
sg28
I0
sg14
I0
sg29
I0
sg17
I0
sg11
I0
sg21
I8
sg15
I0
sg77
I0
sg30
I0
sg10
I0
sg12
I0
sg23
I0
sg9
I0
sg137
I0
sg16
I0
sg32
I0
sg18
I0
sg79
I0
ssg15
(dp154
g144
I0
sg145
I0
sg20
I0
sg146
I0
sg26
I0
sg31
I0
sg25
I0
sg147
I0
sg19
I0
sg44
I0
sg8
I0
sg24
I0
sg33
I0
sg98
I0
sg43
I0
sg22
I0
sg27
I0
sg13
I0
sg28
I0
sg14
I0
sg29
I0
sg17
I0
sg11
I0
sg21
I0
sg15
I0
sg41
I0
sg30
I0
sg10
I0
sg12
I0
sg23
I0
sg9
I0
sg40
I0
sg16
I0
sg32
I0
sg18
I0
sg42
I0
ssg41
(dp155
g144
I0
sg145
I0
sS'bread.n.01'
p156
I0
sg146
I0
sS'zucchini.n.02'
p157
I0
sS'zucchini.n.01'
p158
I0
sg147
I0
sS'green_onion.n.01'
p159
I0
sS'cut.v.01'
p160
I0
sS'egg.n.02'
p161
I0
sS'tomato.n.01'
p162
I0
sg43
I0
sS'bacon.n.01'
p163
I0
sS'meat.n.01'
p164
I0
sg60
I0
sS'cleaver.n.01'
p165
I0
sg62
I0
sS'knife.n.01'
p166
I0
sS'banana.n.02'
p167
I0
sg57
I0
sg41
I0
sS'fork.n.01'
p168
I0
sg67
I0
sS'piece.n.08'
p169
I0
sS'vegetable.n.01'
p170
I0
sg70
I0
sg40
I0
sS'pizza.n.01'
p171
I0
sS'cake.n.03'
p172
I0
sS'lemon.n.01'
p173
I0
sg42
I0
ssg30
(dp174
g38
I0
sg35
I0
sg36
I0
sg20
I0
sg37
I0
sg26
I0
sg31
I3
sg25
I0
sg39
I0
sg19
I0
sg44
I0
sg8
I0
sg24
I0
sg33
I0
sg34
I0
sg43
I0
sg22
I0
sg28
I0
sg13
I0
sg27
I0
sg14
I0
sg29
I0
sg17
I0
sg11
I0
sg21
I0
sg15
I0
sg41
I5
sg30
I0
sg10
I0
sg12
I0
sg23
I0
sg9
I0
sg40
I0
sg16
I0
sg32
I0
sg18
I0
sg42
I0
ssg10
(dp175
S'mushroom.n.05'
p176
I0
sS'cheese.n.01'
p177
I0
sg20
I0
sS'orange.n.01'
p178
I0
sg26
I0
sg31
I0
sg25
I0
sS'cabbage.n.01'
p179
I0
sg19
I0
sg8
I0
sg24
I0
sg33
I0
sg43
I0
sg22
I0
sg27
I0
sg13
I0
sg28
I0
sg14
I0
sg29
I0
sg17
I0
sg11
I0
sg21
I0
sg15
I0
sS'fork.n.04'
p180
I0
sg30
I0
sg10
I0
sg12
I0
sg23
I0
sg9
I0
sg78
I0
sg16
I0
sg32
I0
sg18
I0
ssg12
(dp181
g38
I0
sg35
I0
sg36
I0
sg20
I0
sg37
I0
sg26
I0
sg31
I0
sg25
I0
sg39
I0
sg19
I0
sg44
I4
sg8
I0
sg24
I0
sg33
I0
sg34
I0
sg43
I0
sg22
I0
sg27
I0
sg13
I0
sg28
I0
sg14
I0
sg29
I0
sg17
I0
sg11
I0
sg21
I0
sg15
I0
sg41
I0
sg30
I0
sg10
I0
sg12
I12
sg23
I0
sg9
I0
sg40
I16
sg16
I0
sg32
I0
sg18
I0
sg42
I0
ssg23
(dp182
g38
I0
sg35
I0
sg36
I0
sg20
I0
sg37
I0
sg26
I0
sg31
I0
sg25
I0
sg39
I0
sg19
I0
sg44
I0
sg8
I0
sg24
I0
sg33
I0
sg34
I0
sg22
I0
sg27
I0
sg13
I0
sg28
I0
sg14
I0
sg29
I0
sg17
I0
sg11
I0
sg21
I0
sg15
I0
sg41
I0
sg30
I0
sg10
I0
sg12
I0
sg23
I8
sg9
I0
sg40
I0
sg16
I0
sg32
I0
sg18
I0
sg42
I0
ssg9
(dp183
g144
I0
sg145
I0
sg20
I0
sg146
I0
sg26
I0
sg31
I0
sg25
I0
sg147
I0
sg19
I0
sg8
I0
sg24
I0
sg33
I0
sg43
I0
sg22
I0
sg27
I0
sg13
I0
sg28
I0
sg14
I0
sg29
I0
sg17
I0
sg11
I0
sg21
I0
sg15
I0
sg41
I0
sg30
I0
sg10
I5
sg12
I0
sg23
I0
sg9
I0
sg40
I0
sg16
I0
sg32
I0
sg18
I0
sg42
I3
ssg40
(dp184
g144
I0
sg145
I0
sS'bread.n.01'
p185
I0
sg146
I0
sg157
I0
sg158
I0
sg147
I0
sg159
I0
sg160
I0
sg161
I0
sg162
I0
sg43
I0
sg126
I0
sg164
I0
sg60
I0
sg165
I0
sg62
I0
sg166
I0
sg130
I0
sg57
I0
sg41
I0
sg168
I0
sg67
I0
sg169
I0
sg170
I0
sg70
I0
sg40
I0
sg171
I0
sg172
I0
sg173
I0
sg42
I0
ssg16
(dp186
g38
I0
sg35
I0
sg36
I0
sg20
I0
sg37
I0
sg26
I0
sg31
I0
sg25
I0
sg39
I0
sg19
I0
sg44
I0
sg8
I0
sg24
I0
sg33
I0
sg34
I0
sg43
I0
sg22
I0
sg27
I0
sg13
I0
sg28
I0
sg14
I0
sg29
I0
sg17
I0
sg11
I0
sg21
I0
sg15
I0
sg41
I0
sg30
I0
sg10
I0
sg12
I0
sg23
I0
sg9
I0
sg40
I0
sg16
I8
sg32
I0
sg18
I0
sg42
I0
ssg32
(dp187
g38
I0
sg35
I0
sg36
I0
sg20
I0
sg37
I0
sg26
I0
sg31
I0
sg25
I0
sg39
I0
sg19
I0
sg44
I0
sg8
I0
sg24
I0
sg33
I0
sg34
I0
sg43
I0
sg22
I0
sg27
I0
sg13
I0
sg28
I0
sg14
I0
sg29
I0
sg17
I0
sg11
I0
sg21
I0
sg15
I0
sg41
I0
sg30
I0
sg10
I0
sg12
I0
sg23
I0
sg9
I0
sg40
I0
sg16
I0
sg32
I8
sg18
I0
sg42
I0
ssg18
(dp188
g20
I0
sg26
I0
sg31
I0
sg25
I0
sg19
I0
sg8
I0
sg24
I0
sg33
I0
sg22
I0
sg27
I0
sg13
I0
sg28
I0
sg14
I0
sg29
I0
sg17
I0
sg11
I0
sg21
I0
sg15
I0
sg30
I0
sg10
I0
sg12
I0
sg23
I0
sg9
I0
sg16
I0
sg32
I0
sg18
I0
ssg42
(dp189
g144
I0
sg145
I0
sg156
I0
sg146
I0
sg157
I0
sg158
I0
sg147
I0
sg159
I0
sg160
I0
sg161
I0
sg162
I0
sg163
I0
sg164
I0
sg60
I0
sg165
I0
sg62
I0
sg166
I0
sg167
I0
sg57
I0
sg41
I0
sg168
I0
sg169
I0
sg170
I0
sg70
I0
sg40
I0
sg171
I0
sg172
I0
sg173
I0
sg42
I0
sssb.