ccopy_reg
_reconstructor
p0
(cutils.eval
ConfusionMatrix
p1
c__builtin__
object
p2
Ntp3
Rp4
(dp5
S'labels'
p6
(lp7
S'zucchini.n.01'
p8
aS'zucchini.n.02'
p9
aS'cut.v.01'
p10
aS'meat.n.01'
p11
aS'cleaver.n.01'
p12
aS'fork.n.01'
p13
aS'fork.n.04'
p14
aS'cake.n.03'
p15
aS'tomato.n.01'
p16
aS'knife.n.01'
p17
aS'cheese.n.01'
p18
aS'piece.n.08'
p19
aS'slice.n.06'
p20
aS'orange.n.01'
p21
aS'mushroom.n.05'
p22
aS'cabbage.n.01'
p23
aS'flesh.n.01'
p24
aS'human_body.n.01'
p25
aS'lemon.n.01'
p26
aS'potato.n.01'
p27
aS'olive.n.01'
p28
aS'olive.n.04'
p29
aS'pizza.n.01'
p30
aS'green_onion.n.01'
p31
aS'bread.n.01'
p32
asS'instanceCount'
p33
I40
sS'matrix'
p34
(dp35
g22
(dp36
S'mushroom.n.05'
p37
I1
ssg18
(dp38
S'cheese.n.01'
p39
I1
ssg32
(dp40
S'bread.n.01'
p41
I1
ssg21
(dp42
S'orange.n.01'
p43
I1
ssg9
(dp44
g9
I0
ssg8
(dp45
g9
I1
ssg23
(dp46
S'cabbage.n.01'
p47
I1
ssg31
(dp48
S'green_onion.n.01'
p49
I1
ssg10
(dp50
S'cut.v.01'
p51
I16
ssg16
(dp52
S'tomato.n.01'
p53
I1
ssg12
(dp54
S'cleaver.n.01'
p55
I1
ssg27
(dp56
S'potato.n.01'
p57
I1
ssg11
(dp58
S'meat.n.01'
p59
I1
ssg28
(dp60
g29
I1
ssg17
(dp61
S'knife.n.01'
p62
I3
ssg29
(dp63
g29
I0
ssg14
(dp64
g14
I0
ssg13
(dp65
g14
I1
ssg25
(dp66
g25
I0
ssg19
(dp67
S'piece.n.08'
p68
I2
sg20
I1
ssg24
(dp69
g25
I1
ssg20
(dp70
g20
I0
ssg30
(dp71
S'pizza.n.01'
p72
I1
ssg15
(dp73
S'cake.n.03'
p74
I1
ssg26
(dp75
S'lemon.n.01'
p76
I2
sssb.