ccopy_reg
_reconstructor
p0
(cutils.eval
ConfusionMatrix
p1
c__builtin__
object
p2
Ntp3
Rp4
(dp5
S'labels'
p6
(lp7
S'cut.v.01'
p8
aS'mushroom.n.05'
p9
aS'cabbage.n.01'
p10
aS'flesh.n.01'
p11
aS'human_body.n.01'
p12
aS'lemon.n.01'
p13
aS'piece.n.08'
p14
aS'slice.n.06'
p15
aS'potato.n.01'
p16
aS'olive.n.01'
p17
aS'olive.n.04'
p18
aS'pizza.n.01'
p19
aS'knife.n.01'
p20
aS'green_onion.n.01'
p21
aS'bread.n.01'
p22
aS'banana.n.02'
p23
aS'bacon.n.01'
p24
aS'vegetable.n.01'
p25
aS'egg.n.02'
p26
aS'zucchini.n.01'
p27
aS'zucchini.n.02'
p28
aS'meat.n.01'
p29
aS'cleaver.n.01'
p30
asS'instanceCount'
p31
I40
sS'matrix'
p32
(dp33
g9
(dp34
S'mushroom.n.05'
p35
I1
ssg22
(dp36
S'bread.n.01'
p37
I1
ssg28
(dp38
g28
I0
ssg27
(dp39
g28
I1
ssg20
(dp40
S'knife.n.01'
p41
I4
ssg21
(dp42
S'green_onion.n.01'
p43
I1
ssg8
(dp44
S'cut.v.01'
p45
I16
ssg26
(dp46
S'egg.n.02'
p47
I1
ssg24
(dp48
S'bacon.n.01'
p49
I1
ssg29
(dp50
S'meat.n.01'
p51
I1
ssg16
(dp52
S'potato.n.01'
p53
I1
ssg30
(dp54
S'cleaver.n.01'
p55
I1
ssg17
(dp56
g18
I1
ssg10
(dp57
S'cabbage.n.01'
p58
I1
ssg23
(dp59
S'banana.n.02'
p60
I1
ssg18
(dp61
g18
I0
ssg12
(dp62
g12
I0
ssg14
(dp63
S'piece.n.08'
p64
I2
sg15
I1
ssg25
(dp65
S'vegetable.n.01'
p66
I1
ssg11
(dp67
g12
I1
ssg15
(dp68
g15
I0
ssg19
(dp69
S'pizza.n.01'
p70
I1
ssg13
(dp71
S'lemon.n.01'
p72
I2
sssb.