ccopy_reg
_reconstructor
p0
(cutils.eval
ConfusionMatrix
p1
c__builtin__
object
p2
Ntp3
Rp4
(dp5
S'labels'
p6
(lp7
S'jar.n.01'
p8
aS'fill.v.01'
p9
aS'saltcellar.n.01'
p10
aS'occupy.v.03'
p11
aS'salt.n.02'
p12
asS'instanceCount'
p13
I5
sS'matrix'
p14
(dp15
g12
(dp16
S'salt.n.02'
p17
I1
ssg8
(dp18
S'jar.n.01'
p19
I1
ssg10
(dp20
S'saltcellar.n.01'
p21
I1
ssg11
(dp22
g11
I0
ssg9
(dp23
g11
I1
sS'fill.v.01'
p24
I1
sssb.