ccopy_reg
_reconstructor
p0
(cutils.eval
ConfusionMatrix
p1
c__builtin__
object
p2
Ntp3
Rp4
(dp5
S'labels'
p6
(lp7
S'slice.v.03'
p8
aS'bacon.n.01'
p9
aS'cheese.n.01'
p10
aS'olive.n.01'
p11
aS'olive.n.04'
p12
aS'zucchini.n.01'
p13
aS'zucchini.n.02'
p14
aS'piece.n.08'
p15
aS'slice.n.06'
p16
aS'pizza.n.01'
p17
aS'flesh.n.01'
p18
aS'pulp.n.02'
p19
aS'tomato.n.01'
p20
aS'tomato.n.02'
p21
aS'onion.n.03'
p22
aS'onion.n.02'
p23
aS'mustard.n.02'
p24
aS'mustard.n.03'
p25
aS'egg.n.02'
p26
aS'cabbage.n.01'
p27
aS'potato.n.01'
p28
aS'meat.n.01'
p29
aS'cleaver.n.01'
p30
aS'mushroom.n.05'
p31
asS'instanceCount'
p32
I30
sS'matrix'
p33
(dp34
g31
(dp35
S'mushroom.n.05'
p36
I1
ssg10
(dp37
S'cheese.n.01'
p38
I1
ssg14
(dp39
g14
I0
ssg13
(dp40
g14
I1
ssg24
(dp41
g25
I1
ssg25
(dp42
g25
I0
ssg26
(dp43
S'egg.n.02'
p44
I1
ssg20
(dp45
g21
I1
ssg9
(dp46
S'bacon.n.01'
p47
I1
ssg29
(dp48
S'meat.n.01'
p49
I1
ssg28
(dp50
S'potato.n.01'
p51
I1
ssg30
(dp52
S'cleaver.n.01'
p53
I1
ssg8
(dp54
S'slice.v.03'
p55
I11
ssg11
(dp56
g12
I1
ssg27
(dp57
S'cabbage.n.01'
p58
I1
ssg12
(dp59
g12
I0
ssg15
(dp60
S'piece.n.08'
p61
I1
sg16
I3
ssg18
(dp62
g19
I1
ssg16
(dp63
g16
I0
ssg17
(dp64
S'pizza.n.01'
p65
I1
ssg19
(dp66
g19
I0
ssg21
(dp67
g21
I0
ssg22
(dp68
g23
I1
ssg23
(dp69
g23
I0
sssb.