ccopy_reg
_reconstructor
p0
(cutils.eval
ConfusionMatrix
p1
c__builtin__
object
p2
Ntp3
Rp4
(dp5
S'labels'
p6
(lp7
S'piece.n.08'
p8
aS'slice.n.06'
p9
aS'pizza.n.01'
p10
aS'slice.v.03'
p11
aS'flesh.n.01'
p12
aS'pulp.n.02'
p13
aS'tomato.n.01'
p14
aS'tomato.n.02'
p15
aS'slice.n.04'
p16
aS'onion.n.03'
p17
aS'onion.n.02'
p18
aS'mustard.n.02'
p19
aS'egg.n.02'
p20
aS'cabbage.n.01'
p21
aS'potato.n.01'
p22
aS'meat.n.01'
p23
aS'cleaver.n.01'
p24
aS'mushroom.n.05'
p25
aS'lemon.n.01'
p26
aS'vegetable.n.01'
p27
aS'knife.n.01'
p28
aS'orange.n.01'
p29
aS'green_onion.n.01'
p30
aS'tongue.n.03'
p31
aS'bread.n.01'
p32
aS'banana.n.02'
p33
aS'bacon.n.01'
p34
aS'cheese.n.01'
p35
aS'olive.n.01'
p36
aS'olive.n.03'
p37
aS'zucchini.n.01'
p38
aS'zucchini.n.02'
p39
aS'olive.n.04'
p40
aS'mustard.n.01'
p41
aS'chop.n.05'
p42
aS'bacon.n.02'
p43
aS'human_body.n.01'
p44
aS'mustard.n.03'
p45
asS'instanceCount'
p46
I312
sS'matrix'
p47
(dp48
g25
(dp49
g25
I6
sS'cheese.n.01'
p50
I0
sS'bread.n.01'
p51
I0
sg29
I0
sS'zucchini.n.02'
p52
I0
sS'zucchini.n.01'
p53
I0
sg28
I0
sg30
I0
sg42
I0
sg41
I0
sg19
I0
sS'mustard.n.03'
p54
I0
sg15
I0
sg14
I0
sg43
I0
sS'bacon.n.01'
p55
I0
sg24
I0
sg22
I0
sg23
I0
sg11
I0
sS'olive.n.01'
p56
I0
sg21
I0
sS'tongue.n.03'
p57
I0
sS'banana.n.02'
p58
I0
sg40
I0
sg8
I0
sg27
I0
sg12
I0
sg9
I0
sg16
I0
sg10
I0
sg13
I0
sg26
I0
sg20
I0
sg17
I0
sg18
I0
ssg35
(dp59
S'mushroom.n.05'
p60
I0
sg35
I6
sg32
I0
sS'orange.n.01'
p61
I0
sg39
I0
sg38
I0
sS'cabbage.n.01'
p62
I0
sS'green_onion.n.01'
p63
I0
sS'piece.n.08'
p64
I0
sS'mustard.n.01'
p65
I0
sS'mustard.n.02'
p66
I0
sg45
I0
sS'egg.n.02'
p67
I0
sS'tomato.n.01'
p68
I0
sg43
I0
sg34
I0
sS'meat.n.01'
p69
I0
sS'potato.n.01'
p70
I0
sS'cleaver.n.01'
p71
I0
sg37
I0
sS'slice.v.03'
p72
I0
sg36
I0
sS'knife.n.01'
p73
I0
sS'lemon.n.01'
p74
I0
sg33
I0
sS'olive.n.04'
p75
I0
sg44
I0
sg42
I0
sS'vegetable.n.01'
p76
I0
sS'flesh.n.01'
p77
I0
sS'slice.n.06'
p78
I0
sS'pizza.n.01'
p79
I0
sS'pulp.n.02'
p80
I0
sg31
I0
sS'tomato.n.02'
p81
I0
sS'onion.n.03'
p82
I0
sS'onion.n.02'
p83
I0
ssg32
(dp84
g60
I0
sg35
I0
sg32
I6
sg61
I0
sg39
I0
sg38
I0
sg62
I0
sg63
I0
sg64
I0
sg65
I0
sg66
I0
sg45
I0
sg67
I0
sg68
I0
sg43
I0
sg34
I0
sg69
I0
sg70
I0
sg71
I0
sg37
I0
sg72
I0
sg36
I0
sg73
I0
sg74
I0
sg33
I0
sg75
I0
sg44
I0
sg42
I0
sg76
I0
sg77
I0
sg78
I0
sg79
I0
sg80
I0
sg31
I0
sg81
I0
sg82
I0
sg83
I0
ssg29
(dp85
g25
I0
sg35
I0
sg32
I0
sg29
I6
sg39
I0
sg38
I0
sg28
I0
sg30
I0
sg42
I0
sg19
I0
sg15
I0
sg14
I0
sg43
I0
sg34
I0
sg24
I0
sg22
I0
sg23
I0
sg37
I0
sg11
I0
sg36
I0
sg21
I0
sg31
I0
sg33
I0
sg75
I0
sg44
I0
sg8
I0
sg27
I0
sg12
I0
sg9
I0
sg16
I0
sg10
I0
sg13
I0
sg26
I0
sg20
I0
sg17
I0
sg18
I0
ssg39
(dp86
S'mushroom.n.05'
p87
I0
sg35
I0
sg32
I0
sg61
I0
sg39
I0
sg38
I0
sS'cabbage.n.01'
p88
I0
sg63
I0
sg41
I0
sS'mustard.n.02'
p89
I0
sg45
I0
sS'egg.n.02'
p90
I0
sg68
I0
sg34
I0
sS'meat.n.01'
p91
I0
sS'potato.n.01'
p92
I0
sS'cleaver.n.01'
p93
I0
sg37
I0
sg72
I0
sg36
I0
sg73
I0
sg74
I0
sg33
I0
sg40
I0
sg44
I0
sg64
I0
sg76
I0
sS'flesh.n.01'
p94
I0
sS'slice.n.06'
p95
I0
sS'pizza.n.01'
p96
I0
sS'onion.n.03'
p97
I0
sg31
I0
sg81
I0
sS'pulp.n.02'
p98
I0
sS'onion.n.02'
p99
I0
ssg38
(dp100
g87
I0
sg35
I0
sg32
I0
sg61
I0
sg39
I6
sg38
I0
sg88
I0
sg63
I0
sg41
I0
sg89
I0
sg45
I0
sg90
I0
sg68
I0
sg34
I0
sg91
I0
sg92
I0
sg93
I0
sg37
I0
sg72
I0
sg36
I0
sg73
I0
sg74
I0
sg33
I0
sg40
I0
sg44
I0
sg64
I0
sg76
I0
sg94
I0
sg95
I0
sg96
I0
sg97
I0
sg31
I0
sg81
I0
sg98
I0
sg99
I0
ssg28
(dp101
g25
I0
sg35
I0
sg32
I0
sg29
I0
sg39
I0
sg38
I0
sg21
I0
sg30
I0
sg42
I0
sg41
I0
sg19
I0
sg45
I0
sg15
I0
sg14
I0
sg43
I0
sg34
I0
sg24
I0
sg22
I0
sg23
I0
sg37
I0
sg11
I0
sg36
I0
sg28
I17
sg31
I13
sg33
I0
sg40
I0
sg44
I0
sg8
I0
sg27
I0
sg12
I0
sg9
I0
sg16
I0
sg10
I0
sg13
I0
sg26
I0
sg20
I0
sg17
I0
sg18
I0
ssg30
(dp102
S'mushroom.n.05'
p103
I0
sg35
I0
sg32
I0
sS'orange.n.01'
p104
I0
sg39
I0
sg38
I0
sS'knife.n.01'
p105
I0
sg30
I6
sg42
I0
sg65
I0
sS'mustard.n.02'
p106
I0
sS'tomato.n.02'
p107
I0
sS'tomato.n.01'
p108
I0
sg43
I0
sg34
I0
sS'cleaver.n.01'
p109
I0
sS'potato.n.01'
p110
I0
sS'meat.n.01'
p111
I0
sg37
I0
sS'slice.v.03'
p112
I0
sg36
I0
sS'cabbage.n.01'
p113
I0
sS'lemon.n.01'
p114
I0
sg33
I0
sg75
I0
sg44
I0
sS'piece.n.08'
p115
I0
sS'vegetable.n.01'
p116
I0
sg77
I0
sS'slice.n.06'
p117
I0
sg79
I0
sg31
I0
sS'egg.n.02'
p118
I0
sS'onion.n.03'
p119
I0
sS'onion.n.02'
p120
I0
ssg42
(dp121
g60
I0
sS'slice.v.03'
p122
I0
sS'vegetable.n.01'
p123
I0
sS'knife.n.01'
p124
I0
sg57
I0
sg58
I0
sg55
I0
sS'tomato.n.01'
p125
I0
sg43
I0
sS'green_onion.n.01'
p126
I0
sg51
I0
sg50
I0
sS'orange.n.01'
p127
I0
sg69
I0
sS'lemon.n.01'
p128
I0
sS'potato.n.01'
p129
I0
sS'cabbage.n.01'
p130
I0
sg42
I0
sS'piece.n.08'
p131
I0
sg71
I0
ssg41
(dp132
g87
I0
sS'cheese.n.01'
p133
I0
sS'bread.n.01'
p134
I0
sg52
I0
sg53
I0
sS'knife.n.01'
p135
I0
sS'green_onion.n.01'
p136
I0
sg41
I0
sg89
I0
sg90
I0
sS'tomato.n.01'
p137
I0
sS'bacon.n.01'
p138
I0
sg91
I0
sg92
I0
sg93
I0
sS'slice.v.03'
p139
I0
sg56
I0
sg88
I0
sS'banana.n.02'
p140
I0
sg40
I0
sS'human_body.n.01'
p141
I0
sS'piece.n.08'
p142
I0
sS'vegetable.n.01'
p143
I0
sg94
I0
sg95
I0
sg96
I0
sg98
I0
sS'lemon.n.01'
p144
I0
sg97
I0
sg99
I0
ssg19
(dp145
g25
I0
sg133
I0
sg134
I0
sg29
I0
sg52
I0
sg53
I0
sg28
I0
sg30
I0
sg41
I2
sg19
I2
sg45
I2
sg15
I0
sg14
I0
sg138
I0
sg24
I0
sg22
I0
sg23
I0
sg11
I0
sg56
I0
sg21
I0
sg140
I0
sg40
I0
sg141
I0
sg8
I0
sg27
I0
sg12
I0
sg9
I0
sg16
I0
sg10
I0
sg13
I0
sg26
I0
sg20
I0
sg17
I0
sg18
I0
ssg45
(dp146
S'mushroom.n.05'
p147
I0
sS'cheese.n.01'
p148
I0
sS'bread.n.01'
p149
I0
sS'zucchini.n.02'
p150
I0
sS'zucchini.n.01'
p151
I0
sg62
I0
sS'mustard.n.02'
p152
I0
sg45
I0
sS'egg.n.02'
p153
I0
sS'tomato.n.01'
p154
I0
sS'bacon.n.01'
p155
I0
sS'meat.n.01'
p156
I0
sg70
I0
sS'cleaver.n.01'
p157
I0
sS'slice.v.03'
p158
I0
sS'olive.n.01'
p159
I0
sS'knife.n.01'
p160
I0
sS'banana.n.02'
p161
I0
sS'olive.n.04'
p162
I0
sS'piece.n.08'
p163
I0
sS'flesh.n.01'
p164
I0
sS'slice.n.06'
p165
I0
sS'pizza.n.01'
p166
I0
sg80
I0
sg81
I0
sS'onion.n.03'
p167
I0
sS'onion.n.02'
p168
I0
ssg15
(dp169
g25
I0
sg148
I0
sg149
I0
sg29
I0
sg150
I0
sg151
I0
sg28
I0
sg30
I0
sg19
I0
sg45
I0
sg15
I0
sg14
I0
sg155
I0
sg24
I0
sg22
I0
sg23
I0
sg11
I0
sg159
I0
sg21
I0
sg161
I0
sg162
I0
sg8
I0
sg27
I0
sg12
I0
sg9
I0
sg16
I0
sg10
I0
sg13
I0
sg26
I0
sg20
I0
sg17
I0
sg18
I0
ssg14
(dp170
g25
I0
sg35
I0
sg32
I0
sg29
I0
sg39
I0
sg38
I0
sg28
I0
sg30
I0
sg42
I0
sg41
I0
sg19
I0
sg45
I0
sg15
I4
sg14
I8
sg43
I0
sg34
I0
sg24
I0
sg22
I0
sg23
I0
sg37
I0
sg11
I0
sg36
I0
sg21
I0
sg31
I0
sg33
I0
sg40
I0
sg44
I0
sg8
I0
sg27
I0
sg12
I0
sg9
I0
sg16
I0
sg10
I0
sg13
I0
sg26
I0
sg20
I0
sg17
I0
sg18
I0
ssg43
(dp171
g60
I0
sg122
I0
sg123
I0
sg124
I0
sg57
I0
sg58
I0
sg55
I0
sg125
I0
sg43
I0
sg126
I0
sg51
I0
sg50
I0
sg127
I0
sg71
I0
sg128
I0
sg42
I0
sg131
I0
sg69
I0
ssg34
(dp172
g60
I0
sg35
I0
sg32
I0
sg61
I0
sg39
I0
sg38
I0
sg62
I0
sg63
I0
sg64
I0
sg65
I0
sg66
I0
sg45
I0
sg67
I0
sg68
I0
sg43
I1
sg34
I5
sg69
I0
sg70
I0
sg71
I0
sg37
I0
sg72
I0
sg36
I0
sg73
I0
sg74
I0
sg33
I0
sg75
I0
sg44
I0
sg42
I0
sg76
I0
sg77
I0
sg78
I0
sg79
I0
sg80
I0
sg31
I0
sg81
I0
sg82
I0
sg83
I0
ssg24
(dp173
g25
I0
sg50
I0
sg51
I0
sg29
I0
sg52
I0
sg53
I0
sg28
I0
sg30
I0
sg42
I2
sg41
I0
sg19
I0
sg54
I0
sg15
I0
sg14
I0
sg43
I0
sg55
I0
sg23
I0
sg22
I0
sg24
I4
sg11
I0
sg56
I0
sg21
I0
sg57
I0
sg58
I0
sg40
I0
sg8
I0
sg27
I0
sg12
I0
sg9
I0
sg16
I0
sg10
I0
sg13
I0
sg26
I0
sg20
I0
sg17
I0
sg18
I0
ssg22
(dp174
g25
I0
sg148
I0
sg149
I0
sg29
I0
sg52
I0
sg53
I0
sg28
I0
sg30
I0
sS'chop.n.05'
p175
I0
sg41
I0
sg19
I0
sg45
I0
sg20
I0
sg14
I0
sg155
I0
sg24
I0
sg22
I6
sg23
I0
sg11
I0
sg56
I0
sg21
I0
sS'tongue.n.03'
p176
I0
sg161
I0
sg40
I0
sg8
I0
sg27
I0
sg12
I0
sg9
I0
sg16
I0
sg10
I0
sg13
I0
sg26
I0
sg15
I0
sg17
I0
sg18
I0
ssg23
(dp177
g25
I0
sg50
I0
sg51
I0
sg29
I0
sg52
I0
sg53
I0
sg28
I0
sg30
I0
sg42
I0
sg41
I0
sg19
I0
sg54
I0
sg15
I0
sg14
I0
sg43
I0
sg55
I0
sg24
I0
sg22
I0
sg23
I6
sg11
I0
sg56
I0
sg21
I0
sg57
I0
sg58
I0
sg40
I0
sg8
I0
sg27
I0
sg12
I0
sg9
I0
sg16
I0
sg10
I0
sg13
I0
sg26
I0
sg20
I0
sg17
I0
sg18
I0
ssg37
(dp178
g37
I0
sg72
I0
sg76
I0
sg73
I0
sg31
I0
sg33
I0
sg35
I0
sg68
I0
sg36
I0
sg34
I0
sg32
I0
sg61
I0
sg39
I0
sg74
I0
sg38
I0
sg64
I0
sg63
I0
ssg11
(dp179
g25
I0
sg35
I0
sg32
I0
sg29
I0
sg39
I0
sg38
I0
sg28
I0
sg30
I0
sg42
I0
sg41
I0
sg19
I0
sg45
I0
sg15
I0
sg14
I0
sg43
I0
sg34
I0
sg24
I0
sg22
I0
sg23
I0
sg37
I0
sg11
I114
sg36
I0
sg21
I0
sg31
I0
sg33
I0
sg40
I0
sg44
I0
sg8
I0
sg27
I0
sg12
I0
sg9
I0
sg16
I0
sg10
I0
sg13
I0
sg26
I0
sg20
I0
sg17
I0
sg18
I0
ssg36
(dp180
g87
I0
sg35
I0
sg32
I0
sg61
I0
sg39
I0
sg38
I0
sg88
I0
sg63
I0
sg41
I0
sg89
I0
sg45
I0
sg90
I0
sg68
I0
sg34
I0
sg91
I0
sg92
I0
sg93
I0
sg37
I1
sg72
I0
sg36
I0
sg73
I0
sg74
I0
sg33
I0
sg40
I5
sg44
I0
sg64
I0
sg76
I0
sg94
I0
sg95
I0
sg96
I0
sg97
I0
sg31
I0
sg81
I0
sg98
I0
sg99
I0
ssg21
(dp181
g25
I0
sg148
I0
sg149
I0
sg29
I0
sg52
I0
sg53
I0
sg28
I0
sg30
I0
sg175
I0
sg41
I0
sg19
I0
sg45
I0
sg15
I0
sg14
I0
sg155
I0
sg24
I0
sg22
I0
sg23
I0
sg11
I0
sg56
I0
sg21
I6
sg176
I0
sg161
I0
sg40
I0
sg8
I0
sg27
I0
sg12
I0
sg9
I0
sg16
I0
sg10
I0
sg13
I0
sg26
I0
sg20
I0
sg17
I0
sg18
I0
ssg31
(dp182
g60
I0
sg35
I0
sg32
I0
sg61
I0
sg39
I0
sg38
I0
sg130
I0
sg63
I0
sg64
I0
sg68
I0
sg43
I0
sg34
I0
sg69
I0
sg129
I0
sg71
I0
sg37
I0
sg72
I0
sg36
I0
sg73
I0
sg74
I0
sg33
I0
sg42
I0
sg76
I0
sg31
I0
ssg33
(dp183
g60
I0
sg35
I0
sg32
I0
sg61
I0
sg39
I0
sg38
I0
sg62
I0
sg63
I0
sg64
I0
sg65
I0
sg66
I0
sg45
I0
sg67
I0
sg68
I0
sg43
I0
sg34
I0
sg69
I0
sg70
I0
sg71
I0
sg37
I0
sg72
I0
sg36
I0
sg73
I0
sg74
I0
sg33
I6
sg75
I0
sg44
I0
sg42
I0
sg76
I0
sg77
I0
sg78
I0
sg79
I0
sg80
I0
sg31
I0
sg81
I0
sg82
I0
sg83
I0
ssg40
(dp184
g87
I0
sS'cheese.n.01'
p185
I0
sS'bread.n.01'
p186
I0
sS'orange.n.01'
p187
I0
sg52
I0
sg53
I0
sg135
I0
sS'green_onion.n.01'
p188
I0
sg41
I0
sg89
I0
sg45
I0
sg90
I0
sg137
I0
sS'bacon.n.01'
p189
I0
sg91
I0
sg92
I0
sg93
I0
sg139
I0
sg56
I0
sg88
I0
sS'banana.n.02'
p190
I0
sg40
I0
sg44
I0
sg142
I0
sg143
I0
sg94
I0
sg95
I0
sg96
I0
sg98
I0
sg144
I0
sg81
I0
sg97
I0
sg99
I0
ssg44
(dp191
g185
I0
sg186
I0
sg187
I0
sS'zucchini.n.02'
p192
I0
sS'zucchini.n.01'
p193
I0
sg188
I0
sg65
I0
sg66
I0
sg67
I0
sS'tomato.n.01'
p194
I0
sg189
I0
sS'slice.v.03'
p195
I0
sS'olive.n.01'
p196
I0
sS'knife.n.01'
p197
I0
sg190
I0
sg75
I0
sg44
I0
sS'piece.n.08'
p198
I0
sg77
I0
sg78
I0
sg79
I0
sS'lemon.n.01'
p199
I0
sg82
I0
sg83
I0
ssg8
(dp200
g25
I0
sg35
I0
sg32
I0
sg29
I0
sg39
I0
sg38
I0
sg28
I0
sg30
I0
sg42
I0
sg41
I0
sg19
I0
sg45
I0
sg15
I0
sg14
I0
sg43
I0
sg34
I0
sg24
I0
sg22
I0
sg23
I0
sg37
I0
sg11
I0
sg36
I0
sg21
I0
sg31
I0
sg33
I0
sg40
I0
sg44
I0
sg8
I12
sg27
I0
sg12
I0
sg9
I17
sg16
I1
sg10
I0
sg13
I0
sg26
I0
sg20
I0
sg17
I0
sg18
I0
ssg27
(dp201
g25
I0
sg35
I0
sg32
I0
sg29
I0
sg39
I0
sg38
I0
sg28
I0
sg30
I0
sg42
I0
sg41
I0
sg19
I0
sg15
I0
sg14
I0
sg43
I0
sg34
I0
sg24
I0
sg22
I0
sg23
I0
sg37
I0
sg11
I0
sg36
I0
sg21
I0
sg31
I0
sg33
I0
sg40
I0
sg8
I0
sg27
I6
sg12
I0
sg9
I0
sg16
I0
sg10
I0
sg13
I0
sg26
I0
sg20
I0
sg17
I0
sg18
I0
ssg12
(dp202
g25
I0
sg185
I0
sg186
I0
sg29
I0
sg52
I0
sg53
I0
sg28
I0
sg188
I0
sg41
I0
sg19
I0
sg45
I0
sg15
I0
sg14
I0
sg189
I0
sg24
I0
sg22
I0
sg23
I0
sg11
I0
sg56
I0
sg21
I0
sg190
I0
sg40
I0
sg44
I2
sg8
I0
sg27
I0
sg12
I0
sg9
I0
sg16
I0
sg10
I0
sg13
I4
sg26
I0
sg20
I0
sg17
I0
sg18
I0
ssg9
(dp203
g25
I0
sg133
I0
sg134
I0
sg29
I0
sg52
I0
sg53
I0
sg28
I0
sg30
I0
sg41
I0
sg19
I0
sg45
I0
sg15
I0
sg14
I0
sg138
I0
sg24
I0
sg22
I0
sg23
I0
sg11
I0
sg56
I0
sg21
I0
sg140
I0
sg40
I0
sg141
I0
sg8
I0
sg27
I0
sg12
I0
sg9
I0
sg16
I0
sg10
I0
sg13
I0
sg26
I0
sg20
I0
sg17
I0
sg18
I0
ssg16
(dp204
g25
I0
sg29
I0
sg28
I0
sg19
I0
sg15
I0
sg14
I0
sg24
I0
sg22
I0
sg23
I0
sg11
I0
sg21
I0
sg8
I0
sg27
I0
sg12
I0
sg9
I0
sg16
I0
sg10
I0
sg13
I0
sg26
I0
sg20
I0
sg17
I0
sg18
I0
ssg10
(dp205
g25
I0
sg185
I0
sg186
I0
sg29
I0
sg52
I0
sg53
I0
sg28
I0
sg188
I0
sg41
I0
sg19
I0
sg45
I0
sg15
I0
sg14
I0
sg189
I0
sg24
I0
sg22
I0
sg23
I0
sg11
I0
sg56
I0
sg21
I0
sg190
I0
sg40
I0
sg44
I0
sg8
I0
sg27
I0
sg12
I0
sg9
I0
sg16
I0
sg10
I6
sg13
I0
sg26
I0
sg20
I0
sg17
I0
sg18
I0
ssg13
(dp206
g25
I0
sg148
I0
sg149
I0
sg29
I0
sg52
I0
sg53
I0
sg28
I0
sg41
I0
sg19
I0
sg45
I0
sg15
I0
sg14
I0
sg155
I0
sg24
I0
sg22
I0
sg23
I0
sg11
I0
sg56
I0
sg21
I0
sg161
I0
sg40
I0
sg8
I0
sg27
I0
sg12
I0
sg9
I0
sg16
I0
sg10
I0
sg13
I0
sg26
I0
sg20
I0
sg17
I0
sg18
I0
ssg26
(dp207
g25
I0
sg35
I0
sg32
I0
sg29
I0
sg39
I0
sg38
I0
sg28
I0
sg30
I0
sg42
I0
sg41
I0
sg19
I0
sg15
I0
sg14
I0
sg43
I0
sg34
I0
sg24
I0
sg22
I0
sg23
I0
sg37
I0
sg11
I0
sg36
I0
sg21
I0
sg31
I0
sg33
I0
sg40
I0
sg44
I0
sg8
I0
sg27
I0
sg12
I0
sg9
I0
sg16
I0
sg10
I0
sg13
I0
sg26
I12
sg20
I0
sg17
I0
sg18
I0
ssg20
(dp208
g25
I0
sg133
I0
sg134
I0
sg29
I0
sg52
I0
sg53
I0
sg28
I0
sg30
I0
sg41
I0
sg19
I0
sg45
I0
sg20
I6
sg14
I0
sg138
I0
sg24
I0
sg22
I0
sg23
I0
sg11
I0
sg56
I0
sg21
I0
sg140
I0
sg40
I0
sg141
I0
sg8
I0
sg27
I0
sg12
I0
sg9
I0
sg16
I0
sg10
I0
sg13
I0
sg26
I0
sg15
I0
sg17
I0
sg18
I0
ssg17
(dp209
g25
I0
sg133
I0
sg134
I0
sg29
I0
sg52
I0
sg53
I0
sg28
I0
sg30
I0
sg41
I0
sg19
I0
sg45
I0
sg15
I0
sg14
I0
sg138
I0
sg24
I0
sg22
I0
sg23
I0
sg11
I0
sg56
I0
sg21
I0
sg140
I0
sg40
I0
sg141
I0
sg8
I0
sg27
I0
sg12
I0
sg9
I0
sg16
I0
sg10
I0
sg17
I0
sg26
I0
sg20
I0
sg13
I0
sg18
I6
ssg18
(dp210
g25
I0
sg133
I0
sg134
I0
sg29
I0
sg52
I0
sg53
I0
sg28
I0
sg30
I0
sg41
I0
sg19
I0
sg45
I0
sg15
I0
sg14
I0
sg138
I0
sg24
I0
sg22
I0
sg23
I0
sg11
I0
sg56
I0
sg21
I0
sg140
I0
sg40
I0
sg141
I0
sg8
I0
sg27
I0
sg12
I0
sg9
I0
sg16
I0
sg10
I0
sg13
I0
sg26
I0
sg20
I0
sg17
I0
sg18
I0
sssb.