ccopy_reg
_reconstructor
p0
(cutils.eval
ConfusionMatrix
p1
c__builtin__
object
p2
Ntp3
Rp4
(dp5
S'labels'
p6
(lp7
S'olive.n.01'
p8
aS'olive.n.04'
p9
aS'slice.v.03'
p10
aS'zucchini.n.01'
p11
aS'zucchini.n.02'
p12
aS'piece.n.08'
p13
aS'slice.n.06'
p14
aS'pizza.n.01'
p15
aS'flesh.n.01'
p16
aS'pulp.n.02'
p17
aS'tomato.n.01'
p18
aS'onion.n.03'
p19
aS'onion.n.02'
p20
aS'mustard.n.02'
p21
aS'mustard.n.01'
p22
aS'egg.n.02'
p23
aS'cabbage.n.01'
p24
aS'potato.n.01'
p25
aS'meat.n.01'
p26
aS'cleaver.n.01'
p27
aS'mushroom.n.05'
p28
aS'lemon.n.01'
p29
aS'vegetable.n.01'
p30
aS'knife.n.01'
p31
asS'instanceCount'
p32
I31
sS'matrix'
p33
(dp34
g28
(dp35
S'mushroom.n.05'
p36
I1
ssg12
(dp37
g12
I0
ssg11
(dp38
g12
I1
ssg31
(dp39
S'knife.n.01'
p40
I1
ssg22
(dp41
g22
I0
ssg21
(dp42
g22
I1
ssg23
(dp43
S'egg.n.02'
p44
I1
ssg18
(dp45
S'tomato.n.01'
p46
I1
ssg26
(dp47
S'meat.n.01'
p48
I1
ssg25
(dp49
S'potato.n.01'
p50
I1
ssg27
(dp51
S'cleaver.n.01'
p52
I1
ssg10
(dp53
S'slice.v.03'
p54
I11
ssg8
(dp55
g9
I1
ssg24
(dp56
S'cabbage.n.01'
p57
I1
ssg9
(dp58
g9
I0
ssg13
(dp59
S'piece.n.08'
p60
I1
sg14
I3
ssg30
(dp61
S'vegetable.n.01'
p62
I1
ssg16
(dp63
g17
I1
ssg14
(dp64
g14
I0
ssg15
(dp65
S'pizza.n.01'
p66
I1
ssg17
(dp67
g17
I0
ssg29
(dp68
S'lemon.n.01'
p69
I1
ssg19
(dp70
g20
I1
ssg20
(dp71
g20
I0
sssb.