ccopy_reg
_reconstructor
p0
(cutils.eval
ConfusionMatrix
p1
c__builtin__
object
p2
Ntp3
Rp4
(dp5
S'labels'
p6
(lp7
S'tomato.n.01'
p8
aS'tomato.n.02'
p9
aS'piece.n.08'
p10
aS'onion.n.03'
p11
aS'onion.n.02'
p12
aS'mustard.n.02'
p13
aS'slice.v.03'
p14
aS'egg.n.02'
p15
aS'slice.n.06'
p16
aS'cabbage.n.01'
p17
aS'potato.n.01'
p18
aS'meat.n.01'
p19
aS'cleaver.n.01'
p20
aS'mushroom.n.05'
p21
aS'lemon.n.01'
p22
aS'vegetable.n.01'
p23
aS'knife.n.01'
p24
aS'orange.n.01'
p25
aS'green_onion.n.01'
p26
asS'instanceCount'
p27
I33
sS'matrix'
p28
(dp29
g21
(dp30
S'mushroom.n.05'
p31
I1
ssg14
(dp32
S'slice.v.03'
p33
I11
ssg13
(dp34
S'mustard.n.02'
p35
I1
ssg17
(dp36
S'cabbage.n.01'
p37
I1
ssg20
(dp38
S'cleaver.n.01'
p39
I1
ssg9
(dp40
g9
I0
ssg8
(dp41
g9
I1
sS'tomato.n.01'
p42
I1
ssg18
(dp43
S'potato.n.01'
p44
I1
ssg16
(dp45
g16
I0
ssg23
(dp46
S'vegetable.n.01'
p47
I1
ssg25
(dp48
S'orange.n.01'
p49
I1
ssg19
(dp50
S'meat.n.01'
p51
I1
ssg22
(dp52
S'lemon.n.01'
p53
I2
ssg15
(dp54
S'egg.n.02'
p55
I1
ssg24
(dp56
S'knife.n.01'
p57
I3
ssg10
(dp58
S'piece.n.08'
p59
I1
sg16
I3
ssg26
(dp60
S'green_onion.n.01'
p61
I1
ssg11
(dp62
g12
I1
ssg12
(dp63
g12
I0
sssb.