ccopy_reg
_reconstructor
p0
(cutils.eval
ConfusionMatrix
p1
c__builtin__
object
p2
Ntp3
Rp4
(dp5
S'labels'
p6
(lp7
S'tomato.n.01'
p8
aS'knife.n.01'
p9
aS'slice.v.03'
p10
aS'orange.n.01'
p11
aS'piece.n.08'
p12
aS'green_onion.n.01'
p13
aS'lemon.n.01'
p14
aS'bread.n.01'
p15
aS'banana.n.02'
p16
aS'bacon.n.01'
p17
aS'cheese.n.01'
p18
aS'olive.n.01'
p19
aS'olive.n.04'
p20
aS'zucchini.n.01'
p21
aS'zucchini.n.02'
p22
aS'pizza.n.01'
p23
aS'flesh.n.01'
p24
aS'human_body.n.01'
p25
asS'instanceCount'
p26
I30
sS'matrix'
p27
(dp28
g10
(dp29
S'slice.v.03'
p30
I12
ssg19
(dp31
g20
I1
ssg9
(dp32
S'knife.n.01'
p33
I4
ssg16
(dp34
S'banana.n.02'
p35
I1
ssg18
(dp36
S'cheese.n.01'
p37
I1
ssg8
(dp38
S'tomato.n.01'
p39
I1
ssg20
(dp40
g20
I0
ssg25
(dp41
g25
I0
ssg17
(dp42
S'bacon.n.01'
p43
I1
ssg15
(dp44
S'bread.n.01'
p45
I1
ssg11
(dp46
S'orange.n.01'
p47
I1
ssg22
(dp48
g22
I0
ssg14
(dp49
S'lemon.n.01'
p50
I1
ssg21
(dp51
g22
I1
ssg24
(dp52
g25
I1
ssg12
(dp53
S'piece.n.08'
p54
I2
ssg23
(dp55
S'pizza.n.01'
p56
I1
ssg13
(dp57
S'green_onion.n.01'
p58
I1
sssb.