ccopy_reg
_reconstructor
p0
(cutils.eval
ConfusionMatrix
p1
c__builtin__
object
p2
Ntp3
Rp4
(dp5
S'labels'
p6
(lp7
S'egg.n.02'
p8
aS'cut.v.01'
p9
aS'piece.n.08'
p10
aS'slice.n.06'
p11
aS'lemon.n.01'
p12
aS'olive.n.01'
p13
aS'olive.n.04'
p14
aS'orange.n.01'
p15
asS'instanceCount'
p16
I10
sS'matrix'
p17
(dp18
g13
(dp19
g14
I1
ssg9
(dp20
S'cut.v.01'
p21
I4
ssg14
(dp22
g14
I0
ssg8
(dp23
S'egg.n.02'
p24
I1
ssg11
(dp25
g11
I0
ssg15
(dp26
S'orange.n.01'
p27
I1
ssg12
(dp28
S'lemon.n.01'
p29
I1
ssg10
(dp30
g11
I2
sssb.