ccopy_reg
_reconstructor
p0
(cutils.eval
ConfusionMatrix
p1
c__builtin__
object
p2
Ntp3
Rp4
(dp5
S'labels'
p6
(lp7
S'cut.v.01'
p8
aS'bacon.n.01'
p9
aS'knife.n.01'
p10
aS'banana.n.02'
p11
aS'zucchini.n.01'
p12
aS'zucchini.n.02'
p13
aS'lemon.n.01'
p14
asS'instanceCount'
p15
I9
sS'matrix'
p16
(dp17
g8
(dp18
S'cut.v.01'
p19
I4
ssg10
(dp20
S'knife.n.01'
p21
I1
ssg11
(dp22
S'banana.n.02'
p23
I1
ssg9
(dp24
S'bacon.n.01'
p25
I1
ssg13
(dp26
g13
I0
ssg14
(dp27
S'lemon.n.01'
p28
I1
ssg12
(dp29
g13
I1
sssb.