ccopy_reg
_reconstructor
p0
(cutils.eval
ConfusionMatrix
p1
c__builtin__
object
p2
Ntp3
Rp4
(dp5
S'labels'
p6
(lp7
S'zucchini.n.01'
p8
aS'zucchini.n.02'
p9
aS'cut.v.01'
p10
aS'lemon.n.01'
p11
aS'cheese.n.01'
p12
aS'fork.n.01'
p13
aS'fork.n.04'
p14
aS'cake.n.03'
p15
aS'vegetable.n.01'
p16
aS'knife.n.01'
p17
aS'flesh.n.01'
p18
aS'pulp.n.02'
p19
aS'meat.n.01'
p20
aS'cleaver.n.01'
p21
aS'mushroom.n.05'
p22
aS'olive.n.01'
p23
aS'olive.n.04'
p24
aS'piece.n.08'
p25
aS'slice.n.06'
p26
aS'orange.n.01'
p27
aS'pizza.n.01'
p28
aS'cabbage.n.01'
p29
aS'egg.n.02'
p30
aS'bread.n.01'
p31
aS'tomato.n.01'
p32
aS'green_onion.n.01'
p33
aS'potato.n.01'
p34
aS'bacon.n.01'
p35
aS'banana.n.02'
p36
asS'instanceCount'
p37
I102
sS'matrix'
p38
(dp39
g22
(dp40
g22
I2
sg16
I0
sS'cut.v.01'
p41
I0
sg17
I0
sg18
I0
sg30
I0
sS'slice.n.06'
p42
I0
sg20
I0
sS'lemon.n.01'
p43
I0
sS'piece.n.08'
p44
I0
sg19
I0
sg21
I0
ssg12
(dp45
g12
I2
sS'vegetable.n.01'
p46
I0
sg10
I0
sS'knife.n.01'
p47
I0
sS'flesh.n.01'
p48
I0
sg14
I0
sg13
I0
sg9
I0
sg11
I0
sg8
I0
sg15
I0
sS'pulp.n.02'
p49
I0
ssg31
(dp50
S'cut.v.01'
p51
I0
sS'cabbage.n.01'
p52
I0
sg32
I0
sS'slice.n.06'
p53
I0
sS'pizza.n.01'
p54
I0
sg34
I0
sS'knife.n.01'
p55
I0
sS'piece.n.08'
p56
I0
sg31
I2
sg33
I0
ssg27
(dp57
g23
I0
sS'cut.v.01'
p58
I0
sg29
I0
sg24
I0
sS'egg.n.02'
p59
I0
sg26
I0
sg28
I0
sg27
I2
sS'lemon.n.01'
p60
I0
sg25
I0
ssg9
(dp61
g12
I0
sg10
I0
sS'knife.n.01'
p62
I0
sg36
I0
sg14
I0
sg13
I0
sg9
I0
sg35
I0
sg11
I0
sg8
I0
sg15
I0
ssg8
(dp63
g12
I0
sg10
I0
sg62
I0
sg36
I0
sg14
I0
sg13
I0
sg9
I2
sg35
I0
sg11
I0
sg8
I0
sg15
I0
ssg29
(dp64
g23
I0
sg58
I0
sg29
I2
sg24
I0
sg32
I0
sg26
I0
sg28
I0
sg27
I0
sg55
I0
sg25
I0
sg31
I0
ssg33
(dp65
S'cut.v.01'
p66
I0
sS'knife.n.01'
p67
I0
sS'banana.n.02'
p68
I0
sS'tomato.n.01'
p69
I0
sS'slice.n.06'
p70
I0
sS'bacon.n.01'
p71
I0
sS'bread.n.01'
p72
I0
sg34
I0
sS'piece.n.08'
p73
I0
sg33
I2
ssg10
(dp74
g22
I0
sg12
I0
sg31
I0
sg27
I0
sg9
I0
sg8
I0
sg29
I0
sg33
I0
sg10
I40
sg30
I0
sg32
I0
sg35
I0
sg20
I0
sg34
I0
sg21
I0
sg23
I0
sg17
I0
sg36
I0
sg24
I0
sg14
I0
sg13
I0
sg25
I0
sg16
I0
sg18
I0
sg26
I0
sg28
I0
sg15
I0
sg11
I0
sg19
I0
ssg30
(dp75
S'mushroom.n.05'
p76
I0
sS'olive.n.01'
p77
I0
sS'cut.v.01'
p78
I0
sS'olive.n.04'
p79
I0
sg30
I2
sg42
I0
sS'orange.n.01'
p80
I0
sS'meat.n.01'
p81
I0
sg43
I0
sg44
I0
sS'cleaver.n.01'
p82
I0
ssg32
(dp83
g51
I0
sg52
I0
sg32
I2
sg53
I0
sg54
I0
sg34
I0
sg55
I0
sg56
I0
sg31
I0
sg33
I0
ssg35
(dp84
S'cut.v.01'
p85
I0
sg62
I0
sg36
I0
sS'potato.n.01'
p86
I0
sS'slice.n.06'
p87
I0
sg35
I2
sS'zucchini.n.02'
p88
I0
sS'lemon.n.01'
p89
I0
sS'zucchini.n.01'
p90
I0
sS'green_onion.n.01'
p91
I0
sS'piece.n.08'
p92
I0
ssg20
(dp93
g22
I0
sg16
I0
sg41
I0
sg17
I0
sg18
I0
sg30
I0
sg42
I0
sg20
I2
sg43
I0
sg44
I0
sg19
I0
sg21
I0
ssg34
(dp94
g66
I0
sg67
I0
sg68
I0
sg69
I0
sg70
I0
sg71
I0
sg72
I0
sg34
I2
sg33
I0
sg73
I0
ssg21
(dp95
g22
I0
sg16
I0
sg41
I0
sg17
I0
sg18
I0
sg30
I0
sg42
I0
sg21
I2
sg43
I0
sg44
I0
sg19
I0
sg20
I0
ssg23
(dp96
g23
I0
sg58
I0
sg29
I0
sg24
I2
sg59
I0
sg26
I0
sg28
I0
sg27
I0
sg60
I0
sg25
I0
ssg17
(dp97
g22
I0
sS'cheese.n.01'
p98
I0
sg31
I0
sg88
I0
sg90
I0
sg52
I0
sg33
I0
sg41
I0
sg32
I0
sg35
I0
sg20
I0
sg34
I0
sg21
I0
sg17
I10
sg36
I0
sS'fork.n.04'
p99
I0
sS'fork.n.01'
p100
I0
sg56
I0
sg16
I0
sg18
I0
sg53
I0
sg54
I0
sS'cake.n.03'
p101
I0
sg89
I0
sg19
I0
ssg36
(dp102
g85
I0
sg62
I0
sg36
I2
sg86
I0
sg87
I0
sg35
I0
sg88
I0
sg89
I0
sg90
I0
sg91
I0
sg92
I0
ssg24
(dp103
g23
I0
sg58
I0
sg29
I0
sg24
I0
sg59
I0
sg26
I0
sg28
I0
sg27
I0
sg60
I0
sg25
I0
ssg14
(dp104
g12
I0
sg46
I0
sg10
I0
sg47
I0
sg48
I0
sg14
I0
sg13
I0
sg9
I0
sg11
I0
sg8
I0
sg15
I0
sg49
I0
ssg13
(dp105
g12
I0
sg46
I0
sg10
I0
sg47
I0
sg48
I0
sg14
I2
sg13
I0
sg9
I0
sg11
I0
sg8
I0
sg15
I0
sg49
I0
ssg25
(dp106
g76
I0
sg23
I0
sg58
I0
sg29
I0
sg68
I0
sg24
I0
sg30
I0
sg32
I0
sg26
I8
sg71
I0
sg28
I0
sg27
I0
sg81
I0
sg43
I0
sg34
I0
sg55
I0
sg25
I0
sg31
I0
sg33
I0
sg82
I0
ssg16
(dp107
g22
I0
sg98
I0
sg16
I2
sg41
I0
sg17
I0
sg18
I0
sg99
I0
sg100
I0
sg101
I0
sg20
I0
sg19
I0
sg21
I0
ssg18
(dp108
g22
I0
sg98
I0
sg16
I0
sg41
I0
sg17
I0
sg18
I0
sg99
I0
sg100
I0
sg101
I0
sg20
I0
sg19
I2
sg21
I0
ssg26
(dp109
g76
I0
sg23
I0
sg58
I0
sg29
I0
sg68
I0
sg24
I0
sg30
I0
sg32
I0
sg26
I0
sg71
I0
sg28
I0
sg27
I0
sg81
I0
sg43
I0
sg34
I0
sg55
I0
sg25
I0
sg31
I0
sg33
I0
sg82
I0
ssg28
(dp110
g23
I0
sg58
I0
sg29
I0
sg24
I0
sg32
I0
sg26
I0
sg28
I2
sg27
I0
sg55
I0
sg25
I0
sg31
I0
ssg15
(dp111
g12
I0
sg46
I0
sg10
I0
sg47
I0
sg48
I0
sg14
I0
sg13
I0
sg9
I0
sg11
I0
sg8
I0
sg15
I2
sg49
I0
ssg11
(dp112
g76
I0
sg12
I0
sg77
I0
sg10
I0
sg62
I0
sg36
I0
sg79
I0
sg30
I0
sg14
I0
sg42
I0
sg13
I0
sg35
I0
sg80
I0
sg9
I0
sg81
I0
sg11
I4
sg8
I0
sg15
I0
sg44
I0
sg82
I0
ssg19
(dp113
g22
I0
sg98
I0
sg16
I0
sg41
I0
sg17
I0
sg18
I0
sg99
I0
sg100
I0
sg101
I0
sg20
I0
sg19
I0
sg21
I0
sssb.