ccopy_reg
_reconstructor
p0
(cutils.eval
ConfusionMatrix
p1
c__builtin__
object
p2
Ntp3
Rp4
(dp5
S'labels'
p6
(lp7
S'zucchini.n.01'
p8
aS'zucchini.n.02'
p9
aS'cut.v.01'
p10
aS'lemon.n.01'
p11
aS'cheese.n.01'
p12
aS'fork.n.01'
p13
aS'fork.n.04'
p14
aS'cake.n.03'
p15
asS'instanceCount'
p16
I9
sS'matrix'
p17
(dp18
g12
(dp19
S'cheese.n.01'
p20
I1
ssg10
(dp21
S'cut.v.01'
p22
I4
ssg14
(dp23
g14
I0
ssg13
(dp24
g14
I1
ssg9
(dp25
g9
I0
ssg11
(dp26
S'lemon.n.01'
p27
I1
ssg8
(dp28
g9
I1
ssg15
(dp29
S'cake.n.03'
p30
I1
sssb.