ccopy_reg
_reconstructor
p0
(cutils.eval
ConfusionMatrix
p1
c__builtin__
object
p2
Ntp3
Rp4
(dp5
S'labels'
p6
(lp7
S'Goal'
p8
aS'ObjectToBePutted'
p9
aS'ActionCause'
p10
asS'instanceCount'
p11
I7
sS'matrix'
p12
(dp13
g10
(dp14
S'ActionCause'
p15
I2
ssg9
(dp16
S'ObjectToBePutted'
p17
I3
ssg8
(dp18
S'Goal'
p19
I2
sssb.