ccopy_reg
_reconstructor
p0
(cutils.eval
ConfusionMatrix
p1
c__builtin__
object
p2
Ntp3
Rp4
(dp5
S'labels'
p6
(lp7
S'slice.v.03'
p8
aS'potato.n.01'
p9
aS'piece.n.08'
p10
aS'slice.n.06'
p11
aS'bacon.n.01'
p12
aS'bread.n.01'
p13
aS'knife.n.01'
p14
aS'vegetable.n.01'
p15
aS'tomato.n.01'
p16
aS'egg.n.02'
p17
aS'cabbage.n.01'
p18
aS'pizza.n.01'
p19
aS'zucchini.n.01'
p20
aS'zucchini.n.02'
p21
aS'banana.n.02'
p22
aS'meat.n.01'
p23
aS'cleaver.n.01'
p24
aS'flesh.n.01'
p25
aS'pulp.n.02'
p26
aS'orange.n.01'
p27
aS'slice.n.04'
p28
aS'onion.n.03'
p29
aS'onion.n.02'
p30
aS'mustard.n.02'
p31
asS'instanceCount'
p32
I39
sS'matrix'
p33
(dp34
g13
(dp35
S'bread.n.01'
p36
I1
ssg27
(dp37
S'orange.n.01'
p38
I1
ssg21
(dp39
g21
I0
ssg20
(dp40
g21
I1
ssg18
(dp41
S'cabbage.n.01'
p42
I1
ssg31
(dp43
S'mustard.n.02'
p44
I1
ssg17
(dp45
S'egg.n.02'
p46
I1
ssg16
(dp47
S'tomato.n.01'
p48
I2
ssg12
(dp49
S'bacon.n.01'
p50
I1
ssg23
(dp51
S'meat.n.01'
p52
I1
ssg9
(dp53
S'potato.n.01'
p54
I1
ssg24
(dp55
S'cleaver.n.01'
p56
I1
ssg8
(dp57
S'slice.v.03'
p58
I13
ssg14
(dp59
S'knife.n.01'
p60
I4
ssg22
(dp61
S'banana.n.02'
p62
I1
ssg10
(dp63
g11
I4
sg28
I1
ssg15
(dp64
S'vegetable.n.01'
p65
I1
ssg25
(dp66
g26
I1
ssg11
(dp67
g11
I0
ssg28
(dp68
g28
I0
ssg19
(dp69
S'pizza.n.01'
p70
I1
ssg26
(dp71
g26
I0
ssg29
(dp72
g30
I1
ssg30
(dp73
g30
I0
sssb.