ccopy_reg
_reconstructor
p0
(cutils.eval
ConfusionMatrix
p1
c__builtin__
object
p2
Ntp3
Rp4
(dp5
S'labels'
p6
(lp7
S'add.v.01'
p8
aS'ingredient.n.03'
p9
aS'vegetable.n.01'
p10
aS'apple.n.01'
p11
aS'asparagus.n.02'
p12
aS'salad.n.01'
p13
aS'french_fries.n.01'
p14
aS'steak.n.01'
p15
aS'concoction.n.01'
p16
aS'cream.n.02'
p17
aS'cream.n.03'
p18
aS'onion.n.03'
p19
aS'pan.n.03'
p20
aS'butter.n.01'
p21
aS'vanilla.n.02'
p22
aS'corn.n.03'
p23
aS'dish.n.02'
p24
aS'dish.n.01'
p25
aS'rib.n.03'
p26
aS'sauce.n.01'
p27
asS'instanceCount'
p28
I33
sS'matrix'
p29
(dp30
g10
(dp31
S'vegetable.n.01'
p32
I1
ssg25
(dp33
g25
I0
ssg27
(dp34
S'sauce.n.01'
p35
I1
ssg26
(dp36
S'rib.n.03'
p37
I1
ssg13
(dp38
S'salad.n.01'
p39
I1
ssg21
(dp40
S'butter.n.01'
p41
I2
ssg20
(dp42
S'pan.n.03'
p43
I2
ssg17
(dp44
g18
I2
ssg9
(dp45
S'ingredient.n.03'
p46
I2
ssg18
(dp47
g18
I0
ssg12
(dp48
S'asparagus.n.02'
p49
I1
ssg15
(dp50
S'steak.n.01'
p51
I1
ssg24
(dp52
g25
I1
ssg14
(dp53
S'french_fries.n.01'
p54
I1
ssg16
(dp55
S'concoction.n.01'
p56
I1
ssg11
(dp57
S'apple.n.01'
p58
I1
ssg23
(dp59
S'corn.n.03'
p60
I1
ssg8
(dp61
S'add.v.01'
p62
I12
ssg22
(dp63
S'vanilla.n.02'
p64
I1
ssg19
(dp65
S'onion.n.03'
p66
I1
sssb.