ccopy_reg
_reconstructor
p0
(cutils.eval
ConfusionMatrix
p1
c__builtin__
object
p2
Ntp3
Rp4
(dp5
S'labels'
p6
(lp7
S'add.v.01'
p8
aS'onion.n.03'
p9
aS'pan.n.03'
p10
aS'butter.n.01'
p11
aS'vanilla.n.02'
p12
aS'corn.n.03'
p13
aS'dish.n.02'
p14
aS'dish.n.01'
p15
aS'rib.n.03'
p16
aS'sauce.n.01'
p17
aS'cream.n.02'
p18
aS'salt.n.02'
p19
aS'meat.n.01'
p20
aS'egg.n.02'
p21
aS'flour.n.01'
p22
aS'egg.n.01'
p23
aS'mixing_bowl.n.01'
p24
aS'dressing.n.01'
p25
aS'stuffing.n.01'
p26
aS'salad.n.01'
p27
aS'sugar.n.01'
p28
aS'carbohydrate.n.01'
p29
asS'instanceCount'
p30
I36
sS'matrix'
p31
(dp32
g13
(dp33
S'corn.n.03'
p34
I1
ssg24
(dp35
S'mixing_bowl.n.01'
p36
I2
ssg29
(dp37
g29
I0
ssg14
(dp38
g15
I1
ssg15
(dp39
g15
I0
ssg8
(dp40
S'add.v.01'
p41
I12
ssg10
(dp42
S'pan.n.03'
p43
I3
ssg22
(dp44
S'flour.n.01'
p45
I1
ssg21
(dp46
S'egg.n.02'
p47
I1
sg23
I1
ssg11
(dp48
S'butter.n.01'
p49
I3
ssg20
(dp50
S'meat.n.01'
p51
I1
ssg12
(dp52
S'vanilla.n.02'
p53
I2
ssg17
(dp54
S'sauce.n.01'
p55
I1
ssg19
(dp56
S'salt.n.02'
p57
I1
ssg16
(dp58
S'rib.n.03'
p59
I1
ssg18
(dp60
S'cream.n.02'
p61
I1
ssg26
(dp62
g26
I0
ssg25
(dp63
g26
I1
ssg27
(dp64
S'salad.n.01'
p65
I1
ssg23
(dp66
g23
I0
ssg9
(dp67
S'onion.n.03'
p68
I1
ssg28
(dp69
g29
I1
sssb.