ccopy_reg
_reconstructor
p0
(cutils.eval
ConfusionMatrix
p1
c__builtin__
object
p2
Ntp3
Rp4
(dp5
S'labels'
p6
(lp7
S'add.v.01'
p8
aS'salt.n.02'
p9
aS'meat.n.01'
p10
aS'pan.n.03'
p11
aS'vanilla.n.02'
p12
aS'egg.n.02'
p13
aS'flour.n.01'
p14
aS'mixing_bowl.n.01'
p15
aS'dressing.n.01'
p16
aS'stuffing.n.01'
p17
aS'salad.n.01'
p18
aS'butter.n.01'
p19
aS'sugar.n.01'
p20
aS'milk.n.01'
p21
aS'milk.n.04'
p22
aS'water.n.06'
p23
aS'pot.n.01'
p24
aS'pot.n.09'
p25
aS'bean.n.01'
p26
aS'ingredient.n.03'
p27
aS'vegetable.n.01'
p28
aS'apple.n.01'
p29
aS'asparagus.n.02'
p30
asS'instanceCount'
p31
I34
sS'matrix'
p32
(dp33
g15
(dp34
S'mixing_bowl.n.01'
p35
I2
ssg22
(dp36
g22
I0
ssg29
(dp37
S'apple.n.01'
p38
I1
ssg8
(dp39
S'add.v.01'
p40
I12
ssg21
(dp41
g22
I1
ssg11
(dp42
S'pan.n.03'
p43
I1
ssg25
(dp44
g25
I0
ssg14
(dp45
S'flour.n.01'
p46
I1
ssg13
(dp47
S'egg.n.02'
p48
I2
ssg19
(dp49
S'butter.n.01'
p50
I1
ssg24
(dp51
g25
I1
ssg30
(dp52
S'asparagus.n.02'
p53
I1
ssg10
(dp54
S'meat.n.01'
p55
I1
ssg12
(dp56
S'vanilla.n.02'
p57
I1
ssg26
(dp58
S'bean.n.01'
p59
I1
ssg9
(dp60
S'salt.n.02'
p61
I1
ssg27
(dp62
S'ingredient.n.03'
p63
I1
ssg17
(dp64
g17
I0
ssg28
(dp65
S'vegetable.n.01'
p66
I1
ssg23
(dp67
S'water.n.06'
p68
I1
ssg16
(dp69
g17
I1
ssg18
(dp70
S'salad.n.01'
p71
I2
ssg20
(dp72
S'sugar.n.01'
p73
I1
sssb.