ccopy_reg
_reconstructor
p0
(cutils.eval
ConfusionMatrix
p1
c__builtin__
object
p2
Ntp3
Rp4
(dp5
S'labels'
p6
(lp7
S'sauce.n.01'
p8
aS'add.v.01'
p9
aS'cream.n.02'
p10
aS'pan.n.03'
p11
aS'butter.n.01'
p12
aS'salt.n.02'
p13
aS'meat.n.01'
p14
aS'vanilla.n.02'
p15
aS'egg.n.02'
p16
aS'flour.n.01'
p17
aS'mixing_bowl.n.01'
p18
aS'dressing.n.01'
p19
aS'stuffing.n.01'
p20
aS'salad.n.01'
p21
aS'sugar.n.01'
p22
aS'milk.n.01'
p23
aS'milk.n.04'
p24
aS'water.n.06'
p25
aS'pot.n.01'
p26
aS'pot.n.09'
p27
aS'bean.n.01'
p28
aS'ingredient.n.03'
p29
aS'vegetable.n.01'
p30
asS'instanceCount'
p31
I35
sS'matrix'
p32
(dp33
g18
(dp34
S'mixing_bowl.n.01'
p35
I2
ssg24
(dp36
g24
I0
ssg9
(dp37
S'add.v.01'
p38
I12
ssg23
(dp39
g24
I1
ssg11
(dp40
S'pan.n.03'
p41
I2
ssg27
(dp42
g27
I0
ssg17
(dp43
S'flour.n.01'
p44
I1
ssg16
(dp45
S'egg.n.02'
p46
I2
ssg12
(dp47
S'butter.n.01'
p48
I2
ssg26
(dp49
g27
I1
ssg14
(dp50
S'meat.n.01'
p51
I1
ssg15
(dp52
S'vanilla.n.02'
p53
I1
ssg28
(dp54
S'bean.n.01'
p55
I1
ssg8
(dp56
S'sauce.n.01'
p57
I1
ssg13
(dp58
S'salt.n.02'
p59
I1
ssg10
(dp60
S'cream.n.02'
p61
I1
ssg29
(dp62
S'ingredient.n.03'
p63
I1
ssg20
(dp64
g20
I0
ssg30
(dp65
S'vegetable.n.01'
p66
I1
ssg25
(dp67
S'water.n.06'
p68
I1
ssg19
(dp69
g20
I1
ssg21
(dp70
S'salad.n.01'
p71
I1
ssg22
(dp72
S'sugar.n.01'
p73
I1
sssb.