ccopy_reg
_reconstructor
p0
(cutils.eval
ConfusionMatrix
p1
c__builtin__
object
p2
Ntp3
Rp4
(dp5
S'labels'
p6
(lp7
S'add.v.01'
p8
aS'apple.n.01'
p9
aS'asparagus.n.02'
p10
aS'salad.n.01'
p11
aS'french_fries.n.01'
p12
aS'steak.n.01'
p13
aS'ingredient.n.03'
p14
aS'concoction.n.01'
p15
aS'cream.n.02'
p16
aS'cream.n.03'
p17
aS'onion.n.03'
p18
aS'pan.n.03'
p19
aS'butter.n.01'
p20
aS'vanilla.n.02'
p21
aS'corn.n.03'
p22
aS'dish.n.02'
p23
aS'rib.n.03'
p24
aS'sauce.n.01'
p25
aS'salt.n.02'
p26
aS'meat.n.01'
p27
asS'instanceCount'
p28
I35
sS'matrix'
p29
(dp30
g26
(dp31
S'salt.n.02'
p32
I1
ssg19
(dp33
S'pan.n.03'
p34
I3
ssg25
(dp35
S'sauce.n.01'
p36
I1
ssg24
(dp37
S'rib.n.03'
p38
I1
ssg11
(dp39
S'salad.n.01'
p40
I1
ssg20
(dp41
S'butter.n.01'
p42
I2
ssg21
(dp43
S'vanilla.n.02'
p44
I2
ssg16
(dp45
S'cream.n.02'
p46
I1
sg17
I1
ssg14
(dp47
S'ingredient.n.03'
p48
I1
ssg17
(dp49
g17
I0
ssg10
(dp50
S'asparagus.n.02'
p51
I1
ssg13
(dp52
S'steak.n.01'
p53
I1
ssg23
(dp54
S'dish.n.02'
p55
I1
ssg12
(dp56
S'french_fries.n.01'
p57
I1
ssg15
(dp58
S'concoction.n.01'
p59
I1
ssg9
(dp60
S'apple.n.01'
p61
I1
ssg22
(dp62
S'corn.n.03'
p63
I1
ssg8
(dp64
S'add.v.01'
p65
I12
ssg18
(dp66
S'onion.n.03'
p67
I1
ssg27
(dp68
S'meat.n.01'
p69
I1
sssb.