ccopy_reg
_reconstructor
p0
(cutils.eval
ConfusionMatrix
p1
c__builtin__
object
p2
Ntp3
Rp4
(dp5
S'labels'
p6
(lp7
S'add.v.01'
p8
aS'egg.n.02'
p9
aS'flour.n.01'
p10
aS'mixing_bowl.n.01'
p11
aS'dressing.n.01'
p12
aS'stuffing.n.01'
p13
aS'salad.n.01'
p14
aS'butter.n.01'
p15
aS'sugar.n.01'
p16
aS'milk.n.01'
p17
aS'milk.n.04'
p18
aS'water.n.06'
p19
aS'pot.n.01'
p20
aS'pot.n.04'
p21
aS'bean.n.01'
p22
aS'ingredient.n.03'
p23
aS'vegetable.n.01'
p24
aS'apple.n.01'
p25
aS'asparagus.n.02'
p26
aS'french_fries.n.01'
p27
aS'steak.n.01'
p28
aS'concoction.n.01'
p29
aS'cream.n.02'
p30
aS'cream.n.03'
p31
asS'instanceCount'
p32
I35
sS'matrix'
p33
(dp34
g11
(dp35
S'mixing_bowl.n.01'
p36
I2
ssg18
(dp37
g18
I0
ssg25
(dp38
S'apple.n.01'
p39
I1
ssg8
(dp40
S'add.v.01'
p41
I12
ssg17
(dp42
g18
I1
ssg10
(dp43
S'flour.n.01'
p44
I1
ssg9
(dp45
S'egg.n.02'
p46
I2
ssg15
(dp47
S'butter.n.01'
p48
I1
ssg20
(dp49
g21
I1
ssg26
(dp50
S'asparagus.n.02'
p51
I1
ssg22
(dp52
S'bean.n.01'
p53
I1
ssg29
(dp54
S'concoction.n.01'
p55
I1
ssg30
(dp56
g31
I1
ssg23
(dp57
S'ingredient.n.03'
p58
I2
ssg31
(dp59
g31
I0
ssg28
(dp60
S'steak.n.01'
p61
I1
ssg13
(dp62
g13
I0
ssg24
(dp63
S'vegetable.n.01'
p64
I1
ssg19
(dp65
S'water.n.06'
p66
I1
ssg12
(dp67
g13
I1
ssg27
(dp68
S'french_fries.n.01'
p69
I1
ssg21
(dp70
g21
I0
ssg14
(dp71
S'salad.n.01'
p72
I2
ssg16
(dp73
S'sugar.n.01'
p74
I1
sssb.