ccopy_reg
_reconstructor
p0
(cutils.eval
ConfusionMatrix
p1
c__builtin__
object
p2
Ntp3
Rp4
(dp5
S'labels'
p6
(lp7
S'add.v.01'
p8
aS'dressing.n.01'
p9
aS'stuffing.n.01'
p10
aS'salad.n.01'
p11
aS'mixing_bowl.n.01'
p12
aS'butter.n.01'
p13
aS'sugar.n.01'
p14
aS'milk.n.01'
p15
aS'milk.n.04'
p16
aS'water.n.06'
p17
aS'water_system.n.02'
p18
aS'pot.n.01'
p19
aS'pot.n.04'
p20
aS'bean.n.01'
p21
aS'ingredient.n.03'
p22
aS'vegetable.n.01'
p23
aS'apple.n.01'
p24
aS'asparagus.n.02'
p25
aS'french_fries.n.01'
p26
aS'steak.n.01'
p27
aS'concoction.n.01'
p28
aS'cream.n.02'
p29
aS'cream.n.03'
p30
aS'onion.n.03'
p31
aS'pan.n.03'
p32
aS'vanilla.n.02'
p33
asS'instanceCount'
p34
I35
sS'matrix'
p35
(dp36
g12
(dp37
S'mixing_bowl.n.01'
p38
I1
ssg16
(dp39
g16
I0
ssg24
(dp40
S'apple.n.01'
p41
I1
ssg8
(dp42
S'add.v.01'
p43
I12
ssg15
(dp44
g16
I1
ssg32
(dp45
S'pan.n.03'
p46
I1
ssg20
(dp47
g20
I0
ssg13
(dp48
S'butter.n.01'
p49
I2
ssg19
(dp50
g20
I1
ssg25
(dp51
S'asparagus.n.02'
p52
I1
ssg33
(dp53
S'vanilla.n.02'
p54
I1
ssg21
(dp55
S'bean.n.01'
p56
I1
ssg28
(dp57
S'concoction.n.01'
p58
I1
ssg29
(dp59
g30
I1
ssg22
(dp60
S'ingredient.n.03'
p61
I2
ssg30
(dp62
g30
I0
ssg27
(dp63
S'steak.n.01'
p64
I1
ssg10
(dp65
g10
I0
ssg23
(dp66
S'vegetable.n.01'
p67
I1
ssg18
(dp68
g18
I0
ssg17
(dp69
g18
I1
ssg9
(dp70
g10
I1
ssg26
(dp71
S'french_fries.n.01'
p72
I1
ssg11
(dp73
S'salad.n.01'
p74
I2
ssg31
(dp75
S'onion.n.03'
p76
I1
ssg14
(dp77
S'sugar.n.01'
p78
I1
sssb.