ccopy_reg
_reconstructor
p0
(cutils.eval
ConfusionMatrix
p1
c__builtin__
object
p2
Ntp3
Rp4
(dp5
S'labels'
p6
(lp7
S'add.v.01'
p8
aS'egg.n.02'
p9
aS'pan.n.03'
p10
aS'butter.n.01'
p11
aS'vanilla.n.02'
p12
aS'rib.n.03'
p13
aS'mixing_bowl.n.01'
p14
aS'sugar.n.01'
p15
asS'instanceCount'
p16
I48
sS'matrix'
p17
(dp18
g10
(dp19
S'pan.n.03'
p20
I8
ssg13
(dp21
S'rib.n.03'
p22
I3
ssg9
(dp23
S'egg.n.02'
p24
I3
ssg11
(dp25
S'butter.n.01'
p26
I10
ssg14
(dp27
S'mixing_bowl.n.01'
p28
I2
ssg12
(dp29
S'vanilla.n.02'
p30
I4
ssg8
(dp31
S'add.v.01'
p32
I16
ssg15
(dp33
S'sugar.n.01'
p34
I2
sssb.