ccopy_reg
_reconstructor
p0
(cutils.eval
ConfusionMatrix
p1
c__builtin__
object
p2
Ntp3
Rp4
(dp5
S'labels'
p6
(lp7
S'wok.n.01'
p8
aS'fill.v.01'
p9
aS'rice.n.01'
p10
aS'ice.n.01'
p11
aS'ice.n.05'
p12
aS'bowl.n.01'
p13
aS'bowl.n.08'
p14
aS'bottle.n.01'
p15
aS'fruit_juice.n.01'
p16
aS'whiskey.n.01'
p17
aS'carafe.n.01'
p18
aS'cup.n.01'
p19
aS'cola.n.02'
p20
aS'pitcher.n.02'
p21
aS'milk.n.01'
p22
aS'jar.n.01'
p23
aS'opening.n.01'
p24
aS'gap.n.03'
p25
aS'fill.v.09'
p26
aS'batter.n.02'
p27
aS'kettle.n.01'
p28
aS'water.n.06'
p29
aS'opening.n.10'
p30
aS'curd.n.01'
p31
aS'saltcellar.n.01'
p32
aS'salt.n.02'
p33
aS'teapot.n.01'
p34
aS'pot.n.01'
p35
aS'pot.n.04'
p36
aS'measuring_cup.n.01'
p37
aS'meal.n.03'
p38
aS'blender.n.01'
p39
aS'apple.n.01'
p40
aS'thermos.n.01'
p41
aS'coffee.n.01'
p42
asS'instanceCount'
p43
I47
sS'matrix'
p44
(dp45
g32
(dp46
S'saltcellar.n.01'
p47
I1
ssg41
(dp48
S'thermos.n.01'
p49
I1
ssg13
(dp50
g14
I1
ssg27
(dp51
S'batter.n.02'
p52
I1
ssg40
(dp53
S'apple.n.01'
p54
I1
ssg30
(dp55
g30
I0
ssg9
(dp56
S'fill.v.01'
p57
I14
ssg22
(dp58
S'milk.n.01'
p59
I1
ssg14
(dp60
g14
I0
ssg20
(dp61
S'cola.n.02'
p62
I1
ssg25
(dp63
g25
I0
ssg26
(dp64
S'fill.v.01'
p65
I2
ssg15
(dp66
S'bottle.n.01'
p67
I1
ssg36
(dp68
g36
I0
ssg35
(dp69
g36
I1
ssg19
(dp70
S'cup.n.01'
p71
I1
ssg21
(dp72
S'pitcher.n.02'
p73
I1
ssg37
(dp74
S'measuring_cup.n.01'
p75
I1
ssg33
(dp76
S'salt.n.02'
p77
I1
ssg8
(dp78
S'wok.n.01'
p79
I1
ssg42
(dp80
S'coffee.n.01'
p81
I1
ssg17
(dp82
S'whiskey.n.01'
p83
I1
ssg24
(dp84
g30
I1
sg25
I1
ssg16
(dp85
S'fruit_juice.n.01'
p86
I1
ssg34
(dp87
S'teapot.n.01'
p88
I1
ssg39
(dp89
S'blender.n.01'
p90
I1
ssg10
(dp91
S'rice.n.01'
p92
I1
ssg29
(dp93
S'water.n.06'
p94
I3
ssg11
(dp95
g12
I1
ssg28
(dp96
S'kettle.n.01'
p97
I1
ssg12
(dp98
g12
I0
ssg31
(dp99
S'curd.n.01'
p100
I1
ssg23
(dp101
S'jar.n.01'
p102
I1
ssg18
(dp103
S'carafe.n.01'
p104
I1
ssg38
(dp105
S'meal.n.03'
p106
I1
sssb.