ccopy_reg
_reconstructor
p0
(cutils.eval
ConfusionMatrix
p1
c__builtin__
object
p2
Ntp3
Rp4
(dp5
S'labels'
p6
(lp7
S'jar.n.01'
p8
aS'fill.v.01'
p9
aS'opening.n.01'
p10
aS'gap.n.03'
p11
aS'fill.v.09'
p12
aS'batter.n.02'
p13
aS'kettle.n.01'
p14
aS'water.n.06'
p15
aS'opening.n.10'
p16
aS'curd.n.01'
p17
aS'saltcellar.n.01'
p18
aS'salt.n.02'
p19
aS'teapot.n.01'
p20
aS'pot.n.01'
p21
aS'measuring_cup.n.01'
p22
aS'meal.n.03'
p23
aS'blender.n.01'
p24
aS'apple.n.01'
p25
aS'thermos.n.01'
p26
aS'coffee.n.01'
p27
aS'gravy.n.01'
p28
aS'gravy.n.02'
p29
aS'pan.n.03'
p30
aS'glass.n.02'
p31
aS'milk.n.01'
p32
aS'foam.n.01'
p33
aS'mug.n.04'
p34
aS'wok.n.01'
p35
aS'rice.n.01'
p36
aS'ice.n.01'
p37
aS'methamphetamine.n.01'
p38
aS'bowl.n.01'
p39
asS'instanceCount'
p40
I47
sS'matrix'
p41
(dp42
g26
(dp43
S'thermos.n.01'
p44
I1
ssg38
(dp45
g38
I0
ssg39
(dp46
S'bowl.n.01'
p47
I1
ssg13
(dp48
S'batter.n.02'
p49
I1
ssg16
(dp50
g16
I0
ssg25
(dp51
S'apple.n.01'
p52
I1
ssg33
(dp53
S'foam.n.01'
p54
I1
ssg32
(dp55
S'milk.n.01'
p56
I1
ssg30
(dp57
S'pan.n.03'
p58
I1
ssg11
(dp59
g11
I0
ssg12
(dp60
S'fill.v.01'
p61
I2
ssg21
(dp62
S'pot.n.01'
p63
I1
ssg9
(dp64
S'fill.v.01'
p65
I14
ssg22
(dp66
S'measuring_cup.n.01'
p67
I1
ssg31
(dp68
S'glass.n.02'
p69
I1
ssg28
(dp70
g29
I1
ssg19
(dp71
S'salt.n.02'
p72
I1
ssg29
(dp73
g29
I0
ssg35
(dp74
S'wok.n.01'
p75
I1
ssg27
(dp76
S'coffee.n.01'
p77
I1
ssg36
(dp78
S'rice.n.01'
p79
I1
ssg10
(dp80
g16
I1
sg11
I1
ssg34
(dp81
S'mug.n.04'
p82
I1
ssg20
(dp83
S'teapot.n.01'
p84
I1
ssg24
(dp85
S'blender.n.01'
p86
I1
ssg18
(dp87
S'saltcellar.n.01'
p88
I1
ssg15
(dp89
S'water.n.06'
p90
I4
ssg37
(dp91
g38
I1
ssg14
(dp92
S'kettle.n.01'
p93
I1
ssg17
(dp94
S'curd.n.01'
p95
I1
ssg8
(dp96
S'jar.n.01'
p97
I2
ssg23
(dp98
S'meal.n.03'
p99
I1
sssb.