ccopy_reg
_reconstructor
p0
(cutils.eval
ConfusionMatrix
p1
c__builtin__
object
p2
Ntp3
Rp4
(dp5
S'labels'
p6
(lp7
S'fill.v.01'
p8
aS'glass.n.02'
p9
aS'milk.n.01'
p10
aS'foam.n.01'
p11
aS'mug.n.04'
p12
aS'wok.n.01'
p13
aS'rice.n.01'
p14
aS'ice.n.01'
p15
aS'ice.n.05'
p16
aS'bowl.n.01'
p17
aS'bowl.n.08'
p18
aS'bottle.n.01'
p19
aS'fruit_juice.n.01'
p20
aS'whiskey.n.01'
p21
aS'carafe.n.01'
p22
aS'cup.n.01'
p23
aS'cola.n.02'
p24
aS'pitcher.n.02'
p25
aS'jar.n.01'
p26
aS'opening.n.01'
p27
aS'gap.n.03'
p28
aS'fill.v.09'
p29
aS'batter.n.02'
p30
aS'kettle.n.01'
p31
aS'water.n.06'
p32
aS'opening.n.10'
p33
aS'curd.n.01'
p34
aS'saltcellar.n.01'
p35
aS'salt.n.02'
p36
aS'teapot.n.01'
p37
aS'pot.n.01'
p38
aS'measuring_cup.n.01'
p39
aS'meal.n.03'
p40
asS'instanceCount'
p41
I47
sS'matrix'
p42
(dp43
g35
(dp44
S'saltcellar.n.01'
p45
I1
ssg17
(dp46
g18
I1
ssg30
(dp47
S'batter.n.02'
p48
I1
ssg33
(dp49
g33
I0
ssg18
(dp50
g18
I0
ssg10
(dp51
S'milk.n.01'
p52
I2
ssg8
(dp53
S'fill.v.01'
p54
I14
ssg11
(dp55
S'foam.n.01'
p56
I1
ssg24
(dp57
S'cola.n.02'
p58
I1
ssg28
(dp59
g28
I0
ssg29
(dp60
S'fill.v.01'
p61
I2
ssg19
(dp62
S'bottle.n.01'
p63
I1
ssg38
(dp64
S'pot.n.01'
p65
I1
ssg23
(dp66
S'cup.n.01'
p67
I1
ssg25
(dp68
S'pitcher.n.02'
p69
I1
ssg39
(dp70
S'measuring_cup.n.01'
p71
I1
ssg9
(dp72
S'glass.n.02'
p73
I1
ssg36
(dp74
S'salt.n.02'
p75
I1
ssg13
(dp76
S'wok.n.01'
p77
I1
ssg21
(dp78
S'whiskey.n.01'
p79
I1
ssg27
(dp80
g33
I1
sg28
I1
ssg12
(dp81
S'mug.n.04'
p82
I1
ssg20
(dp83
S'fruit_juice.n.01'
p84
I1
ssg37
(dp85
S'teapot.n.01'
p86
I1
ssg14
(dp87
S'rice.n.01'
p88
I1
ssg32
(dp89
S'water.n.06'
p90
I3
ssg15
(dp91
g16
I1
ssg31
(dp92
S'kettle.n.01'
p93
I1
ssg16
(dp94
g16
I0
ssg34
(dp95
S'curd.n.01'
p96
I1
ssg26
(dp97
S'jar.n.01'
p98
I1
ssg22
(dp99
S'carafe.n.01'
p100
I1
ssg40
(dp101
S'meal.n.03'
p102
I1
sssb.