ccopy_reg
_reconstructor
p0
(cutils.eval
ConfusionMatrix
p1
c__builtin__
object
p2
Ntp3
Rp4
(dp5
S'labels'
p6
(lp7
S'jar.n.01'
p8
aS'fill.v.01'
p9
aS'gravy.n.01'
p10
aS'gravy.n.02'
p11
aS'pan.n.03'
p12
aS'water.n.06'
p13
aS'glass.n.02'
p14
aS'milk.n.01'
p15
aS'foam.n.01'
p16
aS'mug.n.04'
p17
aS'wok.n.01'
p18
aS'rice.n.01'
p19
aS'ice.n.01'
p20
aS'ice.n.05'
p21
aS'bowl.n.01'
p22
aS'bottle.n.01'
p23
aS'fruit_juice.n.01'
p24
aS'whiskey.n.01'
p25
aS'carafe.n.01'
p26
aS'cup.n.01'
p27
aS'cola.n.02'
p28
aS'pitcher.n.02'
p29
aS'opening.n.01'
p30
aS'gap.n.03'
p31
aS'fill.v.09'
p32
aS'batter.n.02'
p33
aS'kettle.n.01'
p34
aS'opening.n.10'
p35
aS'curd.n.01'
p36
aS'saltcellar.n.01'
p37
aS'salt.n.02'
p38
aS'teapot.n.01'
p39
aS'pot.n.01'
p40
aS'measuring_cup.n.01'
p41
aS'meal.n.03'
p42
aS'blender.n.01'
p43
aS'apple.n.01'
p44
aS'thermos.n.01'
p45
aS'coffee.n.01'
p46
aS'bowl.n.08'
p47
aS'pot.n.04'
p48
aS'milk.n.04'
p49
aS'juice.n.01'
p50
aS'methamphetamine.n.01'
p51
asS'instanceCount'
p52
I472
sS'matrix'
p53
(dp54
g37
(dp55
g45
I0
sg51
I0
sg22
I0
sg33
I0
sg44
I0
sg35
I0
sg27
I0
sg15
I0
sg12
I0
sg16
I0
sg28
I0
sg31
I0
sg37
I8
sg23
I0
sg48
I0
sg40
I0
sg9
I0
sg47
I0
sg29
I0
sg41
I0
sg14
I0
sg10
I0
sg38
I0
sg11
I0
sg18
I0
sg46
I0
sg32
I0
sg25
I0
sg30
I0
sg17
I0
sg24
I0
sg39
I0
sg43
I0
sg19
I0
sg13
I0
sg20
I0
sg34
I0
sg21
I0
sg36
I0
sg8
I0
sg26
I0
sg42
I0
ssg45
(dp56
g45
I8
sg51
I0
sS'bowl.n.01'
p57
I0
sS'batter.n.02'
p58
I0
sg44
I0
sg49
I0
sS'opening.n.10'
p59
I0
sS'cup.n.01'
p60
I0
sS'milk.n.01'
p61
I0
sS'pan.n.03'
p62
I0
sS'foam.n.01'
p63
I0
sS'cola.n.02'
p64
I0
sS'gap.n.03'
p65
I0
sS'saltcellar.n.01'
p66
I0
sS'bottle.n.01'
p67
I0
sg48
I0
sg40
I0
sS'fill.v.01'
p68
I0
sg47
I0
sS'pitcher.n.02'
p69
I0
sg41
I0
sS'glass.n.02'
p70
I0
sS'gravy.n.01'
p71
I0
sS'salt.n.02'
p72
I0
sS'gravy.n.02'
p73
I0
sS'wok.n.01'
p74
I0
sg46
I0
sS'rice.n.01'
p75
I0
sS'whiskey.n.01'
p76
I0
sS'opening.n.01'
p77
I0
sS'mug.n.04'
p78
I0
sS'fruit_juice.n.01'
p79
I0
sS'teapot.n.01'
p80
I0
sg43
I0
sS'fill.v.09'
p81
I0
sS'water.n.06'
p82
I0
sS'ice.n.01'
p83
I0
sS'kettle.n.01'
p84
I0
sS'ice.n.05'
p85
I0
sS'curd.n.01'
p86
I0
sS'jar.n.01'
p87
I0
sS'carafe.n.01'
p88
I0
sg50
I0
sg42
I0
ssg51
(dp89
S'thermos.n.01'
p90
I0
sg51
I0
sS'bowl.n.01'
p91
I0
sS'batter.n.02'
p92
I0
sS'opening.n.10'
p93
I0
sS'apple.n.01'
p94
I0
sS'foam.n.01'
p95
I0
sS'milk.n.01'
p96
I0
sS'pan.n.03'
p97
I0
sS'gap.n.03'
p98
I0
sS'fill.v.09'
p99
I0
sS'pot.n.01'
p100
I0
sS'fill.v.01'
p101
I0
sS'measuring_cup.n.01'
p102
I0
sS'glass.n.02'
p103
I0
sS'gravy.n.01'
p104
I0
sS'salt.n.02'
p105
I0
sS'gravy.n.02'
p106
I0
sS'wok.n.01'
p107
I0
sS'coffee.n.01'
p108
I0
sS'rice.n.01'
p109
I0
sS'opening.n.01'
p110
I0
sS'mug.n.04'
p111
I0
sS'teapot.n.01'
p112
I0
sS'blender.n.01'
p113
I0
sS'saltcellar.n.01'
p114
I0
sS'water.n.06'
p115
I0
sS'ice.n.01'
p116
I0
sS'kettle.n.01'
p117
I0
sS'curd.n.01'
p118
I0
sS'jar.n.01'
p119
I0
sS'meal.n.03'
p120
I0
ssg22
(dp121
g37
I0
sS'thermos.n.01'
p122
I0
sg51
I0
sg22
I6
sg33
I0
sS'apple.n.01'
p123
I0
sg49
I0
sg35
I0
sg27
I0
sg15
I0
sg12
I0
sg16
I0
sg28
I0
sg31
I0
sg32
I0
sg23
I0
sg48
I0
sS'pot.n.01'
p124
I0
sg9
I0
sg47
I2
sg29
I0
sS'measuring_cup.n.01'
p125
I0
sg14
I0
sg10
I0
sg38
I0
sg11
I0
sg18
I0
sS'coffee.n.01'
p126
I0
sg25
I0
sg30
I0
sg17
I0
sg24
I0
sg39
I0
sS'blender.n.01'
p127
I0
sg19
I0
sg13
I0
sg20
I0
sg34
I0
sg21
I0
sg36
I0
sg8
I0
sg26
I0
sg50
I0
sS'meal.n.03'
p128
I0
ssg33
(dp129
g37
I0
sg45
I0
sg51
I0
sg22
I0
sg33
I8
sg44
I0
sg49
I0
sg35
I0
sg27
I0
sg15
I0
sg12
I0
sg16
I0
sg28
I0
sg31
I0
sg32
I0
sg23
I0
sg48
I0
sg40
I0
sg9
I0
sg47
I0
sg29
I0
sg41
I0
sg14
I0
sg10
I0
sg38
I0
sg11
I0
sg18
I0
sg46
I0
sg25
I0
sg30
I0
sg17
I0
sg24
I0
sg39
I0
sg43
I0
sg19
I0
sg13
I0
sg20
I0
sg34
I0
sg21
I0
sg36
I0
sg8
I0
sg26
I0
sg50
I0
sg42
I0
ssg44
(dp130
g45
I0
sg51
I0
sg57
I0
sg58
I0
sg44
I8
sg49
I0
sg59
I0
sg60
I0
sg61
I0
sg62
I0
sg63
I0
sg64
I0
sg65
I0
sg81
I0
sg67
I0
sg48
I0
sg40
I0
sg68
I0
sg47
I0
sg69
I0
sg41
I0
sg70
I0
sg71
I0
sg72
I0
sg73
I0
sg74
I0
sg46
I0
sg75
I0
sg76
I0
sg77
I0
sg78
I0
sg79
I0
sg80
I0
sg43
I0
sg66
I0
sg82
I0
sg83
I0
sg84
I0
sg85
I0
sg86
I0
sg87
I0
sg88
I0
sg50
I0
sg42
I0
ssg49
(dp131
S'rice.n.01'
p132
I0
sS'bowl.n.01'
p133
I0
sS'batter.n.02'
p134
I0
sS'opening.n.10'
p135
I0
sg49
I0
sS'apple.n.01'
p136
I0
sS'foam.n.01'
p137
I0
sS'milk.n.01'
p138
I0
sS'pan.n.03'
p139
I0
sS'cola.n.02'
p140
I0
sS'gap.n.03'
p141
I0
sS'fill.v.09'
p142
I0
sS'bottle.n.01'
p143
I0
sS'pot.n.01'
p144
I0
sS'fill.v.01'
p145
I0
sS'pitcher.n.02'
p146
I0
sS'measuring_cup.n.01'
p147
I0
sS'glass.n.02'
p148
I0
sS'gravy.n.01'
p149
I0
sS'gravy.n.02'
p150
I0
sS'wok.n.01'
p151
I0
sS'coffee.n.01'
p152
I0
sS'whiskey.n.01'
p153
I0
sS'opening.n.01'
p154
I0
sS'mug.n.04'
p155
I0
sS'fruit_juice.n.01'
p156
I0
sS'blender.n.01'
p157
I0
sS'thermos.n.01'
p158
I0
sS'water.n.06'
p159
I0
sS'ice.n.01'
p160
I0
sS'cup.n.01'
p161
I0
sS'kettle.n.01'
p162
I0
sS'ice.n.05'
p163
I0
sS'curd.n.01'
p164
I0
sS'jar.n.01'
p165
I0
sS'carafe.n.01'
p166
I0
sg50
I0
sS'meal.n.03'
p167
I0
ssg35
(dp168
g37
I0
sg45
I0
sg51
I0
sg22
I0
sg33
I0
sg44
I0
sS'milk.n.04'
p169
I0
sg35
I0
sg27
I0
sg15
I0
sg12
I0
sg16
I0
sg28
I0
sg31
I0
sg32
I0
sg23
I0
sg48
I0
sg40
I0
sg9
I0
sg47
I0
sg29
I0
sg41
I0
sg14
I0
sg10
I0
sg38
I0
sg11
I0
sg18
I0
sg46
I0
sg25
I0
sg30
I0
sg17
I0
sg24
I0
sg39
I0
sg43
I0
sg19
I0
sg13
I0
sg20
I0
sg34
I0
sg21
I0
sg36
I0
sg8
I0
sg26
I0
sS'juice.n.01'
p170
I0
sg42
I0
ssg27
(dp171
g37
I0
sg45
I0
sg22
I0
sg33
I0
sg44
I0
sg49
I0
sg35
I0
sg16
I0
sg15
I0
sg12
I0
sg47
I0
sg28
I0
sg31
I0
sg32
I0
sg23
I0
sg48
I0
sg40
I0
sg9
I0
sg29
I0
sg41
I0
sg14
I0
sg10
I0
sg38
I0
sg11
I0
sg18
I0
sg46
I0
sg25
I0
sg30
I0
sg17
I0
sg24
I0
sg39
I0
sg43
I0
sg19
I0
sg13
I0
sg20
I0
sg27
I8
sg34
I0
sg21
I0
sg36
I0
sg8
I0
sg26
I0
sg50
I0
sg42
I0
ssg15
(dp172
g37
I0
sg45
I0
sg51
I0
sg22
I0
sg33
I0
sg44
I0
sg49
I2
sg35
I0
sg27
I0
sg15
I14
sg12
I0
sg16
I0
sg28
I0
sg31
I0
sg32
I0
sg23
I0
sg48
I0
sg40
I0
sg9
I0
sg47
I0
sg29
I0
sg41
I0
sg14
I0
sg10
I0
sg38
I0
sg11
I0
sg18
I0
sg46
I0
sg25
I0
sg30
I0
sg17
I0
sg24
I0
sg39
I0
sg43
I0
sg19
I0
sg13
I0
sg20
I0
sg34
I0
sg21
I0
sg36
I0
sg8
I0
sg26
I0
sg50
I0
sg42
I0
ssg12
(dp173
g37
I0
sg45
I0
sg51
I0
sg22
I0
sg33
I0
sg44
I0
sg49
I0
sg35
I0
sg27
I0
sg15
I0
sg12
I8
sg16
I0
sg28
I0
sg31
I0
sg32
I0
sg23
I0
sS'pot.n.04'
p174
I0
sg40
I0
sg9
I0
sg29
I0
sg41
I0
sg14
I0
sg10
I0
sg38
I0
sg11
I0
sg18
I0
sg46
I0
sg25
I0
sg30
I0
sg17
I0
sg24
I0
sg39
I0
sg43
I0
sg19
I0
sg13
I0
sg20
I0
sg34
I0
sg21
I0
sg36
I0
sg8
I0
sg26
I0
sg50
I0
sg42
I0
ssg16
(dp175
g37
I0
sg45
I0
sg51
I0
sg22
I0
sg33
I0
sg44
I0
sg49
I0
sg35
I0
sg27
I0
sg15
I0
sg12
I0
sg16
I8
sg28
I0
sg31
I0
sg32
I0
sg23
I0
sg174
I0
sg40
I0
sg9
I0
sS'bowl.n.08'
p176
I0
sg29
I0
sg41
I0
sg14
I0
sg10
I0
sg38
I0
sg11
I0
sg18
I0
sg46
I0
sg25
I0
sg30
I0
sg17
I0
sg24
I0
sg39
I0
sg43
I0
sg19
I0
sg13
I0
sg20
I0
sg34
I0
sg21
I0
sg36
I0
sg8
I0
sg26
I0
sg50
I0
sg42
I0
ssg28
(dp177
g37
I0
sg45
I0
sg22
I0
sg33
I0
sg44
I0
sg49
I0
sg35
I0
sg27
I0
sg15
I0
sg12
I0
sg16
I0
sg28
I8
sg31
I0
sg32
I0
sg23
I0
sg48
I0
sg40
I0
sg9
I0
sg47
I0
sg29
I0
sg41
I0
sg14
I0
sg10
I0
sg38
I0
sg11
I0
sg18
I0
sg46
I0
sg25
I0
sg30
I0
sg17
I0
sg24
I0
sg39
I0
sg43
I0
sg19
I0
sg13
I0
sg20
I0
sg34
I0
sg21
I0
sg36
I0
sg8
I0
sg26
I0
sg50
I0
sg42
I0
ssg31
(dp178
g37
I0
sg45
I0
sg51
I0
sg22
I0
sg33
I0
sg44
I0
sg49
I0
sg35
I0
sg27
I0
sg15
I0
sg12
I0
sg16
I0
sg28
I0
sg31
I0
sg32
I0
sg23
I0
sg48
I0
sg40
I0
sg9
I0
sg47
I0
sg29
I0
sg41
I0
sg14
I0
sg10
I0
sg38
I0
sg11
I0
sg18
I0
sg46
I0
sg25
I0
sg30
I0
sg17
I0
sg24
I0
sg39
I0
sg43
I0
sg19
I0
sg13
I0
sg20
I0
sg34
I0
sg21
I0
sg36
I0
sg8
I0
sg26
I0
sg50
I0
sg42
I0
ssg32
(dp179
g37
I0
sg45
I0
sg51
I0
sg22
I0
sg33
I0
sg44
I0
sg49
I0
sg35
I0
sg27
I0
sg15
I0
sg12
I0
sg16
I0
sg28
I0
sg31
I0
sg32
I0
sg23
I0
sg48
I0
sg40
I0
sg9
I16
sg47
I0
sg29
I0
sg41
I0
sg14
I0
sg10
I0
sg38
I0
sg11
I0
sg18
I0
sg46
I0
sg25
I0
sg30
I0
sg17
I0
sg24
I0
sg39
I0
sg43
I0
sg19
I0
sg13
I0
sg20
I0
sg34
I0
sg21
I0
sg36
I0
sg8
I0
sg26
I0
sg50
I0
sg42
I0
ssg23
(dp180
g37
I0
sg122
I0
sg22
I0
sg33
I0
sg123
I0
sg49
I0
sg35
I0
sg27
I0
sg15
I0
sg12
I0
sg16
I0
sg28
I0
sg31
I0
sg32
I0
sg23
I8
sg48
I0
sg124
I0
sg9
I0
sg47
I0
sg29
I0
sg125
I0
sg14
I0
sg10
I0
sg38
I0
sg11
I0
sg18
I0
sg126
I0
sg25
I0
sg30
I0
sg17
I0
sg24
I0
sg39
I0
sg127
I0
sg19
I0
sg13
I0
sg20
I0
sg34
I0
sg21
I0
sg36
I0
sg8
I0
sg26
I0
sg50
I0
sg128
I0
ssg48
(dp181
S'saltcellar.n.01'
p182
I0
sg122
I0
sg57
I0
sS'batter.n.02'
p183
I0
sg123
I0
sS'opening.n.10'
p184
I0
sS'fill.v.01'
p185
I0
sS'milk.n.01'
p186
I0
sS'pan.n.03'
p187
I0
sg47
I0
sS'cola.n.02'
p188
I0
sS'gap.n.03'
p189
I0
sS'fill.v.09'
p190
I0
sg67
I0
sg48
I0
sg124
I0
sS'cup.n.01'
p191
I0
sS'pitcher.n.02'
p192
I0
sg125
I0
sS'glass.n.02'
p193
I0
sS'gravy.n.01'
p194
I0
sS'salt.n.02'
p195
I0
sS'gravy.n.02'
p196
I0
sg74
I0
sg126
I0
sS'foam.n.01'
p197
I0
sg76
I0
sS'opening.n.01'
p198
I0
sS'mug.n.04'
p199
I0
sg79
I0
sS'teapot.n.01'
p200
I0
sg127
I0
sg75
I0
sS'water.n.06'
p201
I0
sg83
I0
sS'kettle.n.01'
p202
I0
sg85
I0
sS'curd.n.01'
p203
I0
sS'jar.n.01'
p204
I0
sg88
I0
sg128
I0
ssg40
(dp205
g45
I0
sg51
I0
sg57
I0
sg58
I0
sg59
I0
sg49
I0
sg44
I0
sg60
I0
sg61
I0
sg62
I0
sg63
I0
sg64
I0
sg65
I0
sg81
I0
sg67
I0
sg48
I2
sg40
I6
sg68
I0
sg47
I0
sg69
I0
sg41
I0
sg70
I0
sg71
I0
sg72
I0
sg73
I0
sg74
I0
sg46
I0
sg75
I0
sg76
I0
sg77
I0
sg78
I0
sg79
I0
sg80
I0
sg43
I0
sg66
I0
sg82
I0
sg83
I0
sg84
I0
sg85
I0
sg86
I0
sg87
I0
sg88
I0
sg50
I0
sg42
I0
ssg9
(dp206
g37
I0
sg45
I0
sg51
I0
sg22
I0
sg33
I0
sg44
I0
sg49
I0
sg35
I0
sg27
I0
sg15
I0
sg12
I0
sg16
I0
sg28
I0
sg31
I0
sg32
I0
sg23
I0
sg48
I0
sg40
I0
sg9
I144
sg47
I0
sg29
I0
sg41
I0
sg14
I0
sg10
I0
sg38
I0
sg11
I0
sg18
I0
sg46
I0
sg25
I0
sg30
I0
sg17
I0
sg24
I0
sg39
I0
sg43
I0
sg19
I0
sg13
I0
sg20
I0
sg34
I0
sg21
I0
sg36
I0
sg8
I0
sg26
I0
sg50
I0
sg42
I0
ssg47
(dp207
g182
I0
sg122
I0
sg57
I0
sg183
I0
sg123
I0
sg184
I0
sg185
I0
sg186
I0
sg47
I0
sg188
I0
sg189
I0
sg190
I0
sg67
I0
sg48
I0
sg124
I0
sg191
I0
sg192
I0
sg125
I0
sS'glass.n.02'
p208
I0
sg195
I0
sg74
I0
sg126
I0
sS'foam.n.01'
p209
I0
sg76
I0
sg198
I0
sS'mug.n.04'
p210
I0
sg79
I0
sg200
I0
sg127
I0
sg75
I0
sg201
I0
sg83
I0
sg202
I0
sg85
I0
sg203
I0
sg204
I0
sg88
I0
sg128
I0
ssg29
(dp211
g37
I0
sg45
I0
sg22
I0
sg33
I0
sg44
I0
sg49
I0
sg35
I0
sg27
I0
sg15
I0
sg12
I0
sg16
I0
sg28
I0
sg31
I0
sg32
I0
sg23
I0
sg48
I0
sg40
I0
sg9
I0
sg47
I0
sg29
I8
sg41
I0
sg14
I0
sg10
I0
sg38
I0
sg11
I0
sg18
I0
sg46
I0
sg25
I0
sg30
I0
sg17
I0
sg24
I0
sg39
I0
sg43
I0
sg19
I0
sg13
I0
sg20
I0
sg34
I0
sg21
I0
sg36
I0
sg8
I0
sg26
I0
sg50
I0
sg42
I0
ssg41
(dp212
g45
I0
sg51
I0
sg57
I0
sg58
I0
sg59
I0
sg49
I0
sg44
I0
sg60
I0
sg61
I0
sg62
I0
sg63
I0
sg64
I0
sg65
I0
sg81
I0
sg67
I0
sg48
I0
sg40
I0
sg68
I0
sg47
I0
sg69
I0
sg41
I8
sg70
I0
sg71
I0
sg72
I0
sg73
I0
sg74
I0
sg46
I0
sg75
I0
sg76
I0
sg77
I0
sg78
I0
sg79
I0
sg80
I0
sg43
I0
sg66
I0
sg82
I0
sg83
I0
sg84
I0
sg85
I0
sg86
I0
sg87
I0
sg88
I0
sg50
I0
sg42
I0
ssg14
(dp213
g37
I0
sg45
I0
sg51
I0
sg22
I0
sg33
I0
sg44
I0
sg49
I0
sg35
I0
sg27
I0
sg15
I0
sg12
I0
sg16
I0
sg28
I0
sg31
I0
sg32
I0
sg23
I0
sg174
I0
sg40
I0
sg9
I0
sg176
I0
sg29
I0
sg41
I0
sg14
I8
sg10
I0
sg38
I0
sg11
I0
sg18
I0
sg46
I0
sg25
I0
sg30
I0
sg17
I0
sg24
I0
sg39
I0
sg43
I0
sg19
I0
sg13
I0
sg20
I0
sg34
I0
sg21
I0
sg36
I0
sg8
I0
sg26
I0
sg50
I0
sg42
I0
ssg10
(dp214
g37
I0
sg45
I0
sg51
I0
sg22
I0
sg33
I0
sg44
I0
sg49
I0
sg35
I0
sg27
I0
sg15
I0
sg12
I0
sg16
I0
sg28
I0
sg31
I0
sg32
I0
sg23
I0
sg174
I0
sg40
I0
sg9
I0
sg29
I0
sg41
I0
sg14
I0
sg10
I0
sg38
I0
sg11
I8
sg18
I0
sg46
I0
sg25
I0
sg30
I0
sg17
I0
sg24
I0
sg39
I0
sg43
I0
sg19
I0
sg13
I0
sg20
I0
sg34
I0
sg21
I0
sg36
I0
sg8
I0
sg26
I0
sg50
I0
sg42
I0
ssg38
(dp215
g37
I0
sg45
I0
sg51
I0
sg22
I0
sg33
I0
sg44
I0
sg35
I0
sg27
I0
sg15
I0
sg12
I0
sg16
I0
sg28
I0
sg31
I0
sg32
I0
sg23
I0
sg48
I0
sg40
I0
sg9
I0
sg47
I0
sg29
I0
sg41
I0
sg14
I0
sg10
I0
sg38
I8
sg11
I0
sg18
I0
sg46
I0
sg25
I0
sg30
I0
sg17
I0
sg24
I0
sg39
I0
sg43
I0
sg19
I0
sg13
I0
sg20
I0
sg34
I0
sg21
I0
sg36
I0
sg8
I0
sg26
I0
sg42
I0
ssg11
(dp216
g37
I0
sg45
I0
sg51
I0
sg22
I0
sg33
I0
sg44
I0
sg49
I0
sg35
I0
sg27
I0
sg15
I0
sg12
I0
sg16
I0
sg28
I0
sg31
I0
sg32
I0
sg23
I0
sg174
I0
sg40
I0
sg9
I0
sg29
I0
sg41
I0
sg14
I0
sg10
I0
sg38
I0
sg11
I0
sg18
I0
sg46
I0
sg25
I0
sg30
I0
sg17
I0
sg24
I0
sg39
I0
sg43
I0
sg19
I0
sg13
I0
sg20
I0
sg34
I0
sg21
I0
sg36
I0
sg8
I0
sg26
I0
sg50
I0
sg42
I0
ssg18
(dp217
g37
I0
sg122
I0
sg51
I0
sg22
I0
sg33
I0
sg123
I0
sg49
I0
sg35
I0
sg27
I0
sg15
I0
sg12
I0
sg16
I0
sg28
I0
sg31
I0
sg32
I0
sg23
I0
sg48
I0
sg124
I0
sg9
I0
sg47
I0
sg29
I0
sg125
I0
sg14
I0
sg10
I0
sg38
I0
sg11
I0
sg18
I8
sg126
I0
sg25
I0
sg30
I0
sg17
I0
sg24
I0
sg39
I0
sg127
I0
sg19
I0
sg13
I0
sg20
I0
sg34
I0
sg21
I0
sg36
I0
sg8
I0
sg26
I0
sg50
I0
sg128
I0
ssg46
(dp218
g45
I0
sg51
I0
sg57
I0
sg58
I0
sg44
I0
sg49
I0
sg59
I0
sg60
I0
sg61
I0
sg62
I0
sg63
I0
sg64
I0
sg65
I0
sg81
I0
sg67
I0
sg48
I0
sg40
I0
sg68
I0
sg47
I0
sg69
I0
sg41
I0
sg70
I0
sg71
I0
sg72
I0
sg73
I0
sg74
I0
sg46
I8
sg75
I0
sg76
I0
sg77
I0
sg78
I0
sg79
I0
sg80
I0
sg43
I0
sg66
I0
sg82
I0
sg83
I0
sg84
I0
sg85
I0
sg86
I0
sg87
I0
sg88
I0
sg50
I0
sg42
I0
ssg25
(dp219
g37
I0
sg122
I0
sg22
I0
sg33
I0
sg123
I0
sg49
I0
sg35
I0
sg27
I0
sg15
I0
sg12
I0
sg16
I0
sg28
I0
sg31
I0
sg32
I0
sg23
I0
sg48
I0
sg124
I0
sg9
I0
sg47
I0
sg29
I0
sg125
I0
sg14
I0
sg10
I0
sg38
I0
sg11
I0
sg18
I0
sg126
I0
sg25
I8
sg30
I0
sg17
I0
sg24
I0
sg39
I0
sg127
I0
sg19
I0
sg13
I0
sg20
I0
sg34
I0
sg21
I0
sg36
I0
sg8
I0
sg26
I0
sg50
I0
sg128
I0
ssg30
(dp220
g37
I0
sg45
I0
sg51
I0
sg22
I0
sg33
I0
sg44
I0
sg49
I0
sg35
I8
sg27
I0
sg15
I0
sg12
I0
sg16
I0
sg28
I0
sg31
I8
sg32
I0
sg23
I0
sg48
I0
sg40
I0
sg9
I0
sg47
I0
sg29
I0
sg41
I0
sg14
I0
sg10
I0
sg38
I0
sg11
I0
sg18
I0
sg46
I0
sg25
I0
sg30
I0
sg17
I0
sg24
I0
sg39
I0
sg43
I0
sg19
I0
sg13
I0
sg20
I0
sg34
I0
sg21
I0
sg36
I0
sg8
I0
sg26
I0
sg50
I0
sg42
I0
ssg17
(dp221
g37
I0
sg45
I0
sg51
I0
sg22
I0
sg33
I0
sg44
I0
sg49
I0
sg35
I0
sg27
I0
sg15
I0
sg12
I0
sg16
I0
sg28
I0
sg31
I0
sg32
I0
sg23
I0
sg174
I0
sg40
I0
sg9
I0
sg176
I0
sg29
I0
sg41
I0
sg14
I0
sg10
I0
sg38
I0
sg11
I0
sg18
I0
sg46
I0
sg25
I0
sg30
I0
sg17
I8
sg24
I0
sg39
I0
sg43
I0
sg19
I0
sg13
I0
sg20
I0
sg34
I0
sg21
I0
sg36
I0
sg8
I0
sg26
I0
sg50
I0
sg42
I0
ssg24
(dp222
g37
I0
sg122
I0
sg22
I0
sg33
I0
sg123
I0
sg49
I0
sg35
I0
sg27
I0
sg15
I0
sg12
I0
sg16
I0
sg28
I0
sg31
I0
sg32
I0
sg23
I0
sg48
I0
sg124
I0
sg9
I0
sg47
I0
sg29
I0
sg125
I0
sg14
I0
sg10
I0
sg38
I0
sg11
I0
sg18
I0
sg126
I0
sg25
I0
sg30
I0
sg17
I0
sg24
I6
sg39
I0
sg127
I0
sg19
I0
sg13
I0
sg20
I0
sg34
I0
sg21
I0
sg36
I0
sg8
I0
sg26
I0
sg50
I2
sg128
I0
ssg39
(dp223
g37
I0
sg45
I0
sg51
I0
sg22
I0
sg33
I0
sg44
I0
sg35
I0
sg27
I0
sg15
I0
sg12
I0
sg16
I0
sg28
I0
sg31
I0
sg32
I0
sg23
I0
sg48
I0
sg40
I0
sg9
I0
sg47
I0
sg29
I0
sg41
I0
sg14
I0
sg10
I0
sg38
I0
sg11
I0
sg18
I0
sg46
I0
sg25
I0
sg30
I0
sg17
I0
sg24
I0
sg39
I8
sg43
I0
sg19
I0
sg13
I0
sg20
I0
sg34
I0
sg21
I0
sg36
I0
sg8
I0
sg26
I0
sg42
I0
ssg43
(dp224
g45
I0
sg51
I0
sg57
I0
sg58
I0
sg59
I0
sg49
I0
sg44
I0
sg60
I0
sg61
I0
sg62
I0
sg63
I0
sg64
I0
sg65
I0
sg66
I0
sg67
I0
sg48
I0
sg40
I0
sg68
I0
sg47
I0
sg69
I0
sg41
I0
sg70
I0
sg71
I0
sg72
I0
sg73
I0
sg74
I0
sg46
I0
sg75
I0
sg76
I0
sg77
I0
sg78
I0
sg79
I0
sg80
I0
sg43
I8
sg81
I0
sg82
I0
sg83
I0
sg84
I0
sg85
I0
sg86
I0
sg87
I0
sg88
I0
sg50
I0
sg42
I0
ssg19
(dp225
g37
I0
sg122
I0
sg51
I0
sg22
I0
sg33
I0
sg123
I0
sg49
I0
sg35
I0
sg27
I0
sg15
I0
sg12
I0
sg16
I0
sg28
I0
sg31
I0
sg32
I0
sg23
I0
sg48
I0
sg124
I0
sg9
I0
sg47
I0
sg29
I0
sg125
I0
sg14
I0
sg10
I0
sg38
I0
sg11
I0
sg18
I0
sg126
I0
sg25
I0
sg30
I0
sg17
I0
sg24
I0
sg39
I0
sg127
I0
sg19
I8
sg13
I0
sg20
I0
sg34
I0
sg21
I0
sg36
I0
sg8
I0
sg26
I0
sg50
I0
sg128
I0
ssg13
(dp226
g37
I0
sg45
I0
sg51
I0
sg22
I0
sg33
I0
sg44
I0
sg49
I0
sg35
I0
sg27
I0
sg15
I0
sg12
I0
sg16
I0
sg28
I0
sg31
I0
sg32
I0
sg23
I0
sg48
I0
sg40
I0
sg9
I0
sg47
I0
sg29
I0
sg41
I0
sg14
I0
sg10
I0
sg38
I0
sg11
I0
sg18
I0
sg46
I0
sg25
I0
sg30
I0
sg17
I0
sg24
I0
sg39
I0
sg43
I0
sg19
I0
sg13
I32
sg20
I0
sg34
I0
sg21
I0
sg36
I0
sg8
I0
sg26
I0
sg50
I0
sg42
I0
ssg20
(dp227
g37
I0
sg122
I0
sg51
I1
sg22
I0
sg33
I0
sg123
I0
sg49
I0
sg35
I0
sg27
I0
sg15
I0
sg12
I0
sg16
I0
sg28
I0
sg31
I0
sg32
I0
sg23
I0
sg48
I0
sg124
I0
sg9
I0
sg47
I0
sg29
I0
sg125
I0
sg14
I0
sg10
I0
sg38
I0
sg11
I0
sg18
I0
sg126
I0
sg25
I0
sg30
I0
sg17
I0
sg24
I0
sg39
I0
sg127
I0
sg19
I0
sg13
I0
sg20
I0
sg34
I0
sg21
I7
sg36
I0
sg8
I0
sg26
I0
sg50
I0
sg128
I0
ssg34
(dp228
g37
I0
sg45
I0
sg51
I0
sg22
I0
sg33
I0
sg44
I0
sg169
I0
sg35
I0
sg27
I0
sg15
I0
sg12
I0
sg16
I0
sg28
I0
sg31
I0
sg32
I0
sg23
I0
sg48
I0
sg40
I0
sg9
I0
sg47
I0
sg29
I0
sg41
I0
sg14
I0
sg10
I0
sg38
I0
sg11
I0
sg18
I0
sg46
I0
sg25
I0
sg30
I0
sg17
I0
sg24
I0
sg39
I0
sg43
I0
sg19
I0
sg13
I0
sg20
I0
sg34
I8
sg21
I0
sg36
I0
sg8
I0
sg26
I0
sg170
I0
sg42
I0
ssg21
(dp229
g37
I0
sg122
I0
sg22
I0
sg33
I0
sg123
I0
sg49
I0
sg35
I0
sg27
I0
sg15
I0
sg12
I0
sg16
I0
sg28
I0
sg31
I0
sg32
I0
sg23
I0
sg48
I0
sg124
I0
sg9
I0
sg47
I0
sg29
I0
sg125
I0
sg14
I0
sg10
I0
sg38
I0
sg11
I0
sg18
I0
sg126
I0
sg25
I0
sg30
I0
sg17
I0
sg24
I0
sg39
I0
sg127
I0
sg19
I0
sg13
I0
sg20
I0
sg34
I0
sg21
I0
sg36
I0
sg8
I0
sg26
I0
sg50
I0
sg128
I0
ssg36
(dp230
g37
I0
sg45
I0
sg51
I0
sg22
I0
sg33
I0
sg44
I0
sg169
I0
sg35
I0
sg9
I0
sg15
I0
sg12
I0
sg16
I0
sg28
I0
sg31
I0
sg32
I0
sg23
I0
sg48
I0
sg40
I0
sg27
I0
sg47
I0
sg29
I0
sg41
I0
sg14
I0
sg10
I0
sg38
I0
sg11
I0
sg18
I0
sg46
I0
sg25
I0
sg30
I0
sg17
I0
sg24
I0
sg39
I0
sg43
I0
sg19
I0
sg13
I0
sg20
I0
sg34
I0
sg21
I0
sg36
I8
sg8
I0
sg26
I0
sg170
I0
sg42
I0
ssg8
(dp231
g37
I0
sg45
I0
sg51
I0
sg22
I0
sg33
I0
sg44
I0
sg49
I0
sg35
I0
sg27
I0
sg15
I0
sg12
I0
sg16
I0
sg28
I0
sg31
I0
sg32
I0
sg23
I0
sg48
I0
sg40
I0
sg9
I0
sg47
I0
sg29
I0
sg41
I0
sg14
I0
sg10
I0
sg38
I0
sg11
I0
sg18
I0
sg46
I0
sg25
I0
sg30
I0
sg17
I0
sg24
I0
sg39
I0
sg43
I0
sg19
I0
sg13
I0
sg20
I0
sg34
I0
sg21
I0
sg36
I0
sg8
I16
sg26
I0
sg50
I0
sg42
I0
ssg26
(dp232
g37
I0
sg122
I0
sg22
I0
sg33
I0
sg123
I0
sg49
I0
sg35
I0
sg27
I0
sg15
I0
sg12
I0
sg16
I0
sg28
I0
sg31
I0
sg32
I0
sg23
I0
sg48
I0
sg124
I0
sg9
I0
sg47
I0
sg29
I0
sg125
I0
sg14
I0
sg10
I0
sg38
I0
sg11
I0
sg18
I0
sg126
I0
sg25
I0
sg30
I0
sg17
I0
sg24
I0
sg39
I0
sg127
I0
sg19
I0
sg13
I0
sg20
I0
sg34
I0
sg21
I0
sg36
I0
sg8
I0
sg26
I8
sg50
I0
sg128
I0
ssg50
(dp233
g158
I0
sg133
I0
sg134
I0
sg135
I0
sg49
I0
sg136
I0
sg137
I0
sg138
I0
sg139
I0
sg140
I0
sg141
I0
sg142
I0
sg143
I0
sg144
I0
sg145
I0
sg146
I0
sg147
I0
sg148
I0
sg149
I0
sg150
I0
sg151
I0
sg152
I0
sg153
I0
sg154
I0
sg155
I0
sg156
I0
sg157
I0
sg132
I0
sg159
I0
sg160
I0
sg161
I0
sg162
I0
sg163
I0
sg164
I0
sg165
I0
sg166
I0
sg50
I0
sg167
I0
ssg42
(dp234
g45
I0
sg51
I0
sg57
I0
sg58
I0
sg59
I0
sg49
I0
sg44
I0
sg60
I0
sg61
I0
sg62
I0
sg63
I0
sg64
I0
sg65
I0
sg81
I0
sg67
I0
sg48
I0
sg40
I0
sg68
I0
sg47
I0
sg69
I0
sg41
I0
sg70
I0
sg71
I0
sg72
I0
sg73
I0
sg74
I0
sg46
I0
sg75
I0
sg76
I0
sg77
I0
sg78
I0
sg79
I0
sg80
I0
sg43
I0
sg66
I0
sg82
I0
sg83
I0
sg84
I0
sg85
I0
sg86
I0
sg87
I0
sg88
I0
sg50
I0
sg42
I8
sssb.