ccopy_reg
_reconstructor
p0
(cutils.eval
ConfusionMatrix
p1
c__builtin__
object
p2
Ntp3
Rp4
(dp5
S'labels'
p6
(lp7
S'stir.v.08'
p8
aS'banana.n.02'
p9
aS'dough.n.01'
p10
aS'cream.n.02'
p11
aS'milk.n.01'
p12
aS'stir.v.01'
p13
asS'instanceCount'
p14
I7
sS'matrix'
p15
(dp16
g9
(dp17
S'banana.n.02'
p18
I1
ssg10
(dp19
S'dough.n.01'
p20
I1
ssg11
(dp21
S'cream.n.02'
p22
I1
ssg8
(dp23
S'stir.v.08'
p24
I2
ssg13
(dp25
S'stir.v.01'
p26
I1
ssg12
(dp27
S'milk.n.01'
p28
I1
sssb.