ccopy_reg
_reconstructor
p0
(cutils.eval
ConfusionMatrix
p1
c__builtin__
object
p2
Ntp3
Rp4
(dp5
S'labels'
p6
(lp7
S'tea.n.01'
p8
aS'stir.v.01'
p9
aS'teaspoon.n.02'
p10
aS'teaspoon.n.01'
p11
aS'champagne.n.01'
p12
asS'instanceCount'
p13
I7
sS'matrix'
p14
(dp15
g9
(dp16
S'stir.v.01'
p17
I3
ssg12
(dp18
S'champagne.n.01'
p19
I1
ssg8
(dp20
S'tea.n.01'
p21
I2
ssg10
(dp22
g11
I1
ssg11
(dp23
g11
I0
sssb.