ccopy_reg
_reconstructor
p0
(cutils.eval
ConfusionMatrix
p1
c__builtin__
object
p2
Ntp3
Rp4
(dp5
S'labels'
p6
(lp7
S'Adding'
p8
aS'Slicing'
p9
aS'Cutting'
p10
aS'Stirring'
p11
asS'instanceCount'
p12
I4
sS'matrix'
p13
(dp14
g9
(dp15
g10
I1
ssg8
(dp16
S'Adding'
p17
I1
ssg10
(dp18
g10
I1
ssg11
(dp19
S'Stirring'
p20
I1
sssb.