ccopy_reg
_reconstructor
p0
(cutils.eval
ConfusionMatrix
p1
c__builtin__
object
p2
Ntp3
Rp4
(dp5
S'labels'
p6
(lp7
S'Neutralisation'
p8
aS'Cutting'
p9
aS'Slicing'
p10
aS'Stirring'
p11
asS'instanceCount'
p12
I4
sS'matrix'
p13
(dp14
g10
(dp15
g10
I0
ssg9
(dp16
g10
I1
ssg11
(dp17
S'Stirring'
p18
I2
ssg8
(dp19
S'Neutralisation'
p20
I1
sssb.