(dp0
S'engine'
p1
S'internal'
p2
sS'params1'
p3
S''
p4
sS'run'
p5
I00
sS'method1'
p6
S'pseudo-log-likelihood with blocking, memory-efficient'
p7
sS'geometry'
p8
S'1053x955+87+143'
p9
sS'db'
p10
g4
sS'priorStdDev'
p11
S'100'
p12
sS'mln'
p13
S'senses.mln'
p14
sS'output_filename'
p15
S'mln.learned.mln'
p16
sS'pattern'
p17
S'multiple_databases/*.db'
p18
sS'addUnitClauses'
p19
I0
sS'nePreds'
p20
g4
sS'usePrior'
p21
I0
s.