ccopy_reg
_reconstructor
p0
(cutils.eval
ConfusionMatrix
p1
c__builtin__
object
p2
Ntp3
Rp4
(dp5
S'labels'
p6
(lp7
S'piece.n.08'
p8
aS'slice.n.06'
p9
aS'pizza.n.01'
p10
aS'slice.v.03'
p11
aS'cut.v.01'
p12
aS'bread.n.01'
p13
aS'knife.n.01'
p14
aS'bacon.n.01'
p15
aS'put.v.01'
p16
aS'cake.n.03'
p17
aS'whipped_cream.n.01'
p18
aS'lemon.n.01'
p19
aS'onion.n.01'
p20
aS'onion.n.03'
p21
aS'beef.n.02'
p22
aS'plate.n.04'
p23
aS'plate.n.13'
p24
aS'fill.v.01'
p25
aS'kettle.n.01'
p26
aS'water.n.06'
p27
aS'meat.n.01'
p28
aS'cleaver.n.01'
p29
aS'pepper.n.03'
p30
aS'pepper.n.04'
p31
aS'salt.n.02'
p32
aS'salt.n.01'
p33
aS'egg.n.02'
p34
aS'egg.n.01'
p35
aS'fill.v.09'
p36
aS'pitcher.n.02'
p37
aS'milk.n.01'
p38
asS'instanceCount'
p39
I30
sS'matrix'
p40
(dp41
g24
(dp42
g24
I0
ssg22
(dp43
S'beef.n.02'
p44
I1
ssg13
(dp45
S'bread.n.01'
p46
I1
ssg38
(dp47
S'milk.n.01'
p48
I1
ssg12
(dp49
S'cut.v.01'
p50
I4
ssg36
(dp51
g36
I0
ssg34
(dp52
g35
I1
ssg35
(dp53
g35
I0
ssg15
(dp54
S'bacon.n.01'
p55
I1
ssg25
(dp56
g36
I1
sS'fill.v.01'
p57
I1
ssg37
(dp58
S'pitcher.n.02'
p59
I1
ssg29
(dp60
S'cleaver.n.01'
p61
I1
ssg32
(dp62
g33
I1
ssg28
(dp63
S'meat.n.01'
p64
I1
ssg11
(dp65
S'slice.v.03'
p66
I1
ssg33
(dp67
g33
I0
ssg14
(dp68
S'knife.n.01'
p69
I1
ssg23
(dp70
g24
I1
ssg31
(dp71
g31
I0
ssg30
(dp72
g31
I1
ssg18
(dp73
S'whipped_cream.n.01'
p74
I1
ssg8
(dp75
g9
I1
ssg9
(dp76
g9
I0
ssg27
(dp77
S'water.n.06'
p78
I1
ssg16
(dp79
S'put.v.01'
p80
I3
ssg10
(dp81
S'pizza.n.01'
p82
I1
ssg26
(dp83
S'kettle.n.01'
p84
I1
ssg17
(dp85
S'cake.n.03'
p86
I1
ssg19
(dp87
S'lemon.n.01'
p88
I1
ssg20
(dp89
g21
I1
ssg21
(dp90
g21
I0
sssb.