ccopy_reg
_reconstructor
p0
(cutils.eval
ConfusionMatrix
p1
c__builtin__
object
p2
Ntp3
Rp4
(dp5
S'labels'
p6
(lp7
S'piece.n.08'
p8
aS'slice.n.06'
p9
aS'pizza.n.01'
p10
aS'slice.v.03'
p11
aS'cut.v.01'
p12
aS'bread.n.01'
p13
aS'knife.n.01'
p14
aS'bacon.n.01'
p15
aS'put.v.01'
p16
aS'cake.n.03'
p17
aS'whipped_cream.n.01'
p18
aS'lemon.n.01'
p19
aS'onion.n.01'
p20
aS'onion.n.03'
p21
aS'beef.n.02'
p22
aS'plate.n.04'
p23
aS'plate.n.13'
p24
aS'fill.v.01'
p25
aS'kettle.n.01'
p26
aS'water.n.06'
p27
aS'meat.n.01'
p28
aS'cleaver.n.01'
p29
aS'pepper.n.03'
p30
aS'pepper.n.04'
p31
aS'salt.n.02'
p32
aS'salt.n.01'
p33
aS'egg.n.02'
p34
aS'egg.n.01'
p35
aS'fill.v.09'
p36
aS'pitcher.n.02'
p37
aS'milk.n.01'
p38
aS'bacon.n.02'
p39
aS'milk.n.02'
p40
aS'banana.n.02'
p41
aS'cheese.n.01'
p42
aS'opening.n.01'
p43
aS'gap.n.03'
p44
aS'batter.n.02'
p45
aS'cabbage.n.01'
p46
aS'flesh.n.01'
p47
aS'human_body.n.01'
p48
aS'foam.n.01'
p49
aS'mug.n.04'
p50
aS'chump.n.01'
p51
aS'pan.n.03'
p52
aS'chicken.n.01'
p53
aS'wimp.n.01'
p54
aS'pan.n.01'
p55
aS'patty.n.01'
p56
aS'plate.n.11'
p57
aS'knife.n.02'
p58
aS'pepper.n.01'
p59
aS'pulp.n.02'
p60
aS'edit.v.03'
p61
aS'lemon.n.05'
p62
asS'instanceCount'
p63
I284
sS'matrix'
p64
(dp65
g24
(dp66
g24
I0
sg42
I0
sg22
I0
sg13
I0
sS'batter.n.02'
p67
I0
sg38
I0
sg40
I0
sg12
I0
sS'gap.n.03'
p68
I0
sg36
I0
sg34
I0
sg35
I0
sg39
I0
sg15
I0
sg25
I0
sg37
I0
sg29
I0
sg32
I0
sg28
I0
sg11
I0
sg33
I0
sg14
I0
sg41
I0
sg23
I0
sg31
I0
sg61
I0
sg30
I0
sg18
I0
sg8
I0
sS'opening.n.01'
p69
I0
sg9
I0
sg27
I0
sg16
I0
sg10
I0
sg62
I0
sg26
I0
sg17
I0
sg19
I0
sS'pepper.n.01'
p70
I0
sg20
I0
sg21
I0
ssg42
(dp71
S'plate.n.13'
p72
I0
sg42
I5
sS'chicken.n.01'
p73
I0
sS'beef.n.02'
p74
I0
sg51
I0
sg45
I0
sg46
I0
sg49
I0
sS'milk.n.01'
p75
I0
sg40
I0
sS'pan.n.01'
p76
I0
sg52
I0
sS'cut.v.01'
p77
I0
sg44
I0
sS'fill.v.09'
p78
I0
sS'egg.n.02'
p79
I0
sS'egg.n.01'
p80
I0
sg39
I0
sS'bacon.n.01'
p81
I0
sS'fill.v.01'
p82
I0
sS'pitcher.n.02'
p83
I0
sS'cleaver.n.01'
p84
I0
sS'meat.n.01'
p85
I0
sS'salt.n.02'
p86
I0
sS'salt.n.01'
p87
I0
sS'knife.n.01'
p88
I0
sg41
I0
sg58
I0
sS'plate.n.04'
p89
I0
sS'pepper.n.04'
p90
I0
sg61
I0
sS'pepper.n.03'
p91
I0
sg48
I0
sS'whipped_cream.n.01'
p92
I0
sg43
I0
sg50
I0
sg47
I0
sS'water.n.06'
p93
I0
sS'put.v.01'
p94
I0
sS'pizza.n.01'
p95
I0
sg62
I0
sS'kettle.n.01'
p96
I0
sS'cake.n.03'
p97
I0
sS'lemon.n.01'
p98
I0
sg70
I0
sS'slice.v.03'
p99
I0
sS'onion.n.01'
p100
I0
sS'onion.n.03'
p101
I0
ssg57
(dp102
g57
I0
sg53
I0
sS'beef.n.02'
p103
I0
sS'bread.n.01'
p104
I0
sg54
I0
sg56
I0
sg55
I0
sS'pan.n.03'
p105
I0
sS'cut.v.01'
p106
I0
sS'fill.v.09'
p107
I0
sS'bacon.n.02'
p108
I0
sS'bacon.n.01'
p109
I0
sS'fill.v.01'
p110
I0
sS'meat.n.01'
p111
I0
sS'cleaver.n.01'
p112
I0
sS'slice.v.03'
p113
I0
sS'chump.n.01'
p114
I0
sS'knife.n.01'
p115
I0
sS'plate.n.04'
p116
I0
sS'foam.n.01'
p117
I0
sS'whipped_cream.n.01'
p118
I0
sS'piece.n.08'
p119
I0
sS'mug.n.04'
p120
I0
sS'slice.n.06'
p121
I0
sS'water.n.06'
p122
I0
sS'put.v.01'
p123
I0
sS'pizza.n.01'
p124
I0
sS'kettle.n.01'
p125
I0
sS'cake.n.03'
p126
I0
sS'lemon.n.01'
p127
I0
sS'onion.n.01'
p128
I0
sS'onion.n.03'
p129
I0
ssg53
(dp130
S'cheese.n.01'
p131
I0
sg57
I0
sg53
I4
sg103
I0
sg104
I0
sS'batter.n.02'
p132
I0
sg54
I1
sS'cabbage.n.01'
p133
I0
sg56
I0
sg55
I0
sg105
I0
sg106
I0
sS'gap.n.03'
p134
I0
sS'fill.v.09'
p135
I0
sg108
I0
sg109
I0
sg110
I0
sg111
I0
sg112
I0
sg113
I0
sS'chump.n.01'
p136
I0
sg115
I0
sS'banana.n.02'
p137
I0
sS'knife.n.02'
p138
I0
sg116
I0
sS'pepper.n.04'
p139
I0
sg59
I0
sS'pepper.n.03'
p140
I0
sS'foam.n.01'
p141
I0
sS'human_body.n.01'
p142
I0
sg118
I0
sg119
I0
sS'opening.n.01'
p143
I0
sS'mug.n.04'
p144
I0
sS'flesh.n.01'
p145
I0
sg121
I0
sg122
I0
sg123
I0
sg124
I0
sg125
I0
sg126
I0
sg60
I0
sg127
I0
sg128
I0
sS'onion.n.03'
p146
I0
ssg22
(dp147
g24
I0
sg42
I0
sg57
I0
sg53
I0
sg22
I5
sg114
I0
sg13
I0
sg67
I0
sg54
I0
sg56
I0
sg38
I0
sg40
I0
sg55
I0
sg105
I0
sg12
I0
sg68
I0
sg36
I0
sg34
I0
sg35
I0
sg39
I0
sg15
I0
sg25
I0
sg37
I0
sg29
I0
sg32
I0
sg28
I0
sg11
I0
sg33
I0
sg14
I0
sg41
I0
sg23
I0
sg31
I0
sg61
I0
sg30
I0
sg117
I0
sg18
I0
sg8
I0
sg69
I0
sg120
I0
sg9
I0
sg27
I0
sg16
I0
sg10
I0
sg62
I0
sg26
I0
sg17
I0
sg19
I0
sg70
I0
sg20
I0
sg21
I0
ssg61
(dp148
S'plate.n.13'
p149
I0
sS'cheese.n.01'
p150
I0
sS'beef.n.02'
p151
I0
sg67
I0
sS'milk.n.01'
p152
I0
sS'cut.v.01'
p153
I0
sg68
I0
sS'fill.v.09'
p154
I0
sS'egg.n.02'
p155
I0
sS'egg.n.01'
p156
I0
sS'fill.v.01'
p157
I0
sS'pitcher.n.02'
p158
I0
sS'meat.n.01'
p159
I0
sS'cleaver.n.01'
p160
I0
sS'salt.n.02'
p161
I0
sS'salt.n.01'
p162
I0
sS'knife.n.01'
p163
I0
sS'banana.n.02'
p164
I0
sS'plate.n.04'
p165
I0
sS'pepper.n.04'
p166
I0
sg61
I0
sS'pepper.n.03'
p167
I0
sg69
I0
sS'water.n.06'
p168
I0
sS'put.v.01'
p169
I0
sg62
I0
sS'kettle.n.01'
p170
I0
sg70
I0
sS'lemon.n.01'
p171
I0
sS'slice.v.03'
p172
I0
sS'onion.n.01'
p173
I0
sS'onion.n.03'
p174
I0
ssg51
(dp175
S'cheese.n.01'
p176
I0
sS'plate.n.11'
p177
I0
sg73
I0
sS'slice.v.03'
p178
I0
sS'salt.n.01'
p179
I0
sS'bread.n.01'
p180
I0
sg45
I0
sg46
I0
sg49
I0
sS'milk.n.01'
p181
I0
sg76
I0
sg52
I0
sS'cut.v.01'
p182
I0
sg44
I0
sg78
I0
sS'egg.n.02'
p183
I0
sS'egg.n.01'
p184
I0
sS'beef.n.02'
p185
I0
sS'bacon.n.01'
p186
I0
sS'fill.v.01'
p187
I0
sS'pitcher.n.02'
p188
I0
sS'salt.n.02'
p189
I0
sg51
I0
sS'knife.n.01'
p190
I0
sS'banana.n.02'
p191
I0
sS'plate.n.04'
p192
I0
sS'pepper.n.04'
p193
I0
sS'pepper.n.03'
p194
I0
sg48
I0
sS'whipped_cream.n.01'
p195
I0
sS'patty.n.01'
p196
I0
sS'piece.n.08'
p197
I0
sg43
I0
sg50
I0
sg47
I0
sS'slice.n.06'
p198
I0
sS'water.n.06'
p199
I0
sS'put.v.01'
p200
I0
sg95
I0
sS'cake.n.03'
p201
I0
sS'lemon.n.01'
p202
I0
sS'onion.n.01'
p203
I0
sg129
I0
ssg13
(dp204
g24
I0
sg57
I0
sg53
I0
sg22
I0
sg114
I0
sg13
I5
sS'batter.n.02'
p205
I0
sg54
I0
sS'cabbage.n.01'
p206
I0
sg56
I0
sg38
I0
sg55
I0
sg105
I0
sg12
I0
sS'gap.n.03'
p207
I0
sg36
I0
sg34
I0
sg35
I0
sg108
I0
sg15
I0
sg25
I0
sg37
I0
sg29
I0
sg32
I0
sg28
I0
sg11
I0
sg33
I0
sg14
I0
sg138
I0
sg23
I0
sg31
I0
sg59
I0
sg30
I0
sg141
I0
sS'human_body.n.01'
p208
I0
sg18
I0
sg8
I0
sS'opening.n.01'
p209
I0
sS'mug.n.04'
p210
I0
sS'flesh.n.01'
p211
I0
sg9
I0
sg27
I0
sg16
I0
sg10
I0
sg26
I0
sg17
I0
sg60
I0
sg19
I0
sg20
I0
sg21
I0
ssg45
(dp212
g149
I0
sg176
I0
sg73
I0
sg178
I0
sg61
I0
sg51
I0
sS'bread.n.01'
p213
I0
sg45
I5
sg46
I0
sg49
I0
sg181
I0
sS'milk.n.02'
p214
I0
sg76
I0
sg52
I0
sg182
I0
sg44
I0
sg78
I0
sg183
I0
sg184
I0
sg151
I0
sg187
I0
sg188
I0
sS'meat.n.01'
p215
I0
sS'cleaver.n.01'
p216
I0
sg189
I0
sg179
I0
sg190
I0
sg191
I0
sg58
I0
sg165
I0
sg193
I0
sg59
I0
sg194
I0
sg48
I0
sS'piece.n.08'
p217
I0
sg43
I0
sg50
I0
sg47
I0
sS'slice.n.06'
p218
I0
sS'water.n.06'
p219
I0
sg200
I0
sg95
I0
sg62
I0
sS'kettle.n.01'
p220
I0
sg171
I0
sg203
I0
sg146
I0
ssg54
(dp221
g57
I0
sg53
I0
sg103
I0
sg104
I0
sg54
I0
sg56
I0
sg55
I0
sg105
I0
sg106
I0
sg108
I0
sg109
I0
sg110
I0
sg111
I0
sg112
I0
sg113
I0
sg115
I0
sg116
I0
sg118
I0
sg119
I0
sg121
I0
sg122
I0
sg123
I0
sg124
I0
sg125
I0
sg126
I0
sg127
I0
sg128
I0
ssg46
(dp222
g176
I0
sg73
I0
sg178
I0
sg51
I0
sg213
I0
sg45
I0
sg190
I0
sg49
I0
sg181
I0
sg214
I0
sg76
I0
sg52
I0
sg182
I0
sg44
I0
sg78
I0
sg183
I0
sg184
I0
sS'bacon.n.01'
p223
I0
sg187
I0
sg188
I0
sg215
I0
sg216
I0
sg189
I0
sg179
I0
sg46
I5
sg191
I0
sg58
I0
sg193
I0
sg59
I0
sg194
I0
sg48
I0
sS'whipped_cream.n.01'
p224
I0
sg217
I0
sg43
I0
sg50
I0
sg47
I0
sg218
I0
sg219
I0
sg200
I0
sg95
I0
sg220
I0
sS'cake.n.03'
p225
I0
sg60
I0
sg203
I0
sg146
I0
ssg49
(dp226
g176
I0
sg177
I0
sS'chicken.n.01'
p227
I0
sg178
I0
sg51
I0
sg213
I0
sg45
I0
sg46
I0
sg49
I4
sg181
I0
sS'pan.n.01'
p228
I0
sg52
I0
sg182
I0
sg44
I0
sg78
I0
sg183
I0
sg184
I0
sg185
I0
sg223
I0
sg187
I0
sg188
I0
sg189
I0
sg179
I0
sg190
I0
sg191
I0
sg138
I0
sg192
I0
sg193
I0
sg59
I0
sg194
I0
sg48
I0
sg224
I0
sg196
I0
sg217
I0
sg43
I0
sg50
I0
sg47
I0
sg218
I0
sS'water.n.06'
p229
I0
sg200
I0
sg95
I0
sg225
I0
sg60
I0
sg202
I0
sg203
I0
sg146
I0
ssg38
(dp230
g24
I0
sg42
I0
sg22
I0
sg51
I0
sg13
I0
sg45
I0
sg46
I0
sg49
I0
sg38
I3
sg40
I2
sg52
I0
sg12
I0
sg44
I0
sg36
I0
sg34
I0
sg35
I0
sg39
I0
sg15
I0
sg25
I0
sg37
I0
sg28
I0
sg32
I0
sg29
I0
sg11
I0
sg33
I0
sg14
I0
sg41
I0
sg58
I0
sg23
I0
sg31
I0
sg61
I0
sg30
I0
sg48
I0
sg18
I0
sg8
I0
sg43
I0
sg50
I0
sg47
I0
sg9
I0
sg27
I0
sg16
I0
sg10
I0
sg62
I0
sg26
I0
sg17
I0
sg19
I0
sg70
I0
sg20
I0
sg21
I0
ssg40
(dp231
g72
I0
sg42
I0
sg74
I0
sS'batter.n.02'
p232
I0
sS'cabbage.n.01'
p233
I0
sg75
I0
sg40
I0
sg77
I0
sS'gap.n.03'
p234
I0
sS'fill.v.09'
p235
I0
sg79
I0
sg80
I0
sg39
I0
sg81
I0
sg82
I0
sg83
I0
sg84
I0
sg85
I0
sg86
I0
sg87
I0
sg88
I0
sg41
I0
sg58
I0
sg89
I0
sg90
I0
sg91
I0
sS'human_body.n.01'
p236
I0
sg92
I0
sS'opening.n.01'
p237
I0
sS'flesh.n.01'
p238
I0
sg93
I0
sg94
I0
sg96
I0
sg97
I0
sg98
I0
sg99
I0
sg100
I0
sg101
I0
ssg55
(dp239
g131
I0
sg57
I0
sg53
I0
sg103
I0
sg104
I0
sg132
I0
sg54
I0
sg133
I0
sg56
I0
sg55
I0
sg105
I5
sg106
I0
sg134
I0
sg135
I0
sg108
I0
sg109
I0
sg110
I0
sg111
I0
sg112
I0
sg113
I0
sg136
I0
sg115
I0
sg137
I0
sg138
I0
sg116
I0
sg139
I0
sg59
I0
sg140
I0
sg141
I0
sg142
I0
sg118
I0
sg119
I0
sg143
I0
sg144
I0
sg145
I0
sg121
I0
sg122
I0
sg123
I0
sg124
I0
sg125
I0
sg126
I0
sg60
I0
sg127
I0
sg128
I0
sg146
I0
ssg52
(dp240
g176
I0
sg57
I0
sg53
I0
sg178
I0
sg51
I0
sg104
I0
sg45
I0
sg54
I0
sg46
I0
sg49
I0
sg181
I0
sg55
I0
sg52
I10
sg182
I0
sg44
I0
sg78
I0
sg183
I0
sg184
I0
sg103
I0
sg108
I0
sg109
I0
sg187
I0
sg188
I0
sg111
I0
sg112
I0
sg189
I0
sg179
I0
sg190
I0
sg191
I0
sg138
I0
sg116
I0
sg193
I0
sg59
I0
sg194
I0
sg48
I0
sg118
I0
sg56
I0
sg119
I0
sg43
I0
sg50
I0
sg47
I0
sg121
I0
sg122
I0
sg200
I0
sg95
I0
sg125
I0
sg126
I0
sg60
I0
sg127
I0
sg203
I0
sg146
I0
ssg12
(dp241
g24
I0
sg42
I0
sg57
I0
sg53
I0
sg22
I0
sg61
I1
sg51
I0
sg13
I0
sg45
I0
sg54
I0
sg46
I0
sg49
I0
sg38
I0
sg40
I0
sg55
I0
sg52
I0
sg12
I24
sg44
I0
sg36
I0
sg34
I0
sg35
I0
sg39
I0
sg15
I0
sg25
I0
sg37
I0
sg29
I0
sg32
I0
sg28
I0
sg11
I0
sg33
I0
sg14
I0
sg41
I0
sg58
I0
sg23
I0
sg31
I0
sg59
I0
sg30
I0
sg48
I0
sg18
I0
sg56
I0
sg8
I0
sg43
I0
sg50
I0
sg47
I0
sg9
I0
sg27
I0
sg16
I0
sg10
I0
sg62
I0
sg26
I0
sg17
I0
sg60
I0
sg19
I0
sg20
I0
sg21
I0
ssg44
(dp242
g149
I0
sg176
I0
sg73
I0
sg178
I0
sg61
I0
sg51
I0
sg213
I0
sg45
I0
sg46
I0
sg49
I0
sg181
I0
sg214
I0
sg76
I0
sg52
I0
sg182
I0
sg44
I0
sg78
I0
sg183
I0
sg184
I0
sg151
I0
sg187
I0
sg188
I0
sg215
I0
sg216
I0
sg189
I0
sg179
I0
sg190
I0
sg191
I0
sg58
I0
sg165
I0
sg193
I0
sg59
I0
sg194
I0
sg48
I0
sg217
I0
sg43
I0
sg50
I0
sg47
I0
sg218
I0
sg219
I0
sg200
I0
sg95
I0
sg62
I0
sg220
I0
sg171
I0
sg203
I0
sg146
I0
ssg36
(dp243
g24
I0
sg176
I0
sg177
I0
sg73
I0
sg22
I0
sg61
I0
sg51
I0
sg13
I0
sg45
I0
sg46
I0
sg49
I0
sg38
I0
sg214
I0
sg76
I0
sg52
I0
sg12
I0
sg44
I0
sg36
I0
sg34
I0
sg35
I0
sg15
I0
sg25
I5
sg37
I0
sg28
I0
sg32
I0
sg29
I0
sg11
I0
sg33
I0
sg14
I0
sg191
I0
sg58
I0
sg23
I0
sg31
I0
sg59
I0
sg30
I0
sg48
I0
sg18
I0
sg196
I0
sg8
I0
sg43
I0
sg50
I0
sg47
I0
sg9
I0
sg27
I0
sg16
I0
sg10
I0
sg62
I0
sg26
I0
sg17
I0
sg19
I0
sg20
I0
sg21
I0
ssg34
(dp244
g24
I0
sg42
I0
sg22
I0
sg51
I0
sg13
I0
sg45
I0
sg46
I0
sg49
I0
sg38
I0
sg40
I0
sg52
I0
sg12
I0
sg44
I0
sg36
I0
sg34
I0
sg35
I5
sg39
I0
sg15
I0
sg25
I0
sg37
I0
sg28
I0
sg32
I0
sg29
I0
sg11
I0
sg33
I0
sg14
I0
sg41
I0
sg58
I0
sg23
I0
sg31
I0
sg61
I0
sg30
I0
sg48
I0
sg18
I0
sg8
I0
sg43
I0
sg50
I0
sg47
I0
sg9
I0
sg27
I0
sg16
I0
sg10
I0
sg62
I0
sg26
I0
sg17
I0
sg19
I0
sg70
I0
sg20
I0
sg21
I0
ssg35
(dp245
g24
I0
sg42
I0
sg22
I0
sg51
I0
sg13
I0
sg45
I0
sg46
I0
sg49
I0
sg38
I0
sg40
I0
sg52
I0
sg12
I0
sg44
I0
sg36
I0
sg34
I0
sg35
I0
sg39
I0
sg15
I0
sg25
I0
sg37
I0
sg28
I0
sg32
I0
sg29
I0
sg11
I0
sg33
I0
sg14
I0
sg41
I0
sg58
I0
sg23
I0
sg31
I0
sg61
I0
sg30
I0
sg48
I0
sg18
I0
sg8
I0
sg43
I0
sg50
I0
sg47
I0
sg9
I0
sg27
I0
sg16
I0
sg10
I0
sg62
I0
sg26
I0
sg17
I0
sg19
I0
sg70
I0
sg20
I0
sg21
I0
ssg39
(dp246
g72
I0
sg42
I0
sg57
I0
sg53
I0
sg74
I0
sg104
I0
sg54
I0
sg56
I0
sg75
I0
sg40
I0
sg55
I0
sg105
I0
sg77
I0
sg79
I0
sg80
I0
sg39
I0
sg81
I0
sg82
I0
sg83
I0
sg84
I0
sg85
I0
sg86
I0
sg87
I0
sg88
I0
sg41
I0
sg89
I0
sg90
I0
sg91
I0
sg92
I0
sg119
I0
sg121
I0
sg93
I0
sg94
I0
sg124
I0
sg96
I0
sg97
I0
sg98
I0
sg99
I0
sg100
I0
sg101
I0
ssg15
(dp247
g24
I0
sg42
I0
sg57
I0
sg53
I0
sg22
I0
sg114
I0
sg13
I0
sg54
I0
sS'cabbage.n.01'
p248
I0
sg56
I0
sg38
I0
sg40
I0
sg55
I0
sg105
I0
sg12
I0
sg36
I0
sg34
I0
sg35
I0
sg39
I2
sg15
I3
sg25
I0
sg37
I0
sg29
I0
sg32
I0
sg28
I0
sg11
I0
sg33
I0
sg14
I0
sg41
I0
sS'knife.n.02'
p249
I0
sg23
I0
sg31
I0
sg30
I0
sS'foam.n.01'
p250
I0
sg18
I0
sg8
I0
sS'mug.n.04'
p251
I0
sS'flesh.n.01'
p252
I0
sg9
I0
sg27
I0
sg16
I0
sg10
I0
sg26
I0
sg17
I0
sg60
I0
sg19
I0
sg20
I0
sg21
I0
ssg25
(dp253
g24
I0
sg42
I0
sg57
I0
sg53
I0
sg22
I0
sg61
I0
sg51
I0
sg13
I0
sg45
I0
sg54
I0
sg46
I0
sg49
I0
sg38
I0
sg40
I0
sg55
I0
sg52
I0
sg12
I0
sg44
I0
sg36
I4
sg34
I0
sg35
I0
sg39
I0
sg15
I0
sg25
I16
sg37
I0
sg29
I0
sg32
I0
sg28
I0
sg11
I0
sg33
I0
sg14
I0
sg41
I0
sg58
I0
sg23
I0
sg31
I0
sg59
I0
sg30
I0
sg48
I0
sg18
I0
sg56
I0
sg8
I0
sg43
I0
sg50
I0
sg47
I0
sg9
I0
sg27
I0
sg16
I0
sg10
I0
sg62
I0
sg26
I0
sg17
I0
sg60
I0
sg19
I0
sg20
I0
sg21
I0
ssg37
(dp254
g24
I0
sg42
I0
sg22
I0
sg51
I0
sg13
I0
sg45
I0
sg46
I0
sg49
I0
sg38
I0
sg40
I0
sg52
I0
sg12
I0
sg44
I0
sg36
I0
sg34
I0
sg35
I0
sg39
I0
sg15
I0
sg25
I0
sg37
I5
sg28
I0
sg32
I0
sg29
I0
sg11
I0
sg33
I0
sg14
I0
sg41
I0
sg58
I0
sg23
I0
sg31
I0
sg61
I0
sg30
I0
sg48
I0
sg18
I0
sg8
I0
sg43
I0
sg50
I0
sg47
I0
sg9
I0
sg27
I0
sg16
I0
sg10
I0
sg62
I0
sg26
I0
sg17
I0
sg19
I0
sg70
I0
sg20
I0
sg21
I0
ssg29
(dp255
g24
I0
sg42
I0
sg57
I0
sg53
I0
sg22
I0
sg13
I0
sg232
I0
sg54
I0
sg233
I0
sg56
I0
sg38
I0
sg40
I0
sg55
I0
sg105
I0
sg12
I0
sg234
I0
sg36
I0
sg34
I0
sg35
I0
sg39
I0
sg15
I0
sg25
I0
sg37
I0
sg29
I5
sg32
I0
sg28
I0
sg11
I0
sg33
I0
sg14
I0
sg41
I0
sg58
I0
sg23
I0
sg31
I0
sg61
I0
sg30
I0
sg236
I0
sg18
I0
sg8
I0
sg237
I0
sg238
I0
sg9
I0
sg27
I0
sg16
I0
sg10
I0
sg62
I0
sg26
I0
sg17
I0
sg19
I0
sg70
I0
sg20
I0
sg21
I0
ssg32
(dp256
g24
I0
sg42
I0
sg11
I0
sg51
I0
sg13
I0
sg45
I0
sg46
I0
sg49
I0
sg38
I0
sg40
I0
sg52
I0
sg12
I0
sg44
I0
sg36
I0
sg34
I0
sg35
I0
sg22
I0
sg39
I0
sg15
I0
sg25
I0
sg37
I0
sg28
I0
sg29
I0
sg32
I0
sg33
I5
sg14
I0
sg41
I0
sg58
I0
sg23
I0
sg31
I0
sg61
I0
sg30
I0
sg48
I0
sg18
I0
sg8
I0
sg43
I0
sg50
I0
sg47
I0
sg9
I0
sg27
I0
sg16
I0
sg10
I0
sg62
I0
sg26
I0
sg17
I0
sg19
I0
sg70
I0
sg20
I0
sg21
I0
ssg28
(dp257
g24
I0
sg42
I0
sg57
I0
sg53
I0
sg22
I0
sg13
I0
sg232
I0
sg54
I0
sg233
I0
sg56
I0
sg38
I0
sg40
I0
sg55
I0
sg105
I0
sg12
I0
sg234
I0
sg36
I0
sg34
I0
sg35
I0
sg39
I0
sg15
I0
sg25
I0
sg37
I0
sg28
I5
sg32
I0
sg29
I0
sg11
I0
sg33
I0
sg14
I0
sg41
I0
sg58
I0
sg23
I0
sg31
I0
sg61
I0
sg30
I0
sg236
I0
sg18
I0
sg8
I0
sg237
I0
sg238
I0
sg9
I0
sg27
I0
sg16
I0
sg10
I0
sg62
I0
sg26
I0
sg17
I0
sg19
I0
sg70
I0
sg20
I0
sg21
I0
ssg11
(dp258
g24
I0
sg42
I0
sg57
I0
sg53
I0
sg22
I0
sg61
I0
sg51
I0
sg13
I0
sg45
I0
sg54
I0
sg46
I0
sg49
I0
sg38
I0
sg40
I0
sg55
I0
sg52
I0
sg12
I0
sg44
I0
sg36
I0
sg34
I0
sg35
I0
sg39
I0
sg15
I0
sg25
I0
sg37
I0
sg29
I0
sg32
I0
sg28
I0
sg11
I25
sg33
I0
sg14
I0
sg41
I0
sg58
I0
sg23
I0
sg31
I0
sg59
I0
sg30
I0
sg48
I0
sg18
I0
sg56
I0
sg8
I0
sg43
I0
sg50
I0
sg47
I0
sg9
I0
sg27
I0
sg16
I0
sg10
I0
sg62
I0
sg26
I0
sg17
I0
sg60
I0
sg19
I0
sg20
I0
sg21
I0
ssg33
(dp259
g24
I0
sg42
I0
sg22
I0
sg51
I0
sg13
I0
sg45
I0
sg46
I0
sg49
I0
sg38
I0
sg40
I0
sg52
I0
sg12
I0
sg44
I0
sg36
I0
sg34
I0
sg35
I0
sg39
I0
sg15
I0
sg25
I0
sg37
I0
sg28
I0
sg32
I0
sg29
I0
sg11
I0
sg33
I0
sg14
I0
sg41
I0
sg58
I0
sg23
I0
sg31
I0
sg61
I0
sg30
I0
sg48
I0
sg18
I0
sg8
I0
sg43
I0
sg50
I0
sg47
I0
sg9
I0
sg27
I0
sg16
I0
sg10
I0
sg62
I0
sg26
I0
sg17
I0
sg19
I0
sg70
I0
sg20
I0
sg21
I0
ssg14
(dp260
g24
I0
sg42
I0
sg57
I0
sg53
I0
sg22
I0
sg61
I0
sg51
I0
sg13
I0
sg45
I0
sg54
I0
sg46
I0
sg49
I0
sg38
I0
sg40
I0
sg55
I0
sg52
I0
sg12
I0
sg44
I0
sg36
I0
sg34
I0
sg35
I0
sg39
I0
sg15
I0
sg25
I0
sg37
I0
sg29
I0
sg32
I0
sg28
I0
sg11
I0
sg33
I0
sg14
I7
sg41
I0
sg58
I3
sg23
I0
sg31
I0
sg59
I0
sg30
I0
sg48
I0
sg18
I0
sg56
I0
sg8
I0
sg43
I0
sg50
I0
sg47
I0
sg9
I0
sg27
I0
sg16
I0
sg10
I0
sg62
I0
sg26
I0
sg17
I0
sg60
I0
sg19
I0
sg20
I0
sg21
I0
ssg41
(dp261
g72
I0
sg42
I0
sg73
I0
sg74
I0
sg51
I0
sg45
I0
sg46
I0
sg49
I0
sg75
I0
sg40
I0
sg76
I0
sg52
I0
sg77
I0
sg44
I0
sg78
I0
sg79
I0
sg80
I0
sg39
I0
sg81
I0
sg82
I0
sg83
I0
sg84
I0
sg85
I0
sg86
I0
sg87
I0
sg88
I0
sg41
I5
sg58
I0
sg89
I0
sg90
I0
sg61
I0
sg91
I0
sg48
I0
sg92
I0
sg43
I0
sg50
I0
sg47
I0
sg93
I0
sg94
I0
sg95
I0
sg62
I0
sg96
I0
sg97
I0
sg98
I0
sg70
I0
sg99
I0
sg100
I0
sg101
I0
ssg58
(dp262
S'cheese.n.01'
p263
I0
sg227
I0
sS'slice.v.03'
p264
I0
sg213
I0
sg232
I0
sg233
I0
sg141
I0
sS'milk.n.01'
p265
I0
sg214
I0
sg228
I0
sS'pan.n.03'
p266
I0
sS'cut.v.01'
p267
I0
sg234
I0
sg235
I0
sS'egg.n.02'
p268
I0
sS'egg.n.01'
p269
I0
sg223
I0
sS'fill.v.01'
p270
I0
sS'pitcher.n.02'
p271
I0
sg215
I0
sg216
I0
sS'salt.n.02'
p272
I0
sS'salt.n.01'
p273
I0
sS'knife.n.01'
p274
I0
sS'banana.n.02'
p275
I0
sg58
I0
sS'pepper.n.04'
p276
I0
sg59
I0
sS'pepper.n.03'
p277
I0
sg236
I0
sg224
I0
sg217
I0
sg237
I0
sg210
I0
sg238
I0
sg218
I0
sg219
I0
sS'put.v.01'
p278
I0
sS'pizza.n.01'
p279
I0
sg220
I0
sg225
I0
sg60
I0
sS'onion.n.01'
p280
I0
sg146
I0
ssg23
(dp281
g24
I3
sg42
I0
sg57
I2
sg53
I0
sg22
I0
sg114
I0
sg13
I0
sg67
I0
sg54
I0
sg56
I0
sg38
I0
sg40
I0
sg55
I0
sg105
I0
sg12
I0
sg68
I0
sg36
I0
sg34
I0
sg35
I0
sg39
I0
sg15
I0
sg25
I0
sg37
I0
sg29
I0
sg32
I0
sg28
I0
sg11
I0
sg33
I0
sg14
I0
sg41
I0
sg23
I0
sg31
I0
sg61
I0
sg30
I0
sg117
I0
sg18
I0
sg8
I0
sg69
I0
sg120
I0
sg9
I0
sg27
I0
sg16
I0
sg10
I0
sg62
I0
sg26
I0
sg17
I0
sg19
I0
sg70
I0
sg20
I0
sg21
I0
ssg31
(dp282
g24
I0
sg42
I0
sg73
I0
sg22
I0
sg61
I0
sg51
I0
sg13
I0
sg45
I0
sg46
I0
sg49
I0
sg38
I0
sg40
I0
sg76
I0
sg52
I0
sg12
I0
sg44
I0
sg36
I0
sg34
I0
sg35
I0
sg39
I0
sg15
I0
sg25
I0
sg37
I0
sg28
I0
sg32
I0
sg29
I0
sg11
I0
sg33
I0
sg14
I0
sg41
I0
sg58
I0
sg23
I0
sg31
I2
sg59
I2
sg30
I1
sg48
I0
sg18
I0
sg8
I0
sg43
I0
sg50
I0
sg47
I0
sg9
I0
sg27
I0
sg16
I0
sg10
I0
sg62
I0
sg26
I0
sg17
I0
sg19
I0
sg20
I0
sg21
I0
ssg59
(dp283
g149
I0
sg150
I0
sg227
I0
sg151
I0
sg61
I0
sg213
I0
sg205
I0
sS'knife.n.01'
p284
I0
sg141
I0
sg152
I0
sg228
I0
sg266
I0
sS'cut.v.01'
p285
I0
sg207
I0
sS'fill.v.09'
p286
I0
sg155
I0
sg156
I0
sS'fill.v.01'
p287
I0
sg158
I0
sg159
I0
sg161
I0
sg160
I0
sS'slice.v.03'
p288
I0
sg162
I0
sg206
I0
sg164
I0
sg138
I0
sg165
I0
sS'pepper.n.04'
p289
I0
sg59
I0
sg167
I0
sg208
I0
sg217
I0
sg209
I0
sg210
I0
sg211
I0
sg218
I0
sg229
I0
sS'put.v.01'
p290
I0
sg279
I0
sg62
I0
sg170
I0
sg171
I0
sS'onion.n.01'
p291
I0
sg146
I0
ssg30
(dp292
g24
I0
sg42
I0
sg73
I0
sg22
I0
sg51
I0
sg13
I0
sg45
I0
sg46
I0
sg49
I0
sg38
I0
sg40
I0
sg76
I0
sg52
I0
sg12
I0
sg44
I0
sg36
I0
sg34
I0
sg35
I0
sg39
I0
sg15
I0
sg25
I0
sg37
I0
sg28
I0
sg32
I0
sg29
I0
sg11
I0
sg33
I0
sg14
I0
sg41
I0
sg58
I0
sg23
I0
sg31
I5
sg61
I0
sg30
I0
sg48
I0
sg18
I0
sg8
I0
sg43
I0
sg50
I0
sg47
I0
sg9
I0
sg27
I0
sg16
I0
sg10
I0
sg62
I0
sg26
I0
sg17
I0
sg19
I0
sg70
I0
sg20
I0
sg21
I0
ssg48
(dp293
g176
I0
sg73
I0
sg178
I0
sg51
I0
sg213
I0
sg45
I0
sg46
I0
sg49
I0
sg181
I0
sg214
I0
sg76
I0
sg52
I0
sg182
I0
sg44
I0
sg78
I0
sg183
I0
sg184
I0
sg187
I0
sg188
I0
sg215
I0
sg216
I0
sg189
I0
sg179
I0
sg190
I0
sg191
I0
sg58
I0
sg193
I0
sg59
I0
sg194
I0
sg48
I0
sg217
I0
sg43
I0
sg50
I0
sg47
I0
sg218
I0
sg219
I0
sg200
I0
sg95
I0
sg220
I0
sg203
I0
sg146
I0
ssg18
(dp294
g24
I0
sg42
I0
sg57
I0
sg53
I0
sg22
I0
sg114
I0
sg13
I0
sg54
I0
sg248
I0
sg56
I0
sg38
I0
sg40
I0
sg55
I0
sg105
I0
sg12
I0
sg36
I0
sg34
I0
sg35
I0
sg39
I0
sg15
I0
sg25
I0
sg37
I0
sg29
I0
sg32
I0
sg28
I0
sg11
I0
sg33
I0
sg14
I0
sg41
I0
sg249
I0
sg23
I0
sg31
I0
sg30
I0
sg250
I0
sg18
I5
sg8
I0
sg251
I0
sg252
I0
sg9
I0
sg27
I0
sg16
I0
sg10
I0
sg26
I0
sg17
I0
sg60
I0
sg19
I0
sg20
I0
sg21
I0
ssg56
(dp295
g57
I0
sg53
I0
sg103
I0
sg104
I0
sg54
I0
sg56
I0
sg55
I0
sg105
I0
sg106
I0
sg107
I0
sg108
I0
sg109
I0
sg110
I0
sg111
I0
sg112
I0
sg113
I0
sg114
I0
sg115
I0
sg116
I0
sg117
I0
sg118
I0
sg119
I0
sg120
I0
sg121
I0
sg122
I0
sg123
I0
sg124
I0
sg125
I0
sg126
I0
sg127
I0
sg128
I0
sg129
I0
ssg8
(dp296
g24
I0
sg57
I0
sg53
I0
sg22
I0
sg114
I0
sg13
I0
sg205
I0
sg54
I0
sg206
I0
sg56
I0
sg38
I0
sg55
I0
sg105
I0
sg12
I0
sg207
I0
sg36
I0
sg34
I0
sg35
I0
sg108
I0
sg15
I0
sg25
I0
sg37
I0
sg29
I0
sg32
I0
sg28
I0
sg11
I0
sg33
I0
sg14
I0
sg138
I0
sg23
I0
sg31
I0
sg59
I0
sg30
I0
sg141
I0
sg208
I0
sg18
I0
sg8
I0
sg209
I0
sg210
I0
sg211
I0
sg9
I5
sg27
I0
sg16
I0
sg10
I0
sg26
I0
sg17
I0
sg60
I0
sg19
I0
sg20
I0
sg21
I0
ssg43
(dp297
g149
I0
sg176
I0
sg73
I0
sg178
I0
sg61
I0
sg51
I0
sg213
I0
sg45
I0
sg46
I0
sg49
I0
sg181
I0
sg214
I0
sg76
I0
sg52
I0
sg182
I0
sg44
I5
sg78
I0
sg183
I0
sg184
I0
sg151
I0
sg187
I0
sg188
I0
sg215
I0
sg216
I0
sg189
I0
sg179
I0
sg190
I0
sg191
I0
sg58
I0
sg165
I0
sg193
I0
sg59
I0
sg194
I0
sg48
I0
sg217
I0
sg43
I0
sg50
I0
sg47
I0
sg218
I0
sg219
I0
sg200
I0
sg95
I0
sg62
I0
sg220
I0
sg171
I0
sg203
I0
sg146
I0
ssg50
(dp298
g176
I0
sg177
I0
sg73
I0
sg178
I0
sg51
I3
sg213
I0
sg45
I0
sg46
I0
sg49
I0
sg181
I0
sg76
I0
sg52
I0
sg182
I0
sg44
I0
sg78
I0
sg183
I0
sg184
I0
sg185
I0
sg223
I0
sg187
I0
sg188
I0
sg189
I0
sg179
I0
sg190
I0
sg191
I0
sg138
I0
sg192
I0
sg193
I0
sg59
I0
sg194
I0
sg48
I0
sg224
I0
sg196
I0
sg217
I0
sg43
I0
sg50
I2
sg47
I0
sg218
I0
sg199
I0
sg200
I0
sg95
I0
sg225
I0
sg60
I0
sg202
I0
sg203
I0
sg146
I0
ssg47
(dp299
g176
I0
sg73
I0
sg178
I0
sg51
I0
sg213
I0
sg45
I0
sg46
I0
sg49
I0
sg181
I0
sg214
I0
sg76
I0
sg52
I0
sg182
I0
sg44
I0
sg78
I0
sg183
I0
sg184
I0
sg223
I0
sg187
I0
sg188
I0
sg215
I0
sg216
I0
sg189
I0
sg179
I0
sg190
I0
sg191
I0
sg58
I0
sg193
I0
sg59
I0
sg194
I0
sg48
I4
sg224
I0
sg217
I0
sg43
I0
sg50
I0
sg47
I0
sg218
I0
sg219
I0
sg200
I0
sg95
I0
sg220
I0
sg225
I0
sg60
I1
sg203
I0
sg146
I0
ssg9
(dp300
g24
I0
sg57
I0
sg53
I0
sg22
I0
sg114
I0
sg13
I0
sg205
I0
sg54
I0
sg206
I0
sg56
I0
sg38
I0
sg55
I0
sg105
I0
sg12
I0
sg207
I0
sg36
I0
sg34
I0
sg35
I0
sg108
I0
sg15
I0
sg25
I0
sg37
I0
sg29
I0
sg32
I0
sg28
I0
sg11
I0
sg33
I0
sg14
I0
sg138
I0
sg23
I0
sg31
I0
sg59
I0
sg30
I0
sg141
I0
sg208
I0
sg18
I0
sg8
I0
sg209
I0
sg210
I0
sg211
I0
sg9
I0
sg27
I0
sg16
I0
sg10
I0
sg26
I0
sg17
I0
sg60
I0
sg19
I0
sg20
I0
sg21
I0
ssg27
(dp301
g24
I0
sg42
I0
sg57
I0
sg53
I0
sg22
I0
sg61
I0
sg136
I0
sg13
I0
sg232
I0
sg54
I0
sg233
I0
sg56
I0
sg38
I0
sg40
I0
sg55
I0
sg105
I0
sg12
I0
sg234
I0
sg36
I0
sg34
I0
sg35
I0
sg39
I0
sg15
I0
sg25
I0
sg37
I0
sg29
I0
sg32
I0
sg28
I0
sg11
I0
sg33
I0
sg14
I0
sg41
I0
sg58
I0
sg23
I0
sg31
I0
sg59
I0
sg30
I0
sg141
I0
sg236
I0
sg18
I0
sg8
I0
sg237
I0
sg144
I0
sg238
I0
sg9
I0
sg27
I10
sg16
I0
sg10
I0
sg62
I0
sg26
I0
sg17
I0
sg60
I0
sg19
I0
sg20
I0
sg21
I0
ssg16
(dp302
g24
I0
sg42
I0
sg57
I0
sg53
I0
sg22
I0
sg61
I0
sg51
I0
sg13
I0
sg45
I0
sg54
I0
sg46
I0
sg49
I0
sg38
I0
sg40
I0
sg55
I0
sg52
I0
sg12
I0
sg44
I0
sg36
I0
sg34
I0
sg35
I0
sg39
I0
sg15
I0
sg25
I0
sg37
I0
sg29
I0
sg32
I0
sg28
I0
sg11
I0
sg33
I0
sg14
I0
sg41
I0
sg58
I0
sg23
I0
sg31
I0
sg59
I0
sg30
I0
sg48
I0
sg18
I0
sg56
I0
sg8
I0
sg43
I0
sg50
I0
sg47
I0
sg9
I0
sg27
I0
sg16
I25
sg10
I0
sg62
I0
sg26
I0
sg17
I0
sg60
I0
sg19
I0
sg20
I0
sg21
I0
ssg10
(dp303
g24
I0
sg176
I0
sg57
I0
sg53
I0
sg22
I0
sg51
I0
sg13
I0
sg45
I0
sg54
I0
sg46
I0
sg49
I0
sg38
I0
sg55
I0
sg52
I0
sg12
I0
sg44
I0
sg36
I0
sg34
I0
sg35
I0
sg108
I0
sg15
I0
sg25
I0
sg37
I0
sg29
I0
sg32
I0
sg28
I0
sg11
I0
sg33
I0
sg14
I0
sg191
I0
sg138
I0
sg23
I0
sg31
I0
sg59
I0
sg30
I0
sg48
I0
sg18
I0
sg56
I0
sg8
I0
sg43
I0
sg50
I0
sg47
I0
sg9
I0
sg27
I0
sg16
I0
sg10
I10
sg26
I0
sg17
I0
sg60
I0
sg19
I0
sg20
I0
sg21
I0
ssg62
(dp304
g149
I0
sg150
I0
sg151
I0
sg67
I0
sg152
I0
sg153
I0
sg68
I0
sg154
I0
sg155
I0
sg156
I0
sg157
I0
sg158
I0
sg159
I0
sg160
I0
sg161
I0
sg162
I0
sg163
I0
sg164
I0
sg165
I0
sg166
I0
sg61
I0
sg167
I0
sg69
I0
sg168
I0
sg169
I0
sg62
I0
sg170
I0
sg70
I0
sg171
I0
sg172
I0
sg173
I0
sg174
I0
ssg26
(dp305
g24
I0
sg42
I0
sg57
I0
sg53
I0
sg22
I0
sg13
I0
sg232
I0
sg54
I0
sg233
I0
sg56
I0
sg38
I0
sg40
I0
sg55
I0
sg105
I0
sg12
I0
sg234
I0
sg36
I0
sg34
I0
sg35
I0
sg39
I0
sg15
I0
sg25
I0
sg37
I0
sg29
I0
sg32
I0
sg28
I0
sg11
I0
sg33
I0
sg14
I0
sg41
I0
sg58
I0
sg23
I0
sg31
I0
sg61
I0
sg30
I0
sg236
I0
sg18
I0
sg8
I0
sg237
I0
sg238
I0
sg9
I0
sg27
I0
sg16
I0
sg10
I0
sg62
I0
sg26
I5
sg17
I0
sg19
I0
sg70
I0
sg20
I0
sg21
I0
ssg17
(dp306
g24
I0
sg42
I0
sg57
I0
sg53
I0
sg22
I0
sg114
I0
sg13
I0
sg54
I0
sg248
I0
sg56
I2
sg38
I0
sg40
I0
sg55
I0
sg105
I0
sg12
I0
sg36
I0
sg34
I0
sg35
I0
sg39
I0
sg15
I0
sg25
I0
sg37
I0
sg29
I0
sg32
I0
sg28
I0
sg11
I0
sg33
I0
sg14
I0
sg41
I0
sg249
I0
sg23
I0
sg31
I0
sg30
I0
sg250
I0
sg18
I0
sg8
I0
sg251
I0
sg252
I0
sg9
I0
sg27
I0
sg16
I0
sg10
I0
sg26
I0
sg17
I3
sg60
I0
sg19
I0
sg20
I0
sg21
I0
ssg60
(dp307
S'chicken.n.01'
p308
I0
sS'bread.n.01'
p309
I0
sS'knife.n.01'
p310
I0
sg250
I0
sS'pan.n.01'
p311
I0
sS'pan.n.03'
p312
I0
sS'cut.v.01'
p313
I0
sg223
I0
sS'fill.v.01'
p314
I0
sS'slice.v.03'
p315
I0
sg248
I0
sg249
I0
sg224
I0
sS'piece.n.08'
p316
I0
sg251
I0
sg252
I0
sS'slice.n.06'
p317
I0
sS'water.n.06'
p318
I0
sS'put.v.01'
p319
I0
sS'pizza.n.01'
p320
I0
sg225
I0
sg60
I0
ssg19
(dp321
g24
I0
sg42
I0
sg57
I0
sg53
I0
sg22
I0
sg114
I0
sg13
I0
sg67
I0
sg54
I0
sg56
I0
sg38
I0
sg40
I0
sg55
I0
sg105
I0
sg12
I0
sg68
I0
sg36
I0
sg34
I0
sg35
I0
sg39
I0
sg15
I0
sg25
I0
sg37
I0
sg29
I0
sg32
I0
sg28
I0
sg11
I0
sg33
I0
sg14
I0
sg41
I0
sg23
I0
sg31
I0
sg61
I0
sg30
I0
sg117
I0
sg18
I0
sg8
I0
sg69
I0
sg120
I0
sg9
I0
sg27
I0
sg16
I0
sg10
I0
sg62
I1
sg26
I0
sg17
I0
sg19
I4
sg70
I0
sg20
I0
sg21
I0
ssg20
(dp322
g24
I0
sg42
I0
sg57
I0
sg53
I0
sg22
I0
sg61
I0
sg51
I0
sg13
I0
sg45
I0
sg54
I0
sg46
I0
sg49
I0
sg38
I0
sg40
I0
sg55
I0
sg52
I0
sg12
I0
sg44
I0
sg36
I0
sg34
I0
sg35
I0
sg39
I0
sg15
I0
sg25
I0
sg37
I0
sg29
I0
sg32
I0
sg28
I0
sg11
I0
sg33
I0
sg14
I0
sg41
I0
sg58
I0
sg23
I0
sg31
I0
sg59
I0
sg30
I0
sg48
I0
sg18
I0
sg56
I0
sg8
I0
sg43
I0
sg50
I0
sg47
I0
sg9
I0
sg27
I0
sg16
I0
sg10
I0
sg62
I0
sg26
I0
sg17
I0
sg19
I0
sg20
I5
sg21
I5
ssg21
(dp323
g24
I0
sg42
I0
sg177
I0
sg227
I0
sg22
I0
sg61
I0
sg114
I0
sg13
I0
sg205
I0
sg206
I0
sg141
I0
sg38
I0
sg40
I0
sg228
I0
sg266
I0
sg12
I0
sg207
I0
sg36
I0
sg34
I0
sg35
I0
sg39
I0
sg15
I0
sg25
I0
sg37
I0
sg29
I0
sg32
I0
sg28
I0
sg11
I0
sg33
I0
sg14
I0
sg41
I0
sg138
I0
sg23
I0
sg31
I0
sg59
I0
sg30
I0
sg208
I0
sg18
I0
sg196
I0
sg8
I0
sg209
I0
sg210
I0
sg211
I0
sg9
I0
sg27
I0
sg16
I0
sg10
I0
sg62
I0
sg26
I0
sg17
I0
sg19
I0
sg20
I0
sg21
I0
sssb.