ccopy_reg
_reconstructor
p0
(cutils.eval
ConfusionMatrix
p1
c__builtin__
object
p2
Ntp3
Rp4
(dp5
S'labels'
p6
(lp7
S'cut.v.01'
p8
aS'bacon.n.01'
p9
aS'bacon.n.02'
p10
aS'put.v.01'
p11
aS'cake.n.03'
p12
aS'whipped_cream.n.01'
p13
aS'lemon.n.01'
p14
aS'onion.n.01'
p15
aS'onion.n.03'
p16
aS'beef.n.02'
p17
aS'plate.n.04'
p18
aS'plate.n.13'
p19
aS'fill.v.01'
p20
aS'kettle.n.01'
p21
aS'water.n.06'
p22
aS'meat.n.01'
p23
aS'cleaver.n.01'
p24
aS'pepper.n.03'
p25
aS'pepper.n.04'
p26
aS'salt.n.02'
p27
aS'salt.n.01'
p28
aS'egg.n.02'
p29
aS'egg.n.01'
p30
aS'pitcher.n.02'
p31
aS'milk.n.01'
p32
aS'milk.n.02'
p33
aS'knife.n.01'
p34
aS'banana.n.02'
p35
aS'slice.v.03'
p36
aS'cheese.n.01'
p37
asS'instanceCount'
p38
I29
sS'matrix'
p39
(dp40
g19
(dp41
g19
I0
ssg37
(dp42
S'cheese.n.01'
p43
I1
ssg17
(dp44
S'beef.n.02'
p45
I1
ssg32
(dp46
g33
I1
ssg33
(dp47
g33
I0
ssg8
(dp48
S'cut.v.01'
p49
I3
ssg29
(dp50
g30
I1
ssg30
(dp51
g30
I0
ssg10
(dp52
g10
I0
ssg9
(dp53
g10
I1
ssg20
(dp54
S'fill.v.01'
p55
I2
ssg31
(dp56
S'pitcher.n.02'
p57
I1
ssg24
(dp58
S'cleaver.n.01'
p59
I1
ssg23
(dp60
S'meat.n.01'
p61
I1
ssg27
(dp62
g28
I1
ssg28
(dp63
g28
I0
ssg34
(dp64
S'knife.n.01'
p65
I1
ssg35
(dp66
S'banana.n.02'
p67
I1
ssg18
(dp68
g19
I1
ssg26
(dp69
g26
I0
ssg25
(dp70
g26
I1
ssg13
(dp71
S'whipped_cream.n.01'
p72
I1
ssg22
(dp73
S'water.n.06'
p74
I1
ssg11
(dp75
S'put.v.01'
p76
I3
ssg21
(dp77
S'kettle.n.01'
p78
I1
ssg12
(dp79
S'cake.n.03'
p80
I1
ssg14
(dp81
S'lemon.n.01'
p82
I1
ssg36
(dp83
S'slice.v.03'
p84
I2
ssg15
(dp85
g16
I1
ssg16
(dp86
g16
I0
sssb.