ccopy_reg
_reconstructor
p0
(cutils.eval
ConfusionMatrix
p1
c__builtin__
object
p2
Ntp3
Rp4
(dp5
S'labels'
p6
(lp7
S'fill.v.01'
p8
aS'fill.v.09'
p9
aS'foam.n.01'
p10
aS'mug.n.04'
p11
aS'chump.n.01'
p12
aS'put.v.01'
p13
aS'pan.n.03'
p14
aS'pizza.n.01'
p15
aS'chicken.n.01'
p16
aS'pan.n.01'
p17
aS'water.n.06'
p18
aS'piece.n.08'
p19
aS'slice.n.06'
p20
aS'slice.v.03'
p21
aS'cut.v.01'
p22
aS'bread.n.01'
p23
aS'knife.n.01'
p24
aS'bacon.n.01'
p25
aS'cake.n.03'
p26
aS'patty.n.01'
p27
aS'whipped_cream.n.01'
p28
aS'lemon.n.01'
p29
aS'onion.n.01'
p30
aS'onion.n.03'
p31
aS'beef.n.02'
p32
aS'plate.n.04'
p33
aS'plate.n.11'
p34
asS'instanceCount'
p35
I29
sS'matrix'
p36
(dp37
g34
(dp38
g34
I0
ssg16
(dp39
S'chicken.n.01'
p40
I1
ssg32
(dp41
S'beef.n.02'
p42
I1
ssg23
(dp43
S'bread.n.01'
p44
I1
ssg27
(dp45
g27
I0
ssg17
(dp46
S'pan.n.03'
p47
I1
ssg14
(dp48
S'pan.n.03'
p49
I2
ssg22
(dp50
S'cut.v.01'
p51
I3
ssg9
(dp52
g9
I0
ssg25
(dp53
S'bacon.n.01'
p54
I1
ssg8
(dp55
g9
I2
ssg21
(dp56
S'slice.v.03'
p57
I1
ssg12
(dp58
g12
I0
ssg24
(dp59
S'knife.n.01'
p60
I1
ssg33
(dp61
g34
I1
ssg10
(dp62
S'foam.n.01'
p63
I1
ssg28
(dp64
S'whipped_cream.n.01'
p65
I1
ssg19
(dp66
g20
I1
ssg11
(dp67
g12
I1
ssg20
(dp68
g20
I0
ssg18
(dp69
S'water.n.06'
p70
I1
ssg13
(dp71
S'put.v.01'
p72
I4
ssg15
(dp73
S'pizza.n.01'
p74
I2
ssg26
(dp75
g27
I1
ssg29
(dp76
S'lemon.n.01'
p77
I1
ssg30
(dp78
g31
I1
ssg31
(dp79
g31
I0
sssb.