ccopy_reg
_reconstructor
p0
(cutils.eval
ConfusionMatrix
p1
c__builtin__
object
p2
Ntp3
Rp4
(dp5
S'labels'
p6
(lp7
S'cheese.n.01'
p8
aS'slice.v.03'
p9
aS'jar.n.01'
p10
aS'fill.v.01'
p11
aS'pan.n.01'
p12
aS'pan.n.03'
p13
aS'water.n.06'
p14
aS'carve.v.03'
p15
aS'hack.v.07'
p16
aS'pepper.n.04'
p17
aS'pepper.n.03'
p18
aS'onion.n.01'
p19
asS'instanceCount'
p20
I10
sS'matrix'
p21
(dp22
g12
(dp23
g13
I1
ssg8
(dp24
S'cheese.n.01'
p25
I1
ssg13
(dp26
g13
I0
ssg9
(dp27
S'slice.v.03'
p28
I1
ssg15
(dp29
g16
I1
ssg17
(dp30
g18
I1
ssg14
(dp31
S'water.n.06'
p32
I1
ssg16
(dp33
g16
I0
ssg11
(dp34
S'fill.v.01'
p35
I2
ssg18
(dp36
g18
I0
ssg10
(dp37
S'jar.n.01'
p38
I1
ssg19
(dp39
S'onion.n.01'
p40
I1
sssb.