ccopy_reg
_reconstructor
p0
(cutils.eval
ConfusionMatrix
p1
c__builtin__
object
p2
Ntp3
Rp4
(dp5
S'labels'
p6
(lp7
S'cut.n.16'
p8
aS'edit.v.03'
p9
aS'bag.n.01'
p10
aS'bag.n.04'
p11
aS'cup.n.01'
p12
aS'fill.v.01'
p13
aS'cola.n.02'
p14
aS'add.v.01'
p15
aS'lend.v.01'
p16
aS'butter.n.01'
p17
aS'butter.n.02'
p18
aS'egg.n.02'
p19
aS'egg.n.01'
p20
aS'dough.n.01'
p21
aS'mix.v.04'
p22
aS'mix.v.05'
p23
aS'pot.n.01'
p24
aS'water.n.06'
p25
asS'instanceCount'
p26
I13
sS'matrix'
p27
(dp28
g25
(dp29
S'water.n.06'
p30
I1
ssg19
(dp31
g20
I1
ssg14
(dp32
S'cola.n.02'
p33
I1
ssg21
(dp34
S'dough.n.01'
p35
I1
ssg18
(dp36
g18
I0
ssg17
(dp37
g18
I1
ssg9
(dp38
g9
I0
ssg12
(dp39
S'cup.n.01'
p40
I1
ssg24
(dp41
S'pot.n.01'
p42
I1
ssg13
(dp43
S'fill.v.01'
p44
I2
ssg11
(dp45
g11
I0
ssg10
(dp46
g11
I1
ssg16
(dp47
g16
I0
ssg22
(dp48
g23
I1
ssg23
(dp49
g23
I0
ssg8
(dp50
g9
I1
ssg15
(dp51
g16
I1
ssg20
(dp52
g20
I0
sssb.