ccopy_reg
_reconstructor
p0
(cutils.eval
ConfusionMatrix
p1
c__builtin__
object
p2
Ntp3
Rp4
(dp5
S'labels'
p6
(lp7
S'flesh.n.01'
p8
aS'human_body.n.01'
p9
aS'slice.v.03'
p10
aS'fork.n.01'
p11
aS'fork.n.03'
p12
aS'bowl.n.01'
p13
aS'bowl.n.08'
p14
aS'blend.v.03'
p15
aS'mix.v.05'
p16
aS'pepper.n.03'
p17
aS'salt.n.02'
p18
aS'salt.n.04'
p19
aS'egg.n.02'
p20
aS'egg.n.01'
p21
aS'opening.n.01'
p22
aS'gap.n.03'
p23
aS'fill.v.09'
p24
aS'fill.v.01'
p25
aS'batter.n.02'
p26
aS'cut.n.16'
p27
aS'edit.v.03'
p28
aS'bag.n.01'
p29
aS'bag.n.04'
p30
aS'cup.n.01'
p31
aS'cola.n.02'
p32
aS'add.v.01'
p33
aS'lend.v.01'
p34
aS'butter.n.01'
p35
aS'butter.n.02'
p36
aS'dough.n.01'
p37
aS'mix.v.04'
p38
aS'pot.n.01'
p39
aS'water.n.06'
p40
aS'serve.v.05'
p41
aS'serve.v.11'
p42
aS'cut.v.01'
p43
aS'piece.n.08'
p44
aS'slice.n.06'
p45
aS'put.v.01'
p46
aS'put.v.02'
p47
aS'lodge.v.02'
p48
aS'stick.v.08'
p49
aS'pizza.n.01'
p50
aS'pan.n.01'
p51
aS'pan.n.03'
p52
aS'water_system.n.02'
p53
aS'rice.n.01'
p54
aS'pour.v.01'
p55
aS'concoction.n.01'
p56
aS'mix.n.03'
p57
aS'cheese.n.01'
p58
aS'jar.n.01'
p59
aS'carve.v.03'
p60
aS'hack.v.07'
p61
aS'pepper.n.04'
p62
aS'onion.n.01'
p63
aS'teapot.n.01'
p64
aS'glass.n.02'
p65
aS'milk.n.01'
p66
aS'chicken.n.01'
p67
aS'wimp.n.01'
p68
aS'corn.n.02'
p69
aS'corn.n.03'
p70
aS'chop.v.01'
p71
aS'chop.v.05'
p72
aS'pitcher.n.02'
p73
aS'bread.n.01'
p74
aS'foam.n.01'
p75
aS'mug.n.04'
p76
aS'saltcellar.n.01'
p77
aS'mixing_bowl.n.01'
p78
aS'sugar.n.01'
p79
aS'boodle.n.01'
p80
aS'blend.v.01'
p81
aS'sauce.n.01'
p82
aS'bottle.n.01'
p83
aS'fruit_juice.n.01'
p84
aS'gravy.n.01'
p85
aS'gravy.n.02'
p86
aS'whiskey.n.01'
p87
aS'carafe.n.01'
p88
aS'liquid.n.01'
p89
aS'sink.n.01'
p90
aS'cesspool.n.01'
p91
aS'opening.n.10'
p92
aS'curd.n.01'
p93
aS'walnut.n.01'
p94
aS'walnut.n.02'
p95
aS'get.v.01'
p96
aS'bring.v.04'
p97
aS'pear.n.01'
p98
aS'pear.n.02'
p99
aS'bleu.n.01'
p100
aS'cover.v.01'
p101
aS'cover.v.23'
p102
aS'rib.n.03'
p103
aS'rib.n.01'
p104
aS'onion.n.03'
p105
aS'beef.n.02'
p106
aS'gripe.n.01'
p107
aS'plate.n.04'
p108
aS'plate.n.13'
p109
aS'vanilla.n.02'
p110
aS'mixture.n.01'
p111
asS'instanceCount'
p112
I112
sS'matrix'
p113
(dp114
g13
(dp115
g90
I0
sg18
I0
sg100
I0
sg13
I0
sg26
I0
sg92
I0
sg14
I3
sg23
I0
sg24
I0
sg83
I0
sg20
I0
sg21
I0
sg96
I0
sg25
I0
sg99
I0
sg98
I0
sg16
I0
sg82
I0
sg85
I0
sg10
I0
sg86
I0
sg15
I0
sg81
I0
sg19
I0
sg95
I0
sg12
I0
sg11
I0
sg94
I0
sg97
I0
sg93
I0
sg9
I0
sg17
I0
sg87
I0
sg91
I0
sg22
I0
sg84
I0
sg8
I0
sS'put.v.02'
p116
I0
sS'put.v.01'
p117
I0
sS'pour.v.01'
p118
I0
sg89
I0
sS'jar.n.01'
p119
I0
sg88
I0
ssg14
(dp120
g90
I0
sg18
I0
sg100
I0
sg13
I0
sg26
I0
sg92
I0
sg14
I0
sg23
I0
sg24
I0
sg83
I0
sg20
I0
sg21
I0
sg96
I0
sg25
I0
sg99
I0
sg98
I0
sg16
I0
sg82
I0
sg85
I0
sg10
I0
sg86
I0
sg15
I0
sg81
I0
sg19
I0
sg95
I0
sg12
I0
sg11
I0
sg94
I0
sg97
I0
sg93
I0
sg9
I0
sg17
I0
sg87
I0
sg91
I0
sg22
I0
sg84
I0
sg8
I0
sg116
I0
sg117
I0
sg118
I0
sg89
I0
sg119
I0
sg88
I0
ssg43
(dp121
g51
I0
sg52
I0
sg43
I0
sS'edit.v.03'
p122
I1
sg53
I0
sg45
I0
sg47
I0
sg46
I0
sg50
I0
sg57
I0
sg42
I0
sg41
I0
sg55
I0
sg48
I0
sg49
I0
sg56
I0
sg44
I0
sS'add.v.01'
p123
I0
sS'water.n.06'
p124
I0
sS'lend.v.01'
p125
I0
sg54
I0
ssg101
(dp126
g109
I0
sS'egg.n.02'
p127
I0
sg111
I0
sS'blend.v.03'
p128
I0
sS'mix.v.05'
p129
I0
sg106
I0
sg103
I0
sS'onion.n.01'
p130
I0
sg104
I0
sg110
I0
sS'put.v.02'
p131
I0
sS'put.v.01'
p132
I0
sg107
I0
sg108
I0
sg105
I0
sg101
I0
sS'lend.v.01'
p133
I0
sS'concoction.n.01'
p134
I0
sS'add.v.01'
p135
I0
sS'egg.n.01'
p136
I0
sg102
I1
ssg85
(dp137
g85
I0
sg84
I0
sg86
I1
sg81
I0
sg83
I0
sg116
I0
sg117
I0
sS'fill.v.01'
p138
I0
sS'bowl.n.01'
p139
I0
sg119
I0
sS'bowl.n.08'
p140
I0
sg82
I0
ssg86
(dp141
g85
I0
sg84
I0
sg86
I0
sg81
I0
sg83
I0
sg116
I0
sg117
I0
sg138
I0
sg139
I0
sg119
I0
sg140
I0
sg82
I0
ssg103
(dp142
g109
I0
sg127
I0
sg111
I0
sg128
I0
sg129
I0
sg106
I0
sg103
I0
sg130
I0
sg104
I1
sg110
I0
sg131
I0
sg132
I0
sg107
I0
sg108
I0
sg105
I0
sg101
I0
sg133
I0
sg134
I0
sg135
I0
sg136
I0
sg102
I0
ssg104
(dp143
g109
I0
sg127
I0
sg111
I0
sg128
I0
sg129
I0
sg106
I0
sg103
I0
sg130
I0
sg104
I0
sg110
I0
sg131
I0
sg132
I0
sg107
I0
sg108
I0
sg105
I0
sg101
I0
sg133
I0
sg134
I0
sg135
I0
sg136
I0
sg102
I0
ssg12
(dp144
g10
I0
sg15
I0
sg23
I0
sg8
I0
sg20
I0
sg21
I0
sg19
I0
sg12
I0
sg13
I0
sg11
I0
sg25
I0
sg24
I0
sg9
I0
sg17
I0
sg26
I0
sg16
I0
sg14
I0
sg18
I0
sg22
I0
ssg11
(dp145
g10
I0
sg15
I0
sg23
I0
sg8
I0
sg20
I0
sg21
I0
sg19
I0
sg12
I1
sg13
I0
sg11
I0
sg25
I0
sg24
I0
sg9
I0
sg17
I0
sg26
I0
sg16
I0
sg14
I0
sg18
I0
sg22
I0
ssg94
(dp146
g90
I0
sg100
I0
sS'bowl.n.01'
p147
I0
sg92
I0
sS'bowl.n.08'
p148
I0
sS'fill.v.09'
p149
I0
sS'fill.v.01'
p150
I0
sg99
I0
sg98
I0
sS'mix.v.05'
p151
I0
sS'blend.v.03'
p152
I0
sg96
I0
sg95
I1
sg94
I0
sg97
I0
sg89
I0
sg87
I0
sg91
I0
sS'opening.n.01'
p153
I0
sg118
I0
sg93
I0
sg88
I0
ssg97
(dp154
g90
I0
sg100
I0
sg147
I0
sg92
I0
sg148
I0
sg149
I0
sg150
I0
sg99
I0
sg98
I0
sg151
I0
sg152
I0
sg96
I0
sg95
I0
sg94
I0
sg97
I0
sg89
I0
sg87
I0
sg91
I0
sg153
I0
sg118
I0
sg93
I0
sg88
I0
ssg42
(dp155
g51
I0
sg52
I0
sg43
I0
sg122
I0
sg53
I0
sg45
I0
sg47
I0
sg46
I0
sg50
I0
sg57
I0
sg42
I0
sg41
I0
sg55
I0
sg48
I0
sg49
I0
sg56
I0
sg44
I0
sg123
I0
sg124
I0
sg125
I0
sg54
I0
ssg9
(dp156
g10
I0
sg15
I0
sg23
I0
sg8
I0
sg20
I0
sg21
I0
sg19
I0
sg12
I0
sg13
I0
sg11
I0
sg25
I0
sg24
I0
sg9
I0
sg17
I0
sg26
I0
sg16
I0
sg14
I0
sg18
I0
sg22
I0
ssg87
(dp157
g90
I0
sg100
I0
sg147
I0
sg92
I0
sg148
I0
sg149
I0
sg150
I0
sg99
I0
sg98
I0
sg151
I0
sg152
I0
sg96
I0
sg95
I0
sg94
I0
sg97
I0
sg89
I0
sg87
I1
sg91
I0
sg153
I0
sg118
I0
sg93
I0
sg88
I0
ssg22
(dp158
g90
I0
sg18
I0
sg100
I0
sg13
I0
sg26
I0
sg92
I1
sg14
I0
sg23
I1
sg24
I0
sg20
I0
sg21
I0
sg96
I0
sg25
I0
sg99
I0
sg98
I0
sg16
I0
sg10
I0
sg15
I0
sg19
I0
sg95
I0
sg12
I0
sg11
I0
sg94
I0
sg97
I0
sg93
I0
sg9
I0
sg17
I0
sg87
I0
sg91
I0
sg22
I0
sg8
I0
sg118
I0
sg89
I0
sg88
I0
ssg8
(dp159
g10
I0
sg15
I0
sg23
I0
sg8
I0
sg20
I0
sg21
I0
sg19
I0
sg12
I0
sg13
I0
sg11
I0
sg25
I0
sg24
I0
sg9
I1
sg17
I0
sg26
I0
sg16
I0
sg14
I0
sg18
I0
sg22
I0
ssg40
(dp160
g58
I0
sg70
I0
sg69
I0
sg67
I0
sg61
I0
sg60
I0
sg48
I0
sg47
I0
sg41
I0
sg68
I0
sg49
I0
sg31
I0
sg33
I0
sg66
I0
sg51
I0
sg52
I0
sg43
I0
sg32
I0
sS'egg.n.02'
p161
I0
sg35
I0
sg39
I0
sS'fill.v.01'
p162
I0
sg30
I0
sg73
I0
sg72
I0
sg29
I0
sg71
I0
sg38
I0
sS'mix.v.05'
p163
I0
sg65
I0
sS'slice.v.03'
p164
I0
sg37
I0
sg62
I0
sg34
I0
sg28
I0
sS'pepper.n.03'
p165
I0
sg42
I0
sg56
I0
sg44
I0
sg59
I0
sg64
I0
sg53
I1
sg54
I0
sg45
I0
sg40
I3
sg46
I0
sg50
I0
sg55
I0
sg36
I0
sg57
I0
sg27
I0
sg63
I0
sS'egg.n.01'
p166
I0
ssg46
(dp167
g109
I0
sg106
I0
sg53
I0
sg124
I0
sg41
I0
sg49
I0
sg111
I0
sg140
I0
sg123
I0
sg51
I0
sg138
I0
sg52
I0
sg43
I0
sg83
I0
sg127
I0
sg136
I0
sg139
I0
sg108
I0
sg101
I0
sg48
I0
sg56
I0
sg82
I0
sg85
I0
sg86
I0
sg128
I0
sg81
I0
sg103
I0
sg104
I0
sg125
I0
sg122
I0
sg107
I0
sg42
I0
sg129
I0
sg44
I0
sg84
I0
sg54
I0
sg45
I0
sg47
I3
sg46
I1
sg50
I0
sg55
I0
sg102
I0
sg57
I0
sg119
I0
sg130
I0
sg110
I0
sg105
I0
ssg55
(dp168
g90
I0
sg53
I0
sg78
I0
sg100
I0
sg74
I0
sg41
I0
sg49
I0
sg92
I0
sg75
I0
sg123
I0
sg99
I0
sg51
I0
sg52
I0
sg43
I0
sg77
I0
sg147
I0
sS'butter.n.01'
p169
I0
sg98
I0
sS'fill.v.01'
p170
I0
sg148
I0
sg149
I0
sg94
I0
sg48
I0
sg56
I0
sg93
I0
sS'salt.n.02'
p171
I0
sg152
I0
sg96
I0
sg95
I0
sg125
I0
sg122
I0
sg124
I0
sg97
I0
sg42
I0
sg151
I0
sg44
I0
sg80
I0
sg87
I0
sg91
I0
sg153
I0
sg76
I0
sg54
I0
sg45
I0
sg47
I0
sg46
I0
sg50
I0
sg55
I3
sg57
I0
sg89
I0
sg88
I0
sg79
I0
ssg82
(dp172
g85
I0
sg84
I0
sg86
I0
sg81
I0
sg83
I0
sg116
I0
sg117
I0
sg138
I0
sg139
I0
sg119
I0
sg140
I0
sg82
I1
ssg59
(dp173
g58
I0
sg61
I0
sg60
I0
sg116
I0
sg139
I0
sg140
I0
sS'pan.n.01'
p174
I0
sS'pan.n.03'
p175
I0
sg83
I0
sS'fill.v.01'
p176
I0
sg82
I0
sg85
I0
sg164
I0
sg86
I0
sg81
I0
sg62
I0
sg165
I0
sg84
I0
sS'water.n.06'
p177
I0
sg117
I0
sg59
I2
sg63
I0
ssg88
(dp178
g90
I0
sg100
I0
sg147
I0
sg92
I0
sg148
I0
sg149
I0
sg150
I0
sg99
I0
sg98
I0
sg151
I0
sg152
I0
sg96
I0
sg95
I0
sg94
I0
sg97
I0
sg89
I0
sg87
I0
sg91
I0
sg153
I0
sg118
I0
sg93
I0
sg88
I1
ssg67
(dp179
g70
I0
sg69
I0
sg67
I0
sg64
I0
sg68
I1
sS'water.n.06'
p180
I0
sS'fill.v.01'
p181
I0
sg73
I0
sg72
I0
sg71
I0
sS'lend.v.01'
p182
I0
sS'add.v.01'
p183
I0
sg66
I0
sg65
I0
ssg90
(dp184
g90
I0
sg100
I0
sg147
I0
sg92
I0
sg148
I0
sg149
I0
sg150
I0
sg99
I0
sg98
I0
sg151
I0
sg152
I0
sg96
I0
sg95
I0
sg94
I0
sg97
I0
sg89
I0
sg87
I0
sg91
I1
sg153
I0
sg118
I0
sg93
I0
sg88
I0
ssg45
(dp185
g51
I0
sg52
I0
sg43
I0
sg45
I0
sg53
I0
sg122
I0
sg47
I0
sg46
I0
sg50
I0
sg57
I0
sg42
I0
sg41
I0
sg55
I0
sg48
I0
sg49
I0
sg56
I0
sg44
I0
sg123
I0
sg124
I0
sg125
I0
sg54
I0
ssg100
(dp186
g90
I0
sg100
I1
sg147
I0
sg92
I0
sg148
I0
sg149
I0
sg150
I0
sg99
I0
sg98
I0
sg151
I0
sg152
I0
sg96
I0
sg95
I0
sg94
I0
sg97
I0
sg89
I0
sg87
I0
sg91
I0
sg153
I0
sg118
I0
sg93
I0
sg88
I0
ssg47
(dp187
g109
I0
sg106
I0
sg53
I0
sg124
I0
sg41
I0
sg49
I0
sg111
I0
sg140
I0
sg123
I0
sg51
I0
sg138
I0
sg52
I0
sg43
I0
sg83
I0
sg127
I0
sg136
I0
sg139
I0
sg108
I0
sg101
I0
sg48
I0
sg56
I0
sg82
I0
sg85
I0
sg86
I0
sg128
I0
sg81
I0
sg103
I0
sg104
I0
sg125
I0
sg122
I0
sg107
I0
sg42
I0
sg129
I0
sg44
I0
sg84
I0
sg54
I0
sg45
I0
sg47
I0
sg46
I0
sg50
I0
sg55
I0
sg102
I0
sg57
I0
sg119
I0
sg130
I0
sg110
I0
sg105
I0
ssg41
(dp188
g51
I0
sg52
I0
sg43
I0
sg122
I0
sg53
I0
sg45
I0
sg47
I0
sg46
I0
sg50
I0
sg57
I0
sg42
I1
sg41
I0
sg55
I0
sg48
I0
sg49
I0
sg56
I0
sg44
I0
sg123
I0
sg124
I0
sg125
I0
sg54
I0
ssg92
(dp189
g90
I0
sg100
I0
sg147
I0
sg92
I0
sg148
I0
sg149
I0
sg150
I0
sg99
I0
sg98
I0
sg151
I0
sg152
I0
sg96
I0
sg95
I0
sg94
I0
sg97
I0
sg89
I0
sg87
I0
sg91
I0
sg153
I0
sg118
I0
sg93
I0
sg88
I0
ssg33
(dp190
g109
I0
sg70
I0
sg69
I0
sg67
I0
sg106
I0
sg48
I0
sg78
I0
sg47
I0
sg41
I0
sg68
I0
sg49
I0
sg31
I0
sg33
I0
sg66
I0
sg51
I0
sg52
I0
sg43
I0
sg32
I0
sg77
I0
sg161
I0
sg35
I0
sg39
I0
sg162
I0
sg30
I0
sg73
I0
sg72
I0
sg29
I0
sg71
I0
sg110
I0
sg38
I0
sg163
I0
sg65
I0
sg108
I0
sg171
I0
sg111
I0
sg128
I0
sg101
I0
sg37
I0
sg103
I0
sg104
I0
sg34
I6
sg28
I0
sg107
I0
sg80
I0
sg75
I0
sg42
I0
sg56
I0
sg44
I0
sg74
I0
sg76
I0
sg64
I0
sg53
I0
sg54
I0
sg45
I0
sg40
I0
sg46
I0
sg50
I0
sg55
I0
sg102
I0
sg36
I0
sg57
I0
sg27
I0
sg130
I0
sg166
I0
sg105
I0
sg79
I0
ssg99
(dp191
g90
I0
sg100
I0
sg147
I0
sg92
I0
sg148
I0
sg149
I0
sg150
I0
sg99
I0
sg98
I0
sg151
I0
sg152
I0
sg96
I0
sg95
I0
sg94
I0
sg97
I0
sg89
I0
sg87
I0
sg91
I0
sg153
I0
sg118
I0
sg93
I0
sg88
I0
ssg51
(dp192
g58
I0
sg61
I0
sg60
I0
sg53
I0
sg78
I0
sg124
I0
sg41
I0
sg49
I0
sg75
I0
sg123
I0
sg51
I0
sg52
I3
sg43
I0
sg77
I0
sg169
I0
sg176
I0
sg48
I0
sg56
I0
sg171
I0
sg164
I0
sg62
I0
sg125
I0
sg122
I0
sg165
I0
sg80
I0
sg42
I0
sg44
I0
sg74
I0
sg76
I0
sg54
I0
sg45
I0
sg47
I0
sg46
I0
sg50
I0
sg55
I0
sg57
I0
sg59
I0
sg63
I0
sg79
I0
ssg52
(dp193
g58
I0
sg61
I0
sg60
I0
sg53
I0
sg78
I0
sg124
I0
sg41
I0
sg49
I0
sg75
I0
sg123
I0
sg51
I0
sg52
I0
sg43
I0
sg77
I0
sg169
I0
sg176
I0
sg48
I0
sg56
I0
sg171
I0
sg164
I0
sg62
I0
sg125
I0
sg122
I0
sg165
I0
sg80
I0
sg42
I0
sg44
I0
sg74
I0
sg76
I0
sg54
I0
sg45
I0
sg47
I0
sg46
I0
sg50
I0
sg55
I0
sg57
I0
sg59
I0
sg63
I0
sg79
I0
ssg75
(dp194
S'pan.n.01'
p195
I0
sg170
I0
sS'pan.n.03'
p196
I0
sg80
I0
sg76
I0
sg169
I0
sg77
I0
sg78
I0
sg74
I0
sS'pour.v.01'
p197
I0
sS'mix.n.03'
p198
I0
sg79
I0
sg75
I1
sS'add.v.01'
p199
I0
sg171
I0
sS'lend.v.01'
p200
I0
ssg23
(dp201
g10
I0
sg15
I0
sg23
I0
sg8
I0
sg20
I0
sg21
I0
sg19
I0
sg12
I0
sg13
I0
sg11
I0
sg25
I0
sg24
I0
sg9
I0
sg17
I0
sg26
I0
sg16
I0
sg14
I0
sg18
I0
sg22
I0
ssg31
(dp202
g40
I0
sg161
I0
sg32
I0
sg37
I0
sg36
I0
sg35
I0
sg28
I0
sg31
I1
sg39
I0
sg162
I0
sg30
I0
sg29
I0
sg34
I0
sg38
I0
sg163
I0
sg27
I0
sg33
I0
sg166
I0
ssg110
(dp203
g109
I0
sg127
I0
sg111
I0
sg128
I0
sg129
I0
sg106
I0
sg103
I0
sg130
I0
sg104
I0
sg110
I1
sg131
I0
sg132
I0
sg107
I0
sg108
I0
sg105
I0
sg101
I0
sg133
I0
sg134
I0
sg135
I0
sg136
I0
sg102
I0
ssg10
(dp204
g58
I0
sg18
I0
sg60
I0
sg13
I0
sg26
I0
sg14
I0
sg174
I0
sg175
I0
sg23
I0
sg24
I0
sg20
I0
sg21
I0
sg61
I0
sg25
I0
sg16
I0
sg10
I2
sg15
I0
sg19
I0
sg62
I0
sg12
I0
sg11
I0
sg9
I0
sg17
I0
sg22
I0
sg8
I0
sg177
I0
sg59
I0
sg63
I0
ssg37
(dp205
g162
I0
sg32
I0
sg161
I0
sg37
I1
sg36
I0
sg35
I0
sg28
I0
sg40
I0
sg39
I0
sg31
I0
sg30
I0
sg29
I0
sg34
I0
sg38
I0
sg163
I0
sg27
I0
sg33
I0
sg166
I0
ssg96
(dp206
g90
I0
sg100
I0
sg147
I0
sg92
I0
sg148
I0
sg149
I0
sg150
I0
sg99
I0
sg98
I0
sg151
I0
sg152
I0
sg96
I0
sg95
I0
sg94
I0
sg97
I1
sg89
I0
sg87
I0
sg91
I0
sg153
I0
sg118
I0
sg93
I0
sg88
I0
ssg62
(dp207
g174
I0
sg164
I0
sg175
I0
sg58
I0
sg60
I0
sg62
I0
sg177
I0
sg61
I0
sg176
I0
sg165
I1
sg59
I0
sg63
I0
ssg17
(dp208
g58
I0
sg18
I0
sg60
I0
sg13
I0
sg26
I0
sg14
I0
sg174
I0
sg175
I0
sg23
I0
sg24
I0
sg20
I0
sg21
I0
sg61
I0
sg25
I0
sg16
I0
sg10
I0
sg15
I0
sg19
I0
sg62
I0
sg12
I0
sg11
I0
sg9
I0
sg17
I1
sg22
I0
sg8
I0
sg177
I0
sg59
I0
sg63
I0
ssg107
(dp209
g108
I0
sg109
I0
sg111
I0
sg128
I0
sg127
I0
sg129
I0
sg106
I0
sg103
I0
sg130
I0
sg104
I0
sg110
I0
sg131
I0
sg107
I0
sg105
I0
sg132
I0
sg101
I0
sg133
I0
sg134
I0
sg135
I0
sg136
I0
sg102
I0
ssg84
(dp210
g85
I0
sg84
I1
sg86
I0
sg81
I0
sg83
I0
sg116
I0
sg117
I0
sg138
I0
sg139
I0
sg119
I0
sg140
I0
sg82
I0
ssg64
(dp211
g70
I0
sg69
I0
sg67
I0
sg64
I1
sg68
I0
sg180
I0
sg181
I0
sg73
I0
sg72
I0
sg71
I0
sg182
I0
sg183
I0
sg66
I0
sg65
I0
ssg57
(dp212
g53
I0
sg78
I0
sg74
I0
sg41
I0
sg49
I0
sg75
I0
sg123
I0
sg51
I0
sg52
I0
sg43
I0
sg77
I0
sg169
I0
sg170
I0
sg48
I0
sg56
I0
sg171
I0
sg125
I0
sg122
I0
sg124
I0
sg42
I0
sg44
I0
sg80
I0
sg76
I0
sg54
I0
sg45
I0
sg47
I0
sg46
I0
sg50
I0
sg55
I0
sg57
I1
sg79
I0
ssg93
(dp213
g90
I0
sg100
I0
sg147
I0
sg92
I0
sg148
I0
sg149
I0
sg150
I0
sg99
I0
sg98
I0
sg151
I0
sg152
I0
sg96
I0
sg95
I0
sg94
I0
sg97
I0
sg93
I1
sg87
I0
sg91
I0
sg153
I0
sg118
I0
sg89
I0
sg88
I0
ssg63
(dp214
g109
I0
sg58
I0
sg106
I0
sg60
I0
sg131
I0
sg135
I0
sg174
I0
sg175
I0
sg127
I0
sg136
I0
sg61
I0
sg176
I0
sg108
I0
sg101
I0
sg110
I0
sg134
I0
sg102
I0
sg164
I0
sg128
I0
sg103
I0
sg62
I0
sg104
I0
sg111
I0
sg165
I0
sg107
I0
sg129
I0
sg177
I0
sg132
I0
sg133
I0
sg59
I0
sg63
I1
sg105
I1
ssg105
(dp215
g109
I0
sg127
I0
sg111
I0
sg128
I0
sg129
I0
sg106
I0
sg103
I0
sg130
I0
sg104
I0
sg110
I0
sg131
I0
sg132
I0
sg107
I0
sg108
I0
sg105
I0
sg101
I0
sg133
I0
sg134
I0
sg135
I0
sg136
I0
sg102
I0
ssg70
(dp216
g70
I0
sg69
I0
sg67
I0
sg64
I0
sg68
I0
sg180
I0
sg181
I0
sg73
I0
sg72
I0
sg71
I0
sg182
I0
sg183
I0
sg66
I0
sg65
I0
ssg69
(dp217
g70
I1
sg69
I0
sg67
I0
sg64
I0
sg68
I0
sg180
I0
sg181
I0
sg73
I0
sg72
I0
sg71
I0
sg182
I0
sg183
I0
sg66
I0
sg65
I0
ssg106
(dp218
g109
I0
sg127
I0
sg111
I0
sg128
I0
sg129
I0
sg106
I0
sg103
I0
sg130
I0
sg104
I0
sg110
I0
sg131
I0
sg132
I0
sg107
I1
sg108
I0
sg105
I0
sg101
I0
sg133
I0
sg134
I0
sg135
I0
sg136
I0
sg102
I0
ssg60
(dp219
g174
I0
sg58
I0
sg175
I0
sg164
I0
sg60
I0
sg62
I0
sg177
I0
sg61
I1
sg176
I0
sg165
I0
sg59
I0
sg63
I0
ssg48
(dp220
g51
I0
sg52
I0
sg43
I0
sg48
I0
sg53
I0
sg122
I0
sg47
I0
sg46
I0
sg50
I0
sg57
I0
sg42
I0
sg41
I0
sg55
I0
sg124
I0
sg49
I1
sg56
I0
sg44
I0
sg123
I0
sg45
I0
sg125
I0
sg54
I0
ssg78
(dp221
g195
I0
sg76
I0
sg196
I0
sg75
I0
sg80
I0
sg77
I0
sg169
I0
sg200
I0
sg78
I1
sg74
I0
sg197
I0
sg198
I0
sg170
I0
sg199
I0
sg171
I0
sg79
I0
ssg49
(dp222
g51
I0
sg52
I0
sg43
I0
sg45
I0
sg53
I0
sg122
I0
sg47
I0
sg46
I0
sg50
I0
sg57
I0
sg42
I0
sg41
I0
sg55
I0
sg48
I0
sg49
I0
sg56
I0
sg44
I0
sg123
I0
sg124
I0
sg125
I0
sg54
I0
ssg24
(dp223
g90
I0
sg18
I0
sg100
I0
sg13
I0
sg26
I0
sg92
I0
sg14
I0
sg23
I0
sg24
I0
sg20
I0
sg21
I0
sg96
I0
sg25
I2
sg99
I0
sg98
I0
sg16
I0
sg10
I0
sg15
I0
sg19
I0
sg95
I0
sg12
I0
sg11
I0
sg94
I0
sg97
I0
sg93
I0
sg9
I0
sg17
I0
sg87
I0
sg91
I0
sg22
I0
sg8
I0
sg118
I0
sg89
I0
sg88
I0
ssg83
(dp224
g85
I0
sg84
I0
sg86
I0
sg81
I0
sg83
I1
sg116
I0
sg117
I0
sg138
I0
sg139
I0
sg119
I0
sg140
I0
sg82
I0
ssg39
(dp225
g162
I0
sg32
I0
sg161
I0
sg37
I0
sg39
I1
sg35
I0
sg28
I0
sg40
I0
sg31
I0
sg30
I0
sg36
I0
sg29
I0
sg34
I0
sg38
I0
sg163
I0
sg27
I0
sg33
I0
sg166
I0
ssg25
(dp226
g58
I0
sg70
I0
sg69
I0
sg67
I0
sg90
I0
sg18
I0
sg60
I0
sg78
I0
sg97
I0
sg94
I0
sg40
I0
sg13
I0
sg26
I0
sg99
I0
sg68
I0
sg81
I0
sg92
I0
sg14
I0
sg33
I0
sg66
I0
sg174
I0
sg175
I0
sg75
I0
sg32
I0
sg23
I0
sg24
I0
sg83
I0
sg20
I0
sg21
I0
sg96
I0
sg39
I0
sg98
I0
sg61
I0
sg25
I12
sg30
I0
sg73
I0
sg72
I0
sg29
I0
sg71
I0
sg62
I0
sg38
I0
sg16
I0
sg116
I0
sg65
I0
sg85
I0
sg10
I0
sg86
I0
sg15
I0
sg37
I0
sg19
I0
sg28
I0
sg198
I0
sg12
I0
sg11
I0
sg80
I0
sg95
I0
sg93
I0
sg9
I0
sg17
I0
sg74
I0
sg87
I0
sg91
I0
sg22
I0
sg76
I0
sg84
I0
sg64
I0
sg8
I0
sg100
I0
sg88
I0
sg77
I0
sg31
I0
sg117
I0
sg36
I0
sg197
I0
sg82
I0
sg34
I0
sg89
I0
sg59
I0
sg27
I0
sg63
I0
sg35
I0
sg79
I0
ssg73
(dp227
g70
I0
sg69
I0
sg67
I0
sg64
I0
sg68
I0
sg180
I0
sg181
I0
sg73
I1
sg72
I0
sg71
I0
sg182
I0
sg183
I0
sg66
I0
sg65
I0
ssg98
(dp228
g90
I0
sg100
I0
sg147
I0
sg92
I0
sg148
I0
sg149
I0
sg150
I0
sg99
I1
sg98
I0
sg151
I0
sg152
I0
sg96
I0
sg95
I0
sg94
I0
sg97
I0
sg89
I0
sg87
I0
sg91
I0
sg153
I0
sg118
I0
sg93
I0
sg88
I0
ssg56
(dp229
g109
I0
sg106
I0
sg53
I0
sg124
I0
sg41
I0
sg49
I0
sg123
I0
sg51
I0
sg52
I0
sg43
I0
sg127
I0
sg136
I0
sg108
I0
sg101
I0
sg48
I0
sg56
I0
sg102
I0
sg111
I1
sg128
I0
sg103
I0
sg104
I0
sg125
I0
sg122
I0
sg107
I0
sg42
I0
sg129
I0
sg44
I0
sg54
I0
sg45
I0
sg47
I0
sg46
I0
sg50
I0
sg55
I0
sg57
I1
sg130
I0
sg110
I0
sg105
I0
ssg18
(dp230
g10
I0
sg78
I0
sg74
I0
sg13
I0
sg26
I0
sg14
I0
sg199
I0
sg195
I0
sg196
I0
sg75
I0
sg23
I0
sg24
I0
sg20
I0
sg21
I0
sg25
I0
sg16
I0
sg18
I1
sg15
I0
sg19
I1
sg200
I0
sg12
I0
sg11
I0
sg80
I0
sg9
I0
sg17
I0
sg22
I0
sg76
I0
sg8
I0
sg77
I0
sg197
I0
sg198
I0
sg169
I0
sg79
I0
ssg19
(dp231
g10
I0
sg15
I0
sg23
I0
sg8
I0
sg20
I0
sg21
I0
sg19
I0
sg12
I0
sg13
I0
sg11
I0
sg25
I0
sg24
I0
sg9
I0
sg17
I0
sg26
I0
sg16
I0
sg14
I0
sg18
I0
sg22
I0
ssg108
(dp232
g109
I1
sg127
I0
sg111
I0
sg128
I0
sg129
I0
sg106
I0
sg108
I0
sg130
I0
sg104
I0
sg110
I0
sg131
I0
sg132
I0
sg107
I0
sg103
I0
sg105
I0
sg101
I0
sg133
I0
sg134
I0
sg135
I0
sg136
I0
sg102
I0
ssg111
(dp233
g109
I0
sg127
I0
sg128
I0
sg129
I0
sg106
I0
sg103
I0
sg130
I0
sg104
I0
sg111
I0
sg131
I0
sg132
I0
sg107
I0
sg108
I0
sg105
I0
sg101
I0
sg133
I0
sg134
I0
sg135
I0
sg110
I0
sg102
I0
sg136
I0
ssg76
(dp234
g195
I0
sg76
I1
sg196
I0
sg75
I0
sg80
I0
sg77
I0
sg169
I0
sg200
I0
sg78
I0
sg74
I0
sg197
I0
sg198
I0
sg170
I0
sg199
I0
sg171
I0
sg79
I0
ssg53
(dp235
g51
I0
sg52
I0
sg43
I0
sg53
I0
sg54
I0
sg122
I0
sg47
I0
sg46
I0
sg50
I0
sg57
I0
sg42
I0
sg41
I0
sg124
I0
sg55
I0
sg48
I0
sg49
I0
sg56
I0
sg44
I0
sg123
I0
sg45
I0
sg125
I0
ssg50
(dp236
g51
I0
sg52
I0
sg43
I0
sg45
I0
sg53
I0
sg122
I0
sg47
I0
sg46
I0
sg50
I1
sg57
I0
sg42
I0
sg41
I0
sg55
I0
sg48
I0
sg49
I0
sg56
I0
sg44
I0
sg123
I0
sg124
I0
sg125
I0
sg54
I0
ssg27
(dp237
g40
I0
sg161
I0
sg32
I0
sg37
I0
sg36
I0
sg35
I0
sg28
I1
sg31
I0
sg39
I0
sg162
I0
sg30
I0
sg29
I0
sg34
I0
sg38
I0
sg163
I0
sg27
I0
sg33
I0
sg166
I0
ssg109
(dp238
g109
I0
sg127
I0
sg111
I0
sg128
I0
sg129
I0
sg106
I0
sg103
I0
sg130
I0
sg104
I0
sg110
I0
sg131
I0
sg132
I0
sg107
I0
sg108
I0
sg105
I0
sg101
I0
sg133
I0
sg134
I0
sg135
I0
sg136
I0
sg102
I0
ssg58
(dp239
g174
I0
sg58
I1
sg175
I0
sg164
I0
sg60
I0
sg62
I0
sg177
I0
sg61
I0
sg176
I0
sg165
I0
sg59
I0
sg63
I0
ssg61
(dp240
g174
I0
sg61
I0
sg175
I0
sg164
I0
sg60
I0
sg62
I0
sg177
I0
sg165
I0
sg176
I0
sg58
I0
sg59
I0
sg63
I0
ssg102
(dp241
g109
I0
sg127
I0
sg111
I0
sg128
I0
sg129
I0
sg106
I0
sg103
I0
sg130
I0
sg104
I0
sg110
I0
sg131
I0
sg132
I0
sg107
I0
sg108
I0
sg105
I0
sg101
I0
sg133
I0
sg134
I0
sg135
I0
sg136
I0
sg102
I0
ssg74
(dp242
g195
I0
sg76
I0
sg196
I0
sg75
I0
sg80
I0
sg77
I0
sg169
I0
sg200
I0
sg78
I0
sg170
I0
sg197
I0
sg198
I0
sg74
I1
sg199
I0
sg171
I0
sg79
I0
ssg26
(dp243
g10
I0
sg15
I0
sg23
I0
sg8
I0
sg20
I0
sg21
I0
sg19
I0
sg12
I0
sg13
I0
sg11
I0
sg25
I0
sg17
I0
sg24
I0
sg9
I0
sg26
I1
sg16
I0
sg14
I0
sg18
I0
sg22
I0
ssg68
(dp244
g70
I0
sg69
I0
sg67
I0
sg64
I0
sg182
I0
sg180
I0
sg181
I0
sg73
I0
sg72
I0
sg71
I0
sg68
I0
sg183
I0
sg66
I0
sg65
I0
ssg66
(dp245
g70
I0
sg69
I0
sg67
I0
sg64
I0
sg68
I0
sg180
I0
sg181
I0
sg73
I0
sg72
I0
sg71
I0
sg182
I0
sg183
I0
sg66
I2
sg65
I0
ssg32
(dp246
g162
I0
sg32
I1
sg161
I0
sg37
I0
sg36
I0
sg35
I0
sg28
I0
sg40
I0
sg39
I0
sg31
I0
sg30
I0
sg29
I0
sg34
I0
sg38
I0
sg163
I0
sg27
I0
sg33
I0
sg166
I0
ssg77
(dp247
g195
I0
sg76
I0
sg196
I0
sg75
I0
sg80
I0
sg77
I1
sg169
I0
sg200
I0
sg78
I0
sg74
I0
sg197
I0
sg198
I0
sg170
I0
sg199
I0
sg171
I0
sg79
I0
ssg20
(dp248
g109
I0
sg18
I0
sg40
I0
sg13
I0
sg26
I0
sg14
I0
sg33
I0
sg32
I0
sg23
I0
sg24
I0
sg20
I0
sg21
I3
sg106
I0
sg39
I0
sg25
I0
sg30
I0
sg108
I0
sg29
I0
sg101
I0
sg110
I0
sg38
I0
sg16
I0
sg102
I0
sg10
I0
sg15
I0
sg37
I0
sg19
I0
sg103
I0
sg28
I0
sg104
I0
sg111
I0
sg12
I0
sg11
I0
sg9
I0
sg17
I0
sg134
I0
sg107
I0
sg22
I0
sg8
I0
sg31
I0
sg132
I0
sg36
I0
sg34
I0
sg27
I0
sg130
I0
sg35
I0
sg105
I0
sg131
I0
ssg21
(dp249
g109
I0
sg18
I0
sg40
I0
sg13
I0
sg26
I0
sg14
I0
sg33
I0
sg32
I0
sg23
I0
sg24
I0
sg20
I0
sg21
I0
sg106
I0
sg39
I0
sg25
I0
sg30
I0
sg108
I0
sg29
I0
sg101
I0
sg110
I0
sg38
I0
sg16
I0
sg102
I0
sg10
I0
sg15
I0
sg37
I0
sg19
I0
sg103
I0
sg28
I0
sg104
I0
sg111
I0
sg12
I0
sg11
I0
sg9
I0
sg17
I0
sg134
I0
sg107
I0
sg22
I0
sg8
I0
sg31
I0
sg132
I0
sg36
I0
sg34
I0
sg27
I0
sg130
I0
sg35
I0
sg105
I0
sg131
I0
ssg30
(dp250
g40
I0
sg161
I0
sg32
I0
sg37
I0
sg36
I0
sg35
I0
sg28
I0
sg31
I0
sg39
I0
sg162
I0
sg30
I0
sg29
I0
sg34
I0
sg38
I0
sg163
I0
sg27
I0
sg33
I0
sg166
I0
ssg72
(dp251
g70
I0
sg69
I0
sg67
I0
sg64
I0
sg68
I0
sg180
I0
sg181
I0
sg73
I0
sg72
I0
sg71
I0
sg182
I0
sg183
I0
sg66
I0
sg65
I0
ssg29
(dp252
g40
I0
sg161
I0
sg32
I0
sg37
I0
sg36
I0
sg35
I0
sg28
I0
sg31
I0
sg39
I0
sg162
I0
sg30
I1
sg29
I0
sg34
I0
sg38
I0
sg163
I0
sg27
I0
sg33
I0
sg166
I0
ssg71
(dp253
g70
I0
sg69
I0
sg67
I0
sg64
I0
sg68
I0
sg180
I0
sg181
I0
sg73
I0
sg72
I1
sg71
I0
sg182
I0
sg183
I0
sg66
I0
sg65
I0
ssg38
(dp254
g162
I0
sg32
I0
sg161
I0
sg37
I0
sg36
I0
sg35
I0
sg28
I0
sg40
I0
sg39
I0
sg31
I0
sg30
I0
sg29
I0
sg34
I0
sg38
I0
sg163
I1
sg27
I0
sg33
I0
sg166
I0
ssg16
(dp255
g109
I0
sg90
I0
sg18
I0
sg106
I0
sg100
I0
sg40
I0
sg13
I0
sg26
I0
sg92
I0
sg14
I0
sg33
I0
sg32
I0
sg23
I0
sg24
I0
sg20
I0
sg21
I0
sg96
I0
sg39
I0
sg25
I0
sg30
I0
sg99
I0
sg98
I0
sg29
I0
sg101
I0
sg110
I0
sg38
I0
sg16
I0
sg102
I0
sg108
I0
sg10
I0
sg15
I0
sg37
I0
sg19
I0
sg103
I0
sg28
I0
sg104
I0
sg111
I0
sg12
I0
sg11
I0
sg94
I0
sg95
I0
sg93
I0
sg9
I0
sg17
I0
sg134
I0
sg107
I0
sg87
I0
sg91
I0
sg22
I0
sg97
I0
sg8
I0
sg130
I0
sg31
I0
sg132
I0
sg36
I0
sg118
I0
sg34
I0
sg89
I0
sg27
I0
sg88
I0
sg35
I0
sg105
I0
sg131
I0
ssg65
(dp256
g70
I0
sg69
I0
sg67
I0
sg64
I0
sg68
I0
sg180
I0
sg181
I0
sg73
I0
sg72
I0
sg71
I0
sg182
I0
sg183
I0
sg66
I0
sg65
I1
ssg15
(dp257
g109
I0
sg90
I0
sg18
I0
sg106
I0
sg100
I0
sg13
I0
sg26
I0
sg92
I0
sg14
I0
sg135
I0
sg23
I0
sg24
I0
sg20
I0
sg21
I0
sg96
I0
sg25
I0
sg107
I0
sg99
I0
sg98
I0
sg101
I0
sg110
I0
sg16
I3
sg102
I0
sg108
I0
sg10
I0
sg15
I0
sg19
I0
sg103
I0
sg95
I0
sg104
I0
sg111
I0
sg12
I0
sg11
I0
sg94
I0
sg97
I0
sg93
I0
sg9
I0
sg17
I0
sg134
I0
sg87
I0
sg91
I0
sg22
I0
sg8
I0
sg130
I0
sg131
I0
sg132
I0
sg118
I0
sg133
I0
sg89
I0
sg88
I0
sg105
I0
ssg81
(dp258
g85
I0
sg84
I0
sg86
I0
sg81
I1
sg83
I0
sg116
I0
sg117
I0
sg138
I0
sg139
I0
sg119
I0
sg140
I0
sg82
I0
ssg95
(dp259
g90
I0
sg100
I0
sg147
I0
sg92
I0
sg148
I0
sg149
I0
sg150
I0
sg99
I0
sg98
I0
sg151
I0
sg152
I0
sg96
I0
sg95
I0
sg94
I0
sg97
I0
sg89
I0
sg87
I0
sg91
I0
sg153
I0
sg118
I0
sg93
I0
sg88
I0
ssg34
(dp260
g109
I0
sg70
I0
sg69
I0
sg67
I0
sg106
I0
sg48
I0
sg78
I0
sg47
I0
sg41
I0
sg68
I0
sg49
I0
sg31
I0
sg33
I0
sg66
I0
sg51
I0
sg52
I0
sg43
I0
sg32
I0
sg77
I0
sg161
I0
sg35
I0
sg39
I0
sg162
I0
sg30
I0
sg73
I0
sg72
I0
sg29
I0
sg71
I0
sg110
I0
sg38
I0
sg163
I0
sg65
I0
sg108
I0
sg171
I0
sg111
I0
sg128
I0
sg101
I0
sg37
I0
sg103
I0
sg104
I0
sg34
I0
sg28
I0
sg107
I0
sg80
I0
sg75
I0
sg42
I0
sg56
I0
sg44
I0
sg74
I0
sg76
I0
sg64
I0
sg53
I0
sg54
I0
sg45
I0
sg40
I0
sg46
I0
sg50
I0
sg55
I0
sg102
I0
sg36
I0
sg57
I0
sg27
I0
sg130
I0
sg166
I0
sg105
I0
sg79
I0
ssg28
(dp261
g48
I0
sg47
I0
sg41
I0
sg49
I0
sg162
I0
sg33
I0
sg51
I0
sg52
I0
sg43
I0
sg32
I0
sg161
I0
sg35
I0
sg39
I0
sg31
I0
sg30
I0
sg29
I0
sg38
I0
sg163
I0
sg37
I0
sg34
I0
sg28
I0
sg42
I0
sg56
I0
sg44
I0
sg53
I0
sg54
I0
sg45
I0
sg40
I0
sg46
I0
sg50
I0
sg55
I0
sg36
I0
sg57
I0
sg27
I0
sg166
I0
ssg80
(dp262
g195
I0
sg170
I0
sg196
I0
sg75
I0
sg76
I0
sg169
I0
sg77
I0
sg78
I0
sg74
I0
sg197
I0
sg198
I0
sg79
I0
sg80
I0
sg199
I0
sg171
I0
sg200
I0
ssg44
(dp263
g51
I0
sg52
I0
sg43
I0
sg122
I0
sg53
I0
sg45
I2
sg47
I0
sg46
I0
sg50
I0
sg57
I0
sg42
I0
sg41
I0
sg55
I0
sg48
I0
sg49
I0
sg56
I0
sg44
I0
sg123
I0
sg124
I0
sg125
I0
sg54
I0
ssg91
(dp264
g90
I0
sg100
I0
sg147
I0
sg92
I0
sg148
I0
sg149
I0
sg150
I0
sg99
I0
sg98
I0
sg151
I0
sg152
I0
sg96
I0
sg95
I0
sg94
I0
sg97
I0
sg89
I0
sg87
I0
sg91
I0
sg153
I0
sg118
I0
sg93
I0
sg88
I0
ssg54
(dp265
g51
I0
sg52
I0
sg43
I0
sg45
I0
sg54
I1
sg122
I0
sg47
I0
sg46
I0
sg50
I0
sg57
I0
sg42
I0
sg41
I0
sg53
I0
sg55
I0
sg48
I0
sg49
I0
sg56
I0
sg44
I0
sg123
I0
sg124
I0
sg125
I0
ssg36
(dp266
g162
I0
sg32
I0
sg161
I0
sg37
I0
sg36
I0
sg35
I0
sg28
I0
sg40
I0
sg39
I0
sg31
I0
sg30
I0
sg29
I0
sg34
I0
sg38
I0
sg163
I0
sg27
I0
sg33
I0
sg166
I0
ssg89
(dp267
g90
I0
sg100
I0
sg147
I0
sg92
I0
sg148
I0
sg149
I0
sg150
I0
sg99
I0
sg98
I0
sg151
I0
sg152
I0
sg96
I0
sg95
I0
sg94
I0
sg97
I0
sg89
I1
sg87
I0
sg91
I0
sg153
I0
sg118
I0
sg93
I0
sg88
I0
ssg35
(dp268
g78
I0
sg74
I0
sg31
I0
sg33
I0
sg195
I0
sg196
I0
sg75
I0
sg32
I0
sg77
I0
sg161
I0
sg35
I1
sg39
I0
sg162
I0
sg30
I0
sg29
I0
sg38
I0
sg163
I0
sg171
I0
sg37
I0
sg34
I0
sg28
I0
sg80
I0
sg76
I0
sg40
I0
sg197
I0
sg36
I1
sg198
I0
sg27
I0
sg166
I0
sg79
I0
ssg79
(dp269
g195
I0
sg76
I0
sg196
I0
sg75
I0
sg80
I1
sg77
I0
sg169
I0
sg200
I0
sg78
I0
sg74
I0
sg197
I0
sg198
I0
sg170
I0
sg199
I0
sg171
I0
sg79
I0
sssb.