ccopy_reg
_reconstructor
p0
(cutils.eval
ConfusionMatrix
p1
c__builtin__
object
p2
Ntp3
Rp4
(dp5
S'labels'
p6
(lp7
S'pour.v.01'
p8
aS'bread.n.01'
p9
aS'pan.n.01'
p10
aS'pan.n.03'
p11
aS'mix.n.03'
p12
aS'fill.v.01'
p13
aS'foam.n.01'
p14
aS'mug.n.04'
p15
aS'saltcellar.n.01'
p16
aS'salt.n.02'
p17
aS'add.v.01'
p18
aS'lend.v.01'
p19
aS'mixing_bowl.n.01'
p20
aS'butter.n.01'
p21
aS'sugar.n.01'
p22
aS'boodle.n.01'
p23
asS'instanceCount'
p24
I14
sS'matrix'
p25
(dp26
g10
(dp27
g11
I1
ssg15
(dp28
S'mug.n.04'
p29
I1
ssg11
(dp30
g11
I0
ssg14
(dp31
S'foam.n.01'
p32
I1
ssg23
(dp33
g23
I0
ssg16
(dp34
S'saltcellar.n.01'
p35
I1
ssg21
(dp36
S'butter.n.01'
p37
I1
ssg19
(dp38
g19
I0
ssg20
(dp39
S'mixing_bowl.n.01'
p40
I1
ssg13
(dp41
S'fill.v.01'
p42
I2
ssg8
(dp43
S'pour.v.01'
p44
I1
ssg12
(dp45
S'mix.n.03'
p46
I1
ssg9
(dp47
S'bread.n.01'
p48
I1
ssg18
(dp49
g19
I1
ssg17
(dp50
S'salt.n.02'
p51
I1
ssg22
(dp52
g23
I1
sssb.