ccopy_reg
_reconstructor
p0
(cutils.eval
ConfusionMatrix
p1
c__builtin__
object
p2
Ntp3
Rp4
(dp5
S'labels'
p6
(lp7
S'put.v.01'
p8
aS'put.v.02'
p9
aS'blend.v.01'
p10
aS'bowl.n.01'
p11
aS'bowl.n.08'
p12
aS'sauce.n.01'
p13
aS'fill.v.01'
p14
aS'bottle.n.01'
p15
aS'fruit_juice.n.01'
p16
aS'jar.n.01'
p17
aS'gravy.n.01'
p18
aS'gravy.n.02'
p19
asS'instanceCount'
p20
I11
sS'matrix'
p21
(dp22
g18
(dp23
g19
I1
ssg16
(dp24
S'fruit_juice.n.01'
p25
I1
ssg19
(dp26
g19
I0
ssg10
(dp27
S'blend.v.01'
p28
I1
ssg15
(dp29
S'bottle.n.01'
p30
I1
ssg9
(dp31
g9
I0
ssg8
(dp32
g9
I1
sS'put.v.01'
p33
I1
ssg14
(dp34
S'fill.v.01'
p35
I2
ssg11
(dp36
g12
I1
ssg17
(dp37
S'jar.n.01'
p38
I1
ssg12
(dp39
g12
I0
ssg13
(dp40
S'sauce.n.01'
p41
I1
sssb.