ccopy_reg
_reconstructor
p0
(cutils.eval
ConfusionMatrix
p1
c__builtin__
object
p2
Ntp3
Rp4
(dp5
S'labels'
p6
(lp7
S'stir.v.01'
p8
aS'champagne.n.01'
p9
aS'stir.v.08'
p10
aS'tomato.n.01'
p11
aS'juice.n.01'
p12
aS'fruit_juice.n.01'
p13
aS'sugar.n.01'
p14
aS'whiskey.n.01'
p15
aS'butter.n.01'
p16
aS'peanut.n.04'
p17
aS'peanut.n.01'
p18
aS'vegetable.n.01'
p19
aS'coca_cola.n.01'
p20
aS'coffee.n.01'
p21
aS'cappuccino.n.01'
p22
aS'banana.n.02'
p23
aS'water.n.06'
p24
aS'cream.n.02'
p25
aS'egg.n.02'
p26
aS'milk.n.01'
p27
asS'instanceCount'
p28
I32
sS'matrix'
p29
(dp30
g24
(dp31
S'water.n.06'
p32
I1
ssg13
(dp33
g13
I0
ssg23
(dp34
S'banana.n.02'
p35
I1
ssg27
(dp36
S'milk.n.01'
p37
I1
ssg25
(dp38
S'cream.n.02'
p39
I1
ssg11
(dp40
S'tomato.n.01'
p41
I1
ssg22
(dp42
S'cappuccino.n.01'
p43
I1
ssg21
(dp44
S'coffee.n.01'
p45
I1
ssg19
(dp46
S'vegetable.n.01'
p47
I1
ssg9
(dp48
S'champagne.n.01'
p49
I1
ssg10
(dp50
S'stir.v.01'
p51
I2
sS'stir.v.08'
p52
I6
ssg26
(dp53
S'egg.n.02'
p54
I1
ssg16
(dp55
S'butter.n.01'
p56
I1
ssg18
(dp57
g18
I0
ssg8
(dp58
S'stir.v.01'
p59
I8
ssg20
(dp60
S'coca_cola.n.01'
p61
I1
ssg17
(dp62
g18
I1
ssg12
(dp63
g13
I1
ssg15
(dp64
S'whiskey.n.01'
p65
I1
ssg14
(dp66
S'sugar.n.01'
p67
I1
sssb.