ccopy_reg
_reconstructor
p0
(cutils.eval
ConfusionMatrix
p1
c__builtin__
object
p2
Ntp3
Rp4
(dp5
S'labels'
p6
(lp7
S'stir.v.08'
p8
aS'apple.n.01'
p9
aS'stir.v.01'
p10
aS'wine.n.01'
p11
aS'champagne.n.01'
p12
aS'tomato.n.01'
p13
aS'juice.n.01'
p14
aS'fruit_juice.n.01'
p15
aS'sugar.n.01'
p16
aS'whiskey.n.01'
p17
aS'butter.n.01'
p18
aS'peanut.n.04'
p19
aS'peanut.n.03'
p20
aS'vegetable.n.01'
p21
aS'coca_cola.n.01'
p22
aS'coffee.n.01'
p23
aS'cappuccino.n.01'
p24
aS'banana.n.02'
p25
aS'water.n.06'
p26
aS'cream.n.02'
p27
asS'instanceCount'
p28
I32
sS'matrix'
p29
(dp30
g26
(dp31
S'water.n.06'
p32
I1
ssg15
(dp33
g15
I0
ssg22
(dp34
S'coca_cola.n.01'
p35
I1
ssg25
(dp36
S'banana.n.02'
p37
I1
ssg11
(dp38
S'wine.n.01'
p39
I1
ssg27
(dp40
S'cream.n.02'
p41
I1
ssg13
(dp42
S'tomato.n.01'
p43
I1
ssg24
(dp44
S'cappuccino.n.01'
p45
I1
ssg23
(dp46
S'coffee.n.01'
p47
I1
ssg21
(dp48
S'vegetable.n.01'
p49
I1
ssg12
(dp50
S'champagne.n.01'
p51
I1
ssg8
(dp52
S'stir.v.01'
p53
I2
sS'stir.v.08'
p54
I6
ssg18
(dp55
S'butter.n.01'
p56
I1
ssg9
(dp57
S'apple.n.01'
p58
I1
ssg10
(dp59
S'stir.v.01'
p60
I8
ssg20
(dp61
g20
I0
ssg19
(dp62
g20
I1
ssg14
(dp63
g15
I1
ssg17
(dp64
S'whiskey.n.01'
p65
I1
ssg16
(dp66
S'sugar.n.01'
p67
I1
sssb.