ccopy_reg
_reconstructor
p0
(cutils.eval
ConfusionMatrix
p1
c__builtin__
object
p2
Ntp3
Rp4
(dp5
S'labels'
p6
(lp7
S'stir.v.08'
p8
aS'peanut.n.04'
p9
aS'peanut.n.03'
p10
aS'vegetable.n.01'
p11
aS'stir.v.01'
p12
aS'coca_cola.n.01'
p13
aS'coffee.n.01'
p14
aS'cappuccino.n.01'
p15
aS'banana.n.02'
p16
aS'water.n.06'
p17
aS'cream.n.02'
p18
aS'egg.n.02'
p19
aS'milk.n.01'
p20
aS'tea.n.01'
p21
aS'salt.n.02'
p22
aS'apple.n.01'
p23
aS'wine.n.01'
p24
aS'champagne.n.01'
p25
aS'tomato.n.01'
p26
asS'instanceCount'
p27
I32
sS'matrix'
p28
(dp29
g22
(dp30
S'salt.n.02'
p31
I1
ssg11
(dp32
S'vegetable.n.01'
p33
I1
ssg10
(dp34
g10
I0
ssg16
(dp35
S'banana.n.02'
p36
I1
ssg24
(dp37
S'wine.n.01'
p38
I1
ssg18
(dp39
S'cream.n.02'
p40
I1
ssg26
(dp41
S'tomato.n.01'
p42
I1
ssg15
(dp43
S'cappuccino.n.01'
p44
I1
ssg14
(dp45
S'coffee.n.01'
p46
I1
ssg17
(dp47
S'water.n.06'
p48
I1
ssg21
(dp49
S'tea.n.01'
p50
I1
ssg8
(dp51
S'stir.v.08'
p52
I8
ssg25
(dp53
S'champagne.n.01'
p54
I1
ssg19
(dp55
S'egg.n.02'
p56
I1
ssg23
(dp57
S'apple.n.01'
p58
I1
ssg12
(dp59
S'stir.v.01'
p60
I8
ssg13
(dp61
S'coca_cola.n.01'
p62
I1
ssg9
(dp63
g10
I1
ssg20
(dp64
S'milk.n.01'
p65
I1
sssb.