ccopy_reg
_reconstructor
p0
(cutils.eval
ConfusionMatrix
p1
c__builtin__
object
p2
Ntp3
Rp4
(dp5
S'labels'
p6
(lp7
S'stir.v.08'
p8
aS'stir.v.01'
p9
aS'egg.n.02'
p10
aS'milk.n.01'
p11
aS'tea.n.01'
p12
aS'salt.n.02'
p13
aS'apple.n.01'
p14
aS'wine.n.01'
p15
aS'champagne.n.01'
p16
aS'tomato.n.01'
p17
aS'juice.n.01'
p18
aS'fruit_juice.n.01'
p19
aS'sugar.n.01'
p20
aS'whiskey.n.01'
p21
aS'butter.n.01'
p22
aS'peanut.n.04'
p23
aS'peanut.n.01'
p24
aS'vegetable.n.01'
p25
aS'coca_cola.n.01'
p26
aS'coffee.n.01'
p27
aS'peanut.n.03'
p28
aS'cappuccino.n.01'
p29
aS'banana.n.02'
p30
aS'water.n.06'
p31
aS'cream.n.02'
p32
asS'instanceCount'
p33
I320
sS'matrix'
p34
(dp35
g15
(dp36
g15
I8
sg22
I0
sg8
I0
sg14
I0
sg9
I0
sg26
I0
sg11
I0
sg10
I0
sg17
I0
sg21
I0
sg13
I0
sg30
I0
sg32
I0
sg27
I0
sg25
I0
sg12
I0
sg19
I0
sg29
I0
sg31
I0
sg16
I0
sg24
I0
sg28
I0
sg23
I0
sg18
I0
sg20
I0
ssg22
(dp37
g15
I0
sg8
I0
sg14
I0
sg9
I0
sg26
I0
sg11
I0
sg10
I0
sg22
I8
sg21
I0
sg13
I0
sg30
I0
sg32
I0
sg27
I0
sg25
I0
sg12
I0
sg19
I0
sg29
I0
sg31
I0
sg18
I0
sg16
I0
sg24
I0
sg28
I0
sg23
I0
sg17
I0
sg20
I0
ssg8
(dp38
g15
I0
sg22
I0
sg8
I61
sg14
I0
sg9
I19
sg26
I0
sg11
I0
sg10
I0
sg17
I0
sg21
I0
sg13
I0
sg30
I0
sg32
I0
sg27
I0
sg25
I0
sg12
I0
sg19
I0
sg29
I0
sg31
I0
sg16
I0
sg24
I0
sg28
I0
sg23
I0
sg18
I0
sg20
I0
ssg14
(dp39
g15
I0
sg22
I0
sg8
I0
sg14
I8
sg9
I0
sg26
I0
sg11
I0
sg10
I0
sg17
I0
sg21
I0
sg13
I0
sg30
I0
sg32
I0
sg27
I0
sg25
I0
sg12
I0
sg19
I0
sg29
I0
sg31
I0
sg16
I0
sg24
I0
sg28
I0
sg23
I0
sg18
I0
sg20
I0
ssg9
(dp40
g15
I0
sg22
I0
sg8
I1
sg14
I0
sg9
I79
sg26
I0
sg11
I0
sg10
I0
sg17
I0
sg21
I0
sg13
I0
sg30
I0
sg32
I0
sg27
I0
sg25
I0
sg12
I0
sg19
I0
sg29
I0
sg31
I0
sg16
I0
sg24
I0
sg28
I0
sg23
I0
sg18
I0
sg20
I0
ssg26
(dp41
g15
I0
sg22
I0
sg8
I0
sg14
I0
sg9
I0
sg26
I8
sg11
I0
sg10
I0
sg17
I0
sg21
I0
sg13
I0
sg30
I0
sg32
I0
sg27
I0
sg25
I0
sg12
I0
sg19
I0
sg29
I0
sg31
I0
sg16
I0
sg24
I0
sg28
I0
sg23
I0
sg18
I0
sg20
I0
ssg11
(dp42
g15
I0
sg22
I0
sg8
I0
sg14
I0
sg9
I0
sg26
I0
sg11
I8
sg10
I0
sg17
I0
sg21
I0
sg13
I0
sS'banana.n.02'
p43
I0
sS'cream.n.02'
p44
I0
sg27
I0
sg25
I0
sg12
I0
sg19
I0
sS'cappuccino.n.01'
p45
I0
sS'water.n.06'
p46
I0
sg16
I0
sg24
I0
sS'peanut.n.03'
p47
I0
sg23
I0
sg18
I0
sg20
I0
ssg10
(dp48
g15
I0
sg22
I0
sg8
I0
sg14
I0
sg9
I0
sg26
I0
sg11
I0
sg10
I8
sg17
I0
sg21
I0
sg13
I0
sg43
I0
sg44
I0
sg27
I0
sg25
I0
sg12
I0
sg19
I0
sg45
I0
sg46
I0
sg16
I0
sg24
I0
sg47
I0
sg23
I0
sg18
I0
sg20
I0
ssg17
(dp49
g15
I0
sg22
I0
sg8
I0
sg14
I0
sg9
I0
sg26
I0
sg11
I0
sg10
I0
sg17
I8
sg21
I0
sg13
I0
sg30
I0
sg32
I0
sg27
I0
sg25
I0
sg12
I0
sg19
I0
sg29
I0
sg31
I0
sg16
I0
sg24
I0
sg28
I0
sg23
I0
sg18
I0
sg20
I0
ssg21
(dp50
g15
I0
sg22
I0
sg8
I0
sg14
I0
sg9
I0
sg26
I0
sg11
I0
sg10
I0
sg17
I0
sg21
I8
sg13
I0
sg30
I0
sg32
I0
sg27
I0
sg25
I0
sg12
I0
sg19
I0
sg29
I0
sg31
I0
sg16
I0
sg24
I0
sg28
I0
sg23
I0
sg18
I0
sg20
I0
ssg13
(dp51
g15
I0
sg22
I0
sg8
I0
sg14
I0
sg9
I0
sg26
I0
sg11
I0
sg10
I0
sg17
I0
sg21
I0
sg13
I8
sg43
I0
sg44
I0
sg27
I0
sg25
I0
sg12
I0
sg19
I0
sg45
I0
sg46
I0
sg16
I0
sg24
I0
sg47
I0
sg23
I0
sg18
I0
sg20
I0
ssg30
(dp52
S'wine.n.01'
p53
I0
sS'stir.v.08'
p54
I0
sS'apple.n.01'
p55
I0
sS'stir.v.01'
p56
I0
sS'coca_cola.n.01'
p57
I0
sS'milk.n.01'
p58
I0
sS'egg.n.02'
p59
I0
sS'tomato.n.01'
p60
I0
sS'tea.n.01'
p61
I0
sS'salt.n.02'
p62
I0
sg30
I8
sS'coffee.n.01'
p63
I0
sg32
I0
sS'vegetable.n.01'
p64
I0
sS'whiskey.n.01'
p65
I0
sS'fruit_juice.n.01'
p66
I0
sg29
I0
sg31
I0
sS'juice.n.01'
p67
I0
sS'champagne.n.01'
p68
I0
sS'peanut.n.01'
p69
I0
sg28
I0
sS'peanut.n.04'
p70
I0
sS'butter.n.01'
p71
I0
sS'sugar.n.01'
p72
I0
ssg32
(dp73
g53
I0
sg54
I0
sg55
I0
sg56
I0
sg57
I0
sg58
I0
sg59
I0
sg60
I0
sg61
I0
sg62
I0
sg30
I0
sg32
I8
sg63
I0
sg64
I0
sg65
I0
sg66
I0
sg29
I0
sg31
I0
sg67
I0
sg68
I0
sg69
I0
sg28
I0
sg70
I0
sg71
I0
sg72
I0
ssg27
(dp74
g15
I0
sg22
I0
sg8
I0
sg14
I0
sg9
I0
sg26
I0
sg11
I0
sg10
I0
sg17
I0
sg21
I0
sg13
I0
sg30
I0
sg32
I0
sg27
I8
sg25
I0
sg12
I0
sg19
I0
sg29
I0
sg31
I0
sg16
I0
sg24
I0
sg28
I0
sg23
I0
sg18
I0
sg20
I0
ssg25
(dp75
g15
I0
sg22
I0
sg8
I0
sg14
I0
sg9
I0
sg26
I0
sg11
I0
sg10
I0
sg17
I0
sg21
I0
sg13
I0
sg30
I0
sg32
I0
sg27
I0
sg19
I0
sg12
I0
sg25
I8
sg29
I0
sg31
I0
sg16
I0
sg24
I0
sg28
I0
sg23
I0
sg18
I0
sg20
I0
ssg12
(dp76
g15
I0
sg22
I0
sg8
I0
sg14
I0
sg9
I0
sg26
I0
sg11
I0
sg10
I0
sg17
I0
sg21
I0
sg13
I0
sg43
I0
sg44
I0
sg27
I0
sg25
I0
sg12
I8
sg19
I0
sg45
I0
sg46
I0
sg16
I0
sg24
I0
sg47
I0
sg23
I0
sg18
I0
sg20
I0
ssg19
(dp77
g15
I0
sg22
I0
sg8
I0
sg14
I0
sg9
I0
sg26
I0
sg11
I0
sg10
I0
sg17
I0
sg21
I0
sg13
I0
sg30
I0
sg32
I0
sg27
I0
sg25
I0
sg12
I0
sg19
I0
sg29
I0
sg31
I0
sg16
I0
sg24
I0
sg28
I0
sg23
I0
sg18
I0
sg20
I0
ssg29
(dp78
g53
I0
sg54
I0
sg55
I0
sg56
I0
sg57
I0
sg58
I0
sg59
I0
sg60
I0
sg61
I0
sg62
I0
sg30
I0
sg63
I0
sg32
I0
sg64
I0
sg65
I0
sg66
I0
sg29
I8
sg31
I0
sg67
I0
sg68
I0
sg69
I0
sg28
I0
sg70
I0
sg71
I0
sg72
I0
ssg31
(dp79
g53
I0
sg54
I0
sg55
I0
sg56
I0
sg57
I0
sg58
I0
sg59
I0
sg60
I0
sg61
I0
sg62
I0
sg30
I0
sg63
I0
sg32
I0
sg64
I0
sg65
I0
sg66
I0
sg29
I0
sg31
I8
sg67
I0
sg68
I0
sg69
I0
sg28
I0
sg70
I0
sg71
I0
sg72
I0
ssg16
(dp80
g15
I0
sg8
I0
sg14
I0
sg9
I0
sg26
I0
sg11
I0
sg10
I0
sg17
I0
sg12
I0
sg13
I0
sg30
I0
sg32
I0
sg27
I0
sg25
I0
sg21
I0
sg19
I0
sg29
I0
sg31
I0
sg18
I0
sg16
I8
sg24
I0
sg28
I0
sg23
I0
sg22
I0
sg20
I0
ssg24
(dp81
g15
I0
sg22
I0
sg8
I0
sg14
I0
sg9
I0
sg26
I0
sg11
I0
sg10
I0
sg17
I0
sg21
I0
sg13
I0
sS'banana.n.02'
p82
I0
sS'cream.n.02'
p83
I0
sg27
I0
sg25
I0
sg12
I0
sg19
I0
sS'cappuccino.n.01'
p84
I0
sS'water.n.06'
p85
I0
sg16
I0
sg24
I0
sg23
I0
sg18
I0
sg20
I0
ssg28
(dp86
g53
I0
sg54
I0
sg55
I0
sg56
I0
sg57
I0
sg58
I0
sg59
I0
sg60
I0
sg61
I0
sg62
I0
sg30
I0
sg63
I0
sg32
I0
sg64
I0
sg65
I0
sg66
I0
sg29
I0
sg31
I0
sg67
I0
sg68
I0
sg28
I0
sg70
I0
sg71
I0
sg72
I0
ssg23
(dp87
g15
I0
sg22
I0
sg8
I0
sg14
I0
sg9
I0
sg26
I0
sg11
I0
sg10
I0
sg17
I0
sg21
I0
sg13
I0
sg30
I0
sg32
I0
sg27
I0
sg25
I0
sg12
I0
sg19
I0
sg29
I0
sg31
I0
sg16
I0
sg24
I4
sg28
I4
sg23
I0
sg18
I0
sg20
I0
ssg18
(dp88
g15
I0
sg8
I0
sg14
I0
sg9
I0
sg26
I0
sg11
I0
sg10
I0
sg17
I0
sg21
I0
sg13
I0
sg30
I0
sg32
I0
sg27
I0
sg25
I0
sg12
I0
sg19
I8
sg29
I0
sg31
I0
sg18
I0
sg16
I0
sg24
I0
sg28
I0
sg23
I0
sg22
I0
sg20
I0
ssg20
(dp89
g15
I0
sg22
I0
sg8
I0
sg14
I0
sg9
I0
sg26
I0
sg11
I0
sg10
I0
sg17
I0
sg21
I0
sg13
I0
sg30
I0
sg32
I0
sg27
I0
sg25
I0
sg12
I0
sg19
I0
sg29
I0
sg31
I0
sg16
I0
sg24
I0
sg28
I0
sg23
I0
sg18
I0
sg20
I8
sssb.