ccopy_reg
_reconstructor
p0
(cutils.eval
ConfusionMatrix
p1
c__builtin__
object
p2
Ntp3
Rp4
(dp5
S'labels'
p6
(lp7
S'stir.v.08'
p8
aS'stir.v.01'
p9
aS'egg.n.02'
p10
aS'milk.n.01'
p11
aS'tea.n.01'
p12
aS'salt.n.02'
p13
aS'apple.n.01'
p14
aS'wine.n.01'
p15
aS'champagne.n.01'
p16
aS'tomato.n.01'
p17
aS'juice.n.01'
p18
aS'fruit_juice.n.01'
p19
aS'sugar.n.01'
p20
aS'whiskey.n.01'
p21
aS'butter.n.01'
p22
aS'peanut.n.04'
p23
aS'peanut.n.01'
p24
aS'vegetable.n.01'
p25
aS'coca_cola.n.01'
p26
aS'coffee.n.01'
p27
asS'instanceCount'
p28
I32
sS'matrix'
p29
(dp30
g13
(dp31
S'salt.n.02'
p32
I1
ssg19
(dp33
g19
I0
ssg26
(dp34
S'coca_cola.n.01'
p35
I1
ssg15
(dp36
S'wine.n.01'
p37
I1
ssg10
(dp38
S'egg.n.02'
p39
I1
ssg17
(dp40
S'tomato.n.01'
p41
I1
ssg27
(dp42
S'coffee.n.01'
p43
I1
ssg25
(dp44
S'vegetable.n.01'
p45
I1
ssg18
(dp46
g19
I1
ssg12
(dp47
S'tea.n.01'
p48
I1
ssg8
(dp49
g9
I1
sS'stir.v.08'
p50
I7
ssg24
(dp51
g24
I0
ssg22
(dp52
S'butter.n.01'
p53
I1
ssg14
(dp54
S'apple.n.01'
p55
I1
ssg9
(dp56
g9
I8
ssg16
(dp57
S'champagne.n.01'
p58
I1
ssg23
(dp59
g24
I1
ssg11
(dp60
S'milk.n.01'
p61
I1
ssg21
(dp62
S'whiskey.n.01'
p63
I1
ssg20
(dp64
S'sugar.n.01'
p65
I1
sssb.