ccopy_reg
_reconstructor
p0
(cutils.eval
ConfusionMatrix
p1
c__builtin__
object
p2
Ntp3
Rp4
(dp5
S'labels'
p6
(lp7
S'stir.v.01'
p8
aS'cappuccino.n.01'
p9
aS'stir.v.08'
p10
aS'banana.n.02'
p11
aS'water.n.06'
p12
aS'cream.n.02'
p13
aS'egg.n.02'
p14
aS'milk.n.01'
p15
aS'tea.n.01'
p16
aS'salt.n.02'
p17
aS'apple.n.01'
p18
aS'wine.n.01'
p19
aS'champagne.n.01'
p20
aS'tomato.n.01'
p21
aS'juice.n.01'
p22
aS'fruit_juice.n.01'
p23
aS'sugar.n.01'
p24
aS'whiskey.n.01'
p25
aS'butter.n.01'
p26
asS'instanceCount'
p27
I32
sS'matrix'
p28
(dp29
g17
(dp30
S'salt.n.02'
p31
I1
ssg23
(dp32
g23
I0
ssg11
(dp33
S'banana.n.02'
p34
I1
ssg19
(dp35
S'wine.n.01'
p36
I1
ssg14
(dp37
S'egg.n.02'
p38
I1
ssg21
(dp39
S'tomato.n.01'
p40
I1
ssg9
(dp41
S'cappuccino.n.01'
p42
I1
ssg13
(dp43
S'cream.n.02'
p44
I1
ssg12
(dp45
S'water.n.06'
p46
I1
ssg22
(dp47
g23
I1
ssg16
(dp48
S'tea.n.01'
p49
I1
ssg10
(dp50
S'stir.v.01'
p51
I4
sS'stir.v.08'
p52
I4
ssg26
(dp53
S'butter.n.01'
p54
I1
ssg18
(dp55
S'apple.n.01'
p56
I1
ssg8
(dp57
S'stir.v.01'
p58
I8
ssg20
(dp59
S'champagne.n.01'
p60
I1
ssg15
(dp61
S'milk.n.01'
p62
I1
ssg25
(dp63
S'whiskey.n.01'
p64
I1
ssg24
(dp65
S'sugar.n.01'
p66
I1
sssb.