ccopy_reg
_reconstructor
p0
(cutils.eval
ConfusionMatrix
p1
c__builtin__
object
p2
Ntp3
Rp4
(dp5
S'labels'
p6
(lp7
S'stir.v.01'
p8
aS'juice.n.01'
p9
aS'fruit_juice.n.01'
p10
aS'stir.v.08'
p11
aS'sugar.n.01'
p12
aS'whiskey.n.01'
p13
aS'butter.n.01'
p14
aS'peanut.n.04'
p15
aS'peanut.n.01'
p16
aS'vegetable.n.01'
p17
aS'coca_cola.n.01'
p18
aS'coffee.n.01'
p19
aS'cappuccino.n.01'
p20
aS'banana.n.02'
p21
aS'water.n.06'
p22
aS'cream.n.02'
p23
aS'egg.n.02'
p24
aS'milk.n.01'
p25
aS'tea.n.01'
p26
aS'salt.n.02'
p27
asS'instanceCount'
p28
I32
sS'matrix'
p29
(dp30
g22
(dp31
S'water.n.06'
p32
I1
ssg27
(dp33
S'salt.n.02'
p34
I1
ssg10
(dp35
g10
I0
ssg21
(dp36
S'banana.n.02'
p37
I1
ssg25
(dp38
S'milk.n.01'
p39
I1
ssg23
(dp40
S'cream.n.02'
p41
I1
ssg14
(dp42
S'butter.n.01'
p43
I1
ssg20
(dp44
S'cappuccino.n.01'
p45
I1
ssg19
(dp46
S'coffee.n.01'
p47
I1
ssg17
(dp48
S'vegetable.n.01'
p49
I1
ssg13
(dp50
S'whiskey.n.01'
p51
I1
ssg11
(dp52
S'stir.v.01'
p53
I3
sS'stir.v.08'
p54
I5
ssg24
(dp55
S'egg.n.02'
p56
I1
ssg16
(dp57
g16
I0
ssg8
(dp58
S'stir.v.01'
p59
I8
ssg18
(dp60
S'coca_cola.n.01'
p61
I1
ssg15
(dp62
g16
I1
ssg9
(dp63
g10
I1
ssg26
(dp64
S'tea.n.01'
p65
I1
ssg12
(dp66
S'sugar.n.01'
p67
I1
sssb.