ccopy_reg
_reconstructor
p0
(cutils.eval
ConfusionMatrix
p1
c__builtin__
object
p2
Ntp3
Rp4
(dp5
S'labels'
p6
(lp7
S'slice.v.03'
p8
aS'lemon.n.01'
p9
aS'cheese.n.01'
p10
aS'mushroom.n.05'
p11
aS'olive.n.01'
p12
aS'olive.n.04'
p13
aS'potato.n.01'
p14
aS'piece.n.08'
p15
aS'bacon.n.01'
p16
aS'bread.n.01'
p17
aS'knife.n.01'
p18
aS'vegetable.n.01'
p19
aS'tomato.n.01'
p20
aS'egg.n.02'
p21
aS'cabbage.n.01'
p22
aS'pizza.n.01'
p23
aS'zucchini.n.01'
p24
aS'zucchini.n.02'
p25
aS'banana.n.02'
p26
asS'instanceCount'
p27
I35
sS'matrix'
p28
(dp29
g11
(dp30
S'mushroom.n.05'
p31
I1
ssg8
(dp32
S'slice.v.03'
p33
I14
ssg12
(dp34
g13
I1
ssg18
(dp35
S'knife.n.01'
p36
I4
ssg26
(dp37
S'banana.n.02'
p38
I1
ssg13
(dp39
g13
I0
ssg21
(dp40
S'egg.n.02'
p41
I1
ssg20
(dp42
S'tomato.n.01'
p43
I1
ssg24
(dp44
g25
I1
ssg19
(dp45
S'vegetable.n.01'
p46
I1
ssg16
(dp47
S'bacon.n.01'
p48
I1
ssg17
(dp49
S'bread.n.01'
p50
I1
ssg10
(dp51
S'cheese.n.01'
p52
I1
ssg25
(dp53
g25
I0
ssg9
(dp54
S'lemon.n.01'
p55
I1
ssg14
(dp56
S'potato.n.01'
p57
I1
ssg22
(dp58
S'cabbage.n.01'
p59
I1
ssg15
(dp60
S'piece.n.08'
p61
I3
ssg23
(dp62
S'pizza.n.01'
p63
I1
sssb.