ccopy_reg
_reconstructor
p0
(cutils.eval
ConfusionMatrix
p1
c__builtin__
object
p2
Ntp3
Rp4
(dp5
S'labels'
p6
(lp7
S'slice.v.03'
p8
aS'potato.n.01'
p9
aS'piece.n.08'
p10
aS'slice.n.06'
p11
aS'bacon.n.01'
p12
aS'bread.n.01'
p13
aS'knife.n.01'
p14
aS'vegetable.n.01'
p15
aS'tomato.n.01'
p16
aS'egg.n.02'
p17
aS'cabbage.n.01'
p18
aS'pizza.n.01'
p19
aS'zucchini.n.01'
p20
aS'zucchini.n.02'
p21
aS'banana.n.02'
p22
aS'meat.n.01'
p23
aS'cleaver.n.01'
p24
aS'flesh.n.01'
p25
aS'pulp.n.02'
p26
aS'orange.n.01'
p27
aS'slice.n.04'
p28
aS'onion.n.03'
p29
aS'onion.n.02'
p30
aS'mustard.n.02'
p31
aS'knife.n.02'
p32
aS'helicopter.n.01'
p33
aS'mustard.n.01'
p34
aS'green_onion.n.01'
p35
aS'lemon.n.01'
p36
aS'human_body.n.01'
p37
aS'tomato.n.02'
p38
aS'cheese.n.01'
p39
aS'mushroom.n.05'
p40
aS'olive.n.01'
p41
aS'olive.n.04'
p42
aS'bacon.n.02'
p43
asS'instanceCount'
p44
I364
sS'matrix'
p45
(dp46
g40
(dp47
g40
I7
sg39
I0
sS'bread.n.01'
p48
I0
sS'orange.n.01'
p49
I0
sS'zucchini.n.02'
p50
I0
sS'zucchini.n.01'
p51
I0
sS'cabbage.n.01'
p52
I0
sS'green_onion.n.01'
p53
I0
sS'mustard.n.02'
p54
I0
sg38
I0
sS'tomato.n.01'
p55
I0
sg43
I0
sS'bacon.n.01'
p56
I0
sS'meat.n.01'
p57
I0
sS'potato.n.01'
p58
I0
sS'cleaver.n.01'
p59
I0
sS'slice.v.03'
p60
I0
sg41
I0
sS'knife.n.01'
p61
I0
sS'banana.n.02'
p62
I0
sg42
I0
sg37
I0
sS'piece.n.08'
p63
I0
sS'vegetable.n.01'
p64
I0
sS'flesh.n.01'
p65
I0
sS'slice.n.06'
p66
I0
sS'slice.n.04'
p67
I0
sS'pizza.n.01'
p68
I0
sS'pulp.n.02'
p69
I0
sS'lemon.n.01'
p70
I0
sS'egg.n.02'
p71
I0
sS'onion.n.03'
p72
I0
sS'onion.n.02'
p73
I0
ssg39
(dp74
g40
I0
sg39
I7
sS'bread.n.01'
p75
I0
sg49
I0
sg50
I0
sg51
I0
sS'cabbage.n.01'
p76
I0
sg53
I0
sS'mustard.n.01'
p77
I0
sg54
I0
sg38
I0
sg55
I0
sg43
I0
sg56
I0
sg57
I0
sg58
I0
sg59
I0
sg60
I0
sg41
I0
sg61
I0
sg62
I0
sg42
I0
sg37
I0
sg63
I0
sS'vegetable.n.01'
p78
I0
sg65
I0
sg66
I0
sg67
I0
sS'pizza.n.01'
p79
I0
sg70
I0
sS'egg.n.02'
p80
I0
sg72
I0
sg73
I0
ssg13
(dp81
S'mushroom.n.05'
p82
I0
sS'cheese.n.01'
p83
I0
sg13
I7
sg27
I0
sg21
I0
sg20
I0
sg18
I0
sg35
I0
sg34
I0
sg31
I0
sg17
I0
sg16
I0
sS'olive.n.04'
p84
I0
sg43
I0
sg12
I0
sg23
I0
sg9
I0
sg24
I0
sg8
I0
sS'olive.n.01'
p85
I0
sg14
I0
sg22
I0
sg32
I0
sS'human_body.n.01'
p86
I0
sg10
I0
sg15
I0
sg25
I0
sg33
I0
sg11
I0
sg28
I0
sg19
I0
sg26
I0
sg36
I0
sS'tomato.n.02'
p87
I0
sg29
I0
sg30
I0
ssg27
(dp88
g40
I0
sg39
I0
sg13
I0
sg27
I7
sg21
I0
sg20
I0
sg18
I0
sg35
I0
sg34
I0
sg31
I0
sg17
I0
sg16
I0
sg42
I0
sg12
I0
sg23
I0
sg9
I0
sg24
I0
sg8
I0
sg41
I0
sg14
I0
sg22
I0
sg32
I0
sg37
I0
sg10
I0
sg15
I0
sg25
I0
sg33
I0
sg11
I0
sg28
I0
sg19
I0
sg26
I0
sg36
I0
sg38
I0
sg29
I0
sg30
I0
ssg21
(dp89
g40
I0
sg39
I0
sg13
I0
sg27
I0
sg21
I0
sg20
I0
sg18
I0
sg35
I0
sg34
I0
sg31
I0
sg17
I0
sg16
I0
sg42
I0
sg12
I0
sg23
I0
sg9
I0
sg24
I0
sg8
I0
sg41
I0
sg14
I0
sg22
I0
sg32
I0
sg37
I0
sg10
I0
sg15
I0
sg25
I0
sg33
I0
sg11
I0
sg28
I0
sg19
I0
sg26
I0
sg36
I0
sg38
I0
sg29
I0
sg30
I0
ssg20
(dp90
g40
I0
sg39
I0
sg13
I0
sg27
I0
sg21
I7
sg20
I0
sg18
I0
sg35
I0
sg34
I0
sg31
I0
sg17
I0
sg16
I0
sg42
I0
sg12
I0
sg23
I0
sg9
I0
sg24
I0
sg8
I0
sg41
I0
sg14
I0
sg22
I0
sg32
I0
sg37
I0
sg10
I0
sg15
I0
sg25
I0
sg33
I0
sg11
I0
sg28
I0
sg19
I0
sg26
I0
sg36
I0
sg38
I0
sg29
I0
sg30
I0
ssg18
(dp91
g82
I0
sS'cheese.n.01'
p92
I0
sg13
I0
sg27
I0
sg21
I0
sg20
I0
sg14
I0
sg35
I0
sg34
I0
sg31
I0
sg17
I0
sg16
I0
sg84
I0
sg43
I0
sg12
I0
sg23
I0
sg9
I0
sg24
I0
sg8
I0
sg85
I0
sg18
I7
sg22
I0
sg32
I0
sS'human_body.n.01'
p93
I0
sg10
I0
sg15
I0
sg25
I0
sg33
I0
sg11
I0
sg28
I0
sg19
I0
sg26
I0
sg36
I0
sS'tomato.n.02'
p94
I0
sg29
I0
sg30
I0
ssg35
(dp95
g40
I0
sg39
I0
sS'bread.n.01'
p96
I0
sS'orange.n.01'
p97
I0
sS'zucchini.n.02'
p98
I0
sS'zucchini.n.01'
p99
I0
sS'cabbage.n.01'
p100
I0
sg35
I7
sg34
I0
sS'mustard.n.02'
p101
I0
sS'egg.n.02'
p102
I0
sS'tomato.n.01'
p103
I0
sg42
I0
sg43
I0
sg56
I0
sS'meat.n.01'
p104
I0
sg58
I0
sS'cleaver.n.01'
p105
I0
sS'slice.v.03'
p106
I0
sg41
I0
sS'knife.n.01'
p107
I0
sS'banana.n.02'
p108
I0
sg32
I0
sg37
I0
sS'piece.n.08'
p109
I0
sS'vegetable.n.01'
p110
I0
sS'flesh.n.01'
p111
I0
sg33
I0
sg66
I0
sg67
I0
sS'pizza.n.01'
p112
I0
sS'pulp.n.02'
p113
I0
sg36
I0
sg38
I0
sS'onion.n.03'
p114
I0
sS'onion.n.02'
p115
I0
ssg34
(dp116
S'cheese.n.01'
p117
I0
sg96
I0
sg97
I0
sg98
I0
sg99
I0
sg100
I0
sg35
I0
sg34
I0
sg101
I0
sg102
I0
sg103
I0
sg104
I0
sg105
I0
sg106
I0
sg107
I0
sg108
I0
sg32
I0
sS'human_body.n.01'
p118
I0
sg109
I0
sg110
I0
sg111
I0
sg33
I0
sS'slice.n.06'
p119
I0
sg112
I0
sg113
I0
sg36
I0
sg114
I0
sg115
I0
ssg31
(dp120
g40
I0
sg39
I0
sg13
I0
sg27
I0
sg21
I0
sg20
I0
sg18
I0
sg35
I0
sg34
I2
sg31
I5
sg17
I0
sg16
I0
sg42
I0
sg12
I0
sg23
I0
sg9
I0
sg24
I0
sg8
I0
sg41
I0
sg14
I0
sg22
I0
sg32
I0
sg37
I0
sg10
I0
sg15
I0
sg25
I0
sg33
I0
sg11
I0
sg28
I0
sg19
I0
sg29
I0
sg36
I0
sg38
I0
sg26
I0
sg30
I0
ssg17
(dp121
g82
I0
sS'cheese.n.01'
p122
I0
sg13
I0
sg27
I0
sg21
I0
sg20
I0
sg18
I0
sg35
I0
sg34
I0
sg31
I0
sg17
I7
sg16
I0
sg84
I0
sg43
I0
sg12
I0
sg23
I0
sg9
I0
sg24
I0
sg8
I0
sg85
I0
sg14
I0
sg22
I0
sg32
I0
sg118
I0
sg10
I0
sg15
I0
sg25
I0
sg33
I0
sg11
I0
sg28
I0
sg19
I0
sg26
I0
sg36
I0
sS'tomato.n.02'
p123
I0
sg29
I0
sg30
I0
ssg16
(dp124
g40
I0
sg39
I0
sg13
I0
sg27
I0
sg21
I0
sg20
I0
sg18
I0
sg35
I0
sg34
I0
sg31
I0
sg17
I0
sg16
I10
sg42
I0
sg43
I0
sg12
I0
sg23
I0
sg9
I0
sg24
I0
sg8
I0
sg41
I0
sg14
I0
sg22
I0
sg32
I0
sg37
I0
sg10
I0
sg15
I0
sg25
I0
sg33
I0
sg11
I0
sg28
I0
sg19
I0
sg26
I0
sg36
I0
sg38
I4
sg29
I0
sg30
I0
ssg42
(dp125
g40
I0
sg39
I0
sg48
I0
sg49
I0
sg50
I0
sg51
I0
sg52
I0
sg53
I0
sg54
I0
sg38
I0
sg55
I0
sg56
I0
sg57
I0
sg58
I0
sg59
I0
sg60
I0
sg41
I0
sg61
I0
sg62
I0
sg42
I0
sg37
I0
sg63
I0
sg64
I0
sg65
I0
sg66
I0
sg67
I0
sg68
I0
sg69
I0
sg70
I0
sg71
I0
sg72
I0
sg73
I0
ssg43
(dp126
S'mushroom.n.05'
p127
I0
sS'slice.v.03'
p128
I0
sS'olive.n.01'
p129
I0
sS'knife.n.01'
p130
I0
sS'cheese.n.01'
p131
I0
sS'egg.n.02'
p132
I0
sS'tomato.n.01'
p133
I0
sg43
I0
sS'bacon.n.01'
p134
I0
sS'bread.n.01'
p135
I0
sS'vegetable.n.01'
p136
I0
sS'lemon.n.01'
p137
I0
sS'potato.n.01'
p138
I0
sS'cabbage.n.01'
p139
I0
sS'green_onion.n.01'
p140
I0
sS'pizza.n.01'
p141
I0
sS'piece.n.08'
p142
I0
ssg12
(dp143
g40
I0
sg39
I0
sg13
I0
sg27
I0
sg21
I0
sg20
I0
sg18
I0
sg53
I0
sg31
I0
sg17
I0
sg16
I0
sg43
I1
sg12
I6
sg23
I0
sg9
I0
sg24
I0
sg8
I0
sg41
I0
sg14
I0
sg22
I0
sg42
I0
sg37
I0
sg10
I0
sg15
I0
sg25
I0
sg11
I0
sg28
I0
sg19
I0
sg26
I0
sg70
I0
sg38
I0
sg29
I0
sg30
I0
ssg23
(dp144
g40
I0
sg39
I0
sg13
I0
sg27
I0
sg21
I0
sg20
I0
sg18
I0
sg35
I0
sg34
I0
sg31
I0
sg17
I0
sg16
I0
sg42
I0
sg12
I0
sg23
I7
sg9
I0
sg24
I0
sg8
I0
sg41
I0
sg14
I0
sg22
I0
sg32
I0
sg37
I0
sg10
I0
sg15
I0
sg25
I0
sg33
I0
sg11
I0
sg28
I0
sg19
I0
sg26
I0
sg36
I0
sg38
I0
sg29
I0
sg30
I0
ssg9
(dp145
g40
I0
sg39
I0
sg13
I0
sg27
I0
sg21
I0
sg20
I0
sg18
I0
sg53
I0
sg31
I0
sg17
I0
sg16
I0
sg43
I0
sg12
I0
sg23
I0
sg9
I7
sg24
I0
sg8
I0
sg41
I0
sg14
I0
sg22
I0
sg42
I0
sg37
I0
sg10
I0
sg15
I0
sg25
I0
sg11
I0
sg28
I0
sg19
I0
sg26
I0
sg70
I0
sg38
I0
sg29
I0
sg30
I0
ssg24
(dp146
g40
I0
sg39
I0
sg13
I0
sg27
I0
sg21
I0
sg20
I0
sg18
I0
sg35
I0
sg34
I0
sg31
I0
sg17
I0
sg16
I0
sg42
I0
sg12
I0
sg24
I6
sg9
I0
sg23
I0
sg8
I0
sg41
I0
sg14
I0
sg22
I0
sg32
I0
sg37
I0
sg10
I0
sg15
I0
sg25
I0
sg33
I1
sg11
I0
sg28
I0
sg19
I0
sg26
I0
sg36
I0
sg38
I0
sg29
I0
sg30
I0
ssg8
(dp147
g40
I0
sg39
I0
sg13
I0
sg27
I0
sg21
I0
sg20
I0
sg18
I0
sg35
I0
sg34
I0
sg31
I0
sg17
I0
sg16
I0
sg42
I0
sg43
I0
sg12
I0
sg23
I0
sg9
I0
sg24
I0
sg8
I133
sg41
I0
sg14
I0
sg22
I0
sg32
I0
sg37
I0
sg10
I0
sg15
I0
sg25
I0
sg33
I0
sg11
I0
sg28
I0
sg19
I0
sg26
I0
sg36
I0
sg38
I0
sg29
I0
sg30
I0
ssg41
(dp148
g40
I0
sg39
I0
sg48
I0
sg49
I0
sg50
I0
sg51
I0
sg52
I0
sg53
I0
sg54
I0
sg38
I0
sg55
I0
sg43
I0
sg56
I0
sg57
I0
sg58
I0
sg59
I0
sg60
I0
sg41
I1
sg61
I0
sg62
I0
sg42
I6
sg37
I0
sg63
I0
sg64
I0
sg65
I0
sg66
I0
sg67
I0
sg68
I0
sg69
I0
sg70
I0
sg71
I0
sg72
I0
sg73
I0
ssg14
(dp149
g40
I0
sg39
I0
sg13
I0
sg27
I0
sg21
I0
sg20
I0
sg18
I0
sg35
I0
sg34
I0
sg31
I0
sg17
I0
sg16
I0
sg42
I0
sg43
I0
sg12
I0
sg23
I0
sg9
I0
sg24
I0
sg8
I0
sg41
I0
sg14
I30
sg22
I0
sg32
I5
sg37
I0
sg10
I0
sg15
I0
sg25
I0
sg33
I0
sg11
I0
sg28
I0
sg19
I0
sg26
I0
sg36
I0
sg38
I0
sg29
I0
sg30
I0
ssg22
(dp150
g40
I0
sg39
I0
sg13
I0
sg27
I0
sg21
I0
sg20
I0
sg18
I0
sg35
I0
sg34
I0
sg31
I0
sg17
I0
sg16
I0
sg42
I0
sg12
I0
sg23
I0
sg9
I0
sg24
I0
sg8
I0
sg41
I0
sg14
I0
sg22
I7
sg32
I0
sg37
I0
sg10
I0
sg15
I0
sg25
I0
sg33
I0
sg11
I0
sg28
I0
sg19
I0
sg26
I0
sg36
I0
sg38
I0
sg29
I0
sg30
I0
ssg32
(dp151
g96
I0
sg97
I0
sg98
I0
sg99
I0
sg100
I0
sg35
I0
sg34
I0
sg101
I0
sg102
I0
sg103
I0
sg104
I0
sg105
I0
sg106
I0
sg107
I0
sg108
I0
sg32
I0
sg109
I0
sg110
I0
sg111
I0
sg33
I0
sg112
I0
sg113
I0
sg36
I0
sg114
I0
sg115
I0
ssg37
(dp152
g40
I0
sg39
I0
sg75
I0
sg49
I0
sg50
I0
sg51
I0
sg76
I0
sg53
I0
sg77
I0
sg54
I0
sg38
I0
sg55
I0
sg56
I0
sg57
I0
sg58
I0
sg59
I0
sg60
I0
sg41
I0
sg61
I0
sg62
I0
sg42
I0
sg37
I0
sg63
I0
sg78
I0
sg65
I0
sg119
I0
sg79
I0
sg70
I0
sS'egg.n.02'
p153
I0
sg72
I0
sg73
I0
ssg10
(dp154
g40
I0
sg39
I0
sg13
I0
sg27
I0
sg21
I0
sg20
I0
sg18
I0
sg35
I0
sg34
I0
sg31
I0
sg17
I0
sg16
I0
sg42
I0
sg43
I0
sg12
I0
sg23
I0
sg9
I0
sg24
I0
sg8
I0
sg41
I0
sg14
I0
sg22
I0
sg32
I0
sg37
I0
sg10
I23
sg15
I0
sg25
I0
sg33
I0
sg11
I10
sg28
I2
sg19
I0
sg26
I0
sg36
I0
sg38
I0
sg29
I0
sg30
I0
ssg15
(dp155
g82
I0
sg83
I0
sg13
I0
sg27
I0
sg21
I0
sg20
I0
sg18
I0
sg35
I0
sg34
I0
sg31
I0
sg17
I0
sg16
I0
sg84
I0
sg43
I0
sg12
I0
sg23
I0
sg9
I0
sg24
I0
sg8
I0
sg85
I0
sg14
I0
sg22
I0
sg32
I0
sg86
I0
sg10
I0
sg15
I7
sg25
I0
sg33
I0
sg11
I0
sg28
I0
sg19
I0
sg26
I0
sg36
I0
sg87
I0
sg29
I0
sg30
I0
ssg25
(dp156
g40
I0
sg39
I0
sg13
I0
sg27
I0
sg21
I0
sg20
I0
sg18
I0
sg35
I0
sg34
I0
sg31
I0
sg17
I0
sg16
I0
sg42
I0
sg12
I0
sg23
I0
sg9
I0
sg24
I0
sg8
I0
sg41
I0
sg14
I0
sg22
I0
sg32
I0
sg37
I4
sg10
I0
sg15
I0
sg25
I0
sg33
I0
sg11
I0
sg28
I0
sg19
I0
sg26
I3
sg36
I0
sg38
I0
sg29
I0
sg30
I0
ssg33
(dp157
g96
I0
sg97
I0
sg98
I0
sg99
I0
sg100
I0
sg35
I0
sg34
I0
sg101
I0
sg102
I0
sg103
I0
sg104
I0
sg105
I0
sg106
I0
sg107
I0
sg108
I0
sg32
I0
sg109
I0
sg110
I0
sg111
I0
sg33
I0
sg112
I0
sg113
I0
sg36
I0
sg114
I0
sg115
I0
ssg11
(dp158
S'mushroom.n.05'
p159
I0
sg122
I0
sg13
I0
sg27
I0
sg21
I0
sg20
I0
sg18
I0
sS'green_onion.n.01'
p160
I0
sg77
I0
sg31
I0
sg17
I0
sg16
I0
sg12
I0
sg23
I0
sg9
I0
sg24
I0
sg8
I0
sS'olive.n.01'
p161
I0
sg14
I0
sg22
I0
sS'olive.n.04'
p162
I0
sg118
I0
sg10
I0
sg15
I0
sg25
I0
sg11
I0
sg28
I0
sg19
I0
sg26
I0
sS'lemon.n.01'
p163
I0
sg123
I0
sg29
I0
sg30
I0
ssg28
(dp164
g159
I0
sg122
I0
sg13
I0
sg27
I0
sg21
I0
sg20
I0
sg18
I0
sg160
I0
sg31
I0
sg17
I0
sg16
I0
sg12
I0
sg24
I0
sg9
I0
sg23
I0
sg8
I0
sg161
I0
sg14
I0
sg22
I0
sg162
I0
sg10
I0
sg15
I0
sg25
I0
sg11
I0
sg28
I0
sg19
I0
sg26
I0
sg163
I0
sg123
I0
sg29
I0
sg30
I0
ssg19
(dp165
g82
I0
sg92
I0
sg13
I0
sg27
I0
sg21
I0
sg20
I0
sg18
I0
sg35
I0
sg34
I0
sg31
I0
sg17
I0
sg16
I0
sg84
I0
sg43
I0
sg12
I0
sg23
I0
sg9
I0
sg24
I0
sg8
I0
sg85
I0
sg14
I0
sg22
I0
sg32
I0
sg93
I0
sg10
I0
sg15
I0
sg25
I0
sg33
I0
sg11
I0
sg28
I0
sg19
I7
sg26
I0
sg36
I0
sg94
I0
sg29
I0
sg30
I0
ssg26
(dp166
g82
I0
sg13
I0
sg27
I0
sg21
I0
sg20
I0
sg18
I0
sg35
I0
sg34
I0
sg31
I0
sg17
I0
sg16
I0
sg84
I0
sg12
I0
sg23
I0
sg9
I0
sg24
I0
sg8
I0
sg85
I0
sg14
I0
sg22
I0
sg32
I0
sg10
I0
sg15
I0
sg25
I0
sg33
I0
sg11
I0
sg28
I0
sg19
I0
sg26
I0
sg36
I0
sg29
I0
sg30
I0
ssg36
(dp167
g40
I0
sg39
I0
sg96
I0
sg97
I0
sg98
I0
sg99
I0
sg100
I0
sg35
I0
sg34
I0
sg101
I0
sg102
I0
sg103
I0
sg42
I0
sg43
I0
sg56
I0
sg104
I0
sg58
I0
sg105
I0
sg106
I0
sg41
I0
sg107
I0
sg108
I0
sg32
I0
sg37
I0
sg109
I0
sg110
I0
sg111
I0
sg33
I0
sg66
I0
sg67
I0
sg112
I0
sg113
I0
sg36
I14
sg38
I0
sg114
I0
sg115
I0
ssg38
(dp168
g40
I0
sg39
I0
sg75
I0
sg49
I0
sg50
I0
sg51
I0
sg76
I0
sg53
I0
sg54
I0
sg38
I0
sg55
I0
sg56
I0
sg57
I0
sg58
I0
sg59
I0
sg60
I0
sg41
I0
sg61
I0
sg62
I0
sg42
I0
sg37
I0
sg63
I0
sg78
I0
sg65
I0
sg66
I0
sg67
I0
sg79
I0
sg70
I0
sg80
I0
sg72
I0
sg73
I0
ssg29
(dp169
g40
I0
sg39
I0
sg13
I0
sg27
I0
sg21
I0
sg20
I0
sg18
I0
sg35
I0
sg34
I0
sg31
I0
sg17
I0
sg16
I0
sg42
I0
sg12
I0
sg23
I0
sg9
I0
sg24
I0
sg8
I0
sg41
I0
sg14
I0
sg22
I0
sg32
I0
sg37
I0
sg10
I0
sg15
I0
sg25
I0
sg33
I0
sg11
I0
sg28
I0
sg19
I0
sg29
I0
sg36
I0
sg38
I0
sg26
I0
sg30
I7
ssg30
(dp170
g40
I0
sg39
I0
sg13
I0
sg27
I0
sg21
I0
sg20
I0
sg18
I0
sg35
I0
sg34
I0
sg31
I0
sg17
I0
sg16
I0
sg42
I0
sg12
I0
sg24
I0
sg9
I0
sg23
I0
sg8
I0
sg41
I0
sg14
I0
sg22
I0
sg32
I0
sg37
I0
sg10
I0
sg15
I0
sg25
I0
sg33
I0
sg11
I0
sg28
I0
sg19
I0
sg29
I0
sg36
I0
sg38
I0
sg26
I0
sg30
I0
sssb.