ccopy_reg
_reconstructor
p0
(cutils.eval
ConfusionMatrix
p1
c__builtin__
object
p2
Ntp3
Rp4
(dp5
S'labels'
p6
(lp7
S'bread.n.01'
p8
aS'knife.n.01'
p9
aS'knife.n.02'
p10
aS'slice.v.03'
p11
aS'vegetable.n.01'
p12
aS'tomato.n.01'
p13
aS'egg.n.02'
p14
aS'piece.n.08'
p15
aS'cabbage.n.01'
p16
aS'pizza.n.01'
p17
aS'zucchini.n.01'
p18
aS'zucchini.n.02'
p19
aS'banana.n.02'
p20
aS'meat.n.01'
p21
aS'cleaver.n.01'
p22
aS'helicopter.n.01'
p23
aS'flesh.n.01'
p24
aS'pulp.n.02'
p25
aS'orange.n.01'
p26
aS'onion.n.03'
p27
aS'onion.n.02'
p28
aS'mustard.n.02'
p29
aS'mustard.n.01'
p30
aS'green_onion.n.01'
p31
aS'lemon.n.01'
p32
asS'instanceCount'
p33
I39
sS'matrix'
p34
(dp35
g8
(dp36
S'bread.n.01'
p37
I1
ssg26
(dp38
S'orange.n.01'
p39
I1
ssg19
(dp40
g19
I0
ssg18
(dp41
g19
I1
ssg16
(dp42
S'cabbage.n.01'
p43
I1
ssg31
(dp44
S'green_onion.n.01'
p45
I1
ssg30
(dp46
g30
I0
ssg29
(dp47
g30
I1
ssg14
(dp48
S'egg.n.02'
p49
I1
ssg13
(dp50
S'tomato.n.01'
p51
I2
ssg21
(dp52
S'meat.n.01'
p53
I1
ssg22
(dp54
g23
I1
ssg11
(dp55
S'slice.v.03'
p56
I13
ssg9
(dp57
g10
I5
ssg20
(dp58
S'banana.n.02'
p59
I1
ssg10
(dp60
g10
I0
ssg15
(dp61
S'piece.n.08'
p62
I4
ssg12
(dp63
S'vegetable.n.01'
p64
I1
ssg24
(dp65
g25
I1
ssg23
(dp66
g23
I0
ssg17
(dp67
S'pizza.n.01'
p68
I1
ssg25
(dp69
g25
I0
ssg32
(dp70
S'lemon.n.01'
p71
I1
ssg27
(dp72
g28
I1
ssg28
(dp73
g28
I0
sssb.