ccopy_reg
_reconstructor
p0
(cutils.eval
ConfusionMatrix
p1
c__builtin__
object
p2
Ntp3
Rp4
(dp5
S'labels'
p6
(lp7
S'meat.n.01'
p8
aS'slice.v.03'
p9
aS'cleaver.n.01'
p10
aS'flesh.n.01'
p11
aS'human_body.n.01'
p12
aS'orange.n.01'
p13
aS'piece.n.08'
p14
aS'tomato.n.01'
p15
aS'tomato.n.02'
p16
aS'onion.n.03'
p17
aS'onion.n.02'
p18
aS'mustard.n.02'
p19
aS'knife.n.01'
p20
aS'green_onion.n.01'
p21
aS'lemon.n.01'
p22
aS'cheese.n.01'
p23
aS'mushroom.n.05'
p24
aS'olive.n.01'
p25
aS'olive.n.04'
p26
aS'potato.n.01'
p27
aS'bacon.n.01'
p28
aS'bread.n.01'
p29
aS'vegetable.n.01'
p30
asS'instanceCount'
p31
I36
sS'matrix'
p32
(dp33
g24
(dp34
S'mushroom.n.05'
p35
I1
ssg23
(dp36
S'cheese.n.01'
p37
I1
ssg29
(dp38
S'bread.n.01'
p39
I1
ssg13
(dp40
S'orange.n.01'
p41
I1
ssg21
(dp42
S'green_onion.n.01'
p43
I1
ssg19
(dp44
S'mustard.n.02'
p45
I1
ssg16
(dp46
g16
I0
ssg15
(dp47
g16
I1
ssg28
(dp48
S'bacon.n.01'
p49
I1
ssg8
(dp50
S'meat.n.01'
p51
I1
ssg27
(dp52
S'potato.n.01'
p53
I1
ssg10
(dp54
S'cleaver.n.01'
p55
I1
ssg9
(dp56
S'slice.v.03'
p57
I13
ssg25
(dp58
g26
I1
ssg20
(dp59
S'knife.n.01'
p60
I3
ssg26
(dp61
g26
I0
ssg12
(dp62
g12
I0
ssg14
(dp63
S'piece.n.08'
p64
I3
ssg30
(dp65
S'vegetable.n.01'
p66
I1
ssg11
(dp67
g12
I1
ssg22
(dp68
S'lemon.n.01'
p69
I2
ssg17
(dp70
g18
I1
ssg18
(dp71
g18
I0
sssb.