ccopy_reg
_reconstructor
p0
(cutils.eval
ConfusionMatrix
p1
c__builtin__
object
p2
Ntp3
Rp4
(dp5
S'labels'
p6
(lp7
S'zucchini.n.01'
p8
aS'zucchini.n.02'
p9
aS'slice.v.03'
p10
aS'knife.n.01'
p11
aS'banana.n.02'
p12
aS'meat.n.01'
p13
aS'cleaver.n.01'
p14
aS'flesh.n.01'
p15
aS'human_body.n.01'
p16
aS'orange.n.01'
p17
aS'piece.n.08'
p18
aS'tomato.n.01'
p19
aS'tomato.n.02'
p20
aS'onion.n.03'
p21
aS'onion.n.02'
p22
aS'mustard.n.02'
p23
aS'green_onion.n.01'
p24
aS'lemon.n.01'
p25
aS'cheese.n.01'
p26
aS'mushroom.n.05'
p27
aS'olive.n.01'
p28
aS'olive.n.04'
p29
aS'potato.n.01'
p30
aS'bacon.n.01'
p31
asS'instanceCount'
p32
I35
sS'matrix'
p33
(dp34
g27
(dp35
S'mushroom.n.05'
p36
I1
ssg26
(dp37
S'cheese.n.01'
p38
I1
ssg17
(dp39
S'orange.n.01'
p40
I1
ssg9
(dp41
g9
I0
ssg8
(dp42
g9
I1
ssg24
(dp43
S'green_onion.n.01'
p44
I1
ssg23
(dp45
S'mustard.n.02'
p46
I1
ssg20
(dp47
g20
I0
ssg19
(dp48
g20
I1
ssg31
(dp49
S'bacon.n.01'
p50
I1
ssg13
(dp51
S'meat.n.01'
p52
I1
ssg30
(dp53
S'potato.n.01'
p54
I1
ssg14
(dp55
S'cleaver.n.01'
p56
I1
ssg10
(dp57
S'slice.v.03'
p58
I13
ssg28
(dp59
g29
I1
ssg11
(dp60
S'knife.n.01'
p61
I2
ssg12
(dp62
S'banana.n.02'
p63
I1
ssg29
(dp64
g29
I0
ssg16
(dp65
g16
I0
ssg18
(dp66
S'piece.n.08'
p67
I3
ssg15
(dp68
g16
I1
ssg25
(dp69
S'lemon.n.01'
p70
I2
ssg21
(dp71
g22
I1
ssg22
(dp72
g22
I0
sssb.