ccopy_reg
_reconstructor
p0
(cutils.eval
ConfusionMatrix
p1
c__builtin__
object
p2
Ntp3
Rp4
(dp5
S'labels'
p6
(lp7
S'add.v.01'
p8
aS'egg.n.02'
p9
aS'pan.n.03'
p10
aS'butter.n.01'
p11
aS'rib.n.03'
p12
aS'mixing_bowl.n.01'
p13
aS'sugar.n.01'
p14
aS'vanilla.n.02'
p15
asS'instanceCount'
p16
I60
sS'matrix'
p17
(dp18
g10
(dp19
g10
I8
sS'rib.n.03'
p20
I0
sg9
I0
sg11
I0
sS'mixing_bowl.n.01'
p21
I0
sg15
I0
sg8
I0
sS'sugar.n.01'
p22
I0
ssg12
(dp23
S'pan.n.03'
p24
I0
sg12
I4
sS'butter.n.01'
p25
I0
sg13
I0
sS'vanilla.n.02'
p26
I0
sS'add.v.01'
p27
I0
sg14
I0
ssg9
(dp28
g9
I4
sg10
I0
sg8
I0
sg11
I0
sS'vanilla.n.02'
p29
I0
ssg11
(dp30
g10
I0
sg12
I0
sg9
I0
sg11
I12
sg13
I0
sg15
I0
sg8
I0
sg14
I0
ssg13
(dp31
S'pan.n.03'
p32
I0
sg12
I0
sg25
I0
sg13
I4
sg15
I0
sg27
I0
sg14
I0
ssg15
(dp33
g32
I0
sg20
I0
sS'egg.n.02'
p34
I0
sS'butter.n.01'
p35
I0
sg21
I0
sg15
I4
sS'add.v.01'
p36
I0
sg22
I0
ssg8
(dp37
g10
I0
sg12
I0
sg9
I0
sg11
I0
sg13
I0
sg15
I0
sg8
I20
sg14
I0
ssg14
(dp38
g32
I0
sg12
I0
sg25
I0
sg13
I0
sg15
I0
sg27
I0
sg14
I4
sssb.