ccopy_reg
_reconstructor
p0
(cutils.eval
ConfusionMatrix
p1
c__builtin__
object
p2
Ntp3
Rp4
(dp5
S'labels'
p6
(lp7
S'fill.v.01'
p8
aS'teapot.n.01'
p9
aS'water.n.06'
p10
aS'opening.n.01'
p11
aS'gap.n.03'
p12
aS'fill.v.09'
p13
aS'batter.n.02'
p14
aS'pot.n.01'
p15
aS'measuring_cup.n.01'
p16
aS'meal.n.03'
p17
aS'wok.n.01'
p18
aS'rice.n.01'
p19
aS'glass.n.02'
p20
aS'milk.n.01'
p21
aS'saltcellar.n.01'
p22
aS'salt.n.02'
p23
aS'thermos.n.01'
p24
aS'coffee.n.01'
p25
aS'pan.n.03'
p26
aS'bottle.n.01'
p27
aS'fruit_juice.n.01'
p28
asS'instanceCount'
p29
I30
sS'matrix'
p30
(dp31
g23
(dp32
S'salt.n.02'
p33
I1
ssg22
(dp34
S'saltcellar.n.01'
p35
I1
ssg9
(dp36
S'teapot.n.01'
p37
I1
ssg12
(dp38
g12
I0
ssg13
(dp39
S'fill.v.01'
p40
I1
ssg18
(dp41
S'wok.n.01'
p42
I1
ssg25
(dp43
S'coffee.n.01'
p44
I1
ssg28
(dp45
S'fruit_juice.n.01'
p46
I1
ssg19
(dp47
S'rice.n.01'
p48
I1
ssg15
(dp49
S'pot.n.01'
p50
I1
ssg10
(dp51
S'water.n.06'
p52
I3
ssg8
(dp53
S'fill.v.01'
p54
I9
ssg27
(dp55
S'bottle.n.01'
p56
I1
ssg24
(dp57
S'thermos.n.01'
p58
I1
ssg14
(dp59
S'batter.n.02'
p60
I1
ssg26
(dp61
S'pan.n.03'
p62
I1
ssg16
(dp63
S'measuring_cup.n.01'
p64
I1
ssg17
(dp65
S'meal.n.03'
p66
I1
ssg21
(dp67
S'milk.n.01'
p68
I1
ssg20
(dp69
S'glass.n.02'
p70
I1
ssg11
(dp71
g12
I1
sssb.