ccopy_reg
_reconstructor
p0
(cutils.eval
ConfusionMatrix
p1
c__builtin__
object
p2
Ntp3
Rp4
(dp5
S'labels'
p6
(lp7
S'fill.v.01'
p8
aS'pitcher.n.02'
p9
aS'milk.n.01'
p10
aS'jar.n.01'
p11
aS'foam.n.01'
p12
aS'mug.n.04'
p13
aS'blender.n.01'
p14
aS'apple.n.01'
p15
aS'opening.n.01'
p16
aS'opening.n.10'
p17
aS'fill.v.09'
p18
aS'curd.n.01'
p19
aS'ice.n.01'
p20
aS'ice.n.05'
p21
aS'bowl.n.01'
p22
aS'whiskey.n.01'
p23
aS'carafe.n.01'
p24
aS'cup.n.01'
p25
aS'cola.n.02'
p26
aS'teapot.n.01'
p27
aS'water.n.06'
p28
aS'gap.n.03'
p29
aS'batter.n.02'
p30
asS'instanceCount'
p31
I29
sS'matrix'
p32
(dp33
g22
(dp34
S'bowl.n.01'
p35
I1
ssg30
(dp36
S'batter.n.02'
p37
I1
ssg15
(dp38
S'apple.n.01'
p39
I1
ssg17
(dp40
g17
I0
ssg8
(dp41
S'fill.v.01'
p42
I8
ssg10
(dp43
S'milk.n.01'
p44
I1
ssg12
(dp45
S'foam.n.01'
p46
I1
ssg26
(dp47
S'cola.n.02'
p48
I1
ssg29
(dp49
g29
I0
ssg18
(dp50
S'fill.v.01'
p51
I2
ssg25
(dp52
S'cup.n.01'
p53
I1
ssg9
(dp54
S'pitcher.n.02'
p55
I1
ssg23
(dp56
S'whiskey.n.01'
p57
I1
ssg16
(dp58
g17
I1
sg29
I1
ssg13
(dp59
S'mug.n.04'
p60
I1
ssg27
(dp61
S'teapot.n.01'
p62
I1
ssg14
(dp63
S'blender.n.01'
p64
I1
ssg28
(dp65
S'water.n.06'
p66
I1
ssg20
(dp67
g21
I1
ssg21
(dp68
g21
I0
ssg19
(dp69
S'curd.n.01'
p70
I1
ssg11
(dp71
S'jar.n.01'
p72
I1
ssg24
(dp73
S'carafe.n.01'
p74
I1
sssb.