ccopy_reg
_reconstructor
p0
(cutils.eval
ConfusionMatrix
p1
c__builtin__
object
p2
Ntp3
Rp4
(dp5
S'labels'
p6
(lp7
S'wok.n.01'
p8
aS'fill.v.01'
p9
aS'rice.n.01'
p10
aS'glass.n.02'
p11
aS'milk.n.01'
p12
aS'saltcellar.n.01'
p13
aS'salt.n.02'
p14
aS'thermos.n.01'
p15
aS'coffee.n.01'
p16
aS'pan.n.03'
p17
aS'water.n.06'
p18
aS'bottle.n.01'
p19
aS'fruit_juice.n.01'
p20
aS'kettle.n.01'
p21
aS'jar.n.01'
p22
aS'gravy.n.01'
p23
aS'gravy.n.02'
p24
aS'pitcher.n.02'
p25
aS'foam.n.01'
p26
aS'mug.n.04'
p27
aS'blender.n.01'
p28
aS'apple.n.01'
p29
aS'opening.n.01'
p30
aS'opening.n.10'
p31
aS'fill.v.09'
p32
aS'curd.n.01'
p33
aS'ice.n.01'
p34
aS'ice.n.05'
p35
aS'bowl.n.01'
p36
aS'whiskey.n.01'
p37
aS'carafe.n.01'
p38
aS'cup.n.01'
p39
aS'cola.n.02'
p40
aS'teapot.n.01'
p41
aS'gap.n.03'
p42
aS'batter.n.02'
p43
aS'bowl.n.08'
p44
aS'pot.n.01'
p45
aS'measuring_cup.n.01'
p46
aS'meal.n.03'
p47
asS'instanceCount'
p48
I295
sS'matrix'
p49
(dp50
g10
(dp51
g10
I5
sS'fill.v.09'
p52
I0
sS'batter.n.02'
p53
I0
sS'opening.n.10'
p54
I0
sS'cup.n.01'
p55
I0
sg12
I0
sg17
I0
sS'cola.n.02'
p56
I0
sS'gap.n.03'
p57
I0
sg13
I0
sg19
I0
sg45
I0
sg9
I0
sg25
I0
sS'bowl.n.01'
p58
I0
sg46
I0
sg11
I0
sg23
I0
sg14
I0
sg24
I0
sg8
I0
sg16
I0
sS'whiskey.n.01'
p59
I0
sS'opening.n.01'
p60
I0
sg20
I0
sS'teapot.n.01'
p61
I0
sg15
I0
sg18
I0
sS'ice.n.01'
p62
I0
sg21
I0
sS'ice.n.05'
p63
I0
sS'curd.n.01'
p64
I0
sg22
I0
sS'carafe.n.01'
p65
I0
sg47
I0
ssg32
(dp66
S'saltcellar.n.01'
p67
I0
sS'thermos.n.01'
p68
I0
sg36
I0
sg43
I0
sg29
I0
sg31
I0
sS'fill.v.01'
p69
I10
sS'milk.n.01'
p70
I0
sS'pan.n.03'
p71
I0
sg26
I0
sg40
I0
sg42
I0
sg32
I0
sS'bottle.n.01'
p72
I0
sg45
I0
sg39
I0
sg44
I0
sS'pitcher.n.02'
p73
I0
sg46
I0
sS'glass.n.02'
p74
I0
sS'gravy.n.01'
p75
I0
sS'salt.n.02'
p76
I0
sS'gravy.n.02'
p77
I0
sS'wok.n.01'
p78
I0
sS'coffee.n.01'
p79
I0
sg37
I0
sg30
I0
sg27
I0
sS'fruit_juice.n.01'
p80
I0
sg41
I0
sg28
I0
sS'rice.n.01'
p81
I0
sS'water.n.06'
p82
I0
sg34
I0
sS'kettle.n.01'
p83
I0
sg35
I0
sg33
I0
sS'jar.n.01'
p84
I0
sg38
I0
sg47
I0
ssg43
(dp85
g67
I0
sg68
I0
sg36
I0
sg43
I5
sg29
I0
sg31
I0
sg69
I0
sg70
I0
sS'pan.n.03'
p86
I0
sg26
I0
sg40
I0
sg42
I0
sg32
I0
sS'bottle.n.01'
p87
I0
sg45
I0
sg39
I0
sg73
I0
sg46
I0
sg74
I0
sg76
I0
sg78
I0
sg79
I0
sg37
I0
sg30
I0
sg27
I0
sS'fruit_juice.n.01'
p88
I0
sg41
I0
sg28
I0
sg81
I0
sg82
I0
sg34
I0
sg35
I0
sg33
I0
sg84
I0
sg38
I0
sg47
I0
ssg31
(dp89
g36
I0
sg43
I0
sg31
I0
sg29
I0
sg69
I0
sg70
I0
sg71
I0
sg26
I0
sg40
I0
sg42
I0
sg32
I0
sg72
I0
sS'pot.n.01'
p90
I0
sg39
I0
sg44
I0
sg73
I0
sS'measuring_cup.n.01'
p91
I0
sS'glass.n.02'
p92
I0
sg75
I0
sg77
I0
sS'wok.n.01'
p93
I0
sg37
I0
sg30
I0
sg27
I0
sg80
I0
sg41
I0
sg28
I0
sS'rice.n.01'
p94
I0
sg82
I0
sg34
I0
sg83
I0
sg35
I0
sg33
I0
sg84
I0
sg38
I0
sS'meal.n.03'
p95
I0
ssg29
(dp96
S'thermos.n.01'
p97
I0
sg36
I0
sg43
I0
sg29
I5
sg31
I0
sg69
I0
sg70
I0
sg71
I0
sg26
I0
sg40
I0
sg42
I0
sg32
I0
sg72
I0
sS'pot.n.01'
p98
I0
sg39
I0
sg44
I0
sg73
I0
sS'measuring_cup.n.01'
p99
I0
sg75
I0
sS'salt.n.02'
p100
I0
sg77
I0
sS'coffee.n.01'
p101
I0
sg37
I0
sg30
I0
sg27
I0
sg80
I0
sg41
I0
sg28
I0
sS'saltcellar.n.01'
p102
I0
sg82
I0
sg34
I0
sg83
I0
sg35
I0
sg33
I0
sg84
I0
sg38
I0
sS'meal.n.03'
p103
I0
ssg26
(dp104
g97
I0
sg36
I0
sg43
I0
sg29
I0
sg31
I0
sg69
I0
sg70
I0
sg71
I0
sg26
I5
sg40
I0
sg42
I0
sg32
I0
sg72
I0
sg98
I0
sg39
I0
sg44
I0
sg73
I0
sg99
I0
sg75
I0
sg100
I0
sg77
I0
sg101
I0
sg37
I0
sg30
I0
sg27
I0
sg80
I0
sg41
I0
sg28
I0
sg102
I0
sg82
I0
sg34
I0
sg83
I0
sg35
I0
sg33
I0
sg84
I0
sg38
I0
sg103
I0
ssg12
(dp105
g10
I0
sg32
I0
sg43
I0
sg31
I0
sg29
I0
sg26
I0
sg12
I10
sg17
I0
sg44
I0
sg40
I0
sg42
I0
sg13
I0
sg19
I0
sg45
I0
sg9
I0
sg25
I0
sg36
I0
sg46
I0
sg11
I0
sg23
I0
sg14
I0
sg24
I0
sg8
I0
sg16
I0
sg37
I0
sg30
I0
sg27
I0
sg20
I0
sg41
I0
sg28
I0
sg15
I0
sg18
I0
sg34
I0
sg39
I0
sg21
I0
sg35
I0
sg33
I0
sg22
I0
sg38
I0
sg47
I0
ssg17
(dp106
g10
I0
sS'fill.v.09'
p107
I0
sg53
I0
sS'opening.n.10'
p108
I0
sS'apple.n.01'
p109
I0
sS'foam.n.01'
p110
I0
sg12
I0
sg17
I5
sg57
I0
sg13
I0
sg19
I0
sg45
I0
sg9
I0
sg25
I0
sS'bowl.n.01'
p111
I0
sg46
I0
sg11
I0
sg23
I0
sg14
I0
sg24
I0
sg8
I0
sg16
I0
sS'opening.n.01'
p112
I0
sS'mug.n.04'
p113
I0
sg20
I0
sg61
I0
sS'blender.n.01'
p114
I0
sg15
I0
sg18
I0
sS'ice.n.01'
p115
I0
sg21
I0
sS'ice.n.05'
p116
I0
sS'curd.n.01'
p117
I0
sg22
I0
sg47
I0
ssg44
(dp118
S'bowl.n.01'
p119
I0
sS'apple.n.01'
p120
I0
sS'opening.n.10'
p121
I0
sS'foam.n.01'
p122
I0
sS'milk.n.01'
p123
I0
sg44
I0
sS'cola.n.02'
p124
I0
sS'fill.v.09'
p125
I0
sS'fill.v.01'
p126
I0
sS'pitcher.n.02'
p127
I0
sS'gravy.n.01'
p128
I0
sS'gravy.n.02'
p129
I0
sS'whiskey.n.01'
p130
I0
sS'opening.n.01'
p131
I0
sS'mug.n.04'
p132
I0
sS'blender.n.01'
p133
I0
sS'water.n.06'
p134
I0
sS'ice.n.01'
p135
I0
sS'cup.n.01'
p136
I0
sS'kettle.n.01'
p137
I0
sS'ice.n.05'
p138
I0
sS'curd.n.01'
p139
I0
sS'jar.n.01'
p140
I0
sS'carafe.n.01'
p141
I0
ssg40
(dp142
S'saltcellar.n.01'
p143
I0
sS'thermos.n.01'
p144
I0
sg36
I0
sg43
I0
sg29
I0
sg31
I0
sg69
I0
sg70
I0
sg26
I0
sg40
I5
sg42
I0
sg32
I0
sg90
I0
sg39
I0
sg44
I0
sg73
I0
sg91
I0
sg92
I0
sg128
I0
sS'salt.n.02'
p145
I0
sg129
I0
sg93
I0
sS'coffee.n.01'
p146
I0
sg37
I0
sg30
I0
sg27
I0
sg41
I0
sg28
I0
sg94
I0
sg82
I0
sg34
I0
sg137
I0
sg35
I0
sg33
I0
sg84
I0
sg38
I0
sg95
I0
ssg42
(dp147
g67
I0
sg68
I0
sg36
I0
sg43
I0
sg29
I0
sg31
I0
sg69
I0
sg70
I0
sg86
I0
sg26
I0
sg40
I0
sg42
I0
sg32
I0
sg87
I0
sg45
I0
sg39
I0
sg73
I0
sg46
I0
sg74
I0
sg76
I0
sg78
I0
sg79
I0
sg37
I0
sg30
I0
sg27
I0
sg88
I0
sg41
I0
sg28
I0
sg81
I0
sg82
I0
sg34
I0
sg35
I0
sg33
I0
sg84
I0
sg38
I0
sg47
I0
ssg13
(dp148
g10
I0
sg52
I0
sg53
I0
sS'apple.n.01'
p149
I0
sS'foam.n.01'
p150
I0
sg12
I0
sg17
I0
sS'cola.n.02'
p151
I0
sg57
I0
sg13
I5
sg19
I0
sg45
I0
sg9
I0
sg25
I0
sg46
I0
sg11
I0
sg23
I0
sg14
I0
sg24
I0
sg8
I0
sg16
I0
sS'whiskey.n.01'
p152
I0
sg60
I0
sS'mug.n.04'
p153
I0
sg20
I0
sg61
I0
sS'blender.n.01'
p154
I0
sg15
I0
sg18
I0
sS'cup.n.01'
p155
I0
sg21
I0
sg22
I0
sS'carafe.n.01'
p156
I0
sg47
I0
ssg19
(dp157
g10
I0
sg107
I0
sg53
I0
sg108
I0
sg109
I0
sg110
I0
sg12
I0
sg17
I0
sg57
I0
sg13
I0
sg19
I5
sg45
I0
sg9
I0
sg25
I0
sg111
I0
sg46
I0
sg11
I0
sg23
I0
sg14
I0
sg24
I0
sg8
I0
sg16
I0
sg112
I0
sg113
I0
sg20
I0
sg61
I0
sg114
I0
sg15
I0
sg18
I0
sg115
I0
sg21
I0
sg116
I0
sg117
I0
sg22
I0
sg47
I0
ssg45
(dp158
g81
I0
sg68
I0
sg58
I0
sg53
I0
sS'apple.n.01'
p159
I0
sg54
I0
sg55
I0
sS'milk.n.01'
p160
I0
sg86
I0
sS'foam.n.01'
p161
I0
sg56
I0
sg57
I0
sg67
I0
sg87
I0
sg45
I5
sS'fill.v.01'
p162
I0
sg46
I0
sg74
I0
sS'gravy.n.01'
p163
I0
sg76
I0
sS'gravy.n.02'
p164
I0
sg78
I0
sg79
I0
sg59
I0
sg60
I0
sS'mug.n.04'
p165
I0
sg88
I0
sg61
I0
sS'blender.n.01'
p166
I0
sg52
I0
sS'water.n.06'
p167
I0
sg62
I0
sS'kettle.n.01'
p168
I0
sg63
I0
sg64
I0
sS'jar.n.01'
p169
I0
sg65
I0
sg47
I0
ssg9
(dp170
g10
I0
sg32
I0
sg43
I0
sg31
I0
sg29
I0
sg26
I0
sg12
I0
sg17
I0
sg44
I0
sg40
I0
sg42
I0
sg13
I0
sg19
I0
sg45
I0
sg9
I90
sg25
I0
sg36
I0
sg46
I0
sg11
I0
sg23
I0
sg14
I0
sg24
I0
sg8
I0
sg16
I0
sg37
I0
sg30
I0
sg27
I0
sg20
I0
sg41
I0
sg28
I0
sg15
I0
sg18
I0
sg34
I0
sg39
I0
sg21
I0
sg35
I0
sg33
I0
sg22
I0
sg38
I0
sg47
I0
ssg25
(dp171
g10
I0
sg32
I0
sg43
I0
sg31
I0
sg29
I0
sg26
I0
sg12
I0
sg17
I0
sg44
I0
sg40
I0
sg42
I0
sg13
I0
sg19
I0
sg9
I0
sg25
I5
sg36
I0
sg11
I0
sg23
I0
sg14
I0
sg24
I0
sg8
I0
sg16
I0
sg37
I0
sg30
I0
sg27
I0
sg20
I0
sg41
I0
sg28
I0
sg15
I0
sg18
I0
sg34
I0
sg39
I0
sg21
I0
sg35
I0
sg33
I0
sg22
I0
sg38
I0
ssg36
(dp172
g36
I4
sg43
I0
sg29
I0
sg31
I0
sg69
I0
sg70
I0
sg71
I0
sg26
I0
sg40
I0
sg42
I0
sg32
I0
sg72
I0
sg90
I0
sg39
I0
sg44
I1
sg73
I0
sg91
I0
sg92
I0
sg75
I0
sg77
I0
sg93
I0
sg37
I0
sg30
I0
sg27
I0
sg80
I0
sg41
I0
sg28
I0
sg94
I0
sg82
I0
sg34
I0
sg83
I0
sg35
I0
sg33
I0
sg84
I0
sg38
I0
sg95
I0
ssg46
(dp173
g81
I0
sg68
I0
sg58
I0
sg53
I0
sg159
I0
sg54
I0
sg55
I0
sg160
I0
sg86
I0
sg161
I0
sg56
I0
sg57
I0
sg67
I0
sg87
I0
sg45
I0
sg162
I0
sg46
I5
sg74
I0
sg163
I0
sg76
I0
sg164
I0
sg78
I0
sg79
I0
sg59
I0
sg60
I0
sg165
I0
sg88
I0
sg61
I0
sg166
I0
sg52
I0
sg167
I0
sg62
I0
sg168
I0
sg63
I0
sg64
I0
sg169
I0
sg65
I0
sg47
I0
ssg11
(dp174
g10
I0
sg52
I0
sg53
I0
sg54
I0
sg55
I0
sg12
I0
sg17
I0
sg56
I0
sg57
I0
sg13
I0
sg19
I0
sg45
I0
sg9
I0
sg25
I0
sg58
I0
sg46
I0
sg11
I5
sg23
I0
sg14
I0
sg24
I0
sg8
I0
sg16
I0
sg59
I0
sg60
I0
sg20
I0
sg61
I0
sg15
I0
sg18
I0
sg62
I0
sg21
I0
sg63
I0
sg64
I0
sg22
I0
sg65
I0
sg47
I0
ssg23
(dp175
g10
I0
sg107
I0
sg108
I0
sg109
I0
sg110
I0
sg12
I0
sg17
I0
sg44
I0
sg124
I0
sg13
I0
sg19
I0
sS'pot.n.01'
p176
I0
sg9
I0
sg25
I0
sg111
I0
sS'measuring_cup.n.01'
p177
I0
sg11
I0
sg23
I0
sg14
I0
sg24
I5
sg8
I0
sg16
I0
sg130
I0
sg112
I0
sg113
I0
sg20
I0
sg114
I0
sg15
I0
sg18
I0
sg115
I0
sg136
I0
sg21
I0
sg116
I0
sg117
I0
sg22
I0
sg141
I0
sS'meal.n.03'
p178
I0
ssg14
(dp179
g10
I0
sg52
I0
sg53
I0
sg149
I0
sg150
I0
sg12
I0
sg17
I0
sg151
I0
sg57
I0
sg13
I0
sg19
I0
sg45
I0
sg9
I0
sg25
I0
sg46
I0
sg11
I0
sg23
I0
sg14
I5
sg24
I0
sg8
I0
sg16
I0
sg152
I0
sg60
I0
sg153
I0
sg20
I0
sg61
I0
sg154
I0
sg15
I0
sg18
I0
sg155
I0
sg21
I0
sg22
I0
sg156
I0
sg47
I0
ssg24
(dp180
g15
I0
sg107
I0
sg108
I0
sg109
I0
sg110
I0
sg12
I0
sg17
I0
sg44
I0
sg124
I0
sg13
I0
sg19
I0
sg176
I0
sg9
I0
sg25
I0
sg111
I0
sg177
I0
sg11
I0
sg23
I0
sg14
I0
sg24
I0
sg8
I0
sg16
I0
sg130
I0
sg112
I0
sg113
I0
sg20
I0
sg114
I0
sg10
I0
sg18
I0
sg115
I0
sg136
I0
sg21
I0
sg116
I0
sg117
I0
sg22
I0
sg141
I0
sg178
I0
ssg8
(dp181
g10
I0
sg52
I0
sg53
I0
sg54
I0
sg55
I0
sg12
I0
sg17
I0
sg56
I0
sg57
I0
sg13
I0
sg19
I0
sg45
I0
sg9
I0
sg25
I0
sg58
I0
sg46
I0
sg11
I0
sg23
I0
sg14
I0
sg24
I0
sg8
I5
sg16
I0
sg59
I0
sg60
I0
sg20
I0
sg61
I0
sg15
I0
sg18
I0
sg62
I0
sg21
I0
sg63
I0
sg64
I0
sg22
I0
sg65
I0
sg47
I0
ssg16
(dp182
g10
I0
sg52
I0
sg53
I0
sg149
I0
sg150
I0
sg12
I0
sg17
I0
sg151
I0
sg57
I0
sg13
I0
sg19
I0
sg45
I0
sg9
I0
sg25
I0
sg46
I0
sg11
I0
sg23
I0
sg14
I0
sg24
I0
sg8
I0
sg16
I5
sg152
I0
sg60
I0
sg153
I0
sg20
I0
sg61
I0
sg154
I0
sg15
I0
sg18
I0
sg155
I0
sg21
I0
sg22
I0
sg156
I0
sg47
I0
ssg37
(dp183
g143
I0
sg144
I0
sg36
I0
sg43
I0
sg29
I0
sg31
I0
sg39
I0
sg70
I0
sg26
I0
sg40
I0
sg42
I0
sg32
I0
sg90
I0
sg69
I0
sg44
I0
sg73
I0
sg91
I0
sg92
I0
sg128
I0
sg145
I0
sg129
I0
sg93
I0
sg146
I0
sg37
I5
sg30
I0
sg27
I0
sg41
I0
sg28
I0
sg94
I0
sg82
I0
sg34
I0
sg137
I0
sg35
I0
sg33
I0
sg84
I0
sg38
I0
sg95
I0
ssg30
(dp184
g67
I0
sg68
I0
sg36
I0
sg43
I0
sg29
I0
sg31
I5
sg69
I0
sg70
I0
sg71
I0
sg26
I0
sg40
I0
sg42
I5
sg32
I0
sg72
I0
sg45
I0
sg39
I0
sg44
I0
sg73
I0
sg46
I0
sg74
I0
sg75
I0
sg76
I0
sg77
I0
sg78
I0
sg79
I0
sg37
I0
sg30
I0
sg27
I0
sg80
I0
sg41
I0
sg28
I0
sg81
I0
sg82
I0
sg34
I0
sg83
I0
sg35
I0
sg33
I0
sg84
I0
sg38
I0
sg47
I0
ssg27
(dp185
g97
I0
sg36
I0
sg43
I0
sg29
I0
sg31
I0
sg69
I0
sg70
I0
sg71
I0
sg26
I0
sg40
I0
sg42
I0
sg32
I0
sg72
I0
sg98
I0
sg39
I0
sg44
I0
sg73
I0
sg99
I0
sg75
I0
sg100
I0
sg77
I0
sg101
I0
sg37
I0
sg30
I0
sg27
I5
sg80
I0
sg41
I0
sg28
I0
sg102
I0
sg82
I0
sg34
I0
sg83
I0
sg35
I0
sg33
I0
sg84
I0
sg38
I0
sg103
I0
ssg20
(dp186
g10
I0
sg107
I0
sg53
I0
sg108
I0
sg109
I0
sg110
I0
sg12
I0
sg17
I0
sg57
I0
sg13
I0
sg19
I0
sg45
I0
sg9
I0
sg25
I0
sg111
I0
sg46
I0
sg11
I0
sg23
I0
sg14
I0
sg24
I0
sg8
I0
sg16
I0
sg112
I0
sg113
I0
sg20
I5
sg61
I0
sg114
I0
sg15
I0
sg18
I0
sg115
I0
sg21
I0
sg116
I0
sg117
I0
sg22
I0
sg47
I0
ssg41
(dp187
g67
I0
sg68
I0
sg36
I0
sg43
I0
sg29
I0
sg31
I0
sg69
I0
sg70
I0
sg86
I0
sg26
I0
sg40
I0
sg42
I0
sg32
I0
sg87
I0
sg45
I0
sg39
I0
sg73
I0
sg46
I0
sg74
I0
sg76
I0
sg78
I0
sg79
I0
sg37
I0
sg30
I0
sg27
I0
sg88
I0
sg41
I5
sg28
I0
sg81
I0
sg82
I0
sg34
I0
sg35
I0
sg33
I0
sg84
I0
sg38
I0
sg47
I0
ssg28
(dp188
g97
I0
sg36
I0
sg43
I0
sg29
I0
sg31
I0
sg69
I0
sg70
I0
sg71
I0
sg26
I0
sg40
I0
sg42
I0
sg32
I0
sg72
I0
sg98
I0
sg39
I0
sg44
I0
sg73
I0
sg99
I0
sg75
I0
sg100
I0
sg77
I0
sg101
I0
sg37
I0
sg30
I0
sg27
I0
sg80
I0
sg41
I0
sg28
I5
sg102
I0
sg82
I0
sg34
I0
sg83
I0
sg35
I0
sg33
I0
sg84
I0
sg38
I0
sg103
I0
ssg15
(dp189
g10
I0
sg52
I0
sg53
I0
sg149
I0
sg150
I0
sg12
I0
sg17
I0
sg151
I0
sg57
I0
sg13
I0
sg19
I0
sg45
I0
sg9
I0
sg25
I0
sg46
I0
sg11
I0
sg23
I0
sg14
I0
sg24
I0
sg8
I0
sg16
I0
sg152
I0
sg60
I0
sg153
I0
sg20
I0
sg61
I0
sg154
I0
sg15
I5
sg18
I0
sg155
I0
sg21
I0
sg22
I0
sg156
I0
sg47
I0
ssg18
(dp190
g10
I0
sg32
I0
sg43
I0
sg31
I0
sg29
I0
sg26
I0
sg12
I0
sg17
I0
sg44
I0
sg40
I0
sg42
I0
sg13
I0
sg19
I0
sg45
I0
sg9
I0
sg25
I0
sg36
I0
sg46
I0
sg11
I0
sg23
I0
sg14
I0
sg24
I0
sg8
I0
sg16
I0
sg37
I0
sg30
I0
sg27
I0
sg20
I0
sg41
I0
sg28
I0
sg15
I0
sg18
I20
sg34
I0
sg39
I0
sg21
I0
sg35
I0
sg33
I0
sg22
I0
sg38
I0
sg47
I0
ssg34
(dp191
g36
I0
sg43
I0
sg29
I0
sg31
I0
sg69
I0
sg70
I0
sg71
I0
sg26
I0
sg40
I0
sg42
I0
sg32
I0
sg72
I0
sg90
I0
sg39
I0
sg44
I0
sg73
I0
sg91
I0
sg92
I0
sg75
I0
sg77
I0
sg93
I0
sg37
I0
sg30
I0
sg27
I0
sg80
I0
sg41
I0
sg28
I0
sg94
I0
sg82
I0
sg34
I0
sg83
I0
sg35
I5
sg33
I0
sg84
I0
sg38
I0
sg95
I0
ssg39
(dp192
g143
I0
sg144
I0
sg36
I0
sg43
I0
sg29
I0
sg31
I0
sg69
I0
sg70
I0
sg26
I0
sg40
I0
sg42
I0
sg32
I0
sg90
I0
sg39
I5
sg44
I0
sg73
I0
sg91
I0
sg92
I0
sg128
I0
sg145
I0
sg129
I0
sg93
I0
sg146
I0
sg37
I0
sg30
I0
sg27
I0
sg41
I0
sg28
I0
sg94
I0
sg82
I0
sg34
I0
sg137
I0
sg35
I0
sg33
I0
sg84
I0
sg38
I0
sg95
I0
ssg21
(dp193
g10
I0
sg107
I0
sg108
I0
sg109
I0
sg110
I0
sg12
I0
sg17
I0
sg44
I0
sg124
I0
sg13
I0
sg19
I0
sg176
I0
sg9
I0
sg25
I0
sg111
I0
sg177
I0
sg11
I0
sg23
I0
sg14
I0
sg24
I0
sg8
I0
sg16
I0
sg130
I0
sg112
I0
sg113
I0
sg20
I0
sg114
I0
sg15
I0
sg18
I0
sg115
I0
sg136
I0
sg21
I5
sg116
I0
sg117
I0
sg22
I0
sg141
I0
sg178
I0
ssg35
(dp194
g36
I0
sg43
I0
sg29
I0
sg31
I0
sg69
I0
sg70
I0
sg71
I0
sg26
I0
sg40
I0
sg42
I0
sg32
I0
sg72
I0
sg90
I0
sg39
I0
sg44
I0
sg73
I0
sg91
I0
sg92
I0
sg75
I0
sg77
I0
sg93
I0
sg37
I0
sg30
I0
sg27
I0
sg80
I0
sg41
I0
sg28
I0
sg94
I0
sg82
I0
sg34
I0
sg83
I0
sg35
I0
sg33
I0
sg84
I0
sg38
I0
sg95
I0
ssg33
(dp195
g36
I0
sg43
I0
sg29
I0
sg31
I0
sg69
I0
sg70
I0
sg71
I0
sg26
I0
sg40
I0
sg42
I0
sg32
I0
sg72
I0
sg90
I0
sg39
I0
sg44
I0
sg73
I0
sg91
I0
sg92
I0
sg75
I0
sg77
I0
sg93
I0
sg37
I0
sg30
I0
sg27
I0
sg80
I0
sg41
I0
sg28
I0
sg94
I0
sg82
I0
sg34
I0
sg83
I0
sg35
I0
sg33
I5
sg84
I0
sg38
I0
sg95
I0
ssg22
(dp196
g10
I0
sg32
I0
sg43
I0
sg31
I0
sg29
I0
sg26
I0
sg12
I0
sg17
I0
sg44
I0
sg40
I0
sg42
I0
sg13
I0
sg19
I0
sg176
I0
sg9
I0
sg25
I0
sg36
I0
sg177
I0
sg11
I0
sg23
I0
sg14
I0
sg24
I0
sg8
I0
sg16
I0
sg37
I0
sg30
I0
sg27
I0
sg20
I0
sg41
I0
sg28
I0
sg15
I0
sg18
I0
sg34
I0
sg39
I0
sg21
I0
sg35
I0
sg33
I0
sg22
I10
sg38
I0
sg178
I0
ssg38
(dp197
g143
I0
sg144
I0
sg36
I0
sg43
I0
sg29
I0
sg31
I0
sg69
I0
sg70
I0
sg26
I0
sg40
I0
sg42
I0
sg32
I0
sg90
I0
sg39
I0
sg44
I0
sg73
I0
sg91
I0
sg92
I0
sg128
I0
sg145
I0
sg129
I0
sg93
I0
sg146
I0
sg37
I0
sg30
I0
sg27
I0
sg41
I0
sg28
I0
sg94
I0
sg82
I0
sg34
I0
sg137
I0
sg35
I0
sg33
I0
sg84
I0
sg38
I5
sg95
I0
ssg47
(dp198
g81
I0
sg68
I0
sg58
I0
sg53
I0
sg159
I0
sg54
I0
sg55
I0
sg160
I0
sg86
I0
sg161
I0
sg56
I0
sg57
I0
sg67
I0
sg87
I0
sg45
I0
sg162
I0
sg46
I0
sg74
I0
sg163
I0
sg76
I0
sg164
I0
sg78
I0
sg79
I0
sg59
I0
sg60
I0
sg165
I0
sg88
I0
sg61
I0
sg166
I0
sg52
I0
sg167
I0
sg62
I0
sg168
I0
sg63
I0
sg64
I0
sg169
I0
sg65
I0
sg47
I5
sssb.