ccopy_reg
_reconstructor
p0
(cutils.eval
ConfusionMatrix
p1
c__builtin__
object
p2
Ntp3
Rp4
(dp5
S'labels'
p6
(lp7
S'opening.n.01'
p8
aS'opening.n.10'
p9
aS'fill.v.09'
p10
aS'fill.v.01'
p11
aS'curd.n.01'
p12
aS'ice.n.01'
p13
aS'ice.n.05'
p14
aS'bowl.n.01'
p15
aS'whiskey.n.01'
p16
aS'carafe.n.01'
p17
aS'cup.n.01'
p18
aS'cola.n.02'
p19
aS'teapot.n.01'
p20
aS'water.n.06'
p21
aS'gap.n.03'
p22
aS'batter.n.02'
p23
aS'pot.n.01'
p24
aS'measuring_cup.n.01'
p25
aS'meal.n.03'
p26
aS'wok.n.01'
p27
aS'rice.n.01'
p28
aS'glass.n.02'
p29
aS'milk.n.01'
p30
asS'instanceCount'
p31
I30
sS'matrix'
p32
(dp33
g15
(dp34
S'bowl.n.01'
p35
I1
ssg23
(dp36
S'batter.n.02'
p37
I1
ssg9
(dp38
g9
I0
ssg18
(dp39
S'cup.n.01'
p40
I1
ssg30
(dp41
S'milk.n.01'
p42
I1
ssg19
(dp43
S'cola.n.02'
p44
I1
ssg22
(dp45
g22
I0
ssg10
(dp46
g11
I2
ssg24
(dp47
S'pot.n.01'
p48
I1
ssg11
(dp49
g11
I8
ssg25
(dp50
S'measuring_cup.n.01'
p51
I1
ssg29
(dp52
S'glass.n.02'
p53
I1
ssg27
(dp54
S'wok.n.01'
p55
I1
ssg16
(dp56
S'whiskey.n.01'
p57
I1
ssg8
(dp58
g9
I1
sg22
I1
ssg20
(dp59
S'teapot.n.01'
p60
I1
ssg28
(dp61
S'rice.n.01'
p62
I1
ssg21
(dp63
S'water.n.06'
p64
I2
ssg13
(dp65
g14
I1
ssg14
(dp66
g14
I0
ssg12
(dp67
S'curd.n.01'
p68
I1
ssg17
(dp69
S'carafe.n.01'
p70
I1
ssg26
(dp71
S'meal.n.03'
p72
I1
sssb.