ccopy_reg
_reconstructor
p0
(cutils.eval
ConfusionMatrix
p1
c__builtin__
object
p2
Ntp3
Rp4
(dp5
S'labels'
p6
(lp7
S'pot.n.01'
p8
aS'fill.v.01'
p9
aS'water.n.06'
p10
aS'measuring_cup.n.01'
p11
aS'meal.n.03'
p12
aS'wok.n.01'
p13
aS'rice.n.01'
p14
aS'glass.n.02'
p15
aS'milk.n.01'
p16
aS'saltcellar.n.01'
p17
aS'salt.n.02'
p18
aS'thermos.n.01'
p19
aS'coffee.n.01'
p20
aS'pan.n.03'
p21
aS'bottle.n.01'
p22
aS'fruit_juice.n.01'
p23
aS'kettle.n.01'
p24
aS'jar.n.01'
p25
aS'gravy.n.01'
p26
aS'gravy.n.02'
p27
asS'instanceCount'
p28
I30
sS'matrix'
p29
(dp30
g26
(dp31
g27
I1
ssg18
(dp32
S'salt.n.02'
p33
I1
ssg21
(dp34
S'pan.n.03'
p35
I1
ssg19
(dp36
S'thermos.n.01'
p37
I1
ssg17
(dp38
S'saltcellar.n.01'
p39
I1
ssg13
(dp40
S'wok.n.01'
p41
I1
ssg20
(dp42
S'coffee.n.01'
p43
I1
ssg23
(dp44
S'fruit_juice.n.01'
p45
I1
ssg14
(dp46
S'rice.n.01'
p47
I1
ssg8
(dp48
S'pot.n.01'
p49
I1
ssg10
(dp50
S'water.n.06'
p51
I3
ssg9
(dp52
S'fill.v.01'
p53
I10
ssg22
(dp54
S'bottle.n.01'
p55
I1
ssg27
(dp56
g27
I0
ssg24
(dp57
S'kettle.n.01'
p58
I1
ssg11
(dp59
S'measuring_cup.n.01'
p60
I1
ssg25
(dp61
S'jar.n.01'
p62
I1
ssg16
(dp63
S'milk.n.01'
p64
I1
ssg15
(dp65
S'glass.n.02'
p66
I1
ssg12
(dp67
S'meal.n.03'
p68
I1
sssb.