ccopy_reg
_reconstructor
p0
(cutils.eval
ConfusionMatrix
p1
c__builtin__
object
p2
Ntp3
Rp4
(dp5
S'labels'
p6
(lp7
S'wok.n.01'
p8
aS'fill.v.01'
p9
aS'rice.n.01'
p10
aS'glass.n.02'
p11
aS'milk.n.01'
p12
aS'saltcellar.n.01'
p13
aS'salt.n.02'
p14
aS'thermos.n.01'
p15
aS'coffee.n.01'
p16
aS'pan.n.03'
p17
aS'water.n.06'
p18
aS'bottle.n.01'
p19
aS'fruit_juice.n.01'
p20
aS'kettle.n.01'
p21
aS'jar.n.01'
p22
aS'gravy.n.01'
p23
aS'gravy.n.02'
p24
aS'pitcher.n.02'
p25
asS'instanceCount'
p26
I29
sS'matrix'
p27
(dp28
g23
(dp29
g24
I1
ssg14
(dp30
S'salt.n.02'
p31
I1
ssg17
(dp32
S'pan.n.03'
p33
I1
ssg15
(dp34
S'thermos.n.01'
p35
I1
ssg25
(dp36
S'pitcher.n.02'
p37
I1
ssg13
(dp38
S'saltcellar.n.01'
p39
I1
ssg8
(dp40
S'wok.n.01'
p41
I1
ssg20
(dp42
S'fruit_juice.n.01'
p43
I1
ssg10
(dp44
S'rice.n.01'
p45
I1
ssg16
(dp46
S'coffee.n.01'
p47
I1
ssg18
(dp48
S'water.n.06'
p49
I2
ssg9
(dp50
S'fill.v.01'
p51
I10
ssg19
(dp52
S'bottle.n.01'
p53
I1
ssg24
(dp54
g24
I0
ssg21
(dp55
S'kettle.n.01'
p56
I1
ssg22
(dp57
S'jar.n.01'
p58
I2
ssg12
(dp59
S'milk.n.01'
p60
I2
ssg11
(dp61
S'glass.n.02'
p62
I1
sssb.