ccopy_reg
_reconstructor
p0
(cutils.eval
ConfusionMatrix
p1
c__builtin__
object
p2
Ntp3
Rp4
(dp5
S'labels'
p6
(lp7
S'fill.v.01'
p8
aS'kettle.n.01'
p9
aS'water.n.06'
p10
aS'jar.n.01'
p11
aS'gravy.n.01'
p12
aS'gravy.n.02'
p13
aS'pitcher.n.02'
p14
aS'milk.n.01'
p15
aS'foam.n.01'
p16
aS'mug.n.04'
p17
aS'blender.n.01'
p18
aS'apple.n.01'
p19
aS'opening.n.01'
p20
aS'opening.n.10'
p21
aS'fill.v.09'
p22
aS'curd.n.01'
p23
aS'ice.n.01'
p24
aS'ice.n.05'
p25
aS'bowl.n.01'
p26
aS'bowl.n.08'
p27
aS'whiskey.n.01'
p28
aS'carafe.n.01'
p29
aS'cup.n.01'
p30
aS'cola.n.02'
p31
asS'instanceCount'
p32
I29
sS'matrix'
p33
(dp34
g26
(dp35
g27
I1
ssg19
(dp36
S'apple.n.01'
p37
I1
ssg21
(dp38
g21
I0
ssg27
(dp39
g27
I0
ssg15
(dp40
S'milk.n.01'
p41
I1
ssg16
(dp42
S'foam.n.01'
p43
I1
ssg31
(dp44
S'cola.n.02'
p45
I1
ssg22
(dp46
S'fill.v.01'
p47
I1
ssg8
(dp48
S'fill.v.01'
p49
I9
ssg14
(dp50
S'pitcher.n.02'
p51
I1
ssg12
(dp52
g13
I1
ssg13
(dp53
g13
I0
ssg28
(dp54
S'whiskey.n.01'
p55
I1
ssg20
(dp56
g21
I1
ssg17
(dp57
S'mug.n.04'
p58
I1
ssg18
(dp59
S'blender.n.01'
p60
I1
ssg10
(dp61
S'water.n.06'
p62
I1
ssg24
(dp63
g25
I1
ssg30
(dp64
S'cup.n.01'
p65
I1
ssg9
(dp66
S'kettle.n.01'
p67
I1
ssg25
(dp68
g25
I0
ssg23
(dp69
S'curd.n.01'
p70
I1
ssg11
(dp71
S'jar.n.01'
p72
I2
ssg29
(dp73
S'carafe.n.01'
p74
I1
sssb.