ccopy_reg
_reconstructor
p0
(cutils.eval
ConfusionMatrix
p1
c__builtin__
object
p2
Ntp3
Rp4
(dp5
S'labels'
p6
(lp7
S'fill.v.01'
p8
aS'foam.n.01'
p9
aS'mug.n.04'
p10
aS'blender.n.01'
p11
aS'apple.n.01'
p12
aS'opening.n.01'
p13
aS'opening.n.10'
p14
aS'fill.v.09'
p15
aS'curd.n.01'
p16
aS'ice.n.01'
p17
aS'ice.n.05'
p18
aS'bowl.n.01'
p19
aS'whiskey.n.01'
p20
aS'carafe.n.01'
p21
aS'cup.n.01'
p22
aS'cola.n.02'
p23
aS'teapot.n.01'
p24
aS'water.n.06'
p25
aS'gap.n.03'
p26
aS'batter.n.02'
p27
aS'pot.n.01'
p28
aS'measuring_cup.n.01'
p29
aS'meal.n.03'
p30
asS'instanceCount'
p31
I30
sS'matrix'
p32
(dp33
g19
(dp34
S'bowl.n.01'
p35
I1
ssg27
(dp36
S'batter.n.02'
p37
I1
ssg12
(dp38
S'apple.n.01'
p39
I1
ssg14
(dp40
g14
I0
ssg8
(dp41
S'fill.v.01'
p42
I8
ssg9
(dp43
S'foam.n.01'
p44
I1
ssg23
(dp45
S'cola.n.02'
p46
I1
ssg26
(dp47
g26
I0
ssg15
(dp48
S'fill.v.01'
p49
I2
ssg28
(dp50
S'pot.n.01'
p51
I1
ssg22
(dp52
S'cup.n.01'
p53
I1
ssg29
(dp54
S'measuring_cup.n.01'
p55
I1
ssg20
(dp56
S'whiskey.n.01'
p57
I1
ssg13
(dp58
g14
I1
sg26
I1
ssg10
(dp59
S'mug.n.04'
p60
I1
ssg24
(dp61
S'teapot.n.01'
p62
I1
ssg11
(dp63
S'blender.n.01'
p64
I1
ssg25
(dp65
S'water.n.06'
p66
I2
ssg17
(dp67
g18
I1
ssg18
(dp68
g18
I0
ssg16
(dp69
S'curd.n.01'
p70
I1
ssg21
(dp71
S'carafe.n.01'
p72
I1
ssg30
(dp73
S'meal.n.03'
p74
I1
sssb.