ccopy_reg
_reconstructor
p0
(cutils.eval
ConfusionMatrix
p1
c__builtin__
object
p2
Ntp3
Rp4
(dp5
S'labels'
p6
(lp7
S'fill.v.01'
p8
aS'whiskey.n.01'
p9
aS'carafe.n.01'
p10
aS'cup.n.01'
p11
aS'cola.n.02'
p12
aS'teapot.n.01'
p13
aS'water.n.06'
p14
aS'opening.n.01'
p15
aS'gap.n.03'
p16
aS'fill.v.09'
p17
aS'batter.n.02'
p18
aS'pot.n.01'
p19
aS'measuring_cup.n.01'
p20
aS'meal.n.03'
p21
aS'wok.n.01'
p22
aS'rice.n.01'
p23
aS'glass.n.02'
p24
aS'milk.n.01'
p25
aS'saltcellar.n.01'
p26
aS'salt.n.02'
p27
aS'thermos.n.01'
p28
aS'coffee.n.01'
p29
asS'instanceCount'
p30
I30
sS'matrix'
p31
(dp32
g23
(dp33
S'rice.n.01'
p34
I1
ssg18
(dp35
S'batter.n.02'
p36
I1
ssg8
(dp37
S'fill.v.01'
p38
I9
ssg25
(dp39
S'milk.n.01'
p40
I1
ssg12
(dp41
S'cola.n.02'
p42
I1
ssg16
(dp43
g16
I0
ssg26
(dp44
S'saltcellar.n.01'
p45
I1
ssg19
(dp46
S'pot.n.01'
p47
I1
ssg11
(dp48
S'cup.n.01'
p49
I1
ssg17
(dp50
S'fill.v.01'
p51
I1
ssg20
(dp52
S'measuring_cup.n.01'
p53
I1
ssg24
(dp54
S'glass.n.02'
p55
I1
ssg27
(dp56
S'salt.n.02'
p57
I1
ssg22
(dp58
S'wok.n.01'
p59
I1
ssg29
(dp60
S'coffee.n.01'
p61
I1
ssg9
(dp62
S'whiskey.n.01'
p63
I1
ssg15
(dp64
g16
I1
ssg13
(dp65
S'teapot.n.01'
p66
I1
ssg28
(dp67
S'thermos.n.01'
p68
I1
ssg14
(dp69
S'water.n.06'
p70
I2
ssg10
(dp71
S'carafe.n.01'
p72
I1
ssg21
(dp73
S'meal.n.03'
p74
I1
sssb.