ccopy_reg
_reconstructor
p0
(cutils.eval
ConfusionMatrix
p1
c__builtin__
object
p2
Ntp3
Rp4
(dp5
S'labels'
p6
(lp7
S'meat.n.01'
p8
aS'slice.v.03'
p9
aS'cleaver.n.01'
p10
aS'piece.n.08'
p11
aS'pizza.n.01'
p12
aS'flesh.n.01'
p13
aS'pulp.n.02'
p14
aS'olive.n.01'
p15
aS'olive.n.04'
p16
asS'instanceCount'
p17
I10
sS'matrix'
p18
(dp19
g9
(dp20
S'slice.v.03'
p21
I4
ssg15
(dp22
g16
I1
ssg13
(dp23
g14
I1
ssg16
(dp24
g16
I0
ssg12
(dp25
S'pizza.n.01'
p26
I1
ssg8
(dp27
S'meat.n.01'
p28
I1
ssg11
(dp29
S'piece.n.08'
p30
I1
ssg14
(dp31
g14
I0
ssg10
(dp32
S'cleaver.n.01'
p33
I1
sssb.