ccopy_reg
_reconstructor
p0
(cutils.eval
ConfusionMatrix
p1
c__builtin__
object
p2
Ntp3
Rp4
(dp5
S'labels'
p6
(lp7
S'zucchini.n.01'
p8
aS'zucchini.n.02'
p9
aS'slice.v.03'
p10
aS'bacon.n.01'
p11
aS'tomato.n.01'
p12
aS'knife.n.01'
p13
aS'bread.n.01'
p14
asS'instanceCount'
p15
I10
sS'matrix'
p16
(dp17
g10
(dp18
S'slice.v.03'
p19
I4
ssg13
(dp20
S'knife.n.01'
p21
I2
ssg12
(dp22
S'tomato.n.01'
p23
I1
ssg11
(dp24
S'bacon.n.01'
p25
I1
ssg14
(dp26
S'bread.n.01'
p27
I1
ssg9
(dp28
g9
I0
ssg8
(dp29
g9
I1
sssb.