ccopy_reg
_reconstructor
p0
(cutils.eval
ConfusionMatrix
p1
c__builtin__
object
p2
Ntp3
Rp4
(dp5
S'labels'
p6
(lp7
S'tomato.n.01'
p8
aS'tomato.n.02'
p9
aS'piece.n.08'
p10
aS'onion.n.03'
p11
aS'onion.n.02'
p12
aS'mustard.n.02'
p13
aS'slice.v.03'
p14
aS'orange.n.01'
p15
aS'slice.n.06'
p16
aS'lemon.n.01'
p17
aS'mushroom.n.05'
p18
asS'instanceCount'
p19
I11
sS'matrix'
p20
(dp21
g18
(dp22
S'mushroom.n.05'
p23
I1
ssg14
(dp24
S'slice.v.03'
p25
I3
ssg13
(dp26
S'mustard.n.02'
p27
I1
ssg9
(dp28
g9
I0
ssg8
(dp29
g9
I1
ssg16
(dp30
g16
I0
ssg15
(dp31
S'orange.n.01'
p32
I1
ssg17
(dp33
S'lemon.n.01'
p34
I1
ssg10
(dp35
S'piece.n.08'
p36
I1
sg16
I1
ssg11
(dp37
g12
I1
ssg12
(dp38
g12
I0
sssb.