ccopy_reg
_reconstructor
p0
(cutils.eval
ConfusionMatrix
p1
c__builtin__
object
p2
Ntp3
Rp4
(dp5
S'labels'
p6
(lp7
S'knife.n.01'
p8
aS'slice.v.03'
p9
aS'green_onion.n.01'
p10
aS'vegetable.n.01'
p11
aS'cheese.n.01'
p12
aS'egg.n.02'
p13
aS'piece.n.08'
p14
asS'instanceCount'
p15
I11
sS'matrix'
p16
(dp17
g9
(dp18
S'slice.v.03'
p19
I4
ssg11
(dp20
S'vegetable.n.01'
p21
I1
ssg8
(dp22
S'knife.n.01'
p23
I2
ssg12
(dp24
S'cheese.n.01'
p25
I1
ssg13
(dp26
S'egg.n.02'
p27
I1
ssg10
(dp28
S'green_onion.n.01'
p29
I1
ssg14
(dp30
S'piece.n.08'
p31
I1
sssb.