ccopy_reg
_reconstructor
p0
(cutils.eval
ConfusionMatrix
p1
c__builtin__
object
p2
Ntp3
Rp4
(dp5
S'labels'
p6
(lp7
S'slice.v.03'
p8
aS'lemon.n.01'
p9
aS'mushroom.n.05'
p10
aS'knife.n.01'
p11
aS'green_onion.n.01'
p12
aS'vegetable.n.01'
p13
asS'instanceCount'
p14
I10
sS'matrix'
p15
(dp16
g10
(dp17
S'mushroom.n.05'
p18
I1
ssg8
(dp19
S'slice.v.03'
p20
I4
ssg13
(dp21
S'vegetable.n.01'
p22
I1
ssg11
(dp23
S'knife.n.01'
p24
I2
ssg9
(dp25
S'lemon.n.01'
p26
I1
ssg12
(dp27
S'green_onion.n.01'
p28
I1
sssb.