ccopy_reg
_reconstructor
p0
(cutils.eval
ConfusionMatrix
p1
c__builtin__
object
p2
Ntp3
Rp4
(dp5
S'labels'
p6
(lp7
S'put.v.01'
p8
aS'onion.n.01'
p9
aS'beef.n.02'
p10
aS'plate.n.04'
p11
aS'plate.n.11'
p12
aS'piece.n.08'
p13
aS'slice.n.06'
p14
aS'pizza.n.01'
p15
aS'slice.v.03'
p16
aS'cut.v.01'
p17
aS'lemon.n.01'
p18
aS'fill.v.01'
p19
aS'kettle.n.01'
p20
aS'water.n.06'
p21
asS'instanceCount'
p22
I12
sS'matrix'
p23
(dp24
g16
(dp25
S'slice.v.03'
p26
I1
ssg12
(dp27
g12
I0
ssg17
(dp28
S'cut.v.01'
p29
I1
ssg10
(dp30
S'beef.n.02'
p31
I1
ssg11
(dp32
g12
I1
ssg14
(dp33
g14
I0
ssg21
(dp34
S'water.n.06'
p35
I1
ssg8
(dp36
S'put.v.01'
p37
I1
ssg15
(dp38
S'pizza.n.01'
p39
I1
ssg20
(dp40
S'kettle.n.01'
p41
I1
ssg18
(dp42
S'lemon.n.01'
p43
I1
ssg13
(dp44
g14
I1
ssg19
(dp45
S'fill.v.01'
p46
I1
ssg9
(dp47
S'onion.n.01'
p48
I1
sssb.