ccopy_reg
_reconstructor
p0
(cutils.eval
ConfusionMatrix
p1
c__builtin__
object
p2
Ntp3
Rp4
(dp5
S'labels'
p6
(lp7
S'cut.v.01'
p8
aS'meat.n.01'
p9
aS'cleaver.n.01'
p10
aS'cheese.n.01'
p11
aS'slice.v.03'
p12
aS'put.v.01'
p13
aS'cake.n.03'
p14
aS'patty.n.01'
p15
aS'whipped_cream.n.01'
p16
aS'cabbage.n.01'
p17
asS'instanceCount'
p18
I10
sS'matrix'
p19
(dp20
g11
(dp21
S'cheese.n.01'
p22
I1
ssg8
(dp23
S'cut.v.01'
p24
I2
ssg17
(dp25
S'cabbage.n.01'
p26
I1
ssg12
(dp27
S'slice.v.03'
p28
I1
ssg13
(dp29
S'put.v.01'
p30
I1
ssg15
(dp31
g15
I0
ssg16
(dp32
S'whipped_cream.n.01'
p33
I1
ssg14
(dp34
g15
I1
ssg9
(dp35
S'meat.n.01'
p36
I1
ssg10
(dp37
S'cleaver.n.01'
p38
I1
sssb.