ccopy_reg
_reconstructor
p0
(cutils.eval
ConfusionMatrix
p1
c__builtin__
object
p2
Ntp3
Rp4
(dp5
S'labels'
p6
(lp7
S'fill.v.01'
p8
aS'foam.n.01'
p9
aS'mug.n.04'
p10
aS'flesh.n.01'
p11
aS'human_body.n.01'
p12
aS'slice.v.03'
p13
aS'onion.n.01'
p14
aS'pepper.n.04'
p15
aS'put.v.01'
p16
aS'pan.n.03'
p17
aS'pizza.n.01'
p18
asS'instanceCount'
p19
I11
sS'matrix'
p20
(dp21
g10
(dp22
S'mug.n.04'
p23
I1
ssg17
(dp24
S'pan.n.03'
p25
I1
ssg11
(dp26
g12
I1
ssg15
(dp27
S'pepper.n.04'
p28
I1
ssg16
(dp29
S'put.v.01'
p30
I1
ssg8
(dp31
S'fill.v.01'
p32
I1
ssg12
(dp33
g12
I0
ssg18
(dp34
S'pizza.n.01'
p35
I1
ssg13
(dp36
S'slice.v.03'
p37
I2
ssg9
(dp38
S'foam.n.01'
p39
I1
ssg14
(dp40
S'onion.n.01'
p41
I1
sssb.