ccopy_reg
_reconstructor
p0
(cutils.eval
ConfusionMatrix
p1
c__builtin__
object
p2
Ntp3
Rp4
(dp5
S'labels'
p6
(lp7
S'slice.v.03'
p8
aS'onion.n.01'
p9
aS'onion.n.03'
p10
aS'pepper.n.04'
p11
aS'pepper.n.03'
p12
aS'put.v.01'
p13
aS'pan.n.03'
p14
aS'pizza.n.01'
p15
aS'knife.n.01'
p16
aS'knife.n.02'
p17
aS'banana.n.02'
p18
aS'opening.n.01'
p19
aS'gap.n.03'
p20
aS'fill.v.09'
p21
aS'fill.v.01'
p22
aS'batter.n.02'
p23
aS'cut.v.01'
p24
aS'meat.n.01'
p25
aS'cleaver.n.01'
p26
aS'cheese.n.01'
p27
aS'cake.n.03'
p28
aS'patty.n.01'
p29
aS'whipped_cream.n.01'
p30
aS'cabbage.n.01'
p31
aS'pan.n.01'
p32
aS'water.n.06'
p33
aS'salt.n.02'
p34
aS'salt.n.01'
p35
aS'egg.n.02'
p36
aS'egg.n.01'
p37
aS'bread.n.01'
p38
aS'chicken.n.01'
p39
aS'bacon.n.01'
p40
aS'bacon.n.02'
p41
aS'pitcher.n.02'
p42
aS'milk.n.01'
p43
aS'foam.n.01'
p44
aS'mug.n.04'
p45
aS'flesh.n.01'
p46
aS'human_body.n.01'
p47
aS'beef.n.02'
p48
aS'plate.n.04'
p49
aS'plate.n.11'
p50
aS'piece.n.08'
p51
aS'slice.n.06'
p52
aS'lemon.n.01'
p53
aS'kettle.n.01'
p54
aS'plate.n.13'
p55
aS'milk.n.02'
p56
asS'instanceCount'
p57
I114
sS'matrix'
p58
(dp59
g55
(dp60
g55
I0
sS'slice.v.03'
p61
I0
sS'cut.v.01'
p62
I0
sS'cabbage.n.01'
p63
I0
sS'beef.n.02'
p64
I0
sS'plate.n.04'
p65
I0
sS'slice.n.06'
p66
I0
sS'put.v.01'
p67
I0
sS'patty.n.01'
p68
I0
sS'whipped_cream.n.01'
p69
I0
sS'cake.n.03'
p70
I0
sS'piece.n.08'
p71
I0
sS'pizza.n.01'
p72
I0
sS'onion.n.01'
p73
I0
ssg27
(dp74
g27
I2
sS'pan.n.03'
p75
I0
sg24
I0
sg31
I0
sS'slice.v.03'
p76
I0
sS'knife.n.02'
p77
I0
sS'put.v.01'
p78
I0
sg29
I0
sS'chicken.n.01'
p79
I0
sg30
I0
sg28
I0
sg25
I0
sS'knife.n.01'
p80
I0
sS'bread.n.01'
p81
I0
sg26
I0
ssg50
(dp82
S'slice.v.03'
p83
I0
sg50
I0
sS'cut.v.01'
p84
I0
sg48
I0
sg49
I0
sg52
I0
sS'water.n.06'
p85
I0
sS'put.v.01'
p86
I0
sS'pizza.n.01'
p87
I0
sg54
I0
sg53
I0
sg51
I0
sS'fill.v.01'
p88
I0
sS'onion.n.01'
p89
I0
ssg39
(dp90
g32
I0
sg34
I0
sS'pan.n.03'
p91
I0
sS'cut.v.01'
p92
I0
sg39
I2
sS'cleaver.n.01'
p93
I0
sg77
I0
sS'pepper.n.04'
p94
I0
sg37
I0
sg33
I0
sS'put.v.01'
p95
I0
sS'fill.v.01'
p96
I0
sS'cheese.n.01'
p97
I0
sS'pepper.n.03'
p98
I0
sg36
I0
sS'knife.n.01'
p99
I0
sS'slice.v.03'
p100
I0
sg38
I0
sg35
I0
sS'meat.n.01'
p101
I0
ssg34
(dp102
g39
I0
sS'slice.v.03'
p103
I0
sg38
I0
sS'batter.n.02'
p104
I0
sg32
I0
sg91
I0
sg92
I0
sS'gap.n.03'
p105
I0
sS'fill.v.09'
p106
I0
sg36
I0
sg37
I0
sg96
I0
sg34
I0
sg35
I2
sg99
I0
sS'banana.n.02'
p107
I0
sS'knife.n.02'
p108
I0
sg94
I0
sg98
I0
sS'opening.n.01'
p109
I0
sg33
I0
sg95
I0
ssg38
(dp110
g32
I0
sg34
I0
sg91
I0
sg92
I0
sg99
I0
sg93
I0
sg77
I0
sg94
I0
sg37
I0
sg33
I0
sg95
I0
sg96
I0
sg97
I0
sg98
I0
sg36
I0
sg39
I0
sg100
I0
sg38
I2
sg35
I0
sg101
I0
ssg23
(dp111
S'salt.n.02'
p112
I0
sg23
I2
sS'pan.n.01'
p113
I0
sg14
I0
sg20
I0
sg21
I0
sS'egg.n.02'
p114
I0
sS'egg.n.01'
p115
I0
sg22
I0
sg8
I0
sS'salt.n.01'
p116
I0
sg16
I0
sg18
I0
sg17
I0
sg11
I0
sg12
I0
sg19
I0
sS'water.n.06'
p117
I0
sg13
I0
sg15
I0
sg9
I0
sg10
I0
ssg31
(dp118
g55
I0
sg27
I0
sg24
I0
sg31
I2
sg76
I0
sg65
I0
sg64
I0
sg66
I0
sg78
I0
sg29
I0
sg30
I0
sg28
I0
sg25
I0
sg71
I0
sg72
I0
sg73
I0
sg26
I0
ssg22
(dp119
g50
I0
sg39
I0
sg34
I0
sg38
I0
sg23
I0
sg44
I0
sg43
I0
sg56
I0
sg32
I0
sg14
I0
sg92
I0
sg20
I0
sg21
I0
sg36
I0
sg37
I0
sg48
I0
sg41
I0
sg40
I0
sg22
I8
sg42
I0
sg8
I0
sg35
I0
sg16
I0
sg18
I0
sg17
I0
sg49
I0
sg11
I0
sg12
I0
sg47
I0
sg51
I0
sg19
I0
sg45
I0
sg46
I0
sg52
I0
sg33
I0
sg13
I0
sg15
I0
sg54
I0
sg53
I0
sg9
I0
sg10
I0
ssg43
(dp120
S'water.n.06'
p121
I0
sg45
I0
sS'cut.v.01'
p122
I0
sg46
I0
sg41
I0
sg40
I0
sS'fill.v.01'
p123
I0
sg42
I0
sg47
I0
sS'kettle.n.01'
p124
I0
sS'lemon.n.01'
p125
I0
sS'slice.v.03'
p126
I0
sg44
I0
sg43
I1
sg56
I1
ssg56
(dp127
S'cut.v.01'
p128
I0
sg121
I0
sS'bacon.n.01'
p129
I0
sS'fill.v.01'
p130
I0
sS'pitcher.n.02'
p131
I0
sg124
I0
sg125
I0
sS'milk.n.01'
p132
I0
sg56
I0
ssg32
(dp133
g39
I0
sg103
I0
sg38
I0
sg104
I0
sg32
I0
sg91
I2
sg92
I0
sg105
I0
sg106
I0
sg36
I0
sg37
I0
sg96
I0
sg34
I0
sg35
I0
sg99
I0
sg107
I0
sg108
I0
sg94
I0
sg98
I0
sg109
I0
sg33
I0
sg95
I0
ssg14
(dp134
g97
I0
sg39
I0
sg34
I0
sg38
I0
sg23
I0
sS'foam.n.01'
p135
I0
sg32
I0
sg14
I4
sg92
I0
sg20
I0
sg21
I0
sg36
I0
sg37
I0
sg22
I0
sg101
I0
sg93
I0
sg8
I0
sg35
I0
sg16
I0
sg18
I0
sg17
I0
sg11
I0
sg12
I0
sS'human_body.n.01'
p136
I0
sg19
I0
sS'mug.n.04'
p137
I0
sS'flesh.n.01'
p138
I0
sg33
I0
sg13
I0
sg15
I0
sg9
I0
sg10
I0
ssg24
(dp139
g55
I0
sg27
I0
sg50
I0
sg39
I0
sg34
I0
sg38
I0
sg99
I0
sg96
I0
sg43
I0
sg56
I0
sg32
I0
sg91
I0
sg24
I10
sg36
I0
sg37
I0
sg48
I0
sg41
I0
sg40
I0
sg29
I0
sg42
I0
sg25
I0
sg26
I0
sg76
I0
sg35
I0
sg31
I0
sg77
I0
sg49
I0
sg94
I0
sg98
I0
sg44
I0
sg47
I0
sg30
I0
sg51
I0
sg45
I0
sg46
I0
sg52
I0
sg33
I0
sg78
I0
sg87
I0
sg54
I0
sg28
I0
sg53
I0
sg89
I0
ssg20
(dp140
g112
I0
sg23
I0
sg113
I0
sg14
I0
sg20
I0
sg21
I0
sg114
I0
sg115
I0
sg22
I0
sg8
I0
sg116
I0
sg16
I0
sg18
I0
sg17
I0
sg11
I0
sg12
I0
sg19
I0
sg117
I0
sg13
I0
sg15
I0
sg9
I0
sg10
I0
ssg21
(dp141
g112
I0
sg23
I0
sg113
I0
sg14
I0
sg20
I0
sg21
I0
sg114
I0
sg115
I0
sg22
I2
sg8
I0
sg116
I0
sg16
I0
sg18
I0
sg17
I0
sg11
I0
sg12
I0
sg19
I0
sg117
I0
sg13
I0
sg15
I0
sg9
I0
sg10
I0
ssg36
(dp142
g39
I0
sg103
I0
sg38
I0
sg104
I0
sg32
I0
sg91
I0
sg92
I0
sg105
I0
sg106
I0
sg36
I0
sg37
I2
sg96
I0
sg34
I0
sg35
I0
sg99
I0
sg107
I0
sg108
I0
sg94
I0
sg98
I0
sg109
I0
sg33
I0
sg95
I0
ssg37
(dp143
g39
I0
sg103
I0
sg38
I0
sg104
I0
sg32
I0
sg91
I0
sg92
I0
sg105
I0
sg106
I0
sg36
I0
sg37
I0
sg96
I0
sg34
I0
sg35
I0
sg99
I0
sg107
I0
sg108
I0
sg94
I0
sg98
I0
sg109
I0
sg33
I0
sg95
I0
ssg48
(dp144
g55
I0
sg83
I0
sg50
I0
sg84
I0
sg63
I0
sg48
I2
sg49
I0
sg69
I0
sg52
I0
sg85
I0
sg86
I0
sg87
I0
sg54
I0
sg70
I0
sg68
I0
sg53
I0
sg51
I0
sg88
I0
sg89
I0
ssg41
(dp145
g45
I0
sg122
I0
sg46
I0
sg41
I0
sg40
I0
sg123
I0
sg42
I0
sg47
I0
sg126
I0
sg44
I0
sg43
I0
ssg40
(dp146
g121
I0
sg45
I0
sg122
I0
sg46
I0
sg41
I1
sg40
I1
sg123
I0
sg42
I0
sg47
I0
sg124
I0
sg125
I0
sg126
I0
sg44
I0
sg43
I0
sg56
I0
ssg29
(dp147
g55
I0
sg27
I0
sg24
I0
sg31
I0
sg76
I0
sg65
I0
sg64
I0
sg66
I0
sg78
I0
sg29
I0
sg30
I0
sg28
I0
sg26
I0
sg71
I0
sg72
I0
sg73
I0
sg25
I0
ssg42
(dp148
g121
I0
sg45
I0
sg122
I0
sg46
I0
sg41
I0
sg40
I0
sg123
I0
sg42
I2
sg47
I0
sg124
I0
sg125
I0
sg126
I0
sg44
I0
sg43
I0
sg56
I0
ssg26
(dp149
g27
I0
sg75
I0
sg24
I0
sg31
I0
sg76
I0
sg77
I0
sg78
I0
sg29
I0
sg79
I0
sg30
I0
sg28
I0
sg26
I2
sg80
I0
sg81
I0
sg25
I0
ssg25
(dp150
g27
I0
sg75
I0
sg24
I0
sg31
I0
sg76
I0
sg77
I0
sg78
I0
sg29
I0
sg79
I0
sg30
I0
sg28
I0
sg25
I2
sg80
I0
sg81
I0
sg26
I0
ssg8
(dp151
g55
I0
sg27
I0
sg50
I0
sg79
I0
sg112
I0
sg81
I0
sg23
I0
sg31
I0
sg22
I0
sg43
I0
sg113
I0
sg14
I0
sg24
I0
sg20
I0
sg21
I0
sg114
I0
sg115
I0
sg48
I0
sg41
I0
sg40
I0
sg29
I0
sg42
I0
sg26
I0
sg25
I0
sg8
I10
sg116
I0
sg16
I0
sg18
I0
sg17
I0
sg49
I0
sg11
I0
sg12
I0
sg44
I0
sg47
I0
sg30
I0
sg51
I0
sg19
I0
sg45
I0
sg46
I0
sg52
I0
sg117
I0
sg13
I0
sg15
I0
sg54
I0
sg28
I0
sg53
I0
sg9
I0
sg10
I0
ssg35
(dp152
g39
I0
sg103
I0
sg38
I0
sg104
I0
sg32
I0
sg91
I0
sg92
I0
sg105
I0
sg106
I0
sg36
I0
sg37
I0
sg96
I0
sg34
I0
sg35
I0
sg99
I0
sg107
I0
sg108
I0
sg94
I0
sg98
I0
sg109
I0
sg33
I0
sg95
I0
ssg16
(dp153
g97
I0
sg39
I0
sg34
I0
sg38
I0
sg23
I0
sg32
I0
sg14
I0
sg92
I0
sg20
I0
sg21
I0
sg36
I0
sg37
I0
sg22
I0
sg101
I0
sg93
I0
sg8
I0
sg35
I0
sg16
I1
sg18
I0
sg17
I3
sg11
I0
sg12
I0
sg19
I0
sg33
I0
sg13
I0
sg15
I0
sg9
I0
sg10
I0
ssg18
(dp154
g112
I0
sg23
I0
sg113
I0
sg14
I0
sg20
I0
sg21
I0
sg114
I0
sg115
I0
sg22
I0
sg8
I0
sg116
I0
sg16
I0
sg18
I2
sg17
I0
sg11
I0
sg12
I0
sg19
I0
sg117
I0
sg13
I0
sg15
I0
sg9
I0
sg10
I0
ssg17
(dp155
g97
I0
sg79
I0
sg112
I0
sg81
I0
sg23
I0
sg113
I0
sg14
I0
sS'cut.v.01'
p156
I0
sg20
I0
sg21
I0
sg114
I0
sg115
I0
sg22
I0
sg93
I0
sg101
I0
sg8
I0
sg116
I0
sg16
I0
sg18
I0
sg17
I0
sg11
I0
sg12
I0
sg19
I0
sg117
I0
sg13
I0
sg15
I0
sg9
I0
sg10
I0
ssg49
(dp157
g55
I1
sg83
I0
sg50
I1
sg84
I0
sg63
I0
sg48
I0
sg49
I0
sg69
I0
sg52
I0
sg85
I0
sg86
I0
sg87
I0
sg54
I0
sg70
I0
sg68
I0
sg53
I0
sg51
I0
sg88
I0
sg89
I0
ssg11
(dp158
g39
I0
sg34
I0
sg38
I0
sg23
I0
sg135
I0
sg32
I0
sg14
I0
sg92
I0
sg20
I0
sg21
I0
sg36
I0
sg37
I0
sg22
I0
sg8
I0
sg35
I0
sg16
I0
sg18
I0
sg17
I0
sg11
I1
sg12
I1
sg136
I0
sg19
I0
sg137
I0
sg138
I0
sg33
I0
sg13
I0
sg15
I0
sg9
I0
sg10
I0
ssg12
(dp159
g39
I0
sg34
I0
sg38
I0
sg23
I0
sg32
I0
sg14
I0
sg92
I0
sg20
I0
sg21
I0
sg36
I0
sg37
I0
sg22
I0
sg8
I0
sg35
I0
sg16
I0
sg18
I0
sg17
I0
sg11
I2
sg12
I0
sg19
I0
sg33
I0
sg13
I0
sg15
I0
sg9
I0
sg10
I0
ssg44
(dp160
g45
I0
sS'pan.n.03'
p161
I0
sg122
I0
sg46
I0
sS'pepper.n.04'
p162
I0
sg41
I0
sg40
I0
sg123
I0
sg42
I0
sg47
I0
sS'pizza.n.01'
p163
I0
sS'put.v.01'
p164
I0
sg126
I0
sg44
I2
sS'onion.n.01'
p165
I0
sg43
I0
ssg47
(dp166
g45
I0
sg161
I0
sg122
I0
sg46
I0
sg162
I0
sg41
I0
sg40
I0
sg123
I0
sg42
I0
sg47
I0
sg163
I0
sg164
I0
sg126
I0
sg44
I0
sg165
I0
sg43
I0
ssg30
(dp167
g55
I0
sg27
I0
sg24
I0
sg31
I0
sg76
I0
sg65
I0
sg64
I0
sg66
I0
sg78
I0
sg29
I0
sg30
I2
sg28
I0
sg25
I0
sg71
I0
sg72
I0
sg73
I0
sg26
I0
ssg51
(dp168
g55
I0
sg83
I0
sg50
I0
sg84
I0
sg63
I0
sg48
I0
sg49
I0
sg69
I0
sg52
I2
sg85
I0
sg86
I0
sg87
I0
sg54
I0
sg70
I0
sg68
I0
sg53
I0
sg51
I0
sg88
I0
sg89
I0
ssg19
(dp169
g112
I0
sg23
I0
sg113
I0
sg14
I0
sg20
I2
sg21
I0
sg114
I0
sg115
I0
sg22
I0
sg8
I0
sg116
I0
sg16
I0
sg18
I0
sg17
I0
sg11
I0
sg12
I0
sg19
I0
sg117
I0
sg13
I0
sg15
I0
sg9
I0
sg10
I0
ssg45
(dp170
g45
I2
sg161
I0
sg122
I0
sg46
I0
sg162
I0
sg41
I0
sg40
I0
sg123
I0
sg42
I0
sg47
I0
sg163
I0
sg164
I0
sg126
I0
sg44
I0
sg165
I0
sg43
I0
ssg46
(dp171
g45
I0
sg161
I0
sg122
I0
sg46
I0
sg162
I0
sg41
I0
sg40
I0
sg123
I0
sg42
I0
sg47
I2
sg163
I0
sg164
I0
sg126
I0
sg44
I0
sg165
I0
sg43
I0
ssg52
(dp172
g55
I0
sg83
I0
sg50
I0
sg84
I0
sg63
I0
sg48
I0
sg49
I0
sg69
I0
sg52
I0
sg85
I0
sg86
I0
sg87
I0
sg54
I0
sg70
I0
sg68
I0
sg53
I0
sg51
I0
sg88
I0
sg89
I0
ssg33
(dp173
g50
I0
sg39
I0
sg103
I0
sg38
I0
sg104
I0
sg132
I0
sg56
I0
sg32
I0
sg91
I0
sg92
I0
sg105
I0
sg106
I0
sg36
I0
sg37
I0
sg48
I0
sg129
I0
sg96
I0
sg131
I0
sg34
I0
sg35
I0
sg99
I0
sg107
I0
sg108
I0
sg49
I0
sg94
I0
sg98
I0
sg51
I0
sg109
I0
sg52
I0
sg33
I4
sg95
I0
sg87
I0
sg54
I0
sg53
I0
sg89
I0
ssg13
(dp174
g55
I0
sg27
I0
sg50
I0
sg39
I0
sg34
I0
sg38
I0
sg23
I0
sg31
I0
sg22
I0
sg32
I0
sg14
I0
sg24
I0
sg20
I0
sg21
I0
sg36
I0
sg37
I0
sg48
I0
sg29
I0
sg26
I0
sg25
I0
sg8
I0
sg35
I0
sg16
I0
sg18
I0
sg17
I0
sg49
I0
sg11
I0
sg12
I0
sg135
I0
sg136
I0
sg30
I0
sg51
I0
sg19
I0
sg137
I0
sg138
I0
sg52
I0
sg33
I0
sg13
I10
sg15
I0
sg54
I0
sg28
I0
sg53
I0
sg9
I0
sg10
I0
ssg15
(dp175
g55
I0
sg50
I0
sg48
I0
sg23
I0
sg63
I0
sg135
I0
sg14
I0
sg84
I0
sg20
I0
sg21
I0
sg22
I0
sg8
I0
sg16
I0
sg18
I0
sg17
I0
sg49
I0
sg11
I0
sg12
I0
sg136
I0
sg69
I0
sg68
I0
sg51
I0
sg19
I0
sg137
I0
sg138
I0
sg52
I0
sg85
I0
sg13
I0
sg15
I4
sg54
I0
sg70
I0
sg53
I0
sg9
I0
sg10
I0
ssg54
(dp176
g83
I0
sg50
I0
sg84
I0
sg48
I0
sg49
I0
sg52
I0
sg85
I0
sg86
I0
sg87
I0
sg131
I0
sg54
I2
sg129
I0
sg53
I0
sg51
I0
sg88
I0
sg89
I0
sg132
I0
sg56
I0
ssg28
(dp177
g55
I0
sg27
I0
sg24
I0
sg31
I0
sg76
I0
sg65
I0
sg64
I0
sg66
I0
sg78
I0
sg29
I2
sg30
I0
sg28
I0
sg25
I0
sg71
I0
sg72
I0
sg73
I0
sg26
I0
ssg53
(dp178
g83
I0
sg50
I0
sg84
I0
sg48
I0
sg49
I0
sg52
I0
sg85
I0
sg86
I0
sg87
I0
sg131
I0
sg54
I0
sg129
I0
sg53
I2
sg51
I0
sg88
I0
sg89
I0
sg132
I0
sg56
I0
ssg9
(dp179
g55
I0
sg50
I0
sg48
I0
sg23
I0
sg63
I0
sg135
I0
sg14
I0
sg84
I0
sg20
I0
sg21
I0
sg22
I0
sg8
I0
sg16
I0
sg18
I0
sg17
I0
sg49
I0
sg11
I0
sg12
I0
sg136
I0
sg69
I0
sg68
I0
sg51
I0
sg19
I0
sg137
I0
sg138
I0
sg52
I0
sg85
I0
sg13
I0
sg15
I0
sg54
I0
sg70
I0
sg53
I0
sg9
I3
sg10
I1
ssg10
(dp180
g8
I0
sg14
I0
sg16
I0
sg20
I0
sg18
I0
sg17
I0
sg11
I0
sg21
I0
sg13
I0
sg15
I0
sg12
I0
sg23
I0
sg22
I0
sg9
I0
sg10
I0
sg19
I0
sssb.