ccopy_reg
_reconstructor
p0
(cutils.eval
ConfusionMatrix
p1
c__builtin__
object
p2
Ntp3
Rp4
(dp5
S'labels'
p6
(lp7
S'fill.v.01'
p8
aS'pan.n.01'
p9
aS'pan.n.03'
p10
aS'water.n.06'
p11
aS'put.v.01'
p12
aS'pepper.n.03'
p13
aS'pepper.n.04'
p14
aS'salt.n.02'
p15
aS'salt.n.01'
p16
aS'egg.n.02'
p17
aS'egg.n.01'
p18
aS'cut.v.01'
p19
aS'bread.n.01'
p20
aS'knife.n.01'
p21
aS'chicken.n.01'
p22
asS'instanceCount'
p23
I13
sS'matrix'
p24
(dp25
g9
(dp26
g10
I1
ssg15
(dp27
g16
I1
ssg10
(dp28
g10
I1
ssg19
(dp29
S'cut.v.01'
p30
I1
ssg21
(dp31
S'knife.n.01'
p32
I1
ssg14
(dp33
g14
I0
ssg18
(dp34
g18
I0
ssg11
(dp35
S'water.n.06'
p36
I1
ssg13
(dp37
g14
I1
ssg8
(dp38
S'fill.v.01'
p39
I1
ssg12
(dp40
S'put.v.01'
p41
I2
ssg17
(dp42
g18
I1
ssg22
(dp43
S'chicken.n.01'
p44
I1
ssg20
(dp45
S'bread.n.01'
p46
I1
ssg16
(dp47
g16
I0
sssb.