ccopy_reg
_reconstructor
p0
(cutils.eval
ConfusionMatrix
p1
c__builtin__
object
p2
Ntp3
Rp4
(dp5
S'labels'
p6
(lp7
S'knife.n.01'
p8
aS'knife.n.02'
p9
aS'banana.n.02'
p10
aS'slice.v.03'
p11
aS'opening.n.01'
p12
aS'gap.n.03'
p13
aS'fill.v.09'
p14
aS'fill.v.01'
p15
aS'batter.n.02'
p16
aS'pan.n.01'
p17
aS'pan.n.03'
p18
aS'water.n.06'
p19
aS'put.v.01'
p20
aS'pepper.n.03'
p21
aS'pepper.n.04'
p22
aS'salt.n.02'
p23
aS'salt.n.01'
p24
aS'egg.n.02'
p25
aS'egg.n.01'
p26
asS'instanceCount'
p27
I13
sS'matrix'
p28
(dp29
g17
(dp30
g18
I1
ssg11
(dp31
S'slice.v.03'
p32
I1
ssg18
(dp33
g18
I0
ssg8
(dp34
g9
I1
ssg13
(dp35
g13
I0
ssg10
(dp36
S'banana.n.02'
p37
I1
ssg9
(dp38
g9
I0
ssg22
(dp39
g22
I0
ssg26
(dp40
g26
I0
ssg14
(dp41
g15
I1
ssg19
(dp42
S'water.n.06'
p43
I1
ssg20
(dp44
S'put.v.01'
p45
I1
ssg15
(dp46
g15
I1
ssg21
(dp47
g22
I1
ssg16
(dp48
S'batter.n.02'
p49
I1
ssg25
(dp50
g26
I1
ssg24
(dp51
g24
I0
ssg23
(dp52
g24
I1
ssg12
(dp53
g13
I1
sssb.