ccopy_reg
_reconstructor
p0
(cutils.eval
ConfusionMatrix
p1
c__builtin__
object
p2
Ntp3
Rp4
(dp5
S'labels'
p6
(lp7
S'cut.v.01'
p8
aS'lemon.n.01'
p9
aS'fill.v.01'
p10
aS'kettle.n.01'
p11
aS'water.n.06'
p12
aS'bacon.n.01'
p13
aS'pitcher.n.02'
p14
aS'milk.n.01'
p15
aS'milk.n.02'
p16
asS'instanceCount'
p17
I10
sS'matrix'
p18
(dp19
g8
(dp20
S'cut.v.01'
p21
I2
ssg12
(dp22
S'water.n.06'
p23
I1
ssg13
(dp24
S'bacon.n.01'
p25
I1
ssg10
(dp26
S'fill.v.01'
p27
I2
ssg14
(dp28
S'pitcher.n.02'
p29
I1
ssg11
(dp30
S'kettle.n.01'
p31
I1
ssg9
(dp32
S'lemon.n.01'
p33
I1
ssg15
(dp34
g16
I1
ssg16
(dp35
g16
I0
sssb.