ccopy_reg
_reconstructor
p0
(cutils.eval
ConfusionMatrix
p1
c__builtin__
object
p2
Ntp3
Rp4
(dp5
S'labels'
p6
(lp7
S'slice.v.03'
p8
aS'onion.n.01'
p9
aS'onion.n.03'
p10
aS'pepper.n.04'
p11
aS'pepper.n.03'
p12
aS'put.v.01'
p13
aS'pan.n.03'
p14
aS'pizza.n.01'
p15
aS'knife.n.01'
p16
aS'knife.n.02'
p17
aS'banana.n.02'
p18
aS'opening.n.01'
p19
aS'gap.n.03'
p20
aS'fill.v.09'
p21
aS'fill.v.01'
p22
aS'batter.n.02'
p23
asS'instanceCount'
p24
I12
sS'matrix'
p25
(dp26
g8
(dp27
S'slice.v.03'
p28
I2
ssg14
(dp29
S'pan.n.03'
p30
I1
ssg16
(dp31
g17
I1
ssg20
(dp32
g20
I0
ssg18
(dp33
S'banana.n.02'
p34
I1
ssg17
(dp35
g17
I0
ssg11
(dp36
g12
I1
ssg21
(dp37
g22
I1
ssg13
(dp38
S'put.v.01'
p39
I1
ssg15
(dp40
S'pizza.n.01'
p41
I1
ssg12
(dp42
g12
I0
ssg23
(dp43
S'batter.n.02'
p44
I1
ssg22
(dp45
g22
I0
ssg9
(dp46
g10
I1
ssg10
(dp47
g10
I0
ssg19
(dp48
g20
I1
sssb.