ccopy_reg
_reconstructor
p0
(cutils.eval
ConfusionMatrix
p1
c__builtin__
object
p2
Ntp3
Rp4
(dp5
S'labels'
p6
(lp7
S'put.v.01'
p8
aS'cake.n.03'
p9
aS'patty.n.01'
p10
aS'whipped_cream.n.01'
p11
aS'cabbage.n.01'
p12
aS'cut.v.01'
p13
aS'onion.n.01'
p14
aS'beef.n.02'
p15
aS'plate.n.04'
p16
aS'plate.n.13'
p17
aS'piece.n.08'
p18
aS'slice.n.06'
p19
aS'pizza.n.01'
p20
aS'slice.v.03'
p21
asS'instanceCount'
p22
I12
sS'matrix'
p23
(dp24
g17
(dp25
g17
I0
ssg21
(dp26
S'slice.v.03'
p27
I1
ssg13
(dp28
S'cut.v.01'
p29
I1
ssg12
(dp30
S'cabbage.n.01'
p31
I1
ssg15
(dp32
S'beef.n.02'
p33
I1
ssg16
(dp34
g17
I1
ssg19
(dp35
g19
I0
ssg8
(dp36
S'put.v.01'
p37
I2
ssg10
(dp38
g10
I0
ssg11
(dp39
S'whipped_cream.n.01'
p40
I1
ssg9
(dp41
g10
I1
ssg18
(dp42
g19
I1
ssg20
(dp43
S'pizza.n.01'
p44
I1
ssg14
(dp45
S'onion.n.01'
p46
I1
sssb.