ccopy_reg
_reconstructor
p0
(cutils.eval
ConfusionMatrix
p1
c__builtin__
object
p2
Ntp3
Rp4
(dp5
S'labels'
p6
(lp7
S'piece.n.08'
p8
aS'slice.n.06'
p9
aS'slice.v.03'
p10
aS'flesh.n.01'
p11
aS'human_body.n.01'
p12
aS'tomato.n.01'
p13
aS'tomato.n.02'
p14
aS'slice.n.04'
p15
aS'onion.n.03'
p16
aS'onion.n.02'
p17
aS'mustard.n.02'
p18
aS'fill.v.01'
p19
aS'fill.v.09'
p20
aS'pitcher.n.02'
p21
aS'pitcher.n.05'
p22
aS'milk.n.01'
p23
aS'milk.n.04'
p24
aS'meet.v.04'
p25
aS'kettle.n.01'
p26
aS'kettle.n.02'
p27
aS'water.n.06'
p28
aS'water.n.03'
p29
aS'mug.n.04'
p30
aS'opening.n.01'
p31
aS'gap.n.05'
p32
aS'batter.n.02'
p33
aS'pan.n.01'
p34
aS'pan.n.02'
p35
asS'instanceCount'
p36
I22
sS'matrix'
p37
(dp38
g33
(dp39
S'batter.n.02'
p40
I1
ssg24
(dp41
g24
I0
ssg23
(dp42
g24
I1
ssg34
(dp43
g35
I1
ssg18
(dp44
S'mustard.n.02'
p45
I1
ssg32
(dp46
g32
I0
ssg20
(dp47
g20
I1
ssg14
(dp48
g14
I0
ssg13
(dp49
g14
I1
ssg19
(dp50
g25
I1
sg20
I3
ssg21
(dp51
g22
I1
ssg22
(dp52
g22
I0
ssg10
(dp53
S'slice.v.03'
p54
I2
ssg25
(dp55
g25
I0
ssg12
(dp56
g12
I0
ssg35
(dp57
g35
I0
ssg8
(dp58
g9
I1
sg15
I1
ssg31
(dp59
g32
I1
ssg30
(dp60
S'mug.n.04'
p61
I1
ssg11
(dp62
g12
I1
ssg29
(dp63
g29
I0
ssg9
(dp64
g9
I0
ssg28
(dp65
g29
I2
ssg15
(dp66
g15
I0
ssg27
(dp67
g27
I0
ssg26
(dp68
g27
I1
ssg16
(dp69
g17
I1
ssg17
(dp70
g17
I0
sssb.