ccopy_reg
_reconstructor
p0
(cutils.eval
ConfusionMatrix
p1
c__builtin__
object
p2
Ntp3
Rp4
(dp5
S'labels'
p6
(lp7
S'opening.n.01'
p8
aS'gap.n.01'
p9
aS'fill.v.09'
p10
aS'fill.v.01'
p11
aS'batter.n.02'
p12
aS'pan.n.01'
p13
aS'water.n.06'
p14
aS'cheese.n.01'
p15
aS'slice.v.03'
p16
aS'slice.v.02'
p17
aS'knife.n.01'
p18
aS'tongue.n.03'
p19
aS'banana.n.02'
p20
aS'banana.n.01'
p21
aS'piece.n.08'
p22
aS'cut.n.05'
p23
aS'pizza.n.01'
p24
aS'flesh.n.01'
p25
aS'tomato.n.01'
p26
aS'tomato.n.02'
p27
aS'onion.n.03'
p28
aS'onion.n.02'
p29
aS'mustard.n.02'
p30
aS'mustard.n.03'
p31
aS'pitcher.n.02'
p32
aS'pitcher.n.03'
p33
aS'milk.n.01'
p34
aS'slice.n.01'
p35
aS'slice.n.04'
p36
aS'kettle.n.01'
p37
aS'mug.n.04'
p38
aS'chump.n.01'
p39
aS'pulp.n.02'
p40
aS'mustard.n.01'
p41
aS'milk.n.04'
p42
aS'meet.v.04'
p43
aS'kettle.n.02'
p44
aS'gap.n.05'
p45
aS'pan.n.02'
p46
aS'water_system.n.02'
p47
aS'human_body.n.01'
p48
aS'foam.n.01'
p49
aS'gap.n.03'
p50
aS'batter.n.01'
p51
aS'knife.n.02'
p52
aS'countenance.n.03'
p53
aS'slice.n.05'
p54
aS'pitcher.n.05'
p55
aS'slice.n.06'
p56
aS'water.n.03'
p57
aS'pan.n.03'
p58
aS'catsup.n.01'
p59
asS'instanceCount'
p60
I224
sS'matrix'
p61
(dp62
g15
(dp63
g15
I8
sg35
I0
sS'slice.n.06'
p64
I0
sS'gap.n.03'
p65
I0
sg12
I0
sg42
I0
sg54
I0
sg46
I0
sg34
I0
sg13
I0
sg41
I0
sg30
I0
sg31
I0
sg53
I0
sg10
I0
sg27
I0
sg26
I0
sg11
I0
sg33
I0
sg32
I0
sg55
I0
sg23
I0
sg17
I0
sg16
I0
sg39
I0
sg18
I0
sg21
I0
sg20
I0
sg52
I0
sg43
I0
sg58
I0
sS'foam.n.01'
p66
I0
sg45
I0
sg59
I0
sg22
I0
sg8
I0
sg38
I0
sg25
I0
sg9
I0
sg47
I0
sg14
I0
sg36
I0
sg24
I0
sg44
I0
sg37
I0
sg40
I0
sg19
I0
sg28
I0
sg29
I0
ssg35
(dp67
S'cheese.n.01'
p68
I0
sS'milk.n.04'
p69
I0
sS'milk.n.01'
p70
I0
sS'pan.n.01'
p71
I0
sS'mustard.n.02'
p72
I0
sS'pan.n.02'
p73
I0
sS'fill.v.09'
p74
I0
sS'tomato.n.02'
p75
I0
sS'tomato.n.01'
p76
I0
sS'fill.v.01'
p77
I0
sS'pitcher.n.02'
p78
I0
sg55
I0
sS'slice.v.02'
p79
I0
sS'slice.v.03'
p80
I0
sg39
I0
sS'knife.n.01'
p81
I0
sS'banana.n.02'
p82
I0
sS'piece.n.08'
p83
I0
sg38
I0
sS'flesh.n.01'
p84
I0
sg35
I0
sS'water.n.06'
p85
I0
sg36
I0
sS'kettle.n.02'
p86
I0
sg37
I0
sS'tongue.n.03'
p87
I0
sS'onion.n.03'
p88
I0
sS'onion.n.02'
p89
I0
ssg56
(dp90
S'cheese.n.01'
p91
I0
sS'batter.n.02'
p92
I0
sS'milk.n.04'
p93
I0
sg66
I0
sS'milk.n.01'
p94
I0
sS'pan.n.01'
p95
I0
sS'mustard.n.02'
p96
I0
sS'gap.n.05'
p97
I0
sg65
I0
sS'fill.v.09'
p98
I0
sS'tomato.n.02'
p99
I0
sS'tomato.n.01'
p100
I0
sS'fill.v.01'
p101
I0
sS'pitcher.n.02'
p102
I0
sS'pitcher.n.05'
p103
I0
sS'slice.v.02'
p104
I0
sS'slice.v.03'
p105
I0
sS'chump.n.01'
p106
I0
sS'knife.n.01'
p107
I0
sS'banana.n.02'
p108
I0
sS'knife.n.02'
p109
I0
sS'meet.v.04'
p110
I0
sg58
I0
sS'human_body.n.01'
p111
I0
sS'pan.n.02'
p112
I0
sg59
I0
sS'piece.n.08'
p113
I0
sS'opening.n.01'
p114
I0
sS'mug.n.04'
p115
I0
sS'flesh.n.01'
p116
I0
sg57
I0
sg56
I0
sS'water.n.06'
p117
I0
sS'slice.n.04'
p118
I0
sS'pizza.n.01'
p119
I0
sS'kettle.n.02'
p120
I0
sS'kettle.n.01'
p121
I0
sS'onion.n.03'
p122
I0
sS'onion.n.02'
p123
I0
ssg12
(dp124
g15
I0
sg54
I0
sg56
I0
sg12
I7
sg51
I1
sg42
I0
sg49
I0
sg46
I0
sg34
I0
sg13
I0
sg41
I0
sg30
I0
sg31
I0
sg50
I0
sg10
I0
sg27
I0
sg26
I0
sg11
I0
sg33
I0
sg32
I0
sg103
I0
sg23
I0
sg17
I0
sg16
I0
sg106
I0
sg18
I0
sg21
I0
sg20
I0
sg52
I0
sg43
I0
sg58
I0
sg48
I0
sg45
I0
sg59
I0
sg22
I0
sg53
I0
sg8
I0
sS'mug.n.04'
p125
I0
sg25
I0
sg57
I0
sg9
I0
sg47
I0
sg14
I0
sS'slice.n.04'
p126
I0
sg24
I0
sg44
I0
sS'kettle.n.01'
p127
I0
sg40
I0
sg19
I0
sg28
I0
sg29
I0
ssg51
(dp128
S'batter.n.02'
p129
I0
sg51
I0
sg49
I0
sS'milk.n.01'
p130
I0
sS'mustard.n.01'
p131
I0
sS'mustard.n.02'
p132
I0
sg50
I0
sS'fill.v.09'
p133
I0
sS'tomato.n.01'
p134
I0
sS'fill.v.01'
p135
I0
sS'pitcher.n.02'
p136
I0
sS'slice.v.02'
p137
I0
sS'slice.v.03'
p138
I0
sS'knife.n.01'
p139
I0
sS'banana.n.02'
p140
I0
sg48
I0
sS'piece.n.08'
p141
I0
sS'opening.n.01'
p142
I0
sS'mug.n.04'
p143
I0
sS'flesh.n.01'
p144
I0
sS'water_system.n.02'
p145
I0
sS'water.n.06'
p146
I0
sS'slice.n.04'
p147
I0
sS'pizza.n.01'
p148
I0
sS'kettle.n.01'
p149
I0
sS'tongue.n.03'
p150
I0
sS'onion.n.03'
p151
I0
sS'onion.n.02'
p152
I0
ssg42
(dp153
S'cheese.n.01'
p154
I0
sS'slice.n.01'
p155
I0
sg56
I0
sS'batter.n.02'
p156
I0
sg42
I0
sS'milk.n.01'
p157
I0
sS'pan.n.01'
p158
I0
sg41
I0
sS'mustard.n.02'
p159
I0
sg45
I0
sg53
I0
sS'fill.v.09'
p160
I0
sS'tomato.n.02'
p161
I0
sS'tomato.n.01'
p162
I0
sS'fill.v.01'
p163
I0
sS'pitcher.n.03'
p164
I0
sS'pitcher.n.02'
p165
I0
sg55
I0
sS'slice.v.02'
p166
I0
sS'slice.v.03'
p167
I0
sS'knife.n.01'
p168
I0
sS'banana.n.02'
p169
I0
sg52
I0
sg43
I0
sg111
I0
sg46
I0
sS'piece.n.08'
p170
I0
sS'opening.n.01'
p171
I0
sg125
I0
sS'flesh.n.01'
p172
I0
sg57
I0
sS'gap.n.01'
p173
I0
sg47
I0
sS'water.n.06'
p174
I0
sg126
I0
sg54
I0
sg44
I0
sg127
I0
sg40
I0
sS'tongue.n.03'
p175
I0
sS'onion.n.03'
p176
I0
sS'onion.n.02'
p177
I0
ssg49
(dp178
g91
I0
sS'slice.n.05'
p179
I0
sg64
I0
sg129
I0
sg51
I0
sg49
I3
sg130
I0
sS'pan.n.01'
p180
I0
sg131
I0
sg132
I0
sg50
I0
sg133
I0
sS'tomato.n.02'
p181
I0
sg134
I0
sg135
I0
sg136
I0
sg137
I0
sg138
I0
sg106
I0
sg139
I0
sg140
I0
sg109
I0
sg58
I0
sg48
I0
sg59
I0
sg141
I0
sg142
I0
sg143
I0
sg144
I0
sg145
I0
sg146
I0
sg147
I0
sg148
I0
sg149
I0
sg150
I0
sg151
I0
sg152
I0
ssg46
(dp182
g154
I0
sg155
I0
sg56
I0
sg156
I0
sg42
I0
sg157
I0
sg158
I0
sg41
I0
sg159
I0
sg46
I0
sg53
I0
sg160
I0
sg161
I0
sg162
I0
sg163
I0
sg164
I0
sg165
I0
sg55
I0
sg166
I0
sg167
I0
sg168
I0
sg169
I0
sg52
I0
sg43
I0
sg111
I0
sg45
I0
sg170
I0
sg171
I0
sg125
I0
sg172
I0
sg57
I0
sg173
I0
sg47
I0
sg174
I0
sg126
I0
sg54
I0
sg44
I0
sg127
I0
sg40
I0
sg175
I0
sg176
I0
sg177
I0
ssg34
(dp183
g15
I0
sg35
I0
sg56
I0
sg12
I0
sg51
I0
sg42
I5
sg49
I0
sg46
I0
sg34
I3
sg13
I0
sg41
I0
sg30
I0
sg31
I0
sg50
I0
sg10
I0
sg27
I0
sg26
I0
sg11
I0
sg33
I0
sg32
I0
sg54
I0
sg55
I0
sg23
I0
sg17
I0
sg16
I0
sg39
I0
sg18
I0
sg21
I0
sg20
I0
sg52
I0
sg43
I0
sg48
I0
sg45
I0
sg22
I0
sg53
I0
sg8
I0
sg38
I0
sg25
I0
sg57
I0
sg9
I0
sg47
I0
sg14
I0
sg36
I0
sg24
I0
sg44
I0
sg37
I0
sg40
I0
sg19
I0
sg28
I0
sg29
I0
ssg13
(dp184
g15
I0
sg155
I0
sg56
I0
sg65
I0
sg12
I0
sg42
I0
sg54
I0
sg46
I5
sg34
I0
sg13
I1
sg41
I0
sg30
I0
sg31
I0
sg53
I0
sg10
I0
sg27
I0
sg26
I0
sg11
I0
sg33
I0
sg32
I0
sg55
I0
sg23
I0
sg17
I0
sg16
I0
sg106
I0
sg18
I0
sg21
I0
sg20
I0
sg52
I0
sg43
I0
sg58
I2
sg66
I0
sg111
I0
sg45
I0
sg59
I0
sg22
I0
sg8
I0
sg125
I0
sg25
I0
sg57
I0
sg9
I0
sg47
I0
sg14
I0
sg126
I0
sg24
I0
sg44
I0
sg127
I0
sg40
I0
sg19
I0
sg28
I0
sg29
I0
ssg41
(dp185
g154
I0
sg156
I0
sg51
I0
sg42
I0
sg49
I0
sg157
I0
sg158
I0
sg41
I0
sg159
I0
sg45
I0
sg50
I0
sg160
I0
sg161
I0
sg162
I0
sg163
I0
sg164
I0
sg165
I0
sg137
I0
sg167
I0
sg139
I0
sg140
I0
sg52
I0
sg43
I0
sg48
I0
sg46
I0
sg170
I0
sg171
I0
sg125
I0
sg172
I0
sg47
I0
sg174
I0
sg126
I0
sg148
I0
sg44
I0
sg127
I0
sg40
I0
sg150
I0
sg176
I0
sg177
I0
ssg30
(dp186
g15
I0
sg35
I0
sg56
I0
sg12
I0
sg51
I0
sg42
I0
sg49
I0
sg46
I0
sg34
I0
sg13
I0
sg41
I3
sg30
I4
sg31
I1
sg50
I0
sg10
I0
sg27
I0
sg26
I0
sg11
I0
sg33
I0
sg32
I0
sg55
I0
sg23
I0
sg17
I0
sg16
I0
sg39
I0
sg18
I0
sg21
I0
sg20
I0
sg52
I0
sg43
I0
sg58
I0
sg48
I0
sg45
I0
sg59
I0
sg22
I0
sg8
I0
sg38
I0
sg25
I0
sg57
I0
sg9
I0
sg47
I0
sg14
I0
sg36
I0
sg24
I0
sg44
I0
sg37
I0
sg40
I0
sg19
I0
sg28
I0
sg29
I0
ssg31
(dp187
g15
I0
sg12
I0
sg34
I0
sg13
I0
sg30
I0
sg31
I0
sg10
I0
sg27
I0
sg26
I0
sg11
I0
sg33
I0
sg32
I0
sg23
I0
sg17
I0
sg16
I0
sg18
I0
sg21
I0
sg20
I0
sg22
I0
sg8
I0
sg25
I0
sg9
I0
sg14
I0
sg24
I0
sg19
I0
sg28
I0
sg29
I0
ssg50
(dp188
g91
I0
sg179
I0
sg64
I0
sg129
I0
sg51
I0
sg49
I0
sg130
I0
sg180
I0
sg131
I0
sg132
I0
sg50
I0
sg133
I0
sg181
I0
sg134
I0
sg135
I0
sg136
I0
sg137
I0
sg138
I0
sg106
I0
sg139
I0
sg140
I0
sg109
I0
sg58
I0
sg48
I0
sg59
I0
sg141
I0
sg142
I0
sg143
I0
sg144
I0
sg145
I0
sg146
I0
sg147
I0
sg148
I0
sg149
I0
sg150
I0
sg151
I0
sg152
I0
ssg10
(dp189
g15
I0
sg35
I0
sg56
I0
sg12
I0
sg51
I0
sg42
I0
sg49
I0
sg46
I0
sg34
I0
sg13
I0
sg41
I0
sg30
I0
sg31
I0
sg50
I0
sg9
I0
sg27
I0
sg26
I0
sg11
I4
sg33
I0
sg32
I0
sg54
I0
sg55
I0
sg23
I0
sg17
I0
sg16
I0
sg39
I0
sg18
I0
sg21
I0
sg20
I0
sg52
I0
sg43
I0
sg58
I0
sg48
I0
sg45
I0
sg59
I0
sg22
I0
sg53
I0
sg8
I0
sg38
I0
sg25
I0
sg57
I0
sg10
I4
sg47
I0
sg14
I0
sg36
I0
sg24
I0
sg44
I0
sg37
I0
sg40
I0
sg19
I0
sg28
I0
sg29
I0
ssg27
(dp190
g15
I0
sg35
I0
sg56
I0
sg12
I0
sS'milk.n.04'
p191
I0
sg66
I0
sS'pan.n.02'
p192
I0
sg34
I0
sg13
I0
sS'mustard.n.01'
p193
I0
sg30
I0
sg31
I0
sg65
I0
sg10
I0
sg27
I0
sg26
I0
sg11
I0
sg33
I0
sg32
I0
sg103
I0
sg23
I0
sg17
I0
sg16
I0
sg39
I0
sg18
I0
sg21
I0
sg20
I0
sg52
I0
sS'meet.v.04'
p194
I0
sg58
I0
sg111
I0
sS'gap.n.05'
p195
I0
sg59
I0
sg22
I0
sg8
I0
sg38
I0
sg25
I0
sg57
I0
sg9
I0
sS'water_system.n.02'
p196
I0
sg14
I0
sg36
I0
sg24
I0
sS'kettle.n.02'
p197
I0
sg37
I0
sg19
I0
sg28
I0
sg29
I0
ssg26
(dp198
g15
I0
sg35
I0
sg56
I0
sg12
I0
sg51
I0
sg42
I0
sg49
I0
sg46
I0
sg34
I0
sg13
I0
sg41
I0
sg30
I0
sg31
I0
sg50
I0
sg10
I0
sg27
I5
sg26
I3
sg11
I0
sg33
I0
sg32
I0
sg55
I0
sg23
I0
sg17
I0
sg16
I0
sg39
I0
sg18
I0
sg21
I0
sg20
I0
sg52
I0
sg43
I0
sg58
I0
sg48
I0
sg45
I0
sg59
I0
sg22
I0
sg8
I0
sg38
I0
sg25
I0
sg57
I0
sg9
I0
sg47
I0
sg14
I0
sg36
I0
sg24
I0
sg44
I0
sg37
I0
sg40
I0
sg19
I0
sg28
I0
sg29
I0
ssg11
(dp199
g15
I0
sg35
I0
sg56
I0
sg12
I0
sg51
I0
sg42
I0
sg49
I0
sg46
I0
sg34
I0
sg13
I0
sg41
I0
sg30
I0
sg31
I0
sg50
I0
sg10
I17
sg27
I0
sg26
I0
sg11
I11
sg33
I0
sg32
I0
sg54
I0
sg55
I0
sg23
I0
sg17
I0
sg16
I0
sg39
I0
sg18
I0
sg21
I0
sg20
I0
sg52
I0
sg43
I4
sg58
I0
sg48
I0
sg45
I0
sg59
I0
sg22
I0
sg53
I0
sg8
I0
sg38
I0
sg25
I0
sg57
I0
sg9
I0
sg47
I0
sg14
I0
sg36
I0
sg24
I0
sg44
I0
sg37
I0
sg40
I0
sg19
I0
sg28
I0
sg29
I0
ssg33
(dp200
g15
I0
sg12
I0
sg42
I0
sg54
I0
sg46
I0
sg34
I0
sg13
I0
sg41
I0
sg30
I0
sg31
I0
sg53
I0
sg10
I0
sg27
I0
sg26
I0
sg11
I0
sg33
I0
sg32
I0
sg23
I0
sg17
I0
sg16
I0
sg18
I0
sg21
I0
sg20
I0
sg52
I0
sg43
I0
sg45
I0
sg22
I0
sg8
I0
sg125
I0
sg25
I0
sg9
I0
sg47
I0
sg14
I0
sg126
I0
sg24
I0
sg44
I0
sg127
I0
sg40
I0
sg19
I0
sg28
I0
sg29
I0
ssg32
(dp201
g15
I0
sg35
I0
sg56
I0
sg12
I0
sg51
I0
sg42
I0
sg49
I0
sg46
I0
sg34
I0
sg13
I0
sg41
I0
sg30
I0
sg31
I0
sg50
I0
sg10
I0
sg27
I0
sg26
I0
sg11
I0
sg33
I4
sg32
I2
sg54
I0
sg55
I2
sg23
I0
sg17
I0
sg16
I0
sg39
I0
sg18
I0
sg21
I0
sg20
I0
sg52
I0
sg43
I0
sg48
I0
sg45
I0
sg22
I0
sg53
I0
sg8
I0
sg38
I0
sg25
I0
sg57
I0
sg9
I0
sg47
I0
sg14
I0
sg36
I0
sg24
I0
sg44
I0
sg37
I0
sg40
I0
sg19
I0
sg28
I0
sg29
I0
ssg54
(dp202
S'cheese.n.01'
p203
I0
sS'gap.n.03'
p204
I0
sS'pizza.n.01'
p205
I0
sS'batter.n.02'
p206
I0
sS'milk.n.04'
p207
I0
sS'foam.n.01'
p208
I0
sS'milk.n.01'
p209
I0
sS'pan.n.01'
p210
I0
sS'pan.n.03'
p211
I0
sS'pan.n.02'
p212
I0
sS'banana.n.02'
p213
I0
sS'fill.v.09'
p214
I0
sS'fill.v.01'
p215
I0
sS'pitcher.n.03'
p216
I0
sS'pitcher.n.02'
p217
I0
sS'slice.v.02'
p218
I0
sS'slice.v.03'
p219
I0
sS'knife.n.01'
p220
I0
sg53
I0
sS'knife.n.02'
p221
I0
sS'meet.v.04'
p222
I0
sS'piece.n.08'
p223
I0
sS'opening.n.01'
p224
I0
sS'mug.n.04'
p225
I0
sS'flesh.n.01'
p226
I0
sg173
I0
sS'water_system.n.02'
p227
I0
sS'water.n.06'
p228
I0
sg54
I0
sS'kettle.n.02'
p229
I0
sS'kettle.n.01'
p230
I0
sg175
I0
ssg55
(dp231
S'cheese.n.01'
p232
I0
sg92
I0
sg69
I0
sS'milk.n.01'
p233
I0
sg71
I0
sS'mustard.n.02'
p234
I0
sg73
I0
sS'fill.v.09'
p235
I0
sg99
I0
sS'tomato.n.01'
p236
I0
sS'fill.v.01'
p237
I0
sS'pitcher.n.02'
p238
I0
sg55
I0
sS'slice.v.02'
p239
I0
sS'slice.v.03'
p240
I0
sS'knife.n.01'
p241
I0
sS'banana.n.02'
p242
I0
sg110
I0
sg111
I0
sg97
I0
sS'piece.n.08'
p243
I0
sg114
I0
sg115
I0
sS'flesh.n.01'
p244
I0
sg57
I0
sg155
I0
sg56
I0
sS'water.n.06'
p245
I0
sS'slice.n.04'
p246
I0
sg86
I0
sS'kettle.n.01'
p247
I0
sS'tongue.n.03'
p248
I0
sS'onion.n.03'
p249
I0
sS'onion.n.02'
p250
I0
ssg23
(dp251
g15
I0
sg12
I0
sg34
I0
sg13
I0
sg30
I0
sg31
I0
sg10
I0
sg27
I0
sg26
I0
sg11
I0
sg33
I0
sg32
I0
sg23
I0
sg17
I0
sg16
I0
sg18
I0
sg21
I0
sg20
I0
sg22
I0
sg8
I0
sg25
I0
sg9
I0
sg14
I0
sg24
I0
sg19
I0
sg28
I0
sg29
I0
ssg17
(dp252
g15
I0
sg35
I0
sg64
I0
sg12
I0
sg51
I0
sg191
I0
sg49
I0
sg192
I0
sg34
I0
sg13
I0
sg131
I0
sg30
I0
sg31
I0
sg50
I0
sg10
I0
sg27
I0
sg26
I0
sg11
I0
sg33
I0
sg32
I0
sg54
I0
sg55
I0
sg23
I0
sg17
I0
sg16
I0
sg39
I0
sg18
I0
sg21
I0
sg20
I0
sg52
I0
sg194
I0
sg58
I0
sg48
I0
sg195
I0
sg59
I0
sg22
I0
sg53
I0
sg8
I0
sg38
I0
sg25
I0
sg9
I0
sg145
I0
sg14
I0
sg36
I0
sg24
I0
sg197
I0
sg37
I0
sg19
I0
sg28
I0
sg29
I0
ssg16
(dp253
g15
I0
sg35
I0
sg56
I0
sg12
I0
sg51
I0
sg42
I0
sg49
I0
sg46
I0
sg34
I0
sg13
I0
sg41
I0
sg30
I0
sg31
I0
sg50
I0
sg10
I0
sg27
I0
sg26
I0
sg11
I0
sg33
I0
sg32
I0
sg54
I0
sg55
I0
sg23
I0
sg17
I24
sg16
I8
sg39
I0
sg18
I0
sg21
I0
sg20
I0
sg52
I0
sg43
I0
sg58
I0
sg48
I0
sg45
I0
sg59
I0
sg22
I0
sg53
I0
sg8
I0
sg38
I0
sg25
I0
sg57
I0
sg9
I0
sg47
I0
sg14
I0
sg36
I0
sg24
I0
sg44
I0
sg37
I0
sg40
I0
sg19
I0
sg28
I0
sg29
I0
ssg39
(dp254
g68
I0
sS'batter.n.02'
p255
I0
sg66
I0
sg70
I0
sg180
I0
sg72
I0
sg65
I0
sg74
I0
sg75
I0
sg76
I0
sg77
I0
sg78
I0
sg79
I0
sg80
I0
sg39
I0
sg81
I0
sg82
I0
sg109
I0
sg58
I0
sg59
I0
sg83
I0
sS'opening.n.01'
p256
I0
sg38
I0
sg84
I0
sg35
I0
sg64
I0
sg85
I0
sg36
I0
sg119
I0
sg37
I0
sg87
I0
sg88
I0
sg89
I0
ssg18
(dp257
g15
I0
sg35
I0
sg64
I0
sg12
I0
sg51
I0
sg191
I0
sg49
I0
sg192
I0
sg34
I0
sg13
I0
sg131
I0
sg30
I0
sg31
I0
sg50
I0
sg10
I0
sg27
I0
sg26
I0
sg11
I0
sg33
I0
sg32
I0
sg54
I0
sg55
I0
sg23
I0
sg17
I0
sg16
I0
sg39
I0
sg18
I0
sg21
I0
sg20
I0
sg52
I3
sg194
I0
sg58
I0
sg48
I0
sg195
I0
sg59
I0
sg22
I0
sg53
I0
sg8
I0
sg38
I0
sg25
I0
sg9
I0
sg145
I0
sg14
I0
sg36
I0
sg24
I0
sg197
I0
sg37
I0
sg19
I5
sg28
I0
sg29
I0
ssg21
(dp258
g15
I0
sg12
I0
sg34
I0
sg13
I0
sg30
I0
sg31
I0
sg10
I0
sg27
I0
sg26
I0
sg11
I0
sg33
I0
sg32
I0
sg23
I0
sg17
I0
sg16
I0
sg18
I0
sg21
I0
sg20
I0
sg22
I0
sg8
I0
sg25
I0
sg9
I0
sg14
I0
sg24
I0
sg19
I0
sg28
I0
sg29
I0
ssg20
(dp259
g15
I0
sg35
I0
sg64
I0
sg12
I0
sg51
I0
sg191
I0
sg49
I0
sg192
I0
sg34
I0
sg13
I0
sg131
I0
sg30
I0
sg31
I0
sg50
I0
sg10
I0
sg27
I0
sg26
I0
sg11
I0
sg33
I0
sg32
I0
sg54
I0
sg55
I0
sg23
I0
sg17
I0
sg16
I0
sg39
I0
sg18
I0
sg21
I1
sg20
I7
sg52
I0
sg194
I0
sg58
I0
sg48
I0
sg195
I0
sg59
I0
sg22
I0
sg53
I0
sg8
I0
sg38
I0
sg25
I0
sg9
I0
sg145
I0
sg14
I0
sg36
I0
sg24
I0
sg197
I0
sg37
I0
sg19
I0
sg28
I0
sg29
I0
ssg52
(dp260
S'cheese.n.01'
p261
I0
sg179
I0
sg64
I0
sS'batter.n.02'
p262
I0
sg191
I0
sg66
I0
sS'milk.n.01'
p263
I0
sS'pan.n.01'
p264
I0
sg193
I0
sS'mustard.n.02'
p265
I0
sg195
I0
sg65
I0
sS'fill.v.09'
p266
I0
sg161
I0
sS'tomato.n.01'
p267
I0
sS'fill.v.01'
p268
I0
sS'pitcher.n.03'
p269
I0
sS'pitcher.n.02'
p270
I0
sg166
I0
sS'slice.v.03'
p271
I0
sg106
I0
sg168
I0
sg169
I0
sg52
I0
sg194
I0
sg58
I0
sg192
I0
sg59
I0
sS'piece.n.08'
p272
I0
sS'opening.n.01'
p273
I0
sS'mug.n.04'
p274
I0
sS'flesh.n.01'
p275
I0
sg196
I0
sS'water.n.06'
p276
I0
sS'slice.n.04'
p277
I0
sg119
I0
sg197
I0
sS'kettle.n.01'
p278
I0
sS'onion.n.03'
p279
I0
sS'onion.n.02'
p280
I0
ssg43
(dp281
g154
I0
sg56
I0
sg156
I0
sg42
I0
sg157
I0
sg158
I0
sg41
I0
sg159
I0
sg45
I0
sg53
I0
sg160
I0
sg161
I0
sg162
I0
sg163
I0
sg164
I0
sg165
I0
sg103
I0
sg166
I0
sg167
I0
sg168
I0
sg169
I0
sg52
I0
sg43
I0
sg111
I0
sg46
I0
sg170
I0
sg171
I0
sg125
I0
sg172
I0
sg57
I0
sg173
I0
sg47
I0
sg174
I0
sg126
I0
sg54
I0
sg44
I0
sg127
I0
sg40
I0
sg175
I0
sg176
I0
sg177
I0
ssg58
(dp282
g91
I0
sg179
I0
sg255
I0
sg66
I0
sg180
I0
sg58
I0
sg65
I0
sS'fill.v.09'
p283
I0
sg181
I0
sS'tomato.n.01'
p284
I0
sS'fill.v.01'
p285
I0
sg104
I0
sS'slice.v.03'
p286
I0
sg106
I0
sg107
I0
sg108
I0
sg109
I0
sS'mustard.n.02'
p287
I0
sg59
I0
sS'piece.n.08'
p288
I0
sg256
I0
sS'mug.n.04'
p289
I0
sg275
I0
sg64
I0
sS'water.n.06'
p290
I0
sg119
I0
sS'kettle.n.01'
p291
I0
sS'onion.n.03'
p292
I0
ssg48
(dp293
g56
I0
sg129
I0
sg51
I0
sg93
I0
sg49
I0
sg130
I0
sg95
I0
sg131
I0
sg132
I0
sg97
I0
sg50
I0
sg133
I0
sg99
I0
sg134
I0
sg135
I0
sg136
I0
sg103
I0
sg137
I0
sg138
I0
sg139
I0
sg140
I0
sg110
I0
sg48
I0
sg112
I0
sg141
I0
sg142
I0
sg143
I0
sg144
I0
sg57
I0
sg145
I0
sg146
I0
sg147
I0
sg148
I0
sg120
I0
sg149
I0
sg150
I0
sg151
I0
sg152
I0
ssg45
(dp294
g154
I0
sg56
I0
sg156
I0
sg42
I0
sg157
I0
sg158
I0
sg41
I0
sg159
I0
sg45
I0
sg160
I0
sg161
I0
sg162
I0
sg163
I0
sg164
I0
sg165
I0
sg103
I0
sg166
I0
sg167
I0
sg168
I0
sg169
I0
sg52
I0
sg43
I0
sg111
I0
sg46
I0
sg170
I0
sg171
I0
sg125
I0
sg172
I0
sg57
I0
sg47
I0
sg174
I0
sg126
I0
sg44
I0
sg127
I0
sg40
I0
sg176
I0
sg177
I0
ssg59
(dp295
g91
I0
sg255
I0
sg66
I0
sg180
I0
sg58
I0
sg65
I0
sg283
I0
sg181
I0
sg284
I0
sg285
I0
sg104
I0
sg286
I0
sg106
I0
sg107
I0
sg108
I0
sg109
I0
sg287
I0
sg59
I1
sg288
I0
sg256
I0
sg289
I0
sg275
I0
sg64
I0
sg290
I0
sg119
I0
sg292
I0
ssg22
(dp296
g15
I0
sg35
I2
sg56
I3
sg12
I0
sg51
I0
sg42
I0
sg49
I0
sg46
I0
sg34
I0
sg13
I0
sg41
I0
sg30
I0
sg31
I0
sg50
I0
sg10
I0
sg27
I0
sg26
I0
sg11
I0
sg33
I0
sg32
I0
sg54
I2
sg55
I0
sg23
I2
sg17
I0
sg16
I0
sg39
I0
sg18
I0
sg21
I0
sg20
I0
sg52
I0
sg43
I0
sg58
I0
sg48
I0
sg45
I0
sg59
I0
sg22
I0
sg53
I0
sg8
I0
sg38
I0
sg25
I0
sg57
I0
sg9
I0
sg47
I0
sg14
I0
sg36
I7
sg24
I0
sg44
I0
sg37
I0
sg40
I0
sg19
I0
sg28
I0
sg29
I0
ssg53
(dp297
g203
I0
sg206
I0
sg207
I0
sg209
I0
sg210
I0
sg212
I0
sg213
I0
sg214
I0
sg215
I0
sg216
I0
sg217
I0
sg218
I0
sg219
I0
sg220
I0
sg53
I0
sg222
I0
sg223
I0
sg224
I0
sg225
I0
sg173
I0
sg227
I0
sg228
I0
sg54
I0
sg229
I0
sg230
I0
sg175
I0
ssg8
(dp298
g15
I0
sg54
I0
sg56
I0
sg12
I0
sg51
I0
sg42
I0
sg49
I0
sg46
I0
sg34
I0
sg13
I0
sg41
I0
sg30
I0
sg31
I0
sg50
I3
sg10
I0
sg27
I0
sg26
I0
sg11
I0
sg33
I0
sg32
I0
sg103
I0
sg23
I0
sg17
I0
sg16
I0
sg106
I0
sg18
I0
sg21
I0
sg20
I0
sg52
I0
sg43
I0
sg58
I0
sg48
I0
sg45
I3
sg59
I0
sg22
I0
sg53
I0
sg8
I0
sg125
I0
sg25
I0
sg57
I0
sg9
I2
sg47
I0
sg14
I0
sg126
I0
sg24
I0
sg44
I0
sg127
I0
sg40
I0
sg19
I0
sg28
I0
sg29
I0
ssg38
(dp299
g68
I0
sg54
I0
sg56
I0
sg156
I0
sg51
I0
sg42
I0
sg49
I0
sg70
I0
sg158
I0
sg41
I0
sg72
I0
sg45
I0
sg50
I0
sg74
I0
sg75
I0
sg76
I0
sg77
I0
sg164
I0
sg78
I0
sg103
I0
sg173
I0
sg79
I0
sg80
I0
sg39
I2
sg81
I0
sg82
I0
sg52
I0
sg43
I0
sg58
I0
sg48
I0
sg46
I0
sg59
I0
sg83
I0
sg53
I1
sg171
I0
sg38
I5
sg84
I0
sg57
I0
sg35
I0
sg47
I0
sg85
I0
sg36
I0
sg148
I0
sg44
I0
sg37
I0
sg40
I0
sg87
I0
sg88
I0
sg89
I0
ssg25
(dp300
g15
I0
sg35
I0
sg56
I0
sg12
I0
sg51
I0
sg42
I0
sg49
I0
sg46
I0
sg34
I0
sg13
I0
sg41
I0
sg30
I0
sg31
I0
sg50
I0
sg10
I0
sg27
I0
sg26
I0
sg11
I0
sg33
I0
sg32
I0
sg179
I0
sg55
I0
sg23
I0
sg17
I0
sg16
I0
sg39
I0
sg18
I0
sg21
I0
sg20
I0
sg109
I0
sg43
I0
sg58
I0
sg48
I2
sg45
I0
sg59
I0
sg22
I0
sg8
I0
sg38
I0
sg25
I5
sg57
I0
sg9
I0
sg47
I0
sg14
I0
sg36
I0
sg24
I0
sg44
I0
sg37
I0
sg40
I1
sg19
I0
sg28
I0
sg29
I0
ssg57
(dp301
g92
I0
sg93
I0
sg94
I0
sg95
I0
sg96
I0
sg97
I0
sg98
I0
sg99
I0
sg100
I0
sg101
I0
sg102
I0
sg103
I0
sg105
I0
sg110
I0
sg111
I0
sg112
I0
sg113
I0
sg114
I0
sg115
I0
sg116
I0
sg57
I0
sg56
I0
sg117
I0
sg118
I0
sg120
I0
sg121
I0
sg122
I0
sg123
I0
ssg9
(dp302
g15
I0
sg12
I0
sg207
I0
sg54
I0
sg34
I0
sg13
I0
sg30
I0
sg31
I0
sg53
I0
sg10
I0
sg27
I0
sg26
I0
sg11
I0
sg33
I0
sg32
I0
sg23
I0
sg17
I0
sg16
I0
sg18
I0
sg21
I0
sg20
I0
sg222
I0
sg212
I0
sg22
I0
sg8
I0
sg225
I0
sg25
I0
sg9
I0
sg227
I0
sg14
I0
sg24
I0
sg229
I0
sg230
I0
sg19
I0
sg28
I0
sg29
I0
ssg47
(dp303
g154
I0
sg54
I0
sg156
I0
sg51
I0
sg42
I0
sg49
I0
sg157
I0
sg158
I0
sg41
I0
sg159
I0
sg45
I0
sg50
I0
sg160
I0
sg161
I0
sg162
I0
sg163
I0
sg164
I0
sg165
I0
sg137
I0
sg167
I0
sg139
I0
sg140
I0
sg52
I0
sg43
I0
sg48
I0
sg46
I0
sg170
I0
sg53
I0
sg171
I0
sg125
I0
sg172
I0
sg173
I0
sg47
I0
sg174
I0
sg126
I0
sg148
I0
sg44
I0
sg127
I0
sg40
I0
sg150
I0
sg176
I0
sg177
I0
ssg14
(dp304
g15
I0
sg35
I0
sg56
I0
sg12
I0
sg51
I0
sg42
I0
sg49
I0
sg46
I0
sg34
I0
sg13
I0
sg41
I0
sg30
I0
sg31
I0
sg50
I0
sg10
I0
sg27
I0
sg26
I0
sg11
I0
sg33
I0
sg32
I0
sg54
I0
sg55
I0
sg23
I0
sg17
I0
sg16
I0
sg39
I0
sg18
I0
sg21
I0
sg20
I0
sg52
I0
sg43
I0
sg58
I0
sg48
I0
sg45
I0
sg59
I0
sg22
I0
sg53
I0
sg8
I0
sg38
I0
sg25
I0
sg57
I2
sg9
I0
sg47
I4
sg14
I10
sg36
I0
sg24
I0
sg44
I0
sg37
I0
sg40
I0
sg19
I0
sg28
I0
sg29
I0
ssg36
(dp305
g68
I0
sg56
I0
sg156
I0
sg51
I0
sg42
I0
sg49
I0
sg70
I0
sg158
I0
sg41
I0
sg72
I0
sg45
I0
sg50
I0
sg74
I0
sg75
I0
sg76
I0
sg77
I0
sg164
I0
sg78
I0
sg55
I0
sg79
I0
sg80
I0
sg39
I0
sg81
I0
sg82
I0
sg52
I0
sg43
I0
sg48
I0
sg46
I0
sg83
I0
sg171
I0
sg38
I0
sg84
I0
sg57
I0
sg35
I0
sg47
I0
sg85
I0
sg36
I0
sg148
I0
sg44
I0
sg37
I0
sg40
I0
sg87
I0
sg88
I0
sg89
I0
ssg24
(dp306
g15
I0
sg179
I0
sg64
I0
sg12
I0
sg51
I0
sg49
I0
sg34
I0
sg13
I0
sg131
I0
sg30
I0
sg31
I0
sg50
I0
sg10
I0
sg27
I0
sg26
I0
sg11
I0
sg33
I0
sg32
I0
sg23
I0
sg17
I0
sg16
I0
sg106
I0
sg18
I0
sg21
I0
sg20
I0
sg109
I0
sg58
I0
sg48
I0
sg59
I0
sg22
I0
sg8
I0
sg143
I0
sg25
I0
sg9
I0
sg145
I0
sg14
I0
sg147
I0
sg24
I4
sg149
I0
sg19
I0
sg28
I0
sg29
I0
ssg44
(dp307
g154
I0
sg155
I0
sg56
I0
sg156
I0
sg42
I0
sg157
I0
sg158
I0
sg41
I0
sg159
I0
sg45
I0
sg53
I0
sg160
I0
sg161
I0
sg162
I0
sg163
I0
sg164
I0
sg165
I0
sg55
I0
sg166
I0
sg167
I0
sg168
I0
sg169
I0
sg52
I0
sg43
I0
sg111
I0
sg46
I0
sg170
I0
sg171
I0
sg125
I0
sg172
I0
sg57
I0
sg173
I0
sg47
I0
sg174
I0
sg126
I0
sg54
I0
sg44
I0
sg127
I0
sg40
I0
sg175
I0
sg176
I0
sg177
I0
ssg37
(dp308
g68
I0
sg54
I0
sg56
I0
sg156
I0
sg51
I0
sg42
I0
sg49
I0
sg70
I0
sg158
I0
sg41
I0
sg72
I0
sg45
I0
sg50
I0
sg74
I0
sg75
I0
sg76
I0
sg77
I0
sg164
I0
sg78
I0
sg55
I0
sg173
I0
sg79
I0
sg80
I0
sg39
I0
sg81
I0
sg82
I0
sg52
I0
sg43
I0
sg211
I0
sg48
I0
sg46
I0
sg83
I0
sg53
I0
sg171
I0
sg38
I0
sg84
I0
sg57
I0
sg35
I0
sg47
I0
sg85
I0
sg36
I0
sg148
I0
sg44
I5
sg37
I3
sg40
I0
sg87
I0
sg88
I0
sg89
I0
ssg40
(dp309
g154
I0
sg156
I0
sg42
I0
sg157
I0
sg158
I0
sg41
I0
sg159
I0
sg45
I0
sg160
I0
sg162
I0
sg163
I0
sg164
I0
sg165
I0
sg167
I0
sg43
I0
sg46
I0
sg170
I0
sg171
I0
sg125
I0
sg172
I0
sg47
I0
sg174
I0
sg126
I0
sg44
I0
sg127
I0
sg40
I0
sg176
I0
sg177
I0
ssg19
(dp310
g15
I0
sg35
I0
sg12
I0
sg51
I0
sg207
I0
sg49
I0
sg34
I0
sg13
I0
sg131
I0
sg30
I0
sg31
I0
sg50
I0
sg10
I0
sg27
I0
sg26
I0
sg11
I0
sg33
I0
sg32
I0
sg54
I0
sg55
I0
sg23
I0
sg17
I0
sg16
I0
sg39
I0
sg18
I0
sg21
I0
sg20
I0
sg222
I0
sg48
I0
sg212
I0
sg22
I0
sg53
I0
sg8
I0
sg38
I0
sg25
I0
sg9
I0
sg145
I0
sg14
I0
sg36
I0
sg24
I0
sg229
I0
sg37
I0
sg19
I0
sg28
I0
sg29
I0
ssg28
(dp311
g15
I0
sg35
I0
sg56
I0
sg12
I0
sg51
I0
sg42
I0
sg49
I0
sg46
I0
sg34
I0
sg13
I0
sg41
I0
sg30
I0
sg31
I0
sg50
I0
sg10
I0
sg27
I0
sg26
I0
sg11
I0
sg33
I0
sg32
I0
sg55
I0
sg23
I0
sg17
I0
sg16
I0
sg39
I0
sg18
I0
sg21
I0
sg20
I0
sg52
I0
sg43
I0
sg58
I0
sg48
I0
sg45
I0
sg59
I0
sg22
I0
sg8
I0
sg38
I0
sg25
I0
sg57
I0
sg9
I0
sg47
I0
sg14
I0
sg36
I0
sg24
I0
sg44
I0
sg37
I0
sg40
I0
sg19
I0
sg28
I1
sg29
I7
ssg29
(dp312
g15
I0
sg35
I0
sg56
I0
sg12
I0
sg51
I0
sg42
I0
sg49
I0
sg46
I0
sg34
I0
sg13
I0
sg41
I0
sg30
I0
sg31
I0
sg50
I0
sg10
I0
sg27
I0
sg26
I0
sg11
I0
sg33
I0
sg32
I0
sg55
I0
sg23
I0
sg17
I0
sg16
I0
sg39
I0
sg18
I0
sg21
I0
sg20
I0
sg52
I0
sg43
I0
sg48
I0
sg45
I0
sg22
I0
sg8
I0
sg38
I0
sg25
I0
sg57
I0
sg9
I0
sg47
I0
sg14
I0
sg36
I0
sg24
I0
sg44
I0
sg37
I0
sg40
I0
sg19
I0
sg28
I0
sg29
I0
sssb.