ccopy_reg
_reconstructor
p0
(cutils.eval
ConfusionMatrix
p1
c__builtin__
object
p2
Ntp3
Rp4
(dp5
S'labels'
p6
(lp7
S'knife.n.01'
p8
aS'tongue.n.03'
p9
aS'banana.n.02'
p10
aS'slice.v.03'
p11
aS'piece.n.08'
p12
aS'slice.n.04'
p13
aS'pizza.n.01'
p14
aS'flesh.n.01'
p15
aS'human_body.n.01'
p16
aS'slice.v.02'
p17
aS'tomato.n.01'
p18
aS'onion.n.03'
p19
aS'onion.n.02'
p20
aS'mustard.n.02'
p21
aS'mustard.n.01'
p22
aS'fill.v.01'
p23
aS'pitcher.n.02'
p24
aS'milk.n.01'
p25
aS'kettle.n.01'
p26
aS'water.n.06'
p27
aS'water_system.n.02'
p28
aS'foam.n.01'
p29
aS'mug.n.04'
p30
aS'opening.n.01'
p31
aS'gap.n.03'
p32
aS'fill.v.09'
p33
aS'batter.n.02'
p34
aS'batter.n.01'
p35
asS'instanceCount'
p36
I24
sS'matrix'
p37
(dp38
g34
(dp39
g35
I1
ssg35
(dp40
g35
I0
ssg29
(dp41
S'foam.n.01'
p42
I1
ssg25
(dp43
S'milk.n.01'
p44
I1
ssg22
(dp45
g22
I0
ssg21
(dp46
g22
I1
ssg32
(dp47
g32
I0
ssg33
(dp48
S'fill.v.01'
p49
I1
ssg18
(dp50
S'tomato.n.01'
p51
I1
ssg23
(dp52
S'fill.v.01'
p53
I3
ssg24
(dp54
S'pitcher.n.02'
p55
I1
ssg17
(dp56
g17
I0
ssg11
(dp57
g17
I1
sS'slice.v.03'
p58
I2
ssg8
(dp59
g9
I1
ssg10
(dp60
S'banana.n.02'
p61
I1
ssg16
(dp62
g16
I0
ssg12
(dp63
g13
I2
ssg31
(dp64
g32
I1
ssg30
(dp65
S'mug.n.04'
p66
I1
ssg15
(dp67
g16
I1
ssg28
(dp68
g28
I0
ssg27
(dp69
g28
I1
ssg13
(dp70
g13
I0
ssg14
(dp71
S'pizza.n.01'
p72
I1
ssg26
(dp73
S'kettle.n.01'
p74
I1
ssg9
(dp75
g9
I0
ssg19
(dp76
g20
I1
ssg20
(dp77
g20
I0
sssb.