ccopy_reg
_reconstructor
p0
(cutils.eval
ConfusionMatrix
p1
c__builtin__
object
p2
Ntp3
Rp4
(dp5
S'labels'
p6
(lp7
S'opening.n.01'
p8
aS'gap.n.01'
p9
aS'fill.v.09'
p10
aS'fill.v.01'
p11
aS'batter.n.02'
p12
aS'pan.n.01'
p13
aS'water.n.06'
p14
aS'cheese.n.01'
p15
aS'slice.v.03'
p16
aS'slice.v.02'
p17
aS'knife.n.01'
p18
aS'tongue.n.03'
p19
aS'banana.n.02'
p20
aS'banana.n.01'
p21
aS'piece.n.08'
p22
aS'cut.n.05'
p23
aS'pizza.n.01'
p24
aS'flesh.n.01'
p25
aS'tomato.n.01'
p26
aS'tomato.n.02'
p27
aS'onion.n.03'
p28
aS'onion.n.02'
p29
aS'mustard.n.02'
p30
aS'mustard.n.03'
p31
aS'pitcher.n.02'
p32
aS'pitcher.n.03'
p33
aS'milk.n.01'
p34
asS'instanceCount'
p35
I23
sS'matrix'
p36
(dp37
g15
(dp38
S'cheese.n.01'
p39
I1
ssg12
(dp40
S'batter.n.02'
p41
I1
ssg34
(dp42
S'milk.n.01'
p43
I1
ssg13
(dp44
S'pan.n.01'
p45
I1
ssg30
(dp46
g31
I1
ssg31
(dp47
g31
I0
ssg10
(dp48
g11
I1
ssg27
(dp49
g27
I0
ssg26
(dp50
g27
I1
ssg11
(dp51
g11
I2
ssg33
(dp52
g33
I0
ssg32
(dp53
g33
I1
ssg23
(dp54
g23
I0
ssg17
(dp55
g17
I0
ssg16
(dp56
g17
I4
ssg18
(dp57
g19
I1
ssg21
(dp58
g21
I0
ssg20
(dp59
g21
I1
ssg22
(dp60
g23
I2
ssg8
(dp61
g9
I1
ssg25
(dp62
S'flesh.n.01'
p63
I1
ssg9
(dp64
g9
I0
ssg14
(dp65
S'water.n.06'
p66
I1
ssg24
(dp67
S'pizza.n.01'
p68
I1
ssg19
(dp69
g19
I0
ssg28
(dp70
g29
I1
ssg29
(dp71
g29
I0
sssb.