ccopy_reg
_reconstructor
p0
(cutils.eval
ConfusionMatrix
p1
c__builtin__
object
p2
Ntp3
Rp4
(dp5
S'labels'
p6
(lp7
S'fill.v.01'
p8
aS'fill.v.09'
p9
aS'pan.n.01'
p10
aS'pan.n.02'
p11
aS'water.n.06'
p12
aS'cheese.n.01'
p13
aS'slice.v.03'
p14
aS'slice.v.02'
p15
aS'knife.n.01'
p16
aS'tongue.n.03'
p17
aS'banana.n.02'
p18
aS'piece.n.08'
p19
aS'slice.n.01'
p20
aS'flesh.n.01'
p21
aS'tomato.n.01'
p22
aS'slice.n.04'
p23
aS'onion.n.03'
p24
aS'onion.n.02'
p25
aS'mustard.n.02'
p26
aS'pitcher.n.02'
p27
aS'pitcher.n.05'
p28
aS'milk.n.01'
p29
aS'milk.n.04'
p30
aS'kettle.n.01'
p31
aS'kettle.n.02'
p32
asS'instanceCount'
p33
I22
sS'matrix'
p34
(dp35
g13
(dp36
S'cheese.n.01'
p37
I1
ssg30
(dp38
g30
I0
ssg29
(dp39
g30
I1
ssg10
(dp40
g11
I1
ssg26
(dp41
S'mustard.n.02'
p42
I1
ssg11
(dp43
g11
I0
ssg9
(dp44
g9
I0
ssg22
(dp45
S'tomato.n.01'
p46
I1
ssg8
(dp47
g9
I3
ssg27
(dp48
g28
I1
ssg28
(dp49
g28
I0
ssg15
(dp50
g15
I0
ssg14
(dp51
g15
I4
ssg16
(dp52
g17
I1
ssg18
(dp53
S'banana.n.02'
p54
I1
ssg19
(dp55
g20
I1
sg23
I1
ssg21
(dp56
S'flesh.n.01'
p57
I1
ssg20
(dp58
g20
I0
ssg12
(dp59
S'water.n.06'
p60
I2
ssg23
(dp61
g23
I0
ssg32
(dp62
g32
I0
ssg31
(dp63
g32
I1
ssg17
(dp64
g17
I0
ssg24
(dp65
g25
I1
ssg25
(dp66
g25
I0
sssb.