ccopy_reg
_reconstructor
p0
(cutils.eval
ConfusionMatrix
p1
c__builtin__
object
p2
Ntp3
Rp4
(dp5
S'labels'
p6
(lp7
S'flesh.n.01'
p8
aS'pulp.n.02'
p9
aS'slice.v.03'
p10
aS'tomato.n.01'
p11
aS'piece.n.08'
p12
aS'slice.n.04'
p13
aS'onion.n.03'
p14
aS'onion.n.02'
p15
aS'mustard.n.02'
p16
aS'mustard.n.01'
p17
aS'fill.v.01'
p18
aS'fill.v.09'
p19
aS'pitcher.n.02'
p20
aS'pitcher.n.03'
p21
aS'milk.n.01'
p22
aS'milk.n.04'
p23
aS'meet.v.04'
p24
aS'kettle.n.01'
p25
aS'kettle.n.02'
p26
aS'water.n.06'
p27
aS'mug.n.04'
p28
aS'opening.n.01'
p29
aS'gap.n.05'
p30
aS'batter.n.02'
p31
aS'pan.n.01'
p32
aS'pan.n.02'
p33
aS'water_system.n.02'
p34
aS'cheese.n.01'
p35
asS'instanceCount'
p36
I22
sS'matrix'
p37
(dp38
g35
(dp39
S'cheese.n.01'
p40
I1
ssg31
(dp41
S'batter.n.02'
p42
I1
ssg23
(dp43
g23
I0
ssg22
(dp44
g23
I1
ssg32
(dp45
g33
I1
ssg17
(dp46
g17
I0
ssg16
(dp47
g17
I1
ssg30
(dp48
g30
I0
ssg19
(dp49
g19
I1
ssg11
(dp50
S'tomato.n.01'
p51
I1
ssg18
(dp52
g24
I1
sg19
I3
ssg21
(dp53
g21
I0
ssg20
(dp54
g21
I1
ssg10
(dp55
S'slice.v.03'
p56
I2
ssg24
(dp57
g24
I0
ssg33
(dp58
g33
I0
ssg12
(dp59
g13
I1
ssg29
(dp60
g30
I1
ssg28
(dp61
S'mug.n.04'
p62
I1
ssg8
(dp63
g9
I1
ssg34
(dp64
g34
I0
ssg27
(dp65
g34
I1
sS'water.n.06'
p66
I1
ssg13
(dp67
g13
I0
ssg26
(dp68
g26
I0
ssg25
(dp69
g26
I1
ssg9
(dp70
g9
I0
ssg14
(dp71
g15
I1
ssg15
(dp72
g15
I0
sssb.