ccopy_reg
_reconstructor
p0
(cutils.eval
ConfusionMatrix
p1
c__builtin__
object
p2
Ntp3
Rp4
(dp5
S'labels'
p6
(lp7
S'add.v.01'
p8
aS'lend.v.01'
p9
aS'cover.v.01'
p10
aS'cover.v.23'
p11
aS'rib.n.03'
p12
aS'rib.n.01'
p13
aS'knife.n.01'
p14
aS'tongue.n.03'
p15
aS'banana.n.02'
p16
aS'slice.v.03'
p17
aS'slice.v.02'
p18
aS'chicken.n.01'
p19
aS'wimp.n.01'
p20
aS'corn.n.02'
p21
aS'corn.n.03'
p22
aS'chop.v.01'
p23
aS'chop.v.05'
p24
aS'opening.n.01'
p25
aS'opening.n.10'
p26
aS'fill.v.09'
p27
aS'fill.v.01'
p28
aS'curd.n.01'
p29
aS'carve.v.03'
p30
aS'hack.v.07'
p31
aS'pepper.n.04'
p32
aS'pepper.n.03'
p33
aS'onion.n.01'
p34
aS'kettle.n.01'
p35
aS'water.n.06'
p36
aS'bread.n.01'
p37
aS'piece.n.08'
p38
aS'slice.n.06'
p39
aS'bottle.n.01'
p40
aS'fruit_juice.n.01'
p41
aS'put.v.01'
p42
aS'put.v.02'
p43
aS'sauce.n.01'
p44
aS'butter.n.01'
p45
aS'egg.n.02'
p46
aS'egg.n.01'
p47
aS'dough.n.01'
p48
aS'boodle.n.01'
p49
aS'mix.v.04'
p50
aS'mix.v.05'
p51
aS'water_system.n.02'
p52
aS'rice.n.01'
p53
aS'pour.v.01'
p54
aS'concoction.n.01'
p55
aS'mix.n.03'
p56
aS'mug.n.04'
p57
aS'serve.v.05'
p58
aS'serve.v.11'
p59
aS'cut.v.01'
p60
aS'edit.v.03'
p61
aS'salt.n.02'
p62
aS'salt.n.04'
p63
aS'blender.n.01'
p64
aS'apple.n.01'
p65
aS'measuring_cup.n.01'
p66
aS'meal.n.03'
p67
aS'jar.n.01'
p68
aS'cup.n.01'
p69
aS'cola.n.02'
p70
aS'vanilla.n.02'
p71
aS'blend.v.03'
p72
aS'burner.n.02'
p73
aS'burner.n.01'
p74
aS'pan.n.01'
p75
aS'pan.n.02'
p76
aS'vanilla.n.03'
p77
aS'cut.v.32'
p78
aS'squash.n.02'
p79
aS'squash.n.01'
p80
aS'flesh.n.01'
p81
aS'human_body.n.01'
p82
aS'gap.n.03'
p83
aS'batter.n.02'
p84
aS'whiskey.n.01'
p85
aS'carafe.n.01'
p86
aS'rum.n.01'
p87
aS'shaker.n.03'
p88
aS'take.v.04'
p89
aS'bring.v.01'
p90
aS'decant.v.01'
p91
aS'wok.n.01'
p92
aS'thermos.n.01'
p93
aS'coffee.n.01'
p94
aS'glass.n.02'
p95
aS'milk.n.01'
p96
aS'strawberry.n.01'
p97
aS'cut.n.16'
p98
aS'bag.n.01'
p99
aS'bag.n.04'
p100
aS'teapot.n.01'
p101
aS'ice.n.01'
p102
aS'ice.n.05'
p103
aS'bowl.n.01'
p104
aS'fork.n.01'
p105
aS'branching.n.01'
p106
aS'bowl.n.08'
p107
aS'pizza.n.01'
p108
aS'mixing_bowl.n.01'
p109
aS'sugar.n.01'
p110
aS'lodge.v.02'
p111
aS'stick.v.08'
p112
aS'avocado.n.01'
p113
aS'cheese.n.01'
p114
aS'tomato.n.01'
p115
aS'tomato.n.02'
p116
aS'slice.n.04'
p117
aS'onion.n.03'
p118
aS'onion.n.02'
p119
aS'mustard.n.02'
p120
asS'instanceCount'
p121
I122
sS'matrix'
p122
(dp123
g104
(dp124
S'bowl.n.01'
p125
I1
sg107
I1
ssg107
(dp126
g107
I0
ssg60
(dp127
g61
I2
sg78
I1
ssg16
(dp128
S'banana.n.02'
p129
I1
ssg10
(dp130
g11
I1
ssg66
(dp131
S'measuring_cup.n.01'
p132
I1
ssg95
(dp133
S'glass.n.02'
p134
I1
ssg12
(dp135
g13
I1
ssg13
(dp136
g13
I0
ssg105
(dp137
g106
I1
ssg59
(dp138
g59
I0
ssg82
(dp139
g82
I0
ssg90
(dp140
g90
I0
ssg85
(dp141
S'whiskey.n.01'
p142
I1
ssg25
(dp143
g26
I1
sg83
I1
ssg81
(dp144
g82
I1
ssg64
(dp145
S'blender.n.01'
p146
I1
ssg36
(dp147
g52
I1
sS'water.n.06'
p148
I2
ssg42
(dp149
g43
I2
ssg54
(dp150
S'pour.v.01'
p151
I1
ssg44
(dp152
S'sauce.n.01'
p153
I1
ssg15
(dp154
g15
I0
ssg68
(dp155
S'jar.n.01'
p156
I1
ssg86
(dp157
S'carafe.n.01'
p158
I1
ssg91
(dp159
S'pour.v.01'
p160
I1
ssg19
(dp161
g20
I1
ssg39
(dp162
g39
I0
ssg43
(dp163
g43
I0
ssg112
(dp164
g112
I0
ssg58
(dp165
g59
I1
ssg26
(dp166
g26
I0
ssg8
(dp167
g9
I7
ssg75
(dp168
S'pan.n.01'
p169
I1
sg76
I1
ssg76
(dp170
g76
I0
ssg83
(dp171
g83
I0
ssg69
(dp172
S'cup.n.01'
p173
I1
ssg77
(dp174
g77
I0
ssg71
(dp175
g77
I1
sS'vanilla.n.02'
p176
I1
ssg18
(dp177
g18
I0
ssg17
(dp178
g18
I4
ssg48
(dp179
g49
I1
ssg92
(dp180
S'wok.n.01'
p181
I1
ssg32
(dp182
g33
I1
ssg33
(dp183
g33
I1
ssg87
(dp184
S'rum.n.01'
p185
I1
ssg88
(dp186
S'shaker.n.03'
p187
I1
ssg41
(dp188
S'fruit_juice.n.01'
p189
I1
ssg101
(dp190
S'teapot.n.01'
p191
I1
ssg102
(dp192
g103
I1
ssg35
(dp193
S'kettle.n.01'
p194
I1
ssg103
(dp195
g103
I0
ssg56
(dp196
g56
I0
ssg29
(dp197
S'curd.n.01'
p198
I1
ssg34
(dp199
S'onion.n.01'
p200
I1
ssg118
(dp201
g119
I1
ssg67
(dp202
S'meal.n.03'
p203
I1
ssg97
(dp204
S'strawberry.n.01'
p205
I1
ssg22
(dp206
g22
I0
ssg21
(dp207
g22
I1
ssg30
(dp208
g31
I1
ssg111
(dp209
g112
I1
ssg109
(dp210
S'mixing_bowl.n.01'
p211
I1
ssg89
(dp212
g90
I1
ssg120
(dp213
S'mustard.n.02'
p214
I1
ssg27
(dp215
g28
I2
ssg40
(dp216
S'bottle.n.01'
p217
I1
ssg28
(dp218
g28
I13
ssg80
(dp219
g80
I0
ssg79
(dp220
g80
I1
ssg55
(dp221
g56
I2
ssg31
(dp222
g31
I0
ssg14
(dp223
g15
I1
ssg63
(dp224
g63
I0
ssg94
(dp225
S'coffee.n.01'
p226
I1
ssg106
(dp227
g106
I0
ssg65
(dp228
S'apple.n.01'
p229
I1
ssg57
(dp230
S'mug.n.04'
p231
I1
ssg52
(dp232
g52
I0
ssg113
(dp233
S'avocado.n.01'
p234
I1
ssg117
(dp235
g117
I0
ssg108
(dp236
S'pizza.n.01'
p237
I2
ssg98
(dp238
S'edit.v.03'
p239
I1
ssg73
(dp240
g74
I1
ssg74
(dp241
g74
I0
ssg114
(dp242
S'cheese.n.01'
p243
I1
ssg53
(dp244
S'rice.n.01'
p245
I2
ssg62
(dp246
g63
I1
ssg37
(dp247
S'bread.n.01'
p248
I1
ssg84
(dp249
S'batter.n.02'
p250
I1
ssg20
(dp251
g20
I0
ssg96
(dp252
S'milk.n.01'
p253
I1
ssg70
(dp254
S'cola.n.02'
p255
I1
ssg46
(dp256
g47
I3
ssg45
(dp257
S'butter.n.01'
p258
I3
ssg100
(dp259
g100
I0
ssg24
(dp260
g24
I0
ssg99
(dp261
g100
I1
ssg23
(dp262
g24
I1
ssg50
(dp263
g51
I1
ssg51
(dp264
g51
I0
ssg11
(dp265
g11
I0
ssg72
(dp266
S'mix.v.05'
p267
I3
ssg9
(dp268
g9
I0
ssg61
(dp269
g61
I0
ssg115
(dp270
g116
I1
ssg49
(dp271
g49
I0
ssg38
(dp272
g39
I5
sg117
I1
ssg93
(dp273
S'thermos.n.01'
p274
I1
ssg78
(dp275
g78
I0
ssg116
(dp276
g116
I0
ssg119
(dp277
g119
I0
ssg47
(dp278
g47
I0
ssg110
(dp279
S'boodle.n.01'
p280
I1
sssb.