ccopy_reg
_reconstructor
p0
(cutils.eval
ConfusionMatrix
p1
c__builtin__
object
p2
Ntp3
Rp4
(dp5
S'labels'
p6
(lp7
S'piece.n.08'
p8
aS'slice.n.06'
p9
aS'add.v.01'
p10
aS'lend.v.01'
p11
aS'fill.v.01'
p12
aS'measuring_cup.n.01'
p13
aS'meal.n.03'
p14
aS'meal.n.01'
p15
aS'jar.n.01'
p16
aS'cup.n.01'
p17
aS'cola.n.02'
p18
aS'vanilla.n.02'
p19
aS'vanilla.n.03'
p20
aS'egg.n.02'
p21
aS'egg.n.01'
p22
aS'concoction.n.01'
p23
aS'blend.v.03'
p24
aS'mix.v.05'
p25
aS'burner.n.02'
p26
aS'burner.n.01'
p27
aS'pan.n.01'
p28
aS'pan.n.02'
p29
aS'butter.n.01'
p30
aS'cut.v.01'
p31
aS'cut.v.32'
p32
aS'squash.n.02'
p33
aS'squash.n.01'
p34
aS'flesh.n.01'
p35
aS'human_body.n.01'
p36
aS'slice.v.03'
p37
aS'slice.v.02'
p38
aS'opening.n.01'
p39
aS'gap.n.03'
p40
aS'fill.v.09'
p41
aS'batter.n.02'
p42
aS'whiskey.n.01'
p43
aS'carafe.n.01'
p44
aS'rum.n.01'
p45
aS'shaker.n.03'
p46
aS'take.v.04'
p47
aS'aim.v.01'
p48
aS'decant.v.01'
p49
aS'pour.v.01'
p50
aS'wok.n.01'
p51
aS'rice.n.01'
p52
aS'thermos.n.01'
p53
aS'coffee.n.01'
p54
aS'glass.n.02'
p55
aS'milk.n.01'
p56
aS'strawberry.n.01'
p57
aS'edit.v.03'
p58
aS'cut.n.16'
p59
aS'bag.n.01'
p60
aS'bag.n.04'
p61
aS'teapot.n.01'
p62
aS'water.n.06'
p63
aS'ice.n.01'
p64
aS'ice.n.05'
p65
aS'bowl.n.01'
p66
aS'fork.n.01'
p67
aS'fork.n.03'
p68
aS'bowl.n.08'
p69
aS'pizza.n.01'
p70
aS'slit.v.01'
p71
aS'sugar.n.01'
p72
aS'boodle.n.01'
p73
aS'put.v.01'
p74
aS'put.v.02'
p75
aS'lodge.v.02'
p76
aS'stick.v.08'
p77
aS'avocado.n.01'
p78
aS'cheese.n.01'
p79
aS'tomato.n.01'
p80
aS'tomato.n.02'
p81
aS'cut.n.05'
p82
aS'onion.n.03'
p83
aS'onion.n.02'
p84
aS'mustard.n.02'
p85
aS'pot.n.01'
p86
aS'blend.v.01'
p87
aS'saltcellar.n.01'
p88
aS'salt.n.02'
p89
aS'gravy.n.01'
p90
aS'gravy.n.02'
p91
aS'bread.n.01'
p92
aS'mix.n.03'
p93
aS'pitcher.n.02'
p94
aS'onion.n.01'
p95
aS'beef.n.02'
p96
aS'gripe.n.01'
p97
aS'plate.n.04'
p98
aS'plate.n.13'
p99
aS'walnut.n.01'
p100
aS'walnut.n.03'
p101
aS'get.v.01'
p102
aS'make.v.02'
p103
aS'pear.n.01'
p104
aS'bowl.n.02'
p105
aS'liquid.n.01'
p106
aS'sink.n.01'
p107
aS'cesspool.n.01'
p108
aS'cover.v.01'
p109
aS'cover.v.16'
p110
aS'rib.n.03'
p111
aS'rib.n.01'
p112
aS'knife.n.01'
p113
aS'tongue.n.03'
p114
aS'banana.n.02'
p115
aS'chicken.n.01'
p116
aS'wimp.n.01'
p117
aS'corn.n.02'
p118
aS'corn_whiskey.n.01'
p119
aS'chop.v.01'
p120
aS'chop.v.05'
p121
aS'opening.n.10'
p122
aS'curd.n.01'
p123
aS'carve.v.03'
p124
aS'hack.v.07'
p125
aS'pepper.n.04'
p126
aS'pepper.n.03'
p127
asS'instanceCount'
p128
I125
sS'matrix'
p129
(dp130
g105
(dp131
g105
I0
ssg66
(dp132
g105
I1
sS'bowl.n.01'
p133
I1
sg69
I2
ssg69
(dp134
g69
I0
ssg31
(dp135
g58
I1
sg32
I1
ssg109
(dp136
g110
I1
ssg13
(dp137
S'measuring_cup.n.01'
p138
I1
ssg90
(dp139
g91
I1
ssg91
(dp140
g91
I0
ssg111
(dp141
g112
I1
ssg112
(dp142
g112
I0
ssg68
(dp143
g68
I0
ssg101
(dp144
g101
I0
ssg67
(dp145
g68
I1
ssg100
(dp146
g101
I1
ssg36
(dp147
g36
I0
ssg43
(dp148
S'whiskey.n.01'
p149
I1
ssg39
(dp150
g122
I1
sg40
I1
ssg80
(dp151
g81
I1
ssg35
(dp152
g36
I1
ssg63
(dp153
S'water.n.06'
p154
I3
ssg74
(dp155
g75
I3
ssg50
(dp156
g50
I2
ssg114
(dp157
g114
I0
ssg16
(dp158
S'jar.n.01'
p159
I2
ssg44
(dp160
S'carafe.n.01'
p161
I1
ssg49
(dp162
g50
I1
ssg116
(dp163
g117
I1
ssg107
(dp164
g108
I1
ssg75
(dp165
g75
I0
ssg77
(dp166
g77
I0
ssg78
(dp167
S'avocado.n.01'
p168
I1
ssg122
(dp169
g122
I0
ssg10
(dp170
g11
I6
ssg28
(dp171
S'pan.n.01'
p172
I3
sg29
I1
ssg29
(dp173
g29
I0
ssg40
(dp174
g40
I0
ssg17
(dp175
S'cup.n.01'
p176
I1
ssg127
(dp177
g127
I0
ssg20
(dp178
g20
I0
ssg19
(dp179
g20
I2
ssg38
(dp180
g38
I0
ssg37
(dp181
g38
I3
sg71
I1
ssg115
(dp182
S'banana.n.02'
p183
I1
ssg102
(dp184
g103
I1
ssg51
(dp185
S'wok.n.01'
p186
I1
ssg126
(dp187
g127
I1
ssg46
(dp188
S'shaker.n.03'
p189
I1
ssg45
(dp190
S'rum.n.01'
p191
I1
ssg97
(dp192
g97
I0
ssg62
(dp193
S'teapot.n.01'
p194
I1
ssg71
(dp195
g71
I0
ssg65
(dp196
g65
I0
ssg93
(dp197
S'mix.n.03'
p198
I1
ssg123
(dp199
S'curd.n.01'
p200
I1
ssg95
(dp201
S'onion.n.01'
p202
I1
sS'onion.n.03'
p203
I1
ssg15
(dp204
g15
I0
ssg83
(dp205
g84
I1
ssg84
(dp206
g84
I0
ssg57
(dp207
S'strawberry.n.01'
p208
I1
ssg118
(dp209
g119
I1
ssg96
(dp210
g97
I1
ssg124
(dp211
g125
I1
ssg76
(dp212
g77
I1
ssg103
(dp213
g103
I0
ssg47
(dp214
g48
I1
ssg85
(dp215
S'mustard.n.02'
p216
I1
ssg41
(dp217
S'fill.v.01'
p218
I2
ssg86
(dp219
S'pot.n.01'
p220
I1
ssg12
(dp221
S'fill.v.01'
p222
I14
ssg94
(dp223
S'pitcher.n.02'
p224
I1
ssg104
(dp225
S'pear.n.01'
p226
I1
ssg34
(dp227
g34
I0
ssg33
(dp228
g34
I1
ssg23
(dp229
S'concoction.n.01'
p230
I1
ssg82
(dp231
g82
I0
ssg89
(dp232
S'salt.n.02'
p233
I1
ssg113
(dp234
g114
I1
ssg98
(dp235
g99
I1
ssg54
(dp236
S'coffee.n.01'
p237
I1
ssg119
(dp238
g119
I0
ssg9
(dp239
g9
I0
ssg70
(dp240
S'pizza.n.01'
p241
I2
ssg59
(dp242
S'edit.v.03'
p243
I1
ssg26
(dp244
g27
I1
ssg27
(dp245
g27
I0
ssg99
(dp246
g99
I0
ssg79
(dp247
S'cheese.n.01'
p248
I1
ssg52
(dp249
S'rice.n.01'
p250
I1
ssg125
(dp251
g125
I0
ssg92
(dp252
S'bread.n.01'
p253
I1
ssg42
(dp254
S'batter.n.02'
p255
I1
ssg117
(dp256
g117
I0
ssg56
(dp257
S'milk.n.01'
p258
I2
ssg64
(dp259
g65
I1
ssg18
(dp260
S'cola.n.02'
p261
I1
ssg48
(dp262
g48
I0
ssg88
(dp263
S'saltcellar.n.01'
p264
I1
ssg21
(dp265
g22
I1
ssg30
(dp266
S'butter.n.01'
p267
I2
ssg61
(dp268
g61
I0
ssg121
(dp269
g121
I0
ssg60
(dp270
g61
I1
ssg120
(dp271
g121
I1
ssg25
(dp272
g25
I0
ssg55
(dp273
S'glass.n.02'
p274
I1
ssg24
(dp275
g25
I4
ssg87
(dp276
S'blend.v.01'
p277
I1
ssg11
(dp278
g11
I0
ssg58
(dp279
g58
I0
ssg73
(dp280
g73
I0
ssg8
(dp281
S'piece.n.08'
p282
I1
sg9
I2
sg82
I1
ssg108
(dp283
g108
I0
ssg53
(dp284
S'thermos.n.01'
p285
I1
ssg32
(dp286
g32
I0
ssg110
(dp287
g110
I0
ssg81
(dp288
g81
I0
ssg106
(dp289
S'liquid.n.01'
p290
I1
ssg14
(dp291
g15
I1
ssg22
(dp292
g22
I0
ssg72
(dp293
g73
I1
sssb.