ccopy_reg
_reconstructor
p0
(cutils.eval
ConfusionMatrix
p1
c__builtin__
object
p2
Ntp3
Rp4
(dp5
S'labels'
p6
(lp7
S'cabbage.n.01'
p8
aS'cut.v.01'
p9
aS'lemon.n.01'
p10
aS'cut.v.29'
p11
aS'meat.n.01'
p12
aS'cleaver.n.01'
p13
asS'instanceCount'
p14
I7
sS'matrix'
p15
(dp16
g9
(dp17
S'cut.v.01'
p18
I2
sg11
I1
ssg8
(dp19
S'cabbage.n.01'
p20
I1
ssg11
(dp21
g11
I0
ssg13
(dp22
S'cleaver.n.01'
p23
I1
ssg10
(dp24
S'lemon.n.01'
p25
I1
ssg12
(dp26
S'meat.n.01'
p27
I1
sssb.