ccopy_reg
_reconstructor
p0
(cutils.eval
ConfusionMatrix
p1
c__builtin__
object
p2
Ntp3
Rp4
(dp5
S'labels'
p6
(lp7
S'cut.v.01'
p8
aS'bacon.n.01'
p9
aS'bacon.n.02'
p10
aS'cabbage.n.01'
p11
aS'cabbage.n.03'
p12
aS'lemon.n.01'
p13
aS'lemon.n.05'
p14
asS'instanceCount'
p15
I6
sS'matrix'
p16
(dp17
g8
(dp18
S'cut.v.01'
p19
I3
ssg11
(dp20
g12
I1
ssg12
(dp21
g12
I0
ssg10
(dp22
g10
I0
ssg9
(dp23
g10
I1
ssg14
(dp24
g14
I0
ssg13
(dp25
g14
I1
sssb.