ccopy_reg
_reconstructor
p0
(cutils.eval
ConfusionMatrix
p1
c__builtin__
object
p2
Ntp3
Rp4
(dp5
S'labels'
p6
(lp7
S'cut.v.01'
p8
aS'lemon.n.01'
p9
aS'meat.n.01'
p10
aS'cleaver.n.01'
p11
aS'chop.n.05'
p12
aS'bread.n.01'
p13
aS'knife.n.01'
p14
aS'tongue.n.03'
p15
asS'instanceCount'
p16
I8
sS'matrix'
p17
(dp18
g8
(dp19
S'cut.v.01'
p20
I3
ssg14
(dp21
g15
I1
ssg15
(dp22
g15
I0
ssg13
(dp23
S'bread.n.01'
p24
I1
ssg10
(dp25
S'meat.n.01'
p26
I1
ssg9
(dp27
S'lemon.n.01'
p28
I1
ssg12
(dp29
g12
I0
ssg11
(dp30
g12
I1
sssb.