ccopy_reg
_reconstructor
p0
(cutils.eval
ConfusionMatrix
p1
c__builtin__
object
p2
Ntp3
Rp4
(dp5
S'labels'
p6
(lp7
S'cut.v.01'
p8
aS'bread.n.01'
p9
aS'knife.n.01'
p10
aS'bacon.n.01'
p11
aS'bacon.n.02'
p12
aS'cabbage.n.01'
p13
aS'cabbage.n.03'
p14
asS'instanceCount'
p15
I7
sS'matrix'
p16
(dp17
g8
(dp18
S'cut.v.01'
p19
I3
ssg13
(dp20
g14
I1
ssg14
(dp21
g14
I0
ssg12
(dp22
g12
I0
ssg11
(dp23
g12
I1
ssg9
(dp24
S'bread.n.01'
p25
I1
ssg10
(dp26
S'knife.n.01'
p27
I1
sssb.