ccopy_reg
_reconstructor
p0
(cutils.eval
ConfusionMatrix
p1
c__builtin__
object
p2
Ntp3
Rp4
(dp5
S'labels'
p6
(lp7
S'put.v.01'
p8
aS'invest.v.01'
p9
aS'cake.n.03'
p10
aS'patty.n.01'
p11
aS'whipped_cream.n.01'
p12
aS'flesh.n.01'
p13
aS'slice.v.03'
p14
aS'slice.v.02'
p15
aS'fill.v.01'
p16
aS'fill.v.09'
p17
aS'pan.n.01'
p18
aS'water.n.06'
p19
aS'water.n.03'
p20
aS'opening.n.01'
p21
aS'gap.n.05'
p22
aS'batter.n.02'
p23
aS'piece.n.08'
p24
aS'slice.n.01'
p25
aS'pizza.n.01'
p26
aS'meet.v.04'
p27
aS'kettle.n.01'
p28
aS'kettle.n.02'
p29
aS'pan.n.03'
p30
aS'cheese.n.01'
p31
aS'onion.n.01'
p32
aS'pepper.n.04'
p33
aS'frame.v.04'
p34
aS'pepper.n.03'
p35
aS'salt.n.02'
p36
aS'egg.n.02'
p37
aS'testis.n.01'
p38
aS'cut.v.01'
p39
aS'swerve.v.01'
p40
aS'lemon.n.01'
p41
aS'lemon.n.04'
p42
aS'pitcher.n.02'
p43
aS'pitcher.n.03'
p44
aS'milk.n.01'
p45
aS'milk.n.04'
p46
aS'chicken.n.01'
p47
aS'knife.n.01'
p48
aS'banana.n.02'
p49
asS'instanceCount'
p50
I40
sS'matrix'
p51
(dp52
g9
(dp53
g9
I0
ssg40
(dp54
g40
I0
ssg31
(dp55
S'cheese.n.01'
p56
I1
ssg23
(dp57
S'batter.n.02'
p58
I1
ssg46
(dp59
g46
I0
ssg47
(dp60
S'chicken.n.01'
p61
I1
ssg16
(dp62
g27
I1
sg17
I2
ssg45
(dp63
g46
I1
ssg18
(dp64
S'pan.n.01'
p65
I1
ssg39
(dp66
g40
I1
ssg30
(dp67
S'pan.n.01'
p68
I2
ssg22
(dp69
g22
I0
ssg34
(dp70
g34
I0
ssg17
(dp71
g17
I1
ssg37
(dp72
g38
I1
ssg38
(dp73
g38
I0
ssg11
(dp74
g11
I0
ssg44
(dp75
g44
I0
ssg43
(dp76
g44
I1
ssg42
(dp77
g42
I0
ssg36
(dp78
S'salt.n.02'
p79
I1
ssg15
(dp80
g15
I0
ssg14
(dp81
g15
I5
ssg48
(dp82
S'knife.n.01'
p83
I1
ssg49
(dp84
S'banana.n.02'
p85
I1
ssg33
(dp86
S'pepper.n.04'
p87
I1
ssg27
(dp88
g27
I0
ssg35
(dp89
S'pepper.n.04'
p90
I1
ssg12
(dp91
S'whipped_cream.n.01'
p92
I1
ssg24
(dp93
g25
I1
ssg21
(dp94
g22
I1
ssg13
(dp95
S'flesh.n.01'
p96
I1
ssg20
(dp97
g20
I0
ssg25
(dp98
g25
I0
ssg19
(dp99
g20
I2
ssg8
(dp100
g9
I3
sg34
I1
ssg26
(dp101
S'pizza.n.01'
p102
I2
ssg29
(dp103
g29
I0
ssg28
(dp104
g29
I1
ssg10
(dp105
g11
I1
ssg41
(dp106
g42
I1
ssg32
(dp107
S'onion.n.01'
p108
I1
sssb.