ccopy_reg
_reconstructor
p0
(cutils.eval
ConfusionMatrix
p1
c__builtin__
object
p2
Ntp3
Rp4
(dp5
S'labels'
p6
(lp7
S'cut.v.01'
p8
aS'swerve.v.01'
p9
aS'bacon.n.01'
p10
aS'bacon.n.03'
p11
aS'meat.n.01'
p12
aS'kernel.n.01'
p13
aS'cleaver.n.01'
p14
aS'cabbage.n.01'
p15
aS'put.v.01'
p16
aS'invest.v.01'
p17
aS'onion.n.01'
p18
aS'beef.n.02'
p19
aS'beef.n.01'
p20
aS'plate.n.04'
p21
aS'plate.n.12'
p22
aS'cake.n.03'
p23
aS'patty.n.01'
p24
aS'whipped_cream.n.01'
p25
aS'flesh.n.01'
p26
aS'slice.v.03'
p27
aS'slice.v.02'
p28
aS'fill.v.01'
p29
aS'fill.v.09'
p30
aS'pan.n.01'
p31
aS'water.n.06'
p32
aS'water.n.03'
p33
aS'opening.n.01'
p34
aS'gap.n.05'
p35
aS'batter.n.02'
p36
aS'piece.n.08'
p37
aS'slice.n.01'
p38
aS'pizza.n.01'
p39
aS'meet.v.04'
p40
aS'kettle.n.01'
p41
aS'kettle.n.02'
p42
aS'pan.n.03'
p43
aS'cheese.n.01'
p44
aS'pepper.n.04'
p45
aS'frame.v.04'
p46
aS'pepper.n.03'
p47
aS'salt.n.02'
p48
aS'egg.n.02'
p49
aS'testis.n.01'
p50
asS'instanceCount'
p51
I40
sS'matrix'
p52
(dp53
g22
(dp54
g22
I0
ssg9
(dp55
g9
I0
ssg13
(dp56
g13
I0
ssg50
(dp57
g50
I0
ssg44
(dp58
S'cheese.n.01'
p59
I1
ssg36
(dp60
S'batter.n.02'
p61
I1
ssg20
(dp62
g20
I0
ssg24
(dp63
g24
I0
ssg31
(dp64
S'pan.n.01'
p65
I1
ssg42
(dp66
g42
I0
ssg43
(dp67
S'pan.n.01'
p68
I1
ssg8
(dp69
g9
I3
ssg46
(dp70
g46
I0
ssg30
(dp71
g30
I1
ssg49
(dp72
g50
I1
ssg19
(dp73
g20
I1
ssg11
(dp74
g11
I0
ssg10
(dp75
g11
I1
ssg29
(dp76
g40
I1
sg30
I1
ssg12
(dp77
g13
I1
ssg48
(dp78
S'salt.n.02'
p79
I1
ssg14
(dp80
S'cleaver.n.01'
p81
I1
ssg28
(dp82
g28
I0
ssg27
(dp83
g28
I4
ssg15
(dp84
S'cabbage.n.01'
p85
I1
ssg21
(dp86
g22
I1
ssg45
(dp87
S'pepper.n.04'
p88
I1
ssg40
(dp89
g40
I0
ssg47
(dp90
S'pepper.n.04'
p91
I1
ssg25
(dp92
S'whipped_cream.n.01'
p93
I1
ssg37
(dp94
g38
I1
ssg34
(dp95
g35
I1
ssg26
(dp96
S'flesh.n.01'
p97
I1
ssg33
(dp98
g33
I0
ssg38
(dp99
g38
I0
ssg32
(dp100
g33
I2
ssg16
(dp101
g17
I3
sg46
I1
ssg39
(dp102
S'pizza.n.01'
p103
I2
ssg17
(dp104
g17
I0
ssg41
(dp105
g42
I1
ssg23
(dp106
g24
I1
ssg35
(dp107
g35
I0
ssg18
(dp108
S'onion.n.01'
p109
I2
sssb.