ccopy_reg
_reconstructor
p0
(cutils.eval
ConfusionMatrix
p1
c__builtin__
object
p2
Ntp3
Rp4
(dp5
S'labels'
p6
(lp7
S'cut.v.01'
p8
aS'swerve.v.01'
p9
aS'bread.n.01'
p10
aS'knife.n.01'
p11
aS'fill.v.01'
p12
aS'fill.v.09'
p13
aS'foam.n.01'
p14
aS'mug.n.04'
p15
aS'bacon.n.01'
p16
aS'bacon.n.03'
p17
aS'meat.n.01'
p18
aS'kernel.n.01'
p19
aS'cleaver.n.01'
p20
aS'cabbage.n.01'
p21
aS'put.v.01'
p22
aS'invest.v.01'
p23
aS'onion.n.01'
p24
aS'beef.n.02'
p25
aS'beef.n.01'
p26
aS'plate.n.04'
p27
aS'plate.n.12'
p28
aS'cake.n.03'
p29
aS'patty.n.01'
p30
aS'whipped_cream.n.01'
p31
aS'flesh.n.01'
p32
aS'slice.v.03'
p33
aS'slice.v.02'
p34
aS'pan.n.01'
p35
aS'water.n.06'
p36
aS'water.n.03'
p37
aS'opening.n.01'
p38
aS'gap.n.05'
p39
aS'batter.n.02'
p40
aS'piece.n.08'
p41
aS'slice.n.01'
p42
aS'pizza.n.01'
p43
aS'meet.v.04'
p44
aS'kettle.n.01'
p45
aS'kettle.n.02'
p46
aS'pan.n.03'
p47
aS'cheese.n.01'
p48
asS'instanceCount'
p49
I39
sS'matrix'
p50
(dp51
g28
(dp52
g28
I0
ssg26
(dp53
g26
I0
ssg23
(dp54
g23
I0
ssg10
(dp55
S'bread.n.01'
p56
I1
ssg48
(dp57
S'cheese.n.01'
p58
I1
ssg40
(dp59
S'batter.n.02'
p60
I1
ssg21
(dp61
S'cabbage.n.01'
p62
I1
ssg14
(dp63
S'foam.n.01'
p64
I1
ssg35
(dp65
S'pan.n.01'
p66
I1
ssg47
(dp67
S'pan.n.01'
p68
I1
ssg8
(dp69
g9
I4
ssg13
(dp70
g13
I1
ssg25
(dp71
g26
I1
ssg17
(dp72
g17
I0
ssg16
(dp73
g17
I1
ssg12
(dp74
g44
I1
sg13
I2
ssg18
(dp75
g19
I1
ssg20
(dp76
S'cleaver.n.01'
p77
I1
ssg34
(dp78
g34
I0
ssg33
(dp79
g34
I3
ssg11
(dp80
S'knife.n.01'
p81
I1
ssg27
(dp82
g28
I1
ssg44
(dp83
g44
I0
ssg31
(dp84
S'whipped_cream.n.01'
p85
I1
ssg30
(dp86
g30
I0
ssg9
(dp87
g9
I0
ssg41
(dp88
g42
I1
ssg38
(dp89
g39
I1
ssg15
(dp90
S'mug.n.04'
p91
I1
ssg32
(dp92
S'flesh.n.01'
p93
I1
ssg37
(dp94
g37
I0
ssg42
(dp95
g42
I0
ssg36
(dp96
g37
I2
ssg22
(dp97
g23
I3
ssg43
(dp98
S'pizza.n.01'
p99
I2
ssg46
(dp100
g46
I0
ssg45
(dp101
g46
I1
ssg29
(dp102
g30
I1
ssg39
(dp103
g39
I0
ssg24
(dp104
S'onion.n.01'
p105
I1
ssg19
(dp106
g19
I0
sssb.