ccopy_reg
_reconstructor
p0
(cutils.eval
ConfusionMatrix
p1
c__builtin__
object
p2
Ntp3
Rp4
(dp5
S'labels'
p6
(lp7
S'cut.v.01'
p8
aS'swerve.v.01'
p9
aS'bacon.n.01'
p10
aS'bacon.n.03'
p11
aS'meat.n.01'
p12
aS'kernel.n.01'
p13
aS'cleaver.n.01'
p14
aS'cabbage.n.01'
p15
aS'put.v.01'
p16
aS'invest.v.01'
p17
aS'onion.n.01'
p18
aS'beef.n.02'
p19
aS'beef.n.01'
p20
aS'plate.n.04'
p21
aS'plate.n.12'
p22
aS'cake.n.03'
p23
aS'patty.n.01'
p24
aS'whipped_cream.n.01'
p25
aS'flesh.n.01'
p26
aS'slice.v.03'
p27
aS'slice.v.02'
p28
aS'fill.v.01'
p29
aS'fill.v.09'
p30
aS'pan.n.01'
p31
aS'water.n.06'
p32
aS'water.n.03'
p33
aS'opening.n.01'
p34
aS'gap.n.05'
p35
aS'batter.n.02'
p36
aS'piece.n.08'
p37
aS'slice.n.01'
p38
aS'pizza.n.01'
p39
aS'meet.v.04'
p40
aS'kettle.n.01'
p41
aS'kettle.n.02'
p42
aS'pan.n.03'
p43
aS'cheese.n.01'
p44
aS'pepper.n.04'
p45
aS'frame.v.04'
p46
aS'pepper.n.03'
p47
aS'salt.n.02'
p48
aS'egg.n.02'
p49
aS'testis.n.01'
p50
aS'lemon.n.01'
p51
aS'lemon.n.04'
p52
aS'pitcher.n.02'
p53
aS'pitcher.n.03'
p54
aS'milk.n.01'
p55
aS'milk.n.04'
p56
aS'chicken.n.01'
p57
aS'knife.n.01'
p58
aS'banana.n.02'
p59
aS'bread.n.01'
p60
aS'foam.n.01'
p61
aS'mug.n.04'
p62
asS'instanceCount'
p63
I399
sS'matrix'
p64
(dp65
g22
(dp66
g22
I0
sg9
I0
sg13
I0
sg50
I0
sS'bread.n.01'
p67
I0
sg44
I0
sg36
I0
sS'milk.n.04'
p68
I0
sg20
I0
sg24
I0
sS'milk.n.01'
p69
I0
sg31
I0
sg42
I0
sg43
I0
sg8
I0
sg46
I0
sg30
I0
sg49
I0
sg19
I0
sg11
I0
sg10
I0
sg29
I0
sS'pitcher.n.03'
p70
I0
sS'pitcher.n.02'
p71
I0
sS'lemon.n.04'
p72
I0
sg12
I0
sg48
I0
sg14
I0
sg28
I0
sg27
I0
sg15
I0
sS'banana.n.02'
p73
I0
sg21
I0
sg45
I0
sg40
I0
sg47
I0
sS'knife.n.01'
p74
I0
sS'foam.n.01'
p75
I0
sS'chicken.n.01'
p76
I0
sg25
I0
sg37
I0
sg34
I0
sS'mug.n.04'
p77
I0
sg26
I0
sg33
I0
sg38
I0
sg32
I0
sg16
I0
sg39
I0
sg17
I0
sg41
I0
sg23
I0
sg35
I0
sS'lemon.n.01'
p78
I0
sg18
I0
ssg9
(dp79
g22
I0
sg9
I0
sg13
I0
sg50
I0
sg60
I0
sg44
I0
sg36
I0
sg56
I0
sg20
I0
sg24
I0
sg55
I0
sg31
I0
sg42
I0
sg43
I0
sg8
I0
sg46
I0
sg30
I0
sg49
I0
sg19
I0
sg11
I0
sg10
I0
sg29
I0
sg54
I0
sg53
I0
sg52
I0
sg12
I0
sg48
I0
sg14
I0
sg28
I0
sg27
I0
sg15
I0
sg59
I0
sg21
I0
sg45
I0
sg40
I0
sg47
I0
sg58
I0
sg61
I0
sg57
I0
sg25
I0
sg37
I0
sg34
I0
sg62
I0
sg26
I0
sg33
I0
sg38
I0
sg32
I0
sg16
I0
sg39
I0
sg17
I0
sg41
I0
sg23
I0
sg35
I0
sg51
I0
sg18
I0
ssg13
(dp80
g22
I0
sg9
I0
sg13
I0
sg50
I0
sg60
I0
sg44
I0
sg36
I0
sg56
I0
sg20
I0
sg24
I0
sg55
I0
sg31
I0
sg42
I0
sg43
I0
sg8
I0
sg46
I0
sg30
I0
sg49
I0
sg19
I0
sg11
I0
sg10
I0
sg29
I0
sg54
I0
sg53
I0
sg52
I0
sg12
I0
sg48
I0
sg14
I0
sg28
I0
sg27
I0
sg15
I0
sg59
I0
sg21
I0
sg45
I0
sg40
I0
sg47
I0
sg58
I0
sg61
I0
sg57
I0
sg25
I0
sg37
I0
sg34
I0
sg62
I0
sg26
I0
sg33
I0
sg38
I0
sg32
I0
sg16
I0
sg39
I0
sg17
I0
sg41
I0
sg23
I0
sg35
I0
sg51
I0
sg18
I0
ssg50
(dp81
g22
I0
sg9
I0
sg13
I0
sg11
I0
sg60
I0
sg44
I0
sg36
I0
sg56
I0
sg20
I0
sg29
I0
sg55
I0
sg31
I0
sg42
I0
sg43
I0
sg8
I0
sg46
I0
sg30
I0
sg49
I0
sg19
I0
sg50
I0
sg10
I0
sg24
I0
sg54
I0
sg53
I0
sg52
I0
sg12
I0
sg48
I0
sg14
I0
sg28
I0
sg27
I0
sg15
I0
sg59
I0
sg21
I0
sg45
I0
sg40
I0
sg47
I0
sg58
I0
sg61
I0
sg57
I0
sg25
I0
sg37
I0
sg34
I0
sg62
I0
sg26
I0
sg33
I0
sg38
I0
sg32
I0
sg16
I0
sg39
I0
sg17
I0
sg41
I0
sg23
I0
sg35
I0
sg51
I0
sg18
I0
ssg60
(dp82
S'plate.n.12'
p83
I0
sS'invest.v.01'
p84
I0
sS'swerve.v.01'
p85
I0
sS'beef.n.01'
p86
I0
sS'cheese.n.01'
p87
I0
sS'bacon.n.03'
p88
I0
sg60
I7
sS'batter.n.02'
p89
I0
sg56
I0
sg57
I0
sg61
I0
sg55
I0
sS'pan.n.01'
p90
I0
sS'pan.n.03'
p91
I0
sS'cut.v.01'
p92
I0
sS'frame.v.04'
p93
I0
sS'fill.v.09'
p94
I0
sS'cabbage.n.01'
p95
I0
sS'egg.n.02'
p96
I0
sS'whipped_cream.n.01'
p97
I0
sS'beef.n.02'
p98
I0
sS'testis.n.01'
p99
I0
sS'bacon.n.01'
p100
I0
sS'fill.v.01'
p101
I0
sg54
I0
sg53
I0
sg52
I0
sS'meat.n.01'
p102
I0
sS'cake.n.03'
p103
I0
sS'salt.n.02'
p104
I0
sS'cleaver.n.01'
p105
I0
sS'slice.v.02'
p106
I0
sS'slice.v.03'
p107
I0
sg58
I0
sg59
I0
sS'plate.n.04'
p108
I0
sS'pepper.n.04'
p109
I0
sS'meet.v.04'
p110
I0
sS'pepper.n.03'
p111
I0
sS'gap.n.05'
p112
I0
sS'patty.n.01'
p113
I0
sS'piece.n.08'
p114
I0
sS'opening.n.01'
p115
I0
sg62
I0
sS'flesh.n.01'
p116
I0
sS'water.n.03'
p117
I0
sS'slice.n.01'
p118
I0
sS'water.n.06'
p119
I0
sS'put.v.01'
p120
I0
sS'pizza.n.01'
p121
I0
sS'kettle.n.02'
p122
I0
sS'kettle.n.01'
p123
I0
sS'kernel.n.01'
p124
I0
sg51
I0
sS'onion.n.01'
p125
I0
ssg44
(dp126
g22
I0
sg9
I0
sg44
I7
sg50
I0
sg60
I0
sg36
I0
sg56
I0
sg20
I0
sg29
I0
sg55
I0
sg31
I0
sg42
I0
sg43
I0
sg8
I0
sg46
I0
sg30
I0
sg49
I0
sg19
I0
sg11
I0
sg10
I0
sg24
I0
sg54
I0
sg53
I0
sg52
I0
sg12
I0
sg23
I0
sg48
I0
sg14
I0
sg28
I0
sg27
I0
sg15
I0
sg59
I0
sg21
I0
sg45
I0
sg40
I0
sg47
I0
sg58
I0
sg61
I0
sg57
I0
sg25
I0
sg37
I0
sg34
I0
sg62
I0
sg26
I0
sg33
I0
sg38
I0
sg32
I0
sg16
I0
sg39
I0
sg17
I0
sg41
I0
sg13
I0
sg35
I0
sg51
I0
sg18
I0
ssg36
(dp127
g22
I0
sg9
I0
sg13
I0
sg50
I0
sS'bread.n.01'
p128
I0
sg44
I0
sg36
I7
sS'milk.n.04'
p129
I0
sg20
I0
sg29
I0
sS'milk.n.01'
p130
I0
sg31
I0
sg42
I0
sg43
I0
sg8
I0
sg46
I0
sg30
I0
sg49
I0
sg19
I0
sg11
I0
sg10
I0
sg24
I0
sS'pitcher.n.03'
p131
I0
sS'pitcher.n.02'
p132
I0
sS'lemon.n.04'
p133
I0
sg14
I0
sg48
I0
sg12
I0
sg28
I0
sg27
I0
sg15
I0
sS'banana.n.02'
p134
I0
sg21
I0
sg45
I0
sg40
I0
sg47
I0
sS'knife.n.01'
p135
I0
sS'foam.n.01'
p136
I0
sS'chicken.n.01'
p137
I0
sg25
I0
sg37
I0
sg34
I0
sS'mug.n.04'
p138
I0
sg26
I0
sg33
I0
sg38
I0
sg32
I0
sg16
I0
sg39
I0
sg17
I0
sg41
I0
sg23
I0
sg35
I0
sS'lemon.n.01'
p139
I0
sg18
I0
ssg56
(dp140
S'plate.n.12'
p141
I0
sg84
I0
sg85
I0
sS'beef.n.01'
p142
I0
sg87
I0
sg88
I0
sg60
I0
sS'batter.n.02'
p143
I0
sg56
I0
sg57
I0
sg61
I0
sg55
I0
sg90
I0
sg91
I0
sg92
I0
sg93
I0
sg94
I0
sS'cabbage.n.01'
p144
I0
sg96
I0
sS'beef.n.02'
p145
I0
sg99
I0
sg100
I0
sg101
I0
sg54
I0
sg53
I0
sg52
I0
sg102
I0
sS'cake.n.03'
p146
I0
sg104
I0
sg105
I0
sg106
I0
sg107
I0
sg58
I0
sg59
I0
sS'plate.n.04'
p147
I0
sg109
I0
sg110
I0
sg111
I0
sS'whipped_cream.n.01'
p148
I0
sS'patty.n.01'
p149
I0
sg114
I0
sS'opening.n.01'
p150
I0
sg62
I0
sS'flesh.n.01'
p151
I0
sg117
I0
sg118
I0
sg119
I0
sg120
I0
sg121
I0
sg122
I0
sg123
I0
sg124
I0
sS'gap.n.05'
p152
I0
sg51
I0
sg125
I0
ssg20
(dp153
g22
I0
sg9
I0
sg13
I0
sg50
I0
sg67
I0
sg44
I0
sg36
I0
sg68
I0
sg20
I0
sg24
I0
sg69
I0
sg31
I0
sg42
I0
sg43
I0
sg8
I0
sg46
I0
sg30
I0
sg49
I0
sg19
I0
sg11
I0
sg10
I0
sg29
I0
sg70
I0
sg71
I0
sg72
I0
sg12
I0
sg48
I0
sg14
I0
sg28
I0
sg27
I0
sg15
I0
sg73
I0
sg21
I0
sg45
I0
sg40
I0
sg47
I0
sg74
I0
sg75
I0
sg76
I0
sg25
I0
sg37
I0
sg34
I0
sg77
I0
sg26
I0
sg33
I0
sg38
I0
sg32
I0
sg16
I0
sg39
I0
sg17
I0
sg41
I0
sg23
I0
sg35
I0
sg78
I0
sg18
I0
ssg24
(dp154
g22
I0
sg9
I0
sg13
I0
sg50
I0
sg67
I0
sg44
I0
sg36
I0
sg129
I0
sg20
I0
sg24
I0
sg130
I0
sg31
I0
sg42
I0
sg43
I0
sg8
I0
sg46
I0
sg30
I0
sg49
I0
sg19
I0
sg11
I0
sg10
I0
sg29
I0
sg131
I0
sg132
I0
sg133
I0
sg12
I0
sg48
I0
sg14
I0
sg28
I0
sg27
I0
sg15
I0
sg134
I0
sg21
I0
sg45
I0
sg40
I0
sg47
I0
sg135
I0
sg75
I0
sg137
I0
sg25
I0
sg37
I0
sg34
I0
sg77
I0
sg26
I0
sg33
I0
sg38
I0
sg32
I0
sg16
I0
sg39
I0
sg17
I0
sg41
I0
sg23
I0
sg35
I0
sg139
I0
sg18
I0
ssg55
(dp155
g141
I0
sg84
I0
sg85
I0
sg142
I0
sg87
I0
sg88
I0
sg60
I0
sg143
I0
sg56
I7
sg57
I0
sg61
I0
sg55
I0
sg90
I0
sg91
I0
sg92
I0
sg93
I0
sg94
I0
sg144
I0
sg96
I0
sg145
I0
sg99
I0
sg100
I0
sg101
I0
sg54
I0
sg53
I0
sg52
I0
sg102
I0
sg146
I0
sg104
I0
sg105
I0
sg106
I0
sg107
I0
sg58
I0
sg59
I0
sg147
I0
sg109
I0
sg110
I0
sg111
I0
sg148
I0
sg149
I0
sg114
I0
sg150
I0
sg62
I0
sg151
I0
sg117
I0
sg118
I0
sg119
I0
sg120
I0
sg121
I0
sg122
I0
sg123
I0
sg124
I0
sg152
I0
sg51
I0
sg125
I0
ssg31
(dp156
g13
I0
sg9
I0
sg22
I0
sg50
I0
sg60
I0
sg44
I0
sg36
I0
sg56
I0
sg20
I0
sg29
I0
sg55
I0
sg31
I7
sg42
I0
sg43
I0
sg8
I0
sg46
I0
sg30
I0
sg49
I0
sg19
I0
sg11
I0
sg10
I0
sg24
I0
sg54
I0
sg53
I0
sg52
I0
sg12
I0
sg48
I0
sg14
I0
sg28
I0
sg27
I0
sg15
I0
sg59
I0
sg21
I0
sg45
I0
sg40
I0
sg47
I0
sg58
I0
sg61
I0
sg57
I0
sg25
I0
sg37
I0
sg34
I0
sg62
I0
sg26
I0
sg33
I0
sg38
I0
sg32
I0
sg16
I0
sg39
I0
sg17
I0
sg41
I0
sg23
I0
sg35
I0
sg51
I0
sg18
I0
ssg42
(dp157
g22
I0
sg9
I0
sg13
I0
sg50
I0
sg60
I0
sg44
I0
sg36
I0
sg56
I0
sg20
I0
sg29
I0
sg55
I0
sg31
I0
sg42
I0
sg43
I0
sg8
I0
sg46
I0
sg30
I0
sg49
I0
sg19
I0
sg11
I0
sg10
I0
sg24
I0
sg54
I0
sg53
I0
sg52
I0
sg12
I0
sg48
I0
sg14
I0
sg28
I0
sg27
I0
sg15
I0
sg59
I0
sg21
I0
sg45
I0
sg40
I0
sg47
I0
sg58
I0
sg61
I0
sg57
I0
sg25
I0
sg37
I0
sg34
I0
sg62
I0
sg26
I0
sg33
I0
sg38
I0
sg32
I0
sg16
I0
sg39
I0
sg17
I0
sg41
I0
sg23
I0
sg35
I0
sg51
I0
sg18
I0
ssg43
(dp158
g22
I0
sg9
I0
sg13
I0
sg50
I0
sg60
I0
sg44
I0
sg36
I0
sg56
I0
sg20
I0
sg29
I0
sg55
I0
sg31
I14
sg42
I0
sg43
I0
sg8
I0
sg46
I0
sg30
I0
sg49
I0
sg19
I0
sg11
I0
sg10
I0
sg24
I0
sg54
I0
sg53
I0
sg52
I0
sg12
I0
sg48
I0
sg14
I0
sg28
I0
sg27
I0
sg15
I0
sg59
I0
sg21
I0
sg45
I0
sg40
I0
sg47
I0
sg58
I0
sg61
I0
sg57
I0
sg25
I0
sg37
I0
sg34
I0
sg62
I0
sg26
I0
sg33
I0
sg38
I0
sg32
I0
sg16
I0
sg39
I0
sg17
I0
sg41
I0
sg23
I0
sg35
I0
sg51
I0
sg18
I0
ssg8
(dp159
g22
I0
sg9
I35
sg13
I0
sg50
I0
sg60
I0
sg44
I0
sg36
I0
sg56
I0
sg20
I0
sg24
I0
sg55
I0
sg31
I0
sg42
I0
sg43
I0
sg8
I0
sg46
I0
sg30
I0
sg49
I0
sg19
I0
sg11
I0
sg10
I0
sg29
I0
sg54
I0
sg53
I0
sg52
I0
sg12
I0
sg48
I0
sg14
I0
sg28
I0
sg27
I0
sg15
I0
sg59
I0
sg21
I0
sg45
I0
sg40
I0
sg47
I0
sg58
I0
sg61
I0
sg57
I0
sg25
I0
sg37
I0
sg34
I0
sg62
I0
sg26
I0
sg33
I0
sg38
I0
sg32
I0
sg16
I0
sg39
I0
sg17
I0
sg41
I0
sg23
I0
sg35
I0
sg51
I0
sg18
I0
ssg46
(dp160
g22
I0
sg9
I0
sg13
I0
sg50
I0
sg60
I0
sg44
I0
sg36
I0
sg56
I0
sg20
I0
sg29
I0
sg55
I0
sg31
I0
sg42
I0
sg43
I0
sg8
I0
sg46
I0
sg30
I0
sg49
I0
sg19
I0
sg11
I0
sg10
I0
sg24
I0
sg54
I0
sg53
I0
sg52
I0
sg12
I0
sg48
I0
sg14
I0
sg28
I0
sg27
I0
sg15
I0
sg59
I0
sg21
I0
sg45
I0
sg40
I0
sg47
I0
sg58
I0
sg61
I0
sg57
I0
sg25
I0
sg37
I0
sg34
I0
sg62
I0
sg26
I0
sg33
I0
sg38
I0
sg32
I0
sg16
I0
sg39
I0
sg17
I0
sg41
I0
sg23
I0
sg35
I0
sg51
I0
sg18
I0
ssg30
(dp161
g22
I0
sg9
I0
sg13
I0
sg50
I0
sg60
I0
sg44
I0
sg36
I0
sg56
I0
sg20
I0
sg29
I0
sg55
I0
sg31
I0
sg42
I0
sg43
I0
sg8
I0
sg46
I0
sg30
I7
sg49
I0
sg19
I0
sg11
I0
sg10
I0
sg24
I0
sg54
I0
sg53
I0
sg52
I0
sg12
I0
sg48
I0
sg14
I0
sg28
I0
sg27
I0
sg15
I0
sg59
I0
sg21
I0
sg45
I0
sg40
I0
sg47
I0
sg58
I0
sg61
I0
sg57
I0
sg25
I0
sg37
I0
sg34
I0
sg62
I0
sg26
I0
sg33
I0
sg38
I0
sg32
I0
sg16
I0
sg39
I0
sg17
I0
sg41
I0
sg23
I0
sg35
I0
sg51
I0
sg18
I0
ssg49
(dp162
g22
I0
sg9
I0
sg13
I0
sg50
I7
sg60
I0
sg44
I0
sg36
I0
sg56
I0
sg20
I0
sg29
I0
sg55
I0
sg31
I0
sg42
I0
sg43
I0
sg8
I0
sg46
I0
sg30
I0
sg49
I0
sg19
I0
sg11
I0
sg10
I0
sg24
I0
sg54
I0
sg53
I0
sg52
I0
sg12
I0
sg48
I0
sg14
I0
sg28
I0
sg27
I0
sg15
I0
sg59
I0
sg21
I0
sg45
I0
sg40
I0
sg47
I0
sg58
I0
sg61
I0
sg57
I0
sg25
I0
sg37
I0
sg34
I0
sg62
I0
sg26
I0
sg33
I0
sg38
I0
sg32
I0
sg16
I0
sg39
I0
sg17
I0
sg41
I0
sg23
I0
sg35
I0
sg51
I0
sg18
I0
ssg19
(dp163
g22
I0
sg9
I0
sg13
I0
sg50
I0
sg67
I0
sg44
I0
sg36
I0
sg68
I0
sg20
I7
sg29
I0
sg69
I0
sg31
I0
sg42
I0
sg43
I0
sg8
I0
sg46
I0
sg30
I0
sg49
I0
sg19
I0
sg11
I0
sg10
I0
sg24
I0
sg70
I0
sg71
I0
sg72
I0
sg12
I0
sg48
I0
sg14
I0
sg28
I0
sg27
I0
sg15
I0
sg73
I0
sg21
I0
sg45
I0
sg40
I0
sg47
I0
sg74
I0
sg75
I0
sg76
I0
sg25
I0
sg37
I0
sg34
I0
sg77
I0
sg26
I0
sg33
I0
sg38
I0
sg32
I0
sg16
I0
sg39
I0
sg17
I0
sg41
I0
sg23
I0
sg35
I0
sg78
I0
sg18
I0
ssg11
(dp164
g22
I0
sg9
I0
sg13
I0
sg50
I0
sg60
I0
sg44
I0
sg36
I0
sg56
I0
sg20
I0
sg24
I0
sg55
I0
sg31
I0
sg42
I0
sg43
I0
sg8
I0
sg46
I0
sg30
I0
sg49
I0
sg19
I0
sg11
I0
sg10
I0
sg29
I0
sg54
I0
sg53
I0
sg52
I0
sg12
I0
sg48
I0
sg14
I0
sg28
I0
sg27
I0
sg15
I0
sg59
I0
sg21
I0
sg45
I0
sg40
I0
sg47
I0
sg58
I0
sg61
I0
sg57
I0
sg25
I0
sg37
I0
sg34
I0
sg62
I0
sg26
I0
sg33
I0
sg38
I0
sg32
I0
sg16
I0
sg39
I0
sg17
I0
sg41
I0
sg23
I0
sg35
I0
sg51
I0
sg18
I0
ssg10
(dp165
g22
I0
sg9
I0
sg13
I0
sg50
I0
sg60
I0
sg44
I0
sg36
I0
sg56
I0
sg20
I0
sg24
I0
sg55
I0
sg31
I0
sg42
I0
sg43
I0
sg8
I0
sg46
I0
sg30
I0
sg49
I0
sg19
I0
sg11
I7
sg10
I0
sg29
I0
sg54
I0
sg53
I0
sg52
I0
sg12
I0
sg48
I0
sg14
I0
sg28
I0
sg27
I0
sg15
I0
sg59
I0
sg21
I0
sg45
I0
sg40
I0
sg47
I0
sg58
I0
sg61
I0
sg57
I0
sg25
I0
sg37
I0
sg34
I0
sg62
I0
sg26
I0
sg33
I0
sg38
I0
sg32
I0
sg16
I0
sg39
I0
sg17
I0
sg41
I0
sg23
I0
sg35
I0
sg51
I0
sg18
I0
ssg29
(dp166
g22
I0
sg9
I0
sg13
I0
sg50
I0
sg60
I0
sg44
I0
sg36
I0
sg56
I0
sg20
I0
sg24
I0
sg55
I0
sg31
I0
sg42
I0
sg43
I0
sg8
I0
sg46
I0
sg30
I21
sg49
I0
sg19
I0
sg11
I0
sg10
I0
sg29
I0
sg54
I0
sg53
I0
sg52
I0
sg12
I0
sg48
I0
sg14
I0
sg28
I0
sg27
I0
sg15
I0
sg59
I0
sg21
I0
sg45
I0
sg40
I7
sg47
I0
sg58
I0
sg61
I0
sg57
I0
sg25
I0
sg37
I0
sg34
I0
sg62
I0
sg26
I0
sg33
I0
sg38
I0
sg32
I0
sg16
I0
sg39
I0
sg17
I0
sg41
I0
sg23
I0
sg35
I0
sg51
I0
sg18
I0
ssg54
(dp167
g141
I0
sg84
I0
sg85
I0
sg142
I0
sg87
I0
sg88
I0
sg60
I0
sg143
I0
sg56
I0
sg57
I0
sg61
I0
sg55
I0
sg90
I0
sg91
I0
sg92
I0
sg93
I0
sg94
I0
sg144
I0
sg96
I0
sg145
I0
sg99
I0
sg100
I0
sg101
I0
sg54
I0
sg53
I0
sg52
I0
sg102
I0
sg146
I0
sg104
I0
sg105
I0
sg106
I0
sg107
I0
sg58
I0
sg59
I0
sg147
I0
sg109
I0
sg110
I0
sg111
I0
sg148
I0
sg149
I0
sg114
I0
sg150
I0
sg62
I0
sg151
I0
sg117
I0
sg118
I0
sg119
I0
sg120
I0
sg121
I0
sg122
I0
sg123
I0
sg124
I0
sg152
I0
sg51
I0
sg125
I0
ssg53
(dp168
g141
I0
sg84
I0
sg85
I0
sg142
I0
sg87
I0
sg88
I0
sg60
I0
sg143
I0
sg56
I0
sg57
I0
sg61
I0
sg55
I0
sg90
I0
sg91
I0
sg92
I0
sg93
I0
sg94
I0
sg144
I0
sg96
I0
sg145
I0
sg99
I0
sg100
I0
sg101
I0
sg54
I7
sg53
I0
sg52
I0
sg102
I0
sg146
I0
sg104
I0
sg105
I0
sg106
I0
sg107
I0
sg58
I0
sg59
I0
sg147
I0
sg109
I0
sg110
I0
sg111
I0
sg148
I0
sg149
I0
sg114
I0
sg150
I0
sg62
I0
sg151
I0
sg117
I0
sg118
I0
sg119
I0
sg120
I0
sg121
I0
sg122
I0
sg123
I0
sg124
I0
sg152
I0
sg51
I0
sg125
I0
ssg52
(dp169
g141
I0
sg84
I0
sg85
I0
sg142
I0
sg87
I0
sg88
I0
sg60
I0
sg143
I0
sg56
I0
sg57
I0
sg61
I0
sg55
I0
sg90
I0
sg91
I0
sg92
I0
sg93
I0
sg94
I0
sg144
I0
sg96
I0
sg145
I0
sg99
I0
sg100
I0
sg101
I0
sg54
I0
sg53
I0
sg123
I0
sg102
I0
sg146
I0
sg104
I0
sg105
I0
sg106
I0
sg107
I0
sg58
I0
sg59
I0
sg147
I0
sg109
I0
sg110
I0
sg111
I0
sg148
I0
sg149
I0
sg114
I0
sg150
I0
sg62
I0
sg151
I0
sg117
I0
sg118
I0
sg119
I0
sg120
I0
sg121
I0
sg122
I0
sg52
I0
sg124
I0
sg152
I0
sg51
I0
sg125
I0
ssg12
(dp170
g22
I0
sg9
I0
sg13
I7
sg50
I0
sg60
I0
sg44
I0
sg36
I0
sg56
I0
sg20
I0
sg24
I0
sg55
I0
sg31
I0
sg42
I0
sg43
I0
sg8
I0
sg46
I0
sg30
I0
sg49
I0
sg19
I0
sg11
I0
sg10
I0
sg29
I0
sg54
I0
sg53
I0
sg52
I0
sg12
I0
sg48
I0
sg14
I0
sg28
I0
sg27
I0
sg15
I0
sg59
I0
sg21
I0
sg45
I0
sg40
I0
sg47
I0
sg58
I0
sg61
I0
sg57
I0
sg25
I0
sg37
I0
sg34
I0
sg62
I0
sg26
I0
sg33
I0
sg38
I0
sg32
I0
sg16
I0
sg39
I0
sg17
I0
sg41
I0
sg23
I0
sg35
I0
sg51
I0
sg18
I0
ssg48
(dp171
g22
I0
sg9
I0
sg13
I0
sg50
I0
sg60
I0
sg44
I0
sg36
I0
sg56
I0
sg20
I0
sg29
I0
sg55
I0
sg31
I0
sg42
I0
sg43
I0
sg8
I0
sg46
I0
sg30
I0
sg49
I0
sg19
I0
sg11
I0
sg10
I0
sg24
I0
sg54
I0
sg53
I0
sg52
I0
sg12
I0
sg14
I0
sg28
I0
sg48
I7
sg15
I0
sg59
I0
sg21
I0
sg45
I0
sg40
I0
sg47
I0
sg58
I0
sg61
I0
sg57
I0
sg25
I0
sg37
I0
sg34
I0
sg62
I0
sg26
I0
sg33
I0
sg38
I0
sg32
I0
sg16
I0
sg39
I0
sg17
I0
sg41
I0
sg23
I0
sg35
I0
sg51
I0
sg27
I0
sg18
I0
ssg14
(dp172
g22
I0
sg9
I0
sg13
I0
sg50
I0
sg60
I0
sg44
I0
sg36
I0
sg56
I0
sg20
I0
sg24
I0
sg55
I0
sg31
I0
sg42
I0
sg43
I0
sg8
I0
sg46
I0
sg30
I0
sg49
I0
sg19
I0
sg11
I0
sg10
I0
sg29
I0
sg54
I0
sg53
I0
sg52
I0
sg14
I7
sg48
I0
sg12
I0
sg28
I0
sg27
I0
sg15
I0
sg59
I0
sg21
I0
sg45
I0
sg40
I0
sg47
I0
sg58
I0
sg61
I0
sg57
I0
sg25
I0
sg37
I0
sg34
I0
sg62
I0
sg26
I0
sg33
I0
sg38
I0
sg32
I0
sg16
I0
sg39
I0
sg17
I0
sg41
I0
sg23
I0
sg35
I0
sg51
I0
sg18
I0
ssg28
(dp173
g13
I0
sg9
I0
sg22
I0
sg50
I0
sg60
I0
sg44
I0
sg36
I0
sg56
I0
sg20
I0
sg24
I0
sg55
I0
sg31
I0
sg42
I0
sg43
I0
sg8
I0
sg46
I0
sg30
I0
sg49
I0
sg19
I0
sg11
I0
sg10
I0
sg29
I0
sg54
I0
sg53
I0
sg52
I0
sg12
I0
sg48
I0
sg14
I0
sg28
I0
sg27
I0
sg15
I0
sg59
I0
sg21
I0
sg45
I0
sg40
I0
sg47
I0
sg58
I0
sg61
I0
sg57
I0
sg25
I0
sg37
I0
sg34
I0
sg62
I0
sg26
I0
sg33
I0
sg38
I0
sg32
I0
sg16
I0
sg39
I0
sg17
I0
sg41
I0
sg23
I0
sg35
I0
sg51
I0
sg18
I0
ssg27
(dp174
g22
I0
sg9
I0
sg13
I0
sg50
I0
sg60
I0
sg44
I0
sg36
I0
sg56
I0
sg20
I0
sg24
I0
sg55
I0
sg31
I0
sg42
I0
sg43
I0
sg8
I0
sg46
I0
sg30
I0
sg49
I0
sg19
I0
sg11
I0
sg10
I0
sg29
I0
sg54
I0
sg53
I0
sg52
I0
sg12
I0
sg48
I0
sg14
I0
sg28
I35
sg27
I0
sg15
I0
sg59
I0
sg21
I0
sg45
I0
sg40
I0
sg47
I0
sg58
I0
sg61
I0
sg57
I0
sg25
I0
sg37
I0
sg34
I0
sg62
I0
sg26
I0
sg33
I0
sg38
I0
sg32
I0
sg16
I0
sg39
I0
sg17
I0
sg41
I0
sg23
I0
sg35
I0
sg51
I0
sg18
I0
ssg15
(dp175
g22
I0
sg9
I0
sg13
I0
sg50
I0
sg67
I0
sg44
I0
sg36
I0
sg68
I0
sg20
I0
sg24
I0
sg69
I0
sg31
I0
sg42
I0
sg43
I0
sg8
I0
sg46
I0
sg30
I0
sg49
I0
sg19
I0
sg11
I0
sg10
I0
sg29
I0
sg70
I0
sg71
I0
sg72
I0
sg12
I0
sg48
I0
sg14
I0
sg28
I0
sg27
I0
sg15
I7
sg73
I0
sg21
I0
sg45
I0
sg40
I0
sg47
I0
sg74
I0
sg75
I0
sg76
I0
sg25
I0
sg37
I0
sg34
I0
sg77
I0
sg26
I0
sg33
I0
sg38
I0
sg32
I0
sg16
I0
sg39
I0
sg17
I0
sg41
I0
sg23
I0
sg35
I0
sg78
I0
sg18
I0
ssg59
(dp176
g83
I0
sg84
I0
sg85
I0
sg86
I0
sg87
I0
sg88
I0
sg60
I0
sg143
I0
sg56
I0
sg57
I0
sg61
I0
sg55
I0
sg90
I0
sg91
I0
sg92
I0
sg93
I0
sg94
I0
sg95
I0
sg96
I0
sg98
I0
sg99
I0
sg100
I0
sg101
I0
sg54
I0
sg53
I0
sg52
I0
sg102
I0
sg146
I0
sg104
I0
sg105
I0
sg106
I0
sg107
I0
sg58
I0
sg59
I7
sg108
I0
sg109
I0
sg110
I0
sg111
I0
sg148
I0
sg149
I0
sg114
I0
sg150
I0
sg62
I0
sg151
I0
sg117
I0
sg118
I0
sg119
I0
sg120
I0
sg121
I0
sg122
I0
sg123
I0
sg124
I0
sg152
I0
sg51
I0
sg125
I0
ssg21
(dp177
g22
I7
sg9
I0
sg13
I0
sg50
I0
sg67
I0
sg44
I0
sg36
I0
sg68
I0
sg20
I0
sg24
I0
sg69
I0
sg31
I0
sg42
I0
sg43
I0
sg8
I0
sg46
I0
sg30
I0
sg49
I0
sg19
I0
sg11
I0
sg10
I0
sg29
I0
sg70
I0
sg71
I0
sg72
I0
sg12
I0
sg48
I0
sg14
I0
sg28
I0
sg27
I0
sg15
I0
sg73
I0
sg21
I0
sg45
I0
sg40
I0
sg47
I0
sg74
I0
sg75
I0
sg76
I0
sg25
I0
sg37
I0
sg34
I0
sg77
I0
sg26
I0
sg33
I0
sg38
I0
sg32
I0
sg16
I0
sg39
I0
sg17
I0
sg41
I0
sg23
I0
sg35
I0
sg78
I0
sg18
I0
ssg45
(dp178
g22
I0
sg9
I0
sg13
I0
sg50
I0
sg60
I0
sg44
I0
sg36
I0
sg56
I0
sg20
I0
sg29
I0
sg55
I0
sg31
I0
sg42
I0
sg43
I0
sg8
I0
sg46
I0
sg30
I0
sg49
I0
sg19
I0
sg11
I0
sg10
I0
sg24
I0
sg54
I0
sg53
I0
sg52
I0
sg12
I0
sg48
I0
sg14
I0
sg28
I0
sg27
I0
sg15
I0
sg59
I0
sg21
I0
sg45
I7
sg40
I0
sg47
I0
sg58
I0
sg61
I0
sg57
I0
sg25
I0
sg37
I0
sg34
I0
sg62
I0
sg26
I0
sg33
I0
sg38
I0
sg32
I0
sg16
I0
sg39
I0
sg17
I0
sg41
I0
sg23
I0
sg35
I0
sg51
I0
sg18
I0
ssg40
(dp179
g22
I0
sg9
I0
sg13
I0
sg50
I0
sg60
I0
sg44
I0
sg36
I0
sg56
I0
sg20
I0
sg29
I0
sg55
I0
sg31
I0
sg42
I0
sg43
I0
sg8
I0
sg46
I0
sg30
I0
sg49
I0
sg19
I0
sg11
I0
sg10
I0
sg24
I0
sg54
I0
sg53
I0
sg52
I0
sg12
I0
sg48
I0
sg14
I0
sg28
I0
sg27
I0
sg15
I0
sg59
I0
sg21
I0
sg45
I0
sg40
I0
sg47
I0
sg58
I0
sg61
I0
sg57
I0
sg25
I0
sg37
I0
sg34
I0
sg62
I0
sg26
I0
sg33
I0
sg38
I0
sg32
I0
sg16
I0
sg39
I0
sg17
I0
sg41
I0
sg23
I0
sg35
I0
sg51
I0
sg18
I0
ssg47
(dp180
g22
I0
sg9
I0
sg13
I0
sg50
I0
sg60
I0
sg44
I0
sg36
I0
sg56
I0
sg20
I0
sg29
I0
sg55
I0
sg31
I0
sg42
I0
sg43
I0
sg8
I0
sg46
I0
sg30
I0
sg49
I0
sg19
I0
sg11
I0
sg10
I0
sg24
I0
sg54
I0
sg53
I0
sg52
I0
sg14
I0
sg48
I0
sg12
I0
sg28
I0
sg27
I0
sg15
I0
sg59
I0
sg21
I0
sg45
I7
sg40
I0
sg47
I0
sg58
I0
sg61
I0
sg57
I0
sg25
I0
sg37
I0
sg34
I0
sg62
I0
sg26
I0
sg33
I0
sg38
I0
sg32
I0
sg16
I0
sg39
I0
sg17
I0
sg41
I0
sg23
I0
sg35
I0
sg51
I0
sg18
I0
ssg58
(dp181
g83
I0
sg84
I0
sg85
I0
sg86
I0
sg87
I0
sg88
I0
sg60
I0
sg143
I0
sg56
I0
sg57
I0
sg61
I0
sg55
I0
sg90
I0
sg91
I0
sg92
I0
sg93
I0
sg94
I0
sg95
I0
sg96
I0
sg98
I0
sg99
I0
sg100
I0
sg101
I0
sg54
I0
sg53
I0
sg52
I0
sg102
I0
sg146
I0
sg104
I0
sg105
I0
sg106
I0
sg107
I0
sg58
I14
sg59
I0
sg108
I0
sg109
I0
sg110
I0
sg111
I0
sg148
I0
sg149
I0
sg114
I0
sg150
I0
sg62
I0
sg151
I0
sg117
I0
sg118
I0
sg119
I0
sg120
I0
sg121
I0
sg122
I0
sg123
I0
sg124
I0
sg152
I0
sg51
I0
sg125
I0
ssg61
(dp182
g83
I0
sg84
I0
sg85
I0
sg86
I0
sg87
I0
sg88
I0
sg60
I0
sg89
I0
sg56
I0
sg57
I0
sg61
I7
sg55
I0
sg90
I0
sg91
I0
sg92
I0
sg93
I0
sg94
I0
sg95
I0
sg96
I0
sg97
I0
sg98
I0
sg99
I0
sg100
I0
sg101
I0
sg54
I0
sg53
I0
sg52
I0
sg102
I0
sg103
I0
sg104
I0
sg105
I0
sg106
I0
sg107
I0
sg58
I0
sg59
I0
sg108
I0
sg109
I0
sg110
I0
sg111
I0
sg112
I0
sg113
I0
sg114
I0
sg115
I0
sg62
I0
sg116
I0
sg117
I0
sg118
I0
sg119
I0
sg120
I0
sg121
I0
sg122
I0
sg123
I0
sg124
I0
sg51
I0
sg125
I0
ssg57
(dp183
g83
I0
sg84
I0
sg57
I7
sg86
I0
sg87
I0
sg88
I0
sg60
I0
sg143
I0
sg56
I0
sg85
I0
sg61
I0
sg55
I0
sg90
I0
sg91
I0
sg92
I0
sg93
I0
sg94
I0
sg95
I0
sg96
I0
sg98
I0
sg99
I0
sg100
I0
sg101
I0
sg54
I0
sg53
I0
sg52
I0
sg102
I0
sg146
I0
sg104
I0
sg105
I0
sg106
I0
sg107
I0
sg58
I0
sg59
I0
sg108
I0
sg109
I0
sg110
I0
sg111
I0
sg148
I0
sg149
I0
sg114
I0
sg150
I0
sg62
I0
sg151
I0
sg117
I0
sg118
I0
sg119
I0
sg120
I0
sg121
I0
sg122
I0
sg123
I0
sg124
I0
sg152
I0
sg51
I0
sg125
I0
ssg25
(dp184
g22
I0
sg9
I0
sg13
I0
sg50
I0
sg67
I0
sg44
I0
sg36
I0
sg129
I0
sg20
I0
sg24
I0
sg130
I0
sg31
I0
sg42
I0
sg43
I0
sg8
I0
sg46
I0
sg30
I0
sg49
I0
sg19
I0
sg11
I0
sg10
I0
sg29
I0
sg131
I0
sg132
I0
sg133
I0
sg12
I0
sg48
I0
sg14
I0
sg28
I0
sg27
I0
sg15
I0
sg134
I0
sg21
I0
sg45
I0
sg40
I0
sg47
I0
sg135
I0
sg75
I0
sg137
I0
sg25
I7
sg37
I0
sg34
I0
sg77
I0
sg26
I0
sg33
I0
sg38
I0
sg32
I0
sg16
I0
sg39
I0
sg17
I0
sg41
I0
sg23
I0
sg35
I0
sg139
I0
sg18
I0
ssg37
(dp185
g22
I0
sg9
I0
sg13
I0
sg50
I0
sg60
I0
sg44
I0
sg36
I0
sg56
I0
sg20
I0
sg29
I0
sg55
I0
sg31
I0
sg42
I0
sg43
I0
sg8
I0
sg46
I0
sg30
I0
sg49
I0
sg19
I0
sg11
I0
sg10
I0
sg24
I0
sg54
I0
sg53
I0
sg52
I0
sg12
I0
sg48
I0
sg14
I0
sg28
I0
sg27
I0
sg15
I0
sg59
I0
sg21
I0
sg45
I0
sg40
I0
sg47
I0
sg58
I0
sg61
I0
sg57
I0
sg25
I0
sg37
I0
sg34
I0
sg62
I0
sg26
I0
sg33
I0
sg38
I7
sg32
I0
sg16
I0
sg39
I0
sg17
I0
sg41
I0
sg23
I0
sg35
I0
sg51
I0
sg18
I0
ssg34
(dp186
g22
I0
sg9
I0
sg13
I0
sg50
I0
sg128
I0
sg44
I0
sg36
I0
sg129
I0
sg20
I0
sg29
I0
sg130
I0
sg31
I0
sg42
I0
sg43
I0
sg8
I0
sg46
I0
sg30
I0
sg49
I0
sg19
I0
sg11
I0
sg10
I0
sg24
I0
sg131
I0
sg132
I0
sg133
I0
sg14
I0
sg48
I0
sg12
I0
sg28
I0
sg27
I0
sg15
I0
sg134
I0
sg21
I0
sg45
I0
sg40
I0
sg47
I0
sg135
I0
sg136
I0
sg137
I0
sg25
I0
sg37
I0
sg34
I0
sg138
I0
sg26
I0
sg33
I0
sg38
I0
sg32
I0
sg16
I0
sg39
I0
sg17
I0
sg41
I0
sg23
I0
sg35
I7
sg139
I0
sg18
I0
ssg62
(dp187
g83
I0
sg84
I0
sg85
I0
sg86
I0
sg87
I0
sg88
I0
sg60
I0
sg89
I0
sg56
I0
sg57
I0
sg61
I0
sg55
I0
sg90
I0
sg91
I0
sg92
I0
sg93
I0
sg94
I0
sg95
I0
sg96
I0
sg97
I0
sg98
I0
sg99
I0
sg100
I0
sg101
I0
sg54
I0
sg53
I0
sg52
I0
sg102
I0
sg103
I0
sg104
I0
sg105
I0
sg106
I0
sg107
I0
sg58
I0
sg59
I0
sg108
I0
sg109
I0
sg110
I0
sg111
I0
sg112
I0
sg113
I0
sg114
I0
sg115
I0
sg62
I7
sg116
I0
sg117
I0
sg118
I0
sg119
I0
sg120
I0
sg121
I0
sg122
I0
sg123
I0
sg124
I0
sg51
I0
sg125
I0
ssg26
(dp188
g22
I0
sg9
I0
sg13
I0
sg50
I0
sg67
I0
sg44
I0
sg36
I0
sg129
I0
sg20
I0
sg29
I0
sg130
I0
sg31
I0
sg42
I0
sg43
I0
sg8
I0
sg46
I0
sg30
I0
sg49
I0
sg19
I0
sg11
I0
sg10
I0
sg24
I0
sg131
I0
sg132
I0
sg133
I0
sg12
I0
sg48
I0
sg14
I0
sg28
I0
sg27
I0
sg15
I0
sg134
I0
sg21
I0
sg45
I0
sg40
I0
sg47
I0
sg135
I0
sg75
I0
sg137
I0
sg25
I0
sg37
I0
sg34
I0
sg77
I0
sg26
I7
sg33
I0
sg38
I0
sg32
I0
sg16
I0
sg39
I0
sg17
I0
sg41
I0
sg23
I0
sg35
I0
sg139
I0
sg18
I0
ssg33
(dp189
g22
I0
sg9
I0
sg13
I0
sg50
I0
sg60
I0
sg44
I0
sg36
I0
sg56
I0
sg20
I0
sg29
I0
sg55
I0
sg31
I0
sg42
I0
sg43
I0
sg8
I0
sg46
I0
sg30
I0
sg49
I0
sg19
I0
sg11
I0
sg10
I0
sg24
I0
sg54
I0
sg53
I0
sg52
I0
sg12
I0
sg48
I0
sg14
I0
sg28
I0
sg27
I0
sg15
I0
sg59
I0
sg21
I0
sg45
I0
sg40
I0
sg47
I0
sg58
I0
sg61
I0
sg57
I0
sg25
I0
sg37
I0
sg34
I0
sg62
I0
sg26
I0
sg33
I0
sg38
I0
sg32
I0
sg16
I0
sg39
I0
sg17
I0
sg41
I0
sg23
I0
sg35
I0
sg51
I0
sg18
I0
ssg38
(dp190
g22
I0
sg9
I0
sg13
I0
sg50
I0
sg60
I0
sg44
I0
sg36
I0
sg56
I0
sg20
I0
sg29
I0
sg55
I0
sg31
I0
sg42
I0
sg43
I0
sg8
I0
sg46
I0
sg30
I0
sg49
I0
sg19
I0
sg11
I0
sg10
I0
sg24
I0
sg54
I0
sg53
I0
sg52
I0
sg12
I0
sg48
I0
sg14
I0
sg28
I0
sg27
I0
sg15
I0
sg59
I0
sg21
I0
sg45
I0
sg40
I0
sg47
I0
sg58
I0
sg61
I0
sg57
I0
sg25
I0
sg37
I0
sg34
I0
sg62
I0
sg26
I0
sg33
I0
sg38
I0
sg32
I0
sg16
I0
sg39
I0
sg17
I0
sg41
I0
sg23
I0
sg35
I0
sg51
I0
sg18
I0
ssg32
(dp191
g22
I0
sg9
I0
sg13
I0
sg50
I0
sg60
I0
sg44
I0
sg36
I0
sg56
I0
sg20
I0
sg29
I0
sg55
I0
sg31
I0
sg42
I0
sg43
I0
sg8
I0
sg46
I0
sg30
I0
sg49
I0
sg19
I0
sg11
I0
sg10
I0
sg24
I0
sg54
I0
sg53
I0
sg52
I0
sg12
I0
sg48
I0
sg14
I0
sg28
I0
sg27
I0
sg15
I0
sg59
I0
sg21
I0
sg45
I0
sg40
I0
sg47
I0
sg58
I0
sg61
I0
sg57
I0
sg25
I0
sg37
I0
sg34
I0
sg62
I0
sg26
I0
sg33
I14
sg38
I0
sg32
I0
sg16
I0
sg39
I0
sg17
I0
sg41
I0
sg23
I0
sg35
I0
sg51
I0
sg18
I0
ssg16
(dp192
g22
I0
sg9
I0
sg13
I0
sg50
I0
sg60
I0
sg44
I0
sg36
I0
sg56
I0
sg20
I0
sg24
I0
sg55
I0
sg31
I0
sg42
I0
sg43
I0
sg8
I0
sg46
I7
sg30
I0
sg49
I0
sg19
I0
sg11
I0
sg10
I0
sg29
I0
sg54
I0
sg53
I0
sg52
I0
sg14
I0
sg48
I0
sg12
I0
sg28
I0
sg27
I0
sg15
I0
sg59
I0
sg21
I0
sg45
I0
sg40
I0
sg47
I0
sg58
I0
sg61
I0
sg57
I0
sg25
I0
sg37
I0
sg34
I0
sg62
I0
sg26
I0
sg33
I0
sg38
I0
sg32
I0
sg16
I0
sg39
I0
sg17
I28
sg41
I0
sg23
I0
sg35
I0
sg51
I0
sg18
I0
ssg39
(dp193
g22
I0
sg9
I0
sg13
I0
sg50
I0
sg60
I0
sg44
I0
sg36
I0
sg56
I0
sg20
I0
sg29
I0
sg55
I0
sg31
I0
sg42
I0
sg43
I0
sg8
I0
sg46
I0
sg30
I0
sg49
I0
sg19
I0
sg11
I0
sg10
I0
sg24
I0
sg54
I0
sg53
I0
sg52
I0
sg12
I0
sg48
I0
sg14
I0
sg28
I0
sg27
I0
sg15
I0
sg59
I0
sg21
I0
sg45
I0
sg40
I0
sg47
I0
sg58
I0
sg61
I0
sg57
I0
sg25
I0
sg37
I0
sg34
I0
sg62
I0
sg26
I0
sg33
I0
sg38
I0
sg32
I0
sg16
I0
sg39
I14
sg17
I0
sg41
I0
sg23
I0
sg35
I0
sg51
I0
sg18
I0
ssg17
(dp194
g22
I0
sg9
I0
sg17
I0
sg50
I0
sg60
I0
sg44
I0
sg36
I0
sg56
I0
sg20
I0
sg24
I0
sg55
I0
sg31
I0
sg43
I0
sg8
I0
sg46
I0
sg30
I0
sg49
I0
sg19
I0
sg11
I0
sg10
I0
sg29
I0
sg54
I0
sg53
I0
sg52
I0
sg12
I0
sg23
I0
sg48
I0
sg14
I0
sg28
I0
sg27
I0
sg15
I0
sg59
I0
sg21
I0
sg45
I0
sg40
I0
sg47
I0
sg58
I0
sg61
I0
sg57
I0
sg25
I0
sg37
I0
sg34
I0
sg62
I0
sg26
I0
sg33
I0
sg38
I0
sg32
I0
sg16
I0
sg39
I0
sg42
I0
sg41
I0
sg13
I0
sg35
I0
sg51
I0
sg18
I0
ssg41
(dp195
g22
I0
sg9
I0
sg13
I0
sg50
I0
sg60
I0
sg44
I0
sg36
I0
sg56
I0
sg20
I0
sg29
I0
sg55
I0
sg31
I0
sg42
I7
sg43
I0
sg8
I0
sg46
I0
sg30
I0
sg49
I0
sg19
I0
sg11
I0
sg10
I0
sg24
I0
sg54
I0
sg53
I0
sg52
I0
sg12
I0
sg48
I0
sg14
I0
sg28
I0
sg27
I0
sg15
I0
sg59
I0
sg21
I0
sg45
I0
sg40
I0
sg47
I0
sg58
I0
sg61
I0
sg57
I0
sg25
I0
sg37
I0
sg34
I0
sg62
I0
sg26
I0
sg33
I0
sg38
I0
sg32
I0
sg16
I0
sg39
I0
sg17
I0
sg41
I0
sg23
I0
sg35
I0
sg51
I0
sg18
I0
ssg23
(dp196
g22
I0
sg9
I0
sg13
I0
sg50
I0
sg67
I0
sg44
I0
sg36
I0
sg129
I0
sg20
I0
sg24
I7
sg130
I0
sg31
I0
sg42
I0
sg43
I0
sg8
I0
sg46
I0
sg30
I0
sg49
I0
sg19
I0
sg11
I0
sg10
I0
sg29
I0
sg131
I0
sg132
I0
sg133
I0
sg12
I0
sg48
I0
sg14
I0
sg28
I0
sg27
I0
sg15
I0
sg134
I0
sg21
I0
sg45
I0
sg40
I0
sg47
I0
sg135
I0
sg75
I0
sg137
I0
sg25
I0
sg37
I0
sg34
I0
sg77
I0
sg26
I0
sg33
I0
sg38
I0
sg32
I0
sg16
I0
sg39
I0
sg17
I0
sg41
I0
sg23
I0
sg35
I0
sg139
I0
sg18
I0
ssg35
(dp197
g22
I0
sg9
I0
sg13
I0
sg50
I0
sg128
I0
sg44
I0
sg36
I0
sg129
I0
sg20
I0
sg29
I0
sg130
I0
sg31
I0
sg42
I0
sg43
I0
sg8
I0
sg46
I0
sg30
I0
sg49
I0
sg19
I0
sg11
I0
sg10
I0
sg24
I0
sg131
I0
sg132
I0
sg133
I0
sg12
I0
sg48
I0
sg14
I0
sg28
I0
sg27
I0
sg15
I0
sg134
I0
sg21
I0
sg45
I0
sg40
I0
sg47
I0
sg135
I0
sg136
I0
sg137
I0
sg25
I0
sg37
I0
sg34
I0
sg138
I0
sg26
I0
sg33
I0
sg38
I0
sg32
I0
sg16
I0
sg39
I0
sg17
I0
sg41
I0
sg23
I0
sg35
I0
sg139
I0
sg18
I0
ssg51
(dp198
g141
I0
sg84
I0
sg85
I0
sg142
I0
sg87
I0
sg88
I0
sg60
I0
sg143
I0
sg56
I0
sg57
I0
sg61
I0
sg55
I0
sg90
I0
sg91
I0
sg92
I0
sg93
I0
sg94
I0
sg144
I0
sg96
I0
sg145
I0
sg99
I0
sg100
I0
sg101
I0
sg54
I0
sg53
I0
sg52
I7
sg102
I0
sg146
I0
sg104
I0
sg105
I0
sg106
I0
sg107
I0
sg58
I0
sg59
I0
sg147
I0
sg109
I0
sg110
I0
sg111
I0
sg148
I0
sg149
I0
sg114
I0
sg150
I0
sg62
I0
sg151
I0
sg117
I0
sg118
I0
sg119
I0
sg120
I0
sg121
I0
sg122
I0
sg123
I0
sg124
I0
sg152
I0
sg51
I0
sg125
I0
ssg18
(dp199
g22
I0
sg9
I0
sg13
I0
sg50
I0
sg60
I0
sg44
I0
sg36
I0
sg56
I0
sg20
I0
sg24
I0
sg55
I0
sg31
I0
sg42
I0
sg43
I0
sg8
I0
sg46
I0
sg30
I0
sg49
I0
sg19
I0
sg11
I0
sg10
I0
sg29
I0
sg54
I0
sg53
I0
sg52
I0
sg12
I0
sg48
I0
sg14
I0
sg28
I0
sg27
I0
sg15
I0
sg59
I0
sg21
I0
sg45
I0
sg40
I0
sg47
I0
sg58
I0
sg61
I0
sg57
I0
sg25
I0
sg37
I0
sg34
I0
sg62
I0
sg26
I0
sg33
I0
sg38
I0
sg32
I0
sg16
I0
sg39
I0
sg17
I0
sg41
I0
sg23
I0
sg35
I0
sg51
I0
sg18
I14
sssb.