ccopy_reg
_reconstructor
p0
(cutils.eval
ConfusionMatrix
p1
c__builtin__
object
p2
Ntp3
Rp4
(dp5
S'labels'
p6
(lp7
S'slice.v.03'
p8
aS'slice.v.02'
p9
aS'onion.n.01'
p10
aS'pepper.n.04'
p11
aS'put.v.01'
p12
aS'frame.v.04'
p13
aS'pepper.n.03'
p14
aS'salt.n.02'
p15
aS'egg.n.02'
p16
aS'testis.n.01'
p17
aS'cut.v.01'
p18
aS'swerve.v.01'
p19
aS'lemon.n.01'
p20
aS'lemon.n.04'
p21
aS'fill.v.01'
p22
aS'fill.v.09'
p23
aS'pitcher.n.02'
p24
aS'pitcher.n.03'
p25
aS'milk.n.01'
p26
aS'milk.n.04'
p27
aS'invest.v.01'
p28
aS'pan.n.03'
p29
aS'pan.n.01'
p30
aS'chicken.n.01'
p31
aS'knife.n.01'
p32
aS'banana.n.02'
p33
aS'bread.n.01'
p34
aS'foam.n.01'
p35
aS'mug.n.04'
p36
aS'bacon.n.01'
p37
aS'bacon.n.03'
p38
aS'meat.n.01'
p39
aS'kernel.n.01'
p40
aS'cleaver.n.01'
p41
aS'cabbage.n.01'
p42
aS'beef.n.02'
p43
aS'beef.n.01'
p44
aS'plate.n.04'
p45
aS'plate.n.12'
p46
aS'cake.n.03'
p47
aS'patty.n.01'
p48
aS'whipped_cream.n.01'
p49
aS'flesh.n.01'
p50
asS'instanceCount'
p51
I40
sS'matrix'
p52
(dp53
g46
(dp54
g46
I0
ssg28
(dp55
g28
I0
ssg19
(dp56
g19
I0
ssg44
(dp57
g44
I0
ssg15
(dp58
S'salt.n.02'
p59
I1
ssg38
(dp60
g38
I0
ssg34
(dp61
S'bread.n.01'
p62
I1
ssg27
(dp63
g27
I0
ssg31
(dp64
S'chicken.n.01'
p65
I1
ssg35
(dp66
S'foam.n.01'
p67
I1
ssg26
(dp68
g27
I1
ssg30
(dp69
g30
I0
ssg29
(dp70
g30
I1
ssg18
(dp71
g19
I5
ssg13
(dp72
g13
I0
ssg23
(dp73
g23
I0
ssg42
(dp74
S'cabbage.n.01'
p75
I1
ssg16
(dp76
g17
I1
ssg43
(dp77
g44
I1
ssg17
(dp78
g17
I0
ssg37
(dp79
g38
I1
ssg22
(dp80
g23
I2
ssg25
(dp81
g25
I0
ssg24
(dp82
g25
I1
ssg39
(dp83
g40
I1
ssg47
(dp84
g48
I1
ssg41
(dp85
S'cleaver.n.01'
p86
I1
ssg9
(dp87
g9
I0
ssg8
(dp88
g9
I3
ssg32
(dp89
S'knife.n.01'
p90
I2
ssg33
(dp91
S'banana.n.02'
p92
I1
ssg45
(dp93
g46
I1
ssg11
(dp94
S'pepper.n.04'
p95
I1
ssg14
(dp96
S'pepper.n.04'
p97
I1
ssg49
(dp98
S'whipped_cream.n.01'
p99
I1
ssg48
(dp100
g48
I0
ssg36
(dp101
S'mug.n.04'
p102
I1
ssg50
(dp103
S'flesh.n.01'
p104
I1
ssg12
(dp105
g28
I3
sg13
I1
ssg21
(dp106
g21
I0
ssg40
(dp107
g40
I0
ssg20
(dp108
g21
I1
ssg10
(dp109
S'onion.n.01'
p110
I2
sssb.