ccopy_reg
_reconstructor
p0
(cutils.eval
ConfusionMatrix
p1
c__builtin__
object
p2
Ntp3
Rp4
(dp5
S'labels'
p6
(lp7
S'put.v.01'
p8
aS'invest.v.01'
p9
aS'pan.n.03'
p10
aS'pan.n.01'
p11
aS'chicken.n.01'
p12
aS'knife.n.01'
p13
aS'banana.n.02'
p14
aS'slice.v.03'
p15
aS'slice.v.02'
p16
aS'cut.v.01'
p17
aS'swerve.v.01'
p18
aS'bread.n.01'
p19
aS'fill.v.01'
p20
aS'fill.v.09'
p21
aS'foam.n.01'
p22
aS'mug.n.04'
p23
aS'bacon.n.01'
p24
aS'bacon.n.03'
p25
aS'meat.n.01'
p26
aS'kernel.n.01'
p27
aS'cleaver.n.01'
p28
aS'cabbage.n.01'
p29
aS'onion.n.01'
p30
aS'beef.n.02'
p31
aS'beef.n.01'
p32
aS'plate.n.04'
p33
aS'plate.n.12'
p34
aS'cake.n.03'
p35
aS'patty.n.01'
p36
aS'whipped_cream.n.01'
p37
aS'flesh.n.01'
p38
aS'water.n.06'
p39
aS'water.n.03'
p40
aS'opening.n.01'
p41
aS'gap.n.05'
p42
aS'batter.n.02'
p43
aS'piece.n.08'
p44
aS'slice.n.01'
p45
aS'pizza.n.01'
p46
aS'meet.v.04'
p47
aS'kettle.n.01'
p48
aS'kettle.n.02'
p49
asS'instanceCount'
p50
I40
sS'matrix'
p51
(dp52
g34
(dp53
g34
I0
ssg9
(dp54
g9
I0
ssg12
(dp55
S'chicken.n.01'
p56
I1
ssg27
(dp57
g27
I0
ssg19
(dp58
S'bread.n.01'
p59
I1
ssg43
(dp60
S'batter.n.02'
p61
I1
ssg18
(dp62
g18
I0
ssg22
(dp63
S'foam.n.01'
p64
I1
ssg11
(dp65
g11
I1
ssg10
(dp66
g11
I1
ssg17
(dp67
g18
I4
ssg21
(dp68
g21
I1
ssg31
(dp69
g32
I1
ssg25
(dp70
g25
I0
ssg24
(dp71
g25
I1
ssg20
(dp72
g47
I1
sg21
I2
ssg33
(dp73
g34
I1
ssg28
(dp74
S'cleaver.n.01'
p75
I1
ssg26
(dp76
g27
I1
ssg16
(dp77
g16
I0
ssg15
(dp78
g16
I3
ssg29
(dp79
S'cabbage.n.01'
p80
I1
ssg14
(dp81
S'banana.n.02'
p82
I1
ssg13
(dp83
S'knife.n.01'
p84
I2
ssg47
(dp85
g47
I0
ssg37
(dp86
S'whipped_cream.n.01'
p87
I1
ssg36
(dp88
g36
I0
ssg44
(dp89
g45
I1
ssg41
(dp90
g42
I1
ssg23
(dp91
S'mug.n.04'
p92
I1
ssg38
(dp93
S'flesh.n.01'
p94
I1
ssg40
(dp95
g40
I0
ssg45
(dp96
g45
I0
ssg39
(dp97
g40
I2
ssg8
(dp98
g9
I3
ssg46
(dp99
S'pizza.n.01'
p100
I1
ssg49
(dp101
g49
I0
ssg48
(dp102
g49
I1
ssg35
(dp103
g36
I1
ssg42
(dp104
g42
I0
ssg32
(dp105
g32
I0
ssg30
(dp106
S'onion.n.01'
p107
I1
sssb.