ccopy_reg
_reconstructor
p0
(cutils.eval
ConfusionMatrix
p1
c__builtin__
object
p2
Ntp3
Rp4
(dp5
S'labels'
p6
(lp7
S'fill.v.01'
p8
aS'fill.v.09'
p9
aS'pan.n.01'
p10
aS'water.n.06'
p11
aS'water.n.03'
p12
aS'opening.n.01'
p13
aS'gap.n.05'
p14
aS'batter.n.02'
p15
aS'piece.n.08'
p16
aS'slice.n.01'
p17
aS'pizza.n.01'
p18
aS'slice.v.03'
p19
aS'slice.v.02'
p20
aS'meet.v.04'
p21
aS'kettle.n.01'
p22
aS'kettle.n.02'
p23
aS'put.v.01'
p24
aS'invest.v.01'
p25
aS'pan.n.03'
p26
aS'cheese.n.01'
p27
aS'onion.n.01'
p28
aS'pepper.n.04'
p29
aS'frame.v.04'
p30
aS'pepper.n.03'
p31
aS'salt.n.02'
p32
aS'egg.n.02'
p33
aS'testis.n.01'
p34
aS'cut.v.01'
p35
aS'swerve.v.01'
p36
aS'lemon.n.01'
p37
aS'lemon.n.04'
p38
aS'pitcher.n.02'
p39
aS'pitcher.n.03'
p40
aS'milk.n.01'
p41
aS'milk.n.04'
p42
aS'chicken.n.01'
p43
aS'knife.n.01'
p44
aS'banana.n.02'
p45
aS'bread.n.01'
p46
aS'foam.n.01'
p47
aS'mug.n.04'
p48
asS'instanceCount'
p49
I41
sS'matrix'
p50
(dp51
g25
(dp52
g25
I0
ssg36
(dp53
g36
I0
ssg27
(dp54
S'cheese.n.01'
p55
I1
ssg46
(dp56
S'bread.n.01'
p57
I1
ssg15
(dp58
S'batter.n.02'
p59
I1
ssg42
(dp60
g42
I0
ssg43
(dp61
S'chicken.n.01'
p62
I1
ssg47
(dp63
S'foam.n.01'
p64
I1
ssg41
(dp65
g42
I1
ssg10
(dp66
S'pan.n.01'
p67
I1
ssg26
(dp68
S'pan.n.01'
p69
I2
ssg14
(dp70
g14
I0
ssg30
(dp71
g30
I0
ssg9
(dp72
g9
I1
ssg33
(dp73
g34
I1
ssg34
(dp74
g34
I0
ssg8
(dp75
g21
I1
sg9
I3
ssg40
(dp76
g40
I0
ssg39
(dp77
g40
I1
ssg38
(dp78
g38
I0
ssg32
(dp79
S'salt.n.02'
p80
I1
ssg20
(dp81
g20
I0
ssg19
(dp82
g20
I4
ssg44
(dp83
S'knife.n.01'
p84
I2
ssg45
(dp85
S'banana.n.02'
p86
I1
ssg29
(dp87
S'pepper.n.04'
p88
I1
ssg21
(dp89
g21
I0
ssg31
(dp90
S'pepper.n.04'
p91
I1
ssg35
(dp92
g36
I2
ssg16
(dp93
g17
I1
ssg13
(dp94
g14
I1
ssg48
(dp95
S'mug.n.04'
p96
I1
ssg12
(dp97
g12
I0
ssg17
(dp98
g17
I0
ssg11
(dp99
g12
I2
ssg24
(dp100
g25
I2
sg30
I1
ssg18
(dp101
S'pizza.n.01'
p102
I2
ssg23
(dp103
g23
I0
ssg22
(dp104
g23
I1
ssg37
(dp105
g38
I1
ssg28
(dp106
S'onion.n.01'
p107
I1
sssb.