ccopy_reg
_reconstructor
p0
(cutils.eval
ConfusionMatrix
p1
c__builtin__
object
p2
Ntp3
Rp4
(dp5
S'labels'
p6
(lp7
S'cut.v.01'
p8
aS'swerve.v.01'
p9
aS'lemon.n.01'
p10
aS'lemon.n.04'
p11
aS'fill.v.01'
p12
aS'fill.v.09'
p13
aS'pitcher.n.02'
p14
aS'pitcher.n.03'
p15
aS'milk.n.01'
p16
aS'milk.n.04'
p17
aS'put.v.01'
p18
aS'invest.v.01'
p19
aS'pan.n.03'
p20
aS'pan.n.01'
p21
aS'chicken.n.01'
p22
aS'knife.n.01'
p23
aS'banana.n.02'
p24
aS'slice.v.03'
p25
aS'slice.v.02'
p26
aS'bread.n.01'
p27
aS'foam.n.01'
p28
aS'mug.n.04'
p29
aS'bacon.n.01'
p30
aS'bacon.n.03'
p31
aS'meat.n.01'
p32
aS'kernel.n.01'
p33
aS'cleaver.n.01'
p34
aS'cabbage.n.01'
p35
aS'onion.n.01'
p36
aS'beef.n.02'
p37
aS'beef.n.01'
p38
aS'plate.n.04'
p39
aS'plate.n.12'
p40
aS'cake.n.03'
p41
aS'patty.n.01'
p42
aS'whipped_cream.n.01'
p43
aS'flesh.n.01'
p44
aS'water.n.06'
p45
aS'water.n.03'
p46
aS'opening.n.01'
p47
aS'gap.n.05'
p48
aS'batter.n.02'
p49
asS'instanceCount'
p50
I39
sS'matrix'
p51
(dp52
g40
(dp53
g40
I0
ssg19
(dp54
g19
I0
ssg9
(dp55
g9
I0
ssg38
(dp56
g38
I0
ssg33
(dp57
g33
I0
ssg27
(dp58
S'bread.n.01'
p59
I1
ssg49
(dp60
S'batter.n.02'
p61
I1
ssg17
(dp62
g17
I0
ssg22
(dp63
S'chicken.n.01'
p64
I1
ssg28
(dp65
S'foam.n.01'
p66
I1
ssg16
(dp67
g17
I1
ssg21
(dp68
g21
I1
ssg20
(dp69
g21
I1
ssg8
(dp70
g9
I5
ssg13
(dp71
g13
I1
ssg35
(dp72
S'cabbage.n.01'
p73
I1
ssg37
(dp74
g38
I1
ssg31
(dp75
g31
I0
ssg30
(dp76
g31
I1
ssg12
(dp77
g13
I3
ssg15
(dp78
g15
I0
ssg14
(dp79
g15
I1
ssg32
(dp80
g33
I1
ssg34
(dp81
S'cleaver.n.01'
p82
I1
ssg26
(dp83
g26
I0
ssg25
(dp84
g26
I2
ssg23
(dp85
S'knife.n.01'
p86
I2
ssg24
(dp87
S'banana.n.02'
p88
I1
ssg39
(dp89
g40
I1
ssg43
(dp90
S'whipped_cream.n.01'
p91
I1
ssg42
(dp92
g42
I0
ssg47
(dp93
g48
I1
ssg29
(dp94
S'mug.n.04'
p95
I1
ssg44
(dp96
S'flesh.n.01'
p97
I1
ssg46
(dp98
g46
I0
ssg45
(dp99
g46
I1
ssg18
(dp100
g19
I3
ssg11
(dp101
g11
I0
ssg41
(dp102
g42
I1
ssg48
(dp103
g48
I0
ssg10
(dp104
g11
I1
ssg36
(dp105
S'onion.n.01'
p106
I1
sssb.