ccopy_reg
_reconstructor
p0
(cutils.eval
ConfusionMatrix
p1
c__builtin__
object
p2
Ntp3
Rp4
(dp5
S'labels'
p6
(lp7
S'piece.n.08'
p8
aS'slice.n.01'
p9
aS'pizza.n.01'
p10
aS'slice.v.03'
p11
aS'slice.v.02'
p12
aS'fill.v.01'
p13
aS'meet.v.04'
p14
aS'kettle.n.01'
p15
aS'kettle.n.02'
p16
aS'water.n.06'
p17
aS'water.n.03'
p18
aS'put.v.01'
p19
aS'invest.v.01'
p20
aS'pan.n.03'
p21
aS'pan.n.01'
p22
aS'cheese.n.01'
p23
aS'onion.n.01'
p24
aS'pepper.n.04'
p25
aS'frame.v.04'
p26
aS'pepper.n.03'
p27
aS'salt.n.02'
p28
aS'egg.n.02'
p29
aS'testis.n.01'
p30
aS'cut.v.01'
p31
aS'swerve.v.01'
p32
aS'lemon.n.01'
p33
aS'lemon.n.04'
p34
aS'fill.v.09'
p35
aS'pitcher.n.02'
p36
aS'pitcher.n.03'
p37
aS'milk.n.01'
p38
aS'milk.n.04'
p39
aS'chicken.n.01'
p40
aS'knife.n.01'
p41
aS'banana.n.02'
p42
aS'bread.n.01'
p43
aS'foam.n.01'
p44
aS'mug.n.04'
p45
aS'bacon.n.01'
p46
aS'bacon.n.03'
p47
aS'meat.n.01'
p48
aS'kernel.n.01'
p49
aS'cleaver.n.01'
p50
asS'instanceCount'
p51
I40
sS'matrix'
p52
(dp53
g20
(dp54
g20
I0
ssg32
(dp55
g32
I0
ssg23
(dp56
S'cheese.n.01'
p57
I1
ssg47
(dp58
g47
I0
ssg43
(dp59
S'bread.n.01'
p60
I1
ssg39
(dp61
g39
I0
ssg40
(dp62
S'chicken.n.01'
p63
I1
ssg44
(dp64
S'foam.n.01'
p65
I1
ssg38
(dp66
g39
I1
ssg22
(dp67
g22
I0
ssg21
(dp68
g22
I2
ssg31
(dp69
g32
I4
ssg26
(dp70
g26
I0
ssg35
(dp71
g35
I0
ssg29
(dp72
g30
I1
ssg30
(dp73
g30
I0
ssg46
(dp74
g47
I1
ssg13
(dp75
g14
I1
sg35
I2
ssg37
(dp76
g37
I0
ssg36
(dp77
g37
I1
ssg34
(dp78
g34
I0
ssg48
(dp79
g49
I1
ssg28
(dp80
S'salt.n.02'
p81
I1
ssg50
(dp82
S'cleaver.n.01'
p83
I1
ssg12
(dp84
g12
I0
ssg11
(dp85
g12
I4
ssg41
(dp86
S'knife.n.01'
p87
I2
ssg42
(dp88
S'banana.n.02'
p89
I1
ssg25
(dp90
S'pepper.n.04'
p91
I1
ssg14
(dp92
g14
I0
ssg27
(dp93
S'pepper.n.04'
p94
I1
ssg8
(dp95
g9
I1
ssg45
(dp96
S'mug.n.04'
p97
I1
ssg18
(dp98
g18
I0
ssg9
(dp99
g9
I0
ssg17
(dp100
g18
I1
ssg19
(dp101
g20
I2
sg26
I1
ssg10
(dp102
S'pizza.n.01'
p103
I2
ssg16
(dp104
g16
I0
ssg15
(dp105
g16
I1
ssg49
(dp106
g49
I0
ssg33
(dp107
g34
I1
ssg24
(dp108
S'onion.n.01'
p109
I1
sssb.