ccopy_reg
_reconstructor
p0
(cutils.eval
ConfusionMatrix
p1
c__builtin__
object
p2
Ntp3
Rp4
(dp5
S'labels'
p6
(lp7
S'put.v.01'
p8
aS'mug.n.04'
p9
aS'countenance.n.03'
p10
aS'microwave.n.02'
p11
aS'steak.n.01'
p12
aS'oven.n.01'
p13
asS'instanceCount'
p14
I6
sS'matrix'
p15
(dp16
g9
(dp17
g10
I1
ssg10
(dp18
g10
I0
ssg11
(dp19
S'microwave.n.02'
p20
I1
ssg8
(dp21
S'put.v.01'
p22
I2
ssg12
(dp23
S'steak.n.01'
p24
I1
ssg13
(dp25
S'oven.n.01'
p26
I1
sssb.