ccopy_reg
_reconstructor
p0
(cutils.eval
ConfusionMatrix
p1
c__builtin__
object
p2
Ntp3
Rp4
(dp5
S'labels'
p6
(lp7
S'put.v.01'
p8
aS'dressing.n.01'
p9
aS'dressing.n.04'
p10
aS'salad.n.01'
p11
aS'soup.n.01'
p12
aS'microwave.n.02'
p13
asS'instanceCount'
p14
I6
sS'matrix'
p15
(dp16
g13
(dp17
S'microwave.n.02'
p18
I1
ssg12
(dp19
S'soup.n.01'
p20
I1
ssg10
(dp21
g10
I0
ssg8
(dp22
S'put.v.01'
p23
I2
ssg9
(dp24
g10
I1
ssg11
(dp25
S'salad.n.01'
p26
I1
sssb.