ccopy_reg
_reconstructor
p0
(cutils.eval
ConfusionMatrix
p1
c__builtin__
object
p2
Ntp3
Rp4
(dp5
S'labels'
p6
(lp7
S'add.v.01'
p8
aS'egg.n.02'
p9
aS'rib.n.03'
p10
aS'mixing_bowl.n.01'
p11
aS'butter.n.01'
p12
aS'sugar.n.01'
p13
aS'pan.n.03'
p14
asS'instanceCount'
p15
I21
sS'matrix'
p16
(dp17
g14
(dp18
S'pan.n.03'
p19
I1
ssg10
(dp20
S'rib.n.03'
p21
I3
ssg9
(dp22
S'egg.n.02'
p23
I2
ssg12
(dp24
S'butter.n.01'
p25
I3
ssg11
(dp26
S'mixing_bowl.n.01'
p27
I2
ssg8
(dp28
S'add.v.01'
p29
I8
ssg13
(dp30
S'sugar.n.01'
p31
I2
sssb.