ccopy_reg
_reconstructor
p0
(cutils.eval
ConfusionMatrix
p1
c__builtin__
object
p2
Ntp3
Rp4
(dp5
S'labels'
p6
(lp7
S'slice.v.03'
p8
aS'onion.n.01'
p9
aS'onion.n.03'
p10
aS'pepper.n.04'
p11
aS'pepper.n.01'
p12
aS'fill.v.01'
p13
aS'pan.n.01'
p14
aS'pan.n.03'
p15
aS'water.n.06'
p16
asS'instanceCount'
p17
I6
sS'matrix'
p18
(dp19
g14
(dp20
g15
I1
ssg8
(dp21
S'slice.v.03'
p22
I1
ssg15
(dp23
g15
I0
ssg11
(dp24
g12
I1
ssg12
(dp25
g12
I0
ssg16
(dp26
S'water.n.06'
p27
I1
ssg13
(dp28
S'fill.v.01'
p29
I1
ssg9
(dp30
g10
I1
ssg10
(dp31
g10
I0
sssb.