ccopy_reg
_reconstructor
p0
(cutils.eval
ConfusionMatrix
p1
c__builtin__
object
p2
Ntp3
Rp4
(dp5
S'labels'
p6
(lp7
S'piece.n.08'
p8
aS'slice.n.06'
p9
aS'pizza.n.01'
p10
aS'slice.v.03'
p11
aS'cut.v.01'
p12
aS'lemon.n.01'
p13
asS'instanceCount'
p14
I5
sS'matrix'
p15
(dp16
g11
(dp17
S'slice.v.03'
p18
I1
ssg12
(dp19
S'cut.v.01'
p20
I1
ssg9
(dp21
g9
I0
ssg10
(dp22
S'pizza.n.01'
p23
I1
ssg13
(dp24
S'lemon.n.01'
p25
I1
ssg8
(dp26
g9
I1
sssb.