ccopy_reg
_reconstructor
p0
(cutils.eval
ConfusionMatrix
p1
c__builtin__
object
p2
Ntp3
Rp4
(dp5
S'labels'
p6
(lp7
S'knife.n.01'
p8
aS'knife.n.02'
p9
aS'banana.n.02'
p10
aS'slice.v.03'
p11
aS'fill.v.01'
p12
aS'kettle.n.01'
p13
aS'water.n.06'
p14
asS'instanceCount'
p15
I6
sS'matrix'
p16
(dp17
g11
(dp18
S'slice.v.03'
p19
I1
ssg8
(dp20
g9
I1
ssg10
(dp21
S'banana.n.02'
p22
I1
ssg9
(dp23
g9
I0
ssg14
(dp24
S'water.n.06'
p25
I1
ssg12
(dp26
S'fill.v.01'
p27
I1
ssg13
(dp28
S'kettle.n.01'
p29
I1
sssb.