ccopy_reg
_reconstructor
p0
(cutils.eval
ConfusionMatrix
p1
c__builtin__
object
p2
Ntp3
Rp4
(dp5
S'labels'
p6
(lp7
S'put.v.01'
p8
aS'cake.n.03'
p9
aS'patty.n.01'
p10
aS'whipped_cream.n.01'
p11
aS'fill.v.01'
p12
aS'pitcher.n.02'
p13
aS'milk.n.01'
p14
aS'milk.n.02'
p15
aS'pan.n.03'
p16
aS'pizza.n.01'
p17
aS'opening.n.01'
p18
aS'gap.n.03'
p19
aS'fill.v.09'
p20
aS'batter.n.02'
p21
aS'knife.n.01'
p22
aS'knife.n.02'
p23
aS'banana.n.02'
p24
aS'slice.v.03'
p25
aS'kettle.n.01'
p26
aS'water.n.06'
p27
aS'onion.n.01'
p28
aS'onion.n.03'
p29
aS'pepper.n.04'
p30
aS'pepper.n.01'
p31
aS'pan.n.01'
p32
aS'foam.n.01'
p33
aS'mug.n.04'
p34
aS'pepper.n.03'
p35
aS'salt.n.02'
p36
aS'salt.n.01'
p37
aS'egg.n.02'
p38
aS'egg.n.01'
p39
aS'chicken.n.01'
p40
aS'cut.v.01'
p41
aS'meat.n.01'
p42
aS'cleaver.n.01'
p43
aS'cabbage.n.01'
p44
aS'beef.n.02'
p45
aS'plate.n.04'
p46
aS'plate.n.13'
p47
aS'piece.n.08'
p48
aS'slice.n.06'
p49
aS'lemon.n.01'
p50
aS'bacon.n.01'
p51
aS'bacon.n.02'
p52
aS'flesh.n.01'
p53
aS'human_body.n.01'
p54
aS'cheese.n.01'
p55
aS'bread.n.01'
p56
asS'instanceCount'
p57
I57
sS'matrix'
p58
(dp59
g47
(dp60
g47
I0
sS'cut.v.01'
p61
I0
sg44
I0
sg45
I0
sg46
I0
sS'put.v.01'
p62
I0
sS'onion.n.01'
p63
I0
sS'onion.n.03'
p64
I0
ssg55
(dp65
S'knife.n.01'
p66
I0
sg55
I1
sS'cut.v.01'
p67
I0
sg56
I0
sS'slice.v.03'
p68
I0
ssg40
(dp69
S'pan.n.03'
p70
I0
sg41
I0
sg40
I1
sS'put.v.01'
p71
I0
sg42
I0
sg43
I0
ssg36
(dp72
g36
I0
sg37
I1
sg34
I0
sS'pepper.n.04'
p73
I0
sg39
I0
sg35
I0
sS'fill.v.01'
p74
I0
sS'put.v.01'
p75
I0
sg38
I0
sg33
I0
ssg56
(dp76
g55
I0
sg68
I0
sg67
I0
sg66
I0
sg56
I1
ssg21
(dp77
g16
I0
sg19
I0
sg20
I0
sS'put.v.01'
p78
I0
sg17
I0
sg21
I1
sS'fill.v.01'
p79
I0
sg18
I0
ssg44
(dp80
g47
I0
sg61
I0
sg44
I1
sg45
I0
sg46
I0
sg62
I0
sg63
I0
sg64
I0
ssg10
(dp81
g8
I0
sg12
I0
sg13
I0
sg11
I0
sg9
I0
sg10
I0
sg14
I0
sg15
I0
ssg14
(dp82
g8
I0
sg12
I0
sg13
I0
sg11
I0
sg9
I0
sg10
I0
sg14
I0
sg15
I1
ssg15
(dp83
g8
I0
sg12
I0
sg13
I0
sg11
I0
sg9
I0
sg10
I0
sg14
I0
sg15
I0
ssg32
(dp84
g32
I0
sS'slice.v.03'
p85
I0
sS'pan.n.03'
p86
I1
sg30
I0
sg31
I0
sS'water.n.06'
p87
I0
sS'fill.v.01'
p88
I0
sg28
I0
sg29
I0
ssg41
(dp89
g47
I0
sg55
I0
sg40
I0
sg45
I0
sg56
I0
sg66
I0
sg70
I0
sg41
I5
sg52
I0
sg51
I0
sg42
I0
sg43
I0
sS'slice.v.03'
p90
I0
sg44
I0
sg46
I0
sg54
I0
sg48
I0
sg53
I0
sg49
I0
sg71
I0
sS'pizza.n.01'
p91
I0
sg50
I0
sg63
I0
sg64
I0
ssg16
(dp92
g32
I0
sg85
I0
sg16
I2
sg41
I0
sg40
I0
sg19
I0
sg20
I0
sg30
I0
sg43
I0
sg31
I0
sg87
I0
sg78
I0
sg17
I0
sg42
I0
sg21
I0
sg79
I0
sg28
I0
sg29
I0
sg18
I0
ssg33
(dp93
g34
I0
sg37
I0
sg36
I0
sg73
I0
sg39
I0
sg35
I0
sg74
I0
sg75
I0
sg38
I0
sg33
I1
ssg19
(dp94
g16
I0
sg19
I0
sg20
I0
sg78
I0
sg17
I0
sg21
I0
sg79
I0
sg18
I0
ssg20
(dp95
g16
I0
sg19
I0
sg20
I0
sg78
I0
sg17
I0
sg21
I0
sg79
I1
sg18
I0
ssg38
(dp96
g34
I0
sg37
I0
sg36
I0
sg38
I0
sg39
I1
sg35
I0
sg74
I0
sg75
I0
sg73
I0
sg33
I0
ssg39
(dp97
g34
I0
sg37
I0
sg36
I0
sg73
I0
sg39
I0
sg35
I0
sg74
I0
sg75
I0
sg38
I0
sg33
I0
ssg45
(dp98
g47
I0
sg61
I0
sg44
I0
sg45
I1
sg46
I0
sg62
I0
sg63
I0
sg64
I0
ssg52
(dp99
S'slice.v.03'
p100
I0
sS'cut.v.01'
p101
I0
sg53
I0
sg52
I0
sg51
I0
sg54
I0
ssg51
(dp102
g100
I0
sg101
I0
sg53
I0
sg52
I1
sg51
I0
sg54
I0
ssg12
(dp103
g36
I0
sg21
I0
sg12
I4
sg14
I0
sg15
I0
sg32
I0
sg16
I0
sg33
I0
sg19
I0
sg20
I0
sg38
I0
sg39
I0
sg10
I0
sg13
I0
sg25
I0
sg37
I0
sg22
I0
sg24
I0
sg23
I0
sg30
I0
sg31
I0
sg35
I0
sg11
I0
sg18
I0
sg34
I0
sg27
I0
sg8
I0
sg17
I0
sg26
I0
sg9
I0
sg28
I0
sg29
I0
ssg13
(dp104
g8
I0
sg12
I0
sg13
I1
sg11
I0
sg9
I0
sg10
I0
sg14
I0
sg15
I0
ssg42
(dp105
g70
I0
sg41
I0
sg40
I0
sg71
I0
sg42
I1
sg43
I0
ssg43
(dp106
g70
I0
sg41
I0
sg40
I0
sg71
I0
sg43
I1
sg42
I0
ssg25
(dp107
g55
I0
sg56
I0
sg32
I0
sg86
I0
sS'cut.v.01'
p108
I0
sg52
I0
sg51
I0
sS'fill.v.01'
p109
I0
sg25
I5
sg22
I0
sg24
I0
sg23
I0
sg30
I0
sg31
I0
sg54
I0
sg48
I0
sg53
I0
sg49
I0
sg27
I0
sg91
I0
sg26
I0
sg50
I0
sg28
I0
sg29
I0
ssg37
(dp110
g34
I0
sg37
I0
sg36
I0
sg73
I0
sg39
I0
sg35
I0
sg74
I0
sg75
I0
sg38
I0
sg33
I0
ssg22
(dp111
g25
I0
sg67
I0
sg22
I1
sg24
I0
sg23
I1
sg27
I0
sg109
I0
sg55
I0
sg26
I0
sg56
I0
ssg24
(dp112
g25
I0
sg22
I0
sg24
I1
sg23
I0
sg27
I0
sg109
I0
sg26
I0
ssg23
(dp113
g25
I0
sg22
I0
sg24
I0
sg23
I0
sg27
I0
sg109
I0
sg26
I0
ssg46
(dp114
g47
I1
sg61
I0
sg44
I0
sg45
I0
sg46
I0
sg62
I0
sg63
I0
sg64
I0
ssg30
(dp115
g32
I0
sg85
I0
sg86
I0
sg34
I0
sg30
I0
sg39
I0
sg31
I1
sg87
I0
sg75
I0
sg88
I0
sg37
I0
sg35
I0
sg38
I0
sg33
I0
sg28
I0
sg29
I0
sg36
I0
ssg31
(dp116
g32
I0
sg85
I0
sg86
I0
sg30
I0
sg31
I0
sg87
I0
sg88
I0
sg28
I0
sg29
I0
ssg35
(dp117
g34
I0
sg37
I0
sg36
I0
sg73
I1
sg39
I0
sg75
I0
sg74
I0
sg35
I0
sg38
I0
sg33
I0
ssg54
(dp118
g100
I0
sg101
I0
sg53
I0
sg52
I0
sg51
I0
sg54
I0
ssg11
(dp119
g8
I0
sg12
I0
sg13
I0
sg11
I1
sg9
I0
sg10
I0
sg14
I0
sg15
I0
ssg48
(dp120
g90
I0
sg108
I0
sg49
I1
sg91
I0
sg50
I0
sg48
I0
ssg18
(dp121
g16
I0
sg19
I1
sg20
I0
sg78
I0
sg17
I0
sg21
I0
sg79
I0
sg18
I0
ssg34
(dp122
g34
I1
sg37
I0
sg36
I0
sg73
I0
sg39
I0
sg35
I0
sg74
I0
sg75
I0
sg38
I0
sg33
I0
ssg53
(dp123
g100
I0
sg101
I0
sg53
I0
sg52
I0
sg51
I0
sg54
I1
ssg49
(dp124
g90
I0
sg108
I0
sg49
I0
sg91
I0
sg50
I0
sg48
I0
ssg27
(dp125
g32
I0
sg25
I0
sg86
I0
sg22
I0
sg24
I0
sg23
I0
sg30
I0
sg31
I0
sg27
I2
sg109
I0
sg26
I0
sg28
I0
sg29
I0
ssg8
(dp126
g47
I0
sg40
I0
sg45
I0
sg21
I0
sg33
I0
sg14
I0
sg15
I0
sg16
I0
sg41
I0
sg19
I0
sg20
I0
sg38
I0
sg39
I0
sg12
I0
sg13
I0
sg42
I0
sg43
I0
sg36
I0
sg37
I0
sg44
I0
sg46
I0
sg73
I0
sg35
I0
sg11
I0
sg10
I0
sg18
I0
sg34
I0
sg8
I5
sg17
I0
sg9
I0
sg63
I0
sg64
I0
ssg17
(dp127
g90
I0
sg16
I0
sg108
I0
sg19
I0
sg20
I0
sg49
I0
sg78
I0
sg17
I2
sg21
I0
sg50
I0
sg48
I0
sg79
I0
sg18
I0
ssg26
(dp128
g25
I0
sg22
I0
sg24
I0
sg23
I0
sg27
I0
sg109
I0
sg26
I1
ssg9
(dp129
g8
I0
sg12
I0
sg13
I0
sg11
I0
sg9
I0
sg10
I1
sg14
I0
sg15
I0
ssg50
(dp130
g90
I0
sg108
I0
sg49
I0
sg91
I0
sg50
I1
sg48
I0
ssg28
(dp131
g32
I0
sg85
I0
sg86
I0
sg61
I0
sg44
I0
sg45
I0
sg46
I0
sg30
I0
sg31
I0
sg87
I0
sg62
I0
sg88
I0
sg47
I0
sg28
I0
sg29
I2
ssg29
(dp132
g32
I0
sg85
I0
sg86
I0
sg61
I0
sg44
I0
sg45
I0
sg46
I0
sg30
I0
sg31
I0
sg87
I0
sg62
I0
sg88
I0
sg47
I0
sg28
I0
sg29
I0
sssb.