ccopy_reg
_reconstructor
p0
(cutils.eval
ConfusionMatrix
p1
c__builtin__
object
p2
Ntp3
Rp4
(dp5
S'labels'
p6
(lp7
S'put.v.01'
p8
aS'cake.n.03'
p9
aS'patty.n.01'
p10
aS'whipped_cream.n.01'
p11
aS'fill.v.01'
p12
aS'pitcher.n.02'
p13
aS'milk.n.01'
p14
aS'milk.n.02'
p15
asS'instanceCount'
p16
I6
sS'matrix'
p17
(dp18
g8
(dp19
S'put.v.01'
p20
I1
ssg12
(dp21
S'fill.v.01'
p22
I1
ssg13
(dp23
S'pitcher.n.02'
p24
I1
ssg11
(dp25
S'whipped_cream.n.01'
p26
I1
ssg9
(dp27
g10
I1
ssg10
(dp28
g10
I0
ssg14
(dp29
g15
I1
ssg15
(dp30
g15
I0
sssb.