ccopy_reg
_reconstructor
p0
(cutils.eval
ConfusionMatrix
p1
c__builtin__
object
p2
Ntp3
Rp4
(dp5
S'labels'
p6
(lp7
S'fill.v.01'
p8
aS'foam.n.01'
p9
aS'mug.n.04'
p10
aS'put.v.01'
p11
aS'pepper.n.03'
p12
aS'pepper.n.04'
p13
aS'salt.n.02'
p14
aS'salt.n.01'
p15
aS'egg.n.02'
p16
aS'egg.n.01'
p17
asS'instanceCount'
p18
I7
sS'matrix'
p19
(dp20
g10
(dp21
S'mug.n.04'
p22
I1
ssg15
(dp23
g15
I0
ssg14
(dp24
g15
I1
ssg13
(dp25
g13
I0
ssg17
(dp26
g17
I0
ssg12
(dp27
g13
I1
ssg8
(dp28
S'fill.v.01'
p29
I1
ssg11
(dp30
S'put.v.01'
p31
I1
ssg16
(dp32
g17
I1
ssg9
(dp33
S'foam.n.01'
p34
I1
sssb.