ccopy_reg
_reconstructor
p0
(cutils.eval
ConfusionMatrix
p1
c__builtin__
object
p2
Ntp3
Rp4
(dp5
S'labels'
p6
(lp7
S'stir.v.01'
p8
aS'water.n.06'
p9
aS'whiskey.n.01'
p10
aS'stir.v.08'
p11
aS'butter.n.01'
p12
aS'milk.n.01'
p13
aS'milk.n.04'
p14
aS'vegetable.n.01'
p15
aS'juice.n.01'
p16
aS'cappuccino.n.01'
p17
aS'coffee.n.01'
p18
aS'coca_cola.n.01'
p19
aS'peanut.n.04'
p20
aS'peanut.n.01'
p21
aS'sugar.n.01'
p22
aS'wine.n.01'
p23
asS'instanceCount'
p24
I24
sS'matrix'
p25
(dp26
g15
(dp27
S'vegetable.n.01'
p28
I1
ssg19
(dp29
S'coca_cola.n.01'
p30
I1
ssg23
(dp31
S'wine.n.01'
p32
I1
ssg12
(dp33
S'butter.n.01'
p34
I1
ssg17
(dp35
S'cappuccino.n.01'
p36
I1
ssg18
(dp37
S'coffee.n.01'
p38
I1
ssg9
(dp39
S'water.n.06'
p40
I1
ssg10
(dp41
S'whiskey.n.01'
p42
I1
ssg11
(dp43
S'stir.v.08'
p44
I4
ssg14
(dp45
g14
I0
ssg21
(dp46
g21
I0
ssg8
(dp47
S'stir.v.01'
p48
I6
sS'stir.v.08'
p49
I2
ssg16
(dp50
S'juice.n.01'
p51
I1
ssg20
(dp52
g21
I1
ssg13
(dp53
g14
I1
ssg22
(dp54
S'sugar.n.01'
p55
I1
sssb.