ccopy_reg
_reconstructor
p0
(cutils.eval
ConfusionMatrix
p1
c__builtin__
object
p2
Ntp3
Rp4
(dp5
S'labels'
p6
(lp7
S'stir.v.08'
p8
aS'salt.n.02'
p9
aS'stir.v.01'
p10
aS'champagne.n.01'
p11
aS'water.n.06'
p12
aS'whiskey.n.01'
p13
aS'butter.n.01'
p14
aS'milk.n.01'
p15
aS'vegetable.n.01'
p16
aS'juice.n.01'
p17
aS'fruit_juice.n.01'
p18
aS'cappuccino.n.01'
p19
aS'coffee.n.01'
p20
aS'coca_cola.n.01'
p21
aS'peanut.n.04'
p22
aS'peanut.n.01'
p23
asS'instanceCount'
p24
I24
sS'matrix'
p25
(dp26
g9
(dp27
S'salt.n.02'
p28
I1
ssg16
(dp29
S'vegetable.n.01'
p30
I1
ssg21
(dp31
S'coca_cola.n.01'
p32
I1
ssg15
(dp33
S'milk.n.01'
p34
I1
ssg18
(dp35
g18
I0
ssg14
(dp36
S'butter.n.01'
p37
I1
ssg19
(dp38
S'cappuccino.n.01'
p39
I1
ssg20
(dp40
S'coffee.n.01'
p41
I1
ssg12
(dp42
S'water.n.06'
p43
I1
ssg11
(dp44
S'champagne.n.01'
p45
I1
ssg8
(dp46
S'stir.v.08'
p47
I4
ssg23
(dp48
g23
I0
ssg10
(dp49
S'stir.v.01'
p50
I8
ssg17
(dp51
g18
I1
ssg22
(dp52
g23
I1
ssg13
(dp53
S'whiskey.n.01'
p54
I1
sssb.