ccopy_reg
_reconstructor
p0
(cutils.eval
ConfusionMatrix
p1
c__builtin__
object
p2
Ntp3
Rp4
(dp5
S'labels'
p6
(lp7
S'stir.v.01'
p8
aS'coca_cola.n.01'
p9
aS'stir.v.08'
p10
aS'peanut.n.04'
p11
aS'peanut.n.03'
p12
aS'sugar.n.01'
p13
aS'wine.n.01'
p14
aS'tomato.n.01'
p15
aS'tea.n.01'
p16
aS'cream.n.02'
p17
aS'apple.n.01'
p18
aS'egg.n.02'
p19
aS'banana.n.02'
p20
aS'salt.n.02'
p21
aS'champagne.n.01'
p22
asS'instanceCount'
p23
I24
sS'matrix'
p24
(dp25
g21
(dp26
S'salt.n.02'
p27
I1
ssg12
(dp28
g12
I0
ssg20
(dp29
S'banana.n.02'
p30
I1
ssg14
(dp31
S'wine.n.01'
p32
I1
ssg19
(dp33
S'egg.n.02'
p34
I1
ssg15
(dp35
S'tomato.n.01'
p36
I1
ssg17
(dp37
S'cream.n.02'
p38
I1
ssg22
(dp39
S'champagne.n.01'
p40
I1
ssg10
(dp41
S'stir.v.01'
p42
I4
sS'stir.v.08'
p43
I4
ssg18
(dp44
S'apple.n.01'
p45
I1
ssg8
(dp46
S'stir.v.01'
p47
I4
ssg9
(dp48
S'coca_cola.n.01'
p49
I1
ssg11
(dp50
g12
I1
ssg16
(dp51
S'tea.n.01'
p52
I1
ssg13
(dp53
S'sugar.n.01'
p54
I1
sssb.