ccopy_reg
_reconstructor
p0
(cutils.eval
ConfusionMatrix
p1
c__builtin__
object
p2
Ntp3
Rp4
(dp5
S'labels'
p6
(lp7
S'stir.v.08'
p8
aS'arouse.v.06'
p9
aS'egg.n.02'
p10
aS'stir.v.01'
p11
aS'milk.n.01'
p12
aS'milk.n.04'
p13
aS'tea.n.01'
p14
aS'tea.n.04'
p15
aS'salt.n.02'
p16
aS'apple.n.01'
p17
aS'wine.n.01'
p18
aS'wine.n.02'
p19
aS'champagne.n.01'
p20
aS'champagne.n.02'
p21
aS'tomato.n.01'
p22
aS'tomato.n.02'
p23
aS'juice.n.01'
p24
aS'fruit_juice.n.01'
p25
aS'sugar.n.01'
p26
aS'carbohydrate.n.01'
p27
aS'whiskey.n.01'
p28
aS'butter.n.01'
p29
aS'butter.n.02'
p30
aS'peanut.n.04'
p31
aS'peanut.n.01'
p32
aS'vegetable.n.01'
p33
aS'vegetable.n.02'
p34
aS'coca_cola.n.01'
p35
aS'coke.n.01'
p36
aS'coffee.n.01'
p37
aS'coffee_bean.n.01'
p38
aS'cappuccino.n.01'
p39
aS'banana.n.02'
p40
aS'banana.n.01'
p41
aS'water.n.06'
p42
aS'water.n.03'
p43
aS'cream.n.02'
p44
asS'instanceCount'
p45
I320
sS'matrix'
p46
(dp47
g36
(dp48
g36
I0
sg19
I0
sg18
I0
sg27
I0
sg29
I0
sg8
I0
sg13
I0
sg17
I0
sg11
I0
sg35
I0
sg12
I0
sg10
I0
sg22
I0
sg28
I0
sg16
I0
sg9
I0
sg41
I0
sg40
I0
sg44
I0
sg37
I0
sg33
I0
sg38
I0
sg15
I0
sg14
I0
sg34
I0
sg25
I0
sg43
I0
sg39
I0
sg42
I0
sg21
I0
sg30
I0
sg20
I0
sg23
I0
sg32
I0
sg31
I0
sg24
I0
sg26
I0
ssg19
(dp49
g36
I0
sg19
I0
sg18
I0
sg27
I0
sg29
I0
sg8
I0
sg13
I0
sg17
I0
sg11
I0
sg35
I0
sg12
I0
sg10
I0
sg22
I0
sg28
I0
sg16
I0
sg9
I0
sg41
I0
sg40
I0
sg44
I0
sg37
I0
sg33
I0
sg38
I0
sg15
I0
sg14
I0
sg34
I0
sg25
I0
sg43
I0
sg39
I0
sg42
I0
sg21
I0
sg30
I0
sg20
I0
sg23
I0
sg32
I0
sg31
I0
sg24
I0
sg26
I0
ssg18
(dp50
g36
I0
sg19
I8
sg18
I0
sg27
I0
sg29
I0
sg8
I0
sg13
I0
sg17
I0
sg11
I0
sg35
I0
sg12
I0
sg10
I0
sg22
I0
sg28
I0
sg16
I0
sg9
I0
sg41
I0
sg40
I0
sg44
I0
sg37
I0
sg33
I0
sg38
I0
sg15
I0
sg14
I0
sg34
I0
sg25
I0
sg43
I0
sg39
I0
sg42
I0
sg21
I0
sg30
I0
sg20
I0
sg23
I0
sg32
I0
sg31
I0
sg24
I0
sg26
I0
ssg27
(dp51
g36
I0
sg19
I0
sg18
I0
sg27
I0
sg29
I0
sg8
I0
sg13
I0
sg17
I0
sg11
I0
sg35
I0
sg12
I0
sg10
I0
sg22
I0
sg28
I0
sg16
I0
sg9
I0
sg41
I0
sg40
I0
sg44
I0
sg37
I0
sg33
I0
sg38
I0
sg15
I0
sg14
I0
sg34
I0
sg25
I0
sg43
I0
sg39
I0
sg42
I0
sg21
I0
sg30
I0
sg20
I0
sg23
I0
sg32
I0
sg31
I0
sg24
I0
sg26
I0
ssg29
(dp52
g36
I0
sg19
I0
sg18
I0
sg27
I0
sg8
I0
sg13
I0
sg17
I0
sg11
I0
sg35
I0
sg12
I0
sg10
I0
sg29
I0
sg28
I0
sg16
I0
sg9
I0
sg41
I0
sg40
I0
sg44
I0
sg37
I0
sg33
I0
sg38
I0
sg15
I0
sg14
I0
sg34
I0
sg25
I0
sg43
I0
sg39
I0
sg42
I0
sg24
I0
sg21
I0
sg30
I8
sg20
I0
sg23
I0
sg32
I0
sg31
I0
sg22
I0
sg26
I0
ssg8
(dp53
g36
I0
sg19
I0
sg18
I0
sg27
I0
sg29
I0
sg8
I0
sg13
I0
sg17
I0
sg11
I0
sg35
I0
sg12
I0
sg10
I0
sg22
I0
sg28
I0
sg16
I0
sg9
I80
sg41
I0
sg40
I0
sg44
I0
sg37
I0
sg33
I0
sg38
I0
sg15
I0
sg14
I0
sg34
I0
sg25
I0
sg43
I0
sg39
I0
sg42
I0
sg21
I0
sg30
I0
sg20
I0
sg23
I0
sg32
I0
sg31
I0
sg24
I0
sg26
I0
ssg13
(dp54
g36
I0
sg19
I0
sg18
I0
sg27
I0
sg29
I0
sg8
I0
sg13
I0
sg17
I0
sg11
I0
sg35
I0
sg12
I0
sg10
I0
sg22
I0
sg28
I0
sg16
I0
sg9
I0
sS'banana.n.01'
p55
I0
sS'banana.n.02'
p56
I0
sS'cream.n.02'
p57
I0
sg37
I0
sg33
I0
sg38
I0
sg15
I0
sg14
I0
sg34
I0
sg25
I0
sS'water.n.03'
p58
I0
sS'cappuccino.n.01'
p59
I0
sS'water.n.06'
p60
I0
sg21
I0
sg30
I0
sg20
I0
sg23
I0
sg32
I0
sg31
I0
sg24
I0
sg26
I0
ssg17
(dp61
g36
I0
sg19
I0
sg18
I0
sg27
I0
sg29
I0
sg8
I0
sg13
I0
sg17
I8
sg11
I0
sg35
I0
sg12
I0
sg10
I0
sg22
I0
sg28
I0
sg16
I0
sg9
I0
sg41
I0
sg40
I0
sg44
I0
sg37
I0
sg33
I0
sg38
I0
sg15
I0
sg14
I0
sg34
I0
sg25
I0
sg43
I0
sg39
I0
sg42
I0
sg21
I0
sg30
I0
sg20
I0
sg23
I0
sg32
I0
sg31
I0
sg24
I0
sg26
I0
ssg11
(dp62
g36
I0
sg19
I0
sg18
I0
sg27
I0
sg29
I0
sg8
I72
sg13
I0
sg17
I0
sg11
I0
sg35
I0
sg12
I0
sg10
I0
sg22
I0
sg28
I0
sg16
I0
sg9
I8
sg41
I0
sg40
I0
sg44
I0
sg37
I0
sg33
I0
sg38
I0
sg15
I0
sg14
I0
sg34
I0
sg25
I0
sg43
I0
sg39
I0
sg42
I0
sg21
I0
sg30
I0
sg20
I0
sg23
I0
sg32
I0
sg31
I0
sg24
I0
sg26
I0
ssg35
(dp63
g36
I8
sg19
I0
sg18
I0
sg27
I0
sg29
I0
sg8
I0
sg13
I0
sg17
I0
sg11
I0
sg35
I0
sg12
I0
sg10
I0
sg22
I0
sg28
I0
sg16
I0
sg9
I0
sg41
I0
sg40
I0
sg44
I0
sg37
I0
sg33
I0
sg38
I0
sg15
I0
sg14
I0
sg34
I0
sg25
I0
sg43
I0
sg39
I0
sg42
I0
sg21
I0
sg30
I0
sg20
I0
sg23
I0
sg32
I0
sg31
I0
sg24
I0
sg26
I0
ssg12
(dp64
g36
I0
sg19
I0
sg18
I0
sg27
I0
sg29
I0
sg8
I0
sg13
I8
sg17
I0
sg11
I0
sg35
I0
sg12
I0
sg10
I0
sg22
I0
sg28
I0
sg16
I0
sg9
I0
sg55
I0
sg56
I0
sg57
I0
sg37
I0
sg33
I0
sg38
I0
sg15
I0
sg14
I0
sg34
I0
sg25
I0
sg58
I0
sg59
I0
sg60
I0
sg21
I0
sg30
I0
sg20
I0
sg23
I0
sg32
I0
sg31
I0
sg24
I0
sg26
I0
ssg10
(dp65
g36
I0
sg19
I0
sg18
I0
sg27
I0
sg29
I0
sg8
I0
sg13
I0
sg17
I0
sg11
I0
sg35
I0
sg12
I0
sg10
I8
sg22
I0
sg28
I0
sg16
I0
sg9
I0
sg55
I0
sg56
I0
sg57
I0
sg37
I0
sg33
I0
sg38
I0
sg15
I0
sg14
I0
sg34
I0
sg25
I0
sg58
I0
sg59
I0
sg60
I0
sg21
I0
sg30
I0
sg20
I0
sg23
I0
sg32
I0
sg31
I0
sg24
I0
sg26
I0
ssg22
(dp66
g36
I0
sg19
I0
sg18
I0
sg27
I0
sg29
I0
sg8
I0
sg13
I0
sg17
I0
sg11
I0
sg35
I0
sg12
I0
sg10
I0
sg22
I0
sg28
I0
sg16
I0
sg9
I0
sg41
I0
sg40
I0
sg44
I0
sg37
I0
sg33
I0
sg38
I0
sg15
I0
sg14
I0
sg34
I0
sg25
I0
sg43
I0
sg39
I0
sg42
I0
sg21
I0
sg30
I0
sg20
I0
sg23
I8
sg32
I0
sg31
I0
sg24
I0
sg26
I0
ssg28
(dp67
g36
I0
sg19
I0
sg18
I0
sg27
I0
sg29
I0
sg8
I0
sg13
I0
sg17
I0
sg11
I0
sg35
I0
sg12
I0
sg10
I0
sg22
I0
sg14
I0
sg16
I0
sg9
I0
sg41
I0
sg40
I0
sg44
I0
sg37
I0
sg33
I0
sg38
I0
sg15
I0
sg28
I8
sg34
I0
sg25
I0
sg43
I0
sg39
I0
sg42
I0
sg21
I0
sg30
I0
sg20
I0
sg23
I0
sg32
I0
sg31
I0
sg24
I0
sg26
I0
ssg16
(dp68
g36
I0
sg19
I0
sg18
I0
sg27
I0
sg29
I0
sg8
I0
sg13
I0
sg17
I0
sg11
I0
sg35
I0
sg12
I0
sg10
I0
sg22
I0
sg28
I0
sg16
I8
sg9
I0
sg55
I0
sg56
I0
sg57
I0
sg37
I0
sg33
I0
sg38
I0
sg15
I0
sg14
I0
sg34
I0
sg25
I0
sg58
I0
sg59
I0
sg60
I0
sg21
I0
sg30
I0
sg20
I0
sg23
I0
sg32
I0
sg31
I0
sg24
I0
sg26
I0
ssg9
(dp69
g36
I0
sg19
I0
sg18
I0
sg27
I0
sg29
I0
sg8
I0
sg13
I0
sg17
I0
sg11
I0
sg35
I0
sg12
I0
sg10
I0
sg22
I0
sg28
I0
sg16
I0
sg9
I0
sg41
I0
sg40
I0
sg44
I0
sg37
I0
sg33
I0
sg38
I0
sg15
I0
sg14
I0
sg34
I0
sg25
I0
sg43
I0
sg39
I0
sg42
I0
sg21
I0
sg30
I0
sg20
I0
sg23
I0
sg32
I0
sg31
I0
sg24
I0
sg26
I0
ssg41
(dp70
S'coke.n.01'
p71
I0
sS'wine.n.02'
p72
I0
sS'wine.n.01'
p73
I0
sS'carbohydrate.n.01'
p74
I0
sS'stir.v.08'
p75
I0
sS'milk.n.04'
p76
I0
sS'apple.n.01'
p77
I0
sS'stir.v.01'
p78
I0
sS'coca_cola.n.01'
p79
I0
sS'milk.n.01'
p80
I0
sS'tomato.n.02'
p81
I0
sS'tomato.n.01'
p82
I0
sS'tea.n.01'
p83
I0
sS'salt.n.02'
p84
I0
sS'egg.n.02'
p85
I0
sS'arouse.v.06'
p86
I0
sg41
I0
sg40
I0
sg44
I0
sS'coffee.n.01'
p87
I0
sS'vegetable.n.01'
p88
I0
sS'coffee_bean.n.01'
p89
I0
sS'tea.n.04'
p90
I0
sS'whiskey.n.01'
p91
I0
sS'vegetable.n.02'
p92
I0
sS'fruit_juice.n.01'
p93
I0
sg43
I0
sg39
I0
sg42
I0
sS'juice.n.01'
p94
I0
sS'champagne.n.02'
p95
I0
sS'champagne.n.01'
p96
I0
sS'butter.n.02'
p97
I0
sS'peanut.n.01'
p98
I0
sS'peanut.n.04'
p99
I0
sS'butter.n.01'
p100
I0
sS'sugar.n.01'
p101
I0
ssg40
(dp102
g71
I0
sg72
I0
sg73
I0
sg74
I0
sg75
I0
sg76
I0
sg77
I0
sg78
I0
sg79
I0
sg80
I0
sg81
I0
sg82
I0
sg83
I0
sg84
I0
sg85
I0
sg86
I0
sg41
I8
sg40
I0
sg44
I0
sg87
I0
sg88
I0
sg89
I0
sg90
I0
sg91
I0
sg92
I0
sg93
I0
sg43
I0
sg39
I0
sg42
I0
sg94
I0
sg95
I0
sg96
I0
sg97
I0
sg98
I0
sg99
I0
sg100
I0
sg101
I0
ssg44
(dp103
g71
I0
sg72
I0
sg73
I0
sg74
I0
sg75
I0
sg76
I0
sg77
I0
sg78
I0
sg79
I0
sg80
I0
sg81
I0
sg82
I0
sg83
I0
sg84
I0
sg85
I0
sg86
I0
sg41
I0
sg40
I0
sg87
I0
sg44
I8
sg88
I0
sg89
I0
sg90
I0
sg91
I0
sg92
I0
sg93
I0
sg43
I0
sg39
I0
sg42
I0
sg94
I0
sg95
I0
sg96
I0
sg97
I0
sg98
I0
sg99
I0
sg100
I0
sg101
I0
ssg37
(dp104
g36
I0
sg19
I0
sg18
I0
sg27
I0
sg29
I0
sg8
I0
sg13
I0
sg17
I0
sg11
I0
sg35
I0
sg12
I0
sg10
I0
sg22
I0
sg28
I0
sg16
I0
sg9
I0
sg41
I0
sg40
I0
sg44
I0
sg37
I0
sg33
I0
sg38
I8
sg15
I0
sg14
I0
sg34
I0
sg25
I0
sg43
I0
sg39
I0
sg42
I0
sg21
I0
sg30
I0
sg20
I0
sg23
I0
sg32
I0
sg31
I0
sg24
I0
sg26
I0
ssg33
(dp105
g36
I0
sg19
I0
sg18
I0
sg27
I0
sg29
I0
sg8
I0
sg13
I0
sg17
I0
sg11
I0
sg35
I0
sg12
I0
sg10
I0
sg22
I0
sg28
I0
sg16
I0
sg9
I0
sg41
I0
sg40
I0
sg44
I0
sg37
I0
sg25
I0
sg38
I0
sg15
I0
sg14
I0
sg34
I8
sg33
I0
sg43
I0
sg39
I0
sg42
I0
sg21
I0
sg30
I0
sg20
I0
sg23
I0
sg32
I0
sg31
I0
sg24
I0
sg26
I0
ssg38
(dp106
g36
I0
sg19
I0
sg18
I0
sg27
I0
sg29
I0
sg8
I0
sg13
I0
sg17
I0
sg11
I0
sg35
I0
sg12
I0
sg10
I0
sg22
I0
sg28
I0
sg16
I0
sg9
I0
sg41
I0
sg40
I0
sg44
I0
sg37
I0
sg33
I0
sg38
I0
sg15
I0
sg14
I0
sg34
I0
sg25
I0
sg43
I0
sg39
I0
sg42
I0
sg21
I0
sg30
I0
sg20
I0
sg23
I0
sg32
I0
sg31
I0
sg24
I0
sg26
I0
ssg15
(dp107
g36
I0
sg19
I0
sg18
I0
sg27
I0
sg29
I0
sg8
I0
sg13
I0
sg17
I0
sg11
I0
sg35
I0
sg12
I0
sg10
I0
sg22
I0
sg28
I0
sg16
I0
sg9
I0
sg55
I0
sg56
I0
sg57
I0
sg37
I0
sg33
I0
sg38
I0
sg15
I0
sg14
I0
sg34
I0
sg25
I0
sg58
I0
sg59
I0
sg60
I0
sg21
I0
sg30
I0
sg20
I0
sg23
I0
sg32
I0
sg31
I0
sg24
I0
sg26
I0
ssg14
(dp108
g36
I0
sg19
I0
sg18
I0
sg27
I0
sg29
I0
sg8
I0
sg13
I0
sg17
I0
sg11
I0
sg35
I0
sg12
I0
sg10
I0
sg22
I0
sg28
I0
sg16
I0
sg9
I0
sg55
I0
sg56
I0
sg57
I0
sg37
I0
sg33
I0
sg38
I0
sg15
I8
sg14
I0
sg34
I0
sg25
I0
sg58
I0
sg59
I0
sg60
I0
sg21
I0
sg30
I0
sg20
I0
sg23
I0
sg32
I0
sg31
I0
sg24
I0
sg26
I0
ssg34
(dp109
g36
I0
sg19
I0
sg18
I0
sg27
I0
sg29
I0
sg8
I0
sg13
I0
sg17
I0
sg11
I0
sg35
I0
sg12
I0
sg10
I0
sg22
I0
sg28
I0
sg16
I0
sg9
I0
sg41
I0
sg40
I0
sg44
I0
sg37
I0
sg33
I0
sg38
I0
sg15
I0
sg14
I0
sg34
I0
sg25
I0
sg43
I0
sg39
I0
sg42
I0
sg21
I0
sg30
I0
sg20
I0
sg23
I0
sg32
I0
sg31
I0
sg24
I0
sg26
I0
ssg25
(dp110
g36
I0
sg19
I0
sg18
I0
sg27
I0
sg29
I0
sg8
I0
sg13
I0
sg17
I0
sg11
I0
sg35
I0
sg12
I0
sg10
I0
sg22
I0
sg28
I0
sg16
I0
sg9
I0
sg41
I0
sg40
I0
sg44
I0
sg37
I0
sg33
I0
sg38
I0
sg15
I0
sg14
I0
sg34
I0
sg25
I0
sg43
I0
sg39
I0
sg42
I0
sg21
I0
sg30
I0
sg20
I0
sg23
I0
sg32
I0
sg31
I0
sg24
I0
sg26
I0
ssg43
(dp111
g71
I0
sg72
I0
sg73
I0
sg74
I0
sg75
I0
sg76
I0
sg77
I0
sg78
I0
sg79
I0
sg80
I0
sg81
I0
sg82
I0
sg83
I0
sg84
I0
sg85
I0
sg86
I0
sg41
I0
sg40
I0
sg44
I0
sg87
I0
sg88
I0
sg89
I0
sg90
I0
sg91
I0
sg92
I0
sg93
I0
sg43
I0
sg39
I0
sg42
I0
sg94
I0
sg95
I0
sg96
I0
sg97
I0
sg98
I0
sg99
I0
sg100
I0
sg101
I0
ssg39
(dp112
g71
I0
sg72
I0
sg73
I0
sg74
I0
sg75
I0
sg76
I0
sg77
I0
sg78
I0
sg79
I0
sg80
I0
sg81
I0
sg82
I0
sg83
I0
sg84
I0
sg85
I0
sg86
I0
sg41
I0
sg40
I0
sg44
I0
sg87
I0
sg88
I0
sg89
I0
sg90
I0
sg91
I0
sg92
I0
sg93
I0
sg43
I0
sg39
I8
sg42
I0
sg94
I0
sg95
I0
sg96
I0
sg97
I0
sg98
I0
sg99
I0
sg100
I0
sg101
I0
ssg42
(dp113
g71
I0
sg72
I0
sg73
I0
sg74
I0
sg75
I0
sg76
I0
sg77
I0
sg78
I0
sg79
I0
sg80
I0
sg81
I0
sg82
I0
sg83
I0
sg84
I0
sg85
I0
sg86
I0
sg41
I0
sg40
I0
sg44
I0
sg87
I0
sg88
I0
sg89
I0
sg90
I0
sg91
I0
sg92
I0
sg93
I0
sg43
I8
sg39
I0
sg42
I0
sg94
I0
sg95
I0
sg96
I0
sg97
I0
sg98
I0
sg99
I0
sg100
I0
sg101
I0
ssg21
(dp114
g36
I0
sg19
I0
sg18
I0
sg27
I0
sg29
I0
sg8
I0
sg13
I0
sg17
I0
sg11
I0
sg35
I0
sg12
I0
sg10
I0
sg22
I0
sg28
I0
sg16
I0
sg9
I0
sg41
I0
sg40
I0
sg44
I0
sg37
I0
sg33
I0
sg38
I0
sg15
I0
sg14
I0
sg34
I0
sg25
I0
sg43
I0
sg39
I0
sg42
I0
sg21
I0
sg30
I0
sg20
I0
sg23
I0
sg32
I0
sg31
I0
sg24
I0
sg26
I0
ssg30
(dp115
g36
I0
sg19
I0
sg18
I0
sg27
I0
sg29
I0
sg8
I0
sg13
I0
sg17
I0
sg11
I0
sg35
I0
sg12
I0
sg30
I0
sg22
I0
sg28
I0
sg16
I0
sg9
I0
sg41
I0
sg40
I0
sg44
I0
sg37
I0
sg33
I0
sg38
I0
sg23
I0
sg15
I0
sg14
I0
sg34
I0
sg25
I0
sg43
I0
sg39
I0
sg42
I0
sg21
I0
sg20
I0
sg10
I0
sg32
I0
sg31
I0
sg24
I0
sg26
I0
ssg20
(dp116
g36
I0
sg19
I0
sg18
I0
sg27
I0
sg8
I0
sg13
I0
sg17
I0
sg11
I0
sg35
I0
sg12
I0
sg10
I0
sg22
I0
sg14
I0
sg16
I0
sg9
I0
sg41
I0
sg40
I0
sg44
I0
sg37
I0
sg33
I0
sg38
I0
sg15
I0
sg28
I0
sg34
I0
sg25
I0
sg43
I0
sg39
I0
sg42
I0
sg24
I0
sg21
I8
sg30
I0
sg20
I0
sg23
I0
sg32
I0
sg31
I0
sg29
I0
sg26
I0
ssg23
(dp117
g36
I0
sg19
I0
sg18
I0
sg27
I0
sg29
I0
sg8
I0
sg13
I0
sg17
I0
sg11
I0
sg35
I0
sg12
I0
sg23
I0
sg22
I0
sg28
I0
sg16
I0
sg9
I0
sg41
I0
sg40
I0
sg44
I0
sg37
I0
sg33
I0
sg38
I0
sg15
I0
sg14
I0
sg34
I0
sg25
I0
sg43
I0
sg39
I0
sg42
I0
sg21
I0
sg30
I0
sg20
I0
sg10
I0
sg32
I0
sg31
I0
sg24
I0
sg26
I0
ssg32
(dp118
g36
I0
sg19
I0
sg18
I0
sg27
I0
sg29
I0
sg8
I0
sg13
I0
sg17
I0
sg11
I0
sg35
I0
sg12
I0
sg10
I0
sg22
I0
sg28
I0
sg16
I0
sg9
I0
sg41
I0
sg40
I0
sg44
I0
sg37
I0
sg33
I0
sg38
I0
sg15
I0
sg14
I0
sg34
I0
sg25
I0
sg43
I0
sg39
I0
sg42
I0
sg21
I0
sg30
I0
sg20
I0
sg23
I0
sg32
I0
sg31
I0
sg24
I0
sg26
I0
ssg31
(dp119
g36
I0
sg19
I0
sg18
I0
sg27
I0
sg29
I0
sg8
I0
sg13
I0
sg17
I0
sg11
I0
sg35
I0
sg12
I0
sg10
I0
sg22
I0
sg28
I0
sg16
I0
sg9
I0
sg41
I0
sg40
I0
sg44
I0
sg37
I0
sg33
I0
sg38
I0
sg15
I0
sg14
I0
sg34
I0
sg25
I0
sg43
I0
sg39
I0
sg42
I0
sg21
I0
sg30
I0
sg20
I0
sg23
I0
sg32
I8
sg31
I0
sg24
I0
sg26
I0
ssg24
(dp120
g36
I0
sg19
I0
sg18
I0
sg27
I0
sg8
I0
sg13
I0
sg17
I0
sg11
I0
sg35
I0
sg12
I0
sg10
I0
sg22
I0
sg14
I0
sg16
I0
sg9
I0
sg41
I0
sg40
I0
sg44
I0
sg37
I0
sg33
I0
sg38
I0
sg15
I0
sg28
I0
sg34
I0
sg25
I8
sg43
I0
sg39
I0
sg42
I0
sg24
I0
sg21
I0
sg30
I0
sg20
I0
sg23
I0
sg32
I0
sg31
I0
sg29
I0
sg26
I0
ssg26
(dp121
g36
I0
sg19
I0
sg18
I0
sg27
I8
sg29
I0
sg8
I0
sg13
I0
sg17
I0
sg11
I0
sg35
I0
sg12
I0
sg10
I0
sg22
I0
sg28
I0
sg16
I0
sg9
I0
sg41
I0
sg40
I0
sg44
I0
sg37
I0
sg33
I0
sg38
I0
sg15
I0
sg14
I0
sg34
I0
sg25
I0
sg43
I0
sg39
I0
sg42
I0
sg21
I0
sg30
I0
sg20
I0
sg23
I0
sg32
I0
sg31
I0
sg24
I0
sg26
I0
sssb.