ccopy_reg
_reconstructor
p0
(cutils.eval
ConfusionMatrix
p1
c__builtin__
object
p2
Ntp3
Rp4
(dp5
S'labels'
p6
(lp7
S'add.v.01'
p8
aS'asparagus.n.02'
p9
aS'asparagus.n.01'
p10
aS'salad.n.01'
p11
aS'milk.n.01'
p12
aS'water.n.06'
p13
aS'water_system.n.02'
p14
aS'egg.n.02'
p15
aS'mixing_bowl.n.01'
p16
aS'pan.n.03'
p17
aS'vanilla.n.02'
p18
aS'butter.n.01'
p19
aS'vanilla.n.03'
p20
aS'onion.n.03'
p21
aS'french_fries.n.01'
p22
aS'steak.n.01'
p23
aS'corn.n.03'
p24
aS'dish.n.02'
p25
aS'dish.n.01'
p26
aS'dressing.n.01'
p27
aS'dressing.n.04'
p28
aS'apple.n.01'
p29
aS'vegetable.n.01'
p30
asS'instanceCount'
p31
I33
sS'matrix'
p32
(dp33
g24
(dp34
S'corn.n.03'
p35
I1
ssg16
(dp36
S'mixing_bowl.n.01'
p37
I1
ssg25
(dp38
g26
I1
ssg26
(dp39
g26
I0
ssg29
(dp40
S'apple.n.01'
p41
I1
ssg8
(dp42
S'add.v.01'
p43
I12
ssg12
(dp44
S'milk.n.01'
p45
I1
ssg17
(dp46
S'pan.n.03'
p47
I2
ssg15
(dp48
S'egg.n.02'
p49
I2
ssg19
(dp50
S'butter.n.01'
p51
I1
ssg9
(dp52
g10
I1
ssg10
(dp53
g10
I0
ssg20
(dp54
g20
I0
ssg18
(dp55
g20
I1
sS'vanilla.n.02'
p56
I1
ssg23
(dp57
S'steak.n.01'
p58
I1
ssg30
(dp59
S'vegetable.n.01'
p60
I1
ssg28
(dp61
g28
I0
ssg14
(dp62
g14
I0
ssg13
(dp63
g14
I1
ssg27
(dp64
g28
I1
ssg22
(dp65
S'french_fries.n.01'
p66
I1
ssg11
(dp67
S'salad.n.01'
p68
I2
ssg21
(dp69
S'onion.n.03'
p70
I1
sssb.