ccopy_reg
_reconstructor
p0
(cutils.eval
ConfusionMatrix
p1
c__builtin__
object
p2
Ntp3
Rp4
(dp5
S'labels'
p6
(lp7
S'cut.v.01'
p8
aS'fork.n.01'
p9
aS'fork.n.04'
p10
aS'cake.n.03'
p11
aS'flesh.n.01'
p12
aS'human_body.n.01'
p13
asS'instanceCount'
p14
I5
sS'matrix'
p15
(dp16
g8
(dp17
S'cut.v.01'
p18
I2
ssg12
(dp19
g13
I1
ssg10
(dp20
g10
I0
ssg9
(dp21
g10
I1
ssg13
(dp22
g13
I0
ssg11
(dp23
S'cake.n.03'
p24
I1
sssb.