ccopy_reg
_reconstructor
p0
(cutils.eval
ConfusionMatrix
p1
c__builtin__
object
p2
Ntp3
Rp4
(dp5
S'labels'
p6
(lp7
S'piece.n.08'
p8
aS'slice.n.06'
p9
aS'cut.v.01'
p10
aS'pizza.n.01'
p11
aS'potato.n.01'
p12
asS'instanceCount'
p13
I6
sS'matrix'
p14
(dp15
g12
(dp16
S'potato.n.01'
p17
I1
ssg8
(dp18
g9
I2
ssg10
(dp19
S'cut.v.01'
p20
I2
ssg9
(dp21
g9
I0
ssg11
(dp22
S'pizza.n.01'
p23
I1
sssb.