ccopy_reg
_reconstructor
p0
(cutils.eval
ConfusionMatrix
p1
c__builtin__
object
p2
Ntp3
Rp4
(dp5
S'labels'
p6
(lp7
S'fill.v.01'
p8
aS'fill.v.09'
p9
aS'kettle.n.01'
p10
aS'water.n.06'
p11
aS'foam.n.01'
p12
aS'mug.n.04'
p13
aS'chump.n.01'
p14
aS'pan.n.01'
p15
aS'pan.n.03'
p16
asS'instanceCount'
p17
I9
sS'matrix'
p18
(dp19
g15
(dp20
g16
I1
ssg13
(dp21
g14
I1
ssg14
(dp22
g14
I0
ssg9
(dp23
g9
I0
ssg11
(dp24
S'water.n.06'
p25
I2
ssg8
(dp26
g9
I3
ssg10
(dp27
S'kettle.n.01'
p28
I1
ssg16
(dp29
g16
I0
ssg12
(dp30
S'foam.n.01'
p31
I1
sssb.