ccopy_reg
_reconstructor
p0
(cutils.eval
ConfusionMatrix
p1
c__builtin__
object
p2
Ntp3
Rp4
(dp5
S'labels'
p6
(lp7
S'ice.n.01'
p8
aS'ice.n.05'
p9
aS'fill.v.01'
p10
aS'bowl.n.01'
p11
aS'pan.n.01'
p12
aS'pan.n.03'
p13
aS'water.n.06'
p14
aS'saltcellar.n.01'
p15
aS'salt.n.02'
p16
aS'pot.n.01'
p17
aS'glass.n.02'
p18
aS'milk.n.01'
p19
aS'thermos.n.01'
p20
aS'coffee.n.01'
p21
aS'bottle.n.01'
p22
aS'fruit_juice.n.01'
p23
aS'wok.n.01'
p24
aS'rice.n.01'
p25
asS'instanceCount'
p26
I24
sS'matrix'
p27
(dp28
g12
(dp29
g13
I1
ssg16
(dp30
S'salt.n.02'
p31
I1
ssg13
(dp32
g13
I0
ssg25
(dp33
S'rice.n.01'
p34
I1
ssg15
(dp35
S'saltcellar.n.01'
p36
I1
ssg22
(dp37
S'bottle.n.01'
p38
I1
ssg21
(dp39
S'coffee.n.01'
p40
I1
ssg23
(dp41
S'fruit_juice.n.01'
p42
I1
ssg20
(dp43
S'thermos.n.01'
p44
I1
ssg17
(dp45
S'pot.n.01'
p46
I1
ssg14
(dp47
S'water.n.06'
p48
I2
ssg10
(dp49
S'fill.v.01'
p50
I8
ssg8
(dp51
g9
I1
ssg24
(dp52
S'wok.n.01'
p53
I1
ssg11
(dp54
S'bowl.n.01'
p55
I1
ssg9
(dp56
g9
I0
ssg19
(dp57
S'milk.n.01'
p58
I1
ssg18
(dp59
S'glass.n.02'
p60
I1
sssb.