ccopy_reg
_reconstructor
p0
(cutils.eval
ConfusionMatrix
p1
c__builtin__
object
p2
Ntp3
Rp4
(dp5
S'labels'
p6
(lp7
S'fill.v.01'
p8
aS'bottle.n.01'
p9
aS'fruit_juice.n.01'
p10
aS'wok.n.01'
p11
aS'rice.n.01'
p12
aS'cup.n.01'
p13
aS'cola.n.02'
p14
aS'blender.n.01'
p15
aS'apple.n.01'
p16
aS'kettle.n.01'
p17
aS'water.n.06'
p18
aS'opening.n.01'
p19
aS'gap.n.03'
p20
aS'fill.v.09'
p21
aS'batter.n.02'
p22
aS'pitcher.n.02'
p23
aS'milk.n.01'
p24
aS'jar.n.01'
p25
asS'instanceCount'
p26
I23
sS'matrix'
p27
(dp28
g10
(dp29
S'fruit_juice.n.01'
p30
I1
ssg14
(dp31
S'cola.n.02'
p32
I1
ssg20
(dp33
g20
I0
ssg15
(dp34
S'blender.n.01'
p35
I1
ssg9
(dp36
S'bottle.n.01'
p37
I1
ssg12
(dp38
S'rice.n.01'
p39
I1
ssg18
(dp40
S'water.n.06'
p41
I1
ssg13
(dp42
S'cup.n.01'
p43
I1
ssg11
(dp44
S'wok.n.01'
p45
I1
ssg21
(dp46
S'fill.v.01'
p47
I1
ssg17
(dp48
S'kettle.n.01'
p49
I1
ssg24
(dp50
S'milk.n.01'
p51
I1
ssg22
(dp52
S'batter.n.02'
p53
I1
ssg16
(dp54
S'apple.n.01'
p55
I1
ssg25
(dp56
S'jar.n.01'
p57
I1
ssg8
(dp58
S'fill.v.01'
p59
I7
ssg23
(dp60
S'pitcher.n.02'
p61
I1
ssg19
(dp62
g20
I1
sssb.