ccopy_reg
_reconstructor
p0
(cutils.eval
ConfusionMatrix
p1
c__builtin__
object
p2
Ntp3
Rp4
(dp5
S'labels'
p6
(lp7
S'opening.n.01'
p8
aS'opening.n.10'
p9
aS'fill.v.09'
p10
aS'fill.v.01'
p11
aS'curd.n.01'
p12
aS'teapot.n.01'
p13
aS'water.n.06'
p14
aS'ice.n.01'
p15
aS'ice.n.05'
p16
aS'bowl.n.01'
p17
aS'pan.n.01'
p18
aS'pan.n.03'
p19
aS'saltcellar.n.01'
p20
aS'salt.n.02'
p21
aS'pot.n.01'
p22
aS'glass.n.02'
p23
aS'milk.n.01'
p24
aS'thermos.n.01'
p25
aS'coffee.n.01'
p26
asS'instanceCount'
p27
I24
sS'matrix'
p28
(dp29
g18
(dp30
g19
I1
ssg21
(dp31
S'salt.n.02'
p32
I1
ssg19
(dp33
g19
I0
ssg25
(dp34
S'thermos.n.01'
p35
I1
ssg13
(dp36
S'teapot.n.01'
p37
I1
ssg10
(dp38
g11
I1
ssg26
(dp39
S'coffee.n.01'
p40
I1
ssg20
(dp41
S'saltcellar.n.01'
p42
I1
ssg22
(dp43
S'pot.n.01'
p44
I1
ssg14
(dp45
S'water.n.06'
p46
I3
ssg11
(dp47
g11
I7
ssg15
(dp48
g16
I1
ssg17
(dp49
S'bowl.n.01'
p50
I1
ssg16
(dp51
g16
I0
ssg12
(dp52
S'curd.n.01'
p53
I1
ssg9
(dp54
g9
I0
ssg24
(dp55
S'milk.n.01'
p56
I1
ssg23
(dp57
S'glass.n.02'
p58
I1
ssg8
(dp59
g9
I1
sssb.