ccopy_reg
_reconstructor
p0
(cutils.eval
ConfusionMatrix
p1
c__builtin__
object
p2
Ntp3
Rp4
(dp5
S'labels'
p6
(lp7
S'fill.v.01'
p8
aS'pitcher.n.02'
p9
aS'milk.n.01'
p10
aS'jar.n.01'
p11
aS'measuring_cup.n.01'
p12
aS'meal.n.03'
p13
aS'gravy.n.01'
p14
aS'gravy.n.02'
p15
aS'whiskey.n.01'
p16
aS'carafe.n.01'
p17
aS'foam.n.01'
p18
aS'mug.n.04'
p19
aS'opening.n.01'
p20
aS'opening.n.10'
p21
aS'fill.v.09'
p22
aS'curd.n.01'
p23
aS'teapot.n.01'
p24
aS'water.n.06'
p25
asS'instanceCount'
p26
I23
sS'matrix'
p27
(dp28
g14
(dp29
g15
I1
ssg19
(dp30
S'mug.n.04'
p31
I1
ssg20
(dp32
g21
I1
ssg15
(dp33
g15
I0
ssg24
(dp34
S'teapot.n.01'
p35
I1
ssg22
(dp36
S'fill.v.01'
p37
I1
ssg25
(dp38
S'water.n.06'
p39
I1
ssg8
(dp40
S'fill.v.01'
p41
I7
ssg9
(dp42
S'pitcher.n.02'
p43
I1
ssg21
(dp44
g21
I0
ssg23
(dp45
S'curd.n.01'
p46
I1
ssg12
(dp47
S'measuring_cup.n.01'
p48
I1
ssg11
(dp49
S'jar.n.01'
p50
I2
ssg18
(dp51
S'foam.n.01'
p52
I1
ssg17
(dp53
S'carafe.n.01'
p54
I1
ssg10
(dp55
S'milk.n.01'
p56
I1
ssg16
(dp57
S'whiskey.n.01'
p58
I1
ssg13
(dp59
S'meal.n.03'
p60
I1
sssb.