ccopy_reg
_reconstructor
p0
(cutils.eval
ConfusionMatrix
p1
c__builtin__
object
p2
Ntp3
Rp4
(dp5
S'labels'
p6
(lp7
S'fill.v.01'
p8
aS'glass.n.02'
p9
aS'milk.n.01'
p10
aS'thermos.n.01'
p11
aS'coffee.n.01'
p12
aS'bottle.n.01'
p13
aS'fruit_juice.n.01'
p14
aS'wok.n.01'
p15
aS'rice.n.01'
p16
aS'cup.n.01'
p17
aS'cola.n.02'
p18
aS'blender.n.01'
p19
aS'apple.n.01'
p20
aS'kettle.n.01'
p21
aS'water.n.06'
p22
aS'opening.n.01'
p23
aS'gap.n.03'
p24
aS'fill.v.09'
p25
aS'batter.n.02'
p26
asS'instanceCount'
p27
I24
sS'matrix'
p28
(dp29
g14
(dp30
S'fruit_juice.n.01'
p31
I1
ssg16
(dp32
S'rice.n.01'
p33
I1
ssg18
(dp34
S'cola.n.02'
p35
I1
ssg24
(dp36
g24
I0
ssg19
(dp37
S'blender.n.01'
p38
I1
ssg13
(dp39
S'bottle.n.01'
p40
I1
ssg11
(dp41
S'thermos.n.01'
p42
I1
ssg12
(dp43
S'coffee.n.01'
p44
I1
ssg22
(dp45
S'water.n.06'
p46
I1
ssg8
(dp47
S'fill.v.01'
p48
I7
ssg15
(dp49
S'wok.n.01'
p50
I1
ssg25
(dp51
S'fill.v.01'
p52
I1
ssg21
(dp53
S'kettle.n.01'
p54
I1
ssg26
(dp55
S'batter.n.02'
p56
I1
ssg20
(dp57
S'apple.n.01'
p58
I1
ssg17
(dp59
S'cup.n.01'
p60
I1
ssg10
(dp61
S'milk.n.01'
p62
I1
ssg9
(dp63
S'glass.n.02'
p64
I1
ssg23
(dp65
g24
I1
sssb.