ccopy_reg
_reconstructor
p0
(cutils.eval
ConfusionMatrix
p1
c__builtin__
object
p2
Ntp3
Rp4
(dp5
S'labels'
p6
(lp7
S'cup.n.01'
p8
aS'fill.v.01'
p9
aS'cola.n.02'
p10
aS'blender.n.01'
p11
aS'apple.n.01'
p12
aS'kettle.n.01'
p13
aS'water.n.06'
p14
aS'opening.n.01'
p15
aS'gap.n.03'
p16
aS'fill.v.09'
p17
aS'batter.n.02'
p18
aS'pitcher.n.02'
p19
aS'milk.n.01'
p20
aS'jar.n.01'
p21
aS'measuring_cup.n.01'
p22
aS'meal.n.03'
p23
aS'gravy.n.01'
p24
aS'gravy.n.02'
p25
asS'instanceCount'
p26
I23
sS'matrix'
p27
(dp28
g23
(dp29
S'meal.n.03'
p30
I1
ssg24
(dp31
g25
I1
ssg25
(dp32
g25
I0
ssg10
(dp33
S'cola.n.02'
p34
I1
ssg16
(dp35
g16
I0
ssg11
(dp36
S'blender.n.01'
p37
I1
ssg17
(dp38
S'fill.v.01'
p39
I1
ssg14
(dp40
S'water.n.06'
p41
I1
ssg9
(dp42
S'fill.v.01'
p43
I7
ssg19
(dp44
S'pitcher.n.02'
p45
I1
ssg13
(dp46
S'kettle.n.01'
p47
I1
ssg18
(dp48
S'batter.n.02'
p49
I1
ssg22
(dp50
S'measuring_cup.n.01'
p51
I1
ssg12
(dp52
S'apple.n.01'
p53
I1
ssg21
(dp54
S'jar.n.01'
p55
I2
ssg8
(dp56
S'cup.n.01'
p57
I1
ssg20
(dp58
S'milk.n.01'
p59
I1
ssg15
(dp60
g16
I1
sssb.