ccopy_reg
_reconstructor
p0
(cutils.eval
ConfusionMatrix
p1
c__builtin__
object
p2
Ntp3
Rp4
(dp5
S'labels'
p6
(lp7
S'put.v.01'
p8
aS'dressing.n.01'
p9
aS'dressing.n.04'
p10
aS'salad.n.01'
p11
aS'jam.n.01'
p12
aS'refrigerator.n.01'
p13
asS'instanceCount'
p14
I6
sS'matrix'
p15
(dp16
g10
(dp17
g10
I0
ssg12
(dp18
S'jam.n.01'
p19
I1
ssg13
(dp20
S'refrigerator.n.01'
p21
I1
ssg8
(dp22
S'put.v.01'
p23
I2
ssg9
(dp24
g10
I1
ssg11
(dp25
S'salad.n.01'
p26
I1
sssb.