ccopy_reg
_reconstructor
p0
(cutils.eval
ConfusionMatrix
p1
c__builtin__
object
p2
Ntp3
Rp4
(dp5
S'labels'
p6
(lp7
S'put.v.01'
p8
aS'steak.n.01'
p9
aS'oven.n.01'
p10
aS'mug.n.04'
p11
aS'chump.n.01'
p12
aS'microwave.n.02'
p13
asS'instanceCount'
p14
I6
sS'matrix'
p15
(dp16
g11
(dp17
g12
I1
ssg12
(dp18
g12
I0
ssg13
(dp19
S'microwave.n.02'
p20
I1
ssg8
(dp21
S'put.v.01'
p22
I2
ssg9
(dp23
S'steak.n.01'
p24
I1
ssg10
(dp25
S'oven.n.01'
p26
I1
sssb.