ccopy_reg
_reconstructor
p0
(cutils.eval
ConfusionMatrix
p1
c__builtin__
object
p2
Ntp3
Rp4
(dp5
S'labels'
p6
(lp7
S'put.v.01'
p8
aS'spread.n.05'
p9
aS'bread.n.01'
p10
aS'onion.n.01'
p11
aS'onion.n.03'
p12
aS'beef.n.02'
p13
aS'plate.n.04'
p14
aS'plate.n.13'
p15
asS'instanceCount'
p16
I7
sS'matrix'
p17
(dp18
g15
(dp19
g15
I0
ssg13
(dp20
S'beef.n.02'
p21
I1
ssg14
(dp22
g15
I1
ssg8
(dp23
S'put.v.01'
p24
I2
ssg10
(dp25
S'bread.n.01'
p26
I1
ssg9
(dp27
S'spread.n.05'
p28
I1
ssg11
(dp29
g12
I1
ssg12
(dp30
g12
I0
sssb.