ccopy_reg
_reconstructor
p0
(cutils.eval
ConfusionMatrix
p1
c__builtin__
object
p2
Ntp3
Rp4
(dp5
S'labels'
p6
(lp7
S'put.v.01'
p8
aS'steak.n.01'
p9
aS'oven.n.01'
p10
aS'mug.n.04'
p11
aS'chump.n.01'
p12
aS'microwave.n.02'
p13
aS'pepper.n.03'
p14
aS'capsicum.n.01'
p15
aS'salt.n.02'
p16
aS'egg.n.02'
p17
aS'coca_cola.n.01'
p18
aS'coke.n.01'
p19
aS'electric_refrigerator.n.01'
p20
aS'bowl.n.01'
p21
aS'bowl.n.08'
p22
aS'cherry.n.03'
p23
aS'soup.n.01'
p24
aS'spread.n.05'
p25
aS'bread.n.01'
p26
aS'onion.n.01'
p27
aS'onion.n.03'
p28
aS'beef.n.02'
p29
aS'plate.n.04'
p30
aS'plate.n.13'
p31
aS'cake.n.03'
p32
aS'patty.n.01'
p33
aS'whipped_cream.n.01'
p34
aS'rice.n.01'
p35
aS'salmon.n.03'
p36
aS'pan.n.03'
p37
aS'chicken.n.01'
p38
aS'spoon.n.01'
p39
aS'batter.n.02'
p40
aS'blender.n.01'
p41
aS'banana.n.02'
p42
aS'dressing.n.01'
p43
aS'dressing.n.04'
p44
aS'salad.n.01'
p45
aS'jam.n.01'
p46
aS'refrigerator.n.01'
p47
aS'french_fries.n.01'
p48
aS'pizza.n.01'
p49
aS'dish.n.02'
p50
aS'rib.n.03'
p51
aS'rib.n.06'
p52
asS'instanceCount'
p53
I61
sS'matrix'
p54
(dp55
g19
(dp56
g19
I0
sg16
I0
sg17
I0
sg14
I0
sg20
I0
sg15
I0
sS'put.v.01'
p57
I0
sg18
I0
ssg31
(dp58
g31
I0
sg37
I0
sg38
I0
sg29
I0
sg30
I0
sg36
I0
sS'put.v.01'
p59
I0
sg26
I0
sg25
I0
sg27
I0
sg28
I0
ssg46
(dp60
g44
I0
sg46
I1
sg47
I0
sS'put.v.01'
p61
I0
sg43
I0
sg45
I0
ssg38
(dp62
S'plate.n.13'
p63
I0
sg37
I0
sg38
I1
sS'plate.n.04'
p64
I0
sS'put.v.01'
p65
I0
sg36
I0
ssg29
(dp66
g31
I0
sg29
I1
sg30
I0
sg59
I0
sg25
I0
sg26
I0
sg27
I0
sg28
I0
ssg24
(dp67
g23
I0
sS'microwave.n.02'
p68
I0
sg24
I1
sS'put.v.01'
p69
I0
sg21
I0
sg22
I0
ssg47
(dp70
g44
I0
sg46
I0
sg47
I1
sg61
I0
sg43
I0
sg45
I0
ssg26
(dp71
g31
I0
sg29
I0
sg30
I0
sg59
I0
sg25
I0
sg26
I1
sg27
I0
sg28
I0
ssg21
(dp72
g23
I0
sg68
I0
sg24
I0
sg35
I0
sg69
I0
sg33
I0
sg21
I0
sg34
I0
sg32
I0
sg22
I2
ssg49
(dp73
S'pan.n.03'
p74
I0
sg48
I0
sS'put.v.01'
p75
I0
sg49
I1
ssg40
(dp76
g39
I0
sg42
I0
sg40
I1
sS'put.v.01'
p77
I0
sg41
I0
ssg22
(dp78
g23
I0
sg68
I0
sg24
I0
sg35
I0
sg69
I0
sg33
I0
sg21
I0
sg34
I0
sg32
I0
sg22
I0
ssg36
(dp79
g63
I0
sg37
I0
sg38
I0
sg64
I0
sg65
I0
sg36
I1
ssg37
(dp80
g63
I0
sg37
I2
sg38
I0
sg64
I0
sg65
I0
sg49
I0
sg48
I0
sg36
I0
ssg18
(dp81
g19
I1
sg16
I0
sg17
I0
sg14
I0
sg20
I0
sg15
I0
sg57
I0
sg18
I0
ssg13
(dp82
g11
I0
sg12
I0
sg23
I0
sg13
I2
sg24
I0
sg8
I0
sg21
I0
sg9
I0
sg10
I0
sg22
I0
ssg17
(dp83
g19
I0
sg16
I0
sg17
I1
sg14
I0
sg20
I0
sg15
I0
sg57
I0
sg18
I0
ssg20
(dp84
g19
I0
sg16
I0
sg17
I0
sg14
I0
sg20
I1
sg15
I0
sg57
I0
sg18
I0
ssg39
(dp85
g39
I1
sg42
I0
sg40
I0
sg77
I0
sg41
I0
ssg15
(dp86
g19
I0
sg16
I0
sg17
I0
sg14
I0
sg20
I0
sg15
I0
sg57
I0
sg18
I0
ssg16
(dp87
g19
I0
sg16
I2
sg51
I0
sg17
I0
sg52
I0
sg14
I0
sg20
I0
sg15
I0
sS'oven.n.01'
p88
I0
sg57
I0
sg18
I0
sg50
I0
ssg12
(dp89
g11
I0
sg12
I0
sg13
I0
sg8
I0
sg9
I0
sg10
I0
ssg42
(dp90
g39
I0
sg41
I0
sg77
I0
sg42
I1
sg40
I0
ssg30
(dp91
g31
I2
sg37
I0
sg38
I0
sg29
I0
sg30
I0
sg36
I0
sg59
I0
sg26
I0
sg25
I0
sg27
I0
sg28
I0
ssg52
(dp92
S'salt.n.02'
p93
I0
sg51
I0
sg52
I0
sS'put.v.01'
p94
I0
sg88
I0
sg50
I0
ssg14
(dp95
g19
I0
sg16
I0
sg17
I0
sg57
I0
sg20
I0
sg15
I1
sg14
I0
sg18
I0
ssg25
(dp96
g31
I0
sg29
I0
sg30
I0
sg59
I0
sg26
I0
sg25
I1
sg27
I0
sg28
I0
ssg9
(dp97
g11
I0
sg12
I0
sg13
I0
sg8
I0
sg9
I1
sg10
I0
ssg10
(dp98
g11
I0
sg12
I0
sg13
I0
sg51
I0
sg52
I0
sg8
I0
sg9
I0
sg10
I2
sg50
I0
sg93
I0
ssg33
(dp99
g35
I0
sS'put.v.01'
p100
I0
sg33
I0
sS'bowl.n.01'
p101
I0
sg34
I0
sg32
I0
sS'bowl.n.08'
p102
I0
ssg11
(dp103
g11
I0
sg12
I1
sg13
I0
sg8
I0
sg9
I0
sg10
I0
ssg41
(dp104
g39
I0
sg42
I0
sg40
I0
sg77
I0
sg41
I1
ssg51
(dp105
g93
I0
sg51
I0
sg52
I1
sg94
I0
sg88
I0
sg50
I0
ssg45
(dp106
g44
I0
sg46
I0
sg47
I0
sg61
I0
sg43
I0
sg45
I1
ssg44
(dp107
g44
I0
sg46
I0
sg47
I0
sg61
I0
sg43
I0
sg45
I0
ssg35
(dp108
g35
I1
sg100
I0
sg33
I0
sg101
I0
sg34
I0
sg32
I0
sg102
I0
ssg8
(dp109
g19
I0
sg31
I0
sg46
I0
sg38
I0
sg29
I0
sg24
I0
sg47
I0
sg26
I0
sg21
I0
sg49
I0
sg40
I0
sg22
I0
sg36
I0
sg37
I0
sg18
I0
sg13
I0
sg17
I0
sg20
I0
sg39
I0
sg15
I0
sg16
I0
sg12
I0
sg42
I0
sg30
I0
sg52
I0
sg14
I0
sg25
I0
sg9
I0
sg10
I0
sg33
I0
sg11
I0
sg41
I0
sg51
I0
sg45
I0
sg44
I0
sg35
I0
sg8
I20
sg43
I0
sg34
I0
sg32
I0
sg48
I0
sg23
I0
sg27
I0
sg28
I0
sg50
I0
ssg43
(dp110
g44
I1
sg46
I0
sg47
I0
sg61
I0
sg43
I0
sg45
I0
ssg34
(dp111
g35
I0
sg100
I0
sg33
I0
sg101
I0
sg34
I1
sg32
I0
sg102
I0
ssg32
(dp112
g35
I0
sg100
I0
sg33
I1
sg101
I0
sg34
I0
sg32
I0
sg102
I0
ssg48
(dp113
g74
I0
sg75
I0
sg48
I1
sg49
I0
ssg23
(dp114
g23
I1
sg68
I0
sg24
I0
sg69
I0
sg21
I0
sg22
I0
ssg27
(dp115
g31
I0
sg29
I0
sg30
I0
sg59
I0
sg26
I0
sg25
I0
sg27
I0
sg28
I1
ssg28
(dp116
g31
I0
sg29
I0
sg30
I0
sg59
I0
sg26
I0
sg25
I0
sg27
I0
sg28
I0
ssg50
(dp117
g93
I0
sg51
I0
sg52
I0
sg94
I0
sg88
I0
sg50
I1
sssb.