ccopy_reg
_reconstructor
p0
(cutils.eval
ConfusionMatrix
p1
c__builtin__
object
p2
Ntp3
Rp4
(dp5
S'labels'
p6
(lp7
S'fill.v.01'
p8
aS'whiskey.n.01'
p9
aS'carafe.n.01'
p10
aS'foam.n.01'
p11
aS'mug.n.04'
p12
aS'opening.n.01'
p13
aS'opening.n.10'
p14
aS'fill.v.09'
p15
aS'curd.n.01'
p16
aS'teapot.n.01'
p17
aS'water.n.06'
p18
aS'ice.n.01'
p19
aS'ice.n.05'
p20
aS'bowl.n.01'
p21
aS'pan.n.01'
p22
aS'pan.n.03'
p23
aS'saltcellar.n.01'
p24
aS'salt.n.02'
p25
aS'pot.n.01'
p26
asS'instanceCount'
p27
I24
sS'matrix'
p28
(dp29
g22
(dp30
g23
I1
ssg12
(dp31
S'mug.n.04'
p32
I1
ssg23
(dp33
g23
I0
ssg17
(dp34
S'teapot.n.01'
p35
I1
ssg15
(dp36
S'fill.v.01'
p37
I1
ssg24
(dp38
S'saltcellar.n.01'
p39
I1
ssg26
(dp40
S'pot.n.01'
p41
I1
ssg18
(dp42
S'water.n.06'
p43
I3
ssg8
(dp44
S'fill.v.01'
p45
I7
ssg19
(dp46
g20
I1
ssg21
(dp47
S'bowl.n.01'
p48
I1
ssg20
(dp49
g20
I0
ssg16
(dp50
S'curd.n.01'
p51
I1
ssg14
(dp52
g14
I0
ssg11
(dp53
S'foam.n.01'
p54
I1
ssg10
(dp55
S'carafe.n.01'
p56
I1
ssg9
(dp57
S'whiskey.n.01'
p58
I1
ssg25
(dp59
S'salt.n.02'
p60
I1
ssg13
(dp61
g14
I1
sssb.