ccopy_reg
_reconstructor
p0
(cutils.eval
ConfusionMatrix
p1
c__builtin__
object
p2
Ntp3
Rp4
(dp5
S'labels'
p6
(lp7
S'add.v.01'
p8
aS'rib.n.03'
p9
aS'mixing_bowl.n.01'
p10
aS'butter.n.01'
p11
aS'sugar.n.01'
p12
asS'instanceCount'
p13
I6
sS'matrix'
p14
(dp15
g9
(dp16
S'rib.n.03'
p17
I1
ssg10
(dp18
S'mixing_bowl.n.01'
p19
I1
ssg11
(dp20
S'butter.n.01'
p21
I1
ssg8
(dp22
S'add.v.01'
p23
I2
ssg12
(dp24
S'sugar.n.01'
p25
I1
sssb.