ccopy_reg
_reconstructor
p0
(cutils.eval
ConfusionMatrix
p1
c__builtin__
object
p2
Ntp3
Rp4
(dp5
S'labels'
p6
(lp7
S'cheese.n.01'
p8
aS'slice.v.03'
p9
asS'instanceCount'
p10
I2
sS'matrix'
p11
(dp12
g8
(dp13
S'cheese.n.01'
p14
I1
ssg9
(dp15
S'slice.v.03'
p16
I1
sssb.