ccopy_reg
_reconstructor
p0
(cutils.eval
ConfusionMatrix
p1
c__builtin__
object
p2
Ntp3
Rp4
(dp5
S'labels'
p6
(lp7
S'tomato.n.01'
p8
aS'tomato.n.02'
p9
aS'piece.n.08'
p10
aS'slice.n.04'
p11
aS'onion.n.03'
p12
aS'onion.n.02'
p13
aS'mustard.n.02'
p14
asS'instanceCount'
p15
I4
sS'matrix'
p16
(dp17
g14
(dp18
S'mustard.n.02'
p19
I1
ssg9
(dp20
g9
I0
ssg8
(dp21
g9
I1
ssg11
(dp22
g11
I0
ssg10
(dp23
g11
I1
ssg12
(dp24
g13
I1
ssg13
(dp25
g13
I0
sssb.