ccopy_reg
_reconstructor
p0
(cutils.eval
ConfusionMatrix
p1
c__builtin__
object
p2
Ntp3
Rp4
(dp5
S'labels'
p6
(lp7
S'fill.v.01'
p8
aS'fill.v.09'
p9
aS'pan.n.01'
p10
aS'pan.n.03'
p11
aS'water.n.06'
p12
aS'piece.n.08'
p13
aS'slice.n.06'
p14
aS'pizza.n.01'
p15
aS'slice.v.03'
p16
aS'cut.v.01'
p17
aS'bacon.n.01'
p18
aS'bacon.n.02'
p19
aS'pitcher.n.02'
p20
aS'milk.n.01'
p21
aS'bread.n.01'
p22
aS'knife.n.01'
p23
aS'knife.n.02'
p24
aS'flesh.n.01'
p25
aS'pulp.n.02'
p26
aS'put.v.01'
p27
aS'chicken.n.01'
p28
aS'banana.n.02'
p29
aS'meat.n.01'
p30
aS'cleaver.n.01'
p31
aS'pepper.n.03'
p32
aS'capsicum.n.01'
p33
aS'salt.n.02'
p34
aS'salt.n.01'
p35
aS'egg.n.02'
p36
aS'egg.n.01'
p37
aS'lemon.n.01'
p38
aS'opening.n.01'
p39
aS'gap.n.03'
p40
aS'batter.n.02'
p41
aS'cheese.n.01'
p42
aS'pepper.n.04'
p43
aS'milk.n.02'
p44
aS'human_body.n.01'
p45
aS'kettle.n.01'
p46
aS'foam.n.01'
p47
aS'mug.n.04'
p48
aS'chump.n.01'
p49
aS'cabbage.n.01'
p50
aS'onion.n.01'
p51
aS'onion.n.03'
p52
aS'pepper.n.01'
p53
aS'pan.n.04'
p54
aS'pitcher.n.03'
p55
aS'beef.n.02'
p56
aS'plate.n.04'
p57
aS'plate.n.11'
p58
aS'cake.n.03'
p59
aS'whipped_cream.n.01'
p60
aS'plate.n.13'
p61
aS'plate.n.08'
p62
aS'patty.n.01'
p63
asS'instanceCount'
p64
I171
sS'matrix'
p65
(dp66
g61
(dp67
g61
I0
sS'salt.n.02'
p68
I0
sS'salt.n.01'
p69
I0
sS'cut.v.01'
p70
I0
sS'beef.n.02'
p71
I0
sS'plate.n.04'
p72
I0
sS'pepper.n.04'
p73
I0
sS'egg.n.01'
p74
I0
sS'pan.n.03'
p75
I0
sS'pepper.n.03'
p76
I0
sS'pizza.n.01'
p77
I0
sS'whipped_cream.n.01'
p78
I0
sS'cake.n.03'
p79
I0
sS'meat.n.01'
p80
I0
sS'lemon.n.01'
p81
I0
sS'egg.n.02'
p82
I0
sS'onion.n.01'
p83
I0
sS'put.v.01'
p84
I0
sS'onion.n.03'
p85
I0
sS'cleaver.n.01'
p86
I0
ssg42
(dp87
g42
I3
sS'chicken.n.01'
p88
I0
sS'slice.v.03'
p89
I0
sS'bread.n.01'
p90
I0
sg41
I0
sS'milk.n.01'
p91
I0
sg44
I0
sS'pan.n.03'
p92
I0
sS'cut.v.01'
p93
I0
sg40
I0
sS'fill.v.09'
p94
I0
sS'egg.n.02'
p95
I0
sS'egg.n.01'
p96
I0
sS'bacon.n.02'
p97
I0
sS'bacon.n.01'
p98
I0
sS'fill.v.01'
p99
I0
sS'pitcher.n.02'
p100
I0
sS'meat.n.01'
p101
I0
sS'cleaver.n.01'
p102
I0
sS'salt.n.02'
p103
I0
sS'salt.n.01'
p104
I0
sS'knife.n.01'
p105
I0
sS'banana.n.02'
p106
I0
sS'knife.n.02'
p107
I0
sg43
I0
sS'pepper.n.03'
p108
I0
sg45
I0
sg39
I0
sS'flesh.n.01'
p109
I0
sS'put.v.01'
p110
I0
sS'pulp.n.02'
p111
I0
ssg58
(dp112
S'water.n.06'
p113
I0
sS'mug.n.04'
p114
I0
sg58
I0
sS'cut.v.01'
p115
I0
sg56
I0
sg57
I0
sS'fill.v.09'
p116
I0
sS'chump.n.01'
p117
I0
sS'pan.n.03'
p118
I0
sS'put.v.01'
p119
I0
sS'pizza.n.01'
p120
I0
sS'foam.n.01'
p121
I0
sg60
I0
sg59
I0
sS'lemon.n.01'
p122
I0
sS'kettle.n.01'
p123
I0
sS'fill.v.01'
p124
I0
sS'onion.n.01'
p125
I0
ssg28
(dp126
g42
I0
sg28
I3
sg34
I0
sg90
I0
sg41
I0
sS'pan.n.03'
p127
I0
sS'cut.v.01'
p128
I0
sg40
I0
sg94
I0
sg36
I0
sg37
I0
sg99
I0
sg33
I0
sg30
I0
sg31
I0
sS'slice.v.03'
p129
I0
sg35
I0
sS'knife.n.01'
p130
I0
sg29
I0
sS'knife.n.02'
p131
I0
sg43
I0
sg32
I0
sg39
I0
sg109
I0
sg27
I0
sS'pizza.n.01'
p132
I0
sg38
I0
sg111
I0
ssg34
(dp133
g61
I0
sS'cheese.n.01'
p134
I0
sg28
I0
sg129
I0
sS'batter.n.02'
p135
I0
sg127
I0
sg128
I0
sS'gap.n.03'
p136
I0
sS'fill.v.09'
p137
I0
sg36
I0
sg37
I0
sg71
I0
sS'fill.v.01'
p138
I0
sg33
I0
sg30
I0
sg31
I0
sg34
I0
sg35
I3
sg130
I0
sg29
I0
sg131
I0
sg72
I0
sg43
I0
sg32
I0
sg78
I0
sS'opening.n.01'
p139
I0
sg27
I0
sg132
I0
sg79
I0
sg38
I0
sg83
I0
sg85
I0
ssg49
(dp140
g58
I0
sg56
I0
sg62
I0
sg47
I0
sS'pan.n.01'
p141
I0
sS'pan.n.03'
p142
I0
sS'cut.v.01'
p143
I0
sS'fill.v.09'
p144
I0
sS'fill.v.01'
p145
I0
sS'slice.v.03'
p146
I0
sg49
I0
sg50
I0
sg57
I0
sS'pepper.n.04'
p147
I0
sS'pepper.n.03'
p148
I0
sg60
I0
sg63
I0
sS'piece.n.08'
p149
I0
sg48
I0
sS'slice.n.06'
p150
I0
sS'water.n.06'
p151
I0
sg119
I0
sS'pizza.n.01'
p152
I0
sg46
I0
sg59
I0
sg122
I0
sg51
I0
sg52
I0
ssg22
(dp153
g42
I0
sg88
I0
sg22
I3
sg41
I0
sg21
I0
sg44
I0
sg10
I0
sg11
I0
sg17
I0
sg40
I0
sg9
I0
sg19
I0
sg18
I0
sg8
I0
sg20
I0
sg16
I0
sg23
I0
sg106
I0
sg24
I0
sg45
I0
sg13
I0
sg39
I0
sg25
I0
sg14
I0
sg12
I0
sg110
I0
sg15
I0
sg26
I0
ssg41
(dp154
g42
I0
sg88
I0
sg103
I0
sg90
I0
sg41
I3
sg91
I0
sg44
I0
sg92
I0
sg93
I0
sg40
I0
sg94
I0
sg95
I0
sg96
I0
sg97
I0
sg98
I0
sg99
I0
sg100
I0
sg101
I0
sg102
I0
sg89
I0
sg104
I0
sg105
I0
sg106
I0
sg107
I0
sg43
I0
sg108
I0
sg45
I0
sg39
I0
sg109
I0
sg110
I0
sg111
I0
ssg50
(dp155
S'beef.n.02'
p156
I0
sg62
I0
sg47
I0
sS'milk.n.01'
p157
I0
sg141
I0
sg142
I0
sg143
I0
sg54
I0
sg144
I0
sS'bacon.n.01'
p158
I0
sg145
I0
sg55
I0
sS'pitcher.n.02'
p159
I0
sg146
I0
sg49
I0
sg50
I3
sS'plate.n.04'
p160
I0
sg147
I0
sg53
I0
sg148
I0
sS'whipped_cream.n.01'
p161
I0
sg63
I0
sg149
I0
sg48
I0
sg150
I0
sg151
I0
sS'put.v.01'
p162
I0
sg152
I0
sg46
I0
sS'cake.n.03'
p163
I0
sg51
I0
sg52
I0
ssg47
(dp164
g58
I0
sg56
I0
sg62
I0
sg47
I3
sg141
I0
sg142
I0
sg143
I0
sg144
I0
sg145
I0
sg146
I0
sg49
I0
sg50
I0
sg57
I0
sg147
I0
sg148
I0
sg60
I0
sg63
I0
sg149
I0
sg48
I0
sg150
I0
sg151
I0
sg119
I0
sg152
I0
sg46
I0
sg59
I0
sg122
I0
sg51
I0
sg52
I0
ssg21
(dp165
S'cheese.n.01'
p166
I0
sg22
I0
sS'batter.n.02'
p167
I0
sS'cabbage.n.01'
p168
I0
sg21
I2
sg44
I1
sg10
I0
sg11
I0
sg17
I0
sS'gap.n.03'
p169
I0
sg9
I0
sg19
I0
sg18
I0
sg8
I0
sg55
I0
sg20
I0
sg16
I0
sg23
I0
sg24
I0
sS'pepper.n.04'
p170
I0
sg53
I0
sg54
I0
sg45
I0
sg13
I0
sS'opening.n.01'
p171
I0
sg25
I0
sg14
I0
sg12
I0
sg15
I0
sS'onion.n.03'
p172
I0
sS'onion.n.01'
p173
I0
sg26
I0
ssg44
(dp174
S'slice.v.03'
p175
I0
sS'cut.v.01'
p176
I0
sS'knife.n.01'
p177
I0
sg169
I0
sS'flesh.n.01'
p178
I0
sS'fill.v.09'
p179
I0
sg97
I0
sg98
I0
sS'fill.v.01'
p180
I0
sg166
I0
sg100
I0
sg45
I0
sg167
I0
sS'bread.n.01'
p181
I0
sg91
I0
sg44
I0
sg171
I0
ssg10
(dp182
g22
I0
sg50
I0
sg47
I0
sg21
I0
sg10
I0
sg11
I2
sg17
I0
sg54
I1
sg9
I0
sg19
I0
sg18
I0
sg8
I0
sg55
I0
sg20
I0
sg16
I0
sg49
I0
sg23
I0
sg24
I0
sg147
I0
sg53
I0
sg148
I0
sg13
I0
sg48
I0
sg25
I0
sg14
I0
sg12
I0
sg15
I0
sg46
I0
sg52
I0
sg51
I0
sg26
I0
ssg11
(dp183
g61
I0
sg42
I0
sg58
I0
sg28
I0
sg34
I0
sg49
I0
sg22
I0
sg41
I0
sg50
I0
sg47
I0
sg21
I0
sg10
I0
sg11
I6
sg17
I0
sg40
I0
sg9
I0
sg36
I0
sg37
I0
sg56
I0
sg19
I0
sg18
I0
sg8
I0
sg20
I0
sg30
I0
sg31
I0
sg16
I0
sg35
I0
sg23
I0
sg29
I0
sg24
I0
sg57
I0
sg43
I0
sg32
I0
sg60
I0
sg33
I0
sg13
I0
sg39
I0
sg48
I0
sg25
I0
sg14
I0
sg12
I0
sg27
I0
sg15
I0
sg46
I0
sg59
I0
sg52
I0
sg38
I0
sg51
I0
sg26
I0
ssg17
(dp184
g61
I0
sg42
I0
sg58
I0
sg28
I0
sg34
I0
sg49
I0
sg22
I0
sg41
I0
sg50
I0
sg47
I0
sg21
I0
sg44
I0
sg10
I0
sg11
I0
sg17
I15
sg40
I0
sg9
I0
sg36
I0
sg37
I0
sg56
I0
sg19
I0
sg18
I0
sg8
I0
sg55
I0
sg20
I0
sg30
I0
sg31
I0
sg16
I0
sg35
I0
sg23
I0
sg29
I0
sg24
I0
sg57
I0
sg43
I0
sg53
I0
sg32
I0
sg54
I0
sg45
I0
sg60
I0
sg63
I0
sg33
I0
sg13
I0
sg62
I0
sg39
I0
sg48
I0
sg25
I0
sg14
I0
sg12
I0
sg27
I0
sg15
I0
sg46
I0
sg59
I0
sg52
I0
sg38
I0
sg51
I0
sg26
I0
ssg40
(dp185
g42
I0
sg88
I0
sg103
I0
sg90
I0
sg41
I0
sg91
I0
sg44
I0
sg92
I0
sg93
I0
sg40
I0
sg94
I0
sg95
I0
sg96
I0
sg97
I0
sg98
I0
sg99
I0
sg100
I0
sg101
I0
sg102
I0
sg89
I0
sg104
I0
sg105
I0
sg106
I0
sg107
I0
sg43
I0
sg108
I0
sg45
I0
sg39
I0
sg109
I0
sg110
I0
sg111
I0
ssg9
(dp186
g42
I0
sg58
I0
sg88
I0
sg103
I0
sg49
I0
sg22
I0
sg41
I0
sg50
I0
sg47
I0
sg21
I0
sg44
I0
sg10
I0
sg11
I0
sg17
I0
sg40
I0
sg9
I0
sg95
I0
sg96
I0
sg56
I0
sg19
I0
sg18
I0
sg8
I3
sg20
I0
sg101
I0
sg102
I0
sg16
I0
sg104
I0
sg23
I0
sg106
I0
sg24
I0
sg57
I0
sg43
I0
sg108
I0
sg45
I0
sg60
I0
sg13
I0
sg39
I0
sg48
I0
sg25
I0
sg14
I0
sg12
I0
sg110
I0
sg15
I0
sg46
I0
sg59
I0
sg52
I0
sg122
I0
sg51
I0
sg26
I0
ssg36
(dp187
g61
I0
sg134
I0
sg28
I0
sg34
I0
sg135
I0
sg127
I0
sg128
I0
sg136
I0
sg137
I0
sg36
I0
sg37
I3
sg71
I0
sg138
I0
sg33
I0
sg30
I0
sg31
I0
sg129
I0
sg35
I0
sg130
I0
sg29
I0
sg131
I0
sg72
I0
sg43
I0
sg32
I0
sg78
I0
sg139
I0
sg27
I0
sg132
I0
sg79
I0
sg38
I0
sg83
I0
sg85
I0
ssg37
(dp188
g61
I0
sg134
I0
sg28
I0
sg34
I0
sg135
I0
sg127
I0
sg128
I0
sg136
I0
sg137
I0
sg36
I0
sg37
I0
sg71
I0
sg138
I0
sg33
I0
sg30
I0
sg31
I0
sg129
I0
sg35
I0
sg130
I0
sg29
I0
sg131
I0
sg72
I0
sg43
I0
sg32
I0
sg78
I0
sg139
I0
sg27
I0
sg132
I0
sg79
I0
sg38
I0
sg83
I0
sg85
I0
ssg56
(dp189
g61
I0
sg58
I0
sg56
I3
sg69
I0
sS'cabbage.n.01'
p190
I0
sg121
I0
sg118
I0
sg115
I0
sg116
I0
sg82
I0
sg74
I0
sg124
I0
sg80
I0
sg86
I0
sg68
I0
sg117
I0
sg62
I0
sg57
I0
sg73
I0
sg76
I0
sg60
I0
sg63
I0
sg114
I0
sg113
I0
sg119
I0
sg120
I0
sg123
I0
sg59
I0
sg122
I0
sS'slice.v.03'
p191
I0
sg125
I0
sg85
I0
ssg19
(dp192
g166
I0
sg22
I0
sg167
I0
sg21
I0
sg44
I0
sg10
I0
sg11
I0
sg17
I0
sg169
I0
sg9
I0
sg19
I0
sg18
I0
sg8
I0
sg20
I0
sg16
I0
sg23
I0
sg24
I0
sg45
I0
sg13
I0
sg171
I0
sg25
I0
sg14
I0
sg12
I0
sg15
I0
sg26
I0
ssg18
(dp193
g166
I0
sg22
I0
sg167
I0
sg168
I0
sg21
I0
sg44
I0
sg10
I0
sg11
I0
sg17
I0
sg169
I0
sg9
I0
sg19
I2
sg18
I1
sg8
I0
sg55
I0
sg20
I0
sg16
I0
sg23
I0
sg24
I0
sg170
I0
sg53
I0
sg54
I0
sg45
I0
sg13
I0
sg171
I0
sg25
I0
sg14
I0
sg12
I0
sg15
I0
sg172
I0
sg173
I0
sg26
I0
ssg8
(dp194
g42
I0
sg58
I0
sg88
I0
sg103
I0
sg49
I0
sg22
I0
sg41
I0
sg50
I0
sg47
I0
sg21
I0
sg44
I0
sg10
I0
sg11
I0
sg17
I0
sg40
I0
sg9
I4
sg95
I0
sg96
I0
sg56
I0
sg19
I0
sg18
I0
sg8
I8
sg55
I0
sg20
I0
sg101
I0
sg102
I0
sg16
I0
sg104
I0
sg23
I0
sg106
I0
sg24
I0
sg57
I0
sg43
I0
sg53
I0
sg108
I0
sg54
I0
sg45
I0
sg60
I0
sg63
I0
sg13
I0
sg62
I0
sg39
I0
sg48
I0
sg25
I0
sg14
I0
sg12
I0
sg110
I0
sg15
I0
sg46
I0
sg59
I0
sg52
I0
sg122
I0
sg51
I0
sg26
I0
ssg55
(dp195
S'pan.n.01'
p196
I0
sS'slice.v.03'
p197
I0
sS'cut.v.01'
p198
I0
sg168
I0
sg54
I0
sg157
I0
sg170
I0
sg53
I0
sS'water.n.06'
p199
I0
sg158
I0
sS'fill.v.01'
p200
I0
sg55
I0
sg159
I0
sS'piece.n.08'
p201
I0
sS'pizza.n.01'
p202
I0
sg173
I0
sS'slice.n.06'
p203
I0
sg172
I0
ssg20
(dp204
g166
I0
sg22
I0
sg167
I0
sg168
I0
sg21
I0
sg44
I0
sg10
I0
sg11
I0
sg17
I0
sg169
I0
sg9
I0
sg19
I0
sg18
I0
sg8
I0
sg55
I1
sg20
I2
sg16
I0
sg23
I0
sg24
I0
sg170
I0
sg53
I0
sg54
I0
sg45
I0
sg13
I0
sg171
I0
sg25
I0
sg14
I0
sg12
I0
sg15
I0
sg172
I0
sg173
I0
sg26
I0
ssg30
(dp205
g61
I0
sg134
I0
sg28
I0
sg34
I0
sg135
I0
sg127
I0
sg128
I0
sg136
I0
sg137
I0
sg36
I0
sg37
I0
sg71
I0
sg138
I0
sg33
I0
sg30
I3
sg31
I0
sg129
I0
sg35
I0
sg130
I0
sg29
I0
sg131
I0
sg72
I0
sg43
I0
sg32
I0
sg78
I0
sg139
I0
sg27
I0
sg132
I0
sg79
I0
sg38
I0
sg83
I0
sg85
I0
ssg31
(dp206
g61
I0
sg134
I0
sg28
I0
sg34
I0
sg135
I0
sg127
I0
sg128
I0
sg136
I0
sg137
I0
sg36
I0
sg37
I0
sg71
I0
sg138
I0
sg33
I0
sg31
I3
sg30
I0
sg129
I0
sg35
I0
sg130
I0
sg29
I0
sg131
I0
sg72
I0
sg43
I0
sg32
I0
sg78
I0
sg139
I0
sg27
I0
sg132
I0
sg79
I0
sg38
I0
sg83
I0
sg85
I0
ssg16
(dp207
g42
I0
sg28
I0
sg34
I0
sg49
I0
sg22
I0
sg41
I0
sg50
I0
sg47
I0
sg21
I0
sg44
I0
sg10
I0
sg11
I0
sg17
I0
sg40
I0
sg9
I0
sg36
I0
sg37
I0
sg156
I0
sg19
I0
sg18
I0
sg8
I0
sg55
I0
sg20
I0
sg30
I0
sg31
I0
sg16
I15
sg35
I0
sg23
I0
sg29
I0
sg24
I0
sg160
I0
sg43
I0
sg53
I0
sg32
I0
sg54
I0
sg45
I0
sg161
I0
sg63
I0
sg33
I0
sg13
I0
sg62
I0
sg39
I0
sg48
I0
sg25
I0
sg14
I0
sg12
I0
sg27
I0
sg15
I0
sg46
I0
sg163
I0
sg52
I0
sg38
I0
sg51
I0
sg26
I0
ssg35
(dp208
g61
I0
sg134
I0
sg28
I0
sg34
I0
sg135
I0
sg127
I0
sg128
I0
sg136
I0
sg137
I0
sg36
I0
sg37
I0
sg71
I0
sg138
I0
sg33
I0
sg30
I0
sg31
I0
sg129
I0
sg35
I0
sg130
I0
sg29
I0
sg131
I0
sg72
I0
sg43
I0
sg32
I0
sg78
I0
sg139
I0
sg27
I0
sg132
I0
sg79
I0
sg38
I0
sg83
I0
sg85
I0
ssg23
(dp209
g42
I0
sg28
I0
sg34
I0
sg22
I0
sg41
I0
sg21
I0
sg44
I0
sg10
I0
sg11
I0
sg17
I0
sg40
I0
sg9
I0
sg36
I0
sg37
I0
sg19
I0
sg18
I0
sg8
I0
sg20
I0
sg30
I0
sg31
I0
sg16
I0
sg35
I0
sg23
I1
sg29
I0
sg24
I5
sg43
I0
sg32
I0
sg45
I0
sg33
I0
sg13
I0
sg39
I0
sg25
I0
sg14
I0
sg12
I0
sg27
I0
sg15
I0
sg38
I0
sg26
I0
ssg29
(dp210
g42
I0
sg28
I0
sg34
I0
sg90
I0
sg41
I0
sg127
I0
sg128
I0
sg40
I0
sg94
I0
sg36
I0
sg37
I0
sg99
I0
sg33
I0
sg30
I0
sg31
I0
sg129
I0
sg35
I0
sg130
I0
sg29
I3
sg131
I0
sg43
I0
sg32
I0
sg39
I0
sg109
I0
sg27
I0
sg132
I0
sg38
I0
sg111
I0
ssg24
(dp211
g42
I0
sg28
I0
sg34
I0
sg22
I0
sg41
I0
sg21
I0
sg10
I0
sg11
I0
sg17
I0
sg40
I0
sg9
I0
sg36
I0
sg37
I0
sg19
I0
sg18
I0
sg8
I0
sg20
I0
sg30
I0
sg31
I0
sg16
I0
sg35
I0
sg23
I0
sg29
I0
sg24
I0
sg43
I0
sg32
I0
sg33
I0
sg13
I0
sg39
I0
sg25
I0
sg14
I0
sg12
I0
sg27
I0
sg15
I0
sg38
I0
sg26
I0
ssg57
(dp212
g61
I1
sg58
I1
sg56
I0
sg69
I0
sg190
I0
sg121
I0
sg118
I0
sg115
I0
sg116
I0
sg82
I0
sg74
I0
sg124
I0
sg80
I0
sg86
I0
sg68
I0
sg117
I0
sg62
I1
sg57
I0
sg73
I0
sg76
I0
sg60
I0
sg63
I0
sg114
I0
sg113
I0
sg119
I0
sg120
I0
sg123
I0
sg59
I0
sg122
I0
sg191
I0
sg125
I0
sg85
I0
ssg43
(dp213
g61
I0
sg134
I0
sS'chicken.n.01'
p214
I0
sg103
I0
sg49
I0
sg135
I0
sg50
I0
sg47
I0
sg157
I0
sg141
I0
sS'pan.n.03'
p215
I0
sS'cut.v.01'
p216
I0
sg136
I0
sg137
I0
sg95
I0
sg96
I0
sg71
I0
sg158
I0
sg138
I0
sg55
I0
sg159
I0
sg102
I0
sg101
I0
sS'slice.v.03'
p217
I0
sg104
I0
sS'knife.n.01'
p218
I0
sS'banana.n.02'
p219
I0
sS'knife.n.02'
p220
I0
sg72
I0
sg43
I0
sg53
I1
sg108
I2
sg54
I0
sg78
I0
sg63
I0
sg149
I0
sg62
I0
sg139
I0
sg48
I0
sg150
I0
sg151
I0
sS'put.v.01'
p221
I0
sg152
I0
sg46
I0
sg79
I0
sg81
I0
sg51
I0
sg52
I0
ssg53
(dp222
g196
I0
sg197
I0
sg198
I0
sg168
I0
sg54
I0
sg157
I0
sg170
I0
sg53
I0
sg199
I0
sg158
I0
sg200
I0
sg55
I0
sg159
I0
sg201
I0
sg202
I0
sg173
I0
sg203
I0
sg172
I0
ssg32
(dp223
g61
I0
sg134
I0
sg28
I0
sg34
I0
sg49
I0
sg135
I0
sg50
I0
sg47
I0
sg141
I0
sg127
I0
sg128
I0
sg136
I0
sg137
I0
sg36
I0
sg37
I0
sg71
I0
sg138
I0
sg33
I1
sg31
I0
sg30
I0
sg129
I0
sg35
I0
sg130
I0
sg29
I0
sg131
I0
sg72
I0
sg43
I2
sg32
I0
sg78
I0
sg63
I0
sg149
I0
sg62
I0
sg139
I0
sg48
I0
sg150
I0
sg151
I0
sg27
I0
sg132
I0
sg46
I0
sg79
I0
sg38
I0
sg51
I0
sg52
I0
ssg54
(dp224
g196
I0
sg197
I0
sg198
I0
sg168
I0
sg54
I0
sg157
I0
sg170
I0
sg53
I0
sg199
I0
sg158
I0
sg200
I0
sg55
I0
sg159
I0
sg201
I0
sg202
I0
sg173
I0
sg203
I0
sg172
I0
ssg45
(dp225
g175
I0
sg176
I0
sg177
I0
sg169
I0
sg178
I0
sg179
I0
sg97
I0
sg98
I0
sg180
I0
sg166
I0
sg100
I0
sg45
I0
sg167
I0
sg181
I0
sg91
I0
sg44
I0
sg171
I0
ssg60
(dp226
g61
I0
sg58
I0
sg56
I0
sg69
I0
sg190
I0
sg121
I0
sg118
I0
sg115
I0
sg116
I0
sg82
I0
sg74
I0
sg124
I0
sg80
I0
sg86
I0
sg68
I0
sg117
I0
sg62
I0
sg57
I0
sg73
I0
sg76
I0
sg60
I3
sg63
I0
sg114
I0
sg113
I0
sg119
I0
sg120
I0
sg123
I0
sg59
I0
sg122
I0
sg191
I0
sg125
I0
sg85
I0
ssg63
(dp227
S'mug.n.04'
p228
I0
sS'chump.n.01'
p229
I0
sS'foam.n.01'
p230
I0
sg62
I0
sg156
I0
sg160
I0
sS'pepper.n.04'
p231
I0
sS'water.n.06'
p232
I0
sg162
I0
sg63
I0
sg161
I0
sg163
I0
sS'pepper.n.03'
p233
I0
sS'cut.v.01'
p234
I0
sS'kettle.n.01'
p235
I0
sg190
I0
sg191
I0
sS'fill.v.01'
p236
I0
sS'onion.n.01'
p237
I0
sS'onion.n.03'
p238
I0
ssg33
(dp239
g129
I0
sg127
I0
sg128
I0
sg130
I0
sg29
I0
sg131
I0
sg36
I0
sg37
I0
sg35
I0
sg27
I0
sg132
I0
sg32
I0
sg33
I0
sg30
I0
sg38
I0
sg28
I0
sg34
I0
sg31
I0
ssg13
(dp240
g22
I0
sg50
I0
sg47
I0
sg21
I0
sg10
I0
sg11
I0
sg17
I0
sg54
I0
sg9
I0
sg19
I0
sg18
I0
sg8
I0
sg55
I0
sg20
I0
sg16
I0
sg49
I0
sg23
I0
sg24
I0
sg147
I0
sg53
I0
sg148
I0
sg13
I0
sg48
I0
sg25
I0
sg14
I3
sg12
I0
sg15
I0
sg46
I0
sg52
I0
sg51
I0
sg26
I0
ssg62
(dp241
g228
I0
sg229
I0
sg230
I0
sg62
I0
sg156
I0
sg160
I0
sg231
I0
sg232
I0
sg162
I0
sg63
I0
sg161
I0
sg163
I0
sg233
I0
sg234
I0
sg235
I0
sg190
I0
sg191
I0
sg236
I0
sg237
I0
sg238
I0
ssg39
(dp242
g42
I0
sg88
I0
sg103
I0
sg90
I0
sg41
I0
sg91
I0
sg44
I0
sg92
I0
sg93
I0
sg40
I3
sg94
I0
sg95
I0
sg96
I0
sg97
I0
sg98
I0
sg99
I0
sg100
I0
sg101
I0
sg102
I0
sg89
I0
sg104
I0
sg105
I0
sg106
I0
sg107
I0
sg43
I0
sg108
I0
sg45
I0
sg39
I0
sg109
I0
sg110
I0
sg111
I0
ssg48
(dp243
g58
I0
sg56
I0
sg62
I0
sg47
I0
sg141
I0
sg142
I0
sg143
I0
sg144
I0
sg145
I0
sg146
I0
sg49
I3
sg50
I0
sg57
I0
sg147
I0
sg148
I0
sg60
I0
sg63
I0
sg149
I0
sg48
I0
sg150
I0
sg151
I0
sg119
I0
sg152
I0
sg46
I0
sg59
I0
sg122
I0
sg51
I0
sg52
I0
ssg25
(dp244
g42
I0
sg88
I0
sg22
I0
sg41
I0
sg21
I0
sg44
I0
sg10
I0
sg11
I0
sg17
I0
sg40
I0
sg9
I0
sg19
I0
sg18
I0
sg8
I0
sg20
I0
sg16
I0
sg23
I0
sg106
I0
sg24
I0
sg45
I1
sg13
I0
sg39
I0
sg25
I0
sg14
I0
sg12
I0
sg110
I0
sg15
I0
sg26
I2
ssg14
(dp245
g22
I0
sg50
I0
sg47
I0
sg21
I0
sg10
I0
sg11
I0
sg17
I0
sg54
I0
sg9
I0
sg19
I0
sg18
I0
sg8
I0
sg55
I0
sg20
I0
sg16
I0
sg49
I0
sg23
I0
sg24
I0
sg147
I0
sg53
I0
sg148
I0
sg13
I0
sg48
I0
sg25
I0
sg14
I0
sg12
I0
sg15
I0
sg46
I0
sg52
I0
sg51
I0
sg26
I0
ssg12
(dp246
g58
I0
sg56
I0
sg22
I0
sg50
I0
sg47
I0
sg21
I0
sg10
I0
sg11
I0
sg17
I0
sg54
I0
sg9
I0
sg19
I0
sg18
I0
sg8
I0
sg55
I0
sg20
I0
sg16
I0
sg49
I0
sg23
I0
sg24
I0
sg57
I0
sg147
I0
sg53
I0
sg148
I0
sg60
I0
sg63
I0
sg13
I0
sg62
I0
sg48
I0
sg25
I0
sg14
I0
sg12
I6
sg119
I0
sg15
I0
sg46
I0
sg59
I0
sg52
I0
sg122
I0
sg51
I0
sg26
I0
ssg27
(dp247
g61
I0
sg42
I0
sg58
I0
sg28
I0
sg34
I0
sg117
I0
sg90
I0
sg41
I0
sg62
I0
sg121
I0
sg127
I0
sg128
I0
sg40
I0
sg94
I0
sg190
I0
sg36
I0
sg37
I0
sg56
I0
sg99
I0
sg33
I0
sg30
I0
sg31
I0
sg129
I0
sg35
I0
sg130
I0
sg29
I0
sg131
I0
sg57
I0
sg43
I0
sg32
I0
sg60
I0
sg63
I0
sg39
I0
sg114
I0
sg109
I0
sg113
I0
sg27
I15
sg132
I0
sg123
I0
sg59
I0
sg85
I0
sg38
I0
sg125
I0
sg111
I0
ssg15
(dp248
g61
I0
sg58
I0
sg28
I0
sg34
I0
sg49
I0
sg22
I0
sg50
I0
sg47
I0
sg21
I0
sg10
I0
sg11
I0
sg17
I0
sg54
I0
sg9
I0
sg36
I0
sg37
I0
sg56
I0
sg19
I0
sg18
I0
sg8
I0
sg55
I0
sg20
I0
sg30
I0
sg31
I0
sg16
I0
sg35
I0
sg23
I0
sg29
I0
sg24
I0
sg57
I0
sg147
I0
sg53
I0
sg32
I0
sg60
I0
sg33
I0
sg13
I0
sg48
I0
sg25
I0
sg14
I0
sg12
I0
sg27
I0
sg15
I6
sg46
I0
sg59
I0
sg52
I0
sg38
I0
sg51
I0
sg26
I0
ssg46
(dp249
g58
I0
sg56
I0
sg62
I0
sg47
I0
sg141
I0
sg142
I0
sg143
I0
sg144
I0
sg145
I0
sg146
I0
sg49
I0
sg50
I0
sg57
I0
sg147
I0
sg148
I0
sg60
I0
sg63
I0
sg149
I0
sg48
I0
sg150
I0
sg151
I0
sg119
I0
sg152
I0
sg46
I3
sg59
I0
sg122
I0
sg51
I0
sg52
I0
ssg59
(dp250
g61
I0
sg58
I0
sg56
I0
sg69
I0
sg190
I0
sg121
I0
sg118
I0
sg115
I0
sg116
I0
sg82
I0
sg74
I0
sg124
I0
sg80
I0
sg86
I0
sg68
I0
sg117
I0
sg62
I0
sg57
I0
sg73
I0
sg76
I0
sg60
I0
sg63
I1
sg114
I0
sg113
I0
sg119
I0
sg120
I0
sg123
I0
sg59
I2
sg122
I0
sg191
I0
sg125
I0
sg85
I0
ssg52
(dp251
g61
I0
sg68
I0
sg69
I0
sg62
I0
sg47
I0
sg157
I0
sg141
I0
sg142
I0
sg143
I0
sg54
I0
sg144
I0
sg82
I0
sg74
I0
sg71
I0
sg158
I0
sg145
I0
sg55
I0
sg159
I0
sg80
I0
sg86
I0
sg146
I0
sg49
I0
sg50
I0
sg72
I0
sg147
I0
sg53
I0
sg148
I0
sg78
I0
sg63
I0
sg149
I0
sg48
I0
sg150
I0
sg151
I0
sg84
I0
sg152
I0
sg46
I0
sg79
I0
sg81
I0
sg51
I0
sg52
I0
ssg38
(dp252
g61
I0
sg58
I0
sg28
I0
sg56
I0
sg117
I0
sg121
I0
sg127
I0
sg128
I0
sg116
I0
sg36
I0
sg37
I0
sg124
I0
sg33
I0
sg30
I0
sg34
I0
sg31
I0
sg129
I0
sg35
I0
sg130
I0
sg29
I0
sg131
I0
sg57
I0
sg73
I0
sg32
I0
sg60
I0
sg114
I0
sg113
I0
sg27
I0
sg132
I0
sg123
I0
sg59
I0
sg38
I3
sg125
I0
sg85
I0
ssg51
(dp253
g61
I0
sg58
I0
sg56
I0
sg69
I0
sg62
I0
sg47
I0
sg157
I0
sg141
I0
sg142
I0
sg143
I0
sg54
I0
sg144
I0
sg82
I0
sg74
I0
sg158
I0
sg145
I0
sg55
I0
sg159
I0
sg80
I0
sg68
I0
sg86
I0
sg146
I0
sg49
I0
sg50
I0
sg57
I0
sg147
I0
sg53
I0
sg148
I0
sg60
I0
sg63
I0
sg149
I0
sg48
I0
sg150
I0
sg151
I0
sg119
I0
sg152
I0
sg46
I0
sg59
I0
sg122
I0
sg51
I2
sg52
I4
ssg26
(dp254
g42
I0
sg88
I0
sg22
I0
sg41
I0
sg21
I0
sg10
I0
sg11
I0
sg17
I0
sg40
I0
sg9
I0
sg19
I0
sg18
I0
sg8
I0
sg20
I0
sg16
I0
sg23
I0
sg106
I0
sg24
I0
sg13
I0
sg39
I0
sg25
I0
sg14
I0
sg12
I0
sg110
I0
sg15
I0
sg26
I0
sssb.