ccopy_reg
_reconstructor
p0
(cutils.eval
ConfusionMatrix
p1
c__builtin__
object
p2
Ntp3
Rp4
(dp5
S'labels'
p6
(lp7
S'cut.v.01'
p8
aS'lemon.n.01'
p9
aS'put.v.01'
p10
aS'pan.n.03'
p11
aS'pizza.n.01'
p12
aS'onion.n.01'
p13
aS'beef.n.02'
p14
aS'plate.n.04'
p15
aS'plate.n.11'
p16
aS'cake.n.03'
p17
aS'whipped_cream.n.01'
p18
aS'fill.v.01'
p19
aS'kettle.n.01'
p20
aS'water.n.06'
p21
aS'fill.v.09'
p22
aS'foam.n.01'
p23
aS'mug.n.04'
p24
aS'chump.n.01'
p25
asS'instanceCount'
p26
I18
sS'matrix'
p27
(dp28
g21
(dp29
S'water.n.06'
p30
I1
ssg24
(dp31
g25
I1
ssg11
(dp32
S'pan.n.03'
p33
I1
ssg8
(dp34
S'cut.v.01'
p35
I1
ssg14
(dp36
S'beef.n.02'
p37
I1
ssg15
(dp38
g16
I1
ssg22
(dp39
g22
I0
ssg25
(dp40
g25
I0
ssg16
(dp41
g16
I0
ssg10
(dp42
S'put.v.01'
p43
I3
ssg12
(dp44
S'pizza.n.01'
p45
I1
ssg23
(dp46
S'foam.n.01'
p47
I1
ssg18
(dp48
S'whipped_cream.n.01'
p49
I1
ssg17
(dp50
S'cake.n.03'
p51
I1
ssg9
(dp52
S'lemon.n.01'
p53
I1
ssg20
(dp54
S'kettle.n.01'
p55
I1
ssg19
(dp56
g22
I1
sS'fill.v.01'
p57
I1
ssg13
(dp58
S'onion.n.01'
p59
I1
sssb.