ccopy_reg
_reconstructor
p0
(cutils.eval
ConfusionMatrix
p1
c__builtin__
object
p2
Ntp3
Rp4
(dp5
S'labels'
p6
(lp7
S'fill.v.01'
p8
aS'fill.v.09'
p9
aS'pan.n.01'
p10
aS'pan.n.03'
p11
aS'water.n.06'
p12
aS'piece.n.08'
p13
aS'slice.n.06'
p14
aS'pizza.n.01'
p15
aS'slice.v.03'
p16
aS'cut.v.01'
p17
aS'bacon.n.01'
p18
aS'bacon.n.02'
p19
aS'pitcher.n.02'
p20
aS'milk.n.01'
p21
aS'bread.n.01'
p22
aS'knife.n.01'
p23
aS'knife.n.02'
p24
aS'flesh.n.01'
p25
aS'pulp.n.02'
p26
asS'instanceCount'
p27
I16
sS'matrix'
p28
(dp29
g10
(dp30
g11
I1
ssg16
(dp31
S'slice.v.03'
p32
I2
ssg11
(dp33
g11
I0
ssg17
(dp34
S'cut.v.01'
p35
I2
ssg22
(dp36
S'bread.n.01'
p37
I1
ssg25
(dp38
g26
I1
ssg9
(dp39
g9
I0
ssg19
(dp40
g19
I0
ssg24
(dp41
g24
I0
ssg14
(dp42
g14
I0
ssg12
(dp43
S'water.n.06'
p44
I1
ssg18
(dp45
g19
I1
ssg8
(dp46
g9
I2
ssg20
(dp47
S'pitcher.n.02'
p48
I1
ssg23
(dp49
g24
I1
ssg13
(dp50
g14
I1
ssg15
(dp51
S'pizza.n.01'
p52
I1
ssg21
(dp53
S'milk.n.01'
p54
I1
ssg26
(dp55
g26
I0
sssb.