ccopy_reg
_reconstructor
p0
(cutils.eval
ConfusionMatrix
p1
c__builtin__
object
p2
Ntp3
Rp4
(dp5
S'labels'
p6
(lp7
S'put.v.01'
p8
aS'onion.n.01'
p9
aS'beef.n.02'
p10
aS'plate.n.04'
p11
aS'plate.n.08'
p12
aS'cake.n.03'
p13
aS'patty.n.01'
p14
aS'whipped_cream.n.01'
p15
aS'fill.v.01'
p16
aS'kettle.n.01'
p17
aS'water.n.06'
p18
aS'foam.n.01'
p19
aS'mug.n.04'
p20
aS'chump.n.01'
p21
aS'cabbage.n.01'
p22
aS'cut.v.01'
p23
aS'slice.v.03'
p24
aS'onion.n.03'
p25
aS'pepper.n.04'
p26
aS'pepper.n.03'
p27
asS'instanceCount'
p28
I18
sS'matrix'
p29
(dp30
g20
(dp31
g21
I1
ssg21
(dp32
g21
I0
ssg19
(dp33
S'foam.n.01'
p34
I1
ssg12
(dp35
g12
I0
ssg10
(dp36
S'beef.n.02'
p37
I1
ssg11
(dp38
g12
I1
ssg26
(dp39
g27
I1
ssg18
(dp40
S'water.n.06'
p41
I1
ssg8
(dp42
S'put.v.01'
p43
I2
ssg14
(dp44
g14
I0
ssg15
(dp45
S'whipped_cream.n.01'
p46
I1
ssg13
(dp47
g14
I1
ssg27
(dp48
g27
I0
ssg23
(dp49
S'cut.v.01'
p50
I1
ssg17
(dp51
S'kettle.n.01'
p52
I1
ssg22
(dp53
S'cabbage.n.01'
p54
I1
ssg24
(dp55
S'slice.v.03'
p56
I1
ssg16
(dp57
S'fill.v.01'
p58
I2
ssg9
(dp59
S'onion.n.01'
p60
I1
sg25
I1
ssg25
(dp61
g25
I0
sssb.