ccopy_reg
_reconstructor
p0
(cutils.eval
ConfusionMatrix
p1
c__builtin__
object
p2
Ntp3
Rp4
(dp5
S'labels'
p6
(lp7
S'cut.v.01'
p8
aS'bread.n.01'
p9
aS'knife.n.01'
p10
aS'knife.n.02'
p11
aS'flesh.n.01'
p12
aS'pulp.n.02'
p13
aS'slice.v.03'
p14
aS'opening.n.01'
p15
aS'gap.n.03'
p16
aS'fill.v.09'
p17
aS'fill.v.01'
p18
aS'batter.n.02'
p19
aS'cheese.n.01'
p20
aS'put.v.01'
p21
aS'pan.n.03'
p22
aS'chicken.n.01'
p23
aS'banana.n.02'
p24
asS'instanceCount'
p25
I16
sS'matrix'
p26
(dp27
g14
(dp28
S'slice.v.03'
p29
I3
ssg22
(dp30
S'pan.n.03'
p31
I1
ssg8
(dp32
S'cut.v.01'
p33
I1
ssg10
(dp34
g11
I2
ssg16
(dp35
g16
I0
ssg24
(dp36
S'banana.n.02'
p37
I1
ssg12
(dp38
g13
I1
ssg11
(dp39
g11
I0
ssg21
(dp40
S'put.v.01'
p41
I1
ssg9
(dp42
S'bread.n.01'
p43
I1
ssg20
(dp44
S'cheese.n.01'
p45
I1
ssg17
(dp46
g18
I1
ssg19
(dp47
S'batter.n.02'
p48
I1
ssg23
(dp49
S'chicken.n.01'
p50
I1
ssg18
(dp51
g18
I0
ssg13
(dp52
g13
I0
ssg15
(dp53
g16
I1
sssb.