ccopy_reg
_reconstructor
p0
(cutils.eval
ConfusionMatrix
p1
c__builtin__
object
p2
Ntp3
Rp4
(dp5
S'labels'
p6
(lp7
S'cut.v.01'
p8
aS'swerve.v.01'
p9
aS'meat.n.01'
p10
aS'kernel.n.01'
p11
aS'cleaver.n.01'
p12
asS'instanceCount'
p13
I3
sS'matrix'
p14
(dp15
g11
(dp16
g11
I0
ssg8
(dp17
g9
I1
ssg9
(dp18
g9
I0
ssg10
(dp19
g11
I1
ssg12
(dp20
S'cleaver.n.01'
p21
I1
sssb.