ccopy_reg
_reconstructor
p0
(cutils.eval
ConfusionMatrix
p1
c__builtin__
object
p2
Ntp3
Rp4
(dp5
S'labels'
p6
(lp7
S'cut.v.01'
p8
aS'swerve.v.01'
p9
aS'bread.n.01'
p10
aS'knife.n.01'
p11
asS'instanceCount'
p12
I3
sS'matrix'
p13
(dp14
g11
(dp15
S'knife.n.01'
p16
I1
ssg8
(dp17
g9
I1
ssg9
(dp18
g9
I0
ssg10
(dp19
S'bread.n.01'
p20
I1
sssb.