ccopy_reg
_reconstructor
p0
(cutils.eval
ConfusionMatrix
p1
c__builtin__
object
p2
Ntp3
Rp4
(dp5
S'labels'
p6
(lp7
S'fill.v.01'
p8
aS'measuring_cup.n.01'
p9
aS'meal.n.03'
p10
aS'opening.n.01'
p11
aS'opening.n.10'
p12
aS'fill.v.09'
p13
aS'curd.n.01'
p14
aS'kettle.n.01'
p15
aS'water.n.06'
p16
aS'pitcher.n.02'
p17
aS'milk.n.01'
p18
aS'jar.n.01'
p19
aS'bottle.n.01'
p20
aS'fruit_juice.n.01'
p21
aS'pot.n.01'
p22
aS'ice.n.01'
p23
aS'ice.n.05'
p24
aS'bowl.n.01'
p25
asS'instanceCount'
p26
I23
sS'matrix'
p27
(dp28
g21
(dp29
S'fruit_juice.n.01'
p30
I1
ssg13
(dp31
S'fill.v.01'
p32
I1
ssg20
(dp33
S'bottle.n.01'
p34
I1
ssg22
(dp35
S'pot.n.01'
p36
I1
ssg16
(dp37
S'water.n.06'
p38
I2
ssg8
(dp39
S'fill.v.01'
p40
I7
ssg23
(dp41
g24
I1
ssg17
(dp42
S'pitcher.n.02'
p43
I1
ssg25
(dp44
S'bowl.n.01'
p45
I1
ssg15
(dp46
S'kettle.n.01'
p47
I1
ssg24
(dp48
g24
I0
ssg9
(dp49
S'measuring_cup.n.01'
p50
I1
ssg14
(dp51
S'curd.n.01'
p52
I1
ssg12
(dp53
g12
I0
ssg19
(dp54
S'jar.n.01'
p55
I1
ssg10
(dp56
S'meal.n.03'
p57
I1
ssg18
(dp58
S'milk.n.01'
p59
I1
ssg11
(dp60
g12
I1
sssb.