ccopy_reg
_reconstructor
p0
(cutils.eval
ConfusionMatrix
p1
c__builtin__
object
p2
Ntp3
Rp4
(dp5
S'labels'
p6
(lp7
S'cup.n.01'
p8
aS'fill.v.01'
p9
aS'cola.n.02'
p10
aS'jar.n.01'
p11
aS'gravy.n.01'
p12
aS'gravy.n.02'
p13
aS'glass.n.02'
p14
aS'milk.n.01'
p15
aS'thermos.n.01'
p16
aS'coffee.n.01'
p17
aS'measuring_cup.n.01'
p18
aS'meal.n.03'
p19
aS'opening.n.01'
p20
aS'opening.n.10'
p21
aS'fill.v.09'
p22
aS'curd.n.01'
p23
aS'kettle.n.01'
p24
aS'water.n.06'
p25
aS'pitcher.n.02'
p26
asS'instanceCount'
p27
I24
sS'matrix'
p28
(dp29
g12
(dp30
g13
I1
ssg20
(dp31
g21
I1
ssg13
(dp32
g13
I0
ssg10
(dp33
S'cola.n.02'
p34
I1
ssg22
(dp35
S'fill.v.01'
p36
I1
ssg16
(dp37
S'thermos.n.01'
p38
I1
ssg17
(dp39
S'coffee.n.01'
p40
I1
ssg25
(dp41
S'water.n.06'
p42
I1
ssg9
(dp43
S'fill.v.01'
p44
I7
ssg26
(dp45
S'pitcher.n.02'
p46
I1
ssg24
(dp47
S'kettle.n.01'
p48
I1
ssg21
(dp49
g21
I0
ssg23
(dp50
S'curd.n.01'
p51
I1
ssg18
(dp52
S'measuring_cup.n.01'
p53
I1
ssg11
(dp54
S'jar.n.01'
p55
I1
ssg8
(dp56
S'cup.n.01'
p57
I1
ssg15
(dp58
S'milk.n.01'
p59
I2
ssg14
(dp60
S'glass.n.02'
p61
I1
ssg19
(dp62
S'meal.n.03'
p63
I1
sssb.