ccopy_reg
_reconstructor
p0
(cutils.eval
ConfusionMatrix
p1
c__builtin__
object
p2
Ntp3
Rp4
(dp5
S'labels'
p6
(lp7
S'fill.v.01'
p8
aS'teapot.n.01'
p9
aS'water.n.06'
p10
aS'whiskey.n.01'
p11
aS'carafe.n.01'
p12
aS'blender.n.01'
p13
aS'apple.n.01'
p14
aS'pan.n.03'
p15
aS'cup.n.01'
p16
aS'cola.n.02'
p17
aS'jar.n.01'
p18
aS'gravy.n.01'
p19
aS'gravy.n.02'
p20
aS'glass.n.02'
p21
aS'milk.n.01'
p22
aS'thermos.n.01'
p23
aS'coffee.n.01'
p24
asS'instanceCount'
p25
I24
sS'matrix'
p26
(dp27
g19
(dp28
g20
I1
ssg15
(dp29
S'pan.n.03'
p30
I1
ssg20
(dp31
g20
I0
ssg17
(dp32
S'cola.n.02'
p33
I1
ssg9
(dp34
S'teapot.n.01'
p35
I1
ssg13
(dp36
S'blender.n.01'
p37
I1
ssg22
(dp38
S'milk.n.01'
p39
I1
ssg23
(dp40
S'thermos.n.01'
p41
I1
ssg24
(dp42
S'coffee.n.01'
p43
I1
ssg10
(dp44
S'water.n.06'
p45
I2
ssg8
(dp46
S'fill.v.01'
p47
I8
ssg14
(dp48
S'apple.n.01'
p49
I1
ssg18
(dp50
S'jar.n.01'
p51
I1
ssg16
(dp52
S'cup.n.01'
p53
I1
ssg12
(dp54
S'carafe.n.01'
p55
I1
ssg11
(dp56
S'whiskey.n.01'
p57
I1
ssg21
(dp58
S'glass.n.02'
p59
I1
sssb.