ccopy_reg
_reconstructor
p0
(cutils.eval
ConfusionMatrix
p1
c__builtin__
object
p2
Ntp3
Rp4
(dp5
S'labels'
p6
(lp7
S'saltcellar.n.01'
p8
aS'fill.v.01'
p9
aS'salt.n.02'
p10
aS'opening.n.01'
p11
aS'gap.n.03'
p12
aS'fill.v.09'
p13
aS'batter.n.02'
p14
aS'teapot.n.01'
p15
aS'water.n.06'
p16
aS'whiskey.n.01'
p17
aS'carafe.n.01'
p18
aS'blender.n.01'
p19
aS'apple.n.01'
p20
aS'pan.n.03'
p21
aS'cup.n.01'
p22
aS'cola.n.02'
p23
aS'jar.n.01'
p24
aS'gravy.n.01'
p25
aS'gravy.n.02'
p26
asS'instanceCount'
p27
I24
sS'matrix'
p28
(dp29
g25
(dp30
g26
I1
ssg10
(dp31
S'salt.n.02'
p32
I1
ssg21
(dp33
S'pan.n.03'
p34
I1
ssg15
(dp35
S'teapot.n.01'
p36
I1
ssg23
(dp37
S'cola.n.02'
p38
I1
ssg12
(dp39
g12
I0
ssg13
(dp40
S'fill.v.01'
p41
I1
ssg8
(dp42
S'saltcellar.n.01'
p43
I1
ssg16
(dp44
S'water.n.06'
p45
I2
ssg9
(dp46
S'fill.v.01'
p47
I7
ssg26
(dp48
g26
I0
ssg14
(dp49
S'batter.n.02'
p50
I1
ssg20
(dp51
S'apple.n.01'
p52
I1
ssg24
(dp53
S'jar.n.01'
p54
I1
ssg22
(dp55
S'cup.n.01'
p56
I1
ssg18
(dp57
S'carafe.n.01'
p58
I1
ssg17
(dp59
S'whiskey.n.01'
p60
I1
ssg19
(dp61
S'blender.n.01'
p62
I1
ssg11
(dp63
g12
I1
sssb.