ccopy_reg
_reconstructor
p0
(cutils.eval
ConfusionMatrix
p1
c__builtin__
object
p2
Ntp3
Rp4
(dp5
S'labels'
p6
(lp7
S'pepper.n.03'
p8
aS'pepper.n.04'
p9
aS'salt.n.02'
p10
aS'egg.n.02'
p11
aS'testis.n.01'
p12
aS'ice.n.01'
p13
aS'ice_rink.n.01'
p14
aS'fill.v.01'
p15
aS'fill.v.09'
p16
aS'bowl.n.01'
p17
aS'bowling_ball.n.01'
p18
aS'piece.n.08'
p19
aS'slice.n.01'
p20
aS'add.v.01'
p21
aS'add.v.06'
p22
aS'liquid.n.01'
p23
aS'pour.v.01'
p24
aS'decant.v.01'
p25
aS'sink.n.01'
p26
aS'opening.n.01'
p27
aS'curd.n.01'
p28
aS'wok.n.01'
p29
aS'occupy.v.03'
p30
aS'rice.n.01'
p31
aS'rice.n.02'
p32
aS'saltcellar.n.01'
p33
aS'fork.n.01'
p34
aS'crotch.n.02'
p35
aS'blend.v.03'
p36
aS'put.v.01'
p37
aS'invest.v.01'
p38
aS'blend.v.01'
p39
aS'cut.n.16'
p40
aS'swerve.v.01'
p41
aS'bag.n.01'
p42
aS'bag.n.05'
p43
aS'teapot.n.01'
p44
aS'water.n.06'
p45
aS'mixing_bowl.n.01'
p46
aS'butter.n.01'
p47
aS'sugar.n.01'
p48
aS'carbohydrate.n.01'
p49
aS'carve.v.03'
p50
aS'hack.v.07'
p51
aS'onion.n.01'
p52
aS'place.v.11'
p53
aS'beef.n.02'
p54
aS'beef.n.01'
p55
aS'plate.n.04'
p56
aS'plate.n.13'
p57
aS'slice.n.05'
p58
aS'pizza.n.01'
p59
aS'slice.v.03'
p60
aS'slice.v.02'
p61
aS'rum.n.01'
p62
aS'rummy.n.02'
p63
aS'shaker.n.03'
p64
aS'shaker.n.01'
p65
aS'take.v.04'
p66
aS'claim.v.04'
p67
aS'pour.v.05'
p68
aS'pot.n.01'
p69
aS'toilet.n.02'
p70
aS'measuring_cup.n.01'
p71
aS'meal.n.03'
p72
aS'meal.n.02'
p73
aS'pitcher.n.02'
p74
aS'pitcher.n.03'
p75
aS'milk.n.01'
p76
aS'strawberry.n.01'
p77
aS'hull.v.01'
p78
aS'cut.v.01'
p79
aS'bread.n.01'
p80
aS'boodle.n.01'
p81
aS'olive_oil.n.01'
p82
aS'serve.v.05'
p83
aS'serve.v.01'
p84
aS'whiskey.n.01'
p85
aS'carafe.n.01'
p86
aS'kettle.n.01'
p87
aS'kettle.n.02'
p88
aS'pan.n.01'
p89
aS'jar.n.01'
p90
aS'jolt.n.01'
p91
aS'gravy.n.01'
p92
aS'body_of_water.n.01'
p93
aS'concoction.n.01'
p94
aS'assortment.n.01'
p95
aS'glass.n.02'
p96
aS'field_glass.n.01'
p97
aS'vanilla.n.02'
p98
aS'shuffle.v.03'
p99
aS'thermos.n.01'
p100
aS'coffee.n.01'
p101
aS'coffee_bean.n.01'
p102
aS'dough.n.01'
p103
aS'mix.v.04'
p104
aS'cup.n.01'
p105
aS'cup.n.02'
p106
aS'cola.n.02'
p107
aS'flesh.n.01'
p108
aS'catsup.n.01'
p109
aS'tomato.n.01'
p110
aS'onion.n.03'
p111
aS'onion.n.02'
p112
aS'mustard.n.02'
p113
aS'mustard.n.01'
p114
aS'fill.v.06'
p115
aS'blender.n.01'
p116
aS'apple.n.01'
p117
aS'cheese.n.01'
p118
aS'tall_mallow.n.01'
p119
aS'sauce.n.01'
p120
aS'bottle.n.01'
p121
aS'fruit_juice.n.01'
p122
aS'pour.v.02'
p123
aS'mix.n.03'
p124
aS'mix.n.01'
p125
aS'milk.n.04'
p126
aS'cut.n.05'
p127
aS'cut.v.34'
p128
aS'avocado.n.01'
p129
aS'avocado.n.02'
p130
aS'add.v.04'
p131
aS'chicken.n.01'
p132
aS'chicken.n.04'
p133
aS'corn.n.02'
p134
aS'corn.n.01'
p135
aS'chop.v.01'
p136
aS'chop.v.06'
p137
aS'squash.n.02'
p138
aS'squash.n.01'
p139
aS'cover.v.01'
p140
aS'breed.v.02'
p141
aS'rib.n.03'
p142
aS'gap.n.05'
p143
aS'batter.n.02'
p144
aS'knife.n.01'
p145
aS'banana.n.02'
p146
aS'banana.n.01'
p147
aS'foam.n.01'
p148
aS'mug.n.04'
p149
aS'oven.n.01'
p150
aS'lodge.v.02'
p151
aS'burner.n.02'
p152
aS'walnut.n.01'
p153
aS'walnut.n.02'
p154
aS'get.v.01'
p155
aS'contract.v.04'
p156
aS'pear.n.01'
p157
aS'pear.n.02'
p158
aS'bleu.n.01'
p159
aS'opening.n.10'
p160
aS'stadium.n.01'
p161
asS'instanceCount'
p162
I648
sS'matrix'
p163
(dp164
g135
(dp165
g156
I0
sS'coffee_bean.n.01'
p166
I0
sS'ice_rink.n.01'
p167
I0
sS'testis.n.01'
p168
I0
sS'bowl.n.01'
p169
I0
sg148
I0
sS'cut.v.01'
p170
I0
sg137
I0
sg140
I0
sS'gravy.n.01'
p171
I0
sg142
I0
sg154
I0
sS'jolt.n.01'
p172
I0
sS'fork.n.01'
p173
I0
sg153
I0
sS'tall_mallow.n.01'
p174
I0
sS'opening.n.01'
p175
I0
sS'flesh.n.01'
p176
I0
sS'blender.n.01'
p177
I0
sS'water.n.06'
p178
I0
sS'put.v.01'
p179
I0
sS'pour.v.05'
p180
I0
sS'pour.v.01'
p181
I0
sS'glass.n.02'
p182
I0
sS'pour.v.02'
p183
I0
sS'jar.n.01'
p184
I0
sS'decant.v.01'
p185
I0
sg133
I0
sg132
I0
sS'sink.n.01'
p186
I0
sS'bowling_ball.n.01'
p187
I0
sg159
I0
sg130
I0
sg129
I0
sg160
I0
sS'add.v.06'
p188
I0
sS'add.v.01'
p189
I0
sS'pan.n.01'
p190
I0
sg143
I0
sg146
I0
sS'cup.n.02'
p191
I0
sS'cup.n.01'
p192
I0
sS'vanilla.n.02'
p193
I0
sS'slice.v.02'
p194
I0
sS'slice.v.03'
p195
I0
sg147
I0
sS'dough.n.01'
p196
I0
sg155
I0
sS'wok.n.01'
p197
I0
sS'pepper.n.04'
p198
I0
sS'pepper.n.03'
p199
I0
sg161
I0
sS'fruit_juice.n.01'
p200
I0
sS'occupy.v.03'
p201
I0
sS'ice.n.01'
p202
I0
sS'bottle.n.01'
p203
I0
sS'mix.n.01'
p204
I0
sS'mix.n.03'
p205
I0
sS'curd.n.01'
p206
I0
sS'onion.n.03'
p207
I0
sS'onion.n.02'
p208
I0
sg135
I0
sg134
I0
sS'swerve.v.01'
p209
I0
sS'cheese.n.01'
p210
I0
sg151
I0
sS'mustard.n.01'
p211
I0
sS'mustard.n.02'
p212
I0
sS'fill.v.09'
p213
I0
sS'fill.v.06'
p214
I0
sS'fill.v.01'
p215
I0
sS'shuffle.v.03'
p216
I0
sg158
I0
sg157
I0
sg139
I0
sg138
I0
sS'concoction.n.01'
p217
I0
sS'salt.n.02'
p218
I0
sg145
I0
sS'coffee.n.01'
p219
I0
sg150
I0
sS'apple.n.01'
p220
I0
sg149
I0
sS'slice.n.01'
p221
I0
sS'pizza.n.01'
p222
I0
sS'cut.n.16'
p223
I0
sg152
I0
sS'invest.v.01'
p224
I0
sS'thermos.n.01'
p225
I0
sg141
I0
sS'assortment.n.01'
p226
I0
sS'body_of_water.n.01'
p227
I0
sS'bread.n.01'
p228
I0
sg144
I0
sg131
I0
sS'milk.n.01'
p229
I0
sS'cola.n.02'
p230
I0
sS'saltcellar.n.01'
p231
I0
sS'egg.n.02'
p232
I0
sS'butter.n.01'
p233
I0
sS'crotch.n.02'
p234
I0
sS'bag.n.05'
p235
I0
sS'bag.n.01'
p236
I0
sg136
I0
sS'mix.v.04'
p237
I0
sS'sauce.n.01'
p238
I0
sS'blend.v.03'
p239
I0
sS'blend.v.01'
p240
I0
sS'catsup.n.01'
p241
I0
sS'piece.n.08'
p242
I0
sS'field_glass.n.01'
p243
I0
sS'rice.n.02'
p244
I0
sS'rice.n.01'
p245
I0
sS'liquid.n.01'
p246
I0
sS'tomato.n.01'
p247
I0
ssg102
(dp248
S'corn.n.01'
p249
I0
sg102
I0
sS'rummy.n.02'
p250
I0
sS'swerve.v.01'
p251
I0
sS'cut.v.01'
p252
I0
sS'cover.v.01'
p253
I0
sS'measuring_cup.n.01'
p254
I0
sS'opening.n.01'
p255
I0
sg92
I0
sS'rib.n.03'
p256
I0
sg91
I0
sg115
I0
sg119
I0
sg85
I0
sS'pitcher.n.03'
p257
I0
sS'meal.n.02'
p258
I0
sg116
I0
sg108
I0
sS'water.n.06'
p259
I0
sS'put.v.01'
p260
I0
sS'pour.v.05'
p261
I0
sS'pour.v.01'
p262
I0
sg120
I0
sg123
I0
sg90
I0
sg86
I0
sS'decant.v.01'
p263
I0
sg128
I0
sS'chicken.n.04'
p264
I0
sS'chicken.n.01'
p265
I0
sS'avocado.n.02'
p266
I0
sg83
I0
sg84
I0
sg117
I0
sS'slice.n.05'
p267
I0
sS'add.v.01'
p268
I0
sg89
I0
sg106
I0
sg105
I0
sg98
I0
sS'slice.v.02'
p269
I0
sS'slice.v.03'
p270
I0
sg103
I0
sS'pepper.n.04'
p271
I0
sS'shaker.n.01'
p272
I0
sS'shaker.n.03'
p273
I0
sS'rum.n.01'
p274
I0
sg122
I0
sS'teapot.n.01'
p275
I0
sS'occupy.v.03'
p276
I0
sg88
I0
sg121
I0
sg87
I0
sg125
I0
sg124
I0
sS'onion.n.01'
p277
I0
sg111
I0
sg112
I0
sS'claim.v.04'
p278
I0
sS'strawberry.n.01'
p279
I0
sS'toilet.n.02'
p280
I0
sS'corn.n.02'
p281
I0
sS'beef.n.01'
p282
I0
sS'beef.n.02'
p283
I0
sS'carve.v.03'
p284
I0
sS'mixing_bowl.n.01'
p285
I0
sS'carbohydrate.n.01'
p286
I0
sS'take.v.04'
p287
I0
sS'place.v.11'
p288
I0
sg114
I0
sg113
I0
sS'fill.v.09'
p289
I0
sg97
I0
sS'pot.n.01'
p290
I0
sS'fill.v.01'
p291
I0
sg99
I0
sS'pitcher.n.02'
p292
I0
sS'squash.n.01'
p293
I0
sS'squash.n.02'
p294
I0
sg94
I0
sg127
I0
sS'hack.v.07'
p295
I0
sS'plate.n.04'
p296
I0
sg101
I0
sS'slice.n.01'
p297
I0
sS'avocado.n.01'
p298
I0
sS'pizza.n.01'
p299
I0
sS'plate.n.13'
p300
I0
sg118
I0
sg100
I0
sS'breed.v.02'
p301
I0
sg95
I0
sg93
I0
sg80
I0
sS'batter.n.02'
p302
I0
sS'add.v.04'
p303
I0
sg126
I0
sS'hull.v.01'
p304
I0
sS'milk.n.01'
p305
I0
sg107
I0
sS'egg.n.02'
p306
I0
sS'butter.n.01'
p307
I0
sS'chop.v.06'
p308
I0
sS'chop.v.01'
p309
I0
sg104
I0
sg96
I0
sS'blend.v.03'
p310
I0
sg81
I0
sg109
I0
sS'piece.n.08'
p311
I0
sS'invest.v.01'
p312
I0
sS'rice.n.02'
p313
I0
sS'rice.n.01'
p314
I0
sg82
I0
sS'meal.n.03'
p315
I0
sg110
I0
sS'sugar.n.01'
p316
I0
ssg156
(dp317
g156
I0
sg167
I0
sg191
I0
sg210
I0
sg169
I0
sS'beef.n.01'
p318
I0
sg148
I0
sg170
I0
sg137
I0
sg140
I0
sg142
I0
sg154
I0
sg173
I0
sg153
I0
sg174
I0
sg175
I0
sg176
I0
sg177
I0
sS'water.n.06'
p319
I0
sg179
I0
sg181
I0
sg183
I0
sg184
I0
sg185
I0
sg133
I0
sg132
I0
sg186
I0
sg187
I0
sg159
I0
sg130
I0
sg129
I0
sg160
I0
sg188
I0
sg189
I0
sg190
I0
sg143
I0
sg196
I0
sg168
I0
sg192
I0
sg193
I0
sg194
I0
sg195
I0
sg147
I0
sg146
I0
sg155
I0
sg197
I0
sg198
I0
sg199
I0
sg161
I0
sg200
I0
sS'teapot.n.01'
p320
I0
sg201
I0
sg202
I0
sg203
I0
sg204
I0
sg205
I0
sg206
I0
sS'onion.n.01'
p321
I0
sg207
I0
sg208
I0
sg135
I0
sg134
I0
sg209
I0
sS'beef.n.02'
p322
I0
sS'carve.v.03'
p323
I0
sg151
I0
sS'mixing_bowl.n.01'
p324
I0
sS'carbohydrate.n.01'
p325
I0
sS'place.v.11'
p326
I0
sg211
I0
sg212
I0
sg213
I0
sg214
I0
sg215
I0
sg216
I0
sg158
I0
sg157
I0
sg139
I0
sg138
I0
sS'hack.v.07'
p327
I0
sg145
I0
sS'plate.n.04'
p328
I0
sg150
I0
sg220
I0
sg149
I0
sg221
I0
sg222
I0
sg223
I0
sg152
I0
sS'plate.n.13'
p329
I0
sg224
I0
sg218
I0
sg141
I0
sg228
I0
sg144
I0
sg131
I0
sg230
I0
sg231
I0
sg232
I0
sg233
I0
sg234
I0
sg235
I0
sS'slice.n.05'
p330
I0
sg236
I0
sg136
I0
sg237
I0
sg238
I0
sg239
I0
sg240
I0
sg241
I0
sg242
I0
sg244
I0
sg245
I0
sg246
I0
sg247
I0
sS'sugar.n.01'
p331
I0
ssg14
(dp332
g135
I0
sg156
I0
sg14
I0
sg63
I0
sS'cheese.n.01'
p333
I0
sg17
I0
sg55
I0
sg148
I0
sg79
I0
sg137
I0
sg140
I0
sg71
I0
sg142
I0
sg154
I0
sg34
I0
sg153
I0
sS'tall_mallow.n.01'
p334
I0
sg27
I0
sS'blender.n.01'
p335
I0
sg45
I0
sg37
I0
sg68
I0
sg24
I0
sS'pour.v.02'
p336
I0
sg25
I0
sg133
I0
sg132
I0
sg26
I0
sg18
I0
sg159
I0
sg130
I0
sg129
I0
sg131
I0
sg22
I0
sg21
I0
sg158
I0
sg190
I0
sg143
I0
sg12
I0
sg193
I0
sg61
I0
sg60
I0
sg147
I0
sg146
I0
sg155
I0
sg29
I0
sg9
I0
sg65
I0
sg8
I0
sg62
I0
sg64
I0
sg161
I0
sS'fruit_juice.n.01'
p337
I0
sg44
I0
sg30
I0
sg13
I0
sS'bottle.n.01'
p338
I0
sS'mix.n.01'
p339
I0
sS'mix.n.03'
p340
I0
sg28
I0
sg52
I0
sg73
I0
sg72
I0
sg67
I0
sg77
I0
sg70
I0
sg134
I0
sg41
I0
sg54
I0
sg50
I0
sg151
I0
sg46
I0
sg49
I0
sg66
I0
sg53
I0
sg216
I0
sg16
I0
sg214
I0
sg69
I0
sg15
I0
sg75
I0
sg74
I0
sg157
I0
sg139
I0
sg138
I0
sg51
I0
sg145
I0
sg56
I0
sg150
I0
sS'apple.n.01'
p341
I0
sg149
I0
sg20
I0
sg59
I0
sg40
I0
sg152
I0
sg57
I0
sg38
I0
sg10
I0
sg141
I0
sS'bread.n.01'
p342
I0
sg144
I0
sg160
I0
sg78
I0
sg76
I0
sg33
I0
sg11
I0
sg47
I0
sg35
I0
sg43
I0
sg42
I0
sg136
I0
sS'sauce.n.01'
p343
I0
sg36
I0
sg39
I0
sg19
I0
sg32
I0
sg31
I0
sg23
I0
sg48
I0
sg58
I0
ssg106
(dp344
S'corn.n.01'
p345
I0
sg102
I0
sS'contract.v.04'
p346
I0
sS'rummy.n.02'
p347
I0
sS'bowl.n.01'
p348
I0
sS'foam.n.01'
p349
I0
sg252
I0
sS'chop.v.06'
p350
I0
sS'cover.v.01'
p351
I0
sS'measuring_cup.n.01'
p352
I0
sS'opening.n.01'
p353
I0
sg92
I0
sS'rib.n.03'
p354
I0
sS'walnut.n.02'
p355
I0
sg91
I0
sg115
I0
sg119
I0
sg85
I0
sS'pitcher.n.03'
p356
I0
sg116
I0
sg108
I0
sg259
I0
sg260
I0
sg261
I0
sg262
I0
sg120
I0
sg123
I0
sg90
I0
sg86
I0
sS'decant.v.01'
p357
I0
sS'chicken.n.04'
p358
I0
sS'chicken.n.01'
p359
I0
sS'bleu.n.01'
p360
I0
sg100
I0
sS'avocado.n.02'
p361
I0
sg83
I0
sg84
I0
sg117
I0
sg268
I0
sS'pear.n.02'
p362
I0
sg89
I0
sS'banana.n.02'
p363
I0
sg106
I0
sg105
I0
sg98
I0
sg269
I0
sg270
I0
sS'banana.n.01'
p364
I0
sg103
I0
sS'get.v.01'
p365
I0
sS'shaker.n.01'
p366
I0
sS'shaker.n.03'
p367
I0
sS'rum.n.01'
p368
I0
sg122
I0
sg276
I0
sg88
I0
sg121
I0
sg87
I0
sg125
I0
sg124
I0
sS'meal.n.02'
p369
I0
sS'meal.n.03'
p370
I0
sS'claim.v.04'
p371
I0
sS'strawberry.n.01'
p372
I0
sS'toilet.n.02'
p373
I0
sS'corn.n.02'
p374
I0
sS'swerve.v.01'
p375
I0
sg312
I0
sS'lodge.v.02'
p376
I0
sS'take.v.04'
p377
I0
sg114
I0
sg113
I0
sg289
I0
sg97
I0
sS'pot.n.01'
p378
I0
sg291
I0
sg99
I0
sS'pitcher.n.02'
p379
I0
sS'pear.n.01'
p380
I0
sS'squash.n.01'
p381
I0
sS'squash.n.02'
p382
I0
sg94
I0
sS'cut.n.05'
p383
I0
sS'knife.n.01'
p384
I0
sg101
I0
sS'oven.n.01'
p385
I0
sS'mug.n.04'
p386
I0
sg297
I0
sS'avocado.n.01'
p387
I0
sS'pizza.n.01'
p388
I0
sS'burner.n.02'
p389
I0
sg118
I0
sS'cut.v.34'
p390
I0
sS'breed.v.02'
p391
I0
sg95
I0
sg93
I0
sg80
I0
sS'batter.n.02'
p392
I0
sS'add.v.04'
p393
I0
sS'milk.n.04'
p394
I0
sS'hull.v.01'
p395
I0
sg305
I0
sg107
I0
sg306
I0
sg307
I0
sg111
I0
sS'chop.v.01'
p396
I0
sg104
I0
sg96
I0
sg310
I0
sg81
I0
sg109
I0
sg311
I0
sS'walnut.n.01'
p397
I0
sg313
I0
sg314
I0
sg82
I0
sg112
I0
sg110
I0
ssg63
(dp398
S'coffee_bean.n.01'
p399
I0
sg14
I0
sS'cup.n.02'
p400
I0
sg63
I0
sg17
I0
sg55
I0
sg79
I0
sg71
I0
sS'gravy.n.01'
p401
I0
sS'jolt.n.01'
p402
I0
sg34
I0
sS'whiskey.n.01'
p403
I0
sg27
I0
sS'flesh.n.01'
p404
I0
sg45
I0
sg37
I0
sg68
I0
sg24
I0
sS'jar.n.01'
p405
I0
sS'carafe.n.01'
p406
I0
sg25
I0
sg26
I0
sg18
I0
sS'thermos.n.01'
p407
I0
sS'serve.v.05'
p408
I0
sS'serve.v.01'
p409
I0
sg22
I0
sg21
I0
sS'pan.n.01'
p410
I0
sg12
I0
sS'cup.n.01'
p411
I0
sS'vanilla.n.02'
p412
I0
sg61
I0
sg60
I0
sS'dough.n.01'
p413
I0
sS'mustard.n.01'
p414
I0
sg29
I0
sg9
I0
sg65
I0
sg8
I0
sg62
I0
sg64
I0
sg44
I0
sg30
I0
sS'kettle.n.02'
p415
I0
sS'kettle.n.01'
p416
I0
sg28
I0
sg52
I0
sg73
I0
sg72
I0
sg67
I0
sg77
I0
sg70
I0
sg58
I0
sg41
I0
sg54
I0
sg50
I0
sg46
I0
sg49
I0
sg66
I0
sg53
I0
sS'shuffle.v.03'
p417
I0
sS'mustard.n.02'
p418
I0
sg16
I0
sS'field_glass.n.01'
p419
I0
sg69
I0
sg15
I0
sg75
I0
sg74
I0
sS'concoction.n.01'
p420
I0
sg127
I0
sg51
I0
sg56
I0
sS'coffee.n.01'
p421
I0
sS'onion.n.03'
p422
I0
sg20
I0
sg59
I0
sg40
I0
sg57
I0
sg38
I0
sg31
I0
sg10
I0
sS'assortment.n.01'
p423
I0
sS'body_of_water.n.01'
p424
I0
sS'bread.n.01'
p425
I0
sg126
I0
sg78
I0
sg76
I0
sg13
I0
sS'cola.n.02'
p426
I0
sg33
I0
sg11
I0
sg47
I0
sg35
I0
sg43
I0
sg42
I0
sS'mix.v.04'
p427
I0
sS'glass.n.02'
p428
I0
sg36
I0
sg39
I0
sS'boodle.n.01'
p429
I0
sS'catsup.n.01'
p430
I0
sg19
I0
sg32
I0
sg128
I0
sS'olive_oil.n.01'
p431
I0
sg23
I0
sS'onion.n.02'
p432
I0
sS'tomato.n.01'
p433
I0
sg48
I0
ssg118
(dp434
g346
I0
sg102
I0
sS'ice_rink.n.01'
p435
I0
sS'testis.n.01'
p436
I0
sg348
I0
sg349
I0
sg252
I0
sg351
I0
sg92
I0
sg354
I0
sg355
I0
sg91
I0
sg115
I0
sg119
I4
sg85
I0
sg353
I0
sg116
I0
sg108
I0
sg259
I0
sg260
I0
sg261
I0
sg262
I0
sg120
I0
sg123
I0
sg90
I0
sg86
I0
sS'decant.v.01'
p437
I0
sg358
I0
sg359
I0
sS'sink.n.01'
p438
I0
sS'bowling_ball.n.01'
p439
I0
sS'opening.n.10'
p440
I0
sg360
I0
sg361
I0
sg83
I0
sg84
I0
sg393
I0
sS'add.v.06'
p441
I0
sg268
I0
sg89
I0
sS'gap.n.05'
p442
I0
sg103
I0
sg106
I0
sg105
I0
sg98
I0
sg269
I0
sg270
I0
sg364
I0
sg363
I0
sg365
I0
sS'pepper.n.04'
p443
I0
sS'pepper.n.03'
p444
I0
sg122
I0
sg276
I0
sg88
I0
sg121
I0
sg87
I0
sg125
I0
sg124
I0
sS'curd.n.01'
p445
I0
sg111
I0
sg112
I0
sg345
I0
sg374
I0
sS'swerve.v.01'
p446
I0
sg312
I0
sg376
I0
sg114
I0
sg113
I0
sg289
I0
sg97
I0
sg291
I0
sg99
I0
sg362
I0
sg380
I0
sg381
I0
sg382
I0
sg94
I0
sS'salt.n.02'
p447
I0
sg384
I0
sg101
I0
sg385
I0
sg386
I0
sg297
I0
sg387
I0
sg388
I0
sg389
I0
sg118
I0
sg100
I0
sg391
I0
sg95
I0
sg93
I0
sg80
I0
sg392
I0
sg117
I0
sg305
I0
sS'ice.n.01'
p448
I0
sg107
I0
sg306
I0
sg307
I0
sg350
I0
sg396
I0
sg104
I0
sg96
I0
sg310
I0
sg81
I0
sg109
I0
sg311
I0
sg397
I0
sg313
I0
sg314
I0
sg82
I0
sS'liquid.n.01'
p449
I0
sg110
I0
ssg17
(dp450
g135
I0
sg156
I0
sg14
I0
sg191
I0
sg63
I0
sg210
I0
sg17
I4
sg134
I0
sg55
I0
sg148
I0
sg79
I0
sg137
I0
sg140
I0
sg71
I0
sg142
I0
sg154
I0
sg34
I0
sg153
I0
sg174
I0
sS'whiskey.n.01'
p451
I0
sg27
I0
sg176
I0
sg177
I0
sg45
I0
sg37
I0
sg68
I0
sg24
I0
sg183
I0
sg184
I0
sS'carafe.n.01'
p452
I0
sg25
I0
sg133
I0
sg132
I0
sg26
I0
sg18
I10
sg159
I0
sg130
I0
sg129
I0
sS'serve.v.01'
p453
I0
sg131
I0
sg22
I0
sg21
I0
sg158
I0
sS'pan.n.01'
p454
I0
sg143
I0
sg196
I0
sg12
I0
sg192
I0
sg193
I0
sg61
I0
sg60
I0
sg147
I0
sg146
I0
sg155
I0
sg29
I0
sg9
I0
sg65
I0
sg8
I0
sg62
I0
sg64
I0
sg161
I2
sg200
I0
sg44
I0
sg30
I0
sS'kettle.n.02'
p455
I0
sg203
I0
sS'kettle.n.01'
p456
I0
sg204
I0
sg205
I0
sg28
I0
sg52
I0
sg73
I0
sg72
I0
sg67
I0
sg77
I0
sg70
I0
sg58
I0
sg41
I0
sg54
I0
sg50
I0
sg151
I0
sg46
I0
sg49
I0
sg66
I0
sg53
I0
sg216
I0
sg212
I0
sg16
I0
sg214
I0
sg69
I0
sg15
I0
sg75
I0
sg74
I0
sg157
I0
sg139
I0
sg138
I0
sS'cut.n.05'
p457
I0
sg51
I0
sg145
I0
sg56
I0
sg150
I0
sg220
I0
sg149
I0
sg207
I0
sg20
I0
sS'serve.v.05'
p458
I0
sg59
I0
sg40
I0
sg152
I0
sg57
I0
sg38
I0
sg31
I0
sg10
I0
sg141
I0
sS'body_of_water.n.01'
p459
I0
sS'bread.n.01'
p460
I0
sg144
I0
sg160
I0
sg78
I0
sg76
I0
sg13
I0
sg230
I0
sg33
I0
sg11
I0
sg47
I0
sg35
I0
sg43
I0
sg42
I0
sg136
I0
sg237
I0
sg238
I0
sg36
I0
sg39
I0
sS'boodle.n.01'
p461
I0
sg241
I0
sg19
I0
sg32
I0
sS'cut.v.34'
p462
I0
sS'olive_oil.n.01'
p463
I0
sg211
I0
sg23
I0
sg208
I0
sg247
I0
sg48
I0
ssg134
(dp464
g156
I0
sg166
I0
sg167
I0
sg168
I0
sg169
I0
sg148
I0
sg170
I0
sg137
I0
sg140
I0
sg171
I0
sg142
I0
sg154
I0
sg172
I0
sg173
I0
sg153
I0
sg174
I0
sg175
I0
sg176
I0
sg177
I0
sg178
I0
sg179
I0
sg180
I0
sg181
I0
sg182
I0
sg183
I0
sg184
I0
sg185
I0
sg133
I0
sg132
I0
sg186
I0
sg187
I0
sg159
I0
sg130
I0
sg129
I0
sg160
I0
sg188
I0
sg189
I0
sg190
I0
sg143
I0
sg146
I0
sg191
I0
sg192
I0
sg193
I0
sg194
I0
sg195
I0
sg147
I0
sg196
I0
sg155
I0
sg197
I0
sg198
I0
sg199
I0
sg161
I0
sg200
I0
sg201
I0
sg202
I0
sg203
I0
sg204
I0
sg205
I0
sg206
I0
sg207
I0
sg208
I0
sg135
I4
sg134
I0
sg209
I0
sg210
I0
sg151
I0
sg211
I0
sg212
I0
sg213
I0
sg214
I0
sg215
I0
sg216
I0
sg158
I0
sg157
I0
sg139
I0
sg138
I0
sg217
I0
sg218
I0
sg145
I0
sg219
I0
sg150
I0
sg220
I0
sg149
I0
sg221
I0
sg222
I0
sg223
I0
sg152
I0
sg224
I0
sg225
I0
sg141
I0
sg226
I0
sg227
I0
sg228
I0
sg144
I0
sg131
I0
sg229
I0
sg230
I0
sg231
I0
sg232
I0
sg233
I0
sg234
I0
sg235
I0
sg236
I0
sg136
I0
sg237
I0
sg238
I0
sg239
I0
sg240
I0
sg241
I0
sg242
I0
sg243
I0
sg244
I0
sg245
I0
sg246
I0
sg247
I0
ssg55
(dp465
S'contract.v.04'
p466
I0
sg399
I0
sg14
I0
sg63
I0
sg17
I0
sg41
I0
sS'foam.n.01'
p467
I0
sg79
I0
sg71
I0
sg401
I0
sS'walnut.n.02'
p468
I0
sg34
I0
sS'walnut.n.01'
p469
I0
sg403
I0
sg27
I0
sg45
I0
sg37
I0
sg68
I0
sg24
I0
sg405
I0
sg406
I0
sg25
I0
sg26
I0
sg18
I0
sS'bleu.n.01'
p470
I0
sg407
I0
sg408
I0
sg409
I0
sg22
I0
sg21
I0
sS'pear.n.02'
p471
I0
sg410
I0
sg12
I0
sg412
I0
sg61
I0
sg60
I0
sS'banana.n.01'
p472
I0
sS'banana.n.02'
p473
I0
sS'get.v.01'
p474
I0
sg29
I0
sg9
I0
sg65
I0
sg8
I0
sg62
I0
sg64
I0
sS'stadium.n.01'
p475
I0
sg44
I0
sg30
I0
sg415
I0
sg416
I0
sg28
I0
sg52
I0
sg73
I0
sg72
I0
sg67
I0
sg77
I0
sg70
I0
sg58
I0
sg55
I0
sg54
I0
sg50
I0
sS'lodge.v.02'
p476
I0
sg46
I0
sg49
I0
sg66
I0
sg53
I0
sg417
I0
sg16
I0
sg419
I0
sg69
I0
sg15
I0
sg75
I0
sg74
I0
sS'pear.n.01'
p477
I0
sg420
I0
sg127
I0
sg51
I0
sS'knife.n.01'
p478
I0
sg56
I0
sg421
I0
sS'oven.n.01'
p479
I0
sS'mug.n.04'
p480
I0
sg20
I0
sg59
I0
sg40
I0
sS'burner.n.02'
p481
I0
sg57
I0
sg38
I0
sg31
I0
sg10
I0
sg423
I0
sg424
I0
sg425
I0
sg126
I0
sg78
I0
sg76
I0
sg13
I0
sg33
I0
sg11
I0
sg47
I0
sg35
I0
sg43
I0
sg42
I0
sg428
I0
sg36
I0
sg39
I0
sg429
I0
sg19
I0
sg32
I0
sg128
I0
sg431
I0
sg23
I0
sg48
I0
ssg148
(dp482
g156
I0
sg167
I0
sg191
I0
sg210
I0
sg169
I0
sg318
I0
sg148
I4
sg170
I0
sg137
I0
sg140
I0
sg142
I0
sg154
I0
sg173
I0
sg153
I0
sg174
I0
sg175
I0
sg176
I0
sg177
I0
sg319
I0
sg179
I0
sg181
I0
sg183
I0
sg184
I0
sg185
I0
sg133
I0
sg132
I0
sg186
I0
sg187
I0
sg159
I0
sg130
I0
sg129
I0
sg160
I0
sg188
I0
sg189
I0
sg190
I0
sg143
I0
sg196
I0
sg168
I0
sg192
I0
sg193
I0
sg194
I0
sg195
I0
sg147
I0
sg146
I0
sg155
I0
sg197
I0
sg198
I0
sg199
I0
sg161
I0
sg200
I0
sg320
I0
sg201
I0
sg202
I0
sg203
I0
sg204
I0
sg205
I0
sg206
I0
sg321
I0
sg207
I0
sg208
I0
sg135
I0
sg134
I0
sg209
I0
sg322
I0
sg323
I0
sg151
I0
sg324
I0
sg325
I0
sg326
I0
sg211
I0
sg212
I0
sg213
I0
sg214
I0
sg215
I0
sg216
I0
sg158
I0
sg157
I0
sg139
I0
sg138
I0
sg327
I0
sg145
I0
sg328
I0
sg150
I0
sg220
I0
sg149
I0
sg221
I0
sg222
I0
sg223
I0
sg152
I0
sg329
I0
sg224
I0
sg218
I0
sg141
I0
sg228
I0
sg144
I0
sg131
I0
sg230
I0
sg231
I0
sg232
I0
sg233
I0
sg234
I0
sg235
I0
sg330
I0
sg236
I0
sg136
I0
sg237
I0
sg238
I0
sg239
I0
sg240
I0
sg241
I0
sg242
I0
sg244
I0
sg245
I0
sg246
I0
sg247
I0
sg331
I0
ssg79
(dp483
g135
I0
sg102
I0
sg156
I0
sg14
I0
sg106
I0
sg63
I0
sg118
I0
sg17
I0
sg134
I0
sg55
I0
sg148
I0
sg79
I2
sg137
I0
sg121
I0
sg140
I0
sg71
I0
sg92
I0
sg142
I0
sg154
I0
sg91
I0
sg34
I0
sg153
I0
sg119
I0
sg85
I0
sg27
I0
sg108
I0
sg116
I0
sg45
I0
sg37
I0
sg68
I0
sg24
I0
sg120
I0
sg123
I0
sg90
I0
sg86
I0
sg25
I0
sg128
I3
sg133
I0
sg132
I0
sg26
I0
sg18
I0
sg160
I0
sg159
I0
sg130
I0
sg83
I0
sg84
I0
sg117
I0
sg22
I0
sg21
I0
sg158
I0
sg89
I0
sg143
I0
sg146
I0
sg155
I0
sg12
I0
sg105
I0
sg98
I0
sg61
I0
sg60
I0
sg147
I0
sg103
I0
sg114
I0
sg29
I0
sg9
I0
sg65
I0
sg8
I0
sg62
I0
sg64
I0
sg161
I0
sg122
I0
sg44
I0
sg30
I0
sg88
I0
sg115
I0
sg87
I0
sg125
I0
sg124
I0
sg28
I0
sg52
I0
sg73
I0
sg72
I0
sg67
I0
sg77
I0
sg70
I0
sg58
I0
sg41
I7
sg54
I0
sg50
I0
sg151
I0
sg46
I0
sg49
I0
sg66
I0
sg53
I0
sg99
I0
sg113
I0
sg16
I0
sg97
I0
sg69
I0
sg15
I0
sg75
I0
sg74
I0
sg157
I0
sg139
I0
sg138
I0
sg94
I0
sg127
I0
sg51
I0
sg145
I0
sg56
I0
sg101
I0
sg150
I0
sg149
I0
sg111
I0
sg20
I0
sg129
I0
sg59
I0
sg40
I0
sg152
I0
sg57
I0
sg38
I0
sg100
I0
sg10
I0
sg141
I0
sg95
I0
sg93
I0
sg80
I0
sg144
I0
sg131
I0
sg126
I0
sg78
I0
sg76
I0
sg13
I0
sg107
I0
sg33
I0
sg11
I0
sg47
I0
sg35
I0
sg43
I0
sg42
I0
sg136
I0
sg104
I0
sg96
I0
sg36
I0
sg39
I0
sg81
I0
sg109
I0
sg19
I0
sg32
I0
sg31
I0
sg82
I0
sg23
I0
sg112
I0
sg110
I0
sg48
I0
ssg137
(dp484
g156
I0
sg166
I0
sg167
I0
sg168
I0
sg169
I0
sg148
I0
sg170
I0
sg137
I0
sg140
I0
sg171
I0
sg142
I0
sg154
I0
sg172
I0
sg173
I0
sg153
I0
sg174
I0
sg175
I0
sg176
I0
sg177
I0
sg178
I0
sg179
I0
sg180
I0
sg181
I0
sg182
I0
sg183
I0
sg184
I0
sg185
I0
sg133
I0
sg132
I0
sg186
I0
sg187
I0
sg159
I0
sg130
I0
sg129
I0
sg160
I0
sg188
I0
sg189
I0
sg190
I0
sg143
I0
sg146
I0
sg191
I0
sg192
I0
sg193
I0
sg194
I0
sg195
I0
sg147
I0
sg196
I0
sg155
I0
sg197
I0
sg198
I0
sg199
I0
sg161
I0
sg200
I0
sg201
I0
sg202
I0
sg203
I0
sg204
I0
sg205
I0
sg206
I0
sg207
I0
sg208
I0
sg135
I0
sg134
I0
sg209
I0
sg210
I0
sg151
I0
sg211
I0
sg212
I0
sg213
I0
sg214
I0
sg215
I0
sg216
I0
sg158
I0
sg157
I0
sg139
I0
sg138
I0
sg217
I0
sg218
I0
sg145
I0
sg219
I0
sg150
I0
sg220
I0
sg149
I0
sg221
I0
sg222
I0
sg223
I0
sg152
I0
sg224
I0
sg225
I0
sg141
I0
sg226
I0
sg227
I0
sg228
I0
sg144
I0
sg131
I0
sg229
I0
sg230
I0
sg231
I0
sg232
I0
sg233
I0
sg234
I0
sg235
I0
sg236
I0
sg136
I0
sg237
I0
sg238
I0
sg239
I0
sg240
I0
sg241
I0
sg242
I0
sg243
I0
sg244
I0
sg245
I0
sg246
I0
sg247
I0
ssg121
(dp485
g346
I0
sg102
I0
sg435
I0
sg436
I0
sg348
I0
sg349
I0
sg252
I0
sg351
I0
sg92
I0
sg354
I0
sg355
I0
sg91
I0
sg397
I0
sg119
I0
sg85
I0
sg353
I0
sg116
I0
sg108
I0
sg259
I0
sg260
I0
sg261
I0
sg262
I0
sg120
I0
sg123
I0
sg90
I0
sg86
I0
sg437
I0
sg358
I0
sg359
I0
sg438
I0
sg439
I0
sg440
I0
sg360
I0
sg361
I0
sg83
I0
sg84
I0
sg393
I0
sg441
I0
sg268
I0
sg89
I0
sg442
I0
sg103
I0
sg106
I0
sg105
I0
sg98
I0
sg269
I0
sg270
I0
sg364
I0
sg363
I0
sg365
I0
sg443
I0
sg444
I0
sg122
I0
sg276
I0
sg88
I0
sg115
I0
sg87
I0
sg125
I0
sg124
I0
sg445
I0
sg111
I0
sg112
I0
sg345
I0
sg374
I0
sg446
I0
sg312
I0
sg376
I0
sg114
I0
sg113
I0
sg289
I0
sg121
I4
sg291
I0
sg99
I0
sg362
I0
sg380
I0
sg381
I0
sg382
I0
sg94
I0
sg447
I0
sg384
I0
sg101
I0
sg385
I0
sg386
I0
sg297
I0
sg387
I0
sg388
I0
sg389
I0
sg118
I0
sg100
I0
sg391
I0
sg95
I0
sg93
I0
sg80
I0
sg392
I0
sg117
I0
sg305
I0
sg448
I0
sg107
I0
sg306
I0
sg307
I0
sg350
I0
sg396
I0
sg104
I0
sg96
I0
sg310
I0
sg81
I0
sg109
I0
sg311
I0
sg97
I0
sg313
I0
sg314
I0
sg82
I0
sg449
I0
sg110
I0
ssg140
(dp486
g156
I0
sg166
I0
sg167
I0
sg168
I0
sg169
I0
sg148
I0
sg170
I0
sg137
I0
sg140
I0
sg171
I0
sg142
I0
sg154
I0
sg172
I0
sg173
I0
sg153
I0
sg174
I0
sg175
I0
sg176
I0
sg177
I0
sg178
I0
sg179
I0
sg180
I0
sg181
I0
sg182
I0
sg183
I0
sg184
I0
sg185
I0
sg133
I0
sg132
I0
sg186
I0
sg187
I0
sg159
I0
sg130
I0
sg129
I0
sg160
I0
sg188
I0
sg189
I0
sg190
I0
sg143
I0
sg146
I0
sg191
I0
sg192
I0
sg193
I0
sg194
I0
sg195
I0
sg147
I0
sg196
I0
sg155
I0
sg197
I0
sg198
I0
sg199
I0
sg161
I0
sg200
I0
sg201
I0
sg202
I0
sg203
I0
sg204
I0
sg205
I0
sg206
I0
sg207
I0
sg208
I0
sg135
I0
sg134
I0
sg209
I0
sg210
I0
sg151
I0
sg211
I0
sg212
I0
sg213
I0
sg214
I0
sg215
I0
sg216
I0
sg158
I0
sg157
I0
sg139
I0
sg138
I0
sg217
I0
sg218
I0
sg145
I0
sg219
I0
sg150
I0
sg220
I0
sg149
I0
sg221
I0
sg222
I0
sg223
I0
sg152
I0
sg224
I0
sg225
I0
sg141
I4
sg226
I0
sg227
I0
sg228
I0
sg144
I0
sg131
I0
sg229
I0
sg230
I0
sg231
I0
sg232
I0
sg233
I0
sg234
I0
sg235
I0
sg236
I0
sg136
I0
sg237
I0
sg238
I0
sg239
I0
sg240
I0
sg241
I0
sg242
I0
sg243
I0
sg244
I0
sg245
I0
sg246
I0
sg247
I0
ssg71
(dp487
g399
I0
sg14
I0
sg400
I0
sg63
I0
sg17
I0
sg55
I0
sg79
I0
sg71
I4
sg401
I0
sg402
I0
sg34
I0
sg403
I0
sg27
I0
sg404
I0
sg45
I0
sg37
I0
sg68
I0
sg24
I0
sg405
I0
sg406
I0
sg25
I0
sg26
I0
sg18
I0
sg407
I0
sg408
I0
sg409
I0
sg22
I0
sg21
I0
sg410
I0
sg12
I0
sg411
I0
sg412
I0
sg61
I0
sg60
I0
sg413
I0
sg414
I0
sg29
I0
sg9
I0
sg65
I0
sg8
I0
sg62
I0
sg64
I0
sg44
I0
sg30
I0
sg415
I0
sg416
I0
sg28
I0
sg52
I0
sg73
I0
sg72
I0
sg67
I0
sg77
I0
sg70
I0
sg58
I0
sg41
I0
sg54
I0
sg50
I0
sg46
I0
sg49
I0
sg66
I0
sg53
I0
sg417
I0
sg418
I0
sg16
I0
sg419
I0
sg69
I0
sg15
I0
sg75
I0
sg74
I0
sg420
I0
sg127
I0
sg51
I0
sg56
I0
sg421
I0
sg422
I0
sg20
I0
sg59
I0
sg40
I0
sg57
I0
sg38
I0
sg31
I0
sg10
I0
sg423
I0
sg424
I0
sg425
I0
sg126
I0
sg78
I0
sg76
I0
sg13
I0
sg426
I0
sg33
I0
sg11
I0
sg47
I0
sg35
I0
sg43
I0
sg42
I0
sg427
I0
sg428
I0
sg36
I0
sg39
I0
sg429
I0
sg430
I0
sg19
I0
sg32
I0
sg128
I0
sg431
I0
sg23
I0
sg432
I0
sg433
I0
sg48
I0
ssg92
(dp488
g249
I0
sg102
I0
sg250
I0
sg251
I0
sg252
I0
sg253
I0
sg254
I0
sg255
I0
sg92
I4
sg256
I0
sg91
I0
sg115
I0
sg119
I0
sg85
I0
sg257
I0
sg258
I0
sg116
I0
sg108
I0
sg259
I0
sg260
I0
sg261
I0
sg262
I0
sg120
I0
sg123
I0
sg90
I0
sg86
I0
sg263
I0
sg128
I0
sg264
I0
sg265
I0
sg266
I0
sg83
I0
sg84
I0
sg117
I0
sg267
I0
sg268
I0
sg89
I0
sg106
I0
sg105
I0
sg98
I0
sg269
I0
sg270
I0
sg103
I0
sg271
I0
sg272
I0
sg273
I0
sg274
I0
sg122
I0
sg275
I0
sg276
I0
sg88
I0
sg121
I0
sg87
I0
sg125
I0
sg124
I0
sg277
I0
sg111
I0
sg112
I0
sg278
I0
sg279
I0
sg280
I0
sg281
I0
sg282
I0
sg283
I0
sg284
I0
sg285
I0
sg286
I0
sg287
I0
sg288
I0
sg114
I0
sg113
I0
sg289
I0
sg97
I0
sg290
I0
sg291
I0
sg99
I0
sg292
I0
sg293
I0
sg294
I0
sg94
I0
sg127
I0
sg295
I0
sg296
I0
sg101
I0
sg297
I0
sg298
I0
sg299
I0
sg300
I0
sg118
I0
sg100
I0
sg301
I0
sg95
I0
sg93
I0
sg80
I0
sg302
I0
sg303
I0
sg126
I0
sg304
I0
sg305
I0
sg107
I0
sg306
I0
sg307
I0
sg308
I0
sg309
I0
sg104
I0
sg96
I0
sg310
I0
sg81
I0
sg109
I0
sg311
I0
sg312
I0
sg313
I0
sg314
I0
sg82
I0
sg315
I0
sg110
I0
sg316
I0
ssg142
(dp489
g156
I0
sg166
I0
sg167
I0
sg168
I0
sg169
I0
sg148
I0
sg170
I0
sg137
I0
sg140
I0
sg171
I0
sg142
I4
sg154
I0
sg172
I0
sg173
I0
sg153
I0
sg174
I0
sg175
I0
sg176
I0
sg177
I0
sg178
I0
sg179
I0
sg180
I0
sg181
I0
sg182
I0
sg183
I0
sg184
I0
sg185
I0
sg133
I0
sg132
I0
sg186
I0
sg187
I0
sg159
I0
sg130
I0
sg129
I0
sg160
I0
sg188
I0
sg189
I0
sg190
I0
sg143
I0
sg146
I0
sg191
I0
sg192
I0
sg193
I0
sg194
I0
sg195
I0
sg147
I0
sg196
I0
sg155
I0
sg197
I0
sg198
I0
sg199
I0
sg161
I0
sg200
I0
sg201
I0
sg202
I0
sg203
I0
sg204
I0
sg205
I0
sg206
I0
sg207
I0
sg208
I0
sg135
I0
sg134
I0
sg209
I0
sg210
I0
sg151
I0
sg211
I0
sg212
I0
sg213
I0
sg214
I0
sg215
I0
sg216
I0
sg158
I0
sg157
I0
sg139
I0
sg138
I0
sg217
I0
sg218
I0
sg145
I0
sg219
I0
sg150
I0
sg220
I0
sg149
I0
sg221
I0
sg222
I0
sg223
I0
sg152
I0
sg224
I0
sg225
I0
sg141
I0
sg226
I0
sg227
I0
sg228
I0
sg144
I0
sg131
I0
sg229
I0
sg230
I0
sg231
I0
sg232
I0
sg233
I0
sg234
I0
sg235
I0
sg236
I0
sg136
I0
sg237
I0
sg238
I0
sg239
I0
sg240
I0
sg241
I0
sg242
I0
sg243
I0
sg244
I0
sg245
I0
sg246
I0
sg247
I0
ssg154
(dp490
g156
I0
sg167
I0
sg191
I0
sg210
I0
sg169
I0
sg318
I0
sg148
I0
sg170
I0
sg137
I0
sg140
I0
sg142
I0
sg154
I0
sg173
I0
sg153
I0
sg174
I0
sg175
I0
sg176
I0
sg177
I0
sg319
I0
sg179
I0
sg181
I0
sg183
I0
sg184
I0
sg185
I0
sg133
I0
sg132
I0
sg186
I0
sg187
I0
sg159
I0
sg130
I0
sg129
I0
sg160
I0
sg188
I0
sg189
I0
sg190
I0
sg143
I0
sg196
I0
sg168
I0
sg192
I0
sg193
I0
sg194
I0
sg195
I0
sg147
I0
sg146
I0
sg155
I0
sg197
I0
sg198
I0
sg199
I0
sg161
I0
sg200
I0
sg320
I0
sg201
I0
sg202
I0
sg203
I0
sg204
I0
sg205
I0
sg206
I0
sg321
I0
sg207
I0
sg208
I0
sg135
I0
sg134
I0
sg209
I0
sg322
I0
sg323
I0
sg151
I0
sg324
I0
sg325
I0
sg326
I0
sg211
I0
sg212
I0
sg213
I0
sg214
I0
sg215
I0
sg216
I0
sg158
I0
sg157
I0
sg139
I0
sg138
I0
sg327
I0
sg145
I0
sg328
I0
sg150
I0
sg220
I0
sg149
I0
sg221
I0
sg222
I0
sg223
I0
sg152
I0
sg329
I0
sg224
I0
sg218
I0
sg141
I0
sg228
I0
sg144
I0
sg131
I0
sg230
I0
sg231
I0
sg232
I0
sg233
I0
sg234
I0
sg235
I0
sg330
I0
sg236
I0
sg136
I0
sg237
I0
sg238
I0
sg239
I0
sg240
I0
sg241
I0
sg242
I0
sg244
I0
sg245
I0
sg246
I0
sg247
I0
sg331
I0
ssg91
(dp491
g249
I0
sg102
I0
sg347
I0
sg252
I0
sg308
I0
sg253
I0
sg352
I0
sg255
I0
sg92
I0
sg256
I0
sg91
I0
sg115
I0
sg119
I0
sg85
I0
sg356
I0
sg116
I0
sg108
I0
sg259
I0
sg260
I0
sg261
I0
sg262
I0
sg120
I0
sg123
I0
sg90
I0
sg86
I0
sg357
I0
sg264
I0
sg265
I0
sg100
I0
sg266
I0
sg83
I0
sg84
I0
sg117
I0
sg268
I0
sg89
I0
sg106
I0
sg105
I0
sg98
I0
sg269
I0
sg270
I0
sg103
I0
sg366
I0
sg367
I0
sg368
I0
sg122
I0
sg276
I0
sg88
I0
sg121
I0
sg87
I0
sg125
I0
sg124
I0
sg369
I0
sg370
I0
sg371
I0
sg372
I0
sg373
I0
sg281
I0
sg375
I0
sg312
I0
sg377
I0
sg114
I0
sg113
I0
sg289
I0
sg97
I0
sg378
I0
sg291
I0
sg99
I0
sg379
I0
sg293
I0
sg294
I0
sg94
I0
sg383
I0
sg101
I0
sg297
I0
sg298
I0
sg118
I0
sg390
I0
sg301
I0
sg95
I0
sg93
I0
sg80
I0
sg302
I0
sg303
I0
sg394
I0
sg395
I0
sg305
I0
sg107
I0
sg306
I0
sg307
I0
sg111
I0
sg309
I0
sg104
I0
sg96
I0
sg310
I0
sg81
I0
sg109
I0
sg311
I0
sg313
I0
sg314
I0
sg82
I0
sg112
I0
sg110
I0
ssg34
(dp492
g135
I0
sg156
I0
sg14
I0
sg63
I0
sg17
I0
sg134
I0
sg55
I0
sg148
I0
sg79
I0
sg137
I0
sg140
I0
sg71
I0
sg142
I0
sg154
I0
sg34
I0
sg153
I0
sg451
I0
sg27
I0
sg45
I0
sg37
I0
sg68
I0
sg24
I0
sg452
I0
sg25
I0
sg133
I0
sg132
I0
sg26
I0
sg18
I0
sg159
I0
sg130
I0
sg129
I0
sg453
I0
sg131
I0
sg22
I0
sg21
I0
sg158
I0
sg454
I0
sg143
I0
sg12
I0
sg193
I0
sg61
I0
sg60
I0
sg147
I0
sg146
I0
sg155
I0
sg29
I0
sg9
I0
sg65
I0
sg8
I0
sg62
I0
sg64
I0
sg161
I0
sg44
I0
sg30
I0
sg455
I0
sg456
I0
sg28
I0
sg52
I0
sg73
I0
sg72
I0
sg67
I0
sg77
I0
sg70
I0
sg58
I0
sg41
I0
sg54
I0
sg50
I0
sg151
I0
sg46
I0
sg49
I0
sg66
I0
sg53
I0
sg216
I0
sg16
I0
sg214
I0
sg69
I0
sg15
I0
sg75
I0
sg74
I0
sg157
I0
sg139
I0
sg138
I0
sg457
I0
sg51
I0
sg145
I0
sg56
I0
sg150
I0
sg149
I0
sg20
I0
sg458
I0
sg59
I0
sg40
I0
sg152
I0
sg57
I0
sg38
I0
sg31
I0
sg10
I0
sg141
I0
sg459
I0
sg460
I0
sg144
I0
sg160
I0
sg78
I0
sg76
I0
sg13
I0
sg33
I0
sg11
I0
sg47
I0
sg35
I4
sg43
I0
sg42
I0
sg136
I0
sg36
I0
sg39
I0
sg461
I0
sg19
I0
sg32
I0
sg462
I0
sg463
I0
sg23
I0
sg48
I0
ssg153
(dp493
g156
I0
sg167
I0
sg191
I0
sg210
I0
sg169
I0
sg318
I0
sg148
I0
sg170
I0
sg137
I0
sg140
I0
sg142
I0
sg154
I4
sg173
I0
sg153
I0
sg174
I0
sg175
I0
sg176
I0
sg177
I0
sg319
I0
sg179
I0
sg181
I0
sg183
I0
sg184
I0
sg185
I0
sg133
I0
sg132
I0
sg186
I0
sg187
I0
sg159
I0
sg130
I0
sg129
I0
sg160
I0
sg188
I0
sg189
I0
sg190
I0
sg143
I0
sg196
I0
sg168
I0
sg192
I0
sg193
I0
sg194
I0
sg195
I0
sg147
I0
sg146
I0
sg155
I0
sg197
I0
sg198
I0
sg199
I0
sg161
I0
sg200
I0
sg320
I0
sg201
I0
sg202
I0
sg203
I0
sg204
I0
sg205
I0
sg206
I0
sg321
I0
sg207
I0
sg208
I0
sg135
I0
sg134
I0
sg209
I0
sg322
I0
sg323
I0
sg151
I0
sg324
I0
sg325
I0
sg326
I0
sg211
I0
sg212
I0
sg213
I0
sg214
I0
sg215
I0
sg216
I0
sg158
I0
sg157
I0
sg139
I0
sg138
I0
sg327
I0
sg145
I0
sg328
I0
sg150
I0
sg220
I0
sg149
I0
sg221
I0
sg222
I0
sg223
I0
sg152
I0
sg329
I0
sg224
I0
sg218
I0
sg141
I0
sg228
I0
sg144
I0
sg131
I0
sg230
I0
sg231
I0
sg232
I0
sg233
I0
sg234
I0
sg235
I0
sg330
I0
sg236
I0
sg136
I0
sg237
I0
sg238
I0
sg239
I0
sg240
I0
sg241
I0
sg242
I0
sg244
I0
sg245
I0
sg246
I0
sg247
I0
sg331
I0
ssg119
(dp494
g346
I0
sg102
I0
sg435
I0
sg436
I0
sg348
I0
sg349
I0
sg252
I0
sg351
I0
sg92
I0
sg354
I0
sg355
I0
sg91
I0
sg115
I0
sg119
I0
sg85
I0
sg353
I0
sg116
I0
sg108
I0
sg259
I0
sg260
I0
sg261
I0
sg262
I0
sg120
I0
sg123
I0
sg90
I0
sg86
I0
sg437
I0
sg358
I0
sg359
I0
sg438
I0
sg439
I0
sg440
I0
sg360
I0
sg361
I0
sg83
I0
sg84
I0
sg393
I0
sg441
I0
sg268
I0
sg89
I0
sg442
I0
sg103
I0
sg106
I0
sg105
I0
sg98
I0
sg269
I0
sg270
I0
sg364
I0
sg363
I0
sg365
I0
sg443
I0
sg444
I0
sg122
I0
sg276
I0
sg88
I0
sg121
I0
sg87
I0
sg125
I0
sg124
I0
sg445
I0
sg111
I0
sg112
I0
sg345
I0
sg374
I0
sg446
I0
sg312
I0
sg376
I0
sg114
I0
sg113
I0
sg289
I0
sg97
I0
sg291
I0
sg99
I0
sg362
I0
sg380
I0
sg381
I0
sg382
I0
sg94
I0
sg447
I0
sg384
I0
sg101
I0
sg385
I0
sg386
I0
sg297
I0
sg387
I0
sg388
I0
sg389
I0
sg118
I0
sg100
I0
sg391
I0
sg95
I0
sg93
I0
sg80
I0
sg392
I0
sg117
I0
sg305
I0
sg448
I0
sg107
I0
sg306
I0
sg307
I0
sg350
I0
sg396
I0
sg104
I0
sg96
I0
sg310
I0
sg81
I0
sg109
I0
sg311
I0
sg397
I0
sg313
I0
sg314
I0
sg82
I0
sg449
I0
sg110
I0
ssg85
(dp495
g102
I0
sg250
I0
sS'bowl.n.01'
p496
I0
sg251
I0
sg252
I0
sg254
I0
sg92
I0
sg91
I0
sS'fork.n.01'
p497
I0
sg115
I0
sg119
I0
sg85
I4
sg257
I0
sg258
I0
sg116
I0
sg108
I0
sg259
I0
sg260
I0
sg261
I0
sg262
I0
sg120
I0
sg123
I0
sg90
I0
sg86
I0
sg263
I0
sg128
I0
sS'bowling_ball.n.01'
p498
I0
sg83
I0
sg84
I0
sg117
I0
sg267
I0
sg268
I0
sg89
I0
sg106
I0
sg105
I0
sg98
I0
sg269
I0
sg270
I0
sg103
I0
sS'wok.n.01'
p499
I0
sg271
I0
sg272
I0
sg273
I0
sg274
I0
sg122
I0
sg275
I0
sg276
I0
sg88
I0
sg121
I0
sg87
I0
sg125
I0
sg124
I0
sg277
I0
sg111
I0
sg112
I0
sg278
I0
sg279
I0
sg280
I0
sg282
I0
sg283
I0
sg284
I0
sg285
I0
sg286
I0
sg287
I0
sg288
I0
sg114
I0
sg113
I0
sg289
I0
sg97
I0
sg290
I0
sg291
I0
sg99
I0
sg292
I0
sg94
I0
sg127
I0
sg295
I0
sg296
I0
sg101
I0
sg297
I0
sg299
I0
sS'cut.n.16'
p500
I0
sg300
I0
sg118
I0
sg100
I0
sS'salt.n.02'
p501
I0
sg95
I0
sg93
I0
sg80
I0
sg126
I0
sg304
I0
sg305
I0
sg107
I0
sS'saltcellar.n.01'
p502
I0
sg306
I0
sg307
I0
sS'crotch.n.02'
p503
I0
sS'bag.n.05'
p504
I0
sS'bag.n.01'
p505
I0
sg104
I0
sg96
I0
sg310
I0
sS'blend.v.01'
p506
I0
sg81
I0
sg109
I0
sg311
I0
sg312
I0
sg313
I0
sg314
I0
sg82
I0
sg315
I0
sg110
I0
sg316
I0
ssg27
(dp507
g135
I0
sg166
I0
sg156
I0
sg14
I0
sg191
I0
sg63
I0
sg210
I0
sg17
I0
sg55
I0
sg148
I0
sg79
I0
sg137
I0
sg140
I0
sg71
I0
sg171
I0
sg142
I0
sg154
I0
sg172
I0
sg34
I0
sg153
I0
sg174
I0
sg27
I4
sg176
I0
sg177
I0
sg45
I0
sg37
I0
sg68
I0
sg24
I0
sg182
I0
sg183
I0
sg184
I0
sg25
I0
sg133
I0
sg132
I0
sg26
I0
sg18
I0
sg159
I0
sg130
I0
sg129
I0
sg131
I0
sg22
I0
sg21
I0
sg158
I0
sg190
I0
sg143
I2
sg196
I0
sg12
I0
sg192
I0
sg193
I0
sg61
I0
sg60
I0
sg147
I0
sg146
I0
sg155
I0
sg29
I0
sg9
I0
sg65
I0
sg8
I0
sg62
I0
sg64
I0
sg161
I0
sg200
I0
sg44
I0
sg30
I0
sg13
I0
sg203
I0
sg204
I0
sg205
I0
sg28
I0
sg52
I0
sg73
I0
sg72
I0
sg67
I0
sg77
I0
sg70
I0
sg134
I0
sg41
I0
sg54
I0
sg50
I0
sg151
I0
sg46
I0
sg49
I0
sg66
I0
sg53
I0
sg216
I0
sg212
I0
sg16
I0
sg214
I0
sg69
I0
sg15
I0
sg75
I0
sg74
I0
sg157
I0
sg139
I0
sg138
I0
sg217
I0
sg51
I0
sg145
I0
sg56
I0
sg219
I0
sg150
I0
sg220
I0
sg149
I0
sg20
I0
sg59
I0
sg40
I0
sg152
I0
sg57
I0
sg38
I0
sg225
I0
sg10
I0
sg141
I0
sg226
I0
sg227
I0
sg228
I0
sg144
I0
sg160
I2
sg78
I0
sg76
I0
sg230
I0
sg33
I0
sg11
I0
sg47
I0
sg35
I0
sg43
I0
sg42
I0
sg136
I0
sg237
I0
sg238
I0
sg36
I0
sg39
I0
sg208
I0
sg241
I0
sg19
I0
sg243
I0
sg32
I0
sg31
I0
sg207
I0
sg211
I0
sg23
I0
sg48
I0
sg247
I0
sg58
I0
ssg108
(dp508
g345
I0
sg102
I0
sg346
I0
sg347
I0
sg348
I0
sg349
I0
sg252
I0
sg350
I0
sg351
I0
sg352
I0
sg353
I0
sg92
I0
sg354
I0
sg355
I0
sg91
I0
sg115
I0
sg119
I0
sg85
I0
sg356
I0
sg116
I0
sg108
I4
sg259
I0
sg260
I0
sg261
I0
sg262
I0
sg120
I0
sg123
I0
sg90
I0
sg86
I0
sg357
I0
sg358
I0
sg359
I0
sg360
I0
sg100
I0
sg361
I0
sg83
I0
sg84
I0
sg117
I0
sg268
I0
sg362
I0
sg89
I0
sg363
I0
sg106
I0
sg105
I0
sg98
I0
sg269
I0
sg270
I0
sg364
I0
sg103
I0
sg365
I0
sg366
I0
sg367
I0
sg368
I0
sg122
I0
sg276
I0
sg88
I0
sg121
I0
sg87
I0
sg125
I0
sg124
I0
sg369
I0
sg370
I0
sg371
I0
sg372
I0
sg373
I0
sg374
I0
sg375
I0
sg312
I0
sg376
I0
sg377
I0
sg114
I0
sg113
I0
sg289
I0
sg97
I0
sg378
I0
sg291
I0
sg99
I0
sg379
I0
sg380
I0
sg381
I0
sg382
I0
sg94
I0
sg383
I0
sg384
I0
sg101
I0
sg385
I0
sg386
I0
sg297
I0
sg387
I0
sg388
I0
sg389
I0
sg118
I0
sg390
I0
sg391
I0
sg95
I0
sg93
I0
sg80
I0
sg392
I0
sg393
I0
sg394
I0
sg395
I0
sg305
I0
sg107
I0
sg306
I0
sg307
I0
sg111
I0
sg396
I0
sg104
I0
sg96
I0
sg310
I0
sg81
I0
sg109
I0
sg311
I0
sg397
I0
sg313
I0
sg314
I0
sg82
I0
sg112
I0
sg110
I0
ssg116
(dp509
g346
I0
sg102
I0
sg435
I0
sg436
I0
sg348
I0
sg349
I0
sg252
I0
sg351
I0
sg92
I0
sg354
I0
sg355
I0
sg91
I0
sg115
I0
sg119
I0
sg85
I0
sg353
I0
sg108
I0
sg116
I4
sg259
I0
sg260
I0
sg261
I0
sg262
I0
sg120
I0
sg123
I0
sg90
I0
sg86
I0
sg437
I0
sg358
I0
sg359
I0
sg438
I0
sg439
I0
sg440
I0
sg360
I0
sg361
I0
sg83
I0
sg84
I0
sg393
I0
sg441
I0
sg268
I0
sg89
I0
sg442
I0
sg103
I0
sg106
I0
sg105
I0
sg98
I0
sg269
I0
sg270
I0
sg364
I0
sg363
I0
sg365
I0
sg443
I0
sg444
I0
sg122
I0
sg276
I0
sg88
I0
sg121
I0
sg87
I0
sg125
I0
sg124
I0
sg445
I0
sg111
I0
sg112
I0
sg345
I0
sg374
I0
sg446
I0
sg312
I0
sg376
I0
sg114
I0
sg113
I0
sg289
I0
sg97
I0
sg291
I0
sg99
I0
sg362
I0
sg380
I0
sg381
I0
sg382
I0
sg94
I0
sg447
I0
sg384
I0
sg101
I0
sg385
I0
sg386
I0
sg297
I0
sg387
I0
sg388
I0
sg389
I0
sg118
I0
sg100
I0
sg391
I0
sg95
I0
sg93
I0
sg80
I0
sg392
I0
sg117
I0
sg305
I0
sg448
I0
sg107
I0
sg306
I0
sg307
I0
sg350
I0
sg396
I0
sg104
I0
sg96
I0
sg310
I0
sg81
I0
sg109
I0
sg311
I0
sg397
I0
sg313
I0
sg314
I0
sg82
I0
sg449
I0
sg110
I0
ssg45
(dp510
g466
I0
sg102
I0
sg14
I0
sg106
I0
sg63
I0
sg118
I0
sg17
I0
sg281
I0
sg55
I0
sg467
I0
sg79
I0
sg308
I0
sg121
I0
sg253
I0
sg71
I0
sg92
I0
sg256
I0
sg468
I0
sg91
I0
sg34
I0
sg469
I0
sg119
I0
sg85
I0
sg27
I0
sg108
I0
sg116
I0
sg45
I12
sg37
I0
sg68
I0
sg24
I0
sg120
I0
sg123
I0
sg90
I0
sg86
I0
sg25
I0
sg249
I0
sg128
I0
sg264
I0
sg265
I0
sg26
I0
sg18
I0
sg470
I0
sg266
I0
sg83
I0
sg84
I0
sg117
I0
sg22
I0
sg21
I0
sg471
I0
sg89
I0
sg473
I0
sg474
I0
sg12
I0
sg105
I0
sg98
I0
sg61
I0
sg60
I0
sg472
I0
sg103
I0
sg114
I0
sg29
I0
sg9
I0
sg65
I0
sg8
I0
sg62
I0
sg64
I0
sg475
I0
sg122
I0
sg44
I0
sg30
I0
sg88
I0
sg115
I0
sg87
I0
sg125
I0
sg124
I0
sg28
I0
sg52
I0
sg73
I0
sg72
I0
sg67
I0
sg77
I0
sg70
I0
sg58
I0
sg41
I0
sg54
I0
sg50
I0
sg476
I0
sg46
I0
sg49
I0
sg66
I0
sg53
I0
sg99
I0
sg113
I0
sg16
I0
sg97
I0
sg69
I0
sg15
I0
sg75
I0
sg74
I0
sg477
I0
sg293
I0
sg294
I0
sg94
I0
sg127
I0
sg51
I0
sg478
I0
sg56
I0
sg101
I0
sg479
I0
sg480
I0
sg111
I0
sg20
I0
sg298
I0
sg59
I0
sg40
I0
sg481
I0
sg57
I0
sg38
I0
sg100
I0
sg10
I0
sg301
I0
sg95
I0
sg93
I8
sg80
I0
sg302
I0
sg303
I0
sg126
I0
sg78
I0
sg76
I0
sg13
I0
sg107
I0
sg33
I0
sg11
I0
sg47
I0
sg35
I0
sg43
I0
sg42
I0
sg309
I0
sg104
I0
sg96
I0
sg36
I0
sg39
I0
sg81
I0
sg109
I0
sg19
I0
sg32
I0
sg31
I0
sg82
I0
sg23
I0
sg112
I0
sg110
I0
sg48
I0
ssg37
(dp511
g135
I0
sg102
I0
sg156
I0
sg14
I0
sg106
I0
sg63
I0
sg118
I0
sg17
I0
sg134
I0
sg55
I0
sg148
I0
sg79
I0
sg137
I0
sg121
I0
sg140
I0
sg71
I0
sg92
I0
sg142
I0
sg154
I0
sg91
I0
sg34
I0
sg153
I0
sg119
I0
sg85
I0
sg27
I0
sg108
I0
sg116
I0
sg45
I0
sg37
I0
sg68
I0
sg24
I0
sg120
I0
sg123
I0
sg90
I0
sg86
I0
sg25
I0
sg128
I0
sg133
I0
sg132
I0
sg26
I0
sg18
I0
sg160
I0
sg159
I0
sg130
I0
sg83
I0
sg84
I0
sg117
I0
sg22
I0
sg21
I0
sg158
I0
sg89
I0
sg143
I0
sg146
I0
sg155
I0
sg12
I0
sg105
I0
sg98
I0
sg61
I0
sg60
I0
sg147
I0
sg103
I0
sg114
I0
sg29
I0
sg9
I0
sg65
I0
sg8
I0
sg62
I0
sg64
I0
sg161
I0
sg122
I0
sg44
I0
sg30
I0
sg88
I0
sg115
I0
sg87
I0
sg125
I0
sg124
I0
sg28
I0
sg52
I0
sg73
I0
sg72
I0
sg67
I0
sg77
I0
sg70
I0
sg58
I0
sg41
I0
sg54
I0
sg50
I0
sg151
I0
sg46
I0
sg49
I0
sg66
I0
sg53
I4
sg99
I0
sg113
I0
sg16
I0
sg97
I0
sg69
I0
sg15
I0
sg75
I0
sg74
I0
sg157
I0
sg139
I0
sg138
I0
sg94
I0
sg127
I0
sg51
I0
sg145
I0
sg56
I0
sg101
I0
sg150
I0
sg149
I0
sg111
I0
sg20
I0
sg129
I0
sg59
I0
sg40
I0
sg152
I0
sg57
I0
sg38
I12
sg100
I0
sg10
I0
sg141
I0
sg95
I0
sg93
I0
sg80
I0
sg144
I0
sg131
I0
sg126
I0
sg78
I0
sg76
I0
sg13
I0
sg107
I0
sg33
I0
sg11
I0
sg47
I0
sg35
I0
sg43
I0
sg42
I0
sg136
I0
sg104
I0
sg96
I0
sg36
I0
sg39
I0
sg81
I0
sg109
I0
sg19
I0
sg32
I0
sg31
I0
sg82
I0
sg23
I0
sg112
I0
sg110
I0
sg48
I0
ssg68
(dp512
g249
I0
sg102
I0
sg14
I0
sg106
I0
sg63
I0
sg118
I0
sg17
I0
sg281
I0
sg55
I0
sg79
I0
sg308
I0
sg121
I0
sg253
I0
sg71
I0
sg92
I0
sg256
I0
sg91
I0
sg34
I0
sg119
I0
sg85
I0
sg27
I0
sg108
I0
sg116
I0
sg45
I0
sg37
I0
sg68
I0
sg24
I0
sg120
I0
sg123
I0
sg90
I0
sg86
I0
sg25
I0
sg128
I0
sg264
I0
sg265
I0
sg26
I0
sg18
I0
sg266
I0
sg83
I0
sg84
I0
sg117
I0
sg22
I0
sg21
I0
sg89
I0
sg12
I0
sg105
I0
sg98
I0
sg61
I0
sg60
I0
sg103
I0
sg114
I0
sg29
I0
sg9
I0
sg65
I0
sg8
I0
sg62
I0
sg64
I0
sg122
I0
sg44
I0
sg30
I0
sg13
I0
sg115
I0
sg87
I0
sg125
I0
sg124
I0
sg28
I0
sg52
I0
sg73
I0
sg72
I0
sg67
I0
sg77
I0
sg70
I0
sg58
I0
sg41
I0
sg54
I0
sg50
I0
sg46
I0
sg49
I0
sg66
I0
sg53
I0
sg99
I0
sg113
I0
sg16
I0
sg97
I0
sg69
I0
sg15
I0
sg75
I0
sg74
I0
sg293
I0
sg294
I0
sg94
I0
sg127
I0
sg51
I0
sg56
I0
sg101
I0
sg111
I0
sg20
I0
sg298
I0
sg59
I0
sg40
I0
sg57
I0
sg38
I0
sg100
I0
sg10
I0
sg301
I0
sg95
I0
sg93
I0
sg80
I0
sg302
I0
sg303
I0
sg126
I0
sg78
I0
sg76
I0
sg88
I0
sg107
I0
sg33
I0
sg11
I0
sg47
I0
sg35
I0
sg43
I0
sg42
I0
sg309
I0
sg104
I0
sg96
I0
sg36
I0
sg39
I0
sg81
I0
sg109
I0
sg19
I0
sg32
I0
sg31
I0
sg82
I0
sg23
I0
sg112
I0
sg110
I0
sg48
I0
ssg24
(dp513
g135
I0
sg102
I0
sg156
I0
sg14
I0
sg106
I0
sg63
I0
sg118
I0
sg17
I0
sg134
I0
sg55
I0
sg148
I0
sg79
I0
sg137
I0
sg121
I0
sg140
I0
sg71
I0
sg92
I0
sg142
I0
sg154
I0
sg91
I0
sg34
I0
sg153
I0
sg119
I0
sg85
I0
sg27
I0
sg108
I0
sg116
I0
sg45
I0
sg37
I0
sg68
I4
sg24
I0
sg120
I0
sg123
I4
sg90
I0
sg86
I0
sg25
I4
sg128
I0
sg133
I0
sg132
I0
sg26
I0
sg18
I0
sg160
I0
sg159
I0
sg130
I0
sg83
I0
sg84
I0
sg117
I0
sg22
I0
sg21
I0
sg158
I0
sg89
I0
sg143
I0
sg146
I0
sg155
I0
sg12
I0
sg105
I0
sg98
I0
sg61
I0
sg60
I0
sg147
I0
sg103
I0
sg114
I0
sg29
I0
sg9
I0
sg65
I0
sg8
I0
sg62
I0
sg64
I0
sg161
I0
sg122
I0
sg44
I0
sg30
I0
sg88
I0
sg115
I0
sg87
I0
sg125
I0
sg124
I0
sg28
I0
sg52
I0
sg73
I0
sg72
I0
sg67
I0
sg77
I0
sg70
I0
sg58
I0
sg41
I0
sg54
I0
sg50
I0
sg151
I0
sg46
I0
sg49
I0
sg66
I0
sg53
I0
sg99
I0
sg113
I0
sg16
I0
sg97
I0
sg69
I0
sg15
I0
sg75
I0
sg74
I0
sg157
I0
sg139
I0
sg138
I0
sg94
I0
sg127
I0
sg51
I0
sg145
I0
sg56
I0
sg101
I0
sg150
I0
sg149
I0
sg111
I0
sg20
I0
sg129
I0
sg59
I0
sg40
I0
sg152
I0
sg57
I0
sg38
I0
sg100
I0
sg10
I0
sg141
I0
sg95
I0
sg93
I0
sg80
I0
sg144
I0
sg131
I0
sg126
I0
sg78
I0
sg76
I0
sg13
I0
sg107
I0
sg33
I0
sg11
I0
sg47
I0
sg35
I0
sg43
I0
sg42
I0
sg136
I0
sg104
I0
sg96
I0
sg36
I0
sg39
I0
sg81
I0
sg109
I0
sg19
I0
sg32
I0
sg31
I0
sg82
I0
sg23
I0
sg112
I0
sg110
I0
sg48
I0
ssg120
(dp514
g346
I0
sg102
I0
sg435
I0
sg436
I0
sg348
I0
sg349
I0
sg252
I0
sg351
I0
sg92
I0
sg354
I0
sg355
I0
sg91
I0
sg115
I0
sg119
I0
sg85
I0
sg353
I0
sg116
I0
sg108
I0
sg259
I0
sg260
I0
sg261
I0
sg262
I0
sg120
I4
sg123
I0
sg90
I0
sg86
I0
sg437
I0
sg358
I0
sg359
I0
sg438
I0
sg439
I0
sg440
I0
sg360
I0
sg361
I0
sg83
I0
sg84
I0
sg393
I0
sg441
I0
sg268
I0
sg89
I0
sg442
I0
sg103
I0
sg106
I0
sg105
I0
sg98
I0
sg269
I0
sg270
I0
sg364
I0
sg363
I0
sg365
I0
sg443
I0
sg444
I0
sg122
I0
sg276
I0
sg88
I0
sg121
I0
sg87
I0
sg125
I0
sg124
I0
sg445
I0
sg111
I0
sg112
I0
sg345
I0
sg374
I0
sg446
I0
sg312
I0
sg376
I0
sg114
I0
sg113
I0
sg289
I0
sg97
I0
sg291
I0
sg99
I0
sg362
I0
sg380
I0
sg381
I0
sg382
I0
sg94
I0
sg447
I0
sg384
I0
sg101
I0
sg385
I0
sg386
I0
sg297
I0
sg387
I0
sg388
I0
sg389
I0
sg118
I0
sg100
I0
sg391
I0
sg95
I0
sg93
I0
sg80
I0
sg392
I0
sg117
I0
sg305
I0
sg448
I0
sg107
I0
sg306
I0
sg307
I0
sg350
I0
sg396
I0
sg104
I0
sg96
I0
sg310
I0
sg81
I0
sg109
I0
sg311
I0
sg397
I0
sg313
I0
sg314
I0
sg82
I0
sg449
I0
sg110
I0
ssg123
(dp515
g346
I0
sg102
I0
sg435
I0
sg436
I0
sg348
I0
sg349
I0
sg252
I0
sg351
I0
sg92
I0
sg354
I0
sg355
I0
sg91
I0
sg115
I0
sg119
I0
sg85
I0
sg353
I0
sg116
I0
sg108
I0
sg259
I0
sg260
I0
sg261
I0
sg262
I0
sg120
I0
sg123
I0
sg90
I0
sg86
I0
sg437
I0
sg358
I0
sg359
I0
sg438
I0
sg439
I0
sg440
I0
sg360
I0
sg361
I0
sg83
I0
sg84
I0
sg393
I0
sg441
I0
sg268
I0
sg89
I0
sg442
I0
sg103
I0
sg106
I0
sg105
I0
sg98
I0
sg269
I0
sg270
I0
sg364
I0
sg363
I0
sg365
I0
sg443
I0
sg444
I0
sg122
I0
sg276
I0
sg88
I0
sg121
I0
sg87
I0
sg125
I0
sg124
I0
sg445
I0
sg111
I0
sg112
I0
sg345
I0
sg374
I0
sg446
I0
sg312
I0
sg376
I0
sg114
I0
sg113
I0
sg289
I0
sg97
I0
sg291
I0
sg99
I0
sg362
I0
sg380
I0
sg381
I0
sg382
I0
sg94
I0
sg447
I0
sg384
I0
sg101
I0
sg385
I0
sg386
I0
sg297
I0
sg387
I0
sg388
I0
sg389
I0
sg118
I0
sg100
I0
sg391
I0
sg95
I0
sg93
I0
sg80
I0
sg392
I0
sg117
I0
sg305
I0
sg448
I0
sg107
I0
sg306
I0
sg307
I0
sg350
I0
sg396
I0
sg104
I0
sg96
I0
sg310
I0
sg81
I0
sg109
I0
sg311
I0
sg397
I0
sg313
I0
sg314
I0
sg82
I0
sg449
I0
sg110
I0
ssg90
(dp516
g345
I0
sg102
I0
sg346
I0
sg250
I0
sg348
I0
sg251
I0
sg349
I0
sg252
I0
sg351
I0
sg254
I0
sg353
I0
sg92
I0
sg354
I0
sg355
I0
sg91
I6
sg115
I0
sg119
I0
sg85
I0
sg257
I0
sg258
I0
sg116
I0
sg108
I0
sg259
I0
sg260
I0
sg261
I0
sg262
I0
sg120
I0
sg123
I0
sg90
I2
sg86
I0
sg263
I0
sg128
I0
sg358
I0
sg359
I0
sg360
I0
sg361
I0
sg83
I0
sg84
I0
sg117
I0
sg267
I0
sg268
I0
sg362
I0
sg89
I0
sg363
I0
sg106
I0
sg105
I0
sg98
I0
sg269
I0
sg270
I0
sg364
I0
sg103
I0
sg365
I0
sg271
I0
sg272
I0
sg273
I0
sg274
I0
sg122
I0
sg275
I0
sg276
I0
sg88
I0
sg121
I0
sg87
I0
sg125
I0
sg124
I0
sg277
I0
sg111
I0
sg112
I0
sg278
I0
sg279
I0
sg280
I0
sg374
I0
sg282
I0
sg283
I0
sg284
I0
sg376
I0
sg285
I0
sg286
I0
sg287
I0
sg288
I0
sg114
I0
sg113
I0
sg289
I0
sg97
I0
sg397
I0
sg290
I0
sg291
I0
sg99
I0
sg292
I0
sg380
I0
sg381
I0
sg382
I0
sg94
I0
sg127
I0
sg295
I0
sg384
I0
sg296
I0
sg101
I0
sg385
I0
sg386
I0
sg297
I0
sg387
I0
sg299
I0
sg389
I0
sg300
I0
sg118
I0
sg100
I0
sg391
I0
sg95
I0
sg93
I0
sg80
I0
sg392
I0
sg393
I0
sg126
I0
sg304
I0
sg305
I0
sg107
I0
sg306
I0
sg307
I0
sg350
I0
sg396
I0
sg104
I0
sg96
I0
sg310
I0
sg81
I0
sg109
I0
sg311
I0
sg312
I0
sg313
I0
sg314
I0
sg82
I0
sg315
I0
sg110
I0
sg316
I0
ssg86
(dp517
g102
I0
sg250
I0
sg496
I0
sg251
I0
sg252
I0
sg254
I0
sg92
I0
sg91
I0
sg497
I0
sg115
I0
sg119
I0
sg85
I0
sg257
I0
sg258
I0
sg116
I0
sg108
I0
sg259
I0
sg260
I0
sg261
I0
sg262
I0
sg120
I0
sg123
I0
sg90
I0
sg86
I4
sg263
I0
sg128
I0
sg498
I0
sg83
I0
sg84
I0
sg117
I0
sg267
I0
sg268
I0
sg89
I0
sg106
I0
sg105
I0
sg98
I0
sg269
I0
sg270
I0
sg103
I0
sg499
I0
sg271
I0
sg272
I0
sg273
I0
sg274
I0
sg122
I0
sg275
I0
sg276
I0
sg88
I0
sg121
I0
sg87
I0
sg125
I0
sg124
I0
sg277
I0
sg111
I0
sg112
I0
sg278
I0
sg279
I0
sg280
I0
sg282
I0
sg283
I0
sg284
I0
sg285
I0
sg286
I0
sg287
I0
sg288
I0
sg114
I0
sg113
I0
sg289
I0
sg97
I0
sg290
I0
sg291
I0
sg99
I0
sg292
I0
sg94
I0
sg127
I0
sg295
I0
sg296
I0
sg101
I0
sg297
I0
sg299
I0
sg500
I0
sg300
I0
sg118
I0
sg100
I0
sg501
I0
sg95
I0
sg93
I0
sg80
I0
sg126
I0
sg304
I0
sg305
I0
sg107
I0
sg502
I0
sg306
I0
sg307
I0
sg503
I0
sg504
I0
sg505
I0
sg104
I0
sg96
I0
sg310
I0
sg506
I0
sg81
I0
sg109
I0
sg311
I0
sg312
I0
sg313
I0
sg314
I0
sg82
I0
sg315
I0
sg110
I0
sg316
I0
ssg25
(dp518
g135
I0
sg399
I0
sg156
I0
sg14
I0
sg400
I0
sg63
I0
sg333
I0
sg17
I0
sg134
I0
sg55
I0
sg148
I0
sg79
I0
sg137
I0
sg338
I0
sg140
I0
sg71
I0
sg401
I0
sg142
I0
sg154
I0
sg402
I0
sg34
I0
sg153
I0
sg334
I0
sg403
I0
sg27
I0
sg404
I0
sg335
I0
sg45
I0
sg37
I0
sg68
I4
sg24
I0
sg343
I0
sg336
I0
sg405
I0
sg406
I0
sg25
I0
sg133
I0
sg132
I0
sg26
I0
sg18
I0
sg159
I0
sg407
I0
sg130
I0
sg408
I0
sg409
I0
sg131
I0
sg22
I0
sg21
I0
sg158
I0
sg410
I0
sg143
I0
sg146
I0
sg155
I0
sg12
I0
sg411
I0
sg412
I0
sg61
I0
sg60
I0
sg147
I0
sg413
I0
sg414
I0
sg29
I0
sg9
I0
sg65
I0
sg8
I0
sg62
I0
sg64
I0
sg161
I0
sg337
I0
sg44
I0
sg30
I0
sg415
I0
sg214
I0
sg416
I0
sg339
I0
sg340
I0
sg28
I0
sg52
I0
sg73
I0
sg72
I0
sg67
I0
sg77
I0
sg70
I0
sg58
I0
sg41
I0
sg54
I0
sg50
I0
sg151
I0
sg46
I0
sg49
I0
sg66
I0
sg53
I0
sg417
I0
sg418
I0
sg16
I0
sg419
I0
sg69
I0
sg15
I0
sg75
I0
sg74
I0
sg157
I0
sg139
I0
sg138
I0
sg420
I0
sg127
I0
sg51
I0
sg145
I0
sg56
I0
sg421
I0
sg150
I0
sg341
I0
sg149
I0
sg422
I0
sg20
I0
sg129
I0
sg59
I0
sg40
I0
sg152
I0
sg57
I0
sg38
I0
sg31
I0
sg10
I0
sg141
I0
sg423
I0
sg424
I0
sg425
I0
sg144
I0
sg160
I0
sg126
I0
sg78
I0
sg76
I0
sg13
I0
sg426
I0
sg33
I0
sg11
I0
sg47
I0
sg35
I0
sg43
I0
sg42
I0
sg136
I0
sg427
I0
sg428
I0
sg36
I0
sg39
I0
sg429
I0
sg430
I0
sg19
I0
sg32
I0
sg128
I0
sg431
I0
sg23
I0
sg432
I0
sg433
I0
sg48
I0
ssg128
(dp519
g399
I0
sg250
I0
sg496
I0
sg251
I0
sS'cut.v.01'
p520
I0
sg254
I0
sg401
I0
sg402
I0
sg497
I0
sg403
I0
sg258
I0
sg404
I0
sS'water.n.06'
p521
I0
sS'put.v.01'
p522
I0
sS'pour.v.05'
p523
I0
sS'pour.v.01'
p524
I0
sg405
I0
sg406
I0
sg263
I0
sg128
I0
sg498
I0
sg408
I0
sg409
I0
sg267
I0
sS'add.v.01'
p525
I0
sg410
I0
sg400
I0
sg411
I0
sg412
I0
sS'slice.v.02'
p526
I0
sS'slice.v.03'
p527
I0
sg413
I0
sg414
I0
sg499
I0
sg271
I0
sg272
I0
sg273
I0
sg274
I0
sg275
I0
sS'occupy.v.03'
p528
I0
sg415
I0
sg416
I0
sg277
I0
sg422
I0
sg315
I0
sg278
I0
sg279
I0
sg280
I0
sg282
I0
sg283
I0
sg284
I0
sg285
I0
sg286
I0
sg287
I0
sg288
I0
sg417
I0
sg418
I0
sS'fill.v.09'
p529
I0
sg419
I0
sg290
I0
sS'fill.v.01'
p530
I0
sg257
I0
sg292
I0
sg420
I0
sg127
I0
sg295
I0
sg296
I0
sg421
I0
sS'slice.n.01'
p531
I0
sg299
I0
sg500
I0
sg300
I0
sS'invest.v.01'
p532
I0
sS'rice.n.01'
p533
I0
sg501
I0
sg423
I0
sg424
I0
sg425
I0
sg126
I0
sg304
I0
sS'milk.n.01'
p534
I0
sg426
I0
sg502
I0
sS'egg.n.02'
p535
I0
sS'butter.n.01'
p536
I0
sg503
I0
sg504
I0
sg505
I0
sg427
I0
sg428
I0
sS'blend.v.03'
p537
I0
sg506
I0
sg429
I0
sg430
I0
sS'piece.n.08'
p538
I0
sS'rice.n.02'
p539
I0
sg407
I0
sg431
I0
sg432
I0
sg433
I0
sg316
I0
ssg133
(dp540
g156
I0
sg166
I0
sg167
I0
sg168
I0
sg169
I0
sg148
I0
sg170
I0
sg137
I0
sg140
I0
sg171
I0
sg142
I0
sg154
I0
sg172
I0
sg173
I0
sg153
I0
sg174
I0
sg175
I0
sg176
I0
sg177
I0
sg178
I0
sg179
I0
sg180
I0
sg181
I0
sg182
I0
sg183
I0
sg184
I0
sg185
I0
sg133
I0
sg132
I0
sg186
I0
sg187
I0
sg159
I0
sg130
I0
sg129
I0
sg160
I0
sg188
I0
sg189
I0
sg190
I0
sg143
I0
sg146
I0
sg191
I0
sg192
I0
sg193
I0
sg194
I0
sg195
I0
sg147
I0
sg196
I0
sg155
I0
sg197
I0
sg198
I0
sg199
I0
sg161
I0
sg200
I0
sg201
I0
sg202
I0
sg203
I0
sg204
I0
sg205
I0
sg206
I0
sg207
I0
sg208
I0
sg135
I0
sg134
I0
sg209
I0
sg210
I0
sg151
I0
sg211
I0
sg212
I0
sg213
I0
sg214
I0
sg215
I0
sg216
I0
sg158
I0
sg157
I0
sg139
I0
sg138
I0
sg217
I0
sg218
I0
sg145
I0
sg219
I0
sg150
I0
sg220
I0
sg149
I0
sg221
I0
sg222
I0
sg223
I0
sg152
I0
sg224
I0
sg225
I0
sg141
I0
sg226
I0
sg227
I0
sg228
I0
sg144
I0
sg131
I0
sg229
I0
sg230
I0
sg231
I0
sg232
I0
sg233
I0
sg234
I0
sg235
I0
sg236
I0
sg136
I0
sg237
I0
sg238
I0
sg239
I0
sg240
I0
sg241
I0
sg242
I0
sg243
I0
sg244
I0
sg245
I0
sg246
I0
sg247
I0
ssg132
(dp541
g156
I0
sg166
I0
sg167
I0
sg168
I0
sg169
I0
sg148
I0
sg170
I0
sg137
I0
sg140
I0
sg171
I0
sg142
I0
sg154
I0
sg172
I0
sg173
I0
sg153
I0
sg174
I0
sg175
I0
sg176
I0
sg177
I0
sg178
I0
sg179
I0
sg180
I0
sg181
I0
sg182
I0
sg183
I0
sg184
I0
sg185
I0
sg133
I4
sg132
I0
sg186
I0
sg187
I0
sg159
I0
sg130
I0
sg129
I0
sg160
I0
sg188
I0
sg189
I0
sg190
I0
sg143
I0
sg146
I0
sg191
I0
sg192
I0
sg193
I0
sg194
I0
sg195
I0
sg147
I0
sg196
I0
sg155
I0
sg197
I0
sg198
I0
sg199
I0
sg161
I0
sg200
I0
sg201
I0
sg202
I0
sg203
I0
sg204
I0
sg205
I0
sg206
I0
sg207
I0
sg208
I0
sg135
I0
sg134
I0
sg209
I0
sg210
I0
sg151
I0
sg211
I0
sg212
I0
sg213
I0
sg214
I0
sg215
I0
sg216
I0
sg158
I0
sg157
I0
sg139
I0
sg138
I0
sg217
I0
sg218
I0
sg145
I0
sg219
I0
sg150
I0
sg220
I0
sg149
I0
sg221
I0
sg222
I0
sg223
I0
sg152
I0
sg224
I0
sg225
I0
sg141
I0
sg226
I0
sg227
I0
sg228
I0
sg144
I0
sg131
I0
sg229
I0
sg230
I0
sg231
I0
sg232
I0
sg233
I0
sg234
I0
sg235
I0
sg236
I0
sg136
I0
sg237
I0
sg238
I0
sg239
I0
sg240
I0
sg241
I0
sg242
I0
sg243
I0
sg244
I0
sg245
I0
sg246
I0
sg247
I0
ssg26
(dp542
g135
I0
sg156
I0
sg14
I0
sg63
I0
sg333
I0
sg17
I0
sg55
I0
sg148
I0
sg79
I0
sg137
I0
sg140
I0
sg71
I0
sg142
I0
sg154
I0
sg34
I0
sg153
I0
sg334
I0
sg27
I0
sg335
I0
sg45
I0
sg37
I0
sg68
I0
sg24
I0
sg336
I0
sg25
I0
sg133
I0
sg132
I0
sg26
I4
sg18
I0
sg159
I0
sg130
I0
sg129
I0
sg131
I0
sg22
I0
sg21
I0
sg158
I0
sg190
I0
sg143
I0
sg12
I0
sg193
I0
sg61
I0
sg60
I0
sg147
I0
sg146
I0
sg155
I0
sg29
I0
sg9
I0
sg65
I0
sg8
I0
sg62
I0
sg64
I0
sg161
I0
sg337
I0
sg44
I0
sg30
I0
sg13
I0
sg338
I0
sg339
I0
sg340
I0
sg28
I0
sg52
I0
sg73
I0
sg72
I0
sg67
I0
sg77
I0
sg70
I0
sg134
I0
sg41
I0
sg54
I0
sg50
I0
sg151
I0
sg46
I0
sg49
I0
sg66
I0
sg53
I0
sg216
I0
sg16
I0
sg214
I0
sg69
I0
sg15
I0
sg75
I0
sg74
I0
sg157
I0
sg139
I0
sg138
I0
sg51
I0
sg145
I0
sg56
I0
sg150
I0
sg341
I0
sg149
I0
sg20
I0
sg59
I0
sg40
I0
sg152
I0
sg57
I0
sg38
I0
sg10
I0
sg141
I0
sg342
I0
sg144
I0
sg160
I0
sg78
I0
sg76
I0
sg33
I0
sg11
I0
sg47
I0
sg35
I0
sg43
I0
sg42
I0
sg136
I0
sg343
I0
sg36
I0
sg39
I0
sg19
I0
sg32
I0
sg31
I0
sg23
I0
sg48
I0
sg58
I0
ssg18
(dp543
g135
I0
sg156
I0
sg14
I0
sg63
I0
sg333
I0
sg17
I0
sg134
I0
sg55
I0
sg148
I0
sg79
I0
sg137
I0
sg140
I0
sg71
I0
sg142
I0
sg154
I0
sg34
I0
sg153
I0
sg334
I0
sg451
I0
sg27
I0
sg335
I0
sg45
I0
sg37
I0
sg68
I0
sg24
I0
sg336
I0
sg452
I0
sg25
I0
sg133
I0
sg132
I0
sg26
I0
sg18
I0
sg159
I0
sg130
I0
sg129
I0
sg453
I0
sg131
I0
sg22
I0
sg21
I0
sg158
I0
sg454
I0
sg143
I0
sg12
I0
sg193
I0
sg61
I0
sg60
I0
sg147
I0
sg146
I0
sg155
I0
sg29
I0
sg9
I0
sg65
I0
sg8
I0
sg62
I0
sg64
I0
sg161
I0
sg337
I0
sg44
I0
sg30
I0
sg455
I0
sg338
I0
sg456
I0
sg339
I0
sg340
I0
sg28
I0
sg52
I0
sg73
I0
sg72
I0
sg67
I0
sg77
I0
sg70
I0
sg58
I0
sg41
I0
sg54
I0
sg50
I0
sg151
I0
sg46
I0
sg49
I0
sg66
I0
sg53
I0
sg216
I0
sg16
I0
sg214
I0
sg69
I0
sg15
I0
sg75
I0
sg74
I0
sg157
I0
sg139
I0
sg138
I0
sg457
I0
sg51
I0
sg145
I0
sg56
I0
sg150
I0
sg341
I0
sg149
I0
sg20
I0
sg458
I0
sg59
I0
sg40
I0
sg152
I0
sg57
I0
sg38
I0
sg31
I0
sg10
I0
sg141
I0
sg459
I0
sg460
I0
sg144
I0
sg160
I0
sg78
I0
sg76
I0
sg13
I0
sg33
I0
sg11
I0
sg47
I0
sg35
I0
sg43
I0
sg42
I0
sg136
I0
sg343
I0
sg36
I0
sg39
I0
sg461
I0
sg19
I0
sg32
I0
sg462
I0
sg463
I0
sg23
I0
sg48
I0
ssg160
(dp544
g156
I0
sg167
I0
sg169
I0
sg148
I0
sg170
I0
sg137
I0
sg140
I0
sg142
I0
sg154
I0
sg173
I0
sg153
I0
sg334
I0
sg175
I0
sg335
I0
sg179
I0
sg181
I0
sg336
I0
sg185
I0
sg133
I0
sg132
I0
sg186
I0
sg187
I0
sg159
I0
sg130
I0
sg129
I0
sg131
I0
sg188
I0
sg189
I0
sg190
I0
sg143
I0
sg168
I0
sg193
I0
sg194
I0
sg195
I0
sg147
I0
sg146
I0
sg155
I0
sg197
I0
sg198
I0
sg199
I0
sg161
I0
sg337
I0
sg201
I0
sg202
I0
sg338
I0
sg339
I0
sg340
I0
sg206
I0
sg135
I0
sg134
I0
sg209
I0
sg224
I0
sg151
I0
sg213
I0
sg214
I0
sg215
I0
sg216
I0
sg158
I0
sg157
I0
sg139
I0
sg138
I0
sg218
I0
sg145
I0
sg150
I0
sg341
I0
sg149
I0
sg221
I0
sg222
I0
sg223
I0
sg152
I0
sg333
I0
sg141
I0
sg342
I0
sg144
I0
sg160
I0
sg231
I0
sg232
I0
sg233
I0
sg234
I0
sg235
I0
sg236
I0
sg136
I0
sg343
I0
sg239
I0
sg240
I0
sg242
I0
sg244
I0
sg245
I0
sg246
I0
ssg159
(dp545
g156
I0
sg167
I0
sg191
I0
sg210
I0
sg169
I0
sg318
I0
sg148
I0
sg170
I0
sg137
I0
sg140
I0
sg142
I0
sg154
I0
sg173
I0
sg153
I0
sg174
I0
sg175
I0
sg176
I0
sg177
I0
sg319
I0
sg179
I0
sg181
I0
sg183
I0
sg184
I0
sg185
I0
sg133
I0
sg132
I0
sg186
I0
sg187
I0
sg159
I4
sg130
I0
sg129
I0
sg160
I0
sg188
I0
sg189
I0
sg190
I0
sg143
I0
sg196
I0
sg168
I0
sg192
I0
sg193
I0
sg194
I0
sg195
I0
sg147
I0
sg146
I0
sg155
I0
sg197
I0
sg198
I0
sg199
I0
sg161
I0
sg200
I0
sg320
I0
sg201
I0
sg202
I0
sg203
I0
sg204
I0
sg205
I0
sg206
I0
sg321
I0
sg207
I0
sg208
I0
sg135
I0
sg134
I0
sg209
I0
sg322
I0
sg323
I0
sg151
I0
sg324
I0
sg325
I0
sg326
I0
sg211
I0
sg212
I0
sg213
I0
sg214
I0
sg215
I0
sg216
I0
sg158
I0
sg157
I0
sg139
I0
sg138
I0
sg327
I0
sg145
I0
sg328
I0
sg150
I0
sg220
I0
sg149
I0
sg221
I0
sg222
I0
sg223
I0
sg152
I0
sg329
I0
sg224
I0
sg218
I0
sg141
I0
sg228
I0
sg144
I0
sg131
I0
sg230
I0
sg231
I0
sg232
I0
sg233
I0
sg234
I0
sg235
I0
sg330
I0
sg236
I0
sg136
I0
sg237
I0
sg238
I0
sg239
I0
sg240
I0
sg241
I0
sg242
I0
sg244
I0
sg245
I0
sg246
I0
sg247
I0
sg331
I0
ssg130
(dp546
g156
I0
sg166
I0
sg167
I0
sg168
I0
sg169
I0
sg148
I0
sg170
I0
sg137
I0
sg140
I0
sg171
I0
sg142
I0
sg154
I0
sg172
I0
sg173
I0
sg153
I0
sg174
I0
sg175
I0
sg176
I0
sg177
I0
sg178
I0
sg179
I0
sg180
I0
sg181
I0
sg182
I0
sg183
I0
sg184
I0
sg185
I0
sg133
I0
sg132
I0
sg186
I0
sg187
I0
sg159
I0
sg130
I0
sg129
I0
sg160
I0
sg188
I0
sg189
I0
sg190
I0
sg143
I0
sg146
I0
sg191
I0
sg192
I0
sg193
I0
sg194
I0
sg195
I0
sg147
I0
sg196
I0
sg155
I0
sg197
I0
sg198
I0
sg199
I0
sg161
I0
sg200
I0
sg201
I0
sg202
I0
sg203
I0
sg204
I0
sg205
I0
sg206
I0
sg207
I0
sg208
I0
sg135
I0
sg134
I0
sg209
I0
sg210
I0
sg151
I0
sg211
I0
sg212
I0
sg213
I0
sg214
I0
sg215
I0
sg216
I0
sg158
I0
sg157
I0
sg139
I0
sg138
I0
sg217
I0
sg218
I0
sg145
I0
sg219
I0
sg150
I0
sg220
I0
sg149
I0
sg221
I0
sg222
I0
sg223
I0
sg152
I0
sg224
I0
sg225
I0
sg141
I0
sg226
I0
sg227
I0
sg228
I0
sg144
I0
sg131
I0
sg229
I0
sg230
I0
sg231
I0
sg232
I0
sg233
I0
sg234
I0
sg235
I0
sg236
I0
sg136
I0
sg237
I0
sg238
I0
sg239
I0
sg240
I0
sg241
I0
sg242
I0
sg243
I0
sg244
I0
sg245
I0
sg246
I0
sg247
I0
ssg83
(dp547
g102
I0
sg250
I0
sg496
I0
sg251
I0
sg252
I0
sg254
I0
sg92
I0
sg91
I0
sg497
I0
sg115
I0
sg119
I0
sg85
I0
sg257
I0
sg258
I0
sg116
I0
sg108
I0
sg259
I0
sg260
I0
sg261
I0
sg262
I0
sg120
I0
sg123
I0
sg90
I0
sg86
I0
sg263
I0
sg128
I0
sg498
I0
sg83
I0
sg84
I4
sg117
I0
sg267
I0
sg268
I0
sg89
I0
sg106
I0
sg105
I0
sg98
I0
sg269
I0
sg270
I0
sg103
I0
sg499
I0
sg271
I0
sg272
I0
sg273
I0
sg274
I0
sg122
I0
sg275
I0
sg276
I0
sg88
I0
sg121
I0
sg87
I0
sg125
I0
sg124
I0
sg277
I0
sg111
I0
sg112
I0
sg278
I0
sg279
I0
sg280
I0
sg282
I0
sg283
I0
sg284
I0
sg285
I0
sg286
I0
sg287
I0
sg288
I0
sg114
I0
sg113
I0
sg289
I0
sg97
I0
sg290
I0
sg291
I0
sg99
I0
sg292
I0
sg94
I0
sg127
I0
sg295
I0
sg296
I0
sg101
I0
sg297
I0
sg299
I0
sg500
I0
sg300
I0
sg118
I0
sg100
I0
sg501
I0
sg95
I0
sg93
I0
sg80
I0
sg126
I0
sg304
I0
sg305
I0
sg107
I0
sg502
I0
sg306
I0
sg307
I0
sg503
I0
sg504
I0
sg505
I0
sg104
I0
sg96
I0
sg310
I0
sg506
I0
sg81
I0
sg109
I0
sg311
I0
sg312
I0
sg313
I0
sg314
I0
sg82
I0
sg315
I0
sg110
I0
sg316
I0
ssg84
(dp548
g102
I0
sg250
I0
sg496
I0
sg251
I0
sg252
I0
sg254
I0
sg92
I0
sg91
I0
sg497
I0
sg115
I0
sg119
I0
sg85
I0
sg257
I0
sg258
I0
sg116
I0
sg108
I0
sg259
I0
sg260
I0
sg261
I0
sg262
I0
sg120
I0
sg123
I0
sg90
I0
sg86
I0
sg263
I0
sg128
I0
sg498
I0
sg83
I0
sg84
I0
sg117
I0
sg267
I0
sg268
I0
sg89
I0
sg106
I0
sg105
I0
sg98
I0
sg269
I0
sg270
I0
sg103
I0
sg499
I0
sg271
I0
sg272
I0
sg273
I0
sg274
I0
sg122
I0
sg275
I0
sg276
I0
sg88
I0
sg121
I0
sg87
I0
sg125
I0
sg124
I0
sg277
I0
sg111
I0
sg112
I0
sg278
I0
sg279
I0
sg280
I0
sg282
I0
sg283
I0
sg284
I0
sg285
I0
sg286
I0
sg287
I0
sg288
I0
sg114
I0
sg113
I0
sg289
I0
sg97
I0
sg290
I0
sg291
I0
sg99
I0
sg292
I0
sg94
I0
sg127
I0
sg295
I0
sg296
I0
sg101
I0
sg297
I0
sg299
I0
sg500
I0
sg300
I0
sg118
I0
sg100
I0
sg501
I0
sg95
I0
sg93
I0
sg80
I0
sg126
I0
sg304
I0
sg305
I0
sg107
I0
sg502
I0
sg306
I0
sg307
I0
sg503
I0
sg504
I0
sg505
I0
sg104
I0
sg96
I0
sg310
I0
sg506
I0
sg81
I0
sg109
I0
sg311
I0
sg312
I0
sg313
I0
sg314
I0
sg82
I0
sg315
I0
sg110
I0
sg316
I0
ssg117
(dp549
g346
I0
sg102
I0
sg435
I0
sg436
I0
sg348
I0
sg349
I0
sg252
I0
sg351
I0
sg92
I0
sg354
I0
sg355
I0
sg91
I0
sg115
I0
sg119
I0
sg85
I0
sg353
I0
sg116
I0
sg108
I0
sg259
I0
sg260
I0
sg261
I0
sg262
I0
sg120
I0
sg123
I0
sg90
I0
sg86
I0
sg437
I0
sg358
I0
sg359
I0
sg438
I0
sg439
I0
sg440
I0
sg360
I0
sg361
I0
sg83
I0
sg84
I0
sg393
I0
sg441
I0
sg268
I0
sg89
I0
sg442
I0
sg103
I0
sg106
I0
sg105
I0
sg98
I0
sg269
I0
sg270
I0
sg364
I0
sg363
I0
sg365
I0
sg443
I0
sg444
I0
sg122
I0
sg276
I0
sg88
I0
sg121
I0
sg87
I0
sg125
I0
sg124
I0
sg445
I0
sg111
I0
sg112
I0
sg345
I0
sg374
I0
sg446
I0
sg312
I0
sg376
I0
sg114
I0
sg113
I0
sg289
I0
sg97
I0
sg291
I0
sg99
I0
sg362
I0
sg380
I0
sg381
I0
sg382
I0
sg94
I0
sg447
I0
sg384
I0
sg101
I0
sg385
I0
sg386
I0
sg297
I0
sg387
I0
sg388
I0
sg389
I0
sg118
I0
sg100
I0
sg391
I0
sg95
I0
sg93
I0
sg80
I0
sg392
I0
sg117
I4
sg305
I0
sg448
I0
sg107
I0
sg306
I0
sg307
I0
sg350
I0
sg396
I0
sg104
I0
sg96
I0
sg310
I0
sg81
I0
sg109
I0
sg311
I0
sg397
I0
sg313
I0
sg314
I0
sg82
I0
sg449
I0
sg110
I0
ssg22
(dp550
g135
I0
sg156
I0
sg14
I0
sg63
I0
sg333
I0
sg17
I0
sg55
I0
sg148
I0
sg79
I0
sg137
I0
sg140
I0
sg71
I0
sg142
I0
sg154
I0
sg34
I0
sg153
I0
sg334
I0
sg27
I0
sg335
I0
sg45
I0
sg37
I0
sg68
I0
sg24
I0
sg336
I0
sg25
I0
sg133
I0
sg132
I0
sg26
I0
sg18
I0
sg159
I0
sg130
I0
sg129
I0
sg131
I0
sg22
I0
sg21
I0
sg158
I0
sg190
I0
sg143
I0
sg12
I0
sg193
I0
sg61
I0
sg60
I0
sg147
I0
sg146
I0
sg155
I0
sg29
I0
sg9
I0
sg65
I0
sg8
I0
sg62
I0
sg64
I0
sg161
I0
sg337
I0
sg44
I0
sg30
I0
sg13
I0
sg338
I0
sg339
I0
sg340
I0
sg28
I0
sg52
I0
sg73
I0
sg72
I0
sg67
I0
sg77
I0
sg70
I0
sg134
I0
sg41
I0
sg54
I0
sg50
I0
sg151
I0
sg46
I0
sg49
I0
sg66
I0
sg53
I0
sg216
I0
sg16
I0
sg214
I0
sg69
I0
sg15
I0
sg75
I0
sg74
I0
sg157
I0
sg139
I0
sg138
I0
sg51
I0
sg145
I0
sg56
I0
sg150
I0
sg341
I0
sg149
I0
sg20
I0
sg59
I0
sg40
I0
sg152
I0
sg57
I0
sg38
I0
sg10
I0
sg141
I0
sg342
I0
sg144
I0
sg160
I0
sg78
I0
sg76
I0
sg33
I0
sg11
I0
sg47
I0
sg35
I0
sg43
I0
sg42
I0
sg136
I0
sg343
I0
sg36
I0
sg39
I0
sg19
I0
sg32
I0
sg31
I0
sg23
I0
sg48
I0
sg58
I0
ssg21
(dp551
g135
I0
sg102
I0
sg156
I0
sg14
I0
sg106
I0
sg63
I0
sg118
I0
sg17
I0
sg134
I0
sg55
I0
sg148
I0
sg79
I0
sg137
I0
sg121
I0
sg140
I0
sg71
I0
sg92
I0
sg142
I0
sg154
I0
sg91
I0
sg34
I0
sg153
I0
sg119
I0
sg85
I0
sg27
I0
sg108
I0
sg116
I0
sg45
I0
sg37
I0
sg68
I0
sg24
I0
sg120
I0
sg123
I0
sg90
I0
sg86
I0
sg25
I0
sg128
I0
sg133
I0
sg132
I0
sg26
I0
sg18
I0
sg160
I0
sg159
I0
sg130
I0
sg83
I0
sg84
I0
sg117
I0
sg22
I4
sg21
I16
sg158
I0
sg89
I0
sg143
I0
sg146
I0
sg155
I0
sg12
I0
sg105
I0
sg98
I0
sg61
I0
sg60
I0
sg147
I0
sg103
I0
sg114
I0
sg29
I0
sg9
I0
sg65
I0
sg8
I0
sg62
I0
sg64
I0
sg161
I0
sg122
I0
sg44
I0
sg30
I0
sg88
I0
sg115
I0
sg87
I0
sg125
I0
sg124
I0
sg28
I0
sg52
I0
sg73
I0
sg72
I0
sg67
I0
sg77
I0
sg70
I0
sg58
I0
sg41
I0
sg54
I0
sg50
I0
sg151
I0
sg46
I0
sg49
I0
sg66
I0
sg53
I0
sg99
I0
sg113
I0
sg16
I0
sg97
I0
sg69
I0
sg15
I0
sg75
I0
sg74
I0
sg157
I0
sg139
I0
sg138
I0
sg94
I0
sg127
I0
sg51
I0
sg145
I0
sg56
I0
sg101
I0
sg150
I0
sg149
I0
sg111
I0
sg20
I0
sg129
I0
sg59
I0
sg40
I0
sg152
I0
sg57
I0
sg38
I0
sg100
I0
sg10
I0
sg141
I0
sg95
I0
sg93
I0
sg80
I0
sg144
I0
sg131
I8
sg126
I0
sg78
I0
sg76
I0
sg13
I0
sg107
I0
sg33
I0
sg11
I0
sg47
I0
sg35
I0
sg43
I0
sg42
I0
sg136
I0
sg104
I0
sg96
I0
sg36
I0
sg39
I0
sg81
I0
sg109
I0
sg19
I0
sg32
I0
sg31
I0
sg82
I0
sg23
I0
sg112
I0
sg110
I0
sg48
I0
ssg158
(dp552
g156
I0
sg167
I0
sg191
I0
sg210
I0
sg169
I0
sg318
I0
sg148
I0
sg170
I0
sg137
I0
sg140
I0
sg142
I0
sg154
I0
sg173
I0
sg153
I0
sg174
I0
sg175
I0
sg176
I0
sg177
I0
sg319
I0
sg179
I0
sg181
I0
sg183
I0
sg184
I0
sg185
I0
sg133
I0
sg132
I0
sg186
I0
sg187
I0
sg159
I0
sg130
I0
sg129
I0
sg160
I0
sg188
I0
sg189
I0
sg190
I0
sg143
I0
sg196
I0
sg168
I0
sg192
I0
sg193
I0
sg194
I0
sg195
I0
sg147
I0
sg146
I0
sg155
I0
sg197
I0
sg198
I0
sg199
I0
sg161
I0
sg200
I0
sg320
I0
sg201
I0
sg202
I0
sg203
I0
sg204
I0
sg205
I0
sg206
I0
sg321
I0
sg207
I0
sg208
I0
sg135
I0
sg134
I0
sg209
I0
sg322
I0
sg323
I0
sg151
I0
sg324
I0
sg325
I0
sg326
I0
sg211
I0
sg212
I0
sg213
I0
sg214
I0
sg215
I0
sg216
I0
sg158
I0
sg157
I0
sg139
I0
sg138
I0
sg327
I0
sg145
I0
sg328
I0
sg150
I0
sg220
I0
sg149
I0
sg221
I0
sg222
I0
sg223
I0
sg152
I0
sg329
I0
sg224
I0
sg218
I0
sg141
I0
sg228
I0
sg144
I0
sg131
I0
sg230
I0
sg231
I0
sg232
I0
sg233
I0
sg234
I0
sg235
I0
sg330
I0
sg236
I0
sg136
I0
sg237
I0
sg238
I0
sg239
I0
sg240
I0
sg241
I0
sg242
I0
sg244
I0
sg245
I0
sg246
I0
sg247
I0
sg331
I0
ssg89
(dp553
g135
I0
sg102
I0
sg156
I0
sg167
I0
sg168
I0
sg250
I0
sg496
I0
sg251
I0
sg148
I0
sg252
I0
sg137
I0
sg140
I0
sg254
I0
sg175
I0
sg92
I0
sg142
I0
sg154
I0
sg91
I0
sg497
I0
sg115
I0
sg119
I0
sg85
I0
sg257
I0
sg258
I0
sg116
I0
sg108
I0
sg259
I0
sg260
I0
sg261
I0
sg262
I0
sg120
I0
sg123
I0
sg90
I0
sg86
I0
sg263
I0
sg128
I0
sg133
I0
sg132
I0
sg186
I0
sg498
I0
sg160
I0
sg159
I0
sg130
I0
sg83
I0
sg84
I0
sg117
I0
sg267
I0
sg268
I0
sg158
I0
sg89
I16
sg143
I0
sg146
I0
sg106
I0
sg105
I0
sg98
I0
sg269
I0
sg270
I0
sg147
I0
sg103
I0
sg155
I0
sg499
I0
sg271
I0
sg272
I0
sg273
I0
sg274
I0
sg199
I0
sg161
I0
sg122
I0
sg275
I0
sg276
I0
sg88
I0
sg121
I0
sg87
I0
sg125
I0
sg124
I0
sg206
I0
sg277
I0
sg111
I0
sg112
I0
sg278
I0
sg279
I0
sg280
I0
sg134
I0
sg282
I0
sg283
I0
sg284
I0
sg151
I0
sg285
I0
sg286
I0
sg287
I0
sg288
I0
sg114
I0
sg113
I0
sg289
I0
sg97
I0
sg153
I0
sg290
I0
sg291
I0
sg99
I0
sg292
I0
sg157
I0
sg139
I0
sg138
I0
sg94
I0
sg127
I0
sg295
I0
sg145
I0
sg296
I0
sg101
I0
sg150
I0
sg149
I0
sg297
I0
sg129
I0
sg299
I0
sg500
I0
sg152
I0
sg300
I0
sg118
I0
sg100
I0
sg501
I0
sg141
I0
sg95
I0
sg93
I0
sg80
I0
sg144
I0
sg131
I0
sg126
I0
sg304
I0
sg305
I0
sg202
I0
sg188
I0
sg107
I0
sg502
I0
sg306
I0
sg307
I0
sg503
I0
sg504
I0
sg505
I0
sg136
I0
sg104
I0
sg96
I0
sg310
I0
sg506
I0
sg81
I0
sg109
I0
sg311
I0
sg312
I0
sg313
I0
sg314
I0
sg82
I0
sg246
I0
sg315
I0
sg110
I0
sg316
I0
ssg143
(dp554
g156
I0
sg167
I0
sg169
I0
sg148
I0
sg170
I0
sg137
I0
sg140
I0
sg142
I0
sg154
I0
sg173
I0
sg153
I0
sg334
I0
sg175
I0
sg335
I0
sg179
I0
sg181
I0
sg336
I0
sg185
I0
sg133
I0
sg132
I0
sg186
I0
sg187
I0
sg159
I0
sg130
I0
sg129
I0
sg160
I0
sg188
I0
sg189
I0
sg190
I0
sg143
I0
sg168
I0
sg193
I0
sg194
I0
sg195
I0
sg147
I0
sg146
I0
sg155
I0
sg197
I0
sg198
I0
sg199
I0
sg161
I0
sg337
I0
sg201
I0
sg202
I0
sg338
I0
sg339
I0
sg340
I0
sg206
I0
sg135
I0
sg134
I0
sg209
I0
sg224
I0
sg151
I0
sg213
I0
sg214
I0
sg215
I0
sg216
I0
sg158
I0
sg157
I0
sg139
I0
sg138
I0
sg218
I0
sg145
I0
sg150
I0
sg341
I0
sg149
I0
sg221
I0
sg222
I0
sg223
I0
sg152
I0
sg333
I0
sg141
I0
sg342
I0
sg144
I0
sg131
I0
sg231
I0
sg232
I0
sg233
I0
sg234
I0
sg235
I0
sg236
I0
sg136
I0
sg343
I0
sg239
I0
sg240
I0
sg242
I0
sg244
I0
sg245
I0
sg246
I0
ssg146
(dp555
g156
I0
sg167
I0
sg191
I0
sg210
I0
sg169
I0
sg318
I0
sg148
I0
sg170
I0
sg137
I0
sg140
I0
sg142
I0
sg154
I0
sg173
I0
sg153
I0
sg174
I0
sg175
I0
sg176
I0
sg177
I0
sg319
I0
sg179
I0
sg181
I0
sg183
I0
sg184
I0
sg185
I0
sg133
I0
sg132
I0
sg186
I0
sg187
I0
sg159
I0
sg130
I0
sg129
I0
sg160
I0
sg188
I0
sg189
I0
sg190
I0
sg143
I0
sg196
I0
sg168
I0
sg192
I0
sg193
I0
sg194
I0
sg195
I0
sg147
I4
sg146
I0
sg155
I0
sg197
I0
sg198
I0
sg199
I0
sg161
I0
sg200
I0
sg320
I0
sg201
I0
sg202
I0
sg203
I0
sg204
I0
sg205
I0
sg206
I0
sg321
I0
sg207
I0
sg208
I0
sg135
I0
sg134
I0
sg209
I0
sg322
I0
sg323
I0
sg151
I0
sg324
I0
sg325
I0
sg326
I0
sg211
I0
sg212
I0
sg213
I0
sg214
I0
sg215
I0
sg216
I0
sg158
I0
sg157
I0
sg139
I0
sg138
I0
sg327
I0
sg145
I0
sg328
I0
sg150
I0
sg220
I0
sg149
I0
sg221
I0
sg222
I0
sg223
I0
sg152
I0
sg329
I0
sg224
I0
sg218
I0
sg141
I0
sg228
I0
sg144
I0
sg131
I0
sg230
I0
sg231
I0
sg232
I0
sg233
I0
sg234
I0
sg235
I0
sg330
I0
sg236
I0
sg136
I0
sg237
I0
sg238
I0
sg239
I0
sg240
I0
sg241
I0
sg242
I0
sg244
I0
sg245
I0
sg246
I0
sg247
I0
sg331
I0
ssg155
(dp556
g156
I4
sg167
I0
sg191
I0
sg210
I0
sg169
I0
sg318
I0
sg148
I0
sg170
I0
sg137
I0
sg140
I0
sg142
I0
sg154
I0
sg173
I0
sg153
I0
sg174
I0
sg175
I0
sg176
I0
sg177
I0
sg319
I0
sg179
I0
sg181
I0
sg183
I0
sg184
I0
sg185
I0
sg133
I0
sg132
I0
sg186
I0
sg187
I0
sg159
I0
sg130
I0
sg129
I0
sg160
I0
sg188
I0
sg189
I0
sg190
I0
sg143
I0
sg196
I0
sg168
I0
sg192
I0
sg193
I0
sg194
I0
sg195
I0
sg147
I0
sg146
I0
sg155
I0
sg197
I0
sg198
I0
sg199
I0
sg161
I0
sg200
I0
sg320
I0
sg201
I0
sg202
I0
sg203
I0
sg204
I0
sg205
I0
sg206
I0
sg321
I0
sg207
I0
sg208
I0
sg135
I0
sg134
I0
sg209
I0
sg322
I0
sg323
I0
sg151
I0
sg324
I0
sg325
I0
sg326
I0
sg211
I0
sg212
I0
sg213
I0
sg214
I0
sg215
I0
sg216
I0
sg158
I0
sg157
I0
sg139
I0
sg138
I0
sg327
I0
sg145
I0
sg328
I0
sg150
I0
sg220
I0
sg149
I0
sg221
I0
sg222
I0
sg223
I0
sg152
I0
sg329
I0
sg224
I0
sg218
I0
sg141
I0
sg228
I0
sg144
I0
sg131
I0
sg230
I0
sg231
I0
sg232
I0
sg233
I0
sg234
I0
sg235
I0
sg330
I0
sg236
I0
sg136
I0
sg237
I0
sg238
I0
sg239
I0
sg240
I0
sg241
I0
sg242
I0
sg244
I0
sg245
I0
sg246
I0
sg247
I0
sg331
I0
ssg12
(dp557
g135
I0
sg156
I0
sg14
I0
sg63
I0
sg333
I0
sg17
I0
sg55
I0
sg148
I0
sg79
I0
sg137
I0
sg140
I0
sg71
I0
sg142
I0
sg154
I0
sg34
I0
sg153
I0
sg334
I0
sg27
I0
sg335
I0
sg45
I0
sg37
I0
sg68
I0
sg24
I0
sg336
I0
sg25
I0
sg133
I0
sg132
I0
sg26
I0
sg18
I0
sg159
I0
sg130
I0
sg129
I0
sg131
I0
sg22
I0
sg21
I0
sg158
I0
sg190
I0
sg143
I0
sg12
I0
sg193
I0
sg61
I0
sg60
I0
sg147
I0
sg146
I0
sg155
I0
sg29
I0
sg9
I0
sg65
I0
sg8
I0
sg62
I0
sg64
I0
sg161
I0
sg337
I0
sg44
I0
sg30
I0
sg13
I0
sg338
I0
sg339
I0
sg340
I0
sg28
I0
sg52
I0
sg73
I0
sg72
I0
sg67
I0
sg77
I0
sg70
I0
sg134
I0
sg41
I0
sg54
I0
sg50
I0
sg151
I0
sg46
I0
sg49
I0
sg66
I0
sg53
I0
sg216
I0
sg16
I0
sg214
I0
sg69
I0
sg15
I0
sg75
I0
sg74
I0
sg157
I0
sg139
I0
sg138
I0
sg51
I0
sg145
I0
sg56
I0
sg150
I0
sg341
I0
sg149
I0
sg20
I0
sg59
I0
sg40
I0
sg152
I0
sg57
I0
sg38
I0
sg10
I0
sg141
I0
sg342
I0
sg144
I0
sg160
I0
sg78
I0
sg76
I0
sg33
I0
sg11
I0
sg47
I0
sg35
I0
sg43
I0
sg42
I0
sg136
I0
sg343
I0
sg36
I0
sg39
I0
sg19
I0
sg32
I0
sg31
I0
sg23
I0
sg48
I0
sg58
I0
ssg105
(dp558
g345
I0
sg102
I0
sg346
I0
sg347
I0
sg348
I0
sg349
I0
sg252
I0
sg350
I0
sg351
I0
sg352
I0
sg353
I0
sg92
I0
sg354
I0
sg355
I0
sg91
I0
sg115
I0
sg119
I0
sg85
I0
sg356
I0
sg116
I0
sg108
I0
sg259
I0
sg260
I0
sg261
I0
sg262
I0
sg120
I0
sg123
I0
sg90
I0
sg86
I0
sg357
I0
sg358
I0
sg359
I0
sg360
I0
sg100
I0
sg361
I0
sg83
I0
sg84
I0
sg117
I0
sg268
I0
sg362
I0
sg89
I0
sg363
I0
sg106
I4
sg105
I0
sg98
I0
sg269
I0
sg270
I0
sg364
I0
sg103
I0
sg365
I0
sg366
I0
sg367
I0
sg368
I0
sg122
I0
sg276
I0
sg88
I0
sg121
I0
sg87
I0
sg125
I0
sg124
I0
sg369
I0
sg370
I0
sg371
I0
sg372
I0
sg373
I0
sg374
I0
sg375
I0
sg312
I0
sg376
I0
sg377
I0
sg114
I0
sg113
I0
sg289
I0
sg97
I0
sg378
I0
sg291
I0
sg99
I0
sg379
I0
sg380
I0
sg381
I0
sg382
I0
sg94
I0
sg383
I0
sg384
I0
sg101
I0
sg385
I0
sg386
I0
sg297
I0
sg387
I0
sg388
I0
sg389
I0
sg118
I0
sg390
I0
sg391
I0
sg95
I0
sg93
I0
sg80
I0
sg392
I0
sg393
I0
sg394
I0
sg395
I0
sg305
I0
sg107
I0
sg306
I0
sg307
I0
sg111
I0
sg396
I0
sg104
I0
sg96
I0
sg310
I0
sg81
I0
sg109
I0
sg311
I0
sg397
I0
sg313
I0
sg314
I0
sg82
I0
sg112
I0
sg110
I0
ssg98
(dp559
g135
I0
sg102
I0
sg156
I0
sg167
I0
sg168
I0
sg250
I0
sg169
I0
sg251
I0
sg148
I0
sg252
I0
sg235
I0
sg140
I0
sg254
I0
sg175
I0
sg92
I0
sg142
I0
sg154
I0
sg91
I0
sg173
I0
sg115
I0
sg119
I0
sg85
I0
sg257
I0
sg258
I0
sg116
I0
sg108
I0
sg259
I0
sg260
I0
sg261
I0
sg262
I0
sg120
I0
sg123
I0
sg90
I0
sg86
I0
sg263
I0
sg128
I0
sg133
I0
sg132
I0
sg186
I0
sg187
I0
sg160
I0
sg159
I0
sg130
I0
sg83
I0
sg84
I0
sg117
I0
sg267
I0
sg268
I0
sg158
I0
sg89
I0
sg143
I0
sg146
I0
sg106
I0
sg105
I0
sg98
I8
sg269
I0
sg270
I0
sg147
I0
sg103
I0
sg155
I0
sg197
I0
sg271
I0
sg272
I0
sg273
I0
sg274
I0
sg199
I0
sg161
I0
sg122
I0
sg275
I0
sg276
I0
sg88
I0
sg121
I0
sg87
I0
sg125
I0
sg124
I0
sg206
I0
sg277
I0
sg111
I0
sg112
I0
sg278
I0
sg279
I0
sg280
I0
sg134
I0
sg282
I0
sg283
I0
sg284
I0
sg151
I0
sg285
I0
sg286
I0
sg287
I0
sg288
I0
sg114
I0
sg113
I0
sg289
I0
sg97
I0
sg153
I0
sg290
I0
sg291
I0
sg99
I0
sg292
I0
sg157
I0
sg139
I0
sg138
I0
sg94
I0
sg127
I0
sg295
I0
sg145
I0
sg296
I0
sg101
I0
sg150
I0
sg149
I0
sg297
I0
sg129
I0
sg299
I0
sg223
I0
sg152
I0
sg300
I0
sg118
I0
sg100
I0
sg218
I0
sg141
I0
sg95
I0
sg93
I0
sg80
I0
sg144
I0
sg131
I0
sg126
I0
sg304
I0
sg305
I0
sg202
I0
sg188
I0
sg107
I0
sg231
I0
sg306
I0
sg307
I0
sg234
I0
sg137
I0
sg236
I0
sg136
I0
sg104
I0
sg96
I0
sg310
I0
sg240
I0
sg81
I0
sg109
I0
sg311
I0
sg312
I0
sg313
I0
sg314
I0
sg82
I0
sg246
I0
sg315
I0
sg110
I0
sg316
I0
ssg61
(dp560
g135
I0
sg102
I0
sg156
I0
sg14
I0
sg106
I0
sg63
I0
sg118
I0
sg17
I0
sg134
I0
sg55
I0
sg148
I0
sg79
I0
sg137
I0
sg121
I0
sg140
I0
sg71
I0
sg92
I0
sg142
I0
sg154
I0
sg91
I0
sg34
I0
sg153
I0
sg119
I0
sg85
I0
sg27
I0
sg108
I0
sg116
I0
sg45
I0
sg37
I0
sg68
I0
sg24
I0
sg120
I0
sg123
I0
sg90
I0
sg86
I0
sg25
I0
sg128
I0
sg133
I0
sg132
I0
sg26
I0
sg18
I0
sg160
I0
sg159
I0
sg130
I0
sg83
I0
sg84
I0
sg117
I0
sg22
I0
sg21
I0
sg158
I0
sg89
I0
sg143
I0
sg146
I0
sg155
I0
sg12
I0
sg105
I0
sg98
I0
sg61
I0
sg60
I0
sg147
I0
sg103
I0
sg114
I0
sg29
I0
sg9
I0
sg65
I0
sg8
I0
sg62
I0
sg64
I0
sg161
I0
sg122
I0
sg44
I0
sg30
I0
sg88
I0
sg115
I0
sg87
I0
sg125
I0
sg124
I0
sg28
I0
sg52
I0
sg73
I0
sg72
I0
sg67
I0
sg77
I0
sg70
I0
sg58
I0
sg41
I0
sg54
I0
sg50
I0
sg151
I0
sg46
I0
sg49
I0
sg66
I0
sg53
I0
sg99
I0
sg113
I0
sg16
I0
sg97
I0
sg69
I0
sg15
I0
sg75
I0
sg74
I0
sg157
I0
sg139
I0
sg138
I0
sg94
I0
sg127
I0
sg51
I0
sg145
I0
sg56
I0
sg101
I0
sg150
I0
sg149
I0
sg111
I0
sg20
I0
sg129
I0
sg59
I0
sg40
I0
sg152
I0
sg57
I0
sg38
I0
sg100
I0
sg10
I0
sg141
I0
sg95
I0
sg93
I0
sg80
I0
sg144
I0
sg131
I0
sg126
I0
sg78
I0
sg76
I0
sg13
I0
sg107
I0
sg33
I0
sg11
I0
sg47
I0
sg35
I0
sg43
I0
sg42
I0
sg136
I0
sg104
I0
sg96
I0
sg36
I0
sg39
I0
sg81
I0
sg109
I0
sg19
I0
sg32
I0
sg31
I0
sg82
I0
sg23
I0
sg112
I0
sg110
I0
sg48
I0
ssg60
(dp561
g135
I0
sg102
I0
sg156
I0
sg14
I0
sg106
I0
sg63
I0
sg118
I0
sg17
I0
sg134
I0
sg55
I0
sg148
I0
sg79
I0
sg137
I0
sg121
I0
sg140
I0
sg71
I0
sg92
I0
sg142
I0
sg154
I0
sg91
I0
sg34
I0
sg153
I0
sg119
I0
sg85
I0
sg27
I0
sg108
I0
sg116
I0
sg45
I0
sg37
I0
sg68
I0
sg24
I0
sg120
I0
sg123
I0
sg90
I0
sg86
I0
sg25
I0
sg128
I0
sg133
I0
sg132
I0
sg26
I0
sg18
I0
sg160
I0
sg159
I0
sg130
I0
sg83
I0
sg84
I0
sg117
I0
sg22
I0
sg21
I0
sg158
I0
sg89
I0
sg143
I0
sg146
I0
sg155
I0
sg12
I0
sg105
I0
sg98
I0
sg61
I16
sg60
I0
sg147
I0
sg103
I0
sg114
I0
sg29
I0
sg9
I0
sg65
I0
sg8
I0
sg62
I0
sg64
I0
sg161
I0
sg122
I0
sg44
I0
sg30
I0
sg88
I0
sg115
I0
sg87
I0
sg125
I0
sg124
I0
sg28
I0
sg52
I0
sg73
I0
sg72
I0
sg67
I0
sg77
I0
sg70
I0
sg58
I0
sg41
I0
sg54
I0
sg50
I0
sg151
I0
sg46
I0
sg49
I0
sg66
I0
sg53
I0
sg99
I0
sg113
I0
sg16
I0
sg97
I0
sg69
I0
sg15
I0
sg75
I0
sg74
I0
sg157
I0
sg139
I0
sg138
I0
sg94
I0
sg127
I0
sg10
I0
sg145
I0
sg56
I0
sg101
I0
sg150
I0
sg149
I0
sg111
I0
sg20
I0
sg129
I0
sg59
I0
sg40
I0
sg152
I0
sg57
I0
sg38
I0
sg100
I0
sg51
I0
sg141
I0
sg95
I0
sg93
I0
sg80
I0
sg144
I0
sg131
I0
sg126
I0
sg78
I0
sg76
I0
sg13
I0
sg107
I0
sg33
I0
sg11
I0
sg47
I0
sg35
I0
sg43
I0
sg42
I0
sg136
I0
sg104
I0
sg96
I0
sg36
I0
sg39
I0
sg81
I0
sg109
I0
sg19
I0
sg32
I0
sg31
I0
sg82
I0
sg23
I0
sg112
I0
sg110
I0
sg48
I0
ssg147
(dp562
g156
I0
sg167
I0
sg191
I0
sg210
I0
sg169
I0
sg318
I0
sg148
I0
sg170
I0
sg137
I0
sg140
I0
sg142
I0
sg154
I0
sg173
I0
sg153
I0
sg174
I0
sg175
I0
sg176
I0
sg177
I0
sg319
I0
sg179
I0
sg181
I0
sg183
I0
sg184
I0
sg185
I0
sg133
I0
sg132
I0
sg186
I0
sg187
I0
sg159
I0
sg130
I0
sg129
I0
sg160
I0
sg188
I0
sg189
I0
sg190
I0
sg143
I0
sg196
I0
sg168
I0
sg192
I0
sg193
I0
sg194
I0
sg195
I0
sg147
I0
sg146
I0
sg155
I0
sg197
I0
sg198
I0
sg199
I0
sg161
I0
sg200
I0
sg320
I0
sg201
I0
sg202
I0
sg203
I0
sg204
I0
sg205
I0
sg206
I0
sg321
I0
sg207
I0
sg208
I0
sg135
I0
sg134
I0
sg209
I0
sg322
I0
sg323
I0
sg151
I0
sg324
I0
sg325
I0
sg326
I0
sg211
I0
sg212
I0
sg213
I0
sg214
I0
sg215
I0
sg216
I0
sg158
I0
sg157
I0
sg139
I0
sg138
I0
sg327
I0
sg145
I0
sg328
I0
sg150
I0
sg220
I0
sg149
I0
sg221
I0
sg222
I0
sg223
I0
sg152
I0
sg329
I0
sg224
I0
sg218
I0
sg141
I0
sg228
I0
sg144
I0
sg131
I0
sg230
I0
sg231
I0
sg232
I0
sg233
I0
sg234
I0
sg235
I0
sg330
I0
sg236
I0
sg136
I0
sg237
I0
sg238
I0
sg239
I0
sg240
I0
sg241
I0
sg242
I0
sg244
I0
sg245
I0
sg246
I0
sg247
I0
sg331
I0
ssg103
(dp563
g345
I0
sg102
I0
sg346
I0
sg347
I0
sg348
I0
sg349
I0
sg252
I0
sg350
I0
sg351
I0
sg352
I0
sg353
I0
sg92
I0
sg354
I0
sg355
I0
sg91
I0
sg115
I0
sg119
I0
sg85
I0
sg356
I0
sg116
I0
sg108
I0
sg259
I0
sg260
I0
sg261
I0
sg262
I0
sg120
I0
sg123
I0
sg90
I0
sg86
I0
sg357
I0
sg358
I0
sg359
I0
sg360
I0
sg100
I0
sg361
I0
sg83
I0
sg84
I0
sg117
I0
sg268
I0
sg362
I0
sg89
I0
sg363
I0
sg106
I0
sg105
I0
sg98
I0
sg269
I0
sg270
I0
sg364
I0
sg103
I4
sg365
I0
sg366
I0
sg367
I0
sg368
I0
sg122
I0
sg276
I0
sg88
I0
sg121
I0
sg87
I0
sg125
I0
sg124
I0
sg369
I0
sg370
I0
sg371
I0
sg372
I0
sg373
I0
sg374
I0
sg375
I0
sg312
I0
sg376
I0
sg377
I0
sg114
I0
sg113
I0
sg289
I0
sg97
I0
sg378
I0
sg291
I0
sg99
I0
sg379
I0
sg380
I0
sg381
I0
sg382
I0
sg94
I0
sg383
I0
sg384
I0
sg101
I0
sg385
I0
sg386
I0
sg297
I0
sg387
I0
sg388
I0
sg389
I0
sg118
I0
sg390
I0
sg391
I0
sg95
I0
sg93
I0
sg80
I0
sg392
I0
sg393
I0
sg394
I0
sg395
I0
sg305
I0
sg107
I0
sg306
I0
sg307
I0
sg111
I0
sg396
I0
sg104
I0
sg96
I0
sg310
I0
sg81
I0
sg109
I0
sg311
I0
sg397
I0
sg313
I0
sg314
I0
sg82
I0
sg112
I0
sg110
I0
ssg114
(dp564
g345
I0
sg102
I0
sg346
I0
sg347
I0
sg348
I0
sg349
I0
sg252
I0
sg350
I0
sg351
I0
sg352
I0
sg353
I0
sg92
I0
sg354
I0
sg355
I0
sg91
I0
sg115
I0
sg119
I0
sg85
I0
sg356
I0
sg116
I0
sg108
I0
sg259
I0
sg260
I0
sg261
I0
sg262
I0
sg120
I0
sg123
I0
sg90
I0
sg86
I0
sg357
I0
sg358
I0
sg359
I0
sg360
I0
sg100
I0
sg361
I0
sg83
I0
sg84
I0
sg117
I0
sg268
I0
sg362
I0
sg89
I0
sg363
I0
sg106
I0
sg105
I0
sg98
I0
sg269
I0
sg270
I0
sg364
I0
sg103
I0
sg365
I0
sg366
I0
sg367
I0
sg368
I0
sg122
I0
sg276
I0
sg88
I0
sg121
I0
sg87
I0
sg125
I0
sg124
I0
sg369
I0
sg370
I0
sg371
I0
sg372
I0
sg373
I0
sg374
I0
sg375
I0
sg312
I0
sg376
I0
sg377
I0
sg114
I0
sg113
I0
sg289
I0
sg97
I0
sg378
I0
sg291
I0
sg99
I0
sg379
I0
sg380
I0
sg381
I0
sg382
I0
sg94
I0
sg383
I0
sg384
I0
sg101
I0
sg385
I0
sg386
I0
sg297
I0
sg387
I0
sg388
I0
sg389
I0
sg118
I0
sg390
I0
sg391
I0
sg95
I0
sg93
I0
sg80
I0
sg392
I0
sg393
I0
sg394
I0
sg395
I0
sg305
I0
sg107
I0
sg306
I0
sg307
I0
sg111
I0
sg396
I0
sg104
I0
sg96
I0
sg310
I0
sg81
I0
sg109
I0
sg311
I0
sg397
I0
sg313
I0
sg314
I0
sg82
I0
sg112
I0
sg110
I0
ssg29
(dp565
g135
I0
sg156
I0
sg14
I0
sg63
I0
sg17
I0
sg134
I0
sg55
I0
sg148
I0
sg79
I0
sg137
I0
sg140
I0
sg71
I0
sg142
I0
sg154
I0
sg34
I0
sg153
I0
sg451
I0
sg27
I0
sg45
I0
sg37
I0
sg68
I0
sg24
I0
sg452
I0
sg25
I0
sg133
I0
sg132
I0
sg26
I0
sg18
I0
sg159
I0
sg130
I0
sg129
I0
sg453
I0
sg131
I0
sg22
I0
sg21
I0
sg158
I0
sg454
I0
sg143
I0
sg12
I0
sg193
I0
sg61
I0
sg60
I0
sg147
I0
sg146
I0
sg155
I0
sg29
I4
sg9
I0
sg65
I0
sg8
I0
sg62
I0
sg64
I0
sg161
I0
sg44
I0
sg30
I0
sg455
I0
sg456
I0
sg28
I0
sg52
I0
sg73
I0
sg72
I0
sg67
I0
sg77
I0
sg70
I0
sg58
I0
sg41
I0
sg54
I0
sg50
I0
sg151
I0
sg46
I0
sg49
I0
sg66
I0
sg53
I0
sg216
I0
sg16
I0
sg214
I0
sg69
I0
sg15
I0
sg75
I0
sg74
I0
sg157
I0
sg139
I0
sg138
I0
sg457
I0
sg51
I0
sg145
I0
sg56
I0
sg150
I0
sg149
I0
sg20
I0
sg458
I0
sg59
I0
sg40
I0
sg152
I0
sg57
I0
sg38
I0
sg31
I0
sg10
I0
sg141
I0
sg459
I0
sg460
I0
sg144
I0
sg160
I0
sg78
I0
sg76
I0
sg13
I0
sg33
I0
sg11
I0
sg47
I0
sg35
I0
sg43
I0
sg42
I0
sg136
I0
sg36
I0
sg39
I0
sg461
I0
sg19
I0
sg32
I0
sg462
I0
sg463
I0
sg23
I0
sg48
I0
ssg9
(dp566
g135
I0
sg399
I0
sg156
I0
sg14
I0
sg63
I0
sg333
I0
sg17
I0
sg134
I0
sg55
I0
sg148
I0
sg79
I0
sg137
I0
sg338
I0
sg140
I0
sg71
I0
sg401
I0
sg142
I0
sg154
I0
sg34
I0
sg153
I0
sg334
I0
sg403
I0
sg27
I0
sg335
I0
sg45
I0
sg37
I0
sg68
I0
sg24
I0
sg343
I0
sg336
I0
sg405
I0
sg406
I0
sg25
I0
sg133
I0
sg132
I0
sg26
I0
sg18
I0
sg159
I0
sg407
I0
sg130
I0
sg408
I0
sg409
I0
sg131
I0
sg22
I0
sg21
I0
sg158
I0
sg410
I0
sg143
I0
sg12
I0
sg412
I0
sg61
I0
sg60
I0
sg147
I0
sg146
I0
sg155
I0
sg29
I0
sg9
I4
sg65
I0
sg8
I0
sg62
I0
sg64
I0
sg161
I0
sg337
I0
sg44
I0
sg30
I0
sg415
I0
sg214
I0
sg416
I0
sg339
I0
sg340
I0
sg28
I0
sg52
I0
sg73
I0
sg72
I0
sg67
I0
sg77
I0
sg70
I0
sg58
I0
sg41
I0
sg54
I0
sg50
I0
sg151
I0
sg46
I0
sg49
I0
sg66
I0
sg53
I0
sg417
I0
sg16
I0
sg419
I0
sg69
I0
sg15
I0
sg75
I0
sg74
I0
sg157
I0
sg139
I0
sg138
I0
sg420
I0
sg127
I0
sg51
I0
sg145
I0
sg56
I0
sg421
I0
sg150
I0
sg341
I0
sg149
I0
sg20
I0
sg129
I0
sg59
I0
sg40
I0
sg152
I0
sg57
I0
sg38
I0
sg31
I0
sg10
I0
sg141
I0
sg423
I0
sg424
I0
sg425
I0
sg144
I0
sg160
I0
sg126
I0
sg78
I0
sg76
I0
sg13
I0
sg33
I0
sg11
I0
sg47
I0
sg35
I0
sg43
I0
sg42
I0
sg136
I0
sg428
I0
sg36
I0
sg39
I0
sg429
I0
sg19
I0
sg32
I0
sg128
I0
sg431
I0
sg23
I0
sg48
I0
ssg65
(dp567
g399
I0
sg14
I0
sg400
I0
sg63
I0
sg17
I0
sg55
I0
sg79
I0
sg71
I0
sg401
I0
sg402
I0
sg34
I0
sg403
I0
sg27
I0
sg404
I0
sg45
I0
sg37
I0
sg68
I0
sg24
I0
sg405
I0
sg406
I0
sg25
I0
sg26
I0
sg18
I0
sg407
I0
sg408
I0
sg409
I0
sg22
I0
sg21
I0
sg410
I0
sg12
I0
sg411
I0
sg412
I0
sg61
I0
sg60
I0
sg413
I0
sg414
I0
sg29
I0
sg9
I0
sg65
I0
sg8
I0
sg62
I0
sg64
I0
sg44
I0
sg30
I0
sg415
I0
sg416
I0
sg28
I0
sg52
I0
sg73
I0
sg72
I0
sg67
I0
sg77
I0
sg70
I0
sg58
I0
sg41
I0
sg54
I0
sg50
I0
sg46
I0
sg49
I0
sg66
I0
sg53
I0
sg417
I0
sg418
I0
sg16
I0
sg419
I0
sg69
I0
sg15
I0
sg75
I0
sg74
I0
sg420
I0
sg127
I0
sg51
I0
sg56
I0
sg421
I0
sg422
I0
sg20
I0
sg59
I0
sg40
I0
sg57
I0
sg38
I0
sg31
I0
sg10
I0
sg423
I0
sg424
I0
sg425
I0
sg126
I0
sg78
I0
sg76
I0
sg13
I0
sg426
I0
sg33
I0
sg11
I0
sg47
I0
sg35
I0
sg43
I0
sg42
I0
sg427
I0
sg428
I0
sg36
I0
sg39
I0
sg429
I0
sg430
I0
sg19
I0
sg32
I0
sg128
I0
sg431
I0
sg23
I0
sg432
I0
sg433
I0
sg48
I0
ssg8
(dp568
g135
I0
sg156
I0
sg14
I0
sg63
I0
sg333
I0
sg17
I0
sg55
I0
sg148
I0
sg79
I0
sg137
I0
sg140
I0
sg71
I0
sg142
I0
sg154
I0
sg34
I0
sg153
I0
sg334
I0
sg27
I0
sg335
I0
sg45
I0
sg37
I0
sg68
I0
sg24
I0
sg336
I0
sg25
I0
sg133
I0
sg132
I0
sg26
I0
sg18
I0
sg159
I0
sg130
I0
sg129
I0
sg131
I0
sg22
I0
sg21
I0
sg158
I0
sg190
I0
sg143
I0
sg12
I0
sg193
I0
sg61
I0
sg60
I0
sg147
I0
sg146
I0
sg155
I0
sg29
I0
sg9
I4
sg65
I0
sg8
I0
sg62
I0
sg64
I0
sg161
I0
sg337
I0
sg44
I0
sg30
I0
sg13
I0
sg338
I0
sg339
I0
sg340
I0
sg28
I0
sg52
I0
sg73
I0
sg72
I0
sg67
I0
sg77
I0
sg70
I0
sg134
I0
sg41
I0
sg54
I0
sg50
I0
sg151
I0
sg46
I0
sg49
I0
sg66
I0
sg53
I0
sg216
I0
sg16
I0
sg214
I0
sg69
I0
sg15
I0
sg75
I0
sg74
I0
sg157
I0
sg139
I0
sg138
I0
sg51
I0
sg145
I0
sg56
I0
sg150
I0
sg341
I0
sg149
I0
sg20
I0
sg59
I0
sg40
I0
sg152
I0
sg57
I0
sg38
I0
sg10
I0
sg141
I0
sg342
I0
sg144
I0
sg160
I0
sg78
I0
sg76
I0
sg33
I0
sg11
I0
sg47
I0
sg35
I0
sg43
I0
sg42
I0
sg136
I0
sg343
I0
sg36
I0
sg39
I0
sg19
I0
sg32
I0
sg31
I0
sg23
I0
sg48
I0
sg58
I0
ssg62
(dp569
g399
I0
sg14
I0
sg400
I0
sg63
I4
sg17
I0
sg55
I0
sg79
I0
sg71
I0
sg401
I0
sg402
I0
sg34
I0
sg403
I0
sg27
I0
sg404
I0
sg45
I0
sg37
I0
sg68
I0
sg24
I0
sg405
I0
sg406
I0
sg25
I0
sg26
I0
sg18
I0
sg407
I0
sg408
I0
sg409
I0
sg22
I0
sg21
I0
sg410
I0
sg12
I0
sg411
I0
sg412
I0
sg61
I0
sg60
I0
sg413
I0
sg414
I0
sg29
I0
sg9
I0
sg65
I0
sg8
I0
sg62
I0
sg64
I0
sg44
I0
sg30
I0
sg415
I0
sg416
I0
sg28
I0
sg52
I0
sg73
I0
sg72
I0
sg67
I0
sg77
I0
sg70
I0
sg58
I0
sg41
I0
sg54
I0
sg50
I0
sg46
I0
sg49
I0
sg66
I0
sg53
I0
sg417
I0
sg418
I0
sg16
I0
sg419
I0
sg69
I0
sg15
I0
sg75
I0
sg74
I0
sg420
I0
sg127
I0
sg51
I0
sg56
I0
sg421
I0
sg422
I0
sg20
I0
sg59
I0
sg40
I0
sg57
I0
sg38
I0
sg31
I0
sg10
I0
sg423
I0
sg424
I0
sg425
I0
sg126
I0
sg78
I0
sg76
I0
sg13
I0
sg426
I0
sg33
I0
sg11
I0
sg47
I0
sg35
I0
sg43
I0
sg42
I0
sg427
I0
sg428
I0
sg36
I0
sg39
I0
sg429
I0
sg430
I0
sg19
I0
sg32
I0
sg128
I0
sg431
I0
sg23
I0
sg432
I0
sg433
I0
sg48
I0
ssg64
(dp570
g399
I0
sg14
I0
sg400
I0
sg63
I0
sg17
I0
sg55
I0
sg79
I0
sg71
I0
sg401
I0
sg402
I0
sg34
I0
sg403
I0
sg27
I0
sg404
I0
sg45
I0
sg37
I0
sg68
I0
sg24
I0
sg405
I0
sg406
I0
sg25
I0
sg26
I0
sg18
I0
sg407
I0
sg408
I0
sg409
I0
sg22
I0
sg21
I0
sg410
I0
sg12
I0
sg411
I0
sg412
I0
sg61
I0
sg60
I0
sg413
I0
sg414
I0
sg29
I0
sg9
I0
sg65
I4
sg8
I0
sg62
I0
sg64
I0
sg44
I0
sg30
I0
sg415
I0
sg416
I0
sg28
I0
sg52
I0
sg73
I0
sg72
I0
sg67
I0
sg77
I0
sg70
I0
sg58
I0
sg41
I0
sg54
I0
sg50
I0
sg46
I0
sg49
I0
sg66
I0
sg53
I0
sg417
I0
sg418
I0
sg16
I0
sg419
I0
sg69
I0
sg15
I0
sg75
I0
sg74
I0
sg420
I0
sg127
I0
sg51
I0
sg56
I0
sg421
I0
sg422
I0
sg20
I0
sg59
I0
sg40
I0
sg57
I0
sg38
I0
sg31
I0
sg10
I0
sg423
I0
sg424
I0
sg425
I0
sg126
I0
sg78
I0
sg76
I0
sg13
I0
sg426
I0
sg33
I0
sg11
I0
sg47
I0
sg35
I0
sg43
I0
sg42
I0
sg427
I0
sg428
I0
sg36
I0
sg39
I0
sg429
I0
sg430
I0
sg19
I0
sg32
I0
sg128
I0
sg431
I0
sg23
I0
sg432
I0
sg433
I0
sg48
I0
ssg161
(dp571
g156
I0
sg167
I0
sg169
I0
sg318
I0
sg148
I0
sg170
I0
sg137
I0
sg140
I0
sg142
I0
sg154
I0
sg173
I0
sg153
I0
sg175
I0
sg319
I0
sg179
I0
sg181
I0
sg185
I0
sg133
I0
sg132
I0
sg186
I0
sg187
I0
sg159
I0
sg130
I0
sg129
I0
sg160
I0
sg188
I0
sg189
I0
sg190
I0
sg143
I0
sg168
I0
sg193
I0
sg194
I0
sg195
I0
sg147
I0
sg146
I0
sg155
I0
sg197
I0
sg198
I0
sg199
I0
sg161
I0
sg320
I0
sg201
I0
sg202
I0
sg206
I0
sg321
I0
sg135
I0
sg134
I0
sg209
I0
sg322
I0
sg323
I0
sg151
I0
sg324
I0
sg325
I0
sg326
I0
sg213
I0
sg214
I0
sg215
I0
sg216
I0
sg158
I0
sg157
I0
sg139
I0
sg138
I0
sg327
I0
sg145
I0
sg328
I0
sg150
I0
sg149
I0
sg221
I0
sg222
I0
sg223
I0
sg152
I0
sg329
I0
sg224
I0
sg218
I0
sg141
I0
sg144
I0
sg131
I0
sg231
I0
sg232
I0
sg233
I0
sg234
I0
sg235
I0
sg330
I0
sg236
I0
sg136
I0
sg239
I0
sg240
I0
sg242
I0
sg244
I0
sg245
I0
sg246
I0
sg331
I0
ssg122
(dp572
g346
I0
sg102
I0
sg435
I0
sg436
I0
sg348
I0
sg349
I0
sg252
I0
sg351
I0
sg92
I0
sg354
I0
sg355
I0
sg91
I0
sg115
I0
sg119
I0
sg85
I0
sg353
I0
sg116
I0
sg108
I0
sg259
I0
sg260
I0
sg261
I0
sg262
I0
sg120
I0
sg123
I0
sg90
I0
sg86
I0
sg437
I0
sg358
I0
sg359
I0
sg438
I0
sg439
I0
sg440
I0
sg360
I0
sg361
I0
sg83
I0
sg84
I0
sg393
I0
sg441
I0
sg268
I0
sg89
I0
sg442
I0
sg103
I0
sg106
I0
sg105
I0
sg98
I0
sg269
I0
sg270
I0
sg364
I0
sg363
I0
sg365
I0
sg443
I0
sg444
I0
sg122
I4
sg276
I0
sg88
I0
sg121
I0
sg87
I0
sg125
I0
sg124
I0
sg445
I0
sg111
I0
sg112
I0
sg345
I0
sg374
I0
sg446
I0
sg312
I0
sg376
I0
sg114
I0
sg113
I0
sg289
I0
sg97
I0
sg291
I0
sg99
I0
sg362
I0
sg380
I0
sg381
I0
sg382
I0
sg94
I0
sg447
I0
sg384
I0
sg101
I0
sg385
I0
sg386
I0
sg297
I0
sg387
I0
sg388
I0
sg389
I0
sg118
I0
sg100
I0
sg391
I0
sg95
I0
sg93
I0
sg80
I0
sg392
I0
sg117
I0
sg305
I0
sg448
I0
sg107
I0
sg306
I0
sg307
I0
sg350
I0
sg396
I0
sg104
I0
sg96
I0
sg310
I0
sg81
I0
sg109
I0
sg311
I0
sg397
I0
sg313
I0
sg314
I0
sg82
I0
sg449
I0
sg110
I0
ssg44
(dp573
g466
I0
sg399
I0
sg14
I0
sg63
I0
sg17
I0
sg55
I0
sg467
I0
sg79
I0
sg71
I0
sg401
I0
sg468
I0
sg34
I0
sg469
I0
sg403
I0
sg27
I0
sg45
I0
sg37
I0
sg68
I0
sg24
I0
sg405
I0
sg406
I0
sg25
I0
sg26
I0
sg18
I0
sg470
I0
sg407
I0
sg408
I0
sg409
I0
sg22
I0
sg21
I0
sg471
I0
sg410
I0
sg12
I0
sg412
I0
sg61
I0
sg60
I0
sg472
I0
sg473
I0
sg474
I0
sg29
I0
sg9
I0
sg65
I0
sg8
I0
sg62
I0
sg64
I0
sg475
I0
sg44
I4
sg30
I0
sg415
I0
sg416
I0
sg28
I0
sg52
I0
sg73
I0
sg72
I0
sg67
I0
sg77
I0
sg70
I0
sg58
I0
sg41
I0
sg54
I0
sg50
I0
sg476
I0
sg46
I0
sg49
I0
sg66
I0
sg53
I0
sg417
I0
sg16
I0
sg419
I0
sg69
I0
sg15
I0
sg75
I0
sg74
I0
sg477
I0
sg420
I0
sg127
I0
sg51
I0
sg478
I0
sg56
I0
sg421
I0
sg479
I0
sg480
I0
sg20
I0
sg59
I0
sg40
I0
sg481
I0
sg57
I0
sg38
I0
sg31
I0
sg10
I0
sg423
I0
sg424
I0
sg425
I0
sg126
I0
sg78
I0
sg76
I0
sg13
I0
sg33
I0
sg11
I0
sg47
I0
sg35
I0
sg43
I0
sg42
I0
sg428
I0
sg36
I0
sg39
I0
sg429
I0
sg19
I0
sg32
I0
sg128
I0
sg431
I0
sg23
I0
sg48
I0
ssg30
(dp574
g135
I0
sg102
I0
sg156
I0
sg14
I0
sg106
I0
sg63
I0
sg118
I0
sg17
I0
sg134
I0
sg55
I0
sg148
I0
sg79
I0
sg137
I0
sg121
I0
sg140
I0
sg71
I0
sg92
I0
sg142
I0
sg154
I0
sg91
I0
sg34
I0
sg153
I0
sg119
I0
sg85
I0
sg27
I0
sg108
I0
sg116
I0
sg45
I0
sg37
I0
sg68
I0
sg24
I0
sg120
I0
sg123
I0
sg90
I0
sg86
I0
sg25
I0
sg128
I0
sg133
I0
sg132
I0
sg26
I0
sg18
I0
sg160
I0
sg159
I0
sg130
I0
sg83
I0
sg84
I0
sg117
I0
sg22
I0
sg21
I0
sg158
I0
sg89
I0
sg143
I0
sg146
I0
sg155
I0
sg12
I0
sg105
I0
sg98
I0
sg61
I0
sg60
I0
sg147
I0
sg103
I0
sg114
I0
sg29
I0
sg9
I0
sg65
I0
sg8
I0
sg62
I0
sg64
I0
sg161
I0
sg122
I0
sg44
I0
sg30
I0
sg88
I0
sg115
I0
sg87
I0
sg125
I0
sg124
I0
sg28
I0
sg52
I0
sg73
I0
sg72
I0
sg67
I0
sg77
I0
sg70
I0
sg58
I0
sg41
I0
sg54
I0
sg50
I0
sg151
I0
sg46
I0
sg49
I0
sg66
I0
sg53
I0
sg99
I0
sg113
I0
sg16
I0
sg97
I0
sg69
I0
sg15
I0
sg75
I0
sg74
I0
sg157
I0
sg139
I0
sg138
I0
sg94
I0
sg127
I0
sg51
I0
sg145
I0
sg56
I0
sg101
I0
sg150
I0
sg149
I0
sg111
I0
sg20
I0
sg129
I0
sg59
I0
sg40
I0
sg152
I0
sg57
I0
sg38
I0
sg100
I0
sg10
I0
sg141
I0
sg95
I0
sg93
I0
sg80
I0
sg144
I0
sg131
I0
sg126
I0
sg78
I0
sg76
I0
sg13
I0
sg107
I0
sg33
I0
sg11
I0
sg47
I0
sg35
I0
sg43
I0
sg42
I0
sg136
I0
sg104
I0
sg96
I0
sg36
I0
sg39
I0
sg81
I0
sg109
I0
sg19
I0
sg32
I0
sg31
I0
sg82
I0
sg23
I0
sg112
I0
sg110
I0
sg48
I0
ssg88
(dp575
g102
I0
sg250
I0
sg496
I0
sg251
I0
sg252
I0
sg254
I0
sg92
I0
sg91
I0
sg497
I0
sg115
I0
sg119
I0
sg85
I0
sg257
I0
sg258
I0
sg116
I0
sg108
I0
sg259
I0
sg260
I0
sg261
I0
sg262
I0
sg120
I0
sg123
I0
sg90
I0
sg86
I0
sg263
I0
sg128
I0
sg498
I0
sg83
I0
sg84
I0
sg117
I0
sg267
I0
sg268
I0
sg89
I0
sg106
I0
sg105
I0
sg98
I0
sg269
I0
sg270
I0
sg103
I0
sg499
I0
sg271
I0
sg272
I0
sg273
I0
sg274
I0
sg122
I0
sg275
I0
sg276
I0
sg88
I0
sg121
I0
sg87
I0
sg125
I0
sg124
I0
sg277
I0
sg111
I0
sg112
I0
sg278
I0
sg279
I0
sg280
I0
sg282
I0
sg283
I0
sg284
I0
sg285
I0
sg286
I0
sg287
I0
sg288
I0
sg114
I0
sg113
I0
sg289
I0
sg97
I0
sg290
I0
sg291
I0
sg99
I0
sg292
I0
sg94
I0
sg127
I0
sg295
I0
sg296
I0
sg101
I0
sg297
I0
sg299
I0
sg500
I0
sg300
I0
sg118
I0
sg100
I0
sg501
I0
sg95
I0
sg93
I0
sg80
I0
sg126
I0
sg304
I0
sg305
I0
sg107
I0
sg502
I0
sg306
I0
sg307
I0
sg503
I0
sg504
I0
sg505
I0
sg104
I0
sg96
I0
sg310
I0
sg506
I0
sg81
I0
sg109
I0
sg311
I0
sg312
I0
sg313
I0
sg314
I0
sg82
I0
sg315
I0
sg110
I0
sg316
I0
ssg115
(dp576
g156
I0
sg102
I0
sg167
I0
sg168
I0
sg169
I0
sg148
I0
sg252
I0
sg235
I0
sg140
I0
sg92
I0
sg142
I0
sg154
I0
sg91
I0
sg173
I0
sg153
I0
sg119
I0
sg85
I0
sg175
I0
sg116
I0
sg108
I0
sg259
I0
sg260
I0
sg261
I0
sg262
I0
sg120
I0
sg123
I0
sg90
I0
sg86
I0
sg185
I0
sg133
I0
sg132
I0
sg186
I0
sg187
I0
sg160
I0
sg159
I0
sg130
I0
sg83
I0
sg84
I0
sg131
I0
sg188
I0
sg268
I0
sg89
I0
sg143
I0
sg103
I0
sg106
I0
sg105
I0
sg98
I0
sg269
I0
sg270
I0
sg147
I0
sg146
I0
sg155
I0
sg197
I0
sg198
I0
sg199
I0
sg161
I0
sg122
I0
sg276
I0
sg88
I0
sg121
I0
sg87
I0
sg125
I0
sg124
I0
sg206
I0
sg111
I0
sg112
I0
sg135
I0
sg134
I0
sg209
I0
sg312
I0
sg151
I0
sg114
I0
sg113
I0
sg289
I0
sg115
I0
sg291
I0
sg99
I0
sg158
I0
sg157
I0
sg139
I0
sg138
I0
sg94
I0
sg218
I0
sg145
I0
sg101
I0
sg150
I0
sg149
I0
sg297
I0
sg129
I0
sg222
I0
sg223
I0
sg152
I0
sg118
I0
sg100
I0
sg141
I0
sg95
I0
sg93
I0
sg80
I0
sg144
I0
sg117
I0
sg305
I0
sg202
I0
sg107
I0
sg231
I0
sg306
I0
sg307
I0
sg234
I0
sg137
I0
sg236
I0
sg136
I0
sg104
I0
sg96
I0
sg310
I0
sg240
I0
sg81
I0
sg109
I0
sg311
I0
sg97
I0
sg313
I0
sg314
I0
sg82
I0
sg246
I0
sg110
I0
ssg87
(dp577
g102
I0
sg250
I0
sg496
I0
sg251
I0
sg252
I0
sg254
I0
sg92
I0
sg91
I0
sg497
I0
sg115
I0
sg119
I0
sg85
I0
sg257
I0
sg258
I0
sg116
I0
sg108
I0
sg259
I0
sg260
I0
sg261
I0
sg262
I0
sg120
I0
sg123
I0
sg90
I0
sg86
I0
sg263
I0
sg128
I0
sg498
I0
sg83
I0
sg84
I0
sg117
I0
sg267
I0
sg268
I0
sg89
I0
sg106
I0
sg105
I0
sg98
I0
sg269
I0
sg270
I0
sg103
I0
sg499
I0
sg271
I0
sg272
I0
sg273
I0
sg274
I0
sg122
I0
sg275
I0
sg276
I0
sg88
I4
sg121
I0
sg87
I0
sg125
I0
sg124
I0
sg277
I0
sg111
I0
sg112
I0
sg278
I0
sg279
I0
sg280
I0
sg282
I0
sg283
I0
sg284
I0
sg285
I0
sg286
I0
sg287
I0
sg288
I0
sg114
I0
sg113
I0
sg289
I0
sg97
I0
sg290
I0
sg291
I0
sg99
I0
sg292
I0
sg94
I0
sg127
I0
sg295
I0
sg296
I0
sg101
I0
sg297
I0
sg299
I0
sg500
I0
sg300
I0
sg118
I0
sg100
I0
sg501
I0
sg95
I0
sg93
I0
sg80
I0
sg126
I0
sg304
I0
sg305
I0
sg107
I0
sg502
I0
sg306
I0
sg307
I0
sg503
I0
sg504
I0
sg505
I0
sg104
I0
sg96
I0
sg310
I0
sg506
I0
sg81
I0
sg109
I0
sg311
I0
sg312
I0
sg313
I0
sg314
I0
sg82
I0
sg315
I0
sg110
I0
sg316
I0
ssg125
(dp578
g346
I0
sg102
I0
sg435
I0
sg436
I0
sg348
I0
sg349
I0
sg252
I0
sg351
I0
sg92
I0
sg354
I0
sg355
I0
sg91
I0
sg115
I0
sg119
I0
sg85
I0
sg353
I0
sg116
I0
sg108
I0
sg259
I0
sg260
I0
sg261
I0
sg262
I0
sg120
I0
sg123
I0
sg90
I0
sg86
I0
sg437
I0
sg358
I0
sg359
I0
sg438
I0
sg439
I0
sg440
I0
sg360
I0
sg361
I0
sg83
I0
sg84
I0
sg393
I0
sg441
I0
sg268
I0
sg89
I0
sg442
I0
sg103
I0
sg106
I0
sg105
I0
sg98
I0
sg269
I0
sg270
I0
sg364
I0
sg363
I0
sg365
I0
sg443
I0
sg444
I0
sg122
I0
sg276
I0
sg88
I0
sg121
I0
sg87
I0
sg125
I0
sg124
I0
sg445
I0
sg111
I0
sg112
I0
sg345
I0
sg374
I0
sg446
I0
sg312
I0
sg376
I0
sg114
I0
sg113
I0
sg289
I0
sg97
I0
sg291
I0
sg99
I0
sg362
I0
sg380
I0
sg381
I0
sg382
I0
sg94
I0
sg447
I0
sg384
I0
sg101
I0
sg385
I0
sg386
I0
sg297
I0
sg387
I0
sg388
I0
sg389
I0
sg118
I0
sg100
I0
sg391
I0
sg95
I0
sg93
I0
sg80
I0
sg392
I0
sg117
I0
sg305
I0
sg448
I0
sg107
I0
sg306
I0
sg307
I0
sg350
I0
sg396
I0
sg104
I0
sg96
I0
sg310
I0
sg81
I0
sg109
I0
sg311
I0
sg397
I0
sg313
I0
sg314
I0
sg82
I0
sg449
I0
sg110
I0
ssg124
(dp579
g346
I0
sg102
I0
sg435
I0
sg436
I0
sg348
I0
sg349
I0
sg252
I0
sg351
I0
sg92
I0
sg354
I0
sg355
I0
sg91
I0
sg115
I0
sg119
I0
sg85
I0
sg353
I0
sg116
I0
sg108
I0
sg259
I0
sg260
I0
sg261
I0
sg262
I0
sg120
I0
sg123
I0
sg90
I0
sg86
I0
sg437
I0
sg358
I0
sg359
I0
sg438
I0
sg439
I0
sg440
I0
sg360
I0
sg361
I0
sg83
I0
sg84
I0
sg393
I0
sg441
I0
sg268
I0
sg89
I0
sg442
I0
sg103
I0
sg106
I0
sg105
I0
sg98
I0
sg269
I0
sg270
I0
sg364
I0
sg363
I0
sg365
I0
sg443
I0
sg444
I0
sg122
I0
sg276
I0
sg88
I0
sg121
I0
sg87
I0
sg125
I4
sg124
I0
sg445
I0
sg111
I0
sg112
I0
sg345
I0
sg374
I0
sg446
I0
sg312
I0
sg376
I0
sg114
I0
sg113
I0
sg289
I0
sg97
I0
sg291
I0
sg99
I0
sg362
I0
sg380
I0
sg381
I0
sg382
I0
sg94
I0
sg447
I0
sg384
I0
sg101
I0
sg385
I0
sg386
I0
sg297
I0
sg387
I0
sg388
I0
sg389
I0
sg118
I0
sg100
I0
sg391
I0
sg95
I0
sg93
I0
sg80
I0
sg392
I0
sg117
I0
sg305
I0
sg448
I0
sg107
I0
sg306
I0
sg307
I0
sg350
I0
sg396
I0
sg104
I0
sg96
I0
sg310
I0
sg81
I0
sg109
I0
sg311
I0
sg397
I0
sg313
I0
sg314
I0
sg82
I0
sg449
I0
sg110
I0
ssg28
(dp580
g135
I0
sg156
I0
sg14
I0
sg63
I0
sg333
I0
sg17
I0
sg55
I0
sg148
I0
sg79
I0
sg137
I0
sg140
I0
sg71
I0
sg142
I0
sg154
I0
sg34
I0
sg153
I0
sg334
I0
sg27
I0
sg335
I0
sg45
I0
sg37
I0
sg68
I0
sg24
I0
sg336
I0
sg25
I0
sg133
I0
sg132
I0
sg26
I0
sg18
I0
sg159
I0
sg130
I0
sg129
I0
sg131
I0
sg22
I0
sg21
I0
sg158
I0
sg190
I0
sg143
I0
sg12
I0
sg193
I0
sg61
I0
sg60
I0
sg147
I0
sg146
I0
sg155
I0
sg29
I0
sg9
I0
sg65
I0
sg8
I0
sg62
I0
sg64
I0
sg161
I0
sg337
I0
sg44
I0
sg30
I0
sg13
I0
sg338
I0
sg339
I0
sg340
I0
sg28
I4
sg52
I0
sg73
I0
sg72
I0
sg67
I0
sg77
I0
sg70
I0
sg134
I0
sg41
I0
sg54
I0
sg50
I0
sg151
I0
sg46
I0
sg49
I0
sg66
I0
sg53
I0
sg216
I0
sg16
I0
sg214
I0
sg69
I0
sg15
I0
sg75
I0
sg74
I0
sg157
I0
sg139
I0
sg138
I0
sg51
I0
sg145
I0
sg56
I0
sg150
I0
sg341
I0
sg149
I0
sg20
I0
sg59
I0
sg40
I0
sg152
I0
sg57
I0
sg38
I0
sg10
I0
sg141
I0
sg342
I0
sg144
I0
sg160
I0
sg78
I0
sg76
I0
sg33
I0
sg11
I0
sg47
I0
sg35
I0
sg43
I0
sg42
I0
sg136
I0
sg343
I0
sg36
I0
sg39
I0
sg19
I0
sg32
I0
sg31
I0
sg23
I0
sg48
I0
sg58
I0
ssg52
(dp581
g466
I0
sg399
I0
sg14
I0
sg63
I0
sg17
I0
sg55
I0
sg467
I0
sg79
I0
sg71
I0
sg401
I0
sg468
I0
sg34
I0
sg469
I0
sg403
I0
sg27
I0
sg45
I0
sg37
I0
sg68
I0
sg24
I0
sg405
I0
sg406
I0
sg25
I0
sg26
I0
sg18
I0
sg470
I0
sg407
I0
sg408
I0
sg409
I0
sg22
I0
sg21
I0
sg471
I0
sg410
I0
sg12
I0
sg412
I0
sg61
I0
sg60
I0
sg472
I0
sg473
I0
sg474
I0
sg29
I0
sg9
I0
sg65
I0
sg8
I0
sg62
I0
sg64
I0
sg475
I0
sg44
I0
sg30
I0
sg415
I0
sg416
I0
sg28
I0
sg52
I8
sg73
I0
sg72
I0
sg67
I0
sg77
I0
sg70
I0
sg58
I0
sg41
I0
sg54
I0
sg50
I0
sg476
I0
sg46
I0
sg49
I0
sg66
I0
sg53
I0
sg417
I0
sg16
I0
sg419
I0
sg69
I0
sg15
I0
sg75
I0
sg74
I0
sg477
I0
sg420
I0
sg127
I0
sg51
I0
sg478
I0
sg56
I0
sg421
I0
sg479
I0
sg480
I0
sg20
I0
sg59
I0
sg40
I0
sg481
I0
sg57
I0
sg38
I0
sg31
I0
sg10
I0
sg423
I0
sg424
I0
sg425
I0
sg126
I0
sg78
I0
sg76
I0
sg13
I0
sg33
I0
sg11
I0
sg47
I0
sg35
I0
sg43
I0
sg42
I0
sg428
I0
sg36
I0
sg39
I0
sg429
I0
sg19
I0
sg32
I0
sg128
I0
sg431
I0
sg23
I0
sg48
I0
ssg73
(dp582
g399
I0
sg14
I0
sg400
I0
sg63
I0
sg17
I0
sg55
I0
sg79
I0
sg71
I0
sg401
I0
sg402
I0
sg34
I0
sg403
I0
sg27
I0
sg404
I0
sg45
I0
sg37
I0
sg68
I0
sg24
I0
sg405
I0
sg406
I0
sg25
I0
sg26
I0
sg18
I0
sg407
I0
sg408
I0
sg409
I0
sg22
I0
sg21
I0
sg410
I0
sg12
I0
sg411
I0
sg412
I0
sg61
I0
sg60
I0
sg413
I0
sg414
I0
sg29
I0
sg9
I0
sg65
I0
sg8
I0
sg62
I0
sg64
I0
sg44
I0
sg30
I0
sg415
I0
sg416
I0
sg28
I0
sg52
I0
sg73
I0
sg72
I0
sg67
I0
sg77
I0
sg70
I0
sg58
I0
sg41
I0
sg54
I0
sg50
I0
sg46
I0
sg49
I0
sg66
I0
sg53
I0
sg417
I0
sg418
I0
sg16
I0
sg419
I0
sg69
I0
sg15
I0
sg75
I0
sg74
I0
sg420
I0
sg127
I0
sg51
I0
sg56
I0
sg421
I0
sg422
I0
sg20
I0
sg59
I0
sg40
I0
sg57
I0
sg38
I0
sg31
I0
sg10
I0
sg423
I0
sg424
I0
sg425
I0
sg126
I0
sg78
I0
sg76
I0
sg13
I0
sg426
I0
sg33
I0
sg11
I0
sg47
I0
sg35
I0
sg43
I0
sg42
I0
sg427
I0
sg428
I0
sg36
I0
sg39
I0
sg429
I0
sg430
I0
sg19
I0
sg32
I0
sg128
I0
sg431
I0
sg23
I0
sg432
I0
sg433
I0
sg48
I0
ssg72
(dp583
g399
I0
sg14
I0
sg400
I0
sg63
I0
sg17
I0
sg55
I0
sg79
I0
sg71
I0
sg401
I0
sg402
I0
sg34
I0
sg403
I0
sg27
I0
sg404
I0
sg45
I0
sg37
I0
sg68
I0
sg24
I0
sg405
I0
sg406
I0
sg25
I0
sg26
I0
sg18
I0
sg407
I0
sg408
I0
sg409
I0
sg22
I0
sg21
I0
sg410
I0
sg12
I0
sg411
I0
sg412
I0
sg61
I0
sg60
I0
sg413
I0
sg414
I0
sg29
I0
sg9
I0
sg65
I0
sg64
I0
sg62
I0
sg8
I0
sg44
I0
sg30
I0
sg415
I0
sg416
I0
sg28
I0
sg52
I0
sg73
I4
sg72
I0
sg67
I0
sg77
I0
sg70
I0
sg58
I0
sg41
I0
sg54
I0
sg50
I0
sg46
I0
sg49
I0
sg66
I0
sg53
I0
sg417
I0
sg418
I0
sg16
I0
sg419
I0
sg69
I0
sg15
I0
sg75
I0
sg74
I0
sg420
I0
sg127
I0
sg51
I0
sg56
I0
sg421
I0
sg422
I0
sg20
I0
sg59
I0
sg40
I0
sg57
I0
sg38
I0
sg31
I0
sg10
I0
sg423
I0
sg424
I0
sg425
I0
sg126
I0
sg78
I0
sg76
I0
sg13
I0
sg426
I0
sg33
I0
sg11
I0
sg47
I0
sg35
I0
sg43
I0
sg42
I0
sg427
I0
sg428
I0
sg36
I0
sg39
I0
sg429
I0
sg430
I0
sg19
I0
sg32
I0
sg128
I0
sg431
I0
sg23
I0
sg432
I0
sg433
I0
sg48
I0
ssg67
(dp584
g399
I0
sg14
I0
sg400
I0
sg63
I0
sg17
I0
sg55
I0
sg79
I0
sg71
I0
sg401
I0
sg402
I0
sg34
I0
sg403
I0
sg27
I0
sg404
I0
sg45
I0
sg37
I0
sg68
I0
sg24
I0
sg405
I0
sg406
I0
sg25
I0
sg26
I0
sg18
I0
sg407
I0
sg408
I0
sg409
I0
sg22
I0
sg21
I0
sg410
I0
sg12
I0
sg411
I0
sg412
I0
sg61
I0
sg60
I0
sg413
I0
sg414
I0
sg29
I0
sg9
I0
sg65
I0
sg8
I0
sg62
I0
sg64
I0
sg44
I0
sg30
I0
sg415
I0
sg416
I0
sg28
I0
sg52
I0
sg73
I0
sg72
I0
sg67
I0
sg77
I0
sg70
I0
sg58
I0
sg41
I0
sg54
I0
sg50
I0
sg46
I0
sg49
I0
sg66
I0
sg53
I0
sg417
I0
sg418
I0
sg16
I0
sg419
I0
sg69
I0
sg15
I0
sg75
I0
sg74
I0
sg420
I0
sg127
I0
sg51
I0
sg56
I0
sg421
I0
sg422
I0
sg20
I0
sg59
I0
sg40
I0
sg57
I0
sg38
I0
sg31
I0
sg10
I0
sg423
I0
sg424
I0
sg425
I0
sg126
I0
sg78
I0
sg76
I0
sg13
I0
sg426
I0
sg33
I0
sg11
I0
sg47
I0
sg35
I0
sg43
I0
sg42
I0
sg427
I0
sg428
I0
sg36
I0
sg39
I0
sg429
I0
sg430
I0
sg19
I0
sg32
I0
sg128
I0
sg431
I0
sg23
I0
sg432
I0
sg433
I0
sg48
I0
ssg77
(dp585
g399
I0
sg14
I0
sg400
I0
sg63
I0
sg17
I0
sg55
I0
sg79
I0
sg71
I0
sg401
I0
sg402
I0
sg34
I0
sg403
I0
sg27
I0
sg404
I0
sg45
I0
sg37
I0
sg68
I0
sg24
I0
sg405
I0
sg406
I0
sg25
I0
sg26
I0
sg18
I0
sg407
I0
sg408
I0
sg409
I0
sg22
I0
sg21
I0
sg410
I0
sg12
I0
sg411
I0
sg412
I0
sg61
I0
sg60
I0
sg413
I0
sg414
I0
sg29
I0
sg9
I0
sg65
I0
sg8
I0
sg62
I0
sg64
I0
sg44
I0
sg30
I0
sg415
I0
sg416
I0
sg28
I0
sg52
I0
sg73
I0
sg72
I0
sg67
I0
sg77
I4
sg70
I0
sg58
I0
sg41
I0
sg54
I0
sg50
I0
sg46
I0
sg49
I0
sg66
I0
sg53
I0
sg417
I0
sg418
I0
sg16
I0
sg419
I0
sg69
I0
sg15
I0
sg75
I0
sg74
I0
sg420
I0
sg127
I0
sg51
I0
sg56
I0
sg421
I0
sg422
I0
sg20
I0
sg59
I0
sg40
I0
sg57
I0
sg38
I0
sg31
I0
sg10
I0
sg423
I0
sg424
I0
sg425
I0
sg126
I0
sg78
I0
sg76
I0
sg13
I0
sg426
I0
sg33
I0
sg11
I0
sg47
I0
sg35
I0
sg43
I0
sg42
I0
sg427
I0
sg428
I0
sg36
I0
sg39
I0
sg429
I0
sg430
I0
sg19
I0
sg32
I0
sg128
I0
sg431
I0
sg23
I0
sg432
I0
sg433
I0
sg48
I0
ssg70
(dp586
g399
I0
sg14
I0
sg400
I0
sg63
I0
sg17
I0
sg55
I0
sg79
I0
sg71
I0
sg401
I0
sg402
I0
sg34
I0
sg403
I0
sg27
I0
sg404
I0
sg45
I0
sg37
I0
sg68
I0
sg24
I0
sg405
I0
sg406
I0
sg25
I0
sg26
I0
sg18
I0
sg407
I0
sg408
I0
sg409
I0
sg22
I0
sg21
I0
sg410
I0
sg12
I0
sg411
I0
sg412
I0
sg61
I0
sg60
I0
sg413
I0
sg414
I0
sg29
I0
sg9
I0
sg65
I0
sg8
I0
sg62
I0
sg64
I0
sg44
I0
sg30
I0
sg415
I0
sg416
I0
sg28
I0
sg52
I0
sg73
I0
sg72
I0
sg67
I0
sg77
I0
sg70
I0
sg58
I0
sg41
I0
sg54
I0
sg50
I0
sg46
I0
sg49
I0
sg66
I0
sg53
I0
sg417
I0
sg418
I0
sg16
I0
sg419
I0
sg69
I0
sg15
I0
sg75
I0
sg74
I0
sg420
I0
sg127
I0
sg51
I0
sg56
I0
sg421
I0
sg422
I0
sg20
I0
sg59
I0
sg40
I0
sg57
I0
sg38
I0
sg31
I0
sg10
I0
sg423
I0
sg424
I0
sg425
I0
sg126
I0
sg78
I0
sg76
I0
sg13
I0
sg426
I0
sg33
I0
sg11
I0
sg47
I0
sg35
I0
sg43
I0
sg42
I0
sg427
I0
sg428
I0
sg36
I0
sg39
I0
sg429
I0
sg430
I0
sg19
I0
sg32
I0
sg128
I0
sg431
I0
sg23
I0
sg432
I0
sg433
I0
sg48
I0
ssg58
(dp587
g466
I0
sg399
I0
sg14
I0
sg63
I0
sg17
I0
sg55
I0
sg467
I0
sg79
I0
sg71
I0
sg401
I0
sg468
I0
sg34
I0
sg469
I0
sg403
I0
sg27
I0
sg45
I0
sg37
I0
sg68
I0
sg24
I0
sg405
I0
sg406
I0
sg25
I0
sg26
I0
sg18
I0
sg470
I0
sg407
I0
sg408
I0
sg409
I0
sg22
I0
sg21
I0
sg471
I0
sg410
I0
sg12
I0
sg412
I0
sg61
I0
sg60
I0
sg472
I0
sg473
I0
sg474
I0
sg29
I0
sg9
I0
sg65
I0
sg8
I0
sg62
I0
sg64
I0
sg475
I0
sg44
I0
sg30
I0
sg415
I0
sg416
I0
sg28
I0
sg52
I0
sg73
I0
sg72
I0
sg67
I0
sg77
I0
sg70
I0
sg58
I0
sg41
I0
sg54
I0
sg50
I0
sg476
I0
sg46
I0
sg49
I0
sg66
I0
sg53
I0
sg417
I0
sg16
I0
sg419
I0
sg69
I0
sg15
I0
sg75
I0
sg74
I0
sg477
I0
sg420
I0
sg127
I0
sg51
I0
sg478
I0
sg56
I0
sg421
I0
sg479
I0
sg480
I0
sg20
I0
sg59
I0
sg40
I0
sg481
I0
sg57
I0
sg38
I0
sg31
I0
sg10
I0
sg423
I0
sg424
I0
sg425
I0
sg126
I0
sg78
I0
sg76
I0
sg13
I0
sg33
I0
sg11
I0
sg47
I0
sg35
I0
sg43
I0
sg42
I0
sg428
I0
sg36
I0
sg39
I0
sg429
I0
sg19
I0
sg32
I0
sg128
I0
sg431
I0
sg23
I0
sg48
I0
ssg41
(dp588
g135
I0
sg399
I0
sg156
I0
sg14
I0
sg400
I0
sg63
I0
sg210
I0
sg17
I0
sg134
I0
sg55
I0
sg148
I0
sg79
I0
sg137
I0
sg203
I0
sg140
I0
sg71
I0
sg401
I0
sg142
I0
sg154
I0
sg402
I0
sg34
I0
sg153
I0
sg174
I0
sg403
I0
sg27
I0
sg404
I0
sg177
I0
sg45
I0
sg37
I0
sg68
I0
sg24
I0
sg238
I0
sg183
I0
sg405
I0
sg406
I0
sg25
I0
sg133
I0
sg132
I0
sg26
I0
sg18
I0
sg159
I0
sg407
I0
sg130
I0
sg408
I0
sg409
I0
sg131
I0
sg22
I0
sg21
I0
sg158
I0
sg410
I0
sg143
I0
sg146
I0
sg155
I0
sg12
I0
sg411
I0
sg412
I0
sg61
I0
sg60
I0
sg147
I0
sg413
I0
sg414
I0
sg29
I0
sg9
I0
sg65
I0
sg8
I0
sg62
I0
sg64
I0
sg161
I0
sg200
I0
sg44
I0
sg30
I0
sg415
I0
sg214
I0
sg416
I0
sg204
I0
sg205
I0
sg28
I0
sg52
I0
sg73
I0
sg72
I0
sg67
I0
sg77
I0
sg70
I0
sg58
I0
sg41
I0
sg54
I0
sg50
I0
sg151
I0
sg46
I0
sg49
I0
sg66
I0
sg53
I0
sg417
I0
sg418
I0
sg16
I0
sg419
I0
sg69
I0
sg15
I0
sg75
I0
sg74
I0
sg157
I0
sg139
I0
sg138
I0
sg420
I0
sg127
I0
sg51
I0
sg145
I0
sg56
I0
sg421
I0
sg150
I0
sg220
I0
sg149
I0
sg422
I0
sg20
I0
sg129
I0
sg59
I0
sg40
I0
sg152
I0
sg57
I0
sg38
I0
sg31
I0
sg10
I0
sg141
I0
sg423
I0
sg424
I0
sg425
I0
sg144
I0
sg160
I0
sg126
I0
sg78
I0
sg76
I0
sg13
I0
sg426
I0
sg33
I0
sg11
I0
sg47
I0
sg35
I0
sg43
I0
sg42
I0
sg136
I0
sg427
I0
sg428
I0
sg36
I0
sg39
I0
sg429
I0
sg430
I0
sg19
I0
sg32
I0
sg128
I0
sg431
I0
sg23
I0
sg432
I0
sg433
I0
sg48
I0
ssg54
(dp589
g466
I0
sg399
I0
sg14
I0
sg63
I0
sg17
I0
sg55
I4
sg467
I0
sg79
I0
sg71
I0
sg401
I0
sg468
I0
sg34
I0
sg469
I0
sg403
I0
sg27
I0
sg45
I0
sg37
I0
sg68
I0
sg24
I0
sg405
I0
sg406
I0
sg25
I0
sg26
I0
sg18
I0
sg470
I0
sg407
I0
sg408
I0
sg409
I0
sg22
I0
sg21
I0
sg471
I0
sg410
I0
sg12
I0
sg412
I0
sg61
I0
sg60
I0
sg472
I0
sg473
I0
sg474
I0
sg29
I0
sg9
I0
sg65
I0
sg8
I0
sg62
I0
sg64
I0
sg475
I0
sg44
I0
sg30
I0
sg415
I0
sg416
I0
sg28
I0
sg52
I0
sg73
I0
sg72
I0
sg67
I0
sg77
I0
sg70
I0
sg58
I0
sg41
I0
sg54
I0
sg50
I0
sg476
I0
sg46
I0
sg49
I0
sg66
I0
sg53
I0
sg417
I0
sg16
I0
sg419
I0
sg69
I0
sg15
I0
sg75
I0
sg74
I0
sg477
I0
sg420
I0
sg127
I0
sg51
I0
sg478
I0
sg56
I0
sg421
I0
sg479
I0
sg480
I0
sg20
I0
sg59
I0
sg40
I0
sg481
I0
sg57
I0
sg38
I0
sg31
I0
sg10
I0
sg423
I0
sg424
I0
sg425
I0
sg126
I0
sg78
I0
sg76
I0
sg13
I0
sg33
I0
sg11
I0
sg47
I0
sg35
I0
sg43
I0
sg42
I0
sg428
I0
sg36
I0
sg39
I0
sg429
I0
sg19
I0
sg32
I0
sg128
I0
sg431
I0
sg23
I0
sg48
I0
ssg50
(dp590
g466
I0
sg399
I0
sg14
I0
sg63
I0
sg17
I0
sg55
I0
sg467
I0
sg79
I0
sg71
I0
sg401
I0
sg468
I0
sg34
I0
sg469
I0
sg403
I0
sg27
I0
sg45
I0
sg37
I0
sg68
I0
sg24
I0
sg405
I0
sg406
I0
sg25
I0
sg26
I0
sg18
I0
sg470
I0
sg407
I0
sg408
I0
sg409
I0
sg22
I0
sg21
I0
sg471
I0
sg410
I0
sg12
I0
sg412
I0
sg61
I0
sg60
I0
sg472
I0
sg473
I0
sg474
I0
sg29
I0
sg9
I0
sg65
I0
sg8
I0
sg62
I0
sg64
I0
sg475
I0
sg44
I0
sg30
I0
sg415
I0
sg416
I0
sg28
I0
sg52
I0
sg73
I0
sg72
I0
sg67
I0
sg77
I0
sg70
I0
sg58
I0
sg41
I0
sg54
I0
sg50
I0
sg476
I0
sg46
I0
sg49
I0
sg66
I0
sg53
I0
sg417
I0
sg16
I0
sg419
I0
sg69
I0
sg15
I0
sg75
I0
sg74
I0
sg477
I0
sg420
I0
sg127
I0
sg51
I4
sg478
I0
sg56
I0
sg421
I0
sg479
I0
sg480
I0
sg20
I0
sg59
I0
sg40
I0
sg481
I0
sg57
I0
sg38
I0
sg31
I0
sg10
I0
sg423
I0
sg424
I0
sg425
I0
sg126
I0
sg78
I0
sg76
I0
sg13
I0
sg33
I0
sg11
I0
sg47
I0
sg35
I0
sg43
I0
sg42
I0
sg428
I0
sg36
I0
sg39
I0
sg429
I0
sg19
I0
sg32
I0
sg128
I0
sg431
I0
sg23
I0
sg48
I0
ssg151
(dp591
g156
I0
sg167
I0
sg191
I0
sg210
I0
sg169
I0
sg318
I0
sg148
I0
sg170
I0
sg137
I0
sg140
I0
sg142
I0
sg154
I0
sg173
I0
sg153
I0
sg174
I0
sg175
I0
sg176
I0
sg177
I0
sg319
I0
sg179
I0
sg181
I0
sg183
I0
sg184
I0
sg185
I0
sg133
I0
sg132
I0
sg186
I0
sg187
I0
sg159
I0
sg130
I0
sg129
I0
sg160
I0
sg188
I0
sg189
I0
sg190
I0
sg143
I0
sg196
I0
sg168
I0
sg192
I0
sg193
I0
sg194
I0
sg195
I0
sg147
I0
sg146
I0
sg155
I0
sg197
I0
sg198
I0
sg199
I0
sg161
I0
sg200
I0
sg320
I0
sg201
I0
sg202
I0
sg203
I0
sg204
I0
sg205
I0
sg206
I0
sg321
I0
sg207
I0
sg208
I0
sg135
I0
sg134
I0
sg209
I0
sg322
I0
sg323
I0
sg151
I4
sg324
I0
sg325
I0
sg326
I0
sg211
I0
sg212
I0
sg213
I0
sg214
I0
sg215
I0
sg216
I0
sg158
I0
sg157
I0
sg139
I0
sg138
I0
sg327
I0
sg145
I0
sg328
I0
sg150
I0
sg220
I0
sg149
I0
sg221
I0
sg222
I0
sg223
I0
sg152
I0
sg329
I0
sg224
I0
sg218
I0
sg141
I0
sg228
I0
sg144
I0
sg131
I0
sg230
I0
sg231
I0
sg232
I0
sg233
I0
sg234
I0
sg235
I0
sg330
I0
sg236
I0
sg136
I0
sg237
I0
sg238
I0
sg239
I0
sg240
I0
sg241
I0
sg242
I0
sg244
I0
sg245
I0
sg246
I0
sg247
I0
sg331
I0
ssg46
(dp592
g466
I0
sg399
I0
sg14
I0
sg63
I0
sg17
I0
sg55
I0
sg467
I0
sg79
I0
sg71
I0
sg401
I0
sg468
I0
sg34
I0
sg469
I0
sg403
I0
sg27
I0
sg45
I0
sg37
I0
sg68
I0
sg24
I0
sg405
I0
sg406
I0
sg25
I0
sg26
I0
sg18
I0
sg470
I0
sg407
I0
sg408
I0
sg409
I0
sg22
I0
sg21
I0
sg471
I0
sg410
I0
sg12
I0
sg412
I0
sg61
I0
sg60
I0
sg472
I0
sg473
I0
sg474
I0
sg29
I0
sg9
I0
sg65
I0
sg8
I0
sg62
I0
sg64
I0
sg475
I0
sg44
I0
sg30
I0
sg415
I0
sg416
I0
sg28
I0
sg52
I0
sg73
I0
sg72
I0
sg67
I0
sg77
I0
sg70
I0
sg58
I0
sg41
I0
sg54
I0
sg50
I0
sg476
I0
sg46
I4
sg49
I0
sg66
I0
sg53
I0
sg417
I0
sg16
I0
sg419
I0
sg69
I0
sg15
I0
sg75
I0
sg74
I0
sg477
I0
sg420
I0
sg127
I0
sg51
I0
sg478
I0
sg56
I0
sg421
I0
sg479
I0
sg480
I0
sg20
I0
sg59
I0
sg40
I0
sg481
I0
sg57
I0
sg38
I0
sg31
I0
sg10
I0
sg423
I0
sg424
I0
sg425
I0
sg126
I0
sg78
I0
sg76
I0
sg13
I0
sg33
I0
sg11
I0
sg47
I0
sg35
I0
sg43
I0
sg42
I0
sg428
I0
sg36
I0
sg39
I0
sg429
I0
sg19
I0
sg32
I0
sg128
I0
sg431
I0
sg23
I0
sg48
I0
ssg49
(dp593
g466
I0
sg399
I0
sg14
I0
sg63
I0
sg17
I0
sg55
I0
sg467
I0
sg79
I0
sg71
I0
sg401
I0
sg468
I0
sg34
I0
sg469
I0
sg403
I0
sg27
I0
sg45
I0
sg37
I0
sg68
I0
sg24
I0
sg405
I0
sg406
I0
sg25
I0
sg26
I0
sg18
I0
sg470
I0
sg407
I0
sg408
I0
sg409
I0
sg22
I0
sg21
I0
sg471
I0
sg410
I0
sg12
I0
sg412
I0
sg61
I0
sg60
I0
sg472
I0
sg473
I0
sg474
I0
sg29
I0
sg9
I0
sg65
I0
sg8
I0
sg62
I0
sg64
I0
sg475
I0
sg44
I0
sg30
I0
sg415
I0
sg416
I0
sg28
I0
sg52
I0
sg73
I0
sg72
I0
sg67
I0
sg77
I0
sg70
I0
sg58
I0
sg41
I0
sg54
I0
sg50
I0
sg476
I0
sg46
I0
sg49
I0
sg66
I0
sg53
I0
sg417
I0
sg16
I0
sg419
I0
sg69
I0
sg15
I0
sg75
I0
sg74
I0
sg477
I0
sg420
I0
sg127
I0
sg51
I0
sg478
I0
sg56
I0
sg421
I0
sg479
I0
sg480
I0
sg20
I0
sg59
I0
sg40
I0
sg481
I0
sg57
I0
sg38
I0
sg31
I0
sg10
I0
sg423
I0
sg424
I0
sg425
I0
sg126
I0
sg78
I0
sg76
I0
sg13
I0
sg33
I0
sg11
I0
sg47
I0
sg35
I0
sg43
I0
sg42
I0
sg428
I0
sg36
I0
sg39
I0
sg429
I0
sg19
I0
sg32
I0
sg128
I0
sg431
I0
sg23
I0
sg48
I0
ssg66
(dp594
g399
I0
sg14
I0
sg400
I0
sg63
I0
sg17
I0
sg55
I0
sg79
I0
sg71
I0
sg401
I0
sg402
I0
sg34
I0
sg403
I0
sg27
I0
sg404
I0
sg45
I0
sg37
I0
sg68
I0
sg24
I0
sg405
I0
sg406
I0
sg25
I0
sg26
I0
sg18
I0
sg407
I0
sg408
I0
sg409
I0
sg22
I0
sg21
I0
sg410
I0
sg12
I0
sg411
I0
sg412
I0
sg61
I0
sg60
I0
sg413
I0
sg414
I0
sg29
I0
sg9
I0
sg65
I0
sg8
I0
sg62
I0
sg64
I0
sg44
I0
sg30
I0
sg415
I0
sg416
I0
sg28
I0
sg52
I0
sg73
I0
sg72
I0
sg67
I4
sg77
I0
sg70
I0
sg58
I0
sg41
I0
sg54
I0
sg50
I0
sg46
I0
sg49
I0
sg66
I0
sg53
I0
sg417
I0
sg418
I0
sg16
I0
sg419
I0
sg69
I0
sg15
I0
sg75
I0
sg74
I0
sg420
I0
sg127
I0
sg51
I0
sg56
I0
sg421
I0
sg422
I0
sg20
I0
sg59
I0
sg40
I0
sg57
I0
sg38
I0
sg31
I0
sg10
I0
sg423
I0
sg424
I0
sg425
I0
sg126
I0
sg78
I0
sg76
I0
sg13
I0
sg426
I0
sg33
I0
sg11
I0
sg47
I0
sg35
I0
sg43
I0
sg42
I0
sg427
I0
sg428
I0
sg36
I0
sg39
I0
sg429
I0
sg430
I0
sg19
I0
sg32
I0
sg128
I0
sg431
I0
sg23
I0
sg432
I0
sg433
I0
sg48
I0
ssg53
(dp595
g466
I0
sg399
I0
sg14
I0
sg63
I0
sg17
I0
sg55
I0
sg467
I0
sg79
I0
sg71
I0
sg401
I0
sg468
I0
sg34
I0
sg469
I0
sg403
I0
sg27
I0
sg45
I0
sg37
I0
sg68
I0
sg24
I0
sg405
I0
sg406
I0
sg25
I0
sg26
I0
sg18
I0
sg470
I0
sg407
I0
sg408
I0
sg409
I0
sg22
I0
sg21
I0
sg471
I0
sg410
I0
sg12
I0
sg412
I0
sg61
I0
sg60
I0
sg472
I0
sg473
I0
sg474
I0
sg29
I0
sg9
I0
sg65
I0
sg8
I0
sg62
I0
sg64
I0
sg475
I0
sg44
I0
sg30
I0
sg415
I0
sg416
I0
sg28
I0
sg52
I0
sg73
I0
sg72
I0
sg67
I0
sg77
I0
sg70
I0
sg58
I0
sg41
I0
sg54
I0
sg50
I0
sg476
I0
sg46
I0
sg49
I0
sg66
I0
sg53
I0
sg417
I0
sg16
I0
sg419
I0
sg69
I0
sg15
I0
sg75
I0
sg74
I0
sg477
I0
sg420
I0
sg127
I0
sg51
I0
sg478
I0
sg56
I0
sg421
I0
sg479
I0
sg480
I0
sg20
I0
sg59
I0
sg40
I0
sg481
I0
sg57
I0
sg38
I0
sg31
I0
sg10
I0
sg423
I0
sg424
I0
sg425
I0
sg126
I0
sg78
I0
sg76
I0
sg13
I0
sg33
I0
sg11
I0
sg47
I0
sg35
I0
sg43
I0
sg42
I0
sg428
I0
sg36
I0
sg39
I0
sg429
I0
sg19
I0
sg32
I0
sg128
I0
sg431
I0
sg23
I0
sg48
I0
ssg99
(dp596
g135
I0
sg102
I0
sg156
I0
sg167
I0
sg168
I0
sg250
I0
sg169
I0
sg251
I0
sg148
I0
sg252
I0
sg235
I0
sg140
I0
sg254
I0
sg175
I0
sg92
I0
sg142
I0
sg154
I0
sg91
I0
sg173
I0
sg115
I0
sg119
I0
sg85
I0
sg257
I0
sg258
I0
sg116
I0
sg108
I0
sg259
I0
sg260
I0
sg261
I0
sg262
I0
sg120
I0
sg123
I0
sg90
I0
sg86
I0
sg263
I0
sg128
I0
sg133
I0
sg132
I0
sg186
I0
sg187
I0
sg160
I0
sg159
I0
sg130
I0
sg83
I0
sg84
I0
sg117
I0
sg267
I0
sg268
I0
sg158
I0
sg89
I0
sg143
I0
sg146
I0
sg106
I0
sg105
I0
sg98
I0
sg269
I0
sg270
I0
sg147
I0
sg103
I0
sg155
I0
sg197
I0
sg271
I0
sg272
I0
sg273
I0
sg274
I0
sg199
I0
sg161
I0
sg122
I0
sg275
I0
sg276
I0
sg88
I0
sg121
I0
sg87
I0
sg125
I0
sg124
I0
sg206
I0
sg277
I0
sg111
I0
sg112
I0
sg278
I0
sg279
I0
sg280
I0
sg134
I0
sg282
I0
sg283
I0
sg284
I0
sg151
I0
sg285
I0
sg286
I0
sg287
I0
sg288
I0
sg114
I0
sg113
I0
sg289
I0
sg97
I0
sg153
I0
sg290
I0
sg291
I0
sg99
I0
sg292
I0
sg157
I0
sg139
I0
sg138
I0
sg94
I0
sg127
I0
sg295
I0
sg145
I0
sg296
I0
sg101
I0
sg150
I0
sg149
I0
sg297
I0
sg129
I0
sg299
I0
sg223
I0
sg152
I0
sg300
I0
sg118
I0
sg100
I0
sg218
I0
sg141
I0
sg95
I0
sg93
I0
sg80
I0
sg144
I0
sg131
I0
sg126
I0
sg304
I0
sg305
I0
sg202
I0
sg188
I0
sg107
I0
sg231
I0
sg306
I0
sg307
I0
sg234
I0
sg137
I0
sg236
I0
sg136
I0
sg104
I0
sg96
I0
sg310
I0
sg240
I0
sg81
I0
sg109
I0
sg311
I0
sg312
I0
sg313
I0
sg314
I0
sg82
I0
sg246
I0
sg315
I0
sg110
I0
sg316
I0
ssg113
(dp597
g345
I0
sg102
I0
sg346
I0
sg347
I0
sg348
I0
sg349
I0
sg252
I0
sg350
I0
sg351
I0
sg352
I0
sg353
I0
sg92
I0
sg354
I0
sg355
I0
sg91
I0
sg115
I0
sg119
I0
sg85
I0
sg356
I0
sg116
I0
sg108
I0
sg259
I0
sg260
I0
sg261
I0
sg262
I0
sg120
I0
sg123
I0
sg90
I0
sg86
I0
sg357
I0
sg358
I0
sg359
I0
sg360
I0
sg100
I0
sg361
I0
sg83
I0
sg84
I0
sg117
I0
sg268
I0
sg362
I0
sg89
I0
sg363
I0
sg106
I0
sg105
I0
sg98
I0
sg269
I0
sg270
I0
sg364
I0
sg103
I0
sg365
I0
sg366
I0
sg367
I0
sg368
I0
sg122
I0
sg276
I0
sg88
I0
sg121
I0
sg87
I0
sg125
I0
sg124
I0
sg369
I0
sg370
I0
sg371
I0
sg372
I0
sg373
I0
sg374
I0
sg375
I0
sg312
I0
sg376
I0
sg377
I0
sg114
I4
sg113
I0
sg289
I0
sg97
I0
sg378
I0
sg291
I0
sg99
I0
sg379
I0
sg380
I0
sg381
I0
sg382
I0
sg94
I0
sg383
I0
sg384
I0
sg101
I0
sg385
I0
sg386
I0
sg297
I0
sg387
I0
sg388
I0
sg389
I0
sg118
I0
sg390
I0
sg391
I0
sg95
I0
sg93
I0
sg80
I0
sg392
I0
sg393
I0
sg394
I0
sg395
I0
sg305
I0
sg107
I0
sg306
I0
sg307
I0
sg111
I0
sg396
I0
sg104
I0
sg96
I0
sg310
I0
sg81
I0
sg109
I0
sg311
I0
sg397
I0
sg313
I0
sg314
I0
sg82
I0
sg112
I0
sg110
I0
ssg16
(dp598
g135
I0
sg102
I0
sg156
I0
sg14
I0
sg106
I0
sg63
I0
sg118
I0
sg17
I0
sg134
I0
sg55
I0
sg148
I0
sg79
I0
sg137
I0
sg121
I0
sg140
I0
sg71
I0
sg92
I0
sg142
I0
sg154
I0
sg91
I0
sg34
I0
sg153
I0
sg119
I0
sg85
I0
sg27
I0
sg108
I0
sg116
I0
sg45
I0
sg37
I0
sg68
I0
sg24
I0
sg120
I0
sg123
I0
sg90
I0
sg86
I0
sg25
I0
sg128
I0
sg133
I0
sg132
I0
sg26
I0
sg18
I0
sg160
I0
sg159
I0
sg130
I0
sg83
I0
sg84
I0
sg117
I0
sg22
I0
sg21
I0
sg158
I0
sg89
I0
sg143
I0
sg146
I0
sg155
I0
sg12
I0
sg105
I0
sg98
I0
sg61
I0
sg60
I0
sg147
I0
sg103
I0
sg114
I0
sg29
I0
sg9
I0
sg65
I0
sg8
I0
sg62
I0
sg64
I0
sg161
I0
sg122
I0
sg44
I0
sg30
I0
sg88
I0
sg115
I2
sg87
I0
sg125
I0
sg124
I0
sg28
I0
sg52
I0
sg73
I0
sg72
I0
sg67
I0
sg77
I0
sg70
I0
sg58
I0
sg41
I0
sg54
I0
sg50
I0
sg151
I0
sg46
I0
sg49
I0
sg66
I0
sg53
I0
sg99
I0
sg113
I0
sg16
I6
sg97
I0
sg69
I0
sg15
I0
sg75
I0
sg74
I0
sg157
I0
sg139
I0
sg138
I0
sg94
I0
sg127
I0
sg51
I0
sg145
I0
sg56
I0
sg101
I0
sg150
I0
sg149
I0
sg111
I0
sg20
I0
sg129
I0
sg59
I0
sg40
I0
sg152
I0
sg57
I0
sg38
I0
sg100
I0
sg10
I0
sg141
I0
sg95
I0
sg93
I0
sg80
I0
sg144
I0
sg131
I0
sg126
I0
sg78
I0
sg76
I0
sg13
I0
sg107
I0
sg33
I0
sg11
I0
sg47
I0
sg35
I0
sg43
I0
sg42
I0
sg136
I0
sg104
I0
sg96
I0
sg36
I0
sg39
I0
sg81
I0
sg109
I0
sg19
I0
sg32
I0
sg31
I0
sg82
I0
sg23
I0
sg112
I0
sg110
I0
sg48
I0
ssg97
(dp599
g249
I0
sg102
I0
sg250
I0
sg251
I0
sg252
I0
sg253
I0
sg254
I0
sg255
I0
sg92
I0
sg256
I0
sg91
I0
sg115
I0
sg119
I0
sg85
I0
sg257
I0
sg258
I0
sg116
I0
sg108
I0
sg259
I0
sg260
I0
sg261
I0
sg262
I0
sg120
I0
sg123
I0
sg90
I0
sg86
I0
sg263
I0
sg128
I0
sg264
I0
sg265
I0
sg266
I0
sg83
I0
sg84
I0
sg117
I0
sg267
I0
sg268
I0
sg89
I0
sg106
I0
sg105
I0
sg98
I0
sg269
I0
sg270
I0
sg103
I0
sg271
I0
sg272
I0
sg273
I0
sg274
I0
sg122
I0
sg275
I0
sg276
I0
sg88
I0
sg121
I0
sg87
I0
sg125
I0
sg124
I0
sg277
I0
sg111
I0
sg112
I0
sg278
I0
sg279
I0
sg280
I0
sg281
I0
sg282
I0
sg283
I0
sg284
I0
sg285
I0
sg286
I0
sg287
I0
sg288
I0
sg114
I0
sg113
I0
sg289
I0
sg97
I0
sg290
I0
sg291
I0
sg99
I0
sg292
I0
sg293
I0
sg294
I0
sg94
I0
sg127
I0
sg295
I0
sg296
I0
sg101
I0
sg297
I0
sg298
I0
sg299
I0
sg300
I0
sg118
I0
sg100
I0
sg301
I0
sg95
I0
sg93
I0
sg80
I0
sg302
I0
sg303
I0
sg126
I0
sg304
I0
sg305
I0
sg107
I0
sg306
I0
sg307
I0
sg308
I0
sg309
I0
sg104
I0
sg96
I0
sg310
I0
sg81
I0
sg109
I0
sg311
I0
sg312
I0
sg313
I0
sg314
I0
sg82
I0
sg315
I0
sg110
I0
sg316
I0
ssg69
(dp600
g399
I0
sg14
I0
sg400
I0
sg63
I0
sg17
I0
sg55
I0
sg79
I0
sg71
I0
sg401
I0
sg402
I0
sg34
I0
sg403
I0
sg27
I0
sg404
I0
sg45
I0
sg37
I0
sg68
I0
sg24
I0
sg405
I0
sg406
I0
sg25
I0
sg26
I0
sg18
I0
sg407
I0
sg408
I0
sg409
I0
sg22
I0
sg21
I0
sg410
I0
sg12
I0
sg411
I0
sg412
I0
sg61
I0
sg60
I0
sg413
I0
sg414
I0
sg29
I0
sg9
I0
sg65
I0
sg8
I0
sg62
I0
sg64
I0
sg44
I0
sg30
I0
sg415
I0
sg416
I0
sg28
I0
sg52
I0
sg73
I0
sg72
I0
sg67
I0
sg77
I0
sg70
I4
sg58
I0
sg41
I0
sg54
I0
sg50
I0
sg46
I0
sg49
I0
sg66
I0
sg53
I0
sg417
I0
sg418
I0
sg16
I0
sg419
I0
sg69
I0
sg15
I0
sg75
I0
sg74
I0
sg420
I0
sg127
I0
sg51
I0
sg56
I0
sg421
I0
sg422
I0
sg20
I0
sg59
I0
sg40
I0
sg57
I0
sg38
I0
sg31
I0
sg10
I0
sg423
I0
sg424
I0
sg425
I0
sg126
I0
sg78
I0
sg76
I0
sg13
I0
sg426
I0
sg33
I0
sg11
I0
sg47
I0
sg35
I0
sg43
I0
sg42
I0
sg427
I0
sg428
I0
sg36
I0
sg39
I0
sg429
I0
sg430
I0
sg19
I0
sg32
I0
sg128
I0
sg431
I0
sg23
I0
sg432
I0
sg433
I0
sg48
I0
ssg15
(dp601
g135
I0
sg102
I0
sg156
I0
sg14
I0
sg106
I0
sg63
I0
sg118
I0
sg17
I0
sg134
I0
sg55
I0
sg148
I0
sg79
I0
sg137
I0
sg121
I0
sg140
I0
sg71
I0
sg92
I0
sg142
I0
sg154
I0
sg91
I0
sg34
I0
sg153
I0
sg119
I0
sg85
I0
sg27
I0
sg108
I0
sg116
I0
sg45
I0
sg37
I0
sg68
I0
sg24
I0
sg120
I0
sg123
I0
sg90
I0
sg86
I0
sg25
I0
sg128
I0
sg133
I0
sg132
I0
sg26
I0
sg18
I0
sg160
I0
sg159
I0
sg130
I0
sg83
I0
sg84
I0
sg117
I0
sg22
I0
sg21
I0
sg158
I0
sg89
I0
sg143
I0
sg146
I0
sg155
I0
sg12
I0
sg105
I0
sg98
I0
sg61
I0
sg60
I0
sg147
I0
sg103
I0
sg114
I0
sg29
I0
sg9
I0
sg65
I0
sg8
I0
sg62
I0
sg64
I0
sg161
I0
sg122
I0
sg44
I0
sg30
I20
sg88
I0
sg115
I4
sg87
I0
sg125
I0
sg124
I0
sg28
I0
sg52
I0
sg73
I0
sg72
I0
sg67
I0
sg77
I0
sg70
I0
sg58
I0
sg41
I0
sg54
I0
sg50
I0
sg151
I0
sg46
I0
sg49
I0
sg66
I0
sg53
I0
sg99
I0
sg113
I0
sg16
I34
sg97
I0
sg69
I0
sg15
I14
sg75
I0
sg74
I0
sg157
I0
sg139
I0
sg138
I0
sg94
I0
sg127
I0
sg51
I0
sg145
I0
sg56
I0
sg101
I0
sg150
I0
sg149
I0
sg111
I0
sg20
I0
sg129
I0
sg59
I0
sg40
I0
sg152
I0
sg57
I0
sg38
I0
sg100
I0
sg10
I0
sg141
I0
sg95
I0
sg93
I0
sg80
I0
sg144
I0
sg131
I0
sg126
I0
sg78
I0
sg76
I0
sg13
I0
sg107
I0
sg33
I0
sg11
I0
sg47
I0
sg35
I0
sg43
I0
sg42
I0
sg136
I0
sg104
I0
sg96
I0
sg36
I0
sg39
I0
sg81
I0
sg109
I0
sg19
I0
sg32
I0
sg31
I0
sg82
I0
sg23
I0
sg112
I0
sg110
I0
sg48
I0
ssg75
(dp602
g399
I0
sg14
I0
sg400
I0
sg63
I0
sg17
I0
sg55
I0
sg79
I0
sg71
I0
sg401
I0
sg402
I0
sg34
I0
sg403
I0
sg27
I0
sg404
I0
sg45
I0
sg37
I0
sg68
I0
sg24
I0
sg405
I0
sg406
I0
sg25
I0
sg26
I0
sg18
I0
sg407
I0
sg408
I0
sg409
I0
sg22
I0
sg21
I0
sg410
I0
sg12
I0
sg411
I0
sg412
I0
sg61
I0
sg60
I0
sg413
I0
sg414
I0
sg29
I0
sg9
I0
sg65
I0
sg8
I0
sg62
I0
sg64
I0
sg44
I0
sg30
I0
sg415
I0
sg416
I0
sg28
I0
sg52
I0
sg73
I0
sg72
I0
sg67
I0
sg77
I0
sg70
I0
sg58
I0
sg41
I0
sg54
I0
sg50
I0
sg46
I0
sg49
I0
sg66
I0
sg53
I0
sg417
I0
sg418
I0
sg16
I0
sg419
I0
sg69
I0
sg15
I0
sg75
I0
sg74
I0
sg420
I0
sg127
I0
sg51
I0
sg56
I0
sg421
I0
sg422
I0
sg20
I0
sg59
I0
sg40
I0
sg57
I0
sg38
I0
sg31
I0
sg10
I0
sg423
I0
sg424
I0
sg425
I0
sg126
I0
sg78
I0
sg76
I0
sg13
I0
sg426
I0
sg33
I0
sg11
I0
sg47
I0
sg35
I0
sg43
I0
sg42
I0
sg427
I0
sg428
I0
sg36
I0
sg39
I0
sg429
I0
sg430
I0
sg19
I0
sg32
I0
sg128
I0
sg431
I0
sg23
I0
sg432
I0
sg433
I0
sg48
I0
ssg74
(dp603
g399
I0
sg14
I0
sg400
I0
sg63
I0
sg17
I0
sg55
I0
sg79
I0
sg71
I0
sg401
I0
sg402
I0
sg34
I0
sg403
I0
sg27
I0
sg404
I0
sg45
I0
sg37
I0
sg68
I0
sg24
I0
sg405
I0
sg406
I0
sg25
I0
sg26
I0
sg18
I0
sg407
I0
sg408
I0
sg409
I0
sg22
I0
sg21
I0
sg410
I0
sg12
I0
sg411
I0
sg412
I0
sg61
I0
sg60
I0
sg413
I0
sg414
I0
sg29
I0
sg9
I0
sg65
I0
sg8
I0
sg62
I0
sg64
I0
sg44
I0
sg30
I0
sg415
I0
sg416
I0
sg28
I0
sg52
I0
sg73
I0
sg72
I0
sg67
I0
sg77
I0
sg70
I0
sg58
I0
sg41
I0
sg54
I0
sg50
I0
sg46
I0
sg49
I0
sg66
I0
sg53
I0
sg417
I0
sg418
I0
sg16
I0
sg419
I0
sg69
I0
sg15
I0
sg75
I4
sg74
I0
sg420
I0
sg127
I0
sg51
I0
sg56
I0
sg421
I0
sg422
I0
sg20
I0
sg59
I0
sg40
I0
sg57
I0
sg38
I0
sg31
I0
sg10
I0
sg423
I0
sg424
I0
sg425
I0
sg126
I0
sg78
I0
sg76
I0
sg13
I0
sg426
I0
sg33
I0
sg11
I0
sg47
I0
sg35
I0
sg43
I0
sg42
I0
sg427
I0
sg428
I0
sg36
I0
sg39
I0
sg429
I0
sg430
I0
sg19
I0
sg32
I0
sg128
I0
sg431
I0
sg23
I0
sg432
I0
sg433
I0
sg48
I0
ssg157
(dp604
g156
I0
sg167
I0
sg191
I0
sg210
I0
sg169
I0
sg318
I0
sg148
I0
sg170
I0
sg137
I0
sg140
I0
sg142
I0
sg154
I0
sg173
I0
sg153
I0
sg174
I0
sg175
I0
sg176
I0
sg177
I0
sg319
I0
sg179
I0
sg181
I0
sg183
I0
sg184
I0
sg185
I0
sg133
I0
sg132
I0
sg186
I0
sg187
I0
sg159
I0
sg130
I0
sg129
I0
sg160
I0
sg188
I0
sg189
I0
sg190
I0
sg143
I0
sg196
I0
sg168
I0
sg192
I0
sg193
I0
sg194
I0
sg195
I0
sg147
I0
sg146
I0
sg155
I0
sg197
I0
sg198
I0
sg199
I0
sg161
I0
sg200
I0
sg320
I0
sg201
I0
sg202
I0
sg203
I0
sg204
I0
sg205
I0
sg206
I0
sg321
I0
sg207
I0
sg208
I0
sg135
I0
sg134
I0
sg209
I0
sg322
I0
sg323
I0
sg151
I0
sg324
I0
sg325
I0
sg326
I0
sg211
I0
sg212
I0
sg213
I0
sg214
I0
sg215
I0
sg216
I0
sg158
I4
sg157
I0
sg139
I0
sg138
I0
sg327
I0
sg145
I0
sg328
I0
sg150
I0
sg220
I0
sg149
I0
sg221
I0
sg222
I0
sg223
I0
sg152
I0
sg329
I0
sg224
I0
sg218
I0
sg141
I0
sg228
I0
sg144
I0
sg131
I0
sg230
I0
sg231
I0
sg232
I0
sg233
I0
sg234
I0
sg235
I0
sg330
I0
sg236
I0
sg136
I0
sg237
I0
sg238
I0
sg239
I0
sg240
I0
sg241
I0
sg242
I0
sg244
I0
sg245
I0
sg246
I0
sg247
I0
sg331
I0
ssg139
(dp605
g156
I0
sg166
I0
sg167
I0
sg168
I0
sg169
I0
sg148
I0
sg170
I0
sg137
I0
sg140
I0
sg171
I0
sg142
I0
sg154
I0
sg172
I0
sg173
I0
sg153
I0
sg174
I0
sg175
I0
sg176
I0
sg177
I0
sg178
I0
sg179
I0
sg180
I0
sg181
I0
sg182
I0
sg183
I0
sg184
I0
sg185
I0
sg133
I0
sg132
I0
sg186
I0
sg187
I0
sg159
I0
sg130
I0
sg129
I0
sg160
I0
sg188
I0
sg189
I0
sg190
I0
sg143
I0
sg146
I0
sg191
I0
sg192
I0
sg193
I0
sg194
I0
sg195
I0
sg147
I0
sg196
I0
sg155
I0
sg197
I0
sg198
I0
sg199
I0
sg161
I0
sg200
I0
sg201
I0
sg202
I0
sg203
I0
sg204
I0
sg205
I0
sg206
I0
sg207
I0
sg208
I0
sg135
I0
sg134
I0
sg209
I0
sg210
I0
sg151
I0
sg211
I0
sg212
I0
sg213
I0
sg214
I0
sg215
I0
sg216
I0
sg158
I0
sg157
I0
sg139
I0
sg138
I0
sg217
I0
sg218
I0
sg145
I0
sg219
I0
sg150
I0
sg220
I0
sg149
I0
sg221
I0
sg222
I0
sg223
I0
sg152
I0
sg224
I0
sg225
I0
sg141
I0
sg226
I0
sg227
I0
sg228
I0
sg144
I0
sg131
I0
sg229
I0
sg230
I0
sg231
I0
sg232
I0
sg233
I0
sg234
I0
sg235
I0
sg236
I0
sg136
I0
sg237
I0
sg238
I0
sg239
I0
sg240
I0
sg241
I0
sg242
I0
sg243
I0
sg244
I0
sg245
I0
sg246
I0
sg247
I0
ssg138
(dp606
g156
I0
sg166
I0
sg167
I0
sg168
I0
sg169
I0
sg148
I0
sg170
I0
sg137
I0
sg140
I0
sg171
I0
sg142
I0
sg154
I0
sg172
I0
sg173
I0
sg153
I0
sg174
I0
sg175
I0
sg176
I0
sg177
I0
sg178
I0
sg179
I0
sg180
I0
sg181
I0
sg182
I0
sg183
I0
sg184
I0
sg185
I0
sg133
I0
sg132
I0
sg186
I0
sg187
I0
sg159
I0
sg130
I0
sg129
I0
sg160
I0
sg188
I0
sg189
I0
sg190
I0
sg143
I0
sg146
I0
sg191
I0
sg192
I0
sg193
I0
sg194
I0
sg195
I0
sg147
I0
sg196
I0
sg155
I0
sg197
I0
sg198
I0
sg199
I0
sg161
I0
sg200
I0
sg201
I0
sg202
I0
sg203
I0
sg204
I0
sg205
I0
sg206
I0
sg207
I0
sg208
I0
sg135
I0
sg134
I0
sg209
I0
sg210
I0
sg151
I0
sg211
I0
sg212
I0
sg213
I0
sg214
I0
sg215
I0
sg216
I0
sg158
I0
sg157
I0
sg139
I4
sg138
I0
sg217
I0
sg218
I0
sg145
I0
sg219
I0
sg150
I0
sg220
I0
sg149
I0
sg221
I0
sg222
I0
sg223
I0
sg152
I0
sg224
I0
sg225
I0
sg141
I0
sg226
I0
sg227
I0
sg228
I0
sg144
I0
sg131
I0
sg229
I0
sg230
I0
sg231
I0
sg232
I0
sg233
I0
sg234
I0
sg235
I0
sg236
I0
sg136
I0
sg237
I0
sg238
I0
sg239
I0
sg240
I0
sg241
I0
sg242
I0
sg243
I0
sg244
I0
sg245
I0
sg246
I0
sg247
I0
ssg94
(dp607
g249
I0
sg102
I0
sg250
I0
sg251
I0
sg252
I0
sg253
I0
sg254
I0
sg255
I0
sg92
I0
sg256
I0
sg91
I0
sg115
I0
sg119
I0
sg85
I0
sg257
I0
sg258
I0
sg116
I0
sg108
I0
sg259
I0
sg260
I0
sg261
I0
sg262
I0
sg120
I0
sg123
I0
sg90
I0
sg86
I0
sg263
I0
sg128
I0
sg264
I0
sg265
I0
sg266
I0
sg83
I0
sg84
I0
sg117
I0
sg267
I0
sg268
I0
sg89
I0
sg106
I0
sg105
I0
sg98
I0
sg269
I0
sg270
I0
sg103
I0
sg271
I0
sg272
I0
sg273
I0
sg274
I0
sg122
I0
sg275
I0
sg276
I0
sg88
I0
sg121
I0
sg87
I0
sg125
I0
sg124
I0
sg277
I0
sg111
I0
sg112
I0
sg278
I0
sg279
I0
sg280
I0
sg281
I0
sg282
I0
sg283
I0
sg284
I0
sg285
I0
sg286
I0
sg287
I0
sg288
I0
sg114
I0
sg113
I0
sg289
I0
sg97
I0
sg290
I0
sg291
I0
sg99
I0
sg292
I0
sg293
I0
sg294
I0
sg94
I0
sg127
I0
sg295
I0
sg296
I0
sg101
I0
sg297
I0
sg298
I0
sg299
I0
sg300
I0
sg118
I0
sg100
I0
sg301
I0
sg95
I8
sg93
I0
sg80
I0
sg302
I0
sg303
I0
sg126
I0
sg304
I0
sg305
I0
sg107
I0
sg306
I0
sg307
I0
sg308
I0
sg309
I0
sg104
I0
sg96
I0
sg310
I0
sg81
I0
sg109
I0
sg311
I0
sg312
I0
sg313
I0
sg314
I0
sg82
I0
sg315
I0
sg110
I0
sg316
I0
ssg127
(dp608
g399
I0
sg250
I0
sg496
I0
sg251
I0
sg520
I0
sg254
I0
sg401
I0
sg402
I0
sg497
I0
sg403
I0
sg258
I0
sg404
I0
sg521
I0
sg522
I0
sg523
I0
sg524
I0
sg405
I0
sg406
I0
sg263
I0
sg498
I0
sg408
I0
sg409
I0
sg267
I0
sg525
I0
sg410
I0
sg400
I0
sg411
I0
sg412
I0
sg432
I0
sg526
I0
sg527
I0
sg413
I0
sg414
I0
sg499
I0
sg271
I0
sg272
I0
sg273
I0
sg274
I0
sg275
I0
sg528
I0
sg415
I0
sg416
I0
sg277
I0
sg422
I0
sg315
I0
sg278
I0
sg279
I0
sg280
I0
sg282
I0
sg283
I0
sg284
I0
sg285
I0
sg286
I0
sg287
I0
sg288
I0
sg417
I0
sg418
I0
sg529
I0
sg419
I0
sg290
I0
sg530
I0
sg257
I0
sg292
I0
sg420
I0
sg127
I0
sg295
I0
sg296
I0
sg421
I0
sg531
I0
sg299
I0
sg500
I0
sg300
I0
sg532
I0
sg407
I0
sg501
I0
sg423
I0
sg424
I0
sg425
I0
sg126
I0
sg304
I0
sg534
I0
sg426
I0
sg502
I0
sg535
I0
sg536
I0
sg503
I0
sg504
I0
sg505
I0
sg427
I0
sg428
I0
sg537
I0
sg506
I0
sg429
I0
sg430
I0
sg538
I0
sg539
I0
sg128
I0
sg431
I0
sg316
I0
sg433
I0
sg533
I0
ssg51
(dp609
g466
I0
sg399
I0
sg14
I0
sg63
I0
sg17
I0
sg55
I0
sg467
I0
sg79
I0
sg71
I0
sg401
I0
sg468
I0
sg34
I0
sg469
I0
sg403
I0
sg27
I0
sg45
I0
sg37
I0
sg68
I0
sg24
I0
sg405
I0
sg406
I0
sg25
I0
sg26
I0
sg18
I0
sg470
I0
sg407
I0
sg408
I0
sg409
I0
sg22
I0
sg21
I0
sg471
I0
sg410
I0
sg12
I0
sg412
I0
sg61
I0
sg60
I0
sg472
I0
sg473
I0
sg474
I0
sg29
I0
sg9
I0
sg65
I0
sg8
I0
sg62
I0
sg64
I0
sg475
I0
sg44
I0
sg30
I0
sg415
I0
sg416
I0
sg28
I0
sg52
I0
sg73
I0
sg72
I0
sg67
I0
sg77
I0
sg70
I0
sg58
I0
sg41
I0
sg54
I0
sg50
I0
sg476
I0
sg46
I0
sg49
I0
sg66
I0
sg53
I0
sg417
I0
sg16
I0
sg419
I0
sg69
I0
sg15
I0
sg75
I0
sg74
I0
sg477
I0
sg420
I0
sg127
I0
sg10
I0
sg478
I0
sg56
I0
sg421
I0
sg479
I0
sg480
I0
sg20
I0
sg59
I0
sg40
I0
sg481
I0
sg57
I0
sg38
I0
sg31
I0
sg51
I0
sg423
I0
sg424
I0
sg425
I0
sg126
I0
sg78
I0
sg76
I0
sg13
I0
sg33
I0
sg11
I0
sg47
I0
sg35
I0
sg43
I0
sg42
I0
sg428
I0
sg36
I0
sg39
I0
sg429
I0
sg19
I0
sg32
I0
sg128
I0
sg431
I0
sg23
I0
sg48
I0
ssg145
(dp610
g156
I0
sg167
I0
sg191
I0
sg210
I0
sg169
I0
sg318
I0
sg148
I0
sg170
I0
sg137
I0
sg140
I0
sg142
I0
sg154
I0
sg173
I0
sg153
I0
sg174
I0
sg175
I0
sg176
I0
sg177
I0
sg319
I0
sg179
I0
sg181
I0
sg183
I0
sg184
I0
sg185
I0
sg133
I0
sg132
I0
sg186
I0
sg187
I0
sg159
I0
sg130
I0
sg129
I0
sg131
I0
sg188
I0
sg189
I0
sg190
I0
sg143
I0
sg196
I0
sg168
I0
sg192
I0
sg193
I0
sg194
I0
sg195
I0
sg147
I0
sg146
I0
sg155
I0
sg197
I0
sg198
I0
sg199
I0
sg161
I0
sg200
I0
sg320
I0
sg201
I0
sg202
I0
sg203
I0
sg204
I0
sg205
I0
sg206
I0
sg321
I0
sg207
I0
sg208
I0
sg135
I0
sg134
I0
sg209
I0
sg322
I0
sg323
I0
sg151
I0
sg324
I0
sg325
I0
sg326
I0
sg211
I0
sg212
I0
sg213
I0
sg214
I0
sg215
I0
sg216
I0
sg158
I0
sg157
I0
sg139
I0
sg138
I0
sg327
I0
sg145
I4
sg328
I0
sg150
I0
sg220
I0
sg149
I0
sg221
I0
sg222
I0
sg223
I0
sg152
I0
sg329
I0
sg224
I0
sg218
I0
sg141
I0
sg228
I0
sg144
I0
sg160
I0
sg230
I0
sg231
I0
sg232
I0
sg233
I0
sg234
I0
sg235
I0
sg330
I0
sg236
I0
sg136
I0
sg237
I0
sg238
I0
sg239
I0
sg240
I0
sg241
I0
sg242
I0
sg244
I0
sg245
I0
sg246
I0
sg247
I0
sg331
I0
ssg56
(dp611
g466
I0
sg399
I0
sg14
I0
sg63
I0
sg17
I0
sg55
I0
sg467
I0
sg79
I0
sg71
I0
sg401
I0
sg468
I0
sg34
I0
sg469
I0
sg403
I0
sg27
I0
sg45
I0
sg37
I0
sg68
I0
sg24
I0
sg405
I0
sg406
I0
sg25
I0
sg26
I0
sg18
I0
sg470
I0
sg407
I0
sg408
I0
sg409
I0
sg22
I0
sg21
I0
sg471
I0
sg410
I0
sg12
I0
sg412
I0
sg61
I0
sg60
I0
sg472
I0
sg473
I0
sg474
I0
sg29
I0
sg9
I0
sg65
I0
sg8
I0
sg62
I0
sg64
I0
sg475
I0
sg44
I0
sg30
I0
sg415
I0
sg416
I0
sg28
I0
sg52
I0
sg73
I0
sg72
I0
sg67
I0
sg77
I0
sg70
I0
sg58
I0
sg41
I0
sg54
I0
sg50
I0
sg476
I0
sg46
I0
sg49
I0
sg66
I0
sg53
I0
sg417
I0
sg16
I0
sg419
I0
sg69
I0
sg15
I0
sg75
I0
sg74
I0
sg477
I0
sg420
I0
sg127
I0
sg51
I0
sg478
I0
sg56
I0
sg421
I0
sg479
I0
sg480
I0
sg20
I0
sg59
I0
sg40
I0
sg481
I0
sg57
I4
sg38
I0
sg31
I0
sg10
I0
sg423
I0
sg424
I0
sg425
I0
sg126
I0
sg78
I0
sg76
I0
sg13
I0
sg33
I0
sg11
I0
sg47
I0
sg35
I0
sg43
I0
sg42
I0
sg428
I0
sg36
I0
sg39
I0
sg429
I0
sg19
I0
sg32
I0
sg128
I0
sg431
I0
sg23
I0
sg48
I0
ssg101
(dp612
g249
I0
sg102
I4
sg250
I0
sg251
I0
sg252
I0
sg253
I0
sg254
I0
sg255
I0
sg92
I0
sg256
I0
sg91
I0
sg115
I0
sg119
I0
sg85
I0
sg257
I0
sg258
I0
sg116
I0
sg108
I0
sg259
I0
sg260
I0
sg261
I0
sg262
I0
sg120
I0
sg123
I0
sg90
I0
sg86
I0
sg263
I0
sg128
I0
sg264
I0
sg265
I0
sg266
I0
sg83
I0
sg84
I0
sg117
I0
sg267
I0
sg268
I0
sg89
I0
sg106
I0
sg105
I0
sg98
I0
sg269
I0
sg270
I0
sg103
I0
sg271
I0
sg272
I0
sg273
I0
sg274
I0
sg122
I0
sg275
I0
sg276
I0
sg88
I0
sg121
I0
sg87
I0
sg125
I0
sg124
I0
sg277
I0
sg111
I0
sg112
I0
sg278
I0
sg279
I0
sg280
I0
sg281
I0
sg282
I0
sg283
I0
sg284
I0
sg285
I0
sg286
I0
sg287
I0
sg288
I0
sg114
I0
sg113
I0
sg289
I0
sg97
I0
sg290
I0
sg291
I0
sg99
I0
sg292
I0
sg293
I0
sg294
I0
sg94
I0
sg127
I0
sg295
I0
sg296
I0
sg101
I0
sg297
I0
sg298
I0
sg299
I0
sg300
I0
sg118
I0
sg100
I0
sg301
I0
sg95
I0
sg93
I0
sg80
I0
sg302
I0
sg303
I0
sg126
I0
sg304
I0
sg305
I0
sg107
I0
sg306
I0
sg307
I0
sg308
I0
sg309
I0
sg104
I0
sg96
I0
sg310
I0
sg81
I0
sg109
I0
sg311
I0
sg312
I0
sg313
I0
sg314
I0
sg82
I0
sg315
I0
sg110
I0
sg316
I0
ssg150
(dp613
g156
I0
sg167
I0
sg191
I0
sg210
I0
sg169
I0
sg318
I0
sg148
I0
sg170
I0
sg137
I0
sg140
I0
sg142
I0
sg154
I0
sg173
I0
sg153
I0
sg174
I0
sg175
I0
sg176
I0
sg177
I0
sg319
I0
sg179
I0
sg181
I0
sg183
I0
sg184
I0
sg185
I0
sg133
I0
sg132
I0
sg186
I0
sg187
I0
sg159
I0
sg130
I0
sg129
I0
sg160
I0
sg188
I0
sg189
I0
sg190
I0
sg143
I0
sg196
I0
sg168
I0
sg192
I0
sg193
I0
sg194
I0
sg195
I0
sg147
I0
sg146
I0
sg155
I0
sg197
I0
sg198
I0
sg199
I0
sg161
I0
sg200
I0
sg320
I0
sg201
I0
sg202
I0
sg203
I0
sg204
I0
sg205
I0
sg206
I0
sg321
I0
sg207
I0
sg208
I0
sg135
I0
sg134
I0
sg209
I0
sg322
I0
sg323
I0
sg151
I0
sg324
I0
sg325
I0
sg326
I0
sg211
I0
sg212
I0
sg213
I0
sg214
I0
sg215
I0
sg216
I0
sg158
I0
sg157
I0
sg139
I0
sg138
I0
sg327
I0
sg145
I0
sg328
I0
sg150
I4
sg220
I0
sg149
I0
sg221
I0
sg222
I0
sg223
I0
sg152
I0
sg329
I0
sg224
I0
sg218
I0
sg141
I0
sg228
I0
sg144
I0
sg131
I0
sg230
I0
sg231
I0
sg232
I0
sg233
I0
sg234
I0
sg235
I0
sg330
I0
sg236
I0
sg136
I0
sg237
I0
sg238
I0
sg239
I0
sg240
I0
sg241
I0
sg242
I0
sg244
I0
sg245
I0
sg246
I0
sg247
I0
sg331
I0
ssg149
(dp614
g156
I0
sg167
I0
sg191
I0
sg210
I0
sg169
I0
sg318
I0
sg148
I0
sg170
I0
sg137
I0
sg140
I0
sg142
I0
sg154
I0
sg173
I0
sg153
I0
sg174
I0
sg175
I0
sg176
I0
sg177
I0
sg319
I0
sg179
I0
sg181
I0
sg183
I0
sg184
I0
sg185
I0
sg133
I0
sg132
I0
sg186
I0
sg187
I0
sg159
I0
sg130
I0
sg129
I0
sg160
I0
sg188
I0
sg189
I0
sg190
I0
sg143
I0
sg196
I0
sg168
I0
sg192
I0
sg193
I0
sg194
I0
sg195
I0
sg147
I0
sg146
I0
sg155
I0
sg197
I0
sg198
I0
sg199
I0
sg161
I0
sg200
I0
sg320
I0
sg201
I0
sg202
I0
sg203
I0
sg204
I0
sg205
I0
sg206
I0
sg321
I0
sg207
I0
sg208
I0
sg135
I0
sg134
I0
sg209
I0
sg322
I0
sg323
I0
sg151
I0
sg324
I0
sg325
I0
sg326
I0
sg211
I0
sg212
I0
sg213
I0
sg214
I0
sg215
I0
sg216
I0
sg158
I0
sg157
I0
sg139
I0
sg138
I0
sg327
I0
sg145
I0
sg328
I0
sg150
I0
sg220
I0
sg149
I4
sg221
I0
sg222
I0
sg223
I0
sg152
I0
sg329
I0
sg224
I0
sg218
I0
sg141
I0
sg228
I0
sg144
I0
sg131
I0
sg230
I0
sg231
I0
sg232
I0
sg233
I0
sg234
I0
sg235
I0
sg330
I0
sg236
I0
sg136
I0
sg237
I0
sg238
I0
sg239
I0
sg240
I0
sg241
I0
sg242
I0
sg244
I0
sg245
I0
sg246
I0
sg247
I0
sg331
I0
ssg111
(dp615
g345
I0
sg102
I0
sg346
I0
sg347
I0
sg348
I0
sg349
I0
sg252
I0
sg350
I0
sg351
I0
sg352
I0
sg353
I0
sg92
I0
sg354
I0
sg355
I0
sg91
I0
sg115
I0
sg119
I0
sg85
I0
sg356
I0
sg116
I0
sg108
I0
sg259
I0
sg260
I0
sg261
I0
sg262
I0
sg120
I0
sg123
I0
sg90
I0
sg86
I0
sg357
I0
sg358
I0
sg359
I0
sg360
I0
sg100
I0
sg361
I0
sg83
I0
sg84
I0
sg117
I0
sg268
I0
sg362
I0
sg89
I0
sg363
I0
sg106
I0
sg105
I0
sg98
I0
sg269
I0
sg270
I0
sg364
I0
sg103
I0
sg365
I0
sg366
I0
sg367
I0
sg368
I0
sg122
I0
sg276
I0
sg88
I0
sg121
I0
sg87
I0
sg125
I0
sg124
I0
sg369
I0
sg370
I0
sg371
I0
sg372
I0
sg373
I0
sg374
I0
sg375
I0
sg312
I0
sg376
I0
sg377
I0
sg114
I0
sg113
I0
sg289
I0
sg97
I0
sg378
I0
sg291
I0
sg99
I0
sg379
I0
sg380
I0
sg381
I0
sg382
I0
sg94
I0
sg383
I0
sg384
I0
sg101
I0
sg385
I0
sg386
I0
sg297
I0
sg387
I0
sg388
I0
sg389
I0
sg118
I0
sg390
I0
sg391
I0
sg95
I0
sg93
I0
sg80
I0
sg392
I0
sg393
I0
sg394
I0
sg395
I0
sg305
I0
sg107
I0
sg306
I0
sg307
I0
sg111
I0
sg396
I0
sg104
I0
sg96
I0
sg310
I0
sg81
I0
sg109
I0
sg311
I0
sg397
I0
sg313
I0
sg314
I0
sg82
I0
sg112
I4
sg110
I0
ssg20
(dp616
g135
I0
sg102
I0
sg156
I0
sg14
I0
sg106
I0
sg63
I0
sg118
I0
sg17
I0
sg134
I0
sg55
I0
sg148
I0
sg79
I0
sg137
I0
sg121
I0
sg140
I0
sg71
I0
sg92
I0
sg142
I0
sg154
I0
sg91
I0
sg34
I0
sg153
I0
sg119
I0
sg85
I0
sg27
I0
sg108
I0
sg116
I0
sg45
I0
sg37
I0
sg68
I0
sg24
I0
sg120
I0
sg123
I0
sg90
I0
sg86
I0
sg25
I0
sg128
I0
sg133
I0
sg132
I0
sg26
I0
sg18
I0
sg160
I0
sg159
I0
sg130
I0
sg83
I0
sg84
I0
sg117
I0
sg22
I0
sg21
I0
sg158
I0
sg89
I0
sg143
I0
sg146
I0
sg155
I0
sg12
I0
sg105
I0
sg98
I0
sg61
I0
sg60
I0
sg147
I0
sg103
I0
sg114
I0
sg29
I0
sg9
I0
sg65
I0
sg8
I0
sg62
I0
sg64
I0
sg161
I0
sg122
I0
sg44
I0
sg30
I0
sg88
I0
sg115
I0
sg87
I0
sg125
I0
sg124
I0
sg28
I0
sg52
I0
sg73
I0
sg72
I0
sg67
I0
sg77
I0
sg70
I0
sg58
I0
sg41
I0
sg54
I0
sg50
I0
sg151
I0
sg46
I0
sg49
I0
sg66
I0
sg53
I0
sg99
I0
sg113
I0
sg16
I0
sg97
I0
sg69
I0
sg15
I0
sg75
I0
sg74
I0
sg157
I0
sg139
I0
sg138
I0
sg94
I0
sg127
I0
sg51
I0
sg145
I0
sg56
I0
sg101
I0
sg150
I0
sg149
I0
sg111
I0
sg20
I0
sg129
I0
sg59
I0
sg40
I0
sg152
I0
sg57
I0
sg38
I0
sg100
I0
sg10
I0
sg141
I0
sg95
I0
sg93
I0
sg80
I0
sg144
I0
sg131
I0
sg126
I0
sg78
I0
sg76
I0
sg13
I0
sg107
I0
sg33
I0
sg11
I0
sg47
I0
sg35
I0
sg43
I0
sg42
I0
sg136
I0
sg104
I0
sg96
I0
sg36
I0
sg39
I0
sg81
I0
sg109
I0
sg19
I0
sg32
I0
sg31
I0
sg82
I0
sg23
I0
sg112
I0
sg110
I0
sg48
I0
ssg129
(dp617
g156
I0
sg166
I0
sg167
I0
sg168
I0
sg169
I0
sg148
I0
sg170
I0
sg137
I0
sg140
I0
sg171
I0
sg142
I0
sg154
I0
sg172
I0
sg173
I0
sg153
I0
sg174
I0
sg175
I0
sg176
I0
sg177
I0
sg178
I0
sg179
I0
sg180
I0
sg181
I0
sg182
I0
sg183
I0
sg184
I0
sg185
I0
sg133
I0
sg132
I0
sg186
I0
sg187
I0
sg159
I0
sg130
I4
sg129
I0
sg160
I0
sg188
I0
sg189
I0
sg190
I0
sg143
I0
sg146
I0
sg191
I0
sg192
I0
sg193
I0
sg194
I0
sg195
I0
sg147
I0
sg196
I0
sg155
I0
sg197
I0
sg198
I0
sg199
I0
sg161
I0
sg200
I0
sg201
I0
sg202
I0
sg203
I0
sg204
I0
sg205
I0
sg206
I0
sg207
I0
sg208
I0
sg135
I0
sg134
I0
sg209
I0
sg210
I0
sg151
I0
sg211
I0
sg212
I0
sg213
I0
sg214
I0
sg215
I0
sg216
I0
sg158
I0
sg157
I0
sg139
I0
sg138
I0
sg217
I0
sg218
I0
sg145
I0
sg219
I0
sg150
I0
sg220
I0
sg149
I0
sg221
I0
sg222
I0
sg223
I0
sg152
I0
sg224
I0
sg225
I0
sg141
I0
sg226
I0
sg227
I0
sg228
I0
sg144
I0
sg131
I0
sg229
I0
sg230
I0
sg231
I0
sg232
I0
sg233
I0
sg234
I0
sg235
I0
sg236
I0
sg136
I0
sg237
I0
sg238
I0
sg239
I0
sg240
I0
sg241
I0
sg242
I0
sg243
I0
sg244
I0
sg245
I0
sg246
I0
sg247
I0
ssg59
(dp618
g135
I0
sg399
I0
sg156
I0
sg14
I0
sg191
I0
sg63
I0
sg210
I0
sg17
I0
sg55
I0
sg148
I0
sg79
I0
sg137
I0
sg203
I0
sg140
I0
sg71
I0
sg401
I0
sg142
I0
sg154
I0
sg34
I0
sg153
I0
sg174
I0
sg403
I0
sg27
I0
sg176
I0
sg177
I0
sg45
I0
sg37
I0
sg68
I0
sg24
I0
sg238
I0
sg183
I0
sg405
I0
sg406
I0
sg25
I0
sg133
I0
sg132
I0
sg26
I0
sg18
I0
sg159
I0
sg407
I0
sg130
I0
sg408
I0
sg409
I0
sg131
I0
sg22
I0
sg21
I0
sg158
I0
sg410
I0
sg143
I0
sg196
I0
sg12
I0
sg192
I0
sg412
I0
sg61
I0
sg60
I0
sg147
I0
sg146
I0
sg155
I0
sg29
I0
sg9
I0
sg65
I0
sg8
I0
sg62
I0
sg64
I0
sg161
I0
sg200
I0
sg44
I0
sg30
I0
sg415
I0
sg214
I0
sg416
I0
sg204
I0
sg205
I0
sg28
I0
sg52
I0
sg73
I0
sg72
I0
sg67
I0
sg77
I0
sg70
I0
sg134
I0
sg41
I0
sg54
I0
sg50
I0
sg151
I0
sg46
I0
sg49
I0
sg59
I8
sg66
I0
sg53
I0
sg417
I0
sg212
I0
sg16
I0
sg419
I0
sg69
I0
sg15
I0
sg75
I0
sg74
I0
sg157
I0
sg139
I0
sg138
I0
sg420
I0
sg127
I0
sg51
I0
sg145
I0
sg56
I0
sg421
I0
sg150
I0
sg220
I0
sg149
I0
sg207
I0
sg20
I0
sg129
I0
sg58
I0
sg40
I0
sg152
I0
sg57
I0
sg38
I0
sg31
I0
sg10
I0
sg141
I0
sg423
I0
sg424
I0
sg425
I0
sg144
I0
sg160
I0
sg126
I0
sg78
I0
sg76
I0
sg13
I0
sg230
I0
sg33
I0
sg11
I0
sg47
I0
sg35
I0
sg43
I0
sg42
I0
sg136
I0
sg237
I0
sg428
I0
sg36
I0
sg39
I0
sg429
I0
sg241
I0
sg19
I0
sg32
I0
sg128
I0
sg431
I0
sg211
I0
sg23
I0
sg208
I0
sg247
I0
sg48
I0
ssg40
(dp619
g135
I0
sg156
I0
sg14
I0
sg63
I0
sg17
I0
sg134
I0
sg55
I0
sg148
I0
sg79
I0
sg137
I0
sg140
I0
sg71
I0
sg142
I0
sg154
I0
sg34
I0
sg153
I0
sg451
I0
sg27
I0
sg45
I0
sg37
I0
sg68
I0
sg24
I0
sg452
I0
sg25
I0
sg133
I0
sg132
I0
sg26
I0
sg18
I0
sg159
I0
sg130
I0
sg129
I0
sg453
I0
sg131
I0
sg22
I0
sg21
I0
sg158
I0
sg454
I0
sg143
I0
sg12
I0
sg193
I0
sg61
I0
sg60
I0
sg147
I0
sg146
I0
sg155
I0
sg29
I0
sg9
I0
sg65
I0
sg8
I0
sg62
I0
sg64
I0
sg161
I0
sg44
I0
sg30
I0
sg455
I0
sg456
I0
sg28
I0
sg52
I0
sg73
I0
sg72
I0
sg67
I0
sg77
I0
sg70
I0
sg58
I0
sg41
I4
sg54
I0
sg50
I0
sg151
I0
sg46
I0
sg49
I0
sg66
I0
sg53
I0
sg216
I0
sg16
I0
sg214
I0
sg69
I0
sg15
I0
sg75
I0
sg74
I0
sg157
I0
sg139
I0
sg138
I0
sg457
I0
sg51
I0
sg145
I0
sg56
I0
sg150
I0
sg149
I0
sg20
I0
sg458
I0
sg59
I0
sg40
I0
sg152
I0
sg57
I0
sg38
I0
sg31
I0
sg10
I0
sg141
I0
sg459
I0
sg460
I0
sg144
I0
sg160
I0
sg78
I0
sg76
I0
sg13
I0
sg33
I0
sg11
I0
sg47
I0
sg35
I0
sg43
I0
sg42
I0
sg136
I0
sg36
I0
sg39
I0
sg461
I0
sg19
I0
sg32
I0
sg462
I0
sg463
I0
sg23
I0
sg48
I0
ssg152
(dp620
g156
I0
sg167
I0
sg191
I0
sg210
I0
sg169
I0
sg318
I0
sg148
I0
sg170
I0
sg137
I0
sg140
I0
sg142
I0
sg154
I0
sg173
I0
sg153
I0
sg174
I0
sg175
I0
sg176
I0
sg177
I0
sg319
I0
sg179
I0
sg181
I0
sg183
I0
sg184
I0
sg185
I0
sg133
I0
sg132
I0
sg186
I0
sg187
I0
sg159
I0
sg130
I0
sg129
I0
sg131
I0
sg188
I0
sg189
I0
sg190
I0
sg143
I0
sg196
I0
sg168
I0
sg192
I0
sg193
I0
sg194
I0
sg195
I0
sg147
I0
sg146
I0
sg155
I0
sg197
I0
sg198
I0
sg199
I0
sg161
I0
sg200
I0
sg320
I0
sg201
I0
sg202
I0
sg203
I0
sg204
I0
sg205
I0
sg206
I0
sg321
I0
sg207
I0
sg208
I0
sg135
I0
sg134
I0
sg209
I0
sg322
I0
sg323
I0
sg151
I0
sg324
I0
sg325
I0
sg326
I0
sg211
I0
sg212
I0
sg213
I0
sg214
I0
sg215
I0
sg216
I0
sg158
I0
sg157
I0
sg139
I0
sg138
I0
sg327
I0
sg145
I0
sg328
I0
sg150
I0
sg220
I0
sg149
I0
sg221
I0
sg222
I0
sg223
I0
sg152
I4
sg329
I0
sg224
I0
sg218
I0
sg141
I0
sg228
I0
sg144
I0
sg160
I0
sg230
I0
sg231
I0
sg232
I0
sg233
I0
sg234
I0
sg235
I0
sg330
I0
sg236
I0
sg136
I0
sg237
I0
sg238
I0
sg239
I0
sg240
I0
sg241
I0
sg242
I0
sg244
I0
sg245
I0
sg246
I0
sg247
I0
sg331
I0
ssg57
(dp621
g466
I0
sg399
I0
sg14
I0
sg63
I0
sg17
I0
sg55
I0
sg467
I0
sg79
I0
sg71
I0
sg401
I0
sg468
I0
sg34
I0
sg469
I0
sg403
I0
sg27
I0
sg45
I0
sg37
I0
sg68
I0
sg24
I0
sg405
I0
sg406
I0
sg25
I0
sg26
I0
sg18
I0
sg470
I0
sg407
I0
sg408
I0
sg409
I0
sg22
I0
sg21
I0
sg471
I0
sg410
I0
sg12
I0
sg412
I0
sg61
I0
sg60
I0
sg472
I0
sg473
I0
sg474
I0
sg29
I0
sg9
I0
sg65
I0
sg8
I0
sg62
I0
sg64
I0
sg475
I0
sg44
I0
sg30
I0
sg415
I0
sg416
I0
sg28
I0
sg52
I0
sg73
I0
sg72
I0
sg67
I0
sg77
I0
sg70
I0
sg58
I0
sg41
I0
sg54
I0
sg50
I0
sg476
I0
sg46
I0
sg49
I0
sg66
I0
sg53
I0
sg417
I0
sg16
I0
sg419
I0
sg69
I0
sg15
I0
sg75
I0
sg74
I0
sg477
I0
sg420
I0
sg127
I0
sg51
I0
sg478
I0
sg56
I0
sg421
I0
sg479
I0
sg480
I0
sg20
I0
sg59
I0
sg40
I0
sg481
I0
sg57
I0
sg38
I0
sg31
I0
sg10
I0
sg423
I0
sg424
I0
sg425
I0
sg126
I0
sg78
I0
sg76
I0
sg13
I0
sg33
I0
sg11
I0
sg47
I0
sg35
I0
sg43
I0
sg42
I0
sg428
I0
sg36
I0
sg39
I0
sg429
I0
sg19
I0
sg32
I0
sg128
I0
sg431
I0
sg23
I0
sg48
I0
ssg38
(dp622
g135
I0
sg102
I0
sg156
I0
sg14
I0
sg106
I0
sg63
I0
sg118
I0
sg17
I0
sg134
I0
sg55
I0
sg148
I0
sg79
I0
sg137
I0
sg121
I0
sg140
I0
sg71
I0
sg92
I0
sg142
I0
sg154
I0
sg91
I0
sg34
I0
sg153
I0
sg119
I0
sg85
I0
sg27
I0
sg108
I0
sg116
I0
sg45
I0
sg37
I0
sg68
I0
sg24
I0
sg120
I0
sg123
I0
sg90
I0
sg86
I0
sg25
I0
sg462
I0
sg133
I0
sg132
I0
sg26
I0
sg18
I0
sg160
I0
sg159
I0
sg130
I0
sg83
I0
sg84
I0
sg117
I0
sg22
I0
sg21
I0
sg158
I0
sg89
I0
sg143
I0
sg146
I0
sg155
I0
sg12
I0
sg105
I0
sg98
I0
sg61
I0
sg60
I0
sg147
I0
sg103
I0
sg114
I0
sg29
I0
sg9
I0
sg65
I0
sg8
I0
sg62
I0
sg64
I0
sg161
I0
sg122
I0
sg44
I0
sg30
I0
sg88
I0
sg115
I0
sg87
I0
sg125
I0
sg124
I0
sg28
I0
sg52
I0
sg73
I0
sg72
I0
sg67
I0
sg77
I0
sg70
I0
sg58
I0
sg41
I0
sg54
I0
sg50
I0
sg151
I0
sg46
I0
sg49
I0
sg66
I0
sg53
I0
sg99
I0
sg113
I0
sg16
I0
sg97
I0
sg69
I0
sg15
I0
sg75
I0
sg74
I0
sg157
I0
sg139
I0
sg138
I0
sg94
I0
sg457
I0
sg51
I0
sg145
I0
sg56
I0
sg101
I0
sg150
I0
sg149
I0
sg111
I0
sg20
I0
sg129
I0
sg59
I0
sg40
I0
sg152
I0
sg57
I0
sg38
I0
sg100
I0
sg10
I0
sg141
I0
sg95
I0
sg93
I0
sg80
I0
sg144
I0
sg131
I0
sg78
I0
sg76
I0
sg13
I0
sg107
I0
sg33
I0
sg11
I0
sg47
I0
sg35
I0
sg43
I0
sg42
I0
sg136
I0
sg104
I0
sg96
I0
sg36
I0
sg39
I0
sg81
I0
sg109
I0
sg19
I0
sg32
I0
sg31
I0
sg82
I0
sg23
I0
sg112
I0
sg110
I0
sg48
I0
ssg100
(dp623
g249
I0
sg102
I0
sg250
I0
sg251
I0
sg252
I0
sg253
I0
sg254
I0
sg255
I0
sg92
I0
sg256
I0
sg91
I0
sg115
I0
sg119
I0
sg85
I0
sg257
I0
sg258
I0
sg116
I0
sg108
I0
sg259
I0
sg260
I0
sg261
I0
sg262
I0
sg120
I0
sg123
I0
sg90
I0
sg86
I0
sg263
I0
sg128
I0
sg264
I0
sg265
I0
sg266
I0
sg83
I0
sg84
I0
sg117
I0
sg267
I0
sg268
I0
sg89
I0
sg106
I0
sg105
I0
sg98
I0
sg269
I0
sg270
I0
sg103
I0
sg271
I0
sg272
I0
sg273
I0
sg274
I0
sg122
I0
sg275
I0
sg276
I0
sg88
I0
sg121
I0
sg87
I0
sg125
I0
sg124
I0
sg277
I0
sg111
I0
sg112
I0
sg278
I0
sg279
I0
sg280
I0
sg281
I0
sg282
I0
sg283
I0
sg284
I0
sg285
I0
sg286
I0
sg287
I0
sg288
I0
sg114
I0
sg113
I0
sg289
I0
sg97
I0
sg290
I0
sg291
I0
sg99
I0
sg292
I0
sg293
I0
sg294
I0
sg94
I0
sg127
I0
sg295
I0
sg296
I0
sg101
I0
sg297
I0
sg298
I0
sg299
I0
sg300
I0
sg118
I0
sg314
I0
sg301
I0
sg95
I0
sg93
I0
sg80
I0
sg302
I0
sg303
I0
sg126
I0
sg304
I0
sg305
I0
sg107
I0
sg306
I0
sg307
I0
sg308
I0
sg309
I0
sg104
I0
sg96
I0
sg310
I0
sg81
I0
sg109
I0
sg311
I0
sg312
I0
sg313
I0
sg100
I4
sg82
I0
sg315
I0
sg110
I0
sg316
I0
ssg10
(dp624
g135
I0
sg156
I0
sg14
I0
sg63
I0
sg333
I0
sg17
I0
sg134
I0
sg55
I0
sg148
I0
sg79
I0
sg137
I0
sg140
I0
sg71
I0
sg142
I0
sg154
I0
sg34
I0
sg153
I0
sg334
I0
sg451
I0
sg27
I0
sg335
I0
sg45
I0
sg37
I0
sg68
I0
sg24
I0
sg336
I0
sg452
I0
sg25
I0
sg133
I0
sg132
I0
sg26
I0
sg18
I0
sg159
I0
sg130
I0
sg129
I0
sg453
I0
sg131
I0
sg22
I0
sg21
I0
sg158
I0
sg454
I0
sg143
I0
sg12
I0
sg193
I0
sg61
I0
sg60
I0
sg147
I0
sg146
I0
sg155
I0
sg29
I0
sg9
I0
sg65
I0
sg8
I0
sg62
I0
sg64
I0
sg161
I0
sg337
I0
sg44
I0
sg30
I0
sg455
I0
sg338
I0
sg456
I0
sg339
I0
sg340
I0
sg28
I0
sg52
I0
sg73
I0
sg72
I0
sg67
I0
sg77
I0
sg70
I0
sg58
I0
sg41
I0
sg54
I0
sg50
I0
sg151
I0
sg46
I0
sg49
I0
sg66
I0
sg53
I0
sg216
I0
sg16
I0
sg214
I0
sg69
I0
sg15
I0
sg75
I0
sg74
I0
sg157
I0
sg139
I0
sg138
I0
sg457
I0
sg51
I0
sg145
I0
sg56
I0
sg150
I0
sg341
I0
sg149
I0
sg20
I0
sg458
I0
sg59
I0
sg40
I0
sg152
I0
sg57
I0
sg38
I0
sg31
I0
sg10
I8
sg141
I0
sg459
I0
sg460
I0
sg144
I0
sg160
I0
sg78
I0
sg76
I0
sg13
I0
sg33
I0
sg11
I0
sg47
I0
sg35
I0
sg43
I0
sg42
I0
sg136
I0
sg343
I0
sg36
I0
sg39
I0
sg461
I0
sg19
I0
sg32
I0
sg462
I0
sg463
I0
sg23
I0
sg48
I0
ssg141
(dp625
g156
I0
sg166
I0
sg167
I0
sg168
I0
sg169
I0
sg148
I0
sg170
I0
sg137
I0
sg140
I0
sg171
I0
sg142
I0
sg154
I0
sg172
I0
sg173
I0
sg153
I0
sg174
I0
sg175
I0
sg176
I0
sg177
I0
sg178
I0
sg179
I0
sg180
I0
sg181
I0
sg182
I0
sg183
I0
sg184
I0
sg185
I0
sg133
I0
sg132
I0
sg186
I0
sg187
I0
sg159
I0
sg130
I0
sg129
I0
sg160
I0
sg188
I0
sg189
I0
sg190
I0
sg143
I0
sg146
I0
sg191
I0
sg192
I0
sg193
I0
sg194
I0
sg195
I0
sg147
I0
sg196
I0
sg155
I0
sg197
I0
sg198
I0
sg199
I0
sg161
I0
sg200
I0
sg201
I0
sg202
I0
sg203
I0
sg204
I0
sg205
I0
sg206
I0
sg207
I0
sg208
I0
sg135
I0
sg134
I0
sg209
I0
sg210
I0
sg151
I0
sg211
I0
sg212
I0
sg213
I0
sg214
I0
sg215
I0
sg216
I0
sg158
I0
sg157
I0
sg139
I0
sg138
I0
sg217
I0
sg218
I0
sg145
I0
sg219
I0
sg150
I0
sg220
I0
sg149
I0
sg221
I0
sg222
I0
sg223
I0
sg152
I0
sg224
I0
sg225
I0
sg141
I0
sg226
I0
sg227
I0
sg228
I0
sg144
I0
sg131
I0
sg229
I0
sg230
I0
sg231
I0
sg232
I0
sg233
I0
sg234
I0
sg235
I0
sg236
I0
sg136
I0
sg237
I0
sg238
I0
sg239
I0
sg240
I0
sg241
I0
sg242
I0
sg243
I0
sg244
I0
sg245
I0
sg246
I0
sg247
I0
ssg95
(dp626
g249
I0
sg102
I0
sg250
I0
sg251
I0
sg252
I0
sg253
I0
sg254
I0
sg255
I0
sg92
I0
sg256
I0
sg91
I0
sg115
I0
sg119
I0
sg85
I0
sg257
I0
sg258
I0
sg116
I0
sg108
I0
sg259
I0
sg260
I0
sg261
I0
sg262
I0
sg120
I0
sg123
I0
sg90
I0
sg86
I0
sg263
I0
sg128
I0
sg264
I0
sg265
I0
sg266
I0
sg83
I0
sg84
I0
sg117
I0
sg267
I0
sg268
I0
sg89
I0
sg106
I0
sg105
I0
sg98
I0
sg269
I0
sg270
I0
sg103
I0
sg271
I0
sg272
I0
sg273
I0
sg274
I0
sg122
I0
sg275
I0
sg276
I0
sg88
I0
sg121
I0
sg87
I0
sg125
I0
sg124
I0
sg277
I0
sg111
I0
sg112
I0
sg278
I0
sg279
I0
sg280
I0
sg281
I0
sg282
I0
sg283
I0
sg284
I0
sg285
I0
sg286
I0
sg287
I0
sg288
I0
sg114
I0
sg113
I0
sg289
I0
sg97
I0
sg290
I0
sg291
I0
sg99
I0
sg292
I0
sg293
I0
sg294
I0
sg94
I0
sg127
I0
sg295
I0
sg296
I0
sg101
I0
sg297
I0
sg298
I0
sg299
I0
sg300
I0
sg118
I0
sg100
I0
sg301
I0
sg95
I0
sg93
I0
sg80
I0
sg302
I0
sg303
I0
sg126
I0
sg304
I0
sg305
I0
sg107
I0
sg306
I0
sg307
I0
sg308
I0
sg309
I0
sg104
I0
sg96
I0
sg310
I0
sg81
I0
sg109
I0
sg311
I0
sg312
I0
sg313
I0
sg314
I0
sg82
I0
sg315
I0
sg110
I0
sg316
I0
ssg93
(dp627
g249
I0
sg102
I0
sg250
I0
sg496
I0
sg251
I0
sg252
I0
sg308
I0
sg253
I0
sg254
I0
sg255
I0
sg92
I0
sg256
I0
sg91
I0
sg497
I0
sg115
I0
sg119
I0
sg85
I0
sg257
I0
sg258
I0
sg116
I0
sg108
I0
sg259
I0
sg260
I0
sg261
I0
sg262
I0
sg120
I0
sg123
I0
sg90
I0
sg86
I0
sg263
I0
sg128
I0
sg264
I0
sg265
I0
sg498
I0
sg266
I0
sg83
I0
sg84
I0
sg117
I0
sg267
I0
sg268
I0
sg89
I0
sg106
I0
sg105
I0
sg98
I0
sg269
I0
sg270
I0
sg103
I0
sg499
I0
sg271
I0
sg272
I0
sg273
I0
sg274
I0
sg122
I0
sg275
I0
sg276
I0
sg88
I0
sg121
I0
sg87
I0
sg125
I0
sg124
I0
sg277
I0
sg111
I0
sg112
I0
sg278
I0
sg279
I0
sg280
I0
sg281
I0
sg282
I0
sg283
I0
sg284
I0
sg285
I0
sg286
I0
sg287
I0
sg288
I0
sg114
I0
sg113
I0
sg289
I0
sg97
I0
sg290
I0
sg291
I0
sg99
I0
sg292
I0
sg293
I0
sg294
I0
sg94
I0
sg127
I0
sg295
I0
sg296
I0
sg101
I0
sg297
I0
sg298
I0
sg299
I0
sg500
I0
sg300
I0
sg118
I0
sg100
I0
sg501
I0
sg301
I0
sg95
I0
sg93
I0
sg80
I0
sg302
I0
sg303
I0
sg126
I0
sg304
I0
sg305
I0
sg107
I0
sg502
I0
sg306
I0
sg307
I0
sg503
I0
sg504
I0
sg505
I0
sg309
I0
sg104
I0
sg96
I0
sg310
I0
sg506
I0
sg81
I0
sg109
I0
sg311
I0
sg312
I0
sg313
I0
sg314
I0
sg82
I0
sg315
I0
sg110
I0
sg316
I0
ssg80
(dp628
g345
I0
sg102
I0
sg346
I0
sg435
I0
sg436
I0
sg250
I0
sg496
I0
sg251
I0
sg349
I0
sg252
I0
sg350
I0
sg351
I0
sg254
I0
sg353
I0
sg92
I0
sg354
I0
sg355
I0
sg91
I0
sg497
I0
sg115
I0
sg119
I0
sg85
I0
sg257
I0
sg258
I0
sg116
I0
sg108
I0
sg259
I0
sg260
I0
sg261
I0
sg262
I0
sg120
I0
sg123
I0
sg90
I0
sg86
I0
sg263
I0
sg128
I0
sg358
I0
sg359
I0
sg438
I0
sg498
I0
sg440
I0
sg360
I0
sg361
I0
sg83
I0
sg84
I0
sg117
I0
sg267
I0
sg268
I0
sg362
I0
sg89
I0
sg442
I0
sg363
I0
sg106
I0
sg105
I0
sg98
I0
sg269
I0
sg270
I0
sg364
I0
sg103
I0
sg365
I0
sg499
I0
sg271
I0
sg272
I0
sg273
I0
sg274
I0
sg444
I0
sg122
I0
sg275
I0
sg276
I0
sg88
I0
sg121
I0
sg87
I0
sg125
I0
sg124
I0
sg445
I0
sg277
I0
sg111
I0
sg112
I0
sg278
I0
sg279
I0
sg280
I0
sg374
I0
sg282
I0
sg283
I0
sg284
I0
sg376
I0
sg285
I0
sg286
I0
sg287
I0
sg288
I0
sg114
I0
sg113
I0
sg289
I0
sg97
I0
sg397
I0
sg290
I0
sg291
I0
sg99
I0
sg292
I0
sg380
I0
sg381
I0
sg382
I0
sg94
I0
sg127
I0
sg295
I0
sg384
I0
sg296
I0
sg101
I0
sg385
I0
sg386
I0
sg297
I0
sg387
I0
sg299
I0
sg500
I0
sg389
I0
sg300
I0
sg118
I0
sg100
I0
sg501
I0
sg391
I0
sg95
I0
sg93
I0
sg80
I4
sg392
I0
sg393
I0
sg126
I0
sg304
I0
sg305
I0
sg448
I0
sg441
I0
sg107
I0
sg502
I0
sg306
I0
sg307
I0
sg503
I0
sg504
I0
sg505
I0
sg396
I0
sg104
I0
sg96
I0
sg310
I0
sg506
I0
sg81
I4
sg109
I0
sg311
I0
sg312
I0
sg313
I0
sg314
I0
sg82
I0
sg449
I0
sg315
I0
sg110
I0
sg316
I0
ssg144
(dp629
g156
I0
sg166
I0
sg167
I0
sg168
I0
sg169
I0
sg148
I0
sg170
I0
sg137
I0
sg140
I0
sg171
I0
sg142
I0
sg154
I0
sg172
I0
sg173
I0
sg153
I0
sg174
I0
sg175
I0
sg176
I0
sg177
I0
sg178
I0
sg179
I0
sg180
I0
sg181
I0
sg182
I0
sg183
I0
sg184
I0
sg185
I0
sg133
I0
sg132
I0
sg186
I0
sg187
I0
sg159
I0
sg130
I0
sg129
I0
sg160
I0
sg188
I0
sg189
I0
sg190
I0
sg143
I0
sg146
I0
sg191
I0
sg192
I0
sg193
I0
sg194
I0
sg195
I0
sg147
I0
sg196
I0
sg155
I0
sg197
I0
sg198
I0
sg199
I0
sg161
I0
sg200
I0
sg201
I0
sg202
I0
sg203
I0
sg204
I0
sg205
I0
sg206
I0
sg207
I0
sg208
I0
sg135
I0
sg134
I0
sg209
I0
sg210
I0
sg151
I0
sg211
I0
sg212
I0
sg213
I0
sg214
I0
sg215
I0
sg216
I0
sg158
I0
sg157
I0
sg139
I0
sg138
I0
sg217
I0
sg218
I0
sg145
I0
sg219
I0
sg150
I0
sg220
I0
sg149
I0
sg221
I0
sg222
I0
sg223
I0
sg152
I0
sg224
I0
sg225
I0
sg141
I0
sg226
I0
sg227
I0
sg228
I0
sg144
I4
sg131
I0
sg229
I0
sg230
I0
sg231
I0
sg232
I0
sg233
I0
sg234
I0
sg235
I0
sg236
I0
sg136
I0
sg237
I0
sg238
I0
sg239
I0
sg240
I0
sg241
I0
sg242
I0
sg243
I0
sg244
I0
sg245
I0
sg246
I0
sg247
I0
ssg131
(dp630
g156
I0
sg166
I0
sg167
I0
sg168
I0
sg169
I0
sg148
I0
sg170
I0
sg137
I0
sg140
I0
sg171
I0
sg142
I0
sg154
I0
sg172
I0
sg173
I0
sg153
I0
sg174
I0
sg175
I0
sg176
I0
sg177
I0
sg178
I0
sg179
I0
sg180
I0
sg181
I0
sg182
I0
sg183
I0
sg184
I0
sg185
I0
sg133
I0
sg132
I0
sg186
I0
sg187
I0
sg159
I0
sg130
I0
sg129
I0
sg160
I0
sg188
I0
sg189
I0
sg190
I0
sg143
I0
sg146
I0
sg191
I0
sg192
I0
sg193
I0
sg194
I0
sg195
I0
sg147
I0
sg196
I0
sg155
I0
sg197
I0
sg198
I0
sg199
I0
sg161
I0
sg200
I0
sg201
I0
sg202
I0
sg203
I0
sg204
I0
sg205
I0
sg206
I0
sg207
I0
sg208
I0
sg135
I0
sg134
I0
sg209
I0
sg210
I0
sg151
I0
sg211
I0
sg212
I0
sg213
I0
sg214
I0
sg215
I0
sg216
I0
sg158
I0
sg157
I0
sg139
I0
sg138
I0
sg217
I0
sg218
I0
sg145
I0
sg219
I0
sg150
I0
sg220
I0
sg149
I0
sg221
I0
sg222
I0
sg223
I0
sg152
I0
sg224
I0
sg225
I0
sg141
I0
sg226
I0
sg227
I0
sg228
I0
sg144
I0
sg131
I0
sg229
I0
sg230
I0
sg231
I0
sg232
I0
sg233
I0
sg234
I0
sg235
I0
sg236
I0
sg136
I0
sg237
I0
sg238
I0
sg239
I0
sg240
I0
sg241
I0
sg242
I0
sg243
I0
sg244
I0
sg245
I0
sg246
I0
sg247
I0
ssg126
(dp631
g399
I0
sg250
I0
sg251
I0
sg520
I0
sg254
I0
sg401
I0
sg402
I0
sg403
I0
sg258
I0
sg404
I0
sg521
I0
sg522
I0
sg523
I0
sg524
I0
sg405
I0
sg406
I0
sg263
I0
sg408
I0
sg409
I0
sg267
I0
sg525
I0
sg410
I0
sg400
I0
sg411
I0
sg412
I0
sg432
I0
sg526
I0
sg527
I0
sg413
I0
sg414
I0
sg271
I0
sg272
I0
sg273
I0
sg274
I0
sg275
I0
sg528
I0
sg415
I0
sg416
I0
sg277
I0
sg422
I0
sg315
I0
sg278
I0
sg279
I0
sg280
I0
sg282
I0
sg283
I0
sg284
I0
sg285
I0
sg286
I0
sg287
I0
sg288
I0
sg417
I0
sg418
I0
sg529
I0
sg419
I0
sg290
I0
sg530
I0
sg257
I0
sg292
I0
sg420
I0
sg127
I0
sg295
I0
sg296
I0
sg421
I0
sg531
I0
sg299
I0
sg300
I0
sg407
I0
sg423
I0
sg424
I0
sg425
I0
sg126
I0
sg304
I0
sg534
I0
sg426
I0
sg535
I0
sg536
I0
sg427
I0
sg428
I0
sg537
I0
sg429
I0
sg430
I0
sg538
I0
sg539
I0
sg128
I0
sg431
I0
sg316
I0
sg433
I0
sg533
I0
ssg78
(dp632
g399
I0
sg14
I0
sg400
I0
sg63
I0
sg17
I0
sg55
I0
sg79
I0
sg71
I0
sg401
I0
sg402
I0
sg34
I0
sg403
I0
sg27
I0
sg404
I0
sg45
I0
sg37
I0
sg68
I0
sg24
I0
sg405
I0
sg406
I0
sg25
I0
sg26
I0
sg18
I0
sg407
I0
sg408
I0
sg409
I0
sg22
I0
sg21
I0
sg410
I0
sg12
I0
sg411
I0
sg412
I0
sg61
I0
sg60
I0
sg413
I0
sg414
I0
sg29
I0
sg9
I0
sg65
I0
sg8
I0
sg62
I0
sg64
I0
sg44
I0
sg30
I0
sg415
I0
sg416
I0
sg28
I0
sg52
I0
sg73
I0
sg72
I0
sg67
I0
sg77
I0
sg70
I0
sg58
I0
sg41
I0
sg54
I0
sg50
I0
sg46
I0
sg49
I0
sg66
I0
sg53
I0
sg417
I0
sg418
I0
sg16
I0
sg419
I0
sg69
I0
sg15
I0
sg75
I0
sg74
I0
sg420
I0
sg127
I0
sg51
I0
sg56
I0
sg421
I0
sg422
I0
sg20
I0
sg59
I0
sg40
I0
sg57
I0
sg38
I0
sg31
I0
sg10
I0
sg423
I0
sg424
I0
sg425
I0
sg126
I0
sg78
I4
sg76
I0
sg13
I0
sg426
I0
sg33
I0
sg11
I0
sg47
I0
sg35
I0
sg43
I0
sg42
I0
sg427
I0
sg428
I0
sg36
I0
sg39
I0
sg429
I0
sg430
I0
sg19
I0
sg32
I0
sg128
I0
sg431
I0
sg23
I0
sg432
I0
sg433
I0
sg48
I0
ssg76
(dp633
g249
I0
sg102
I0
sg14
I0
sg106
I0
sg63
I0
sg118
I0
sg17
I0
sg281
I0
sg55
I0
sg79
I0
sg308
I0
sg121
I0
sg253
I0
sg71
I0
sg92
I0
sg256
I0
sg91
I0
sg34
I0
sg119
I0
sg85
I0
sg27
I0
sg108
I0
sg116
I0
sg45
I0
sg37
I0
sg68
I0
sg24
I0
sg120
I0
sg123
I0
sg90
I0
sg86
I0
sg25
I0
sg128
I0
sg264
I0
sg265
I0
sg26
I0
sg18
I0
sg266
I0
sg83
I0
sg84
I0
sg117
I0
sg22
I0
sg21
I0
sg89
I0
sg12
I0
sg105
I0
sg98
I0
sg61
I0
sg60
I0
sg103
I0
sg114
I0
sg29
I0
sg9
I0
sg65
I0
sg8
I0
sg62
I0
sg64
I0
sg122
I0
sg44
I0
sg30
I0
sg88
I0
sg115
I0
sg87
I0
sg125
I0
sg124
I0
sg28
I0
sg52
I0
sg73
I0
sg72
I0
sg67
I0
sg77
I0
sg70
I0
sg58
I0
sg41
I0
sg54
I0
sg50
I0
sg46
I0
sg49
I0
sg66
I0
sg53
I0
sg99
I0
sg113
I0
sg16
I0
sg97
I0
sg69
I0
sg15
I0
sg75
I0
sg74
I0
sg293
I0
sg294
I0
sg94
I0
sg127
I0
sg51
I0
sg56
I0
sg101
I0
sg111
I0
sg20
I0
sg298
I0
sg59
I0
sg40
I0
sg57
I0
sg38
I0
sg100
I0
sg10
I0
sg301
I0
sg95
I0
sg93
I0
sg80
I0
sg302
I0
sg303
I0
sg126
I4
sg78
I0
sg76
I4
sg13
I0
sg107
I0
sg33
I0
sg11
I0
sg47
I0
sg35
I0
sg43
I0
sg42
I0
sg309
I0
sg104
I0
sg96
I0
sg36
I0
sg39
I0
sg81
I0
sg109
I0
sg19
I0
sg32
I0
sg31
I0
sg82
I0
sg23
I0
sg112
I0
sg110
I0
sg48
I0
ssg13
(dp634
g135
I0
sg156
I0
sg14
I4
sg63
I0
sg333
I0
sg17
I0
sg55
I0
sg148
I0
sg79
I0
sg137
I0
sg140
I0
sg71
I0
sg142
I0
sg154
I0
sg34
I0
sg153
I0
sg334
I0
sg27
I0
sg335
I0
sg45
I0
sg37
I0
sg68
I0
sg24
I0
sg336
I0
sg25
I0
sg133
I0
sg132
I0
sg26
I0
sg18
I0
sg159
I0
sg130
I0
sg129
I0
sg131
I0
sg22
I0
sg21
I0
sg158
I0
sg190
I0
sg143
I0
sg12
I0
sg193
I0
sg61
I0
sg60
I0
sg147
I0
sg146
I0
sg155
I0
sg29
I0
sg9
I0
sg65
I0
sg8
I0
sg62
I0
sg64
I0
sg161
I0
sg337
I0
sg44
I0
sg30
I0
sg13
I0
sg338
I0
sg339
I0
sg340
I0
sg28
I0
sg52
I0
sg73
I0
sg72
I0
sg67
I0
sg77
I0
sg70
I0
sg134
I0
sg41
I0
sg54
I0
sg50
I0
sg151
I0
sg46
I0
sg49
I0
sg66
I0
sg53
I0
sg216
I0
sg16
I0
sg214
I0
sg69
I0
sg15
I0
sg75
I0
sg74
I0
sg157
I0
sg139
I0
sg138
I0
sg51
I0
sg145
I0
sg56
I0
sg150
I0
sg341
I0
sg149
I0
sg20
I0
sg59
I0
sg40
I0
sg152
I0
sg57
I0
sg38
I0
sg10
I0
sg141
I0
sg342
I0
sg144
I0
sg160
I0
sg78
I0
sg76
I0
sg33
I0
sg11
I0
sg47
I0
sg35
I0
sg43
I0
sg42
I0
sg136
I0
sg343
I0
sg36
I0
sg39
I0
sg19
I0
sg32
I0
sg31
I0
sg23
I0
sg48
I0
sg58
I0
ssg107
(dp635
g345
I0
sg102
I0
sg346
I0
sg347
I0
sg348
I0
sg349
I0
sg252
I0
sg350
I0
sg351
I0
sg352
I0
sg353
I0
sg92
I0
sg354
I0
sg355
I0
sg91
I0
sg115
I0
sg119
I0
sg85
I0
sg356
I0
sg116
I0
sg108
I0
sg259
I0
sg260
I0
sg261
I0
sg262
I0
sg120
I0
sg123
I0
sg90
I0
sg86
I0
sg357
I0
sg358
I0
sg359
I0
sg360
I0
sg100
I0
sg361
I0
sg83
I0
sg84
I0
sg117
I0
sg268
I0
sg362
I0
sg89
I0
sg363
I0
sg106
I0
sg105
I0
sg98
I0
sg269
I0
sg270
I0
sg364
I0
sg103
I0
sg365
I0
sg366
I0
sg367
I0
sg368
I0
sg122
I0
sg276
I0
sg88
I0
sg121
I0
sg87
I0
sg125
I0
sg124
I0
sg369
I0
sg370
I0
sg371
I0
sg372
I0
sg373
I0
sg374
I0
sg375
I0
sg312
I0
sg376
I0
sg377
I0
sg114
I0
sg113
I0
sg289
I0
sg97
I0
sg378
I0
sg291
I0
sg99
I0
sg379
I0
sg380
I0
sg381
I0
sg382
I0
sg94
I0
sg383
I0
sg384
I0
sg101
I0
sg385
I0
sg386
I0
sg297
I0
sg387
I0
sg388
I0
sg389
I0
sg118
I0
sg390
I0
sg391
I0
sg95
I0
sg93
I0
sg80
I0
sg392
I0
sg393
I0
sg394
I0
sg395
I0
sg305
I0
sg107
I4
sg306
I0
sg307
I0
sg111
I0
sg396
I0
sg104
I0
sg96
I0
sg310
I0
sg81
I0
sg109
I0
sg311
I0
sg397
I0
sg313
I0
sg314
I0
sg82
I0
sg112
I0
sg110
I0
ssg33
(dp636
g135
I0
sg156
I0
sg14
I0
sg63
I0
sg17
I0
sg134
I0
sg55
I0
sg148
I0
sg79
I0
sg137
I0
sg140
I0
sg71
I0
sg142
I0
sg154
I0
sg34
I0
sg153
I0
sg451
I0
sg27
I0
sg45
I0
sg37
I0
sg68
I0
sg24
I0
sg452
I0
sg25
I0
sg133
I0
sg132
I0
sg26
I0
sg18
I0
sg159
I0
sg130
I0
sg129
I0
sg453
I0
sg131
I0
sg22
I0
sg21
I0
sg158
I0
sg454
I0
sg143
I0
sg12
I0
sg193
I0
sg61
I0
sg60
I0
sg147
I0
sg146
I0
sg155
I0
sg29
I0
sg9
I0
sg65
I0
sg8
I0
sg62
I0
sg64
I0
sg161
I0
sg44
I0
sg30
I0
sg455
I0
sg456
I0
sg28
I0
sg52
I0
sg73
I0
sg72
I0
sg67
I0
sg77
I0
sg70
I0
sg58
I0
sg41
I0
sg54
I0
sg50
I0
sg151
I0
sg46
I0
sg49
I0
sg66
I0
sg53
I0
sg216
I0
sg16
I0
sg214
I0
sg69
I0
sg15
I0
sg75
I0
sg74
I0
sg157
I0
sg139
I0
sg138
I0
sg457
I0
sg51
I0
sg145
I0
sg56
I0
sg150
I0
sg149
I0
sg20
I0
sg458
I0
sg59
I0
sg40
I0
sg152
I0
sg57
I0
sg38
I0
sg31
I0
sg10
I0
sg141
I0
sg459
I0
sg460
I0
sg144
I0
sg160
I0
sg78
I0
sg76
I0
sg13
I0
sg33
I4
sg11
I0
sg47
I0
sg35
I0
sg43
I0
sg42
I0
sg136
I0
sg36
I0
sg39
I0
sg461
I0
sg19
I0
sg32
I0
sg462
I0
sg463
I0
sg23
I0
sg48
I0
ssg11
(dp637
g135
I0
sg102
I0
sg156
I0
sg14
I0
sg106
I0
sg63
I0
sg118
I0
sg17
I0
sg134
I0
sg55
I0
sg148
I0
sg79
I0
sg137
I0
sg121
I0
sg140
I0
sg71
I0
sg92
I0
sg142
I0
sg154
I0
sg91
I0
sg34
I0
sg153
I0
sg119
I0
sg85
I0
sg27
I0
sg108
I0
sg116
I0
sg45
I0
sg37
I0
sg68
I0
sg24
I0
sg120
I0
sg123
I0
sg90
I0
sg86
I0
sg25
I0
sg128
I0
sg133
I0
sg132
I0
sg26
I0
sg18
I0
sg160
I0
sg159
I0
sg130
I0
sg83
I0
sg84
I0
sg117
I0
sg22
I0
sg21
I0
sg158
I0
sg89
I0
sg143
I0
sg146
I0
sg155
I0
sg12
I4
sg105
I0
sg98
I0
sg61
I0
sg60
I0
sg147
I0
sg103
I0
sg114
I0
sg29
I0
sg9
I0
sg65
I0
sg8
I0
sg62
I0
sg64
I0
sg161
I0
sg122
I0
sg44
I0
sg30
I0
sg88
I0
sg115
I0
sg87
I0
sg125
I0
sg124
I0
sg28
I0
sg52
I0
sg73
I0
sg72
I0
sg67
I0
sg77
I0
sg70
I0
sg58
I0
sg41
I0
sg54
I0
sg50
I0
sg151
I0
sg46
I0
sg49
I0
sg66
I0
sg53
I0
sg99
I0
sg113
I0
sg16
I0
sg97
I0
sg69
I0
sg15
I0
sg75
I0
sg74
I0
sg157
I0
sg139
I0
sg138
I0
sg94
I0
sg127
I0
sg51
I0
sg145
I0
sg56
I0
sg101
I0
sg150
I0
sg149
I0
sg111
I0
sg20
I0
sg129
I0
sg59
I0
sg40
I0
sg152
I0
sg57
I0
sg38
I0
sg100
I0
sg10
I0
sg141
I0
sg95
I0
sg93
I0
sg80
I0
sg144
I0
sg131
I0
sg126
I0
sg78
I0
sg76
I0
sg13
I0
sg107
I0
sg33
I0
sg11
I8
sg47
I0
sg35
I0
sg43
I0
sg42
I0
sg136
I0
sg104
I0
sg96
I0
sg36
I0
sg39
I0
sg81
I0
sg109
I0
sg19
I0
sg32
I0
sg31
I0
sg82
I0
sg23
I0
sg112
I0
sg110
I0
sg48
I0
ssg47
(dp638
g135
I0
sg102
I0
sg156
I0
sg14
I0
sg106
I0
sg63
I0
sg118
I0
sg17
I0
sg134
I0
sg55
I0
sg148
I0
sg79
I0
sg137
I0
sg121
I0
sg140
I0
sg71
I0
sg92
I0
sg142
I0
sg154
I0
sg91
I0
sg34
I0
sg153
I0
sg119
I0
sg85
I0
sg27
I0
sg108
I0
sg116
I0
sg45
I0
sg37
I0
sg68
I0
sg24
I0
sg120
I0
sg123
I0
sg90
I0
sg86
I0
sg25
I0
sg128
I0
sg133
I0
sg132
I0
sg26
I0
sg18
I0
sg160
I0
sg159
I0
sg130
I0
sg83
I0
sg84
I0
sg117
I0
sg22
I0
sg21
I0
sg158
I0
sg89
I0
sg143
I0
sg146
I0
sg155
I0
sg12
I0
sg105
I0
sg98
I0
sg61
I0
sg60
I0
sg147
I0
sg103
I0
sg114
I0
sg29
I0
sg9
I0
sg65
I0
sg8
I0
sg62
I0
sg64
I0
sg161
I0
sg122
I0
sg44
I0
sg30
I0
sg88
I0
sg115
I0
sg87
I0
sg125
I0
sg124
I0
sg28
I0
sg52
I0
sg73
I0
sg72
I0
sg67
I0
sg77
I0
sg70
I0
sg58
I0
sg41
I0
sg54
I0
sg50
I0
sg151
I0
sg46
I0
sg49
I0
sg66
I0
sg53
I0
sg99
I0
sg113
I0
sg16
I0
sg97
I0
sg69
I0
sg15
I0
sg75
I0
sg74
I0
sg157
I0
sg139
I0
sg138
I0
sg94
I0
sg127
I0
sg51
I0
sg145
I0
sg56
I0
sg101
I0
sg150
I0
sg149
I0
sg111
I0
sg20
I0
sg129
I0
sg59
I0
sg40
I0
sg152
I0
sg57
I0
sg38
I0
sg100
I0
sg10
I0
sg141
I0
sg95
I0
sg93
I0
sg80
I0
sg144
I0
sg131
I0
sg126
I0
sg78
I0
sg76
I0
sg13
I0
sg107
I0
sg33
I0
sg11
I0
sg47
I12
sg35
I0
sg43
I0
sg42
I0
sg136
I0
sg104
I0
sg96
I0
sg36
I0
sg39
I0
sg81
I0
sg109
I0
sg19
I0
sg32
I0
sg31
I0
sg82
I0
sg23
I0
sg112
I0
sg110
I0
sg48
I0
ssg35
(dp639
g135
I0
sg156
I0
sg14
I0
sg63
I0
sg17
I0
sg134
I0
sg55
I0
sg148
I0
sg79
I0
sg137
I0
sg140
I0
sg71
I0
sg142
I0
sg154
I0
sg34
I0
sg153
I0
sg451
I0
sg27
I0
sg45
I0
sg37
I0
sg68
I0
sg24
I0
sg452
I0
sg25
I0
sg133
I0
sg132
I0
sg26
I0
sg18
I0
sg159
I0
sg130
I0
sg129
I0
sg453
I0
sg131
I0
sg22
I0
sg21
I0
sg158
I0
sg454
I0
sg143
I0
sg12
I0
sg193
I0
sg61
I0
sg60
I0
sg147
I0
sg146
I0
sg155
I0
sg29
I0
sg9
I0
sg65
I0
sg8
I0
sg62
I0
sg64
I0
sg161
I0
sg44
I0
sg30
I0
sg455
I0
sg456
I0
sg28
I0
sg52
I0
sg73
I0
sg72
I0
sg67
I0
sg77
I0
sg70
I0
sg58
I0
sg41
I0
sg54
I0
sg50
I0
sg151
I0
sg46
I0
sg49
I0
sg66
I0
sg53
I0
sg216
I0
sg16
I0
sg214
I0
sg69
I0
sg15
I0
sg75
I0
sg74
I0
sg157
I0
sg139
I0
sg138
I0
sg457
I0
sg51
I0
sg145
I0
sg56
I0
sg150
I0
sg149
I0
sg20
I0
sg458
I0
sg59
I0
sg40
I0
sg152
I0
sg57
I0
sg38
I0
sg31
I0
sg10
I0
sg141
I0
sg459
I0
sg460
I0
sg144
I0
sg160
I0
sg78
I0
sg76
I0
sg13
I0
sg33
I0
sg11
I0
sg47
I0
sg35
I0
sg43
I0
sg42
I0
sg136
I0
sg36
I0
sg39
I0
sg461
I0
sg19
I0
sg32
I0
sg462
I0
sg463
I0
sg23
I0
sg48
I0
ssg43
(dp640
g135
I0
sg156
I0
sg14
I0
sg63
I0
sg17
I0
sg134
I0
sg55
I0
sg148
I0
sg79
I0
sg137
I0
sg140
I0
sg71
I0
sg142
I0
sg154
I0
sg34
I0
sg153
I0
sg451
I0
sg27
I0
sg45
I0
sg37
I0
sg68
I0
sg24
I0
sg452
I0
sg25
I0
sg133
I0
sg132
I0
sg26
I0
sg18
I0
sg159
I0
sg130
I0
sg129
I0
sg453
I0
sg131
I0
sg22
I0
sg21
I0
sg158
I0
sg454
I0
sg143
I0
sg12
I0
sg193
I0
sg61
I0
sg60
I0
sg147
I0
sg146
I0
sg155
I0
sg29
I0
sg9
I0
sg65
I0
sg8
I0
sg62
I0
sg64
I0
sg161
I0
sg44
I0
sg30
I0
sg455
I0
sg456
I0
sg28
I0
sg52
I0
sg73
I0
sg72
I0
sg67
I0
sg77
I0
sg70
I0
sg58
I0
sg41
I0
sg54
I0
sg50
I0
sg151
I0
sg46
I0
sg49
I0
sg66
I0
sg53
I0
sg216
I0
sg16
I0
sg214
I0
sg69
I0
sg15
I0
sg75
I0
sg74
I0
sg157
I0
sg139
I0
sg138
I0
sg457
I0
sg51
I0
sg145
I0
sg56
I0
sg150
I0
sg149
I0
sg20
I0
sg458
I0
sg59
I0
sg40
I0
sg152
I0
sg57
I0
sg38
I0
sg31
I0
sg10
I0
sg141
I0
sg459
I0
sg460
I0
sg144
I0
sg160
I0
sg78
I0
sg76
I0
sg13
I0
sg33
I0
sg11
I0
sg47
I0
sg35
I0
sg43
I0
sg42
I0
sg136
I0
sg36
I0
sg39
I0
sg461
I0
sg19
I0
sg32
I0
sg462
I0
sg463
I0
sg23
I0
sg48
I0
ssg42
(dp641
g135
I0
sg156
I0
sg14
I0
sg63
I0
sg17
I0
sg134
I0
sg55
I0
sg148
I0
sg79
I0
sg137
I0
sg140
I0
sg71
I0
sg142
I0
sg154
I0
sg34
I0
sg153
I0
sg451
I0
sg27
I0
sg45
I0
sg37
I0
sg68
I0
sg24
I0
sg452
I0
sg25
I0
sg133
I0
sg132
I0
sg26
I0
sg18
I0
sg159
I0
sg130
I0
sg129
I0
sg453
I0
sg131
I0
sg22
I0
sg21
I0
sg158
I0
sg454
I0
sg143
I0
sg12
I0
sg193
I0
sg61
I0
sg60
I0
sg147
I0
sg146
I0
sg155
I0
sg29
I0
sg9
I0
sg65
I0
sg8
I0
sg62
I0
sg64
I0
sg161
I0
sg44
I0
sg30
I0
sg455
I0
sg456
I0
sg28
I0
sg52
I0
sg73
I0
sg72
I0
sg67
I0
sg77
I0
sg70
I0
sg58
I0
sg41
I0
sg54
I0
sg50
I0
sg151
I0
sg46
I0
sg49
I0
sg66
I0
sg53
I0
sg216
I0
sg16
I0
sg214
I0
sg69
I0
sg15
I0
sg75
I0
sg74
I0
sg157
I0
sg139
I0
sg138
I0
sg457
I0
sg51
I0
sg145
I0
sg56
I0
sg150
I0
sg149
I0
sg20
I0
sg458
I0
sg59
I0
sg40
I0
sg152
I0
sg57
I0
sg38
I0
sg31
I0
sg10
I0
sg141
I0
sg459
I0
sg460
I0
sg144
I0
sg160
I0
sg78
I0
sg76
I0
sg13
I0
sg33
I0
sg11
I0
sg47
I0
sg35
I0
sg43
I4
sg42
I0
sg136
I0
sg36
I0
sg39
I0
sg461
I0
sg19
I0
sg32
I0
sg462
I0
sg463
I0
sg23
I0
sg48
I0
ssg136
(dp642
g156
I0
sg166
I0
sg167
I0
sg168
I0
sg169
I0
sg148
I0
sg170
I0
sg137
I4
sg140
I0
sg171
I0
sg142
I0
sg154
I0
sg172
I0
sg173
I0
sg153
I0
sg174
I0
sg175
I0
sg176
I0
sg177
I0
sg178
I0
sg179
I0
sg180
I0
sg181
I0
sg182
I0
sg183
I0
sg184
I0
sg185
I0
sg133
I0
sg132
I0
sg186
I0
sg187
I0
sg159
I0
sg130
I0
sg129
I0
sg160
I0
sg188
I0
sg189
I0
sg190
I0
sg143
I0
sg146
I0
sg191
I0
sg192
I0
sg193
I0
sg194
I0
sg195
I0
sg147
I0
sg196
I0
sg155
I0
sg197
I0
sg198
I0
sg199
I0
sg161
I0
sg200
I0
sg201
I0
sg202
I0
sg203
I0
sg204
I0
sg205
I0
sg206
I0
sg207
I0
sg208
I0
sg135
I0
sg134
I0
sg209
I0
sg210
I0
sg151
I0
sg211
I0
sg212
I0
sg213
I0
sg214
I0
sg215
I0
sg216
I0
sg158
I0
sg157
I0
sg139
I0
sg138
I0
sg217
I0
sg218
I0
sg145
I0
sg219
I0
sg150
I0
sg220
I0
sg149
I0
sg221
I0
sg222
I0
sg223
I0
sg152
I0
sg224
I0
sg225
I0
sg141
I0
sg226
I0
sg227
I0
sg228
I0
sg144
I0
sg131
I0
sg229
I0
sg230
I0
sg231
I0
sg232
I0
sg233
I0
sg234
I0
sg235
I0
sg236
I0
sg136
I0
sg237
I0
sg238
I0
sg239
I0
sg240
I0
sg241
I0
sg242
I0
sg243
I0
sg244
I0
sg245
I0
sg246
I0
sg247
I0
ssg104
(dp643
g345
I0
sg102
I0
sg346
I0
sg347
I0
sg348
I0
sg349
I0
sg252
I0
sg350
I0
sg351
I0
sg352
I0
sg353
I0
sg92
I0
sg354
I0
sg355
I0
sg91
I0
sg115
I0
sg119
I0
sg85
I0
sg356
I0
sg116
I0
sg108
I0
sg259
I0
sg260
I0
sg261
I0
sg262
I0
sg120
I0
sg123
I0
sg90
I0
sg86
I0
sg357
I0
sg358
I0
sg359
I0
sg360
I0
sg100
I0
sg361
I0
sg83
I0
sg84
I0
sg117
I0
sg268
I0
sg362
I0
sg89
I0
sg363
I0
sg106
I0
sg105
I0
sg98
I0
sg269
I0
sg270
I0
sg364
I0
sg103
I0
sg365
I0
sg366
I0
sg367
I0
sg368
I0
sg122
I0
sg276
I0
sg88
I0
sg121
I0
sg87
I0
sg125
I0
sg124
I0
sg369
I0
sg370
I0
sg371
I0
sg372
I0
sg373
I0
sg374
I0
sg375
I0
sg312
I0
sg376
I0
sg377
I0
sg114
I0
sg113
I0
sg289
I0
sg97
I0
sg378
I0
sg291
I0
sg99
I0
sg379
I0
sg380
I0
sg381
I0
sg382
I0
sg94
I0
sg383
I0
sg384
I0
sg101
I0
sg385
I0
sg386
I0
sg297
I0
sg387
I0
sg388
I0
sg389
I0
sg118
I0
sg390
I0
sg391
I0
sg95
I0
sg93
I0
sg80
I0
sg392
I0
sg393
I0
sg394
I0
sg395
I0
sg305
I0
sg107
I0
sg306
I0
sg307
I0
sg111
I0
sg396
I0
sg104
I0
sg96
I0
sg310
I4
sg81
I0
sg109
I0
sg311
I0
sg397
I0
sg313
I0
sg314
I0
sg82
I0
sg112
I0
sg110
I0
ssg96
(dp644
g249
I0
sg102
I0
sg250
I0
sg251
I0
sg252
I0
sg253
I0
sg254
I0
sg255
I0
sg92
I0
sg256
I0
sg91
I0
sg115
I0
sg119
I0
sg85
I0
sg257
I0
sg258
I0
sg116
I0
sg108
I0
sg259
I0
sg260
I0
sg261
I0
sg262
I0
sg120
I0
sg123
I0
sg90
I0
sg86
I0
sg263
I0
sg128
I0
sg264
I0
sg265
I0
sg266
I0
sg83
I0
sg84
I0
sg117
I0
sg267
I0
sg268
I0
sg89
I0
sg106
I0
sg105
I0
sg98
I0
sg269
I0
sg270
I0
sg103
I0
sg271
I0
sg272
I0
sg273
I0
sg274
I0
sg122
I0
sg275
I0
sg276
I0
sg88
I0
sg121
I0
sg87
I0
sg125
I0
sg124
I0
sg277
I0
sg111
I0
sg112
I0
sg278
I0
sg279
I0
sg280
I0
sg281
I0
sg282
I0
sg283
I0
sg284
I0
sg285
I0
sg286
I0
sg287
I0
sg288
I0
sg114
I0
sg113
I0
sg289
I0
sg97
I4
sg290
I0
sg291
I0
sg99
I0
sg292
I0
sg293
I0
sg294
I0
sg94
I0
sg127
I0
sg295
I0
sg296
I0
sg101
I0
sg297
I0
sg298
I0
sg299
I0
sg300
I0
sg118
I0
sg100
I0
sg301
I0
sg95
I0
sg93
I0
sg80
I0
sg302
I0
sg303
I0
sg126
I0
sg304
I0
sg305
I0
sg107
I0
sg306
I0
sg307
I0
sg308
I0
sg309
I0
sg104
I0
sg96
I0
sg310
I0
sg81
I0
sg109
I0
sg311
I0
sg312
I0
sg313
I0
sg314
I0
sg82
I0
sg315
I0
sg110
I0
sg316
I0
ssg36
(dp645
g135
I0
sg102
I0
sg156
I0
sg14
I0
sg106
I0
sg63
I0
sg118
I0
sg17
I0
sg134
I0
sg55
I0
sg148
I0
sg79
I0
sg137
I0
sg121
I0
sg140
I0
sg71
I0
sg92
I0
sg142
I0
sg154
I0
sg91
I0
sg34
I0
sg153
I0
sg119
I0
sg85
I0
sg27
I0
sg108
I0
sg116
I0
sg45
I0
sg37
I0
sg68
I0
sg24
I0
sg120
I0
sg123
I0
sg90
I0
sg86
I0
sg25
I0
sg128
I0
sg133
I0
sg132
I0
sg26
I0
sg18
I0
sg160
I0
sg159
I0
sg130
I0
sg83
I0
sg84
I0
sg117
I0
sg22
I0
sg21
I0
sg158
I0
sg89
I0
sg143
I0
sg146
I0
sg155
I0
sg12
I0
sg105
I0
sg98
I0
sg61
I0
sg60
I0
sg147
I0
sg103
I0
sg114
I0
sg29
I0
sg9
I0
sg65
I0
sg8
I0
sg62
I0
sg64
I0
sg161
I0
sg122
I0
sg44
I0
sg30
I0
sg88
I0
sg115
I0
sg87
I0
sg125
I0
sg124
I0
sg28
I0
sg52
I0
sg73
I0
sg72
I0
sg67
I0
sg77
I0
sg70
I0
sg58
I0
sg41
I0
sg54
I0
sg50
I0
sg151
I0
sg46
I0
sg49
I0
sg66
I0
sg53
I0
sg99
I8
sg113
I0
sg16
I0
sg97
I0
sg69
I0
sg15
I0
sg75
I0
sg74
I0
sg157
I0
sg139
I0
sg138
I0
sg94
I0
sg127
I0
sg51
I0
sg145
I0
sg56
I0
sg101
I0
sg150
I0
sg149
I0
sg111
I0
sg20
I0
sg129
I0
sg59
I0
sg40
I0
sg152
I0
sg57
I0
sg38
I0
sg100
I0
sg10
I0
sg141
I0
sg95
I0
sg93
I0
sg80
I0
sg144
I0
sg131
I0
sg126
I0
sg78
I0
sg76
I0
sg13
I0
sg107
I0
sg33
I0
sg11
I0
sg47
I0
sg35
I0
sg43
I0
sg42
I0
sg136
I0
sg104
I0
sg96
I0
sg36
I8
sg39
I0
sg81
I0
sg109
I0
sg19
I0
sg32
I0
sg31
I0
sg82
I0
sg23
I0
sg112
I0
sg110
I0
sg48
I0
ssg39
(dp646
g135
I0
sg156
I0
sg14
I0
sg63
I0
sg17
I0
sg134
I0
sg55
I0
sg148
I0
sg79
I0
sg137
I0
sg140
I0
sg71
I0
sg142
I0
sg154
I0
sg34
I0
sg153
I0
sg451
I0
sg27
I0
sg45
I0
sg37
I0
sg68
I0
sg24
I0
sg452
I0
sg25
I0
sg133
I0
sg132
I0
sg26
I0
sg18
I0
sg159
I0
sg130
I0
sg129
I0
sg453
I0
sg131
I0
sg22
I0
sg21
I0
sg158
I0
sg454
I0
sg143
I0
sg12
I0
sg193
I0
sg61
I0
sg60
I0
sg147
I0
sg146
I0
sg155
I0
sg29
I0
sg9
I0
sg65
I0
sg8
I0
sg62
I0
sg64
I0
sg161
I0
sg44
I0
sg30
I0
sg455
I0
sg456
I0
sg28
I0
sg52
I0
sg73
I0
sg72
I0
sg67
I0
sg77
I0
sg70
I0
sg58
I0
sg41
I0
sg54
I0
sg50
I0
sg151
I0
sg46
I0
sg49
I0
sg66
I0
sg53
I0
sg216
I0
sg16
I0
sg214
I0
sg69
I0
sg15
I0
sg75
I0
sg74
I0
sg157
I0
sg139
I0
sg138
I0
sg457
I0
sg51
I0
sg145
I0
sg56
I0
sg150
I0
sg149
I0
sg20
I0
sg458
I0
sg59
I0
sg40
I0
sg152
I0
sg57
I0
sg38
I0
sg31
I0
sg10
I0
sg141
I0
sg459
I0
sg460
I0
sg144
I0
sg160
I0
sg78
I0
sg76
I0
sg13
I0
sg33
I0
sg11
I0
sg47
I0
sg35
I0
sg43
I0
sg42
I0
sg136
I0
sg36
I4
sg39
I0
sg461
I0
sg19
I0
sg32
I0
sg462
I0
sg463
I0
sg23
I0
sg48
I0
ssg81
(dp647
g102
I0
sg250
I0
sg496
I0
sg251
I0
sg252
I0
sg254
I0
sg92
I0
sg91
I0
sg497
I0
sg115
I0
sg119
I0
sg85
I0
sg257
I0
sg258
I0
sg116
I0
sg108
I0
sg259
I0
sg260
I0
sg261
I0
sg262
I0
sg120
I0
sg123
I0
sg90
I0
sg86
I0
sg263
I0
sg128
I0
sg498
I0
sg83
I0
sg84
I0
sg117
I0
sg267
I0
sg268
I0
sg89
I0
sg106
I0
sg105
I0
sg98
I0
sg269
I0
sg270
I0
sg103
I0
sg499
I0
sg271
I0
sg272
I0
sg273
I0
sg274
I0
sg122
I0
sg275
I0
sg276
I0
sg88
I0
sg121
I0
sg87
I0
sg125
I0
sg124
I0
sg277
I0
sg111
I0
sg112
I0
sg278
I0
sg279
I0
sg280
I0
sg282
I0
sg283
I0
sg284
I0
sg285
I0
sg286
I0
sg287
I0
sg288
I0
sg114
I0
sg113
I0
sg289
I0
sg97
I0
sg290
I0
sg291
I0
sg99
I0
sg292
I0
sg94
I0
sg127
I0
sg295
I0
sg296
I0
sg101
I0
sg297
I0
sg299
I0
sg500
I0
sg300
I0
sg118
I0
sg100
I0
sg501
I0
sg95
I0
sg93
I0
sg80
I0
sg126
I0
sg304
I0
sg305
I0
sg107
I0
sg502
I0
sg306
I0
sg307
I0
sg503
I0
sg504
I0
sg505
I0
sg104
I0
sg96
I0
sg310
I0
sg506
I0
sg81
I0
sg109
I0
sg311
I0
sg312
I0
sg313
I0
sg314
I0
sg82
I0
sg315
I0
sg110
I0
sg316
I0
ssg109
(dp648
g345
I0
sg102
I0
sg346
I0
sg347
I0
sg348
I0
sg349
I0
sg252
I0
sg350
I0
sg351
I0
sg352
I0
sg353
I0
sg92
I0
sg354
I0
sg355
I0
sg91
I0
sg115
I0
sg119
I0
sg85
I0
sg356
I0
sg116
I0
sg108
I0
sg259
I0
sg260
I0
sg261
I0
sg262
I0
sg120
I0
sg123
I0
sg90
I0
sg86
I0
sg357
I0
sg358
I0
sg359
I0
sg360
I0
sg100
I0
sg361
I0
sg83
I0
sg84
I0
sg117
I0
sg268
I0
sg362
I0
sg89
I0
sg363
I0
sg106
I0
sg105
I0
sg98
I0
sg269
I0
sg270
I0
sg364
I0
sg103
I0
sg365
I0
sg366
I0
sg367
I0
sg368
I0
sg122
I0
sg276
I0
sg88
I0
sg121
I0
sg87
I0
sg125
I0
sg124
I0
sg369
I0
sg370
I0
sg371
I0
sg372
I0
sg373
I0
sg374
I0
sg375
I0
sg312
I0
sg376
I0
sg377
I0
sg114
I0
sg113
I0
sg289
I0
sg97
I0
sg378
I0
sg291
I0
sg99
I0
sg379
I0
sg380
I0
sg381
I0
sg382
I0
sg94
I0
sg383
I0
sg384
I0
sg101
I0
sg385
I0
sg386
I0
sg297
I0
sg387
I0
sg388
I0
sg389
I0
sg118
I0
sg390
I0
sg391
I0
sg95
I0
sg93
I0
sg80
I0
sg392
I0
sg393
I0
sg394
I0
sg395
I0
sg305
I0
sg107
I0
sg306
I0
sg307
I0
sg111
I0
sg396
I0
sg104
I0
sg96
I0
sg310
I0
sg81
I0
sg109
I4
sg311
I0
sg397
I0
sg313
I0
sg314
I0
sg82
I0
sg112
I0
sg110
I0
ssg19
(dp649
g135
I0
sg102
I0
sg156
I0
sg14
I0
sg106
I0
sg63
I0
sg118
I0
sg17
I0
sg134
I0
sg55
I0
sg148
I0
sg79
I0
sg137
I0
sg121
I0
sg140
I0
sg71
I0
sg92
I0
sg142
I0
sg154
I0
sg91
I0
sg34
I0
sg153
I0
sg119
I0
sg85
I0
sg27
I0
sg108
I0
sg116
I0
sg45
I0
sg37
I0
sg68
I0
sg24
I0
sg120
I0
sg123
I0
sg90
I0
sg86
I0
sg25
I0
sg128
I0
sg133
I0
sg132
I0
sg26
I0
sg18
I0
sg160
I0
sg159
I0
sg130
I0
sg83
I0
sg84
I0
sg117
I0
sg22
I0
sg21
I0
sg158
I0
sg89
I0
sg143
I0
sg146
I0
sg155
I0
sg12
I0
sg105
I0
sg98
I0
sg61
I0
sg60
I0
sg147
I0
sg103
I0
sg114
I0
sg29
I0
sg9
I0
sg65
I0
sg8
I0
sg62
I0
sg64
I0
sg161
I0
sg122
I0
sg44
I0
sg30
I0
sg88
I0
sg115
I0
sg87
I0
sg125
I0
sg124
I0
sg28
I0
sg52
I0
sg73
I0
sg72
I0
sg67
I0
sg77
I0
sg70
I0
sg58
I4
sg41
I0
sg54
I0
sg50
I0
sg151
I0
sg46
I0
sg49
I0
sg66
I0
sg53
I0
sg99
I0
sg113
I0
sg16
I0
sg97
I0
sg69
I0
sg15
I0
sg75
I0
sg74
I0
sg157
I0
sg139
I0
sg138
I0
sg94
I0
sg127
I6
sg51
I0
sg145
I0
sg56
I0
sg101
I0
sg150
I0
sg149
I0
sg111
I0
sg20
I12
sg129
I0
sg59
I0
sg40
I0
sg152
I0
sg57
I0
sg38
I0
sg100
I0
sg10
I0
sg141
I0
sg95
I0
sg93
I0
sg80
I0
sg144
I0
sg131
I0
sg126
I0
sg78
I0
sg76
I0
sg13
I0
sg107
I0
sg33
I0
sg11
I0
sg47
I0
sg35
I0
sg43
I0
sg42
I0
sg136
I0
sg104
I0
sg96
I0
sg36
I0
sg39
I0
sg81
I0
sg109
I0
sg19
I2
sg32
I0
sg31
I0
sg82
I0
sg23
I0
sg112
I0
sg110
I0
sg48
I0
ssg32
(dp650
g135
I0
sg102
I0
sg156
I0
sg14
I0
sg106
I0
sg63
I0
sg118
I0
sg17
I0
sg134
I0
sg55
I0
sg148
I0
sg79
I0
sg137
I0
sg121
I0
sg140
I0
sg71
I0
sg92
I0
sg142
I0
sg154
I0
sg91
I0
sg34
I0
sg153
I0
sg119
I0
sg85
I0
sg27
I0
sg108
I0
sg116
I0
sg45
I0
sg37
I0
sg68
I0
sg24
I0
sg120
I0
sg123
I0
sg90
I0
sg86
I0
sg25
I0
sg128
I0
sg133
I0
sg132
I0
sg26
I0
sg18
I0
sg160
I0
sg159
I0
sg130
I0
sg83
I0
sg84
I0
sg117
I0
sg22
I0
sg21
I0
sg158
I0
sg89
I0
sg143
I0
sg146
I0
sg155
I0
sg12
I0
sg105
I0
sg98
I0
sg61
I0
sg60
I0
sg147
I0
sg103
I0
sg114
I0
sg29
I0
sg9
I0
sg65
I0
sg8
I0
sg62
I0
sg64
I0
sg161
I0
sg122
I0
sg44
I0
sg30
I0
sg88
I0
sg115
I0
sg87
I0
sg125
I0
sg124
I0
sg28
I0
sg52
I0
sg73
I0
sg72
I0
sg67
I0
sg77
I0
sg70
I0
sg58
I0
sg41
I0
sg54
I0
sg50
I0
sg151
I0
sg46
I0
sg49
I0
sg66
I0
sg53
I0
sg99
I0
sg113
I0
sg16
I0
sg97
I0
sg69
I0
sg15
I0
sg75
I0
sg74
I0
sg157
I0
sg139
I0
sg138
I0
sg94
I0
sg127
I0
sg51
I0
sg145
I0
sg56
I0
sg101
I0
sg150
I0
sg149
I0
sg111
I0
sg20
I0
sg129
I0
sg59
I0
sg40
I0
sg152
I0
sg57
I0
sg38
I0
sg100
I0
sg10
I0
sg141
I0
sg95
I0
sg93
I0
sg80
I0
sg144
I0
sg131
I0
sg126
I0
sg78
I0
sg76
I0
sg13
I0
sg107
I0
sg33
I0
sg11
I0
sg47
I0
sg35
I0
sg43
I0
sg42
I0
sg136
I0
sg104
I0
sg96
I0
sg36
I0
sg39
I0
sg81
I0
sg109
I0
sg19
I0
sg32
I0
sg31
I0
sg82
I0
sg23
I0
sg112
I0
sg110
I0
sg48
I0
ssg31
(dp651
g135
I0
sg102
I0
sg156
I0
sg14
I0
sg106
I0
sg63
I0
sg118
I0
sg17
I0
sg134
I0
sg55
I0
sg148
I0
sg79
I0
sg137
I0
sg121
I0
sg140
I0
sg71
I0
sg92
I0
sg142
I0
sg154
I0
sg91
I0
sg34
I0
sg153
I0
sg119
I0
sg85
I0
sg27
I0
sg108
I0
sg116
I0
sg45
I0
sg37
I0
sg68
I0
sg24
I0
sg120
I0
sg123
I0
sg90
I0
sg86
I0
sg25
I0
sg128
I0
sg133
I0
sg132
I0
sg26
I0
sg18
I0
sg160
I0
sg159
I0
sg130
I0
sg83
I0
sg84
I0
sg117
I0
sg22
I0
sg21
I0
sg158
I0
sg89
I0
sg143
I0
sg146
I0
sg155
I0
sg12
I0
sg105
I0
sg98
I0
sg61
I0
sg60
I0
sg147
I0
sg103
I0
sg114
I0
sg29
I0
sg9
I0
sg65
I0
sg8
I0
sg62
I0
sg64
I0
sg161
I0
sg122
I0
sg44
I0
sg30
I0
sg88
I0
sg115
I0
sg87
I0
sg125
I0
sg124
I0
sg28
I0
sg52
I0
sg73
I0
sg72
I0
sg67
I0
sg77
I0
sg70
I0
sg58
I0
sg41
I0
sg54
I0
sg50
I0
sg151
I0
sg46
I0
sg49
I0
sg66
I0
sg53
I0
sg99
I0
sg113
I0
sg16
I0
sg97
I0
sg69
I0
sg15
I0
sg75
I0
sg74
I0
sg157
I0
sg139
I0
sg138
I0
sg94
I0
sg127
I0
sg51
I0
sg145
I0
sg56
I0
sg101
I0
sg150
I0
sg149
I0
sg111
I0
sg20
I0
sg129
I0
sg59
I0
sg40
I0
sg152
I0
sg57
I0
sg38
I0
sg100
I0
sg10
I0
sg141
I0
sg95
I0
sg93
I0
sg80
I0
sg144
I0
sg131
I0
sg126
I0
sg78
I0
sg76
I0
sg13
I0
sg107
I0
sg33
I0
sg11
I0
sg47
I0
sg35
I0
sg43
I0
sg42
I0
sg136
I0
sg104
I0
sg96
I0
sg36
I0
sg39
I0
sg81
I0
sg109
I0
sg19
I0
sg32
I8
sg31
I0
sg82
I0
sg23
I0
sg112
I0
sg110
I0
sg48
I0
ssg82
(dp652
g102
I0
sg250
I0
sg496
I0
sg251
I0
sg252
I0
sg254
I0
sg92
I0
sg91
I0
sg497
I0
sg115
I0
sg119
I0
sg85
I0
sg257
I0
sg258
I0
sg116
I0
sg108
I0
sg259
I0
sg260
I0
sg261
I0
sg262
I0
sg120
I0
sg123
I0
sg90
I0
sg86
I0
sg263
I0
sg128
I0
sg498
I0
sg83
I0
sg84
I0
sg117
I0
sg267
I0
sg268
I0
sg89
I0
sg106
I0
sg105
I0
sg98
I0
sg269
I0
sg270
I0
sg103
I0
sg499
I0
sg271
I0
sg272
I0
sg273
I0
sg274
I0
sg122
I0
sg275
I0
sg276
I0
sg88
I0
sg121
I0
sg87
I0
sg125
I0
sg124
I0
sg277
I0
sg111
I0
sg112
I0
sg278
I0
sg279
I0
sg280
I0
sg282
I0
sg283
I0
sg284
I0
sg285
I0
sg286
I0
sg287
I0
sg288
I0
sg114
I0
sg113
I0
sg289
I0
sg97
I0
sg290
I0
sg291
I0
sg99
I0
sg292
I0
sg94
I0
sg127
I0
sg295
I0
sg296
I0
sg101
I0
sg297
I0
sg299
I0
sg500
I0
sg300
I0
sg118
I0
sg100
I0
sg501
I0
sg95
I0
sg93
I0
sg80
I0
sg126
I0
sg304
I0
sg305
I0
sg107
I0
sg502
I0
sg306
I0
sg307
I0
sg503
I0
sg504
I0
sg505
I0
sg104
I0
sg96
I0
sg310
I0
sg506
I0
sg81
I0
sg109
I0
sg311
I0
sg312
I0
sg313
I0
sg314
I0
sg82
I4
sg315
I0
sg110
I0
sg316
I0
ssg23
(dp653
g135
I0
sg156
I0
sg14
I0
sg63
I0
sg333
I0
sg17
I0
sg55
I0
sg148
I0
sg79
I0
sg137
I0
sg140
I0
sg71
I0
sg142
I0
sg154
I0
sg34
I0
sg153
I0
sg334
I0
sg27
I0
sg335
I0
sg45
I0
sg37
I0
sg68
I0
sg24
I0
sg336
I0
sg25
I0
sg133
I0
sg132
I0
sg26
I0
sg18
I0
sg159
I0
sg130
I0
sg129
I0
sg131
I0
sg22
I0
sg21
I0
sg158
I0
sg190
I0
sg143
I0
sg12
I0
sg193
I0
sg61
I0
sg60
I0
sg147
I0
sg146
I0
sg155
I0
sg29
I0
sg9
I0
sg65
I0
sg8
I0
sg62
I0
sg64
I0
sg161
I0
sg337
I0
sg44
I0
sg30
I0
sg13
I0
sg338
I0
sg339
I0
sg340
I0
sg28
I0
sg52
I0
sg73
I0
sg72
I0
sg67
I0
sg77
I0
sg70
I0
sg134
I0
sg41
I0
sg54
I0
sg50
I0
sg151
I0
sg46
I0
sg49
I0
sg66
I0
sg53
I0
sg216
I0
sg16
I0
sg214
I0
sg69
I0
sg15
I0
sg75
I0
sg74
I0
sg157
I0
sg139
I0
sg138
I0
sg51
I0
sg145
I0
sg56
I0
sg150
I0
sg341
I0
sg149
I0
sg20
I0
sg59
I0
sg40
I0
sg152
I0
sg57
I0
sg38
I0
sg10
I0
sg141
I0
sg342
I0
sg144
I0
sg160
I0
sg78
I0
sg76
I0
sg33
I0
sg11
I0
sg47
I0
sg35
I0
sg43
I0
sg42
I0
sg136
I0
sg343
I0
sg36
I0
sg39
I0
sg19
I0
sg32
I0
sg31
I0
sg23
I4
sg48
I0
sg58
I0
ssg112
(dp654
g345
I0
sg102
I0
sg346
I0
sg347
I0
sg348
I0
sg349
I0
sg252
I0
sg350
I0
sg351
I0
sg352
I0
sg353
I0
sg92
I0
sg354
I0
sg355
I0
sg91
I0
sg115
I0
sg119
I0
sg85
I0
sg356
I0
sg116
I0
sg108
I0
sg259
I0
sg260
I0
sg261
I0
sg262
I0
sg120
I0
sg123
I0
sg90
I0
sg86
I0
sg357
I0
sg358
I0
sg359
I0
sg360
I0
sg100
I0
sg361
I0
sg83
I0
sg84
I0
sg117
I0
sg268
I0
sg362
I0
sg89
I0
sg363
I0
sg106
I0
sg105
I0
sg98
I0
sg269
I0
sg270
I0
sg364
I0
sg103
I0
sg365
I0
sg366
I0
sg367
I0
sg368
I0
sg122
I0
sg276
I0
sg88
I0
sg121
I0
sg87
I0
sg125
I0
sg124
I0
sg369
I0
sg370
I0
sg371
I0
sg372
I0
sg373
I0
sg374
I0
sg375
I0
sg312
I0
sg376
I0
sg377
I0
sg114
I0
sg113
I0
sg289
I0
sg97
I0
sg378
I0
sg291
I0
sg99
I0
sg379
I0
sg380
I0
sg381
I0
sg382
I0
sg94
I0
sg383
I0
sg384
I0
sg101
I0
sg385
I0
sg386
I0
sg297
I0
sg387
I0
sg388
I0
sg389
I0
sg118
I0
sg390
I0
sg391
I0
sg95
I0
sg93
I0
sg80
I0
sg392
I0
sg393
I0
sg394
I0
sg395
I0
sg305
I0
sg107
I0
sg306
I0
sg307
I0
sg111
I0
sg396
I0
sg104
I0
sg96
I0
sg310
I0
sg81
I0
sg109
I0
sg311
I0
sg397
I0
sg313
I0
sg314
I0
sg82
I0
sg112
I0
sg110
I0
ssg110
(dp655
g345
I0
sg102
I0
sg346
I0
sg347
I0
sg348
I0
sg349
I0
sg252
I0
sg350
I0
sg351
I0
sg352
I0
sg353
I0
sg92
I0
sg354
I0
sg355
I0
sg91
I0
sg115
I0
sg119
I0
sg85
I0
sg356
I0
sg116
I0
sg108
I0
sg259
I0
sg260
I0
sg261
I0
sg262
I0
sg120
I0
sg123
I0
sg90
I0
sg86
I0
sg357
I0
sg358
I0
sg359
I0
sg360
I0
sg100
I0
sg361
I0
sg83
I0
sg84
I0
sg117
I0
sg268
I0
sg362
I0
sg89
I0
sg363
I0
sg106
I0
sg105
I0
sg98
I0
sg269
I0
sg270
I0
sg364
I0
sg103
I0
sg365
I0
sg366
I0
sg367
I0
sg368
I0
sg122
I0
sg276
I0
sg88
I0
sg121
I0
sg87
I0
sg125
I0
sg124
I0
sg369
I0
sg370
I0
sg371
I0
sg372
I0
sg373
I0
sg374
I0
sg375
I0
sg312
I0
sg376
I0
sg377
I0
sg114
I0
sg113
I0
sg289
I0
sg97
I0
sg378
I0
sg291
I0
sg99
I0
sg379
I0
sg380
I0
sg381
I0
sg382
I0
sg94
I0
sg383
I0
sg384
I0
sg101
I0
sg385
I0
sg386
I0
sg297
I0
sg387
I0
sg388
I0
sg389
I0
sg118
I0
sg390
I0
sg391
I0
sg95
I0
sg93
I0
sg80
I0
sg392
I0
sg393
I0
sg394
I0
sg395
I0
sg305
I0
sg107
I0
sg306
I0
sg110
I4
sg111
I0
sg396
I0
sg104
I0
sg96
I0
sg310
I0
sg81
I0
sg109
I0
sg311
I0
sg397
I0
sg313
I0
sg314
I0
sg82
I0
sg112
I0
sg307
I0
ssg48
(dp656
g466
I0
sg399
I0
sg14
I0
sg63
I0
sg17
I0
sg55
I0
sg467
I0
sg79
I0
sg71
I0
sg401
I0
sg468
I0
sg34
I0
sg469
I0
sg403
I0
sg27
I0
sg45
I0
sg37
I0
sg68
I0
sg24
I0
sg405
I0
sg406
I0
sg25
I0
sg26
I0
sg18
I0
sg470
I0
sg407
I0
sg408
I0
sg409
I0
sg22
I0
sg21
I0
sg471
I0
sg410
I0
sg12
I0
sg412
I0
sg61
I0
sg60
I0
sg472
I0
sg473
I0
sg474
I0
sg29
I0
sg9
I0
sg65
I0
sg64
I0
sg62
I0
sg8
I0
sg475
I0
sg44
I0
sg30
I0
sg415
I0
sg416
I0
sg28
I0
sg52
I0
sg73
I0
sg72
I0
sg67
I0
sg77
I0
sg70
I0
sg58
I0
sg41
I0
sg54
I0
sg50
I0
sg476
I0
sg46
I0
sg49
I4
sg66
I0
sg53
I0
sg417
I0
sg16
I0
sg419
I0
sg69
I0
sg15
I0
sg75
I0
sg74
I0
sg477
I0
sg420
I0
sg127
I0
sg51
I0
sg478
I0
sg56
I0
sg421
I0
sg479
I0
sg480
I0
sg20
I0
sg59
I0
sg40
I0
sg481
I0
sg57
I0
sg38
I0
sg31
I0
sg10
I0
sg423
I0
sg424
I0
sg425
I0
sg126
I0
sg78
I0
sg76
I0
sg13
I0
sg33
I0
sg11
I0
sg47
I0
sg35
I0
sg43
I0
sg42
I0
sg428
I0
sg36
I0
sg39
I0
sg429
I0
sg19
I0
sg32
I0
sg128
I0
sg431
I0
sg23
I0
sg48
I0
sssb.