ccopy_reg
_reconstructor
p0
(cutils.eval
ConfusionMatrix
p1
c__builtin__
object
p2
Ntp3
Rp4
(dp5
S'labels'
p6
(lp7
S'ActionCause'
p8
aS'Goal'
p9
aS'ObjectToBeStirred'
p10
asS'instanceCount'
p11
I8
sS'matrix'
p12
(dp13
g8
(dp14
S'ActionCause'
p15
I3
ssg9
(dp16
g10
I2
ssg10
(dp17
g10
I3
sssb.