ccopy_reg
_reconstructor
p0
(cutils.eval
ConfusionMatrix
p1
c__builtin__
object
p2
Ntp3
Rp4
(dp5
S'labels'
p6
(lp7
S'ObjectToBeStirred'
p8
aS'ActionCause'
p9
aS'ObjectShouldBeUsedForStirring'
p10
aS'Goal'
p11
asS'instanceCount'
p12
I8
sS'matrix'
p13
(dp14
g9
(dp15
S'ActionCause'
p16
I3
ssg10
(dp17
S'ObjectShouldBeUsedForStirring'
p18
I1
ssg11
(dp19
S'ObjectToBeStirred'
p20
I1
ssg8
(dp21
g20
I3
sssb.