ccopy_reg
_reconstructor
p0
(cutils.eval
ConfusionMatrix
p1
c__builtin__
object
p2
Ntp3
Rp4
(dp5
S'labels'
p6
(lp7
S'cheese.n.01'
p8
aS'slice.v.03'
p9
aS'potato.n.01'
p10
aS'piece.n.08'
p11
aS'tomato.n.01'
p12
aS'onion.n.03'
p13
aS'mustard.n.02'
p14
aS'mustard.n.01'
p15
aS'knife.n.01'
p16
aS'tongue.n.03'
p17
aS'green_onion.n.01'
p18
aS'meat.n.01'
p19
aS'cleaver.n.01'
p20
aS'chop.n.05'
p21
aS'mushroom.n.05'
p22
aS'olive.n.01'
p23
aS'olive.n.04'
p24
aS'egg.n.02'
p25
aS'vegetable.n.01'
p26
aS'lemon.n.01'
p27
aS'bread.n.01'
p28
aS'bacon.n.01'
p29
aS'banana.n.02'
p30
aS'pizza.n.01'
p31
aS'zucchini.n.01'
p32
aS'zucchini.n.02'
p33
aS'flesh.n.01'
p34
aS'pulp.n.02'
p35
aS'knife.n.02'
p36
aS'bacon.n.02'
p37
aS'tomato.n.02'
p38
aS'slice.v.02'
p39
aS'cabbage.n.01'
p40
aS'cabbage.n.03'
p41
aS'orange.n.01'
p42
aS'kernel.n.01'
p43
aS'helicopter.n.01'
p44
aS'mushroom.n.03'
p45
aS'lemon.n.05'
p46
aS'human_body.n.01'
p47
aS'olive.n.03'
p48
aS'slice.n.06'
p49
aS'onion.n.02'
p50
aS'lemon.n.03'
p51
aS'tall_mallow.n.01'
p52
aS'vegetable.n.02'
p53
aS'banana.n.01'
p54
aS'slice.n.05'
p55
aS'catsup.n.01'
p56
aS'slice.n.01'
p57
aS'chopper.n.02'
p58
aS'testis.n.01'
p59
aS'mustard.n.03'
p60
asS'instanceCount'
p61
I470
sS'matrix'
p62
(dp63
g22
(dp64
g22
I7
sg8
I0
sg45
I2
sg43
I0
sg28
I0
sg42
I0
sg33
I0
sg32
I0
sg40
I0
sg18
I0
sg55
I0
sg11
I0
sg54
I0
sg15
I0
sg14
I0
sg60
I0
sg41
I0
sg25
I0
sg12
I0
sg36
I0
sg59
I0
sg37
I0
sg29
I0
sg19
I0
sg10
I0
sg20
I0
sg39
I0
sg9
I0
sg23
I0
sg58
I0
sg16
I0
sg17
I0
sg30
I0
sg24
I0
sg47
I0
sg56
I0
sg21
I0
sg52
I0
sg53
I0
sg26
I0
sg34
I0
sg44
I0
sg57
I0
sS'slice.n.06'
p65
I0
sg31
I0
sg46
I0
sg51
I0
sg35
I0
sg27
I0
sg38
I0
sg13
I0
sS'onion.n.02'
p66
I0
ssg8
(dp67
g22
I0
sg8
I8
sg45
I0
sg43
I0
sg28
I0
sg42
I0
sg33
I0
sg32
I0
sg40
I0
sg18
I0
sg55
I0
sg11
I0
sg54
I0
sg15
I0
sg14
I0
sg60
I0
sg41
I0
sg25
I0
sg12
I0
sg36
I0
sg59
I0
sg37
I0
sg29
I0
sg19
I0
sg10
I0
sg20
I0
sg39
I0
sg9
I0
sg23
I0
sg58
I0
sg16
I0
sg27
I0
sg30
I0
sg24
I0
sg47
I0
sg56
I0
sg21
I0
sg52
I1
sg53
I0
sg26
I0
sg48
I0
sg34
I0
sg44
I0
sg57
I0
sg49
I0
sg31
I0
sg46
I0
sg51
I0
sg35
I0
sg17
I0
sg38
I0
sg13
I0
sg50
I0
ssg45
(dp68
S'mushroom.n.05'
p69
I0
sS'cheese.n.01'
p70
I0
sg45
I0
sg43
I0
sS'bread.n.01'
p71
I0
sg42
I0
sS'zucchini.n.01'
p72
I0
sg40
I0
sS'green_onion.n.01'
p73
I0
sS'mustard.n.02'
p74
I0
sg41
I0
sg38
I0
sS'tomato.n.01'
p75
I0
sS'olive.n.04'
p76
I0
sg37
I0
sS'bacon.n.01'
p77
I0
sS'meat.n.01'
p78
I0
sS'potato.n.01'
p79
I0
sS'cleaver.n.01'
p80
I0
sg39
I0
sS'slice.v.03'
p81
I0
sS'olive.n.01'
p82
I0
sS'knife.n.01'
p83
I0
sg54
I0
sS'banana.n.02'
p84
I0
sg36
I0
sS'human_body.n.01'
p85
I0
sS'piece.n.08'
p86
I0
sg52
I0
sg53
I0
sS'vegetable.n.01'
p87
I0
sS'flesh.n.01'
p88
I0
sg44
I0
sS'pizza.n.01'
p89
I0
sg51
I0
sS'onion.n.03'
p90
I0
sS'lemon.n.01'
p91
I0
sS'egg.n.02'
p92
I0
sS'pulp.n.02'
p93
I0
sg66
I0
ssg43
(dp94
g69
I0
sg43
I0
sg45
I0
sg70
I0
sg71
I0
sg42
I0
sg72
I0
sg40
I0
sg73
I0
sg74
I0
sg84
I0
sg38
I0
sg75
I0
sg76
I0
sg37
I0
sg77
I0
sg78
I0
sg79
I0
sg80
I0
sg39
I0
sg81
I0
sg82
I0
sg83
I0
sg54
I0
sg41
I0
sg36
I0
sg85
I0
sg86
I0
sg52
I0
sg53
I0
sg87
I0
sg88
I0
sg44
I0
sg89
I0
sg51
I0
sg90
I0
sg91
I0
sg92
I0
sg93
I0
sg66
I0
ssg28
(dp95
g22
I0
sg8
I0
sg45
I0
sg43
I0
sg28
I9
sg42
I0
sg33
I0
sg32
I0
sg40
I0
sg18
I0
sg55
I0
sg11
I0
sg54
I0
sg15
I0
sg14
I0
sg60
I0
sg41
I0
sg25
I0
sg12
I0
sg36
I0
sg59
I0
sg37
I0
sg29
I0
sg19
I0
sg10
I0
sg20
I0
sg39
I0
sg9
I0
sg23
I0
sg58
I0
sg16
I0
sg27
I0
sg30
I0
sg24
I0
sg47
I0
sg56
I0
sg21
I0
sg52
I0
sg53
I0
sg26
I0
sg48
I0
sg34
I0
sg44
I0
sg57
I0
sg49
I0
sg31
I0
sg46
I0
sg51
I0
sg35
I0
sg17
I0
sg38
I0
sg13
I0
sg50
I0
ssg42
(dp96
g69
I0
sg70
I0
sg45
I0
sg43
I0
sg71
I0
sg42
I9
sS'zucchini.n.02'
p97
I0
sg72
I0
sg40
I0
sg73
I0
sg55
I0
sS'chop.n.05'
p98
I0
sg54
I0
sS'mustard.n.01'
p99
I0
sg74
I0
sg60
I0
sg84
I0
sg38
I0
sg75
I0
sS'olive.n.04'
p100
I0
sg59
I0
sg37
I0
sg77
I0
sg78
I0
sg79
I0
sg80
I0
sg39
I0
sg81
I0
sS'olive.n.01'
p101
I0
sg58
I0
sg83
I0
sS'tongue.n.03'
p102
I0
sg41
I0
sg36
I0
sg47
I0
sg56
I0
sg86
I0
sg52
I0
sg53
I0
sg87
I0
sg48
I0
sg88
I0
sg44
I0
sg57
I0
sg49
I0
sg89
I0
sg46
I0
sg51
I0
sg90
I0
sg91
I0
sS'egg.n.02'
p103
I0
sg93
I0
sg50
I0
ssg33
(dp104
g22
I0
sg8
I0
sg28
I0
sS'orange.n.01'
p105
I0
sg33
I0
sg32
I0
sS'cabbage.n.01'
p106
I0
sg18
I0
sg55
I0
sg11
I0
sg15
I0
sg14
I0
sg60
I0
sg25
I0
sg12
I0
sS'knife.n.02'
p107
I0
sg59
I0
sS'bacon.n.02'
p108
I0
sg29
I0
sg19
I0
sg10
I0
sg20
I0
sS'slice.v.02'
p109
I0
sg9
I0
sg23
I0
sg58
I0
sg16
I0
sg27
I0
sg30
I0
sg24
I0
sg47
I0
sg56
I0
sg21
I0
sg26
I0
sg48
I0
sg34
I0
sg57
I0
sg49
I0
sg31
I0
sg46
I0
sg35
I0
sg17
I0
sS'tomato.n.02'
p110
I0
sg13
I0
sg50
I0
ssg32
(dp111
g22
I0
sg8
I0
sg45
I0
sg43
I0
sg28
I0
sg42
I0
sg33
I8
sg32
I1
sg40
I0
sg18
I0
sg55
I0
sg11
I0
sg15
I0
sg14
I0
sg60
I0
sg41
I0
sg25
I0
sg12
I0
sg36
I0
sg59
I0
sg37
I0
sg29
I0
sg19
I0
sg10
I0
sg20
I0
sg39
I0
sg9
I0
sg23
I0
sg58
I0
sg16
I0
sg17
I0
sg30
I0
sg24
I0
sg47
I0
sg56
I0
sg21
I0
sg26
I0
sg48
I0
sg34
I0
sg44
I0
sg57
I0
sg49
I0
sg31
I0
sg46
I0
sg35
I0
sg27
I0
sg38
I0
sg13
I0
sg50
I0
ssg40
(dp112
g69
I0
sg70
I0
sg45
I0
sg43
I0
sg71
I0
sg42
I0
sg97
I0
sg72
I0
sg40
I7
sg73
I0
sg55
I0
sg98
I0
sg54
I0
sg99
I0
sg74
I0
sg60
I0
sg84
I0
sg38
I0
sg75
I0
sg100
I0
sg59
I0
sg37
I0
sg77
I0
sg78
I0
sg79
I0
sg80
I0
sg39
I0
sg81
I0
sg101
I0
sg58
I0
sg83
I0
sg102
I0
sg41
I2
sg36
I0
sg47
I0
sg56
I0
sg86
I0
sg52
I0
sg53
I0
sg87
I0
sg48
I0
sg88
I0
sg44
I0
sg57
I0
sg49
I0
sg89
I0
sg46
I0
sg51
I0
sg90
I0
sg91
I0
sg103
I0
sg93
I0
sg50
I0
ssg18
(dp113
g22
I0
sg8
I0
sg45
I0
sg43
I0
sg28
I0
sg42
I0
sg33
I0
sg32
I0
sg40
I0
sg18
I9
sg55
I0
sg11
I0
sg54
I0
sg15
I0
sg14
I0
sg60
I0
sg41
I0
sg25
I0
sg12
I0
sg36
I0
sg59
I0
sg37
I0
sg29
I0
sg19
I0
sg10
I0
sg20
I0
sg39
I0
sg9
I0
sg23
I0
sg58
I0
sg16
I0
sg27
I0
sg30
I0
sg24
I0
sS'human_body.n.01'
p114
I0
sg56
I0
sg21
I0
sg52
I0
sg53
I0
sg26
I0
sg48
I0
sg34
I0
sg44
I0
sg57
I0
sg49
I0
sg31
I0
sg51
I0
sg35
I0
sg17
I0
sg38
I0
sg13
I0
sg50
I0
ssg55
(dp115
S'mushroom.n.05'
p116
I0
sS'cheese.n.01'
p117
I0
sS'bread.n.01'
p118
I0
sS'orange.n.01'
p119
I0
sS'zucchini.n.02'
p120
I0
sS'zucchini.n.01'
p121
I0
sS'knife.n.01'
p122
I0
sS'green_onion.n.01'
p123
I0
sS'pizza.n.01'
p124
I0
sS'mustard.n.01'
p125
I0
sS'mustard.n.02'
p126
I0
sg110
I0
sS'tomato.n.01'
p127
I0
sg59
I0
sS'bacon.n.01'
p128
I0
sS'cleaver.n.01'
p129
I0
sS'potato.n.01'
p130
I0
sS'meat.n.01'
p131
I0
sS'slice.v.03'
p132
I0
sS'olive.n.01'
p133
I0
sg58
I0
sS'cabbage.n.01'
p134
I0
sS'banana.n.02'
p135
I0
sg107
I0
sg56
I0
sS'piece.n.08'
p136
I0
sS'vegetable.n.01'
p137
I0
sg57
I0
sg55
I0
sS'lemon.n.01'
p138
I0
sS'egg.n.02'
p139
I0
sS'onion.n.03'
p140
I0
sS'onion.n.02'
p141
I0
ssg11
(dp142
g22
I0
sg8
I0
sg45
I0
sg43
I0
sg28
I0
sg42
I0
sg33
I0
sg32
I0
sg40
I0
sg18
I0
sg55
I4
sg11
I20
sg54
I0
sg15
I0
sg14
I0
sg60
I0
sg41
I0
sg25
I0
sg12
I0
sg36
I0
sg59
I0
sg37
I0
sg29
I0
sg19
I0
sg10
I0
sg20
I0
sg39
I0
sg9
I0
sg23
I0
sg58
I0
sg16
I0
sg27
I0
sg30
I0
sg24
I0
sg47
I0
sg56
I0
sg21
I0
sg52
I0
sg53
I0
sg26
I0
sg48
I0
sg34
I0
sg44
I0
sg57
I1
sg49
I20
sg31
I0
sg46
I0
sg51
I0
sg35
I0
sg17
I0
sg38
I0
sg13
I0
sg50
I0
ssg54
(dp143
S'mushroom.n.05'
p144
I0
sS'cheese.n.01'
p145
I0
sS'mushroom.n.03'
p146
I0
sS'kernel.n.01'
p147
I0
sS'bread.n.01'
p148
I0
sS'orange.n.01'
p149
I0
sS'knife.n.01'
p150
I0
sS'green_onion.n.01'
p151
I0
sS'mustard.n.02'
p152
I0
sS'banana.n.02'
p153
I0
sS'tomato.n.02'
p154
I0
sS'tomato.n.01'
p155
I0
sg76
I0
sS'bacon.n.02'
p156
I0
sS'bacon.n.01'
p157
I0
sS'meat.n.01'
p158
I0
sS'potato.n.01'
p159
I0
sS'cleaver.n.01'
p160
I0
sS'slice.v.02'
p161
I0
sS'slice.v.03'
p162
I0
sg82
I0
sS'cabbage.n.01'
p163
I0
sg54
I0
sS'cabbage.n.03'
p164
I0
sS'knife.n.02'
p165
I0
sg85
I0
sS'piece.n.08'
p166
I0
sg52
I0
sg53
I0
sS'vegetable.n.01'
p167
I0
sS'flesh.n.01'
p168
I0
sS'helicopter.n.01'
p169
I0
sg51
I0
sS'lemon.n.01'
p170
I0
sg92
I0
sS'onion.n.03'
p171
I0
sg66
I0
ssg15
(dp172
g22
I0
sg8
I0
sg28
I0
sS'orange.n.01'
p173
I0
sg33
I0
sg32
I0
sS'cabbage.n.01'
p174
I0
sg18
I0
sg55
I0
sg11
I0
sg15
I0
sg14
I0
sg25
I0
sg12
I0
sg107
I0
sg59
I0
sg29
I0
sg19
I0
sg10
I0
sg20
I0
sS'slice.v.02'
p175
I0
sg9
I0
sg23
I0
sg58
I0
sg16
I0
sg27
I0
sg30
I0
sg24
I0
sS'human_body.n.01'
p176
I0
sg56
I0
sg21
I0
sg26
I0
sg34
I0
sg57
I0
sg31
I0
sg35
I0
sg17
I0
sg110
I0
sg13
I0
sg141
I0
ssg14
(dp177
g22
I0
sg8
I0
sg45
I0
sg43
I0
sg28
I0
sg42
I0
sg33
I0
sg32
I0
sg40
I0
sg18
I0
sg55
I0
sg11
I0
sg54
I0
sg15
I3
sg14
I5
sg60
I1
sg41
I0
sg25
I0
sg12
I0
sg36
I0
sg59
I0
sg37
I0
sg29
I0
sg19
I0
sg10
I0
sg20
I0
sg39
I0
sg9
I0
sg23
I0
sg58
I0
sg16
I0
sg27
I0
sg30
I0
sg24
I0
sg114
I0
sg56
I0
sg21
I0
sg52
I0
sg53
I0
sg26
I0
sg48
I0
sg34
I0
sg44
I0
sg57
I0
sg49
I0
sg31
I0
sg51
I0
sg35
I0
sg17
I0
sg38
I0
sg13
I0
sg50
I0
ssg60
(dp178
S'mushroom.n.05'
p179
I0
sS'cheese.n.01'
p180
I0
sS'bread.n.01'
p181
I0
sS'orange.n.01'
p182
I0
sS'zucchini.n.02'
p183
I0
sS'zucchini.n.01'
p184
I0
sS'knife.n.01'
p185
I0
sS'green_onion.n.01'
p186
I0
sS'mustard.n.02'
p187
I0
sg60
I0
sS'tomato.n.02'
p188
I0
sS'tomato.n.01'
p189
I0
sS'bacon.n.02'
p190
I0
sS'bacon.n.01'
p191
I0
sS'meat.n.01'
p192
I0
sS'potato.n.01'
p193
I0
sS'cleaver.n.01'
p194
I0
sS'slice.v.02'
p195
I0
sS'slice.v.03'
p196
I0
sS'olive.n.01'
p197
I0
sS'cabbage.n.01'
p198
I0
sS'olive.n.04'
p199
I0
sS'human_body.n.01'
p200
I0
sS'catsup.n.01'
p201
I0
sS'piece.n.08'
p202
I0
sS'vegetable.n.01'
p203
I0
sS'flesh.n.01'
p204
I0
sS'slice.n.06'
p205
I0
sS'pizza.n.01'
p206
I0
sS'lemon.n.01'
p207
I0
sS'egg.n.02'
p208
I0
sS'onion.n.03'
p209
I0
sS'onion.n.02'
p210
I0
ssg41
(dp211
g69
I0
sg70
I0
sg45
I0
sg43
I0
sg71
I0
sg42
I0
sg72
I0
sg40
I0
sg73
I0
sg74
I0
sg41
I0
sg38
I0
sg75
I0
sg76
I0
sg37
I0
sg77
I0
sg78
I0
sg79
I0
sg80
I0
sg39
I0
sg81
I0
sg82
I0
sg83
I0
sg54
I0
sg84
I0
sg36
I0
sg85
I0
sg86
I0
sg52
I0
sg53
I0
sg87
I0
sg88
I0
sg44
I0
sg89
I0
sg51
I0
sg90
I0
sg91
I0
sg92
I0
sg93
I0
sg66
I0
ssg25
(dp212
g22
I0
sg8
I0
sg146
I0
sg147
I0
sg28
I0
sg105
I0
sg33
I0
sg32
I0
sg106
I0
sg18
I0
sg55
I0
sg11
I0
sg54
I0
sg15
I0
sg14
I0
sg60
I0
sg164
I0
sg25
I8
sg12
I0
sg165
I0
sg59
I1
sg108
I0
sg29
I0
sg19
I0
sg10
I0
sg20
I0
sg109
I0
sg9
I0
sg23
I0
sg58
I0
sg16
I0
sg27
I0
sg30
I0
sg24
I0
sg47
I0
sg56
I0
sg21
I0
sg52
I0
sg53
I0
sg26
I0
sg48
I0
sg34
I0
sg169
I0
sg57
I0
sg49
I0
sg31
I0
sg46
I0
sg51
I0
sg35
I0
sg17
I0
sg154
I0
sg13
I0
sg50
I0
ssg12
(dp213
g22
I0
sg8
I0
sg45
I0
sg43
I0
sg28
I0
sg42
I0
sg33
I0
sg32
I0
sg40
I0
sg18
I0
sg55
I0
sg11
I0
sg54
I0
sg15
I0
sg14
I0
sg60
I0
sg41
I0
sg25
I0
sg12
I11
sg36
I0
sg59
I0
sg37
I0
sg29
I0
sg19
I0
sg10
I0
sg20
I0
sg39
I0
sg9
I0
sg23
I0
sg58
I0
sg16
I0
sg27
I0
sg30
I0
sg24
I0
sg47
I0
sg56
I0
sg21
I0
sg52
I0
sg53
I0
sg26
I0
sg48
I0
sg34
I0
sg44
I0
sg57
I0
sg49
I0
sg31
I0
sg46
I0
sg51
I0
sg35
I0
sg17
I0
sg38
I7
sg13
I0
sg50
I0
ssg36
(dp214
g69
I0
sg70
I0
sg45
I0
sg43
I0
sg71
I0
sg42
I0
sg120
I0
sg72
I0
sg40
I0
sg73
I0
sg55
I0
sg125
I0
sg74
I0
sg84
I0
sg38
I0
sg75
I0
sg76
I0
sg59
I0
sg37
I0
sg77
I0
sg78
I0
sg79
I0
sg80
I0
sg39
I0
sg81
I0
sg82
I0
sg58
I0
sg83
I0
sg54
I0
sg41
I0
sg36
I0
sg85
I0
sg56
I0
sg86
I0
sg52
I0
sg53
I0
sg87
I0
sg88
I0
sg44
I0
sg57
I0
sg89
I0
sg51
I0
sg90
I0
sg91
I0
sg92
I0
sg93
I0
sg66
I0
ssg59
(dp215
g116
I0
sg117
I0
sg118
I0
sg119
I0
sg120
I0
sg121
I0
sg122
I0
sg123
I0
sg124
I0
sg125
I0
sg126
I0
sg110
I0
sg127
I0
sg59
I0
sg128
I0
sg129
I0
sg130
I0
sg131
I0
sg132
I0
sg133
I0
sg58
I0
sg134
I0
sg135
I0
sg107
I0
sg56
I0
sg136
I0
sg137
I0
sg57
I0
sg55
I0
sg138
I0
sg139
I0
sg140
I0
sg141
I0
ssg37
(dp216
g69
I0
sg70
I0
sg45
I0
sg43
I0
sg71
I0
sg42
I0
sg97
I0
sg72
I0
sg40
I0
sg73
I0
sg74
I0
sg60
I0
sg84
I0
sg38
I0
sg75
I0
sg100
I0
sg37
I0
sg77
I0
sg78
I0
sg79
I0
sg80
I0
sg39
I0
sg81
I0
sg101
I0
sg83
I0
sg54
I0
sg41
I0
sg36
I0
sg47
I0
sg201
I0
sg86
I0
sg52
I0
sg53
I0
sg87
I0
sg88
I0
sg44
I0
sg205
I0
sg89
I0
sg46
I0
sg51
I0
sg90
I0
sg91
I0
sg103
I0
sg93
I0
sg66
I0
ssg29
(dp217
g22
I0
sg8
I0
sg45
I0
sg43
I0
sg28
I0
sg42
I0
sg33
I0
sg32
I0
sg40
I0
sg18
I0
sg55
I0
sg11
I0
sg54
I0
sg15
I0
sg14
I0
sg60
I0
sg41
I0
sg25
I0
sg12
I0
sg36
I0
sg59
I0
sg37
I4
sg29
I5
sg20
I0
sg10
I0
sg19
I0
sg39
I0
sg9
I0
sg23
I0
sg58
I0
sg16
I0
sg27
I0
sg30
I0
sg24
I0
sg47
I0
sg56
I0
sg21
I0
sg52
I0
sg53
I0
sg26
I0
sg48
I0
sg34
I0
sg44
I0
sg57
I0
sg49
I0
sg31
I0
sg46
I0
sg51
I0
sg35
I0
sg17
I0
sg38
I0
sg13
I0
sg50
I0
ssg19
(dp218
g22
I0
sg8
I0
sg45
I0
sg43
I2
sg28
I0
sg42
I0
sg33
I0
sg32
I0
sg40
I0
sg18
I0
sg55
I0
sg11
I0
sg54
I0
sg15
I0
sg14
I0
sg60
I0
sg41
I0
sg25
I0
sg12
I0
sg36
I0
sg59
I0
sg37
I0
sg29
I0
sg19
I7
sg10
I0
sg20
I0
sg39
I0
sg9
I0
sg23
I0
sg58
I0
sg16
I0
sg27
I0
sg30
I0
sg24
I0
sg47
I0
sg56
I0
sg21
I0
sg52
I0
sg53
I0
sg26
I0
sg34
I0
sg44
I0
sg57
I0
sg65
I0
sg31
I0
sg46
I0
sg51
I0
sg35
I0
sg17
I0
sg38
I0
sg13
I0
sg66
I0
ssg10
(dp219
g22
I0
sg8
I0
sg45
I0
sg43
I0
sg28
I0
sg42
I0
sg33
I0
sg32
I0
sg40
I0
sg18
I0
sg55
I0
sg11
I0
sg54
I0
sg15
I0
sg14
I0
sg60
I0
sg41
I0
sg25
I0
sg12
I0
sg36
I0
sg59
I0
sg37
I0
sg29
I0
sg19
I0
sg10
I9
sg20
I0
sg39
I0
sg9
I0
sg23
I0
sg58
I0
sg16
I0
sg27
I0
sg30
I0
sg24
I0
sg47
I0
sg56
I0
sg21
I0
sg52
I0
sg53
I0
sg26
I0
sg48
I0
sg34
I0
sg44
I0
sg57
I0
sg49
I0
sg31
I0
sg46
I0
sg51
I0
sg35
I0
sg17
I0
sg38
I0
sg13
I0
sg50
I0
ssg20
(dp220
g22
I0
sg8
I0
sg45
I0
sg43
I0
sg28
I0
sg42
I0
sg33
I0
sg32
I0
sg40
I0
sg18
I0
sg55
I0
sg11
I0
sg54
I0
sg15
I0
sg14
I0
sg60
I0
sg41
I0
sg25
I0
sg12
I0
sg36
I0
sg59
I0
sg37
I0
sg29
I0
sg20
I4
sg10
I0
sg19
I0
sg39
I0
sg9
I0
sg23
I0
sg58
I1
sg16
I0
sg27
I0
sg30
I0
sg24
I0
sg47
I0
sg56
I0
sg21
I2
sg52
I0
sg53
I0
sg26
I0
sg34
I0
sg44
I2
sg57
I0
sg65
I0
sg31
I0
sg46
I0
sg51
I0
sg35
I0
sg17
I0
sg38
I0
sg13
I0
sg66
I0
ssg39
(dp221
g69
I0
sg70
I0
sg45
I0
sg43
I0
sg71
I0
sg42
I0
sg97
I0
sg72
I0
sg40
I0
sg73
I0
sg98
I0
sg54
I0
sg99
I0
sg74
I0
sg60
I0
sg84
I0
sg38
I0
sg75
I0
sg100
I0
sg37
I0
sg77
I0
sg78
I0
sg79
I0
sg80
I0
sg39
I0
sg81
I0
sg101
I0
sg83
I0
sg102
I0
sg41
I0
sg36
I0
sg47
I0
sg201
I0
sg86
I0
sg52
I0
sg53
I0
sg87
I0
sg48
I0
sg88
I0
sg44
I0
sg49
I0
sg89
I0
sg46
I0
sg51
I0
sg90
I0
sg91
I0
sg103
I0
sg93
I0
sg50
I0
ssg9
(dp222
g22
I0
sg8
I0
sg45
I0
sg43
I0
sg28
I0
sg42
I0
sg33
I0
sg32
I0
sg40
I0
sg18
I0
sg55
I0
sg11
I0
sg54
I0
sg15
I0
sg14
I0
sg60
I0
sg41
I0
sg25
I0
sg12
I0
sg36
I0
sg59
I0
sg37
I0
sg29
I0
sg19
I0
sg10
I0
sg20
I0
sg39
I12
sg9
I159
sg23
I0
sg58
I0
sg16
I0
sg27
I0
sg30
I0
sg24
I0
sg47
I0
sg56
I0
sg21
I0
sg52
I0
sg53
I0
sg26
I0
sg48
I0
sg34
I0
sg44
I0
sg57
I0
sg49
I0
sg31
I0
sg46
I0
sg51
I0
sg35
I0
sg17
I0
sg38
I0
sg13
I0
sg50
I0
ssg23
(dp223
g22
I0
sg8
I0
sg146
I0
sg147
I0
sg28
I0
sg105
I0
sg33
I0
sg32
I0
sg106
I0
sg18
I0
sg55
I0
sg11
I0
sg54
I0
sg15
I0
sg14
I0
sg60
I0
sg164
I0
sg25
I0
sg12
I0
sg165
I0
sg59
I0
sg108
I0
sg29
I0
sg19
I0
sg10
I0
sg20
I0
sg109
I0
sg9
I0
sg23
I1
sg58
I0
sg16
I0
sg27
I0
sg30
I0
sg24
I7
sg47
I0
sg56
I0
sg21
I0
sg52
I0
sg53
I0
sg26
I0
sg48
I1
sg34
I0
sg169
I0
sg57
I0
sg49
I0
sg31
I0
sg46
I0
sg51
I0
sg35
I0
sg17
I0
sg154
I0
sg13
I0
sg50
I0
ssg58
(dp224
g116
I0
sg117
I0
sg118
I0
sg119
I0
sg120
I0
sg121
I0
sg122
I0
sg123
I0
sg124
I0
sg125
I0
sg126
I0
sg110
I0
sg127
I0
sg59
I0
sg128
I0
sg129
I0
sg130
I0
sg131
I0
sg132
I0
sg133
I0
sg58
I0
sg134
I0
sg135
I0
sg107
I0
sg56
I0
sg136
I0
sg137
I0
sg57
I0
sg55
I0
sg138
I0
sg139
I0
sg140
I0
sg141
I0
ssg16
(dp225
g22
I0
sg8
I0
sg45
I0
sg43
I0
sg28
I0
sg42
I0
sg33
I0
sg32
I0
sg40
I0
sg18
I0
sg55
I0
sg11
I0
sg54
I0
sg15
I0
sg14
I0
sg60
I0
sg41
I0
sg25
I0
sg12
I0
sg36
I15
sg59
I0
sg37
I0
sg29
I0
sg19
I0
sg10
I0
sg20
I0
sg39
I0
sg9
I0
sg23
I0
sg58
I0
sg16
I20
sg27
I0
sg30
I0
sg24
I0
sg47
I0
sg56
I0
sg21
I0
sg52
I0
sg53
I0
sg26
I0
sg48
I0
sg34
I0
sg44
I0
sg57
I0
sg49
I0
sg31
I0
sg46
I0
sg51
I0
sg35
I0
sg17
I10
sg38
I0
sg13
I0
sg50
I0
ssg27
(dp226
g22
I0
sg8
I0
sg45
I0
sg43
I0
sg28
I0
sg42
I0
sg33
I0
sg32
I0
sg40
I0
sg18
I0
sg55
I0
sg11
I0
sg54
I0
sg15
I0
sg14
I0
sg60
I0
sg41
I0
sg25
I0
sg12
I0
sg36
I0
sg59
I0
sg37
I0
sg29
I0
sg19
I0
sg10
I0
sg20
I0
sg39
I0
sg9
I0
sg23
I0
sg58
I0
sg16
I0
sg27
I14
sg30
I0
sg24
I0
sg47
I0
sg56
I0
sg21
I0
sg52
I0
sg53
I0
sg26
I0
sg48
I0
sg34
I0
sg44
I0
sg57
I0
sg49
I0
sg31
I0
sg46
I2
sg51
I2
sg35
I0
sg17
I0
sg38
I0
sg13
I0
sg50
I0
ssg30
(dp227
g22
I0
sg8
I0
sg45
I0
sg43
I0
sg28
I0
sg42
I0
sg33
I0
sg32
I0
sg40
I0
sg18
I0
sg55
I0
sg11
I0
sg54
I1
sg15
I0
sg14
I0
sg41
I0
sg25
I0
sg12
I0
sg36
I0
sg59
I0
sg37
I0
sg29
I0
sg19
I0
sg10
I0
sg20
I0
sg39
I0
sg9
I0
sg23
I0
sg58
I0
sg16
I0
sg27
I0
sg30
I8
sg24
I0
sg47
I0
sg56
I0
sg21
I0
sg52
I0
sg53
I0
sg26
I0
sg48
I0
sg34
I0
sg44
I0
sg57
I0
sg49
I0
sg31
I0
sg46
I0
sg51
I0
sg35
I0
sg17
I0
sg38
I0
sg13
I0
sg50
I0
ssg24
(dp228
g22
I0
sg8
I0
sg146
I0
sg147
I0
sg28
I0
sg105
I0
sg33
I0
sg32
I0
sg106
I0
sg18
I0
sg11
I0
sg54
I0
sg15
I0
sg14
I0
sg60
I0
sg164
I0
sg25
I0
sg12
I0
sg165
I0
sg108
I0
sg29
I0
sg19
I0
sg10
I0
sg20
I0
sg109
I0
sg9
I0
sg23
I0
sg16
I0
sg17
I0
sg30
I0
sg24
I0
sg47
I0
sg201
I0
sg21
I0
sg52
I0
sg53
I0
sg26
I0
sg34
I0
sg169
I0
sg65
I0
sg31
I0
sg46
I0
sg51
I0
sg35
I0
sg27
I0
sg154
I0
sg13
I0
sg66
I0
ssg47
(dp229
S'mushroom.n.05'
p230
I0
sS'cheese.n.01'
p231
I0
sg146
I0
sg147
I0
sS'bread.n.01'
p232
I0
sg105
I0
sg97
I0
sS'zucchini.n.01'
p233
I0
sg106
I0
sS'green_onion.n.01'
p234
I0
sg98
I0
sg54
I0
sg99
I0
sS'mustard.n.02'
p235
I0
sg60
I0
sg164
I0
sg103
I0
sS'tomato.n.01'
p236
I0
sg165
I0
sg108
I0
sS'bacon.n.01'
p237
I0
sS'meat.n.01'
p238
I0
sS'potato.n.01'
p239
I0
sS'cleaver.n.01'
p240
I0
sg109
I0
sS'slice.v.03'
p241
I0
sg101
I0
sS'knife.n.01'
p242
I0
sg102
I0
sS'banana.n.02'
p243
I0
sg100
I0
sg47
I0
sg201
I0
sS'piece.n.08'
p244
I0
sg52
I0
sg53
I0
sS'vegetable.n.01'
p245
I0
sg48
I0
sS'flesh.n.01'
p246
I0
sg169
I0
sg49
I0
sS'pizza.n.01'
p247
I0
sg46
I0
sg51
I0
sS'lemon.n.01'
p248
I0
sg154
I0
sS'onion.n.03'
p249
I0
sg50
I0
ssg56
(dp250
g116
I0
sg117
I0
sg118
I0
sg119
I0
sg120
I0
sg121
I0
sg122
I0
sg123
I0
sg124
I0
sg125
I0
sg126
I0
sg60
I0
sg110
I0
sg127
I0
sg199
I0
sg59
I0
sg190
I0
sg128
I0
sg129
I0
sg130
I0
sg131
I0
sg195
I0
sg132
I0
sg133
I0
sg58
I0
sg134
I0
sg135
I0
sg107
I0
sg200
I0
sg56
I2
sg136
I0
sg137
I0
sg204
I0
sg57
I0
sg205
I0
sg55
I0
sg138
I0
sg139
I0
sg140
I0
sg141
I0
ssg21
(dp251
g22
I0
sg8
I0
sg28
I0
sg173
I0
sg33
I0
sg32
I0
sg174
I0
sg18
I0
sg11
I0
sg15
I0
sg14
I0
sg25
I0
sg12
I0
sg29
I0
sg19
I0
sg10
I0
sg20
I0
sg175
I0
sg9
I0
sg23
I0
sg16
I0
sg27
I0
sg30
I0
sg24
I0
sg176
I0
sg21
I0
sg26
I0
sg34
I0
sg31
I0
sg35
I0
sg17
I0
sg13
I0
ssg52
(dp252
g144
I0
sg145
I0
sg146
I0
sg147
I0
sg148
I0
sg149
I0
sg150
I0
sg151
I0
sg152
I0
sg153
I0
sg154
I0
sg155
I0
sg76
I0
sg156
I0
sg157
I0
sg158
I0
sg159
I0
sg160
I0
sg161
I0
sg162
I0
sg82
I0
sg163
I0
sg54
I0
sg164
I0
sg165
I0
sg85
I0
sg166
I0
sg52
I0
sg53
I0
sg167
I0
sg168
I0
sg169
I0
sg51
I0
sg170
I0
sg92
I0
sg171
I0
sg66
I0
ssg53
(dp253
g144
I0
sg145
I0
sg146
I0
sg147
I0
sg148
I0
sg149
I0
sg150
I0
sg151
I0
sg152
I0
sg153
I0
sg154
I0
sg155
I0
sg76
I0
sg156
I0
sg157
I0
sg158
I0
sg159
I0
sg160
I0
sg161
I0
sg162
I0
sg82
I0
sg163
I0
sg54
I0
sg164
I0
sg165
I0
sg85
I0
sg166
I0
sg52
I0
sg53
I0
sg167
I0
sg168
I0
sg169
I0
sg51
I0
sg170
I0
sg92
I0
sg171
I0
sg66
I0
ssg26
(dp254
g22
I0
sg8
I0
sg45
I0
sg43
I0
sg28
I0
sg42
I0
sg33
I0
sg32
I0
sg40
I0
sg18
I0
sg55
I0
sg11
I0
sg54
I0
sg15
I0
sg14
I0
sg60
I0
sg41
I0
sg25
I0
sg12
I0
sg36
I0
sg59
I0
sg37
I0
sg29
I0
sg19
I0
sg10
I0
sg20
I0
sg39
I0
sg9
I0
sg23
I0
sg58
I0
sg16
I0
sg27
I0
sg30
I0
sg24
I0
sg47
I0
sg56
I0
sg21
I0
sg52
I0
sg53
I1
sg26
I8
sg48
I0
sg34
I0
sg44
I0
sg57
I0
sg49
I0
sg31
I0
sg46
I0
sg51
I0
sg35
I0
sg17
I0
sg38
I0
sg13
I0
sg50
I0
ssg48
(dp255
S'cheese.n.01'
p256
I0
sS'bread.n.01'
p257
I0
sS'orange.n.01'
p258
I0
sS'zucchini.n.02'
p259
I0
sS'zucchini.n.01'
p260
I0
sS'cabbage.n.01'
p261
I0
sg234
I0
sg235
I0
sS'egg.n.02'
p262
I0
sS'tomato.n.01'
p263
I0
sS'bacon.n.01'
p264
I0
sS'potato.n.01'
p265
I0
sg48
I0
sS'slice.v.03'
p266
I0
sS'olive.n.01'
p267
I0
sS'knife.n.01'
p268
I0
sS'banana.n.02'
p269
I0
sg114
I0
sS'piece.n.08'
p270
I0
sS'slice.v.02'
p271
I0
sS'vegetable.n.01'
p272
I0
sS'flesh.n.01'
p273
I0
sg49
I0
sS'pizza.n.01'
p274
I0
sS'lemon.n.01'
p275
I0
sg249
I0
sg50
I0
ssg34
(dp276
g22
I0
sg8
I0
sg45
I0
sg43
I0
sg28
I0
sg42
I0
sg33
I0
sg32
I0
sg40
I0
sg18
I0
sg11
I0
sg54
I0
sg15
I0
sg14
I0
sg60
I0
sg41
I0
sg25
I0
sg12
I0
sg36
I0
sg37
I0
sg29
I0
sg19
I0
sg10
I0
sg20
I0
sg39
I0
sg9
I0
sg23
I0
sg16
I0
sg17
I0
sg30
I0
sg24
I0
sg47
I6
sg201
I0
sg21
I0
sg52
I0
sg53
I0
sg26
I0
sg48
I0
sg34
I0
sg44
I0
sg49
I0
sg31
I0
sg46
I0
sg51
I0
sg35
I3
sg27
I0
sg38
I0
sg13
I0
sg50
I0
ssg44
(dp277
g69
I0
sg70
I0
sg45
I0
sg43
I0
sg71
I0
sg42
I0
sg72
I0
sg40
I0
sg73
I0
sg74
I0
sg84
I0
sg38
I0
sg75
I0
sg76
I0
sg37
I0
sg77
I0
sg78
I0
sg79
I0
sg80
I0
sg39
I0
sg81
I0
sg82
I0
sg83
I0
sg54
I0
sg41
I0
sg36
I0
sg85
I0
sg86
I0
sg52
I0
sg53
I0
sg87
I0
sg88
I0
sg44
I0
sg89
I0
sg51
I0
sg90
I0
sg91
I0
sg92
I0
sg93
I0
sg66
I0
ssg57
(dp278
g116
I0
sg117
I0
sg118
I0
sg119
I0
sg120
I0
sg121
I0
sg122
I0
sg123
I0
sg124
I0
sg125
I0
sg126
I0
sg110
I0
sg127
I0
sg59
I0
sg128
I0
sg129
I0
sg130
I0
sg131
I0
sg132
I0
sg133
I0
sg58
I0
sg134
I0
sg135
I0
sg107
I0
sg56
I0
sg136
I0
sg137
I0
sg57
I0
sg55
I0
sg138
I0
sg139
I0
sg140
I0
sg141
I0
ssg49
(dp279
S'mushroom.n.05'
p280
I0
sg256
I0
sg257
I0
sg258
I0
sg259
I0
sg260
I0
sg261
I0
sg234
I0
sg235
I0
sg60
I0
sg262
I0
sg263
I0
sg190
I0
sg264
I0
sS'meat.n.01'
p281
I0
sg265
I0
sS'cleaver.n.01'
p282
I0
sg48
I0
sg266
I0
sg267
I0
sg268
I0
sg269
I0
sS'olive.n.04'
p283
I0
sg114
I0
sg201
I0
sg270
I0
sg271
I0
sg272
I0
sg273
I0
sg49
I0
sg274
I0
sS'pulp.n.02'
p284
I0
sg275
I0
sS'tomato.n.02'
p285
I0
sg249
I0
sg50
I0
ssg31
(dp286
g22
I0
sg8
I0
sg45
I0
sg43
I0
sg28
I0
sg42
I0
sg33
I0
sg32
I0
sg40
I0
sg18
I0
sg55
I0
sg11
I0
sg15
I0
sg14
I0
sg60
I0
sg41
I0
sg25
I0
sg12
I0
sg36
I0
sg59
I0
sg37
I0
sg29
I0
sg19
I0
sg10
I0
sg20
I0
sg39
I0
sg9
I0
sg23
I0
sg58
I0
sg16
I0
sg27
I0
sg30
I0
sg24
I0
sg47
I0
sg56
I0
sg21
I0
sg26
I0
sg48
I0
sg34
I0
sg44
I0
sg57
I0
sg49
I0
sg31
I9
sg46
I0
sg35
I0
sg17
I0
sg38
I0
sg13
I0
sg50
I0
ssg46
(dp287
g230
I0
sg231
I0
sg232
I0
sg105
I0
sg97
I0
sg233
I0
sg106
I0
sg103
I0
sg236
I0
sg108
I0
sg237
I0
sg238
I0
sg239
I0
sg240
I0
sg109
I0
sg241
I0
sg101
I0
sg242
I0
sg243
I0
sg100
I0
sg47
I0
sg244
I0
sg245
I0
sg246
I0
sg247
I0
sg46
I0
sg248
I0
ssg51
(dp288
g144
I0
sg145
I0
sg146
I0
sg147
I0
sg148
I0
sg149
I0
sg150
I0
sg151
I0
sg152
I0
sg153
I0
sg154
I0
sg155
I0
sg76
I0
sg156
I0
sg157
I0
sg158
I0
sg159
I0
sg160
I0
sg161
I0
sg162
I0
sg82
I0
sg163
I0
sg54
I0
sg164
I0
sg165
I0
sg85
I0
sg166
I0
sg52
I0
sg53
I0
sg167
I0
sg168
I0
sg169
I0
sg51
I0
sg170
I0
sg92
I0
sg171
I0
sg66
I0
ssg35
(dp289
g22
I0
sg8
I0
sg45
I0
sg43
I0
sg28
I0
sg42
I0
sg33
I0
sg32
I0
sg40
I0
sg18
I0
sg11
I0
sg15
I0
sg14
I0
sg41
I0
sg25
I0
sg12
I0
sg36
I0
sg37
I0
sg29
I0
sg20
I0
sg10
I0
sg19
I0
sg39
I0
sg9
I0
sg23
I0
sg16
I0
sg27
I0
sg30
I0
sg24
I0
sg21
I0
sg26
I0
sg34
I0
sg44
I0
sS'slice.n.06'
p290
I0
sg31
I0
sg35
I0
sg17
I0
sg38
I0
sg13
I0
sS'onion.n.02'
p291
I0
ssg17
(dp292
g22
I0
sg8
I0
sg28
I0
sg173
I0
sg33
I0
sg32
I0
sg174
I0
sg18
I0
sg11
I0
sg15
I0
sg14
I0
sg25
I0
sg12
I0
sg29
I0
sg19
I0
sg10
I0
sg20
I0
sg175
I0
sg9
I0
sg23
I0
sg16
I0
sg27
I0
sg30
I0
sg24
I0
sg176
I0
sg21
I0
sg26
I0
sg34
I0
sg31
I0
sg35
I0
sg17
I0
sg13
I0
ssg38
(dp293
g69
I0
sg70
I0
sg45
I0
sg43
I0
sg71
I0
sg42
I0
sg120
I0
sg72
I0
sg40
I0
sg73
I0
sg55
I0
sg125
I0
sg74
I0
sg60
I0
sg84
I0
sg38
I0
sg75
I0
sg76
I0
sg59
I0
sg37
I0
sg77
I0
sg78
I0
sg79
I0
sg80
I0
sg39
I0
sg81
I0
sg82
I0
sg58
I0
sg83
I0
sg54
I0
sg41
I0
sg36
I0
sg85
I0
sg56
I0
sg86
I0
sg52
I0
sg53
I0
sg87
I0
sg88
I0
sg44
I0
sg57
I0
sg65
I0
sg89
I0
sg51
I0
sg90
I0
sg91
I0
sg92
I0
sg93
I0
sg66
I0
ssg13
(dp294
g22
I0
sg8
I0
sg45
I0
sg43
I0
sg28
I0
sg42
I0
sg33
I0
sg32
I0
sg40
I0
sg18
I0
sg55
I0
sg11
I0
sg54
I0
sg15
I0
sg14
I0
sg60
I0
sg41
I0
sg25
I0
sg12
I0
sg36
I0
sg59
I0
sg37
I0
sg29
I0
sg19
I0
sg10
I0
sg20
I0
sg39
I0
sg9
I0
sg23
I0
sg58
I0
sg16
I0
sg27
I0
sg30
I0
sg24
I0
sg114
I0
sg56
I0
sg21
I0
sg52
I0
sg53
I0
sg26
I0
sg48
I0
sg34
I0
sg44
I0
sg57
I0
sg49
I0
sg31
I0
sg51
I0
sg35
I0
sg17
I0
sg38
I0
sg13
I3
sg50
I6
ssg50
(dp295
g144
I0
sg271
I0
sg146
I0
sg256
I0
sg257
I0
sg258
I0
sg259
I0
sg260
I0
sg261
I0
sg234
I0
sg55
I0
sg125
I0
sg235
I0
sg60
I0
sg164
I0
sg262
I0
sg263
I0
sg76
I0
sg59
I0
sg156
I0
sg264
I0
sg158
I0
sg265
I0
sg160
I0
sg48
I0
sg266
I0
sg267
I0
sg58
I0
sg268
I0
sg54
I0
sg269
I0
sg165
I0
sg114
I0
sg56
I0
sg270
I0
sg52
I0
sg53
I0
sg272
I0
sg273
I0
sg169
I0
sg57
I0
sg49
I0
sg274
I0
sg147
I0
sg51
I0
sg284
I0
sg275
I0
sg154
I0
sg249
I0
sg50
I0
sssb.