ccopy_reg
_reconstructor
p0
(cutils.eval
ConfusionMatrix
p1
c__builtin__
object
p2
Ntp3
Rp4
(dp5
S'labels'
p6
(lp7
S'knife.n.01'
p8
aS'banana.n.02'
p9
aS'slice.v.03'
p10
aS'tomato.n.01'
p11
aS'piece.n.08'
p12
aS'slice.n.06'
p13
aS'pizza.n.01'
p14
aS'zucchini.n.01'
p15
aS'zucchini.n.02'
p16
aS'flesh.n.01'
p17
aS'human_body.n.01'
p18
aS'lemon.n.01'
p19
aS'cabbage.n.01'
p20
aS'orange.n.01'
p21
aS'cheese.n.01'
p22
aS'potato.n.01'
p23
aS'tomato.n.02'
p24
aS'onion.n.03'
p25
aS'onion.n.02'
p26
aS'mustard.n.02'
p27
aS'green_onion.n.01'
p28
aS'meat.n.01'
p29
aS'cleaver.n.01'
p30
aS'mushroom.n.05'
p31
aS'olive.n.01'
p32
aS'olive.n.04'
p33
aS'egg.n.02'
p34
aS'vegetable.n.01'
p35
asS'instanceCount'
p36
I47
sS'matrix'
p37
(dp38
g31
(dp39
S'mushroom.n.05'
p40
I1
ssg22
(dp41
S'cheese.n.01'
p42
I1
ssg21
(dp43
S'orange.n.01'
p44
I1
ssg16
(dp45
g16
I0
ssg15
(dp46
g16
I1
ssg20
(dp47
S'cabbage.n.01'
p48
I1
ssg28
(dp49
S'green_onion.n.01'
p50
I1
ssg27
(dp51
S'mustard.n.02'
p52
I1
ssg24
(dp53
g24
I0
ssg11
(dp54
g24
I1
sS'tomato.n.01'
p55
I1
ssg29
(dp56
S'meat.n.01'
p57
I1
ssg23
(dp58
S'potato.n.01'
p59
I1
ssg30
(dp60
S'cleaver.n.01'
p61
I1
ssg10
(dp62
S'slice.v.03'
p63
I17
ssg32
(dp64
g33
I1
ssg8
(dp65
S'knife.n.01'
p66
I4
ssg9
(dp67
S'banana.n.02'
p68
I1
ssg33
(dp69
g33
I0
ssg18
(dp70
g18
I0
ssg12
(dp71
g13
I5
ssg35
(dp72
S'vegetable.n.01'
p73
I1
ssg17
(dp74
g18
I1
ssg13
(dp75
g13
I0
ssg14
(dp76
S'pizza.n.01'
p77
I1
ssg19
(dp78
S'lemon.n.01'
p79
I2
ssg34
(dp80
S'egg.n.02'
p81
I1
ssg25
(dp82
g26
I1
ssg26
(dp83
g26
I0
sssb.