ccopy_reg
_reconstructor
p0
(cutils.eval
ConfusionMatrix
p1
c__builtin__
object
p2
Ntp3
Rp4
(dp5
S'labels'
p6
(lp7
S'vegetable.n.01'
p8
aS'knife.n.01'
p9
aS'knife.n.02'
p10
aS'slice.v.03'
p11
aS'lemon.n.01'
p12
aS'bread.n.01'
p13
aS'bacon.n.01'
p14
aS'bacon.n.02'
p15
aS'banana.n.02'
p16
aS'tomato.n.01'
p17
aS'tomato.n.02'
p18
aS'slice.v.02'
p19
aS'piece.n.08'
p20
aS'pizza.n.01'
p21
aS'zucchini.n.01'
p22
aS'flesh.n.01'
p23
aS'pulp.n.02'
p24
aS'cabbage.n.01'
p25
aS'cabbage.n.03'
p26
aS'orange.n.01'
p27
aS'cheese.n.01'
p28
aS'potato.n.01'
p29
aS'onion.n.03'
p30
aS'mustard.n.02'
p31
aS'green_onion.n.01'
p32
aS'meat.n.01'
p33
aS'kernel.n.01'
p34
aS'cleaver.n.01'
p35
aS'helicopter.n.01'
p36
aS'mushroom.n.05'
p37
aS'mushroom.n.03'
p38
asS'instanceCount'
p39
I47
sS'matrix'
p40
(dp41
g37
(dp42
g38
I1
ssg28
(dp43
S'cheese.n.01'
p44
I1
ssg38
(dp45
g38
I0
ssg34
(dp46
g34
I0
ssg13
(dp47
S'bread.n.01'
p48
I1
ssg27
(dp49
S'orange.n.01'
p50
I1
ssg22
(dp51
S'zucchini.n.01'
p52
I1
ssg25
(dp53
g26
I1
ssg32
(dp54
S'green_onion.n.01'
p55
I1
ssg31
(dp56
S'mustard.n.02'
p57
I1
ssg16
(dp58
S'banana.n.02'
p59
I1
ssg18
(dp60
g18
I0
ssg17
(dp61
g18
I2
ssg15
(dp62
g15
I0
ssg14
(dp63
g15
I1
ssg33
(dp64
g34
I1
ssg29
(dp65
S'potato.n.01'
p66
I1
ssg35
(dp67
g36
I1
ssg19
(dp68
g19
I0
ssg11
(dp69
g19
I4
sS'slice.v.03'
p70
I13
ssg9
(dp71
g10
I5
ssg26
(dp72
g26
I0
ssg10
(dp73
g10
I0
ssg20
(dp74
S'piece.n.08'
p75
I4
ssg8
(dp76
S'vegetable.n.01'
p77
I1
ssg23
(dp78
g24
I1
ssg36
(dp79
g36
I0
ssg21
(dp80
S'pizza.n.01'
p81
I1
ssg30
(dp82
S'onion.n.03'
p83
I1
ssg12
(dp84
S'lemon.n.01'
p85
I2
ssg24
(dp86
g24
I0
sssb.