ccopy_reg
_reconstructor
p0
(cutils.eval
ConfusionMatrix
p1
c__builtin__
object
p2
Ntp3
Rp4
(dp5
S'labels'
p6
(lp7
S'piece.n.08'
p8
aS'slice.n.06'
p9
aS'pizza.n.01'
p10
aS'slice.v.03'
p11
aS'zucchini.n.01'
p12
aS'zucchini.n.02'
p13
aS'flesh.n.01'
p14
aS'human_body.n.01'
p15
aS'lemon.n.01'
p16
aS'cabbage.n.01'
p17
aS'orange.n.01'
p18
aS'cheese.n.01'
p19
aS'potato.n.01'
p20
aS'catsup.n.01'
p21
aS'tomato.n.01'
p22
aS'tomato.n.02'
p23
aS'onion.n.03'
p24
aS'onion.n.02'
p25
aS'mustard.n.02'
p26
aS'mustard.n.03'
p27
aS'knife.n.01'
p28
aS'green_onion.n.01'
p29
aS'meat.n.01'
p30
aS'cleaver.n.01'
p31
aS'mushroom.n.05'
p32
aS'olive.n.01'
p33
aS'olive.n.04'
p34
aS'egg.n.02'
p35
aS'vegetable.n.01'
p36
aS'bread.n.01'
p37
aS'slice.v.02'
p38
aS'bacon.n.01'
p39
aS'bacon.n.02'
p40
asS'instanceCount'
p41
I47
sS'matrix'
p42
(dp43
g32
(dp44
S'mushroom.n.05'
p45
I1
ssg19
(dp46
S'cheese.n.01'
p47
I1
ssg37
(dp48
S'bread.n.01'
p49
I1
ssg18
(dp50
S'orange.n.01'
p51
I1
ssg13
(dp52
g13
I0
ssg12
(dp53
g13
I1
ssg28
(dp54
S'knife.n.01'
p55
I3
ssg29
(dp56
S'green_onion.n.01'
p57
I1
ssg26
(dp58
g27
I1
ssg27
(dp59
g27
I0
ssg23
(dp60
g23
I0
ssg22
(dp61
g23
I1
ssg40
(dp62
g40
I0
ssg39
(dp63
g40
I1
ssg30
(dp64
S'meat.n.01'
p65
I1
ssg20
(dp66
S'potato.n.01'
p67
I1
ssg31
(dp68
S'cleaver.n.01'
p69
I1
ssg38
(dp70
g38
I0
ssg11
(dp71
g38
I1
sS'slice.v.03'
p72
I16
ssg33
(dp73
g34
I1
ssg17
(dp74
S'cabbage.n.01'
p75
I1
ssg34
(dp76
g34
I0
ssg15
(dp77
g15
I0
ssg21
(dp78
S'catsup.n.01'
p79
I1
ssg8
(dp80
g9
I5
ssg36
(dp81
S'vegetable.n.01'
p82
I1
ssg14
(dp83
g15
I1
ssg9
(dp84
g9
I0
ssg10
(dp85
S'pizza.n.01'
p86
I1
ssg16
(dp87
S'lemon.n.01'
p88
I2
ssg35
(dp89
S'egg.n.02'
p90
I1
ssg24
(dp91
g25
I1
ssg25
(dp92
g25
I0
sssb.