ccopy_reg
_reconstructor
p0
(cutils.eval
ConfusionMatrix
p1
c__builtin__
object
p2
Ntp3
Rp4
(dp5
S'labels'
p6
(lp7
S'meat.n.01'
p8
aS'slice.v.03'
p9
aS'cleaver.n.01'
p10
aS'mushroom.n.05'
p11
aS'olive.n.01'
p12
aS'olive.n.04'
p13
aS'egg.n.02'
p14
aS'piece.n.08'
p15
aS'vegetable.n.01'
p16
aS'knife.n.01'
p17
aS'lemon.n.01'
p18
aS'lemon.n.05'
p19
aS'bread.n.01'
p20
aS'slice.v.02'
p21
aS'bacon.n.01'
p22
aS'bacon.n.02'
p23
aS'banana.n.02'
p24
aS'tomato.n.01'
p25
aS'pizza.n.01'
p26
aS'zucchini.n.01'
p27
aS'zucchini.n.02'
p28
aS'flesh.n.01'
p29
aS'human_body.n.01'
p30
aS'cabbage.n.01'
p31
aS'orange.n.01'
p32
aS'cheese.n.01'
p33
aS'potato.n.01'
p34
asS'instanceCount'
p35
I45
sS'matrix'
p36
(dp37
g11
(dp38
S'mushroom.n.05'
p39
I1
ssg33
(dp40
S'cheese.n.01'
p41
I1
ssg20
(dp42
S'bread.n.01'
p43
I1
ssg32
(dp44
S'orange.n.01'
p45
I1
ssg28
(dp46
g28
I0
ssg27
(dp47
g28
I1
ssg31
(dp48
S'cabbage.n.01'
p49
I1
ssg14
(dp50
S'egg.n.02'
p51
I1
ssg25
(dp52
S'tomato.n.01'
p53
I1
ssg23
(dp54
g23
I0
ssg22
(dp55
g23
I1
ssg8
(dp56
S'meat.n.01'
p57
I1
ssg34
(dp58
S'potato.n.01'
p59
I1
ssg10
(dp60
S'cleaver.n.01'
p61
I1
ssg21
(dp62
g21
I0
ssg9
(dp63
g21
I2
sS'slice.v.03'
p64
I16
ssg12
(dp65
g13
I1
ssg17
(dp66
S'knife.n.01'
p67
I4
ssg24
(dp68
S'banana.n.02'
p69
I1
ssg13
(dp70
g13
I0
ssg30
(dp71
g30
I0
ssg15
(dp72
S'piece.n.08'
p73
I4
ssg16
(dp74
S'vegetable.n.01'
p75
I1
ssg29
(dp76
g30
I1
ssg26
(dp77
S'pizza.n.01'
p78
I1
ssg19
(dp79
g19
I0
ssg18
(dp80
g19
I2
sssb.