(dp0
S'engine'
p1
S'internal'
p2
sS'params1'
p3
S''
p4
sS'run'
p5
I00
sS'method1'
p6
S'pseudo-log-likelihood with blocking'
p7
sS'geometry'
p8
S'1916x1179+0+17'
p9
sS'mln'
p10
S'model.mln'
p11
sS'priorStdDev'
p12
S'100'
p13
sS'db'
p14
g4
sS'output_filename'
p15
S'learned_model.mln'
p16
sS'pattern'
p17
S'training_data/*.db'
p18
sS'addUnitClauses'
p19
I0
sS'nePreds'
p20
g4
sS'usePrior'
p21
I0
s.