ccopy_reg
_reconstructor
p0
(cutils.eval
ConfusionMatrix
p1
c__builtin__
object
p2
Ntp3
Rp4
(dp5
S'labels'
p6
(lp7
S'put.v.01'
p8
aS'pepper.n.03'
p9
aS'capsicum.n.01'
p10
aS'salt.n.02'
p11
aS'salt.n.04'
p12
aS'egg.n.02'
p13
aS'salmon.n.03'
p14
aS'plate.n.04'
p15
aS'plate.n.13'
p16
aS'soup.n.01'
p17
aS'microwave.n.02'
p18
aS'pan.n.03'
p19
aS'chicken.n.01'
p20
aS'steak.n.01'
p21
aS'oven.n.01'
p22
aS'coca_cola.n.01'
p23
aS'electric_refrigerator.n.01'
p24
aS'rib.n.03'
p25
aS'rib.n.01'
p26
aS'jam.n.01'
p27
aS'refrigerator.n.01'
p28
aS'onion.n.01'
p29
aS'onion.n.03'
p30
aS'beef.n.02'
p31
aS'gripe.n.01'
p32
aS'blender.n.01'
p33
aS'banana.n.02'
p34
asS'instanceCount'
p35
I32
sS'matrix'
p36
(dp37
g16
(dp38
g16
I0
ssg20
(dp39
S'chicken.n.01'
p40
I1
ssg31
(dp41
g32
I1
ssg17
(dp42
S'soup.n.01'
p43
I1
ssg28
(dp44
S'refrigerator.n.01'
p45
I1
ssg23
(dp46
S'coca_cola.n.01'
p47
I1
ssg14
(dp48
S'salmon.n.03'
p49
I1
ssg19
(dp50
S'pan.n.03'
p51
I1
ssg18
(dp52
S'microwave.n.02'
p53
I1
ssg13
(dp54
S'egg.n.02'
p55
I1
ssg24
(dp56
S'electric_refrigerator.n.01'
p57
I1
ssg25
(dp58
g26
I1
ssg11
(dp59
S'salt.n.02'
p60
I1
sg12
I1
ssg34
(dp61
S'banana.n.02'
p62
I1
ssg12
(dp63
g12
I0
ssg15
(dp64
g16
I2
ssg26
(dp65
g26
I0
ssg9
(dp66
g10
I1
ssg21
(dp67
S'steak.n.01'
p68
I1
ssg22
(dp69
S'oven.n.01'
p70
I1
ssg32
(dp71
g32
I0
ssg10
(dp72
g10
I0
ssg33
(dp73
S'blender.n.01'
p74
I1
ssg27
(dp75
S'jam.n.01'
p76
I1
ssg8
(dp77
S'put.v.01'
p78
I10
ssg29
(dp79
g30
I1
ssg30
(dp80
g30
I0
sssb.