ccopy_reg
_reconstructor
p0
(cutils.eval
ConfusionMatrix
p1
c__builtin__
object
p2
Ntp3
Rp4
(dp5
S'labels'
p6
(lp7
S'Piece'
p8
aS'ObjectToBeCutted'
p9
aS'CuttingTool'
p10
aS'ActionCause'
p11
asS'instanceCount'
p12
I6
sS'matrix'
p13
(dp14
g11
(dp15
S'ActionCause'
p16
I2
ssg10
(dp17
S'CuttingTool'
p18
I1
ssg8
(dp19
g9
I1
ssg9
(dp20
g9
I2
sssb.