ccopy_reg
_reconstructor
p0
(cutils.eval
ConfusionMatrix
p1
c__builtin__
object
p2
Ntp3
Rp4
(dp5
S'labels'
p6
(lp7
S'ObjectToBeCutted'
p8
aS'Piece'
p9
aS'ActionCause'
p10
aS'CuttingTool'
p11
asS'instanceCount'
p12
I55
sS'matrix'
p13
(dp14
g10
(dp15
g10
I20
sg11
I0
sg9
I0
sg8
I0
ssg11
(dp16
S'ActionCause'
p17
I0
sg11
I8
sS'Piece'
p18
I0
sS'ObjectToBeCutted'
p19
I1
ssg9
(dp20
g10
I0
sg11
I0
sg9
I3
sg8
I3
ssg8
(dp21
g10
I0
sg11
I0
sg9
I0
sg8
I20
sssb.