ccopy_reg
_reconstructor
p0
(cutils.eval
ConfusionMatrix
p1
c__builtin__
object
p2
Ntp3
Rp4
(dp5
S'labels'
p6
(lp7
S'ObjectToBeCutted'
p8
aS'CuttingTool'
p9
aS'ActionCause'
p10
asS'instanceCount'
p11
I6
sS'matrix'
p12
(dp13
g10
(dp14
S'ActionCause'
p15
I2
ssg9
(dp16
S'CuttingTool'
p17
I1
sS'ObjectToBeCutted'
p18
I1
ssg8
(dp19
g18
I2
sssb.