ccopy_reg
_reconstructor
p0
(cutils.eval
ConfusionMatrix
p1
c__builtin__
object
p2
Ntp3
Rp4
(dp5
S'labels'
p6
(lp7
S'fill.v.01'
p8
aS'fill.v.09'
p9
aS'pitcher.n.02'
p10
aS'pitcher.n.03'
p11
aS'milk.n.01'
p12
aS'milk.n.04'
p13
aS'put.v.01'
p14
aS'invest.v.01'
p15
aS'pan.n.03'
p16
aS'pan.n.01'
p17
aS'chicken.n.01'
p18
aS'slice.v.03'
p19
aS'slice.v.02'
p20
aS'onion.n.01'
p21
aS'pepper.n.04'
p22
aS'cheese.n.01'
p23
aS'meet.v.04'
p24
aS'kettle.n.01'
p25
aS'kettle.n.02'
p26
aS'water.n.06'
p27
aS'water.n.03'
p28
aS'beef.n.02'
p29
aS'beef.n.01'
p30
aS'plate.n.04'
p31
aS'plate.n.12'
p32
aS'pizza.n.01'
p33
aS'frame.v.04'
p34
aS'pepper.n.03'
p35
aS'salt.n.02'
p36
aS'egg.n.02'
p37
aS'testis.n.01'
p38
aS'cabbage.n.01'
p39
aS'cut.v.01'
p40
aS'swerve.v.01'
p41
aS'piece.n.08'
p42
aS'slice.n.01'
p43
aS'opening.n.01'
p44
aS'gap.n.05'
p45
aS'batter.n.02'
p46
aS'knife.n.01'
p47
aS'banana.n.02'
p48
asS'instanceCount'
p49
I36
sS'matrix'
p50
(dp51
g32
(dp52
g32
I0
ssg15
(dp53
g15
I0
ssg18
(dp54
S'chicken.n.01'
p55
I1
ssg29
(dp56
g30
I1
ssg23
(dp57
S'cheese.n.01'
p58
I1
ssg46
(dp59
S'batter.n.02'
p60
I1
ssg13
(dp61
g13
I0
ssg30
(dp62
g30
I0
ssg12
(dp63
g13
I1
ssg17
(dp64
g17
I0
ssg16
(dp65
g17
I2
ssg40
(dp66
g41
I1
ssg34
(dp67
g34
I0
ssg9
(dp68
g9
I1
ssg37
(dp69
g38
I1
ssg38
(dp70
g38
I0
ssg8
(dp71
g24
I1
sg9
I1
ssg11
(dp72
g11
I0
ssg10
(dp73
g11
I1
ssg36
(dp74
S'salt.n.02'
p75
I1
ssg20
(dp76
g20
I0
ssg19
(dp77
g20
I4
ssg39
(dp78
S'cabbage.n.01'
p79
I1
ssg48
(dp80
S'banana.n.02'
p81
I1
ssg31
(dp82
g32
I1
ssg22
(dp83
S'pepper.n.04'
p84
I1
ssg24
(dp85
g24
I0
ssg35
(dp86
S'pepper.n.04'
p87
I1
ssg47
(dp88
S'knife.n.01'
p89
I1
ssg45
(dp90
g45
I0
ssg41
(dp91
g41
I0
ssg42
(dp92
g43
I1
ssg44
(dp93
g45
I1
ssg28
(dp94
g28
I0
ssg43
(dp95
g43
I0
ssg27
(dp96
g28
I1
ssg14
(dp97
g15
I3
sg34
I1
ssg33
(dp98
S'pizza.n.01'
p99
I2
ssg26
(dp100
g26
I0
ssg25
(dp101
g26
I1
ssg21
(dp102
S'onion.n.01'
p103
I2
sssb.