ccopy_reg
_reconstructor
p0
(cutils.eval
ConfusionMatrix
p1
c__builtin__
object
p2
Ntp3
Rp4
(dp5
S'labels'
p6
(lp7
S'put.v.01'
p8
aS'invest.v.01'
p9
aS'cake.n.03'
p10
aS'patty.n.01'
p11
aS'whipped_cream.n.01'
p12
aS'cut.v.01'
p13
aS'swerve.v.01'
p14
aS'lemon.n.01'
p15
aS'lemon.n.04'
p16
aS'fill.v.01'
p17
aS'fill.v.09'
p18
aS'pan.n.01'
p19
aS'water.n.06'
p20
aS'water.n.03'
p21
aS'meat.n.01'
p22
aS'kernel.n.01'
p23
aS'cleaver.n.01'
p24
aS'flesh.n.01'
p25
aS'slice.v.03'
p26
aS'slice.v.02'
p27
aS'bacon.n.01'
p28
aS'bacon.n.03'
p29
aS'pitcher.n.02'
p30
aS'pitcher.n.03'
p31
aS'milk.n.01'
p32
aS'milk.n.04'
p33
aS'pan.n.03'
p34
aS'chicken.n.01'
p35
aS'onion.n.01'
p36
aS'pepper.n.04'
p37
aS'cheese.n.01'
p38
aS'meet.v.04'
p39
aS'kettle.n.01'
p40
aS'kettle.n.02'
p41
aS'beef.n.02'
p42
aS'beef.n.01'
p43
aS'plate.n.04'
p44
aS'plate.n.12'
p45
asS'instanceCount'
p46
I33
sS'matrix'
p47
(dp48
g45
(dp49
g45
I0
ssg9
(dp50
g9
I0
ssg14
(dp51
g14
I0
ssg43
(dp52
g43
I0
ssg23
(dp53
g23
I0
ssg38
(dp54
S'cheese.n.01'
p55
I1
ssg33
(dp56
g33
I0
ssg35
(dp57
S'chicken.n.01'
p58
I1
ssg17
(dp59
g39
I1
sg18
I2
ssg32
(dp60
g33
I1
ssg19
(dp61
S'pan.n.01'
p62
I1
ssg34
(dp63
S'pan.n.01'
p64
I1
ssg13
(dp65
g14
I3
ssg18
(dp66
g18
I0
ssg42
(dp67
g43
I1
ssg29
(dp68
g29
I0
ssg28
(dp69
g29
I1
ssg11
(dp70
g11
I0
ssg31
(dp71
g31
I0
ssg30
(dp72
g31
I1
ssg40
(dp73
g41
I1
ssg24
(dp74
S'cleaver.n.01'
p75
I1
ssg22
(dp76
g23
I1
ssg27
(dp77
g27
I0
ssg26
(dp78
g27
I3
ssg44
(dp79
g45
I1
ssg37
(dp80
S'pepper.n.04'
p81
I1
ssg39
(dp82
g39
I0
ssg12
(dp83
S'whipped_cream.n.01'
p84
I1
ssg25
(dp85
S'flesh.n.01'
p86
I1
ssg21
(dp87
g21
I0
ssg20
(dp88
g21
I2
ssg8
(dp89
g9
I3
ssg41
(dp90
g41
I0
ssg16
(dp91
g16
I0
ssg10
(dp92
g11
I1
ssg15
(dp93
g16
I1
ssg36
(dp94
S'onion.n.01'
p95
I2
sssb.