ccopy_reg
_reconstructor
p0
(cutils.eval
ConfusionMatrix
p1
c__builtin__
object
p2
Ntp3
Rp4
(dp5
S'labels'
p6
(lp7
S'put.v.01'
p8
aS'invest.v.01'
p9
aS'pan.n.03'
p10
aS'pan.n.01'
p11
aS'pizza.n.01'
p12
aS'frame.v.04'
p13
aS'pepper.n.03'
p14
aS'pepper.n.04'
p15
aS'salt.n.02'
p16
aS'egg.n.02'
p17
aS'testis.n.01'
p18
aS'cabbage.n.01'
p19
aS'cut.v.01'
p20
aS'swerve.v.01'
p21
aS'piece.n.08'
p22
aS'slice.n.01'
p23
aS'slice.v.03'
p24
aS'slice.v.02'
p25
aS'opening.n.01'
p26
aS'gap.n.05'
p27
aS'fill.v.09'
p28
aS'batter.n.02'
p29
aS'knife.n.01'
p30
aS'banana.n.02'
p31
aS'bread.n.01'
p32
aS'fill.v.01'
p33
aS'foam.n.01'
p34
aS'mug.n.04'
p35
aS'cake.n.03'
p36
aS'patty.n.01'
p37
aS'whipped_cream.n.01'
p38
aS'lemon.n.01'
p39
aS'lemon.n.04'
p40
aS'water.n.06'
p41
aS'water.n.03'
p42
aS'meat.n.01'
p43
aS'kernel.n.01'
p44
aS'cleaver.n.01'
p45
asS'instanceCount'
p46
I35
sS'matrix'
p47
(dp48
g9
(dp49
g9
I0
ssg21
(dp50
g21
I0
ssg24
(dp51
g25
I2
ssg32
(dp52
S'bread.n.01'
p53
I1
ssg29
(dp54
S'batter.n.02'
p55
I1
ssg30
(dp56
S'knife.n.01'
p57
I2
ssg34
(dp58
S'foam.n.01'
p59
I1
ssg11
(dp60
g11
I1
ssg10
(dp61
g11
I1
ssg20
(dp62
g21
I4
ssg13
(dp63
g13
I0
ssg28
(dp64
S'fill.v.09'
p65
I1
ssg17
(dp66
g18
I1
ssg18
(dp67
g18
I0
ssg33
(dp68
S'fill.v.09'
p69
I2
ssg40
(dp70
g40
I0
ssg43
(dp71
g44
I1
ssg45
(dp72
S'cleaver.n.01'
p73
I1
ssg25
(dp74
g25
I0
ssg16
(dp75
S'salt.n.02'
p76
I1
ssg19
(dp77
S'cabbage.n.01'
p78
I1
ssg31
(dp79
S'banana.n.02'
p80
I1
ssg15
(dp81
g15
I0
ssg14
(dp82
g15
I1
ssg27
(dp83
g27
I0
ssg37
(dp84
g37
I0
ssg22
(dp85
g23
I1
ssg26
(dp86
g27
I1
ssg35
(dp87
S'mug.n.04'
p88
I1
ssg42
(dp89
g42
I0
ssg23
(dp90
g23
I0
ssg41
(dp91
g42
I1
ssg8
(dp92
g9
I2
sg13
I1
ssg12
(dp93
S'pizza.n.01'
p94
I2
ssg38
(dp95
S'whipped_cream.n.01'
p96
I1
ssg36
(dp97
g37
I1
ssg39
(dp98
g40
I1
ssg44
(dp99
g44
I0
sssb.