ccopy_reg
_reconstructor
p0
(cutils.eval
ConfusionMatrix
p1
c__builtin__
object
p2
Ntp3
Rp4
(dp5
S'labels'
p6
(lp7
S'flesh.n.01'
p8
aS'slice.v.03'
p9
aS'slice.v.02'
p10
aS'cut.v.01'
p11
aS'swerve.v.01'
p12
aS'bacon.n.01'
p13
aS'bacon.n.03'
p14
aS'fill.v.01'
p15
aS'fill.v.09'
p16
aS'pitcher.n.02'
p17
aS'pitcher.n.03'
p18
aS'milk.n.01'
p19
aS'milk.n.04'
p20
aS'put.v.01'
p21
aS'invest.v.01'
p22
aS'pan.n.03'
p23
aS'pan.n.01'
p24
aS'chicken.n.01'
p25
aS'onion.n.01'
p26
aS'pepper.n.04'
p27
aS'cheese.n.01'
p28
aS'meet.v.04'
p29
aS'kettle.n.01'
p30
aS'kettle.n.02'
p31
aS'water.n.06'
p32
aS'water.n.03'
p33
aS'beef.n.02'
p34
aS'beef.n.01'
p35
aS'plate.n.04'
p36
aS'plate.n.12'
p37
aS'pizza.n.01'
p38
aS'frame.v.04'
p39
aS'pepper.n.03'
p40
aS'salt.n.02'
p41
aS'egg.n.02'
p42
aS'testis.n.01'
p43
aS'cabbage.n.01'
p44
aS'piece.n.08'
p45
aS'slice.n.01'
p46
aS'opening.n.01'
p47
aS'gap.n.05'
p48
aS'batter.n.02'
p49
aS'knife.n.01'
p50
aS'banana.n.02'
p51
aS'bread.n.01'
p52
aS'foam.n.01'
p53
aS'mug.n.04'
p54
aS'cake.n.03'
p55
aS'patty.n.01'
p56
aS'whipped_cream.n.01'
p57
aS'lemon.n.01'
p58
aS'lemon.n.04'
p59
aS'meat.n.01'
p60
aS'kernel.n.01'
p61
aS'cleaver.n.01'
p62
asS'instanceCount'
p63
I342
sS'matrix'
p64
(dp65
g37
(dp66
g37
I0
sg12
I0
sg22
I0
sg43
I0
sS'bread.n.01'
p67
I0
sg28
I0
sS'batter.n.02'
p68
I0
sg20
I0
sg25
I0
sS'foam.n.01'
p69
I0
sg19
I0
sg24
I0
sg23
I0
sg11
I0
sg39
I0
sg16
I0
sg42
I0
sS'whipped_cream.n.01'
p70
I0
sg34
I0
sg14
I0
sg13
I0
sg15
I0
sg18
I0
sg17
I0
sS'lemon.n.04'
p71
I0
sS'meat.n.01'
p72
I0
sg41
I0
sS'cleaver.n.01'
p73
I0
sg10
I0
sg9
I0
sg44
I0
sS'lemon.n.01'
p74
I0
sS'banana.n.02'
p75
I0
sg36
I0
sg27
I0
sg29
I0
sg40
I0
sS'knife.n.01'
p76
I0
sS'gap.n.05'
p77
I0
sS'patty.n.01'
p78
I0
sg45
I0
sS'opening.n.01'
p79
I0
sS'mug.n.04'
p80
I0
sg8
I0
sg33
I0
sg46
I0
sg32
I0
sg21
I0
sg38
I0
sg31
I0
sg30
I0
sS'cake.n.03'
p81
I0
sg35
I0
sg26
I0
sS'kernel.n.01'
p82
I0
ssg22
(dp83
g37
I0
sg22
I0
sg12
I0
sg28
I0
sg43
I0
sg52
I0
sg49
I0
sg20
I0
sg25
I0
sg53
I0
sg19
I0
sg24
I0
sg23
I0
sg11
I0
sg39
I0
sg16
I0
sg42
I0
sg57
I0
sg34
I0
sg14
I0
sg13
I0
sg15
I0
sg18
I0
sg17
I0
sg59
I0
sg60
I0
sg41
I0
sg62
I0
sg10
I0
sg9
I0
sg44
I0
sg58
I0
sg51
I0
sg36
I0
sg27
I0
sg29
I0
sg40
I0
sg50
I0
sg48
I0
sg56
I0
sg45
I0
sg47
I0
sg54
I0
sg8
I0
sg33
I0
sg46
I0
sg32
I0
sg21
I0
sg38
I0
sg31
I0
sg30
I0
sg55
I0
sg35
I0
sg26
I0
sg61
I0
ssg12
(dp84
g37
I0
sg22
I0
sg12
I0
sg28
I0
sg43
I0
sg52
I0
sg49
I0
sg20
I0
sg25
I0
sg53
I0
sg19
I0
sg24
I0
sg23
I0
sg11
I0
sg39
I0
sg16
I0
sg42
I0
sg57
I0
sg34
I0
sg14
I0
sg13
I0
sg15
I0
sg18
I0
sg17
I0
sg59
I0
sg60
I0
sg41
I0
sg62
I0
sg10
I0
sg9
I0
sg44
I0
sg58
I0
sg51
I0
sg36
I0
sg27
I0
sg29
I0
sg40
I0
sg50
I0
sg48
I0
sg56
I0
sg45
I0
sg47
I0
sg54
I0
sg8
I0
sg33
I0
sg46
I0
sg32
I0
sg21
I0
sg38
I0
sg31
I0
sg30
I0
sg55
I0
sg35
I0
sg26
I0
sg61
I0
ssg28
(dp85
g37
I0
sg28
I6
sg12
I0
sg22
I0
sg43
I0
sg67
I0
sg68
I0
sg20
I0
sg25
I0
sg69
I0
sg19
I0
sg24
I0
sg23
I0
sg11
I0
sg39
I0
sg16
I0
sg42
I0
sS'whipped_cream.n.01'
p86
I0
sg34
I0
sg14
I0
sg13
I0
sg15
I0
sg18
I0
sg17
I0
sS'lemon.n.04'
p87
I0
sg72
I0
sg41
I0
sg73
I0
sg10
I0
sg9
I0
sg44
I0
sS'lemon.n.01'
p88
I0
sg75
I0
sg36
I0
sg27
I0
sg29
I0
sg40
I0
sg76
I0
sg77
I0
sS'patty.n.01'
p89
I0
sg45
I0
sg79
I0
sg80
I0
sg8
I0
sg33
I0
sg46
I0
sg32
I0
sg21
I0
sg38
I0
sg31
I0
sg30
I0
sS'cake.n.03'
p90
I0
sg35
I0
sg26
I0
sg82
I0
ssg43
(dp91
g37
I0
sg22
I0
sg12
I0
sg28
I0
sg43
I0
sg52
I0
sg49
I0
sg20
I0
sg25
I0
sg53
I0
sg19
I0
sg24
I0
sg23
I0
sg11
I0
sg39
I0
sg16
I0
sg42
I0
sg57
I0
sg34
I0
sg14
I0
sg13
I0
sg15
I0
sg18
I0
sg17
I0
sg59
I0
sg60
I0
sg41
I0
sg62
I0
sg10
I0
sg9
I0
sg44
I0
sg58
I0
sg51
I0
sg36
I0
sg27
I0
sg29
I0
sg40
I0
sg50
I0
sg48
I0
sg56
I0
sg45
I0
sg47
I0
sg54
I0
sg8
I0
sg33
I0
sg46
I0
sg32
I0
sg21
I0
sg38
I0
sg31
I0
sg30
I0
sg55
I0
sg35
I0
sg26
I0
sg61
I0
ssg52
(dp92
S'plate.n.12'
p93
I0
sS'invest.v.01'
p94
I0
sS'swerve.v.01'
p95
I0
sS'beef.n.01'
p96
I0
sS'slice.v.03'
p97
I0
sS'bacon.n.03'
p98
I0
sg52
I6
sS'cheese.n.01'
p99
I0
sg49
I0
sS'kettle.n.01'
p100
I0
sS'milk.n.04'
p101
I0
sg50
I0
sg53
I0
sS'milk.n.01'
p102
I0
sS'pan.n.01'
p103
I0
sS'pan.n.03'
p104
I0
sS'cut.v.01'
p105
I0
sS'frame.v.04'
p106
I0
sS'fill.v.09'
p107
I0
sS'egg.n.02'
p108
I0
sS'beef.n.02'
p109
I0
sS'testis.n.01'
p110
I0
sS'bacon.n.01'
p111
I0
sS'fill.v.01'
p112
I0
sS'pitcher.n.03'
p113
I0
sS'pitcher.n.02'
p114
I0
sg59
I0
sg60
I0
sg62
I0
sS'slice.v.02'
p115
I0
sS'salt.n.02'
p116
I0
sS'cabbage.n.01'
p117
I0
sg51
I0
sS'plate.n.04'
p118
I0
sS'pepper.n.04'
p119
I0
sS'meet.v.04'
p120
I0
sS'pepper.n.03'
p121
I0
sS'chicken.n.01'
p122
I0
sg48
I0
sg56
I0
sS'piece.n.08'
p123
I0
sg47
I0
sg54
I0
sS'flesh.n.01'
p124
I0
sS'water.n.03'
p125
I0
sS'slice.n.01'
p126
I0
sS'water.n.06'
p127
I0
sS'put.v.01'
p128
I0
sS'pizza.n.01'
p129
I0
sS'kettle.n.02'
p130
I0
sg57
I0
sg55
I0
sg58
I0
sS'onion.n.01'
p131
I0
sg61
I0
ssg49
(dp132
g93
I0
sg94
I0
sg95
I0
sg96
I0
sg97
I0
sg98
I0
sg52
I0
sg99
I0
sg49
I6
sg100
I0
sS'milk.n.04'
p133
I0
sg50
I0
sg53
I0
sS'milk.n.01'
p134
I0
sg103
I0
sg104
I0
sg105
I0
sg106
I0
sg107
I0
sg108
I0
sg109
I0
sg110
I0
sg111
I0
sg112
I0
sS'pitcher.n.03'
p135
I0
sS'pitcher.n.02'
p136
I0
sg59
I0
sg60
I0
sg62
I0
sg115
I0
sg116
I0
sg117
I0
sg51
I0
sg118
I0
sg119
I0
sg120
I0
sg121
I0
sS'chicken.n.01'
p137
I0
sg48
I0
sg56
I0
sg123
I0
sg47
I0
sg54
I0
sg124
I0
sg125
I0
sg126
I0
sg127
I0
sg128
I0
sg129
I0
sg130
I0
sg57
I0
sg55
I0
sg58
I0
sg131
I0
sg61
I0
ssg20
(dp138
g37
I0
sg22
I0
sg12
I0
sg28
I0
sg43
I0
sS'bread.n.01'
p139
I0
sS'batter.n.02'
p140
I0
sg20
I0
sg25
I0
sg89
I0
sg19
I0
sg24
I0
sg23
I0
sg11
I0
sg39
I0
sg16
I0
sg42
I0
sg86
I0
sg34
I0
sg14
I0
sg13
I0
sg15
I0
sg18
I0
sg17
I0
sg87
I0
sg72
I0
sg41
I0
sg73
I0
sg10
I0
sg9
I0
sg44
I0
sg88
I0
sS'banana.n.02'
p141
I0
sg36
I0
sg27
I0
sg29
I0
sg40
I0
sS'knife.n.01'
p142
I0
sS'foam.n.01'
p143
I0
sS'gap.n.05'
p144
I0
sg45
I0
sS'opening.n.01'
p145
I0
sS'mug.n.04'
p146
I0
sg8
I0
sg33
I0
sg46
I0
sg32
I0
sg21
I0
sg38
I0
sg31
I0
sg30
I0
sg90
I0
sg35
I0
sg26
I0
sg82
I0
ssg25
(dp147
g37
I0
sg22
I0
sg25
I6
sg28
I0
sg43
I0
sg139
I0
sg140
I0
sg20
I0
sg12
I0
sg89
I0
sg19
I0
sg24
I0
sg23
I0
sg11
I0
sg39
I0
sg16
I0
sg42
I0
sg86
I0
sg34
I0
sg14
I0
sg13
I0
sg15
I0
sg18
I0
sg17
I0
sg87
I0
sg72
I0
sg41
I0
sg73
I0
sg10
I0
sg9
I0
sg44
I0
sg88
I0
sg141
I0
sg36
I0
sg27
I0
sg29
I0
sg40
I0
sg142
I0
sg143
I0
sg144
I0
sg45
I0
sg145
I0
sg146
I0
sg8
I0
sg33
I0
sg46
I0
sg32
I0
sg21
I0
sg38
I0
sg31
I0
sg30
I0
sg90
I0
sg35
I0
sg26
I0
sg82
I0
ssg53
(dp148
g93
I0
sg94
I0
sg95
I0
sg96
I0
sg97
I0
sg98
I0
sg52
I0
sg99
I0
sg49
I0
sg100
I0
sg101
I0
sg50
I0
sg53
I6
sg102
I0
sg103
I0
sg104
I0
sg105
I0
sg106
I0
sg107
I0
sg108
I0
sg109
I0
sg110
I0
sg111
I0
sg112
I0
sg113
I0
sg114
I0
sg59
I0
sg60
I0
sg62
I0
sg115
I0
sg116
I0
sg117
I0
sg51
I0
sg118
I0
sg119
I0
sg120
I0
sg121
I0
sg122
I0
sg48
I0
sg56
I0
sg123
I0
sg47
I0
sg54
I0
sg124
I0
sg125
I0
sg126
I0
sg127
I0
sg128
I0
sg129
I0
sg130
I0
sg57
I0
sg55
I0
sg58
I0
sg131
I0
sg61
I0
ssg19
(dp149
g37
I0
sg22
I0
sg12
I0
sg28
I0
sg43
I0
sg139
I0
sg140
I0
sg20
I6
sg25
I0
sg89
I0
sg19
I0
sg24
I0
sg23
I0
sg11
I0
sg39
I0
sg16
I0
sg42
I0
sg86
I0
sg34
I0
sg14
I0
sg13
I0
sg15
I0
sg18
I0
sg17
I0
sg87
I0
sg72
I0
sg41
I0
sg73
I0
sg10
I0
sg9
I0
sg44
I0
sg88
I0
sg141
I0
sg36
I0
sg27
I0
sg29
I0
sg40
I0
sg142
I0
sg143
I0
sg144
I0
sg45
I0
sg145
I0
sg146
I0
sg8
I0
sg33
I0
sg46
I0
sg32
I0
sg21
I0
sg38
I0
sg31
I0
sg30
I0
sg90
I0
sg35
I0
sg26
I0
sg82
I0
ssg24
(dp150
g37
I0
sg22
I0
sg12
I0
sg28
I0
sg43
I0
sg52
I0
sg49
I0
sg20
I0
sg25
I0
sg53
I0
sg19
I0
sg24
I6
sg23
I0
sg11
I0
sg39
I0
sg16
I0
sg42
I0
sg57
I0
sg34
I0
sg14
I0
sg13
I0
sg15
I0
sg18
I0
sg17
I0
sg59
I0
sg60
I0
sg41
I0
sg62
I0
sg10
I0
sg9
I0
sg44
I0
sg58
I0
sg51
I0
sg36
I0
sg27
I0
sg29
I0
sg40
I0
sg50
I0
sg48
I0
sg56
I0
sg45
I0
sg47
I0
sg54
I0
sg8
I0
sg33
I0
sg46
I0
sg32
I0
sg21
I0
sg38
I0
sg31
I0
sg30
I0
sg55
I0
sg35
I0
sg26
I0
sg61
I0
ssg23
(dp151
g37
I0
sg22
I0
sg12
I0
sg28
I0
sg43
I0
sg52
I0
sg49
I0
sg20
I0
sg25
I0
sg53
I0
sg19
I0
sg24
I12
sg23
I0
sg11
I0
sg39
I0
sg16
I0
sg42
I0
sg57
I0
sg34
I0
sg14
I0
sg13
I0
sg15
I0
sg18
I0
sg17
I0
sg59
I0
sg60
I0
sg41
I0
sg62
I0
sg10
I0
sg9
I0
sg44
I0
sg58
I0
sg51
I0
sg36
I0
sg27
I0
sg29
I0
sg40
I0
sg50
I0
sg48
I0
sg56
I0
sg45
I0
sg47
I0
sg54
I0
sg8
I0
sg33
I0
sg46
I0
sg32
I0
sg21
I0
sg38
I0
sg31
I0
sg30
I0
sg55
I0
sg35
I0
sg26
I0
sg61
I0
ssg11
(dp152
g37
I0
sg22
I0
sg12
I30
sg28
I0
sg43
I0
sg52
I0
sg49
I0
sg20
I0
sg25
I0
sg53
I0
sg19
I0
sg24
I0
sg23
I0
sg11
I0
sg39
I0
sg16
I0
sg42
I0
sg57
I0
sg34
I0
sg14
I0
sg13
I0
sg15
I0
sg18
I0
sg17
I0
sg59
I0
sg60
I0
sg41
I0
sg62
I0
sg10
I0
sg9
I0
sg44
I0
sg58
I0
sg51
I0
sg36
I0
sg27
I0
sg29
I0
sg40
I0
sg50
I0
sg48
I0
sg56
I0
sg45
I0
sg47
I0
sg54
I0
sg8
I0
sg33
I0
sg46
I0
sg32
I0
sg21
I0
sg38
I0
sg31
I0
sg30
I0
sg55
I0
sg35
I0
sg26
I0
sg61
I0
ssg39
(dp153
g37
I0
sg22
I0
sg12
I0
sg28
I0
sg43
I0
sg52
I0
sg49
I0
sg20
I0
sg25
I0
sg53
I0
sg19
I0
sg24
I0
sg23
I0
sg11
I0
sg39
I0
sg16
I0
sg42
I0
sg57
I0
sg34
I0
sg14
I0
sg13
I0
sg15
I0
sg18
I0
sg17
I0
sg59
I0
sg60
I0
sg41
I0
sg62
I0
sg10
I0
sg9
I0
sg44
I0
sg58
I0
sg51
I0
sg36
I0
sg27
I0
sg29
I0
sg40
I0
sg50
I0
sg48
I0
sg56
I0
sg45
I0
sg47
I0
sg54
I0
sg8
I0
sg33
I0
sg46
I0
sg32
I0
sg21
I0
sg38
I0
sg31
I0
sg30
I0
sg55
I0
sg35
I0
sg26
I0
sg61
I0
ssg16
(dp154
g37
I0
sg22
I0
sg12
I0
sg28
I0
sg43
I0
sg52
I0
sg49
I0
sg20
I0
sg25
I0
sg53
I0
sg19
I0
sg24
I0
sg23
I0
sg11
I0
sg39
I0
sg16
I6
sg42
I0
sg57
I0
sg34
I0
sg14
I0
sg13
I0
sg15
I0
sg18
I0
sg17
I0
sg59
I0
sg60
I0
sg41
I0
sg62
I0
sg10
I0
sg9
I0
sg44
I0
sg58
I0
sg51
I0
sg36
I0
sg27
I0
sg29
I0
sg40
I0
sg50
I0
sg48
I0
sg56
I0
sg45
I0
sg47
I0
sg54
I0
sg8
I0
sg33
I0
sg46
I0
sg32
I0
sg21
I0
sg38
I0
sg31
I0
sg30
I0
sg55
I0
sg35
I0
sg26
I0
sg61
I0
ssg42
(dp155
g37
I0
sg22
I0
sg12
I0
sg28
I0
sg43
I6
sg52
I0
sg49
I0
sg20
I0
sg25
I0
sg53
I0
sg19
I0
sg24
I0
sg23
I0
sg11
I0
sg39
I0
sg16
I0
sg42
I0
sg57
I0
sg34
I0
sg14
I0
sg13
I0
sg15
I0
sg18
I0
sg17
I0
sg59
I0
sg60
I0
sg41
I0
sg62
I0
sg10
I0
sg9
I0
sg44
I0
sg58
I0
sg51
I0
sg36
I0
sg27
I0
sg29
I0
sg40
I0
sg50
I0
sg48
I0
sg56
I0
sg45
I0
sg47
I0
sg54
I0
sg8
I0
sg33
I0
sg46
I0
sg32
I0
sg21
I0
sg38
I0
sg31
I0
sg30
I0
sg55
I0
sg35
I0
sg26
I0
sg61
I0
ssg57
(dp156
S'plate.n.12'
p157
I0
sg94
I0
sg95
I0
sS'beef.n.01'
p158
I0
sg97
I0
sS'bacon.n.03'
p159
I0
sg52
I0
sS'cheese.n.01'
p160
I0
sg49
I0
sS'kettle.n.01'
p161
I0
sS'milk.n.04'
p162
I0
sg50
I0
sg53
I0
sS'milk.n.01'
p163
I0
sg103
I0
sg104
I0
sg105
I0
sg106
I0
sg107
I0
sg108
I0
sS'beef.n.02'
p164
I0
sg110
I0
sS'bacon.n.01'
p165
I0
sg112
I0
sS'pitcher.n.03'
p166
I0
sS'pitcher.n.02'
p167
I0
sg59
I0
sg60
I0
sg62
I0
sg115
I0
sg116
I0
sg117
I0
sg51
I0
sS'plate.n.04'
p168
I0
sg119
I0
sS'meet.v.04'
p169
I0
sg121
I0
sS'chicken.n.01'
p170
I0
sg48
I0
sg56
I0
sg123
I0
sg47
I0
sg54
I0
sS'flesh.n.01'
p171
I0
sg125
I0
sg126
I0
sg127
I0
sg128
I0
sg129
I0
sS'kettle.n.02'
p172
I0
sg57
I6
sg55
I0
sg58
I0
sS'onion.n.01'
p173
I0
sg61
I0
ssg34
(dp174
g37
I0
sg22
I0
sg12
I0
sg34
I0
sg43
I0
sg67
I0
sg28
I0
sg68
I0
sg20
I0
sg25
I0
sg69
I0
sg19
I0
sg24
I0
sg23
I0
sg11
I0
sg39
I0
sg16
I0
sg42
I0
sg70
I0
sg14
I0
sg13
I0
sg15
I0
sg18
I0
sg17
I0
sg71
I0
sg72
I0
sg41
I0
sg73
I0
sg10
I0
sg9
I0
sg44
I0
sg74
I0
sg75
I0
sg36
I0
sg27
I0
sg29
I0
sg40
I0
sg76
I0
sg77
I0
sg78
I0
sg45
I0
sg79
I0
sg80
I0
sg8
I0
sg33
I0
sg46
I0
sg32
I0
sg21
I0
sg38
I0
sg31
I0
sg30
I0
sg81
I0
sg35
I6
sg26
I0
sg82
I0
ssg14
(dp175
g37
I0
sg22
I0
sg12
I0
sg28
I0
sg43
I0
sg139
I0
sS'batter.n.02'
p176
I0
sg20
I0
sg25
I0
sg89
I0
sg19
I0
sg24
I0
sg23
I0
sg11
I0
sg39
I0
sg16
I0
sg42
I0
sg34
I0
sg14
I0
sg13
I0
sg15
I0
sg18
I0
sg17
I0
sg87
I0
sg72
I0
sg41
I0
sg73
I0
sg10
I0
sg9
I0
sg44
I0
sg88
I0
sS'banana.n.02'
p177
I0
sg36
I0
sg27
I0
sg29
I0
sg40
I0
sS'knife.n.01'
p178
I0
sg143
I0
sg86
I0
sg45
I0
sS'opening.n.01'
p179
I0
sg146
I0
sg8
I0
sg33
I0
sg46
I0
sg32
I0
sg21
I0
sg38
I0
sg31
I0
sg30
I0
sg90
I0
sS'gap.n.05'
p180
I0
sg35
I0
sg26
I0
sg82
I0
ssg13
(dp181
g37
I0
sg22
I0
sg12
I0
sg28
I0
sg43
I0
sg139
I0
sg176
I0
sg20
I0
sg25
I0
sg89
I0
sg19
I0
sg24
I0
sg23
I0
sg11
I0
sg39
I0
sg16
I0
sg42
I0
sg34
I0
sg14
I6
sg13
I0
sg15
I0
sg18
I0
sg17
I0
sg87
I0
sg72
I0
sg41
I0
sg73
I0
sg10
I0
sg9
I0
sg44
I0
sg88
I0
sg177
I0
sg36
I0
sg27
I0
sg29
I0
sg40
I0
sg178
I0
sg143
I0
sg86
I0
sg45
I0
sg179
I0
sg146
I0
sg8
I0
sg33
I0
sg46
I0
sg32
I0
sg21
I0
sg38
I0
sg31
I0
sg30
I0
sg90
I0
sg180
I0
sg35
I0
sg26
I0
sg82
I0
ssg15
(dp182
g37
I0
sg22
I0
sg12
I0
sg28
I0
sg43
I0
sg52
I0
sg49
I0
sg20
I0
sg25
I0
sg53
I0
sg19
I0
sg24
I0
sg23
I0
sg11
I0
sg39
I0
sg16
I18
sg42
I0
sg57
I0
sg34
I0
sg14
I0
sg13
I0
sg15
I0
sg18
I0
sg17
I0
sg59
I0
sg60
I0
sg41
I0
sg62
I0
sg10
I0
sg9
I0
sg44
I0
sg58
I0
sg51
I0
sg36
I0
sg27
I0
sg29
I6
sg40
I0
sg50
I0
sg48
I0
sg56
I0
sg45
I0
sg47
I0
sg54
I0
sg8
I0
sg33
I0
sg46
I0
sg32
I0
sg21
I0
sg38
I0
sg31
I0
sg30
I0
sg55
I0
sg35
I0
sg26
I0
sg61
I0
ssg18
(dp183
g37
I0
sg22
I0
sg12
I0
sg28
I0
sg43
I0
sg139
I0
sg140
I0
sg20
I0
sg25
I0
sg89
I0
sg19
I0
sg24
I0
sg23
I0
sg11
I0
sg39
I0
sg16
I0
sg42
I0
sg86
I0
sg34
I0
sg14
I0
sg13
I0
sg15
I0
sg18
I0
sg17
I0
sg87
I0
sg72
I0
sg41
I0
sg73
I0
sg10
I0
sg9
I0
sg44
I0
sg88
I0
sg141
I0
sg36
I0
sg27
I0
sg29
I0
sg40
I0
sg142
I0
sg143
I0
sg144
I0
sg45
I0
sg145
I0
sg146
I0
sg8
I0
sg33
I0
sg46
I0
sg32
I0
sg21
I0
sg38
I0
sg31
I0
sg30
I0
sg90
I0
sg35
I0
sg26
I0
sg82
I0
ssg17
(dp184
g37
I0
sg22
I0
sg12
I0
sg28
I0
sg43
I0
sg139
I0
sg140
I0
sg20
I0
sg25
I0
sg89
I0
sg19
I0
sg24
I0
sg23
I0
sg11
I0
sg39
I0
sg16
I0
sg42
I0
sg86
I0
sg34
I0
sg14
I0
sg13
I0
sg15
I0
sg18
I6
sg17
I0
sg87
I0
sg72
I0
sg41
I0
sg73
I0
sg10
I0
sg9
I0
sg44
I0
sg88
I0
sg141
I0
sg36
I0
sg27
I0
sg29
I0
sg40
I0
sg142
I0
sg143
I0
sg144
I0
sg45
I0
sg145
I0
sg146
I0
sg8
I0
sg33
I0
sg46
I0
sg32
I0
sg21
I0
sg38
I0
sg31
I0
sg30
I0
sg90
I0
sg35
I0
sg26
I0
sg82
I0
ssg59
(dp185
g157
I0
sg94
I0
sg95
I0
sg158
I0
sg97
I0
sg159
I0
sg52
I0
sg160
I0
sg49
I0
sg162
I0
sg50
I0
sg53
I0
sg163
I0
sg103
I0
sg104
I0
sg105
I0
sg106
I0
sg107
I0
sg108
I0
sg57
I0
sg164
I0
sg110
I0
sg165
I0
sg112
I0
sg166
I0
sg167
I0
sg161
I0
sg60
I0
sg62
I0
sg115
I0
sg116
I0
sg117
I0
sg51
I0
sg168
I0
sg119
I0
sg169
I0
sg121
I0
sg170
I0
sg48
I0
sg56
I0
sg123
I0
sg47
I0
sg54
I0
sg171
I0
sg125
I0
sg126
I0
sg127
I0
sg128
I0
sg129
I0
sg172
I0
sg59
I0
sg55
I0
sg58
I0
sg173
I0
sg61
I0
ssg60
(dp186
S'plate.n.12'
p187
I0
sg94
I0
sg95
I0
sS'beef.n.01'
p188
I0
sg97
I0
sg159
I0
sg52
I0
sg160
I0
sg49
I0
sS'kettle.n.01'
p189
I0
sg162
I0
sg50
I0
sg53
I0
sg163
I0
sg103
I0
sg104
I0
sg105
I0
sg106
I0
sg107
I0
sg108
I0
sS'beef.n.02'
p190
I0
sg110
I0
sg165
I0
sg112
I0
sg166
I0
sg167
I0
sg59
I0
sg60
I0
sg62
I0
sg115
I0
sg116
I0
sg117
I0
sg51
I0
sS'plate.n.04'
p191
I0
sg119
I0
sS'meet.v.04'
p192
I0
sg121
I0
sg170
I0
sg48
I0
sg56
I0
sg123
I0
sg47
I0
sg54
I0
sg171
I0
sg125
I0
sg126
I0
sg127
I0
sg128
I0
sg129
I0
sS'kettle.n.02'
p193
I0
sg57
I0
sg55
I0
sg58
I0
sS'onion.n.01'
p194
I0
sg61
I6
ssg41
(dp195
g37
I0
sg22
I0
sg12
I0
sg9
I0
sg43
I0
sg52
I0
sg28
I0
sg49
I0
sg20
I0
sg25
I0
sg53
I0
sg19
I0
sg24
I0
sg23
I0
sg11
I0
sg39
I0
sg16
I0
sg42
I0
sg57
I0
sg34
I0
sg14
I0
sg13
I0
sg15
I0
sg18
I0
sg17
I0
sg59
I0
sg60
I0
sg62
I0
sg10
I0
sg41
I6
sg44
I0
sg58
I0
sg51
I0
sg36
I0
sg27
I0
sg29
I0
sg40
I0
sg50
I0
sg48
I0
sg56
I0
sg45
I0
sg47
I0
sg54
I0
sg8
I0
sg33
I0
sg46
I0
sg32
I0
sg21
I0
sg38
I0
sg31
I0
sg30
I0
sg55
I0
sg35
I0
sg26
I0
sg61
I0
ssg62
(dp196
g187
I0
sg94
I0
sg95
I0
sg188
I0
sg97
I0
sg159
I0
sg52
I0
sg160
I0
sg49
I0
sg189
I0
sg162
I0
sg50
I0
sg53
I0
sg163
I0
sg103
I0
sg104
I0
sg105
I0
sg106
I0
sg107
I0
sg108
I0
sg190
I0
sg110
I0
sg165
I0
sg112
I0
sg166
I0
sg167
I0
sg59
I0
sg62
I6
sg60
I0
sg115
I0
sg116
I0
sg117
I0
sg51
I0
sg191
I0
sg119
I0
sg192
I0
sg121
I0
sg170
I0
sg48
I0
sg56
I0
sg123
I0
sg47
I0
sg54
I0
sg171
I0
sg125
I0
sg126
I0
sg127
I0
sg128
I0
sg129
I0
sg193
I0
sg57
I0
sg55
I0
sg58
I0
sg194
I0
sg61
I0
ssg10
(dp197
g37
I0
sg22
I0
sg12
I0
sg28
I0
sg43
I0
sg52
I0
sg49
I0
sg20
I0
sg25
I0
sg53
I0
sg19
I0
sg24
I0
sg23
I0
sg11
I0
sg39
I0
sg16
I0
sg42
I0
sg57
I0
sg34
I0
sg14
I0
sg13
I0
sg15
I0
sg18
I0
sg17
I0
sg59
I0
sg60
I0
sg41
I0
sg62
I0
sg10
I0
sg9
I0
sg44
I0
sg58
I0
sg51
I0
sg36
I0
sg27
I0
sg29
I0
sg40
I0
sg50
I0
sg48
I0
sg56
I0
sg45
I0
sg47
I0
sg54
I0
sg8
I0
sg33
I0
sg46
I0
sg32
I0
sg21
I0
sg38
I0
sg31
I0
sg30
I0
sg55
I0
sg35
I0
sg26
I0
sg61
I0
ssg9
(dp198
g37
I0
sg22
I0
sg12
I0
sg28
I0
sg43
I0
sg52
I0
sg49
I0
sg20
I0
sg25
I0
sg53
I0
sg19
I0
sg24
I0
sg23
I0
sg11
I0
sg39
I0
sg16
I0
sg42
I0
sg57
I0
sg34
I0
sg14
I0
sg13
I0
sg15
I0
sg18
I0
sg17
I0
sg59
I0
sg60
I0
sg41
I0
sg62
I0
sg10
I30
sg9
I0
sg44
I0
sg58
I0
sg51
I0
sg36
I0
sg27
I0
sg29
I0
sg40
I0
sg50
I0
sg48
I0
sg56
I0
sg45
I0
sg47
I0
sg54
I0
sg8
I0
sg33
I0
sg46
I0
sg32
I0
sg21
I0
sg38
I0
sg31
I0
sg30
I0
sg55
I0
sg35
I0
sg26
I0
sg61
I0
ssg44
(dp199
g37
I0
sg22
I0
sg25
I0
sg28
I0
sg43
I0
sg52
I0
sg49
I0
sg20
I0
sg12
I0
sg53
I0
sg19
I0
sg24
I0
sg23
I0
sg11
I0
sg39
I0
sg16
I0
sg42
I0
sg57
I0
sg34
I0
sg14
I0
sg13
I0
sg15
I0
sg18
I0
sg17
I0
sg59
I0
sg60
I0
sg41
I0
sg62
I0
sg10
I0
sg9
I0
sg44
I6
sg58
I0
sg51
I0
sg36
I0
sg27
I0
sg29
I0
sg40
I0
sg50
I0
sg48
I0
sg56
I0
sg45
I0
sg47
I0
sg54
I0
sg8
I0
sg33
I0
sg46
I0
sg32
I0
sg21
I0
sg38
I0
sg31
I0
sg30
I0
sg55
I0
sg35
I0
sg26
I0
sg61
I0
ssg58
(dp200
g157
I0
sg94
I0
sg95
I0
sg158
I0
sg97
I0
sg159
I0
sg52
I0
sg160
I0
sg49
I0
sg161
I0
sg162
I0
sg50
I0
sg53
I0
sg163
I0
sg103
I0
sg104
I0
sg105
I0
sg106
I0
sg107
I0
sg108
I0
sg164
I0
sg110
I0
sg165
I0
sg112
I0
sg166
I0
sg167
I0
sg59
I6
sg60
I0
sg62
I0
sg115
I0
sg116
I0
sg117
I0
sg51
I0
sg168
I0
sg119
I0
sg169
I0
sg121
I0
sg170
I0
sg48
I0
sg56
I0
sg123
I0
sg47
I0
sg54
I0
sg171
I0
sg125
I0
sg126
I0
sg127
I0
sg128
I0
sg129
I0
sg172
I0
sg57
I0
sg55
I0
sg58
I0
sg173
I0
sg61
I0
ssg51
(dp201
g93
I0
sg94
I0
sg95
I0
sg96
I0
sg97
I0
sg98
I0
sg52
I0
sg99
I0
sg49
I0
sg100
I0
sg133
I0
sg50
I0
sg53
I0
sg134
I0
sg103
I0
sg104
I0
sg105
I0
sg106
I0
sg107
I0
sg108
I0
sg109
I0
sg110
I0
sg111
I0
sg112
I0
sg135
I0
sg136
I0
sg59
I0
sg60
I0
sg62
I0
sg115
I0
sg116
I0
sg117
I0
sg51
I6
sg118
I0
sg119
I0
sg120
I0
sg121
I0
sg137
I0
sg48
I0
sg56
I0
sg123
I0
sg47
I0
sg54
I0
sg124
I0
sg125
I0
sg126
I0
sg127
I0
sg128
I0
sg129
I0
sg130
I0
sg57
I0
sg55
I0
sg58
I0
sg131
I0
sg61
I0
ssg36
(dp202
g37
I6
sg22
I0
sg12
I0
sg28
I0
sg43
I0
sg67
I0
sg68
I0
sg20
I0
sg25
I0
sg69
I0
sg19
I0
sg24
I0
sg23
I0
sg11
I0
sg39
I0
sg16
I0
sg42
I0
sg70
I0
sg34
I0
sg14
I0
sg13
I0
sg15
I0
sg18
I0
sg17
I0
sg71
I0
sg72
I0
sg41
I0
sg73
I0
sg10
I0
sg9
I0
sg44
I0
sg74
I0
sg75
I0
sg36
I0
sg27
I0
sg29
I0
sg40
I0
sg76
I0
sg77
I0
sg78
I0
sg45
I0
sg79
I0
sg80
I0
sg8
I0
sg33
I0
sg46
I0
sg32
I0
sg21
I0
sg38
I0
sg31
I0
sg30
I0
sg81
I0
sg35
I0
sg26
I0
sg82
I0
ssg27
(dp203
g37
I0
sg22
I0
sg12
I0
sg28
I0
sg43
I0
sg52
I0
sg49
I0
sg20
I0
sg25
I0
sg53
I0
sg19
I0
sg24
I0
sg23
I0
sg11
I0
sg39
I0
sg16
I0
sg42
I0
sg57
I0
sg34
I0
sg14
I0
sg13
I0
sg15
I0
sg18
I0
sg17
I0
sg59
I0
sg60
I0
sg41
I0
sg62
I0
sg10
I0
sg9
I0
sg44
I0
sg58
I0
sg51
I0
sg36
I0
sg27
I6
sg29
I0
sg40
I0
sg50
I0
sg48
I0
sg56
I0
sg45
I0
sg47
I0
sg54
I0
sg8
I0
sg33
I0
sg46
I0
sg32
I0
sg21
I0
sg38
I0
sg31
I0
sg30
I0
sg55
I0
sg35
I0
sg26
I0
sg61
I0
ssg29
(dp204
g37
I0
sg22
I0
sg12
I0
sg28
I0
sg43
I0
sg67
I0
sg68
I0
sg20
I0
sg25
I0
sg69
I0
sg19
I0
sg24
I0
sg23
I0
sg11
I0
sg39
I0
sg16
I0
sg42
I0
sg70
I0
sg34
I0
sg14
I0
sg13
I0
sg15
I0
sg18
I0
sg17
I0
sg71
I0
sg72
I0
sg41
I0
sg73
I0
sg10
I0
sg9
I0
sg44
I0
sg74
I0
sg75
I0
sg36
I0
sg27
I0
sg29
I0
sg40
I0
sg76
I0
sg77
I0
sg78
I0
sg45
I0
sg79
I0
sg80
I0
sg8
I0
sg33
I0
sg46
I0
sg32
I0
sg21
I0
sg38
I0
sg31
I0
sg30
I0
sg81
I0
sg35
I0
sg26
I0
sg82
I0
ssg40
(dp205
g37
I0
sg22
I0
sg12
I0
sg28
I0
sg43
I0
sg52
I0
sg49
I0
sg20
I0
sg25
I0
sg53
I0
sg19
I0
sg24
I0
sg23
I0
sg11
I0
sg39
I0
sg16
I0
sg42
I0
sg57
I0
sg34
I0
sg14
I0
sg13
I0
sg15
I0
sg18
I0
sg17
I0
sg59
I0
sg60
I0
sg41
I0
sg62
I0
sg10
I0
sg9
I0
sg44
I0
sg58
I0
sg51
I0
sg36
I0
sg27
I6
sg29
I0
sg40
I0
sg50
I0
sg48
I0
sg56
I0
sg45
I0
sg47
I0
sg54
I0
sg8
I0
sg33
I0
sg46
I0
sg32
I0
sg21
I0
sg38
I0
sg31
I0
sg30
I0
sg55
I0
sg35
I0
sg26
I0
sg61
I0
ssg50
(dp206
g93
I0
sg94
I0
sg95
I0
sg96
I0
sg97
I0
sg98
I0
sg52
I0
sg99
I0
sg49
I0
sg100
I0
sg133
I0
sg117
I0
sg53
I0
sg134
I0
sg103
I0
sg104
I0
sg105
I0
sg106
I0
sg107
I0
sg108
I0
sg109
I0
sg110
I0
sg111
I0
sg112
I0
sg135
I0
sg136
I0
sg59
I0
sg60
I0
sg62
I0
sg115
I0
sg116
I0
sg50
I12
sg51
I0
sg118
I0
sg119
I0
sg120
I0
sg121
I0
sg137
I0
sg48
I0
sg56
I0
sg123
I0
sg47
I0
sg54
I0
sg124
I0
sg125
I0
sg126
I0
sg127
I0
sg128
I0
sg129
I0
sg130
I0
sg57
I0
sg55
I0
sg58
I0
sg131
I0
sg61
I0
ssg48
(dp207
g93
I0
sg94
I0
sg95
I0
sg96
I0
sg97
I0
sg98
I0
sg52
I0
sg99
I0
sg49
I0
sg100
I0
sg133
I0
sg50
I0
sg53
I0
sg134
I0
sg103
I0
sg104
I0
sg48
I0
sg106
I0
sg107
I0
sg108
I0
sg109
I0
sg110
I0
sg111
I0
sg112
I0
sg135
I0
sg136
I0
sg59
I0
sg60
I0
sg62
I0
sg115
I0
sg116
I0
sg117
I0
sg51
I0
sg118
I0
sg119
I0
sg120
I0
sg121
I0
sg137
I0
sg105
I0
sg56
I0
sg123
I0
sg47
I0
sg54
I0
sg124
I0
sg125
I0
sg126
I0
sg127
I0
sg128
I0
sg129
I0
sg130
I0
sg57
I0
sg55
I0
sg58
I0
sg131
I0
sg61
I0
ssg56
(dp208
g157
I0
sg94
I0
sg95
I0
sg158
I0
sg97
I0
sg159
I0
sg52
I0
sg160
I0
sg49
I0
sg161
I0
sg162
I0
sg50
I0
sg112
I0
sg163
I0
sg103
I0
sg104
I0
sg105
I0
sg106
I0
sg107
I0
sg108
I0
sg164
I0
sg110
I0
sg165
I0
sg56
I0
sg166
I0
sg167
I0
sg59
I0
sg60
I0
sg62
I0
sg115
I0
sg116
I0
sg117
I0
sg51
I0
sg168
I0
sg119
I0
sg169
I0
sg121
I0
sg53
I0
sg170
I0
sg48
I0
sg123
I0
sg47
I0
sg54
I0
sg171
I0
sg125
I0
sg126
I0
sg127
I0
sg128
I0
sg129
I0
sg172
I0
sg57
I0
sg55
I0
sg58
I0
sg173
I0
sg61
I0
ssg45
(dp209
g37
I0
sg22
I0
sg12
I0
sg28
I0
sg43
I0
sg52
I0
sg49
I0
sg20
I0
sg25
I0
sg53
I0
sg19
I0
sg24
I0
sg23
I0
sg11
I0
sg39
I0
sg16
I0
sg42
I0
sg57
I0
sg34
I0
sg14
I0
sg13
I0
sg15
I0
sg18
I0
sg17
I0
sg59
I0
sg60
I0
sg41
I0
sg62
I0
sg10
I0
sg9
I0
sg44
I0
sg58
I0
sg51
I0
sg36
I0
sg27
I0
sg29
I0
sg40
I0
sg50
I0
sg48
I0
sg56
I0
sg45
I0
sg47
I0
sg54
I0
sg8
I0
sg33
I0
sg46
I6
sg32
I0
sg21
I0
sg38
I0
sg31
I0
sg30
I0
sg55
I0
sg35
I0
sg26
I0
sg61
I0
ssg47
(dp210
g93
I0
sg94
I0
sg95
I0
sg96
I0
sg97
I0
sg98
I0
sg52
I0
sg99
I0
sg49
I0
sg100
I0
sg133
I0
sg50
I0
sg53
I0
sg134
I0
sg103
I0
sg104
I0
sg105
I0
sg106
I0
sg107
I0
sg108
I0
sg109
I0
sg110
I0
sg111
I0
sg112
I0
sg135
I0
sg136
I0
sg59
I0
sg60
I0
sg62
I0
sg115
I0
sg116
I0
sg117
I0
sg51
I0
sg118
I0
sg119
I0
sg120
I0
sg121
I0
sg137
I0
sg48
I6
sg56
I0
sg123
I0
sg47
I0
sg54
I0
sg124
I0
sg125
I0
sg126
I0
sg127
I0
sg128
I0
sg129
I0
sg130
I0
sg57
I0
sg55
I0
sg58
I0
sg131
I0
sg61
I0
ssg54
(dp211
g93
I0
sg94
I0
sg95
I0
sg96
I0
sg116
I0
sg98
I0
sg52
I0
sg99
I0
sg49
I0
sg100
I0
sg101
I0
sg50
I0
sg53
I0
sg102
I0
sg103
I0
sg104
I0
sg105
I0
sg106
I0
sg107
I0
sg108
I0
sg109
I0
sg110
I0
sg111
I0
sg112
I0
sg113
I0
sg114
I0
sg59
I0
sg60
I0
sg62
I0
sg115
I0
sg97
I0
sg117
I0
sg51
I0
sg118
I0
sg119
I0
sg120
I0
sg121
I0
sg122
I0
sg48
I0
sg56
I0
sg123
I0
sg47
I0
sg54
I6
sg124
I0
sg125
I0
sg126
I0
sg127
I0
sg128
I0
sg129
I0
sg130
I0
sg57
I0
sg55
I0
sg58
I0
sg131
I0
sg61
I0
ssg8
(dp212
g37
I0
sg22
I0
sg12
I0
sg28
I0
sg43
I0
sg139
I0
sg176
I0
sg20
I0
sg25
I0
sg89
I0
sg19
I0
sg24
I0
sg23
I0
sg11
I0
sg39
I0
sg16
I0
sg42
I0
sg34
I0
sg14
I0
sg13
I0
sg15
I0
sg18
I0
sg17
I0
sg87
I0
sg72
I0
sg41
I0
sg73
I0
sg10
I0
sg9
I0
sg44
I0
sg88
I0
sg177
I0
sg36
I0
sg27
I0
sg29
I0
sg40
I0
sg178
I0
sg143
I0
sg86
I0
sg45
I0
sg179
I0
sg146
I0
sg8
I6
sg33
I0
sg46
I0
sg32
I0
sg21
I0
sg38
I0
sg31
I0
sg30
I0
sg90
I0
sg180
I0
sg35
I0
sg26
I0
sg82
I0
ssg33
(dp213
g37
I0
sg22
I0
sg12
I0
sg28
I0
sg43
I0
sg52
I0
sg49
I0
sg20
I0
sg25
I0
sg53
I0
sg19
I0
sg24
I0
sg23
I0
sg11
I0
sg39
I0
sg16
I0
sg42
I0
sg57
I0
sg34
I0
sg14
I0
sg13
I0
sg15
I0
sg18
I0
sg17
I0
sg59
I0
sg60
I0
sg41
I0
sg62
I0
sg10
I0
sg9
I0
sg44
I0
sg58
I0
sg51
I0
sg36
I0
sg27
I0
sg29
I0
sg40
I0
sg50
I0
sg48
I0
sg56
I0
sg45
I0
sg47
I0
sg54
I0
sg8
I0
sg33
I0
sg46
I0
sg32
I0
sg21
I0
sg38
I0
sg31
I0
sg30
I0
sg55
I0
sg35
I0
sg26
I0
sg61
I0
ssg46
(dp214
g37
I0
sg22
I0
sg12
I0
sg28
I0
sg43
I0
sg52
I0
sg49
I0
sg20
I0
sg25
I0
sg53
I0
sg19
I0
sg24
I0
sg23
I0
sg11
I0
sg39
I0
sg16
I0
sg42
I0
sg57
I0
sg34
I0
sg14
I0
sg13
I0
sg15
I0
sg18
I0
sg17
I0
sg59
I0
sg60
I0
sg41
I0
sg62
I0
sg10
I0
sg9
I0
sg44
I0
sg58
I0
sg51
I0
sg36
I0
sg27
I0
sg29
I0
sg40
I0
sg50
I0
sg48
I0
sg56
I0
sg45
I0
sg47
I0
sg54
I0
sg8
I0
sg33
I0
sg46
I0
sg32
I0
sg21
I0
sg38
I0
sg31
I0
sg30
I0
sg55
I0
sg35
I0
sg26
I0
sg61
I0
ssg32
(dp215
g37
I0
sg22
I0
sg12
I0
sg28
I0
sg43
I0
sg52
I0
sg49
I0
sg20
I0
sg25
I0
sg53
I0
sg19
I0
sg24
I0
sg23
I0
sg11
I0
sg39
I0
sg16
I0
sg42
I0
sg57
I0
sg34
I0
sg14
I0
sg13
I0
sg15
I0
sg18
I0
sg17
I0
sg59
I0
sg60
I0
sg41
I0
sg62
I0
sg10
I0
sg9
I0
sg44
I0
sg58
I0
sg51
I0
sg36
I0
sg27
I0
sg29
I0
sg40
I0
sg50
I0
sg48
I0
sg56
I0
sg45
I0
sg47
I0
sg54
I0
sg8
I0
sg33
I12
sg46
I0
sg32
I0
sg21
I0
sg38
I0
sg31
I0
sg30
I0
sg55
I0
sg35
I0
sg26
I0
sg61
I0
ssg21
(dp216
g37
I0
sg22
I24
sg12
I0
sg28
I0
sg43
I0
sg52
I0
sg49
I0
sg20
I0
sg25
I0
sg53
I0
sg19
I0
sg24
I0
sg23
I0
sg11
I0
sg39
I6
sg16
I0
sg42
I0
sg57
I0
sg34
I0
sg14
I0
sg13
I0
sg15
I0
sg18
I0
sg17
I0
sg59
I0
sg60
I0
sg41
I0
sg62
I0
sg10
I0
sg9
I0
sg44
I0
sg58
I0
sg51
I0
sg36
I0
sg27
I0
sg29
I0
sg40
I0
sg50
I0
sg48
I0
sg56
I0
sg45
I0
sg47
I0
sg54
I0
sg8
I0
sg33
I0
sg46
I0
sg32
I0
sg21
I0
sg38
I0
sg31
I0
sg30
I0
sg55
I0
sg35
I0
sg26
I0
sg61
I0
ssg38
(dp217
g37
I0
sg22
I0
sg12
I0
sg28
I0
sg43
I0
sg52
I0
sg49
I0
sg20
I0
sg25
I0
sg53
I0
sg19
I0
sg24
I0
sg23
I0
sg11
I0
sg39
I0
sg16
I0
sg42
I0
sg57
I0
sg34
I0
sg14
I0
sg13
I0
sg15
I0
sg18
I0
sg17
I0
sg59
I0
sg60
I0
sg41
I0
sg62
I0
sg10
I0
sg9
I0
sg44
I0
sg58
I0
sg51
I0
sg36
I0
sg27
I0
sg29
I0
sg40
I0
sg50
I0
sg48
I0
sg56
I0
sg45
I0
sg47
I0
sg54
I0
sg8
I0
sg33
I0
sg46
I0
sg32
I0
sg21
I0
sg38
I12
sg31
I0
sg30
I0
sg55
I0
sg35
I0
sg26
I0
sg61
I0
ssg31
(dp218
g37
I0
sg22
I0
sg12
I0
sg28
I0
sg43
I0
sg67
I0
sg68
I0
sg20
I0
sg25
I0
sg69
I0
sg19
I0
sg24
I0
sg23
I0
sg11
I0
sg39
I0
sg16
I0
sg42
I0
sg70
I0
sg34
I0
sg14
I0
sg13
I0
sg15
I0
sg18
I0
sg17
I0
sg71
I0
sg72
I0
sg41
I0
sg73
I0
sg10
I0
sg9
I0
sg44
I0
sg74
I0
sg75
I0
sg36
I0
sg27
I0
sg29
I0
sg40
I0
sg76
I0
sg77
I0
sg78
I0
sg45
I0
sg79
I0
sg80
I0
sg8
I0
sg33
I0
sg46
I0
sg32
I0
sg21
I0
sg38
I0
sg31
I0
sg30
I0
sg81
I0
sg35
I0
sg26
I0
sg82
I0
ssg30
(dp219
g37
I0
sg22
I0
sg12
I0
sg28
I0
sg43
I0
sg67
I0
sg68
I0
sg20
I0
sg25
I0
sg69
I0
sg19
I0
sg24
I0
sg23
I0
sg11
I0
sg39
I0
sg16
I0
sg42
I0
sg70
I0
sg34
I0
sg14
I0
sg13
I0
sg15
I0
sg18
I0
sg17
I0
sg71
I0
sg72
I0
sg41
I0
sg73
I0
sg10
I0
sg9
I0
sg44
I0
sg74
I0
sg75
I0
sg36
I0
sg27
I0
sg29
I0
sg40
I0
sg76
I0
sg77
I0
sg78
I0
sg45
I0
sg79
I0
sg80
I0
sg8
I0
sg33
I0
sg46
I0
sg32
I0
sg21
I0
sg38
I0
sg31
I6
sg30
I0
sg81
I0
sg35
I0
sg26
I0
sg82
I0
ssg55
(dp220
g157
I0
sg94
I0
sg95
I0
sg158
I0
sg97
I0
sg159
I0
sg52
I0
sg160
I0
sg49
I0
sg161
I0
sg162
I0
sg50
I0
sg53
I0
sg163
I0
sg103
I0
sg104
I0
sg105
I0
sg106
I0
sg107
I0
sg108
I0
sg164
I0
sg110
I0
sg165
I0
sg112
I0
sg166
I0
sg167
I0
sg59
I0
sg60
I0
sg62
I0
sg115
I0
sg116
I0
sg117
I0
sg51
I0
sg168
I0
sg119
I0
sg169
I0
sg121
I0
sg170
I0
sg48
I0
sg56
I6
sg123
I0
sg47
I0
sg54
I0
sg171
I0
sg125
I0
sg126
I0
sg127
I0
sg128
I0
sg129
I0
sg172
I0
sg57
I0
sg55
I0
sg58
I0
sg173
I0
sg61
I0
ssg35
(dp221
g37
I0
sg22
I0
sg35
I0
sg28
I0
sg43
I0
sg67
I0
sg68
I0
sg20
I0
sg25
I0
sg69
I0
sg19
I0
sg24
I0
sg23
I0
sg11
I0
sg39
I0
sg16
I0
sg42
I0
sg70
I0
sg34
I0
sg14
I0
sg13
I0
sg15
I0
sg18
I0
sg17
I0
sg71
I0
sg72
I0
sg41
I0
sg73
I0
sg10
I0
sg9
I0
sg44
I0
sg75
I0
sg36
I0
sg27
I0
sg29
I0
sg40
I0
sg76
I0
sg77
I0
sg78
I0
sg12
I0
sg45
I0
sg79
I0
sg80
I0
sg8
I0
sg33
I0
sg46
I0
sg32
I0
sg21
I0
sg38
I0
sg31
I0
sg30
I0
sg81
I0
sg74
I0
sg26
I0
sg82
I0
ssg26
(dp222
g37
I0
sg22
I0
sg12
I0
sg28
I0
sg43
I0
sg67
I0
sg68
I0
sg20
I0
sg25
I0
sg69
I0
sg19
I0
sg24
I0
sg23
I0
sg11
I0
sg39
I0
sg16
I0
sg42
I0
sg70
I0
sg34
I0
sg14
I0
sg13
I0
sg15
I0
sg18
I0
sg17
I0
sg71
I0
sg72
I0
sg41
I0
sg73
I0
sg10
I0
sg9
I0
sg44
I0
sg74
I0
sg75
I0
sg36
I0
sg27
I0
sg29
I0
sg40
I0
sg76
I0
sg77
I0
sg78
I0
sg45
I0
sg79
I0
sg80
I0
sg8
I0
sg33
I0
sg46
I0
sg32
I0
sg21
I0
sg38
I0
sg31
I0
sg30
I0
sg81
I0
sg35
I0
sg26
I12
sg82
I0
ssg61
(dp223
g187
I0
sg61
I0
sg95
I0
sg188
I0
sg94
I0
sg159
I0
sg52
I0
sg160
I0
sg49
I0
sg189
I0
sg162
I0
sg50
I0
sg53
I0
sg163
I0
sg103
I0
sg104
I0
sg105
I0
sg106
I0
sg107
I0
sg108
I0
sg190
I0
sg110
I0
sg165
I0
sg112
I0
sg166
I0
sg167
I0
sg59
I0
sg60
I0
sg116
I0
sg62
I0
sg115
I0
sg97
I0
sg117
I0
sg51
I0
sg191
I0
sg119
I0
sg192
I0
sg121
I0
sg170
I0
sg48
I0
sg56
I0
sg123
I0
sg47
I0
sg54
I0
sg171
I0
sg125
I0
sg126
I0
sg127
I0
sg128
I0
sg129
I0
sg193
I0
sg57
I0
sg55
I0
sg58
I0
sg194
I0
sssb.