ccopy_reg
_reconstructor
p0
(cutils.eval
ConfusionMatrix
p1
c__builtin__
object
p2
Ntp3
Rp4
(dp5
S'labels'
p6
(lp7
S'fill.v.01'
p8
aS'meet.v.04'
p9
aS'kettle.n.01'
p10
aS'kettle.n.02'
p11
aS'water.n.06'
p12
aS'water.n.03'
p13
aS'put.v.01'
p14
aS'invest.v.01'
p15
aS'onion.n.01'
p16
aS'beef.n.02'
p17
aS'beef.n.01'
p18
aS'plate.n.04'
p19
aS'plate.n.12'
p20
aS'pan.n.03'
p21
aS'pan.n.01'
p22
aS'pizza.n.01'
p23
aS'frame.v.04'
p24
aS'pepper.n.03'
p25
aS'pepper.n.04'
p26
aS'salt.n.02'
p27
aS'egg.n.02'
p28
aS'testis.n.01'
p29
aS'cabbage.n.01'
p30
aS'cut.v.01'
p31
aS'swerve.v.01'
p32
aS'piece.n.08'
p33
aS'slice.n.01'
p34
aS'slice.v.03'
p35
aS'slice.v.02'
p36
aS'opening.n.01'
p37
aS'gap.n.05'
p38
aS'fill.v.09'
p39
aS'batter.n.02'
p40
aS'knife.n.01'
p41
aS'banana.n.02'
p42
aS'bread.n.01'
p43
aS'foam.n.01'
p44
aS'mug.n.04'
p45
aS'cake.n.03'
p46
aS'patty.n.01'
p47
aS'whipped_cream.n.01'
p48
aS'lemon.n.01'
p49
aS'lemon.n.04'
p50
asS'instanceCount'
p51
I36
sS'matrix'
p52
(dp53
g20
(dp54
g20
I0
ssg18
(dp55
g18
I0
ssg15
(dp56
g15
I0
ssg43
(dp57
S'bread.n.01'
p58
I1
ssg40
(dp59
S'batter.n.02'
p60
I1
ssg32
(dp61
g32
I0
ssg44
(dp62
S'foam.n.01'
p63
I1
ssg22
(dp64
g22
I0
ssg21
(dp65
g22
I1
ssg31
(dp66
g32
I3
ssg24
(dp67
g24
I0
ssg39
(dp68
S'fill.v.09'
p69
I1
ssg28
(dp70
g29
I1
ssg48
(dp71
S'whipped_cream.n.01'
p72
I1
ssg17
(dp73
g18
I1
ssg29
(dp74
g29
I0
ssg8
(dp75
g9
I1
sS'fill.v.09'
p76
I1
ssg50
(dp77
g50
I0
ssg36
(dp78
g36
I0
ssg27
(dp79
S'salt.n.02'
p80
I1
ssg30
(dp81
S'cabbage.n.01'
p82
I1
ssg42
(dp83
S'banana.n.02'
p84
I1
ssg19
(dp85
g20
I1
ssg26
(dp86
g26
I0
ssg9
(dp87
g9
I0
ssg25
(dp88
g26
I1
ssg41
(dp89
S'knife.n.01'
p90
I2
ssg38
(dp91
g38
I0
ssg47
(dp92
g47
I0
ssg33
(dp93
g34
I1
ssg37
(dp94
g38
I1
ssg45
(dp95
S'mug.n.04'
p96
I1
ssg13
(dp97
g13
I0
ssg34
(dp98
g34
I0
ssg12
(dp99
g13
I1
ssg14
(dp100
g15
I3
sg24
I1
ssg23
(dp101
S'pizza.n.01'
p102
I2
ssg11
(dp103
g11
I0
ssg10
(dp104
g11
I1
ssg46
(dp105
g47
I1
ssg49
(dp106
g50
I1
ssg35
(dp107
g36
I2
ssg16
(dp108
S'onion.n.01'
p109
I1
sssb.