ccopy_reg
_reconstructor
p0
(cutils.eval
ConfusionMatrix
p1
c__builtin__
object
p2
Ntp3
Rp4
(dp5
S'labels'
p6
(lp7
S'fill.v.01'
p8
aS'whiskey.n.01'
p9
aS'carafe.n.01'
p10
aS'add.v.01'
p11
aS'lend.v.01'
p12
aS'cover.v.01'
p13
aS'cover.v.23'
p14
aS'rib.n.03'
p15
aS'rib.n.06'
p16
aS'teapot.n.01'
p17
aS'water.n.06'
p18
aS'pan.n.01'
p19
aS'pan.n.03'
p20
aS'piece.n.08'
p21
aS'slice.n.06'
p22
aS'pizza.n.01'
p23
aS'slice.v.03'
p24
aS'apple.n.01'
p25
aS'saltcellar.n.01'
p26
aS'salt.n.02'
p27
aS'wok.n.01'
p28
aS'rice.n.01'
p29
aS'kettle.n.01'
p30
aS'burner.n.02'
p31
aS'burner.n.01'
p32
aS'pan.n.02'
p33
aS'butter.n.01'
p34
aS'vanilla.n.02'
p35
aS'vanilla.n.03'
p36
aS'cheese.n.01'
p37
aS'pot.n.01'
p38
aS'serve.v.05'
p39
aS'serve.v.11'
p40
aS'cut.v.01'
p41
aS'slice.n.05'
p42
aS'jar.n.01'
p43
aS'gravy.n.01'
p44
aS'gravy.n.02'
p45
aS'water_system.n.02'
p46
aS'pour.v.01'
p47
aS'concoction.n.01'
p48
aS'mix.n.03'
p49
aS'put.v.01'
p50
aS'blend.v.01'
p51
aS'bowl.n.01'
p52
aS'stadium.n.01'
p53
aS'bottle.n.01'
p54
aS'fruit_juice.n.01'
p55
aS'walnut.n.01'
p56
aS'walnut.n.02'
p57
aS'get.v.01'
p58
aS'bring.v.04'
p59
aS'pear.n.01'
p60
aS'pear.n.02'
p61
aS'blend.v.03'
p62
aS'mix.v.05'
p63
aS'roll.n.15'
p64
aS'egg.n.02'
p65
aS'egg.n.01'
p66
aS'dough.n.01'
p67
aS'boodle.n.01'
p68
aS'mix.v.04'
p69
aS'ice.n.01'
p70
aS'ice.n.05'
p71
aS'fork.n.01'
p72
aS'branching.n.01'
p73
aS'bowl.n.08'
p74
aS'bread.n.01'
p75
aS'slice.n.04'
p76
aS'mug.n.04'
p77
aS'opening.n.01'
p78
aS'gap.n.03'
p79
aS'fill.v.09'
p80
aS'batter.n.02'
p81
aS'knife.n.01'
p82
aS'tongue.n.03'
p83
aS'banana.n.02'
p84
aS'glass.n.02'
p85
aS'milk.n.01'
p86
aS'strawberry.n.01'
p87
aS'lodge.v.02'
p88
aS'stick.v.08'
p89
asS'instanceCount'
p90
I92
sS'matrix'
p91
(dp92
g37
(dp93
S'cheese.n.01'
p94
I1
ssg27
(dp95
S'salt.n.02'
p96
I1
ssg46
(dp97
g46
I0
ssg79
(dp98
g79
I0
ssg75
(dp99
S'bread.n.01'
p100
I1
ssg71
(dp101
g71
I0
ssg39
(dp102
g40
I1
ssg76
(dp103
g76
I0
ssg85
(dp104
S'glass.n.02'
p105
I1
ssg89
(dp106
g89
I0
ssg25
(dp107
S'apple.n.01'
p108
I1
ssg42
(dp109
g42
I0
ssg11
(dp110
g12
I4
ssg61
(dp111
g61
I0
ssg19
(dp112
g20
I2
sg33
I1
ssg20
(dp113
g20
I0
ssg33
(dp114
g33
I0
ssg67
(dp115
g68
I1
ssg26
(dp116
S'saltcellar.n.01'
p117
I1
ssg52
(dp118
g53
I1
sS'bowl.n.01'
p119
I1
sg74
I1
sg64
I1
ssg65
(dp120
g66
I1
ssg34
(dp121
S'butter.n.01'
p122
I2
ssg38
(dp123
S'pot.n.01'
p124
I1
ssg8
(dp125
S'fill.v.01'
p126
I14
ssg74
(dp127
g74
I0
ssg28
(dp128
S'wok.n.01'
p129
I1
ssg60
(dp130
g61
I1
ssg80
(dp131
S'fill.v.01'
p132
I1
ssg84
(dp133
S'banana.n.02'
p134
I1
ssg13
(dp135
g14
I1
ssg35
(dp136
g36
I1
ssg69
(dp137
S'mix.v.05'
p138
I1
ssg48
(dp139
g49
I1
ssg78
(dp140
g79
I1
ssg14
(dp141
g14
I0
ssg82
(dp142
g83
I1
ssg44
(dp143
g45
I1
ssg24
(dp144
S'slice.v.03'
p145
I3
ssg45
(dp146
g45
I0
ssg62
(dp147
g63
I2
ssg36
(dp148
g36
I0
ssg51
(dp149
S'blend.v.01'
p150
I1
ssg58
(dp151
g59
I1
ssg15
(dp152
g16
I1
ssg49
(dp153
g49
I0
ssg57
(dp154
g57
I0
ssg16
(dp155
g16
I0
ssg72
(dp156
g73
I1
ssg56
(dp157
g57
I1
ssg59
(dp158
g59
I0
ssg40
(dp159
g40
I0
ssg41
(dp160
S'cut.v.01'
p161
I2
ssg73
(dp162
g73
I0
ssg88
(dp163
g89
I1
ssg63
(dp164
g63
I0
ssg21
(dp165
g22
I2
sg76
I1
sg42
I2
ssg68
(dp166
g68
I0
ssg9
(dp167
S'whiskey.n.01'
p168
I1
ssg66
(dp169
g66
I0
ssg53
(dp170
g53
I0
ssg77
(dp171
S'mug.n.04'
p172
I1
ssg55
(dp173
S'fruit_juice.n.01'
p174
I1
ssg17
(dp175
S'teapot.n.01'
p176
I1
ssg86
(dp177
S'milk.n.01'
p178
I1
ssg29
(dp179
S'rice.n.01'
p180
I2
ssg22
(dp181
g22
I0
ssg18
(dp182
g46
I1
sS'water.n.06'
p183
I4
ssg50
(dp184
S'put.v.01'
p185
I2
ssg23
(dp186
S'pizza.n.01'
p187
I2
ssg70
(dp188
g71
I1
ssg54
(dp189
S'bottle.n.01'
p190
I1
ssg30
(dp191
S'kettle.n.01'
p192
I1
ssg47
(dp193
S'pour.v.01'
p194
I1
ssg64
(dp195
g64
I0
ssg83
(dp196
g83
I0
ssg12
(dp197
g12
I0
ssg87
(dp198
S'strawberry.n.01'
p199
I1
ssg43
(dp200
S'jar.n.01'
p201
I2
ssg10
(dp202
S'carafe.n.01'
p203
I1
ssg31
(dp204
g32
I1
ssg32
(dp205
g32
I0
ssg81
(dp206
S'batter.n.02'
p207
I1
sssb.