ccopy_reg
_reconstructor
p0
(cutils.eval
ConfusionMatrix
p1
c__builtin__
object
p2
Ntp3
Rp4
(dp5
S'labels'
p6
(lp7
S'put.v.01'
p8
aS'soup.n.01'
p9
aS'microwave.n.02'
p10
aS'mug.n.04'
p11
aS'countenance.n.03'
p12
aS'bowl.n.01'
p13
aS'bowl.n.03'
p14
aS'rice.n.01'
p15
aS'steak.n.01'
p16
aS'oven.n.01'
p17
aS'dressing.n.01'
p18
aS'dressing.n.04'
p19
aS'salad.n.01'
p20
aS'dish.n.02'
p21
aS'spoon.n.01'
p22
aS'batter.n.02'
p23
aS'french_fries.n.01'
p24
asS'instanceCount'
p25
I23
sS'matrix'
p26
(dp27
g11
(dp28
g12
I1
ssg12
(dp29
g12
I0
ssg10
(dp30
S'microwave.n.02'
p31
I2
ssg9
(dp32
S'soup.n.01'
p33
I1
ssg19
(dp34
g19
I0
ssg15
(dp35
S'rice.n.01'
p36
I1
ssg8
(dp37
S'put.v.01'
p38
I8
ssg18
(dp39
g19
I1
ssg14
(dp40
g14
I0
ssg13
(dp41
g14
I1
ssg16
(dp42
S'steak.n.01'
p43
I1
ssg17
(dp44
S'oven.n.01'
p45
I2
ssg21
(dp46
S'dish.n.02'
p47
I1
ssg24
(dp48
S'french_fries.n.01'
p49
I1
ssg23
(dp50
S'batter.n.02'
p51
I1
ssg20
(dp52
S'salad.n.01'
p53
I1
ssg22
(dp54
S'spoon.n.01'
p55
I1
sssb.