ccopy_reg
_reconstructor
p0
(cutils.eval
ConfusionMatrix
p1
c__builtin__
object
p2
Ntp3
Rp4
(dp5
S'labels'
p6
(lp7
S'put.v.01'
p8
aS'bowl.n.01'
p9
aS'bowl.n.08'
p10
aS'rice.n.01'
p11
aS'steak.n.01'
p12
aS'oven.n.01'
p13
aS'dressing.n.01'
p14
aS'dressing.n.04'
p15
aS'salad.n.01'
p16
aS'dish.n.02'
p17
aS'spoon.n.01'
p18
aS'batter.n.02'
p19
aS'french_fries.n.01'
p20
aS'salmon.n.03'
p21
aS'plate.n.04'
p22
aS'plate.n.13'
p23
aS'bowl.n.03'
p24
aS'cherry.n.03'
p25
asS'instanceCount'
p26
I23
sS'matrix'
p27
(dp28
g23
(dp29
g23
I0
ssg24
(dp30
g24
I0
ssg25
(dp31
S'cherry.n.03'
p32
I1
ssg22
(dp33
g23
I1
ssg21
(dp34
S'salmon.n.03'
p35
I1
ssg15
(dp36
g15
I0
ssg11
(dp37
S'rice.n.01'
p38
I1
ssg8
(dp39
S'put.v.01'
p40
I8
ssg14
(dp41
g15
I1
ssg18
(dp42
S'spoon.n.01'
p43
I1
ssg9
(dp44
g24
I1
sg10
I1
ssg12
(dp45
S'steak.n.01'
p46
I1
ssg13
(dp47
S'oven.n.01'
p48
I2
ssg17
(dp49
S'dish.n.02'
p50
I1
ssg20
(dp51
S'french_fries.n.01'
p52
I1
ssg10
(dp53
g10
I0
ssg16
(dp54
S'salad.n.01'
p55
I1
ssg19
(dp56
S'batter.n.02'
p57
I1
sssb.