ccopy_reg
_reconstructor
p0
(cutils.eval
ConfusionMatrix
p1
c__builtin__
object
p2
Ntp3
Rp4
(dp5
S'labels'
p6
(lp7
S'put.v.01'
p8
aS'bowl.n.01'
p9
aS'bowl.n.08'
p10
aS'rice.n.01'
p11
aS'steak.n.01'
p12
aS'oven.n.01'
p13
aS'dressing.n.01'
p14
aS'dressing.n.04'
p15
aS'salad.n.01'
p16
aS'dish.n.02'
p17
aS'spoon.n.01'
p18
aS'batter.n.02'
p19
aS'french_fries.n.01'
p20
aS'salmon.n.03'
p21
aS'plate.n.04'
p22
aS'plate.n.13'
p23
aS'bowl.n.03'
p24
aS'cherry.n.03'
p25
aS'spread.n.05'
p26
aS'paste.n.03'
p27
aS'bread.n.01'
p28
aS'pepper.n.03'
p29
aS'capsicum.n.01'
p30
aS'salt.n.02'
p31
aS'salt.n.04'
p32
aS'egg.n.02'
p33
aS'onion.n.01'
p34
aS'onion.n.03'
p35
aS'beef.n.02'
p36
aS'gripe.n.01'
p37
aS'pan.n.03'
p38
aS'chicken.n.01'
p39
aS'jam.n.01'
p40
aS'refrigerator.n.01'
p41
aS'blender.n.01'
p42
aS'banana.n.02'
p43
aS'rib.n.03'
p44
aS'rib.n.01'
p45
aS'coca_cola.n.01'
p46
aS'electric_refrigerator.n.01'
p47
aS'pizza.n.01'
p48
aS'cake.n.03'
p49
aS'patty.n.01'
p50
aS'whipped_cream.n.01'
p51
aS'pepper.n.04'
p52
aS'egg.n.01'
p53
aS'coke.n.01'
p54
aS'soup.n.01'
p55
aS'microwave.n.02'
p56
aS'mug.n.04'
p57
aS'countenance.n.03'
p58
asS'instanceCount'
p59
I244
sS'matrix'
p60
(dp61
g23
(dp62
g23
I0
sS'coke.n.01'
p63
I0
sg40
I0
sg39
I0
sg36
I0
sg41
I0
sg28
I0
sg24
I0
sg9
I0
sg48
I0
sg17
I0
sg10
I0
sg21
I0
sg38
I0
sg46
I0
sg33
I0
sg53
I0
sg47
I0
sg18
I0
sg30
I0
sg31
I0
sg43
I0
sg32
I0
sg22
I0
sg52
I0
sg45
I0
sg29
I0
sg26
I0
sg12
I0
sg13
I0
sg37
I0
sg27
I0
sg42
I0
sg44
I0
sg34
I0
sg15
I0
sg11
I0
sg8
I0
sg14
I0
sg51
I0
sg49
I0
sg20
I0
sg50
I0
sg25
I0
sg16
I0
sg35
I0
sg19
I0
ssg54
(dp64
g54
I0
sS'plate.n.13'
p65
I0
sS'rice.n.01'
p66
I0
sS'chicken.n.01'
p67
I0
sS'beef.n.02'
p68
I0
sg55
I0
sS'refrigerator.n.01'
p69
I0
sS'bread.n.01'
p70
I0
sS'bowl.n.03'
p71
I0
sS'bowl.n.01'
p72
I0
sS'patty.n.01'
p73
I0
sS'pan.n.03'
p74
I0
sS'coca_cola.n.01'
p75
I0
sS'banana.n.02'
p76
I0
sg56
I0
sS'egg.n.02'
p77
I0
sS'electric_refrigerator.n.01'
p78
I0
sS'capsicum.n.01'
p79
I0
sS'plate.n.04'
p80
I0
sS'salt.n.02'
p81
I0
sg58
I0
sS'salt.n.04'
p82
I0
sS'rib.n.03'
p83
I0
sS'rib.n.01'
p84
I0
sS'pepper.n.03'
p85
I0
sS'spread.n.05'
p86
I0
sS'whipped_cream.n.01'
p87
I0
sS'oven.n.01'
p88
I0
sS'gripe.n.01'
p89
I0
sS'paste.n.03'
p90
I0
sg57
I0
sS'blender.n.01'
p91
I0
sS'jam.n.01'
p92
I0
sS'put.v.01'
p93
I0
sS'pizza.n.01'
p94
I0
sS'steak.n.01'
p95
I0
sS'cake.n.03'
p96
I0
sS'onion.n.01'
p97
I0
sS'onion.n.03'
p98
I0
ssg40
(dp99
S'plate.n.13'
p100
I0
sg54
I0
sS'chicken.n.01'
p101
I0
sS'beef.n.02'
p102
I0
sg55
I0
sg41
I0
sS'bread.n.01'
p103
I0
sS'bowl.n.01'
p104
I0
sg50
I0
sS'salmon.n.03'
p105
I0
sS'pan.n.03'
p106
I0
sg46
I0
sg58
I0
sg56
I0
sS'egg.n.02'
p107
I0
sg53
I0
sg47
I0
sS'bowl.n.08'
p108
I0
sg44
I0
sS'salt.n.02'
p109
I0
sg43
I0
sg82
I0
sS'plate.n.04'
p110
I0
sg52
I0
sg45
I0
sS'gripe.n.01'
p111
I0
sS'spread.n.05'
p112
I0
sg51
I0
sS'pepper.n.03'
p113
I0
sg79
I0
sS'paste.n.03'
p114
I0
sg57
I0
sg42
I0
sg40
I4
sS'put.v.01'
p115
I0
sg48
I0
sg49
I0
sS'cherry.n.03'
p116
I0
sS'onion.n.01'
p117
I0
sS'onion.n.03'
p118
I0
ssg39
(dp119
S'plate.n.13'
p120
I0
sg63
I0
sg39
I4
sg36
I0
sg41
I0
sg28
I0
sS'bowl.n.01'
p121
I0
sS'batter.n.02'
p122
I0
sS'bowl.n.08'
p123
I0
sS'salmon.n.03'
p124
I0
sg38
I0
sg46
I0
sg33
I0
sg53
I0
sg47
I0
sS'spoon.n.01'
p125
I0
sg30
I0
sg31
I0
sg43
I0
sg32
I0
sS'plate.n.04'
p126
I0
sg52
I0
sg45
I0
sg29
I0
sg26
I0
sg51
I0
sg37
I0
sg27
I0
sg42
I0
sg44
I0
sg40
I0
sS'put.v.01'
p127
I0
sg48
I0
sg49
I0
sS'french_fries.n.01'
p128
I0
sg50
I0
sS'cherry.n.03'
p129
I0
sg34
I0
sg35
I0
ssg36
(dp130
g120
I0
sg63
I0
sg39
I0
sg36
I0
sg41
I0
sg28
I0
sg121
I0
sg122
I0
sg123
I0
sg124
I0
sg38
I0
sg46
I0
sg33
I0
sg53
I0
sg47
I0
sg125
I0
sg30
I0
sg31
I0
sg43
I0
sg32
I0
sg126
I0
sg52
I0
sg45
I0
sg29
I0
sg26
I0
sg51
I0
sg37
I4
sg27
I0
sg42
I0
sg44
I0
sg40
I0
sg127
I0
sg48
I0
sg49
I0
sg128
I0
sg50
I0
sg129
I0
sg34
I0
sg35
I0
ssg55
(dp131
g54
I0
sg66
I0
sg55
I4
sg69
I0
sg71
I0
sg72
I0
sS'dish.n.02'
p132
I0
sS'dressing.n.01'
p133
I0
sg73
I0
sg74
I0
sg75
I0
sg76
I0
sg56
I0
sg78
I0
sS'spoon.n.01'
p134
I0
sg81
I0
sg58
I0
sg83
I0
sg84
I0
sg87
I0
sg88
I0
sg57
I0
sg91
I0
sS'dressing.n.04'
p135
I0
sg92
I0
sg93
I0
sg94
I0
sg95
I0
sg96
I0
sS'bowl.n.08'
p136
I0
sS'french_fries.n.01'
p137
I0
sS'salad.n.01'
p138
I0
sS'batter.n.02'
p139
I0
ssg41
(dp140
g100
I0
sg54
I0
sg101
I0
sg102
I0
sg55
I0
sg41
I4
sg103
I0
sg104
I0
sg50
I0
sg105
I0
sg106
I0
sg46
I0
sg58
I0
sg56
I0
sg107
I0
sg53
I0
sg47
I0
sg108
I0
sg44
I0
sg109
I0
sg43
I0
sg82
I0
sg110
I0
sg52
I0
sg45
I0
sg111
I0
sg112
I0
sg51
I0
sg113
I0
sg79
I0
sg114
I0
sg57
I0
sg42
I0
sg40
I0
sg115
I0
sg48
I0
sg49
I0
sg116
I0
sg117
I0
sg118
I0
ssg28
(dp141
g120
I0
sg63
I0
sg39
I0
sg36
I0
sS'refrigerator.n.01'
p142
I0
sg28
I4
sg121
I0
sg122
I0
sg123
I0
sg124
I0
sg38
I0
sS'coca_cola.n.01'
p143
I0
sg33
I0
sg53
I0
sS'electric_refrigerator.n.01'
p144
I0
sg125
I0
sg30
I0
sg31
I0
sS'banana.n.02'
p145
I0
sg32
I0
sg126
I0
sg52
I0
sS'rib.n.01'
p146
I0
sg29
I0
sg26
I0
sS'oven.n.01'
p147
I0
sg37
I0
sg27
I0
sS'blender.n.01'
p148
I0
sS'rib.n.03'
p149
I0
sS'salad.n.01'
p150
I0
sS'dressing.n.04'
p151
I0
sS'jam.n.01'
p152
I0
sg127
I0
sS'dressing.n.01'
p153
I0
sg128
I0
sg129
I0
sg34
I0
sg35
I0
sS'dish.n.02'
p154
I0
ssg24
(dp155
g23
I0
sS'coke.n.01'
p156
I0
sS'soup.n.01'
p157
I0
sg24
I0
sg9
I0
sS'pizza.n.01'
p158
I0
sg17
I0
sS'coca_cola.n.01'
p159
I0
sg21
I0
sS'pan.n.03'
p160
I0
sg10
I0
sS'microwave.n.02'
p161
I0
sS'electric_refrigerator.n.01'
p162
I0
sg18
I0
sS'rib.n.03'
p163
I0
sS'salt.n.02'
p164
I0
sS'countenance.n.03'
p165
I0
sg22
I0
sS'rib.n.01'
p166
I0
sg12
I0
sg13
I0
sS'patty.n.01'
p167
I0
sS'mug.n.04'
p168
I0
sg15
I0
sg11
I0
sg8
I0
sg14
I0
sS'whipped_cream.n.01'
p169
I0
sS'cake.n.03'
p170
I0
sg20
I0
sg25
I0
sg16
I0
sg19
I0
ssg9
(dp171
g23
I0
sg156
I0
sg152
I0
sg39
I0
sg36
I0
sg157
I0
sg142
I0
sg28
I0
sg24
I3
sg9
I0
sg158
I0
sg17
I0
sg10
I5
sg21
I0
sg38
I0
sg159
I0
sg165
I0
sg161
I0
sg33
I0
sg53
I0
sg162
I0
sg18
I0
sg30
I0
sg31
I0
sg145
I0
sg32
I0
sg22
I0
sg52
I0
sg166
I0
sg29
I0
sg26
I0
sg12
I0
sg13
I0
sg37
I0
sg27
I0
sg168
I0
sg148
I0
sg163
I0
sg34
I0
sg15
I0
sg11
I0
sg8
I0
sg14
I0
sg169
I0
sg170
I0
sg20
I0
sg167
I0
sg25
I0
sg16
I0
sg35
I0
sg19
I0
ssg48
(dp172
g100
I0
sg54
I0
sg66
I0
sg101
I0
sg102
I0
sg55
I0
sg41
I0
sg71
I0
sg72
I0
sS'dish.n.02'
p173
I0
sS'dressing.n.01'
p174
I0
sg50
I0
sg106
I0
sg46
I0
sg58
I0
sg56
I0
sg47
I0
sg136
I0
sg44
I0
sg109
I0
sg43
I0
sg110
I0
sg45
I0
sg111
I0
sg51
I0
sg88
I0
sg57
I0
sg42
I0
sS'salad.n.01'
p175
I0
sS'dressing.n.04'
p176
I0
sg40
I0
sg115
I0
sg48
I4
sg95
I0
sg49
I0
sg117
I0
sg118
I0
ssg17
(dp177
g23
I0
sS'soup.n.01'
p178
I0
sS'bread.n.01'
p179
I0
sg24
I0
sg9
I0
sS'pizza.n.01'
p180
I0
sg17
I4
sg10
I0
sg21
I0
sS'pan.n.03'
p181
I0
sS'microwave.n.02'
p182
I0
sS'egg.n.02'
p183
I0
sg18
I0
sS'capsicum.n.01'
p184
I0
sS'salt.n.02'
p185
I0
sS'countenance.n.03'
p186
I0
sS'salt.n.04'
p187
I0
sg22
I0
sS'pepper.n.03'
p188
I0
sS'spread.n.05'
p189
I0
sg12
I0
sg13
I0
sS'paste.n.03'
p190
I0
sS'mug.n.04'
p191
I0
sg15
I0
sg11
I0
sg8
I0
sg14
I0
sS'whipped_cream.n.01'
p192
I0
sS'cake.n.03'
p193
I0
sg20
I0
sg25
I0
sg16
I0
sg19
I0
ssg10
(dp194
g23
I0
sg152
I0
sg39
I0
sg36
I0
sS'soup.n.01'
p195
I0
sg142
I0
sg28
I0
sg24
I0
sg9
I0
sg180
I0
sg17
I0
sg10
I0
sg21
I0
sg38
I0
sS'countenance.n.03'
p196
I0
sS'microwave.n.02'
p197
I0
sg33
I0
sg53
I0
sg18
I0
sg30
I0
sg31
I0
sg145
I0
sg32
I0
sg22
I0
sg52
I0
sg29
I0
sg26
I0
sg12
I0
sg13
I0
sg37
I0
sg27
I0
sS'mug.n.04'
p198
I0
sg148
I0
sg34
I0
sg15
I0
sg11
I0
sg8
I0
sg14
I0
sg192
I0
sg193
I0
sg20
I0
sg25
I0
sg16
I0
sg35
I0
sg19
I0
ssg21
(dp199
g23
I0
sg152
I0
sg39
I0
sg36
I0
sg142
I0
sg28
I0
sg24
I0
sg9
I0
sg17
I0
sg10
I0
sg21
I4
sg38
I0
sg33
I0
sg53
I0
sg18
I0
sg30
I0
sg31
I0
sg145
I0
sg32
I0
sg22
I0
sg52
I0
sg29
I0
sg26
I0
sg12
I0
sg13
I0
sg37
I0
sg27
I0
sg148
I0
sg34
I0
sg15
I0
sg11
I0
sg8
I0
sg14
I0
sg20
I0
sg25
I0
sg16
I0
sg35
I0
sg19
I0
ssg38
(dp200
g120
I0
sg54
I0
sg66
I0
sg39
I0
sg36
I0
sg55
I0
sg41
I0
sg28
I0
sg71
I0
sg121
I0
sg122
I0
sg174
I0
sg123
I0
sg124
I0
sg38
I8
sg46
I0
sg58
I0
sg56
I0
sg33
I0
sg53
I0
sg47
I0
sg125
I0
sg30
I0
sg31
I0
sg43
I0
sg32
I0
sg126
I0
sg52
I0
sg45
I0
sg29
I0
sg26
I0
sg51
I0
sg88
I0
sg37
I0
sg27
I0
sg57
I0
sg42
I0
sg44
I0
sg175
I0
sg176
I0
sg40
I0
sg127
I0
sg48
I0
sg95
I0
sg49
I0
sg128
I0
sg50
I0
sg129
I0
sg34
I0
sg35
I0
sg173
I0
ssg46
(dp201
g100
I0
sg54
I3
sg66
I0
sg101
I0
sg102
I0
sg55
I0
sg41
I0
sg70
I0
sg71
I0
sg72
I0
sg50
I0
sg106
I0
sg46
I1
sg58
I0
sg56
I0
sg77
I0
sg47
I0
sg44
I0
sg109
I0
sg43
I0
sg82
I0
sg110
I0
sg45
I0
sg111
I0
sg86
I0
sg51
I0
sg88
I0
sg85
I0
sg79
I0
sg90
I0
sg57
I0
sg42
I0
sg40
I0
sg115
I0
sg48
I0
sg95
I0
sg49
I0
sg117
I0
sg118
I0
ssg58
(dp202
g54
I0
sg66
I0
sg55
I0
sg69
I0
sg71
I0
sg72
I0
sg132
I0
sg133
I0
sg73
I0
sg74
I0
sg75
I0
sg76
I0
sg56
I0
sg78
I0
sg134
I0
sg81
I0
sg58
I0
sg83
I0
sg84
I0
sg87
I0
sg88
I0
sg57
I0
sg91
I0
sg135
I0
sg92
I0
sg93
I0
sg94
I0
sg95
I0
sg96
I0
sg136
I0
sg137
I0
sg138
I0
sg139
I0
ssg56
(dp203
g54
I0
sg66
I0
sg55
I0
sg69
I0
sg71
I0
sg72
I0
sg132
I0
sg133
I0
sg73
I0
sg74
I0
sg75
I0
sg76
I0
sg56
I8
sg78
I0
sg134
I0
sg81
I0
sg58
I0
sg83
I0
sg84
I0
sg87
I0
sg88
I0
sg57
I0
sg91
I0
sg135
I0
sg92
I0
sg93
I0
sg94
I0
sg95
I0
sg96
I0
sg136
I0
sg137
I0
sg138
I0
sg139
I0
ssg33
(dp204
g120
I0
sg63
I0
sg39
I0
sg36
I0
sg142
I0
sg28
I0
sg121
I0
sg122
I0
sg123
I0
sg124
I0
sg38
I0
sg143
I0
sg33
I3
sg53
I1
sg144
I0
sg125
I0
sg30
I0
sg31
I0
sg145
I0
sg32
I0
sg126
I0
sg52
I0
sg146
I0
sg29
I0
sg26
I0
sg147
I0
sg37
I0
sg27
I0
sg148
I0
sg149
I0
sg150
I0
sg151
I0
sg152
I0
sg127
I0
sg153
I0
sg128
I0
sg129
I0
sg34
I0
sg35
I0
sg154
I0
ssg53
(dp205
S'plate.n.13'
p206
I0
sS'chicken.n.01'
p207
I0
sS'beef.n.02'
p208
I0
sg142
I0
sg103
I0
sg104
I0
sg108
I0
sg105
I0
sS'pan.n.03'
p209
I0
sg107
I0
sg53
I0
sS'salt.n.02'
p210
I0
sg145
I0
sS'plate.n.04'
p211
I0
sg52
I0
sS'gripe.n.01'
p212
I0
sg112
I0
sg113
I0
sg114
I0
sg148
I0
sg152
I0
sS'put.v.01'
p213
I0
sg116
I0
sS'onion.n.01'
p214
I0
sS'onion.n.03'
p215
I0
ssg47
(dp216
g100
I0
sg54
I0
sg66
I0
sg101
I0
sg102
I0
sg55
I0
sg41
I0
sg70
I0
sg71
I0
sg72
I0
sg50
I0
sg106
I0
sg46
I0
sg58
I0
sg56
I0
sg77
I0
sg47
I4
sg44
I0
sg109
I0
sg43
I0
sg82
I0
sg110
I0
sg45
I0
sg111
I0
sg86
I0
sg51
I0
sg88
I0
sg85
I0
sg79
I0
sg90
I0
sg57
I0
sg42
I0
sg40
I0
sg115
I0
sg48
I0
sg95
I0
sg49
I0
sg117
I0
sg118
I0
ssg18
(dp217
g23
I0
sg39
I0
sg36
I0
sg178
I0
sg28
I0
sg24
I0
sg9
I0
sg17
I0
sg10
I0
sg21
I0
sg38
I0
sg182
I0
sg33
I0
sg18
I4
sg30
I0
sg31
I0
sg186
I0
sg32
I0
sg22
I0
sg29
I0
sg26
I0
sg12
I0
sg13
I0
sg37
I0
sg27
I0
sg191
I0
sg34
I0
sg15
I0
sg11
I0
sg8
I0
sg14
I0
sg20
I0
sg25
I0
sg16
I0
sg35
I0
sg19
I0
ssg30
(dp218
g120
I0
sg63
I0
sg39
I0
sg36
I0
sS'refrigerator.n.01'
p219
I0
sg28
I0
sg121
I0
sg122
I0
sg123
I0
sg124
I0
sg38
I0
sg143
I0
sg33
I0
sg144
I0
sg125
I0
sg30
I0
sg31
I0
sS'banana.n.02'
p220
I0
sg32
I0
sg126
I0
sg146
I0
sg29
I0
sg26
I0
sg147
I0
sg37
I0
sg27
I0
sS'blender.n.01'
p221
I0
sg149
I0
sg150
I0
sg151
I0
sS'jam.n.01'
p222
I0
sg127
I0
sg153
I0
sg128
I0
sg129
I0
sg34
I0
sg35
I0
sg154
I0
ssg31
(dp223
g120
I0
sg54
I0
sg66
I0
sg39
I0
sg36
I0
sg55
I0
sg41
I0
sg28
I0
sg71
I0
sg121
I0
sg122
I0
sg153
I0
sg123
I0
sg124
I0
sg38
I0
sg46
I0
sg58
I0
sg56
I0
sg33
I0
sg53
I0
sg47
I0
sg125
I0
sg30
I0
sg31
I5
sg43
I0
sg32
I3
sg126
I0
sg52
I0
sg45
I0
sg29
I0
sg26
I0
sg51
I0
sg88
I0
sg37
I0
sg27
I0
sg57
I0
sg42
I0
sg44
I0
sg150
I0
sg151
I0
sg40
I0
sg127
I0
sg48
I0
sg95
I0
sg49
I0
sg128
I0
sg50
I0
sg129
I0
sg34
I0
sg35
I0
sg154
I0
ssg43
(dp224
g100
I0
sg54
I0
sg101
I0
sg102
I0
sg55
I0
sg41
I0
sg103
I0
sg104
I0
sg50
I0
sg105
I0
sg106
I0
sg46
I0
sg58
I0
sg56
I0
sg107
I0
sg53
I0
sg47
I0
sg108
I0
sg44
I0
sg109
I0
sg43
I4
sg82
I0
sg110
I0
sg52
I0
sg45
I0
sg111
I0
sg112
I0
sg51
I0
sg113
I0
sg79
I0
sg114
I0
sg57
I0
sg42
I0
sg40
I0
sg115
I0
sg48
I0
sg49
I0
sg116
I0
sg117
I0
sg118
I0
ssg32
(dp225
g120
I0
sg63
I0
sg39
I0
sg36
I0
sg219
I0
sg28
I0
sg121
I0
sg122
I0
sg123
I0
sg124
I0
sg38
I0
sg143
I0
sg33
I0
sg144
I0
sg125
I0
sg30
I0
sg31
I0
sg220
I0
sg32
I0
sg126
I0
sg146
I0
sg29
I0
sg26
I0
sg147
I0
sg37
I0
sg27
I0
sg221
I0
sg149
I0
sg150
I0
sg151
I0
sg222
I0
sg127
I0
sg153
I0
sg128
I0
sg129
I0
sg34
I0
sg35
I0
sg154
I0
ssg22
(dp226
g23
I8
sg63
I0
sg40
I0
sg39
I0
sg36
I0
sg41
I0
sg28
I0
sg24
I0
sg9
I0
sg48
I0
sg17
I0
sg10
I0
sg21
I0
sg38
I0
sg46
I0
sg33
I0
sg53
I0
sg47
I0
sg18
I0
sg30
I0
sg31
I0
sg43
I0
sg32
I0
sg22
I0
sg52
I0
sg45
I0
sg29
I0
sg26
I0
sg12
I0
sg13
I0
sg37
I0
sg27
I0
sg42
I0
sg44
I0
sg34
I0
sg15
I0
sg11
I0
sg8
I0
sg14
I0
sg51
I0
sg49
I0
sg20
I0
sg50
I0
sg25
I0
sg16
I0
sg35
I0
sg19
I0
ssg52
(dp227
g206
I0
sg207
I0
sg208
I0
sg142
I0
sg103
I0
sg104
I0
sg108
I0
sg105
I0
sg209
I0
sg107
I0
sg53
I0
sg210
I0
sg145
I0
sg211
I0
sg52
I0
sg212
I0
sg112
I0
sg113
I0
sg114
I0
sg148
I0
sg152
I0
sg213
I0
sg116
I0
sg214
I0
sg215
I0
ssg45
(dp228
g100
I0
sg54
I0
sg66
I0
sg101
I0
sg102
I0
sg55
I0
sg41
I0
sg70
I0
sg71
I0
sg72
I0
sg50
I0
sg106
I0
sg46
I0
sg58
I0
sg56
I0
sg77
I0
sg47
I0
sg44
I0
sg109
I0
sg43
I0
sg82
I0
sg110
I0
sg45
I0
sg111
I0
sg86
I0
sg51
I0
sg88
I0
sg85
I0
sg79
I0
sg90
I0
sg57
I0
sg42
I0
sg40
I0
sg115
I0
sg48
I0
sg95
I0
sg49
I0
sg117
I0
sg118
I0
ssg29
(dp229
g120
I0
sg63
I0
sg39
I0
sg36
I0
sg142
I0
sg28
I0
sg121
I0
sg122
I0
sg123
I0
sg124
I0
sg38
I0
sg143
I0
sg33
I0
sg53
I0
sg144
I0
sg125
I0
sg30
I3
sg31
I0
sg145
I0
sg32
I0
sg126
I0
sg52
I1
sg146
I0
sg29
I0
sg26
I0
sg147
I0
sg37
I0
sg27
I0
sg148
I0
sg149
I0
sg150
I0
sg151
I0
sg152
I0
sg127
I0
sg153
I0
sg128
I0
sg129
I0
sg34
I0
sg35
I0
sg154
I0
ssg26
(dp230
g120
I0
sg63
I0
sg39
I0
sg36
I0
sg142
I0
sg28
I0
sg121
I0
sg122
I0
sg123
I0
sg124
I0
sg38
I0
sg143
I0
sg33
I0
sg53
I0
sg144
I0
sg125
I0
sg30
I0
sg31
I0
sg145
I0
sg32
I0
sg126
I0
sg52
I0
sg146
I0
sg29
I0
sg26
I0
sg147
I0
sg37
I0
sg27
I4
sg148
I0
sg149
I0
sg150
I0
sg151
I0
sg152
I0
sg127
I0
sg153
I0
sg128
I0
sg129
I0
sg34
I0
sg35
I0
sg154
I0
ssg12
(dp231
g23
I0
sg156
I0
sg157
I0
sg24
I0
sg9
I0
sg158
I0
sg17
I0
sg159
I0
sg21
I0
sg160
I0
sg10
I0
sg161
I0
sg162
I0
sg18
I0
sg163
I0
sg164
I0
sg165
I0
sg22
I0
sg166
I0
sg12
I4
sg13
I0
sg167
I0
sg168
I0
sg15
I0
sg11
I0
sg8
I0
sg14
I0
sg169
I0
sg170
I0
sg20
I0
sg25
I0
sg16
I0
sg19
I0
ssg13
(dp232
g23
I0
sg156
I0
sg157
I0
sg179
I0
sg24
I0
sg9
I0
sg158
I0
sg17
I0
sg159
I0
sg21
I0
sg160
I0
sg10
I0
sg161
I0
sg183
I0
sg162
I0
sg18
I0
sg163
I0
sg164
I0
sg165
I0
sg187
I0
sg22
I0
sg166
I0
sg188
I0
sg189
I0
sg12
I0
sg13
I8
sg167
I0
sg184
I0
sg190
I0
sg168
I0
sg15
I0
sg11
I0
sg8
I0
sg14
I0
sg169
I0
sg170
I0
sg20
I0
sg25
I0
sg16
I0
sg19
I0
ssg37
(dp233
g120
I0
sg63
I0
sg39
I0
sg36
I0
sg41
I0
sg28
I0
sg121
I0
sg122
I0
sg123
I0
sg124
I0
sg38
I0
sg46
I0
sg33
I0
sg53
I0
sg47
I0
sg125
I0
sg30
I0
sg31
I0
sg43
I0
sg32
I0
sg126
I0
sg52
I0
sg45
I0
sg29
I0
sg26
I0
sg51
I0
sg37
I0
sg27
I0
sg42
I0
sg44
I0
sg40
I0
sg127
I0
sg48
I0
sg49
I0
sg128
I0
sg50
I0
sg129
I0
sg34
I0
sg35
I0
ssg27
(dp234
g120
I0
sg63
I0
sg39
I0
sg36
I0
sg142
I0
sg28
I0
sg121
I0
sg122
I0
sg123
I0
sg124
I0
sg38
I0
sg143
I0
sg33
I0
sg53
I0
sg144
I0
sg125
I0
sg30
I0
sg31
I0
sg145
I0
sg32
I0
sg126
I0
sg52
I0
sg146
I0
sg29
I0
sg26
I0
sg147
I0
sg37
I0
sg27
I0
sg148
I0
sg149
I0
sg150
I0
sg151
I0
sg152
I0
sg127
I0
sg153
I0
sg128
I0
sg129
I0
sg34
I0
sg35
I0
sg154
I0
ssg57
(dp235
g54
I0
sg66
I0
sg55
I0
sg69
I0
sg71
I0
sg72
I0
sg132
I0
sg133
I0
sg73
I0
sg74
I0
sg75
I0
sg76
I0
sg56
I0
sg78
I0
sg134
I0
sg81
I0
sg58
I4
sg83
I0
sg84
I0
sg87
I0
sg88
I0
sg57
I0
sg91
I0
sg135
I0
sg92
I0
sg93
I0
sg94
I0
sg95
I0
sg96
I0
sg136
I0
sg137
I0
sg138
I0
sg139
I0
ssg42
(dp236
g100
I0
sg54
I0
sg101
I0
sg102
I0
sg55
I0
sg41
I0
sg103
I0
sg104
I0
sg50
I0
sg105
I0
sg106
I0
sg46
I0
sg58
I0
sg56
I0
sg107
I0
sg53
I0
sg47
I0
sg108
I0
sg44
I0
sg109
I0
sg43
I0
sg82
I0
sg110
I0
sg52
I0
sg45
I0
sg111
I0
sg112
I0
sg51
I0
sg113
I0
sg79
I0
sg114
I0
sg57
I0
sg42
I4
sg40
I0
sg115
I0
sg48
I0
sg49
I0
sg116
I0
sg117
I0
sg118
I0
ssg44
(dp237
g100
I0
sg54
I0
sg66
I0
sg101
I0
sg102
I0
sg55
I0
sg41
I0
sg70
I0
sg71
I0
sg72
I0
sg50
I0
sg106
I0
sg46
I0
sg58
I0
sg56
I0
sg77
I0
sg47
I0
sg110
I0
sg109
I0
sg43
I0
sg82
I0
sg44
I0
sg45
I4
sg111
I0
sg86
I0
sg51
I0
sg88
I0
sg85
I0
sg79
I0
sg90
I0
sg57
I0
sg42
I0
sg40
I0
sg115
I0
sg48
I0
sg95
I0
sg49
I0
sg117
I0
sg118
I0
ssg34
(dp238
g120
I0
sg63
I0
sg39
I0
sg36
I0
sg41
I0
sg28
I0
sg121
I0
sg122
I0
sg123
I0
sg124
I0
sg38
I0
sg46
I0
sg33
I0
sg53
I0
sg47
I0
sg125
I0
sg30
I0
sg31
I0
sg43
I0
sg32
I0
sg126
I0
sg52
I0
sg45
I0
sg29
I0
sg26
I0
sg51
I0
sg37
I0
sg27
I0
sg42
I0
sg44
I0
sg40
I0
sg127
I0
sg48
I0
sg49
I0
sg128
I0
sg50
I0
sg129
I0
sg34
I0
sg35
I4
ssg15
(dp239
g23
I0
sg178
I0
sg179
I0
sg24
I0
sg9
I0
sg180
I0
sg17
I0
sg10
I0
sg21
I0
sg181
I0
sg182
I0
sg183
I0
sg18
I0
sg184
I0
sg185
I0
sg186
I0
sg187
I0
sg22
I0
sg188
I0
sg189
I0
sg12
I0
sg13
I0
sg190
I0
sg191
I0
sg15
I0
sg11
I0
sg8
I0
sg14
I0
sg192
I0
sg193
I0
sg20
I0
sg25
I0
sg16
I0
sg19
I0
ssg11
(dp240
g23
I0
sg156
I0
sg157
I0
sg24
I0
sg9
I0
sg158
I0
sg17
I0
sg159
I0
sg21
I0
sg160
I0
sg10
I0
sg161
I0
sg162
I0
sg18
I0
sg163
I0
sg164
I0
sg165
I0
sg22
I0
sg166
I0
sg12
I0
sg13
I0
sg167
I0
sg168
I0
sg15
I0
sg11
I4
sg8
I0
sg14
I0
sg169
I0
sg170
I0
sg20
I0
sg25
I0
sg16
I0
sg19
I0
ssg8
(dp241
g23
I0
sg54
I0
sg40
I0
sg39
I0
sg36
I0
sg55
I0
sg41
I0
sg28
I0
sg24
I0
sg9
I0
sg48
I0
sg17
I0
sg10
I0
sg21
I0
sg38
I0
sg46
I0
sg58
I0
sg56
I0
sg33
I0
sg53
I0
sg47
I0
sg18
I0
sg30
I0
sg31
I0
sg43
I0
sg32
I0
sg22
I0
sg52
I0
sg45
I0
sg29
I0
sg26
I0
sg12
I0
sg13
I0
sg37
I0
sg27
I0
sg57
I0
sg42
I0
sg44
I0
sg34
I0
sg15
I0
sg11
I0
sg8
I80
sg14
I0
sg51
I0
sg49
I0
sg20
I0
sg50
I0
sg25
I0
sg16
I0
sg35
I0
sg19
I0
ssg14
(dp242
g23
I0
sg178
I0
sg179
I0
sg24
I0
sg9
I0
sg180
I0
sg17
I0
sg10
I0
sg21
I0
sg181
I0
sg182
I0
sg183
I0
sg18
I0
sg184
I0
sg185
I0
sg186
I0
sg187
I0
sg22
I0
sg188
I0
sg189
I0
sg12
I0
sg13
I0
sg190
I0
sg191
I0
sg15
I4
sg11
I0
sg8
I0
sg14
I0
sg192
I0
sg193
I0
sg20
I0
sg25
I0
sg16
I0
sg19
I0
ssg51
(dp243
g100
I0
sg54
I0
sg66
I0
sg101
I0
sg102
I0
sg55
I0
sg41
I0
sg71
I0
sg72
I0
sg173
I0
sg174
I0
sg50
I0
sg106
I0
sg46
I0
sg58
I0
sg56
I0
sg47
I0
sg136
I0
sg44
I0
sg109
I0
sg43
I0
sg110
I0
sg45
I0
sg111
I0
sg51
I4
sg88
I0
sg57
I0
sg42
I0
sg175
I0
sg176
I0
sg40
I0
sg115
I0
sg48
I0
sg95
I0
sg49
I0
sg117
I0
sg118
I0
ssg49
(dp244
g100
I0
sg54
I0
sg66
I0
sg101
I0
sg102
I0
sg55
I0
sg41
I0
sg71
I0
sg72
I0
sg173
I0
sg174
I0
sg50
I3
sg106
I0
sg46
I0
sg58
I0
sg56
I0
sg47
I0
sg136
I0
sg44
I0
sg109
I0
sg43
I0
sg110
I0
sg45
I0
sg111
I0
sg51
I0
sg88
I0
sg57
I0
sg42
I0
sg175
I0
sg176
I0
sg40
I0
sg115
I0
sg48
I0
sg95
I0
sg49
I1
sg117
I0
sg118
I0
ssg20
(dp245
g23
I0
sg39
I0
sg36
I0
sg178
I0
sg28
I0
sg24
I0
sg9
I0
sg17
I0
sg10
I0
sg21
I0
sg38
I0
sg182
I0
sg33
I0
sg18
I0
sg30
I0
sg31
I0
sg186
I0
sg32
I0
sg22
I0
sg29
I0
sg26
I0
sg12
I0
sg13
I0
sg37
I0
sg27
I0
sg191
I0
sg34
I0
sg15
I0
sg11
I0
sg8
I0
sg14
I0
sg20
I4
sg25
I0
sg16
I0
sg35
I0
sg19
I0
ssg50
(dp246
g100
I0
sg54
I0
sg66
I0
sg101
I0
sg102
I0
sg55
I0
sg41
I0
sg71
I0
sg72
I0
sg50
I0
sg106
I0
sg46
I0
sg58
I0
sg56
I0
sg47
I0
sg44
I0
sg109
I0
sg43
I0
sg110
I0
sg45
I0
sg111
I0
sg51
I0
sg88
I0
sg57
I0
sg42
I0
sg40
I0
sg115
I0
sg48
I0
sg95
I0
sg49
I0
sg117
I0
sg118
I0
ssg25
(dp247
g23
I0
sg152
I0
sg39
I0
sg36
I0
sg142
I0
sg28
I0
sg24
I0
sg9
I0
sg17
I0
sg10
I0
sg21
I0
sg38
I0
sg33
I0
sg53
I0
sg18
I0
sg30
I0
sg31
I0
sg145
I0
sg32
I0
sg22
I0
sg52
I0
sg29
I0
sg26
I0
sg12
I0
sg13
I0
sg37
I0
sg27
I0
sg148
I0
sg34
I0
sg15
I0
sg11
I0
sg8
I0
sg14
I0
sg20
I0
sg25
I4
sg16
I0
sg35
I0
sg19
I0
ssg16
(dp248
g23
I0
sg178
I0
sg179
I0
sg24
I0
sg9
I0
sg180
I0
sg17
I0
sg10
I0
sg21
I0
sg181
I0
sg182
I0
sg183
I0
sg18
I0
sg184
I0
sg185
I0
sg186
I0
sg187
I0
sg22
I0
sg188
I0
sg189
I0
sg12
I0
sg13
I0
sg190
I0
sg191
I0
sg15
I0
sg11
I0
sg8
I0
sg14
I0
sg192
I0
sg193
I0
sg20
I0
sg25
I0
sg16
I4
sg19
I0
ssg35
(dp249
g120
I0
sg63
I0
sg39
I0
sg36
I0
sg41
I0
sg28
I0
sg121
I0
sg122
I0
sg123
I0
sg124
I0
sg38
I0
sg46
I0
sg33
I0
sg53
I0
sg47
I0
sg125
I0
sg30
I0
sg31
I0
sg43
I0
sg32
I0
sg126
I0
sg52
I0
sg45
I0
sg29
I0
sg26
I0
sg51
I0
sg37
I0
sg27
I0
sg42
I0
sg44
I0
sg40
I0
sg127
I0
sg48
I0
sg49
I0
sg128
I0
sg50
I0
sg129
I0
sg34
I0
sg35
I0
ssg19
(dp250
g23
I0
sg39
I0
sg36
I0
sg178
I0
sg28
I0
sg24
I0
sg9
I0
sg19
I4
sg10
I0
sg21
I0
sg38
I0
sg182
I0
sg33
I0
sg18
I0
sg30
I0
sg31
I0
sg186
I0
sg32
I0
sg22
I0
sg29
I0
sg26
I0
sg12
I0
sg13
I0
sg37
I0
sg27
I0
sg191
I0
sg34
I0
sg15
I0
sg11
I0
sg8
I0
sg14
I0
sg20
I0
sg25
I0
sg16
I0
sg35
I0
sg17
I0
sssb.