ccopy_reg
_reconstructor
p0
(cutils.eval
ConfusionMatrix
p1
c__builtin__
object
p2
Ntp3
Rp4
(dp5
S'labels'
p6
(lp7
S'put.v.01'
p8
aS'jam.n.01'
p9
aS'refrigerator.n.01'
p10
aS'blender.n.01'
p11
aS'banana.n.02'
p12
aS'rib.n.03'
p13
aS'rib.n.01'
p14
aS'salt.n.02'
p15
aS'coca_cola.n.01'
p16
aS'coke.n.01'
p17
aS'electric_refrigerator.n.01'
p18
aS'pan.n.03'
p19
aS'pizza.n.01'
p20
aS'cake.n.03'
p21
aS'patty.n.01'
p22
aS'whipped_cream.n.01'
p23
aS'soup.n.01'
p24
aS'microwave.n.02'
p25
aS'mug.n.04'
p26
aS'countenance.n.03'
p27
asS'instanceCount'
p28
I24
sS'matrix'
p29
(dp30
g17
(dp31
g17
I0
ssg15
(dp32
S'salt.n.02'
p33
I1
ssg19
(dp34
S'pan.n.03'
p35
I1
ssg27
(dp36
g27
I0
ssg12
(dp37
S'banana.n.02'
p38
I1
ssg11
(dp39
S'blender.n.01'
p40
I1
ssg13
(dp41
g14
I1
ssg24
(dp42
S'soup.n.01'
p43
I1
ssg14
(dp44
g14
I0
ssg9
(dp45
S'jam.n.01'
p46
I1
ssg10
(dp47
S'refrigerator.n.01'
p48
I1
ssg8
(dp49
S'put.v.01'
p50
I8
ssg18
(dp51
S'electric_refrigerator.n.01'
p52
I1
ssg20
(dp53
S'pizza.n.01'
p54
I1
ssg21
(dp55
g22
I1
ssg22
(dp56
g22
I0
ssg25
(dp57
S'microwave.n.02'
p58
I2
ssg16
(dp59
g17
I1
ssg23
(dp60
S'whipped_cream.n.01'
p61
I1
ssg26
(dp62
g27
I1
sssb.