ccopy_reg
_reconstructor
p0
(cutils.eval
ConfusionMatrix
p1
c__builtin__
object
p2
Ntp3
Rp4
(dp5
S'labels'
p6
(lp7
S'put.v.01'
p8
aS'onion.n.01'
p9
aS'onion.n.03'
p10
aS'beef.n.02'
p11
aS'gripe.n.01'
p12
aS'plate.n.04'
p13
aS'plate.n.13'
p14
aS'pan.n.03'
p15
aS'chicken.n.01'
p16
aS'jam.n.01'
p17
aS'refrigerator.n.01'
p18
aS'blender.n.01'
p19
aS'banana.n.02'
p20
aS'rib.n.03'
p21
aS'rib.n.01'
p22
aS'salt.n.02'
p23
aS'coca_cola.n.01'
p24
aS'electric_refrigerator.n.01'
p25
aS'pizza.n.01'
p26
aS'cake.n.03'
p27
aS'patty.n.01'
p28
aS'whipped_cream.n.01'
p29
asS'instanceCount'
p30
I25
sS'matrix'
p31
(dp32
g14
(dp33
g14
I0
ssg16
(dp34
S'chicken.n.01'
p35
I1
ssg11
(dp36
g12
I1
ssg18
(dp37
S'refrigerator.n.01'
p38
I1
ssg28
(dp39
g28
I0
ssg15
(dp40
S'pan.n.03'
p41
I2
ssg24
(dp42
S'coca_cola.n.01'
p43
I1
ssg25
(dp44
S'electric_refrigerator.n.01'
p45
I1
ssg21
(dp46
g22
I1
ssg23
(dp47
S'salt.n.02'
p48
I1
ssg20
(dp49
S'banana.n.02'
p50
I1
ssg13
(dp51
g14
I1
ssg22
(dp52
g22
I0
ssg12
(dp53
g12
I0
ssg29
(dp54
S'whipped_cream.n.01'
p55
I1
ssg19
(dp56
S'blender.n.01'
p57
I1
ssg17
(dp58
S'jam.n.01'
p59
I1
ssg8
(dp60
S'put.v.01'
p61
I8
ssg26
(dp62
S'pizza.n.01'
p63
I1
ssg27
(dp64
g28
I1
ssg9
(dp65
g10
I1
ssg10
(dp66
g10
I0
sssb.