ccopy_reg
_reconstructor
p0
(cutils.eval
ConfusionMatrix
p1
c__builtin__
object
p2
Ntp3
Rp4
(dp5
S'labels'
p6
(lp7
S'bacon.n.01'
p8
aS'slice.v.03'
p9
aS'cake.n.03'
p10
aS'fork.n.01'
p11
aS'branching.n.01'
p12
aS'lemon.n.01'
p13
aS'knife.n.01'
p14
asS'instanceCount'
p15
I8
sS'matrix'
p16
(dp17
g9
(dp18
S'slice.v.03'
p19
I3
ssg14
(dp20
S'knife.n.01'
p21
I1
ssg11
(dp22
g12
I1
ssg10
(dp23
S'cake.n.03'
p24
I1
ssg8
(dp25
S'bacon.n.01'
p26
I1
ssg13
(dp27
S'lemon.n.01'
p28
I1
ssg12
(dp29
g12
I0
sssb.