ccopy_reg
_reconstructor
p0
(cutils.eval
ConfusionMatrix
p1
c__builtin__
object
p2
Ntp3
Rp4
(dp5
S'labels'
p6
(lp7
S'slice.v.03'
p8
aS'onion.n.01'
p9
aS'pepper.n.04'
p10
aS'pepper.n.03'
p11
asS'instanceCount'
p12
I3
sS'matrix'
p13
(dp14
g8
(dp15
S'slice.v.03'
p16
I1
ssg9
(dp17
S'onion.n.01'
p18
I1
ssg11
(dp19
g11
I0
ssg10
(dp20
g11
I1
sssb.