ccopy_reg
_reconstructor
p0
(cutils.eval
ConfusionMatrix
p1
c__builtin__
object
p2
Ntp3
Rp4
(dp5
S'labels'
p6
(lp7
S'opening.n.01'
p8
aS'gap.n.03'
p9
aS'fill.v.09'
p10
aS'fill.v.01'
p11
aS'batter.n.02'
p12
asS'instanceCount'
p13
I3
sS'matrix'
p14
(dp15
g12
(dp16
S'batter.n.02'
p17
I1
ssg11
(dp18
g11
I0
ssg10
(dp19
g11
I1
ssg9
(dp20
g9
I0
ssg8
(dp21
g9
I1
sssb.