ccopy_reg
_reconstructor
p0
(cutils.eval
ConfusionMatrix
p1
c__builtin__
object
p2
Ntp3
Rp4
(dp5
S'labels'
p6
(lp7
S'fill.v.01'
p8
aS'kettle.n.01'
p9
aS'kettle.n.02'
p10
aS'water.n.06'
p11
aS'piece.n.08'
p12
aS'slice.n.06'
p13
aS'pizza.n.01'
p14
aS'slice.v.03'
p15
aS'pitcher.n.02'
p16
aS'milk.n.01'
p17
aS'foam.n.01'
p18
aS'mug.n.04'
p19
aS'pan.n.01'
p20
aS'pan.n.03'
p21
aS'knife.n.01'
p22
aS'knife.n.02'
p23
aS'banana.n.02'
p24
aS'onion.n.01'
p25
aS'pepper.n.04'
p26
aS'pepper.n.03'
p27
aS'cheese.n.01'
p28
aS'flesh.n.01'
p29
aS'pulp.n.02'
p30
aS'opening.n.01'
p31
aS'gap.n.03'
p32
aS'fill.v.09'
p33
aS'batter.n.02'
p34
asS'instanceCount'
p35
I28
sS'matrix'
p36
(dp37
g28
(dp38
g28
I1
sS'slice.v.03'
p39
I0
ssg34
(dp40
g32
I0
sS'fill.v.01'
p41
I0
sg33
I0
sg34
I1
sg31
I0
ssg18
(dp42
g19
I0
sg18
I1
sS'fill.v.01'
p43
I0
ssg17
(dp44
g16
I0
sg17
I1
sS'fill.v.01'
p45
I0
ssg20
(dp46
g20
I0
sg21
I1
sS'water.n.06'
p47
I0
sS'fill.v.01'
p48
I0
ssg21
(dp49
g20
I0
sg21
I0
sg47
I0
sg48
I0
ssg32
(dp50
g34
I0
sg41
I0
sg33
I0
sg32
I0
sg31
I0
ssg33
(dp51
g34
I0
sg41
I1
sg31
I0
sg32
I0
sg33
I0
ssg8
(dp52
g20
I0
sg19
I0
sg21
I0
sg32
I0
sg33
I0
sg11
I0
sg8
I4
sg10
I0
sg16
I0
sg9
I0
sg34
I0
sg18
I0
sg17
I0
sg31
I0
ssg16
(dp53
g16
I1
sg17
I0
sg45
I0
ssg15
(dp54
g15
I5
sg22
I0
sg24
I0
sg23
I0
sg26
I0
sg29
I0
sg13
I0
sg27
I0
sg14
I0
sg28
I0
sg12
I0
sg25
I0
sg30
I0
ssg22
(dp55
S'slice.v.03'
p56
I0
sg22
I0
sg24
I0
sg23
I1
ssg24
(dp57
g56
I0
sg22
I0
sg24
I1
sg23
I0
ssg23
(dp58
g56
I0
sg22
I0
sg24
I0
sg23
I0
ssg26
(dp59
g26
I0
sg25
I0
sg27
I1
sS'slice.v.03'
p60
I0
ssg27
(dp61
g60
I0
sg25
I0
sg27
I0
sg26
I0
ssg12
(dp62
g15
I0
sg12
I0
sg13
I1
sg14
I0
ssg31
(dp63
g34
I0
sg41
I0
sg33
I0
sg32
I1
sg31
I0
ssg19
(dp64
g19
I1
sg18
I0
sg43
I0
ssg29
(dp65
S'slice.v.03'
p66
I0
sg30
I1
sg29
I0
ssg13
(dp67
g15
I0
sg12
I0
sg13
I0
sg14
I0
ssg11
(dp68
g20
I0
sg21
I0
sg11
I2
sg8
I0
sg10
I0
sg9
I0
ssg14
(dp69
g15
I0
sg12
I0
sg13
I0
sg14
I1
ssg10
(dp70
g10
I0
sg9
I0
sg11
I0
sg8
I0
ssg9
(dp71
g10
I1
sg9
I0
sg11
I0
sg8
I0
ssg25
(dp72
g60
I0
sg25
I1
sg27
I0
sg26
I0
ssg30
(dp73
g66
I0
sg30
I0
sg29
I0
sssb.