(dp0
S'engine'
p1
S'internal'
p2
sS'params1'
p3
S''
p4
sS'run'
p5
I00
sS'method0'
p6
S'pseudo-log-likelihood via BFGS'
p7
sS'method1'
p8
S'pseudo-log-likelihood with blocking'
p9
sS'geometry'
p10
S'956x1196+1920+0'
p11
sS'mln'
p12
S'model.mln'
p13
sS'priorStdDev'
p14
S'100'
p15
sS'db'
p16
g4
sS'output_filename'
p17
S'put/11/learned_model.mln'
p18
sS'params0'
p19
g4
sS'pattern'
p20
S'current_learn/*.db'
p21
sS'addUnitClauses'
p22
I0
sS'nePreds'
p23
S'isGrounded'
p24
sS'usePrior'
p25
I1
s.