ccopy_reg
_reconstructor
p0
(cutils.eval
ConfusionMatrix
p1
c__builtin__
object
p2
Ntp3
Rp4
(dp5
S'labels'
p6
(lp7
S'slice.v.03'
p8
aS'onion.n.01'
p9
aS'onion.n.02'
p10
aS'pepper.n.04'
p11
aS'pepper.n.03'
p12
aS'knife.n.01'
p13
aS'tongue.n.03'
p14
aS'banana.n.02'
p15
aS'flesh.n.01'
p16
aS'human_body.n.01'
p17
aS'slice.v.02'
p18
asS'instanceCount'
p19
I8
sS'matrix'
p20
(dp21
g18
(dp22
g18
I0
ssg8
(dp23
g18
I1
sS'slice.v.03'
p24
I2
ssg13
(dp25
g14
I1
ssg15
(dp26
S'banana.n.02'
p27
I1
ssg16
(dp28
g17
I1
ssg11
(dp29
g12
I1
ssg12
(dp30
g12
I0
ssg17
(dp31
g17
I0
ssg14
(dp32
g14
I0
ssg9
(dp33
g10
I1
ssg10
(dp34
g10
I0
sssb.