ccopy_reg
_reconstructor
p0
(cutils.eval
ConfusionMatrix
p1
c__builtin__
object
p2
Ntp3
Rp4
(dp5
S'labels'
p6
(lp7
S'piece.n.08'
p8
aS'slice.n.05'
p9
aS'slice.v.03'
p10
aS'cheese.n.01'
p11
aS'onion.n.01'
p12
aS'pepper.n.04'
p13
aS'pepper.n.03'
p14
aS'onion.n.03'
p15
aS'knife.n.01'
p16
aS'tongue.n.03'
p17
aS'banana.n.02'
p18
aS'slice.v.02'
p19
aS'onion.n.02'
p20
aS'flesh.n.01'
p21
aS'human_body.n.01'
p22
aS'knife.n.02'
p23
aS'pizza.n.01'
p24
aS'pulp.n.02'
p25
aS'slice.n.06'
p26
asS'instanceCount'
p27
I38
sS'matrix'
p28
(dp29
g19
(dp30
g19
I0
sS'cheese.n.01'
p31
I0
sg16
I0
sg18
I0
sS'slice.v.03'
p32
I0
sS'pepper.n.04'
p33
I0
sg21
I0
sS'pepper.n.03'
p34
I0
sg22
I0
sg17
I0
sS'onion.n.01'
p35
I0
sg15
I0
sg20
I0
ssg11
(dp36
g19
I0
sg11
I3
sg16
I0
sg18
I0
sg10
I0
sg13
I0
sS'flesh.n.01'
p37
I0
sg26
I0
sg14
I0
sg9
I0
sg25
I0
sg17
I0
sg8
I0
sS'pizza.n.01'
p38
I0
sg12
I0
sg15
I0
ssg23
(dp39
S'slice.v.03'
p40
I0
sS'knife.n.01'
p41
I0
sS'banana.n.02'
p42
I0
sS'flesh.n.01'
p43
I0
sg23
I0
sS'slice.n.05'
p44
I0
sS'human_body.n.01'
p45
I0
sS'piece.n.08'
p46
I0
sg24
I0
ssg16
(dp47
g19
I0
sg31
I0
sg23
I1
sg16
I0
sg18
I0
sg32
I0
sg33
I0
sg21
I0
sg34
I0
sg44
I0
sg22
I0
sg17
I2
sg46
I0
sg24
I0
sg35
I0
sg15
I0
sg20
I0
ssg18
(dp48
g19
I0
sg31
I0
sg23
I0
sg16
I0
sg18
I3
sg32
I0
sg33
I0
sg21
I0
sg34
I0
sg44
I0
sg22
I0
sg17
I0
sg46
I0
sg24
I0
sg35
I0
sg15
I0
sg20
I0
ssg10
(dp49
g19
I2
sg11
I0
sg23
I0
sg16
I0
sg18
I0
sg10
I13
sg13
I0
sg21
I0
sg26
I0
sg14
I0
sg9
I0
sg22
I0
sg25
I0
sg17
I0
sg8
I0
sg24
I0
sg12
I0
sg15
I0
sg20
I0
ssg13
(dp50
g19
I0
sg11
I0
sg16
I0
sg18
I0
sg10
I0
sg13
I0
sg21
I0
sg14
I3
sg9
I0
sg22
I0
sg17
I0
sg8
I0
sg12
I0
sg15
I0
sg20
I0
ssg21
(dp51
S'slice.v.02'
p52
I0
sS'slice.v.03'
p53
I0
sS'knife.n.01'
p54
I0
sS'banana.n.02'
p55
I0
sg21
I0
sS'pepper.n.04'
p56
I0
sg23
I0
sg26
I0
sS'pepper.n.03'
p57
I0
sg44
I0
sS'cheese.n.01'
p58
I0
sg22
I2
sS'tongue.n.03'
p59
I0
sg46
I0
sg24
I0
sS'onion.n.01'
p60
I0
sg25
I1
sg20
I0
ssg26
(dp61
S'slice.v.03'
p62
I0
sg37
I0
sg26
I0
sg38
I0
sg58
I0
sS'piece.n.08'
p63
I0
sg25
I0
ssg14
(dp64
g19
I0
sg11
I0
sg16
I0
sg18
I0
sg10
I0
sg13
I0
sg21
I0
sg14
I0
sg9
I0
sg22
I0
sg17
I0
sg8
I0
sg12
I0
sg15
I0
sg20
I0
ssg9
(dp65
g11
I0
sg41
I0
sg42
I0
sg10
I0
sg13
I0
sg23
I0
sg14
I0
sg9
I0
sg45
I0
sg24
I0
sg8
I0
sg43
I0
sg12
I0
ssg22
(dp66
g52
I0
sg53
I0
sg54
I0
sg55
I0
sg21
I0
sg56
I0
sg23
I0
sg57
I0
sg44
I0
sg22
I0
sg59
I0
sg46
I0
sg24
I0
sg60
I0
sg20
I0
ssg25
(dp67
g62
I0
sg37
I0
sg26
I0
sg38
I0
sg58
I0
sg63
I0
sg25
I0
ssg17
(dp68
g19
I0
sg31
I0
sg16
I0
sg18
I0
sg32
I0
sg33
I0
sg21
I0
sg34
I0
sg22
I0
sg17
I0
sg35
I0
sg15
I0
sg20
I0
ssg8
(dp69
g11
I0
sg41
I0
sg42
I0
sg10
I0
sg13
I0
sg23
I0
sg26
I1
sg14
I0
sg9
I2
sg45
I0
sg24
I0
sg8
I0
sg43
I0
sg12
I0
sg25
I0
ssg24
(dp70
g40
I0
sg41
I0
sg42
I0
sg23
I0
sg43
I0
sg26
I0
sg24
I2
sg58
I0
sg45
I0
sg46
I0
sg44
I0
sg25
I0
ssg12
(dp71
g19
I0
sg11
I0
sg16
I0
sg18
I0
sg10
I0
sg13
I0
sg21
I0
sg14
I0
sg9
I0
sg22
I0
sg17
I0
sg8
I0
sg12
I1
sg15
I1
sg20
I1
ssg15
(dp72
g19
I0
sg31
I0
sg16
I0
sg18
I0
sg32
I0
sg33
I0
sg34
I0
sg17
I0
sg35
I0
sg15
I0
ssg20
(dp73
g52
I0
sg53
I0
sg54
I0
sg55
I0
sg21
I0
sg56
I0
sg57
I0
sg22
I0
sg59
I0
sg60
I0
sg20
I0
sssb.