ccopy_reg
_reconstructor
p0
(cutils.eval
ConfusionMatrix
p1
c__builtin__
object
p2
Ntp3
Rp4
(dp5
S'labels'
p6
(lp7
S'flesh.n.01'
p8
aS'pulp.n.02'
p9
aS'slice.v.03'
p10
aS'piece.n.08'
p11
aS'slice.n.06'
p12
aS'pizza.n.01'
p13
aS'cheese.n.01'
p14
asS'instanceCount'
p15
I7
sS'matrix'
p16
(dp17
g10
(dp18
S'slice.v.03'
p19
I3
ssg8
(dp20
g9
I1
ssg12
(dp21
g12
I0
ssg13
(dp22
S'pizza.n.01'
p23
I1
ssg14
(dp24
S'cheese.n.01'
p25
I1
ssg11
(dp26
g12
I1
ssg9
(dp27
g9
I0
sssb.