ccopy_reg
_reconstructor
p0
(cutils.eval
ConfusionMatrix
p1
c__builtin__
object
p2
Ntp3
Rp4
(dp5
S'labels'
p6
(lp7
S'cheese.n.01'
p8
aS'slice.v.03'
p9
aS'onion.n.01'
p10
aS'onion.n.03'
p11
aS'pepper.n.04'
p12
aS'pepper.n.03'
p13
aS'knife.n.01'
p14
aS'tongue.n.03'
p15
aS'banana.n.02'
p16
aS'slice.v.02'
p17
asS'instanceCount'
p18
I8
sS'matrix'
p19
(dp20
g17
(dp21
g17
I0
ssg8
(dp22
S'cheese.n.01'
p23
I1
ssg14
(dp24
g15
I1
ssg16
(dp25
S'banana.n.02'
p26
I1
ssg9
(dp27
g17
I1
sS'slice.v.03'
p28
I2
ssg12
(dp29
g13
I1
ssg13
(dp30
g13
I0
ssg15
(dp31
g15
I0
ssg10
(dp32
g11
I1
ssg11
(dp33
g11
I0
sssb.