ccopy_reg
_reconstructor
p0
(cutils.eval
ConfusionMatrix
p1
c__builtin__
object
p2
Ntp3
Rp4
(dp5
S'labels'
p6
(lp7
S'cut.v.01'
p8
aS'piece.n.08'
p9
aS'slice.n.05'
p10
aS'knife.n.01'
p11
aS'bread.n.01'
p12
aS'potato.n.01'
p13
asS'instanceCount'
p14
I7
sS'matrix'
p15
(dp16
g8
(dp17
S'cut.v.01'
p18
I2
ssg11
(dp19
S'knife.n.01'
p20
I1
ssg12
(dp21
S'bread.n.01'
p22
I1
ssg13
(dp23
S'potato.n.01'
p24
I1
ssg9
(dp25
S'piece.n.08'
p26
I1
sg10
I1
ssg10
(dp27
g10
I0
sssb.