ccopy_reg
_reconstructor
p0
(cutils.eval
ConfusionMatrix
p1
c__builtin__
object
p2
Ntp3
Rp4
(dp5
S'labels'
p6
(lp7
S'cake.n.03'
p8
aS'cut.v.01'
p9
aS'fork.n.01'
p10
aS'crotch.n.02'
p11
aS'knife.n.01'
p12
aS'banana.n.02'
p13
asS'instanceCount'
p14
I6
sS'matrix'
p15
(dp16
g9
(dp17
S'cut.v.01'
p18
I2
ssg12
(dp19
S'knife.n.01'
p20
I1
ssg13
(dp21
S'banana.n.02'
p22
I1
ssg11
(dp23
g11
I0
ssg8
(dp24
S'cake.n.03'
p25
I1
ssg10
(dp26
g11
I1
sssb.