ccopy_reg
_reconstructor
p0
(cutils.eval
ConfusionMatrix
p1
c__builtin__
object
p2
Ntp3
Rp4
(dp5
S'labels'
p6
(lp7
S'cut.v.01'
p8
aS'zucchini.n.01'
p9
aS'zucchini.n.02'
p10
aS'piece.n.08'
p11
aS'slice.n.05'
p12
aS'orange.n.01'
p13
asS'instanceCount'
p14
I5
sS'matrix'
p15
(dp16
g8
(dp17
S'cut.v.01'
p18
I2
ssg12
(dp19
g12
I0
ssg13
(dp20
S'orange.n.01'
p21
I1
ssg10
(dp22
g10
I0
ssg9
(dp23
g10
I1
ssg11
(dp24
g12
I1
sssb.