ccopy_reg
_reconstructor
p0
(cutils.eval
ConfusionMatrix
p1
c__builtin__
object
p2
Ntp3
Rp4
(dp5
S'labels'
p6
(lp7
S'knife.n.01'
p8
aS'banana.n.02'
p9
aS'banana.n.01'
p10
aS'slice.v.03'
p11
aS'slice.v.02'
p12
aS'onion.n.01'
p13
aS'pepper.n.04'
p14
aS'cheese.n.01'
p15
aS'tall_mallow.n.01'
p16
aS'fill.v.01'
p17
aS'fill.v.09'
p18
aS'foam.n.01'
p19
aS'mug.n.04'
p20
aS'pitcher.n.02'
p21
aS'pitcher.n.03'
p22
aS'milk.n.01'
p23
aS'milk.n.04'
p24
aS'opening.n.01'
p25
aS'gap.n.05'
p26
aS'fill.v.06'
p27
aS'batter.n.02'
p28
aS'piece.n.08'
p29
aS'slice.n.05'
p30
aS'pizza.n.01'
p31
aS'pan.n.01'
p32
aS'water.n.06'
p33
aS'flesh.n.01'
p34
aS'kettle.n.01'
p35
aS'kettle.n.02'
p36
aS'body_of_water.n.01'
p37
asS'instanceCount'
p38
I224
sS'matrix'
p39
(dp40
g15
(dp41
g15
I0
sg37
I0
sg31
I0
sg28
I0
sg24
I0
sg19
I0
sg23
I0
sg32
I0
sg26
I0
sg18
I0
sg27
I0
sg17
I0
sg22
I0
sg21
I0
sg12
I0
sg11
I0
sg8
I0
sg10
I0
sg9
I0
sg14
I0
sg29
I0
sg16
I8
sg25
I0
sg20
I0
sg34
I0
sg33
I0
sg30
I0
sg36
I0
sg35
I0
sg13
I0
ssg37
(dp42
S'cheese.n.01'
p43
I0
sS'slice.n.05'
p44
I0
sg37
I0
sS'batter.n.02'
p45
I0
sS'milk.n.04'
p46
I0
sS'foam.n.01'
p47
I0
sS'milk.n.01'
p48
I0
sS'pan.n.01'
p49
I0
sS'gap.n.05'
p50
I0
sS'fill.v.09'
p51
I0
sS'fill.v.06'
p52
I0
sS'fill.v.01'
p53
I0
sS'pitcher.n.03'
p54
I0
sS'pitcher.n.02'
p55
I0
sS'slice.v.02'
p56
I0
sS'slice.v.03'
p57
I0
sS'knife.n.01'
p58
I0
sS'banana.n.01'
p59
I0
sS'banana.n.02'
p60
I0
sS'pepper.n.04'
p61
I0
sS'piece.n.08'
p62
I0
sS'tall_mallow.n.01'
p63
I0
sS'opening.n.01'
p64
I0
sS'mug.n.04'
p65
I0
sg34
I0
sS'water.n.06'
p66
I0
sS'pizza.n.01'
p67
I0
sg36
I0
sg35
I0
sS'onion.n.01'
p68
I0
ssg31
(dp69
g15
I0
sg30
I0
sg37
I0
sg28
I0
sg24
I0
sg19
I0
sg23
I0
sg32
I0
sg26
I0
sg18
I0
sg27
I0
sg17
I0
sg22
I0
sg21
I0
sg12
I0
sg11
I0
sg8
I0
sg10
I0
sg9
I0
sg14
I0
sg29
I0
sg16
I0
sg25
I0
sg20
I0
sg34
I0
sg33
I0
sg31
I8
sg36
I0
sg35
I0
sg13
I0
ssg28
(dp70
g15
I0
sg37
I0
sg31
I0
sg28
I8
sg24
I0
sg19
I0
sg23
I0
sg32
I0
sg26
I0
sg18
I0
sg27
I0
sg17
I0
sg22
I0
sg21
I0
sg12
I0
sg11
I0
sg8
I0
sg10
I0
sg9
I0
sg14
I0
sg29
I0
sg16
I0
sg25
I0
sg20
I0
sg34
I0
sg33
I0
sg30
I0
sg36
I0
sg35
I0
sg13
I0
ssg24
(dp71
g15
I0
sg37
I0
sg31
I0
sg28
I0
sg24
I0
sg19
I0
sg23
I0
sg32
I0
sg26
I0
sg18
I0
sg27
I0
sg17
I0
sg22
I0
sg21
I0
sg12
I0
sg11
I0
sg8
I0
sg10
I0
sg9
I0
sg14
I0
sg29
I0
sg16
I0
sg25
I0
sg20
I0
sg34
I0
sg33
I0
sg30
I0
sg36
I0
sg35
I0
sg13
I0
ssg19
(dp72
g15
I0
sg37
I0
sg31
I0
sg28
I0
sg24
I0
sg19
I8
sg23
I0
sg32
I0
sg26
I0
sg18
I0
sg27
I0
sg17
I0
sg22
I0
sg21
I0
sg12
I0
sg11
I0
sg8
I0
sg10
I0
sg9
I0
sg14
I0
sg29
I0
sg16
I0
sg25
I0
sg20
I0
sg34
I0
sg33
I0
sg30
I0
sg36
I0
sg35
I0
sg13
I0
ssg23
(dp73
g15
I0
sg37
I0
sg31
I0
sg28
I0
sg24
I8
sg19
I0
sg23
I0
sg32
I0
sg26
I0
sg18
I0
sg27
I0
sg17
I0
sg22
I0
sg21
I0
sg12
I0
sg11
I0
sg8
I0
sg10
I0
sg9
I0
sg14
I0
sg29
I0
sg16
I0
sg25
I0
sg20
I0
sg34
I0
sg33
I0
sg30
I0
sg36
I0
sg35
I0
sg13
I0
ssg32
(dp74
g15
I0
sg37
I0
sg31
I0
sg28
I0
sg24
I0
sg19
I0
sg23
I0
sg32
I8
sg26
I0
sg18
I0
sg27
I0
sg17
I0
sg22
I0
sg21
I0
sg12
I0
sg11
I0
sg8
I0
sg10
I0
sg9
I0
sg14
I0
sg29
I0
sg16
I0
sg25
I0
sg20
I0
sg34
I0
sg33
I0
sg30
I0
sg36
I0
sg35
I0
sg13
I0
ssg26
(dp75
g15
I0
sg37
I0
sg31
I0
sg28
I0
sg24
I0
sg19
I0
sg23
I0
sg32
I0
sg26
I0
sg18
I0
sg27
I0
sg17
I0
sg22
I0
sg21
I0
sg12
I0
sg11
I0
sg8
I0
sg10
I0
sg9
I0
sg14
I0
sg29
I0
sg16
I0
sg25
I0
sg20
I0
sg34
I0
sg33
I0
sg30
I0
sg36
I0
sg35
I0
sg13
I0
ssg18
(dp76
g15
I0
sg37
I0
sg31
I0
sg28
I0
sg24
I0
sg19
I0
sg23
I0
sg32
I0
sg26
I0
sg18
I0
sg27
I8
sg17
I0
sg22
I0
sg21
I0
sg12
I0
sg11
I0
sg8
I0
sg10
I0
sg9
I0
sg14
I0
sg29
I0
sg16
I0
sg25
I0
sg20
I0
sg34
I0
sg33
I0
sg30
I0
sg36
I0
sg35
I0
sg13
I0
ssg27
(dp77
g15
I0
sg37
I0
sg31
I0
sg28
I0
sg24
I0
sg19
I0
sg23
I0
sg32
I0
sg26
I0
sg18
I0
sg27
I0
sg17
I0
sg22
I0
sg21
I0
sg12
I0
sg11
I0
sg8
I0
sg10
I0
sg9
I0
sg14
I0
sg29
I0
sg16
I0
sg25
I0
sg20
I0
sg34
I0
sg33
I0
sg30
I0
sg36
I0
sg35
I0
sg13
I0
ssg17
(dp78
g15
I0
sg37
I0
sg31
I0
sg28
I0
sg24
I0
sg19
I0
sg23
I0
sg32
I0
sg26
I0
sg18
I28
sg27
I0
sg17
I4
sg22
I0
sg21
I0
sg12
I0
sg11
I0
sg8
I0
sg10
I0
sg9
I0
sg14
I0
sg29
I0
sg16
I0
sg25
I0
sg20
I0
sg34
I0
sg33
I0
sg30
I0
sg36
I0
sg35
I0
sg13
I0
ssg22
(dp79
g15
I0
sg37
I0
sg31
I0
sg28
I0
sg24
I0
sg19
I0
sg23
I0
sg32
I0
sg26
I0
sg18
I0
sg27
I0
sg17
I0
sg22
I0
sg21
I0
sg12
I0
sg11
I0
sg8
I0
sg10
I0
sg9
I0
sg14
I0
sg29
I0
sg16
I0
sg25
I0
sg20
I0
sg34
I0
sg33
I0
sg30
I0
sg36
I0
sg35
I0
sg13
I0
ssg21
(dp80
g15
I0
sg37
I0
sg31
I0
sg28
I0
sg24
I0
sg19
I0
sg23
I0
sg32
I0
sg26
I0
sg18
I0
sg27
I0
sg17
I0
sg22
I8
sg21
I0
sg12
I0
sg11
I0
sg8
I0
sg10
I0
sg9
I0
sg14
I0
sg29
I0
sg16
I0
sg25
I0
sg20
I0
sg34
I0
sg33
I0
sg30
I0
sg36
I0
sg35
I0
sg13
I0
ssg12
(dp81
g15
I0
sg37
I0
sg31
I0
sg28
I0
sg24
I0
sg19
I0
sg23
I0
sg32
I0
sg26
I0
sg18
I0
sg27
I0
sg17
I0
sg22
I0
sg21
I0
sg12
I0
sg11
I0
sg8
I0
sg10
I0
sg9
I0
sg14
I0
sg29
I0
sg16
I0
sg25
I0
sg20
I0
sg34
I0
sg33
I0
sg30
I0
sg36
I0
sg35
I0
sg13
I0
ssg11
(dp82
g15
I0
sg37
I0
sg31
I0
sg28
I0
sg24
I0
sg19
I0
sg23
I0
sg32
I0
sg26
I0
sg18
I0
sg27
I0
sg17
I0
sg22
I0
sg21
I0
sg12
I40
sg11
I0
sg8
I0
sg10
I0
sg9
I0
sg14
I0
sg29
I0
sg16
I0
sg25
I0
sg20
I0
sg34
I0
sg33
I0
sg30
I0
sg36
I0
sg35
I0
sg13
I0
ssg8
(dp83
g15
I0
sS'body_of_water.n.01'
p84
I0
sg31
I0
sg28
I0
sg24
I0
sg19
I0
sg23
I0
sg32
I0
sg26
I0
sg18
I0
sg27
I0
sg17
I0
sg22
I0
sg21
I0
sg12
I0
sg11
I0
sg8
I8
sg10
I0
sg9
I0
sg14
I0
sg29
I0
sg16
I0
sg25
I0
sg20
I0
sS'flesh.n.01'
p85
I0
sg33
I0
sg30
I0
sS'kettle.n.02'
p86
I0
sS'kettle.n.01'
p87
I0
sg13
I0
ssg10
(dp88
g15
I0
sg84
I0
sg31
I0
sg28
I0
sg24
I0
sg19
I0
sg23
I0
sg32
I0
sg26
I0
sg18
I0
sg27
I0
sg17
I0
sg22
I0
sg21
I0
sg12
I0
sg11
I0
sg8
I0
sg10
I0
sg9
I0
sg14
I0
sg29
I0
sg16
I0
sg25
I0
sg20
I0
sg85
I0
sg33
I0
sg30
I0
sg86
I0
sg87
I0
sg13
I0
ssg9
(dp89
g15
I0
sg84
I0
sg31
I0
sg28
I0
sg24
I0
sg19
I0
sg23
I0
sg32
I0
sg26
I0
sg18
I0
sg27
I0
sg17
I0
sg22
I0
sg21
I0
sg12
I0
sg11
I0
sg8
I0
sg10
I8
sg9
I0
sg14
I0
sg29
I0
sg16
I0
sg25
I0
sg20
I0
sg85
I0
sg33
I0
sg30
I0
sg86
I0
sg87
I0
sg13
I0
ssg14
(dp90
g15
I0
sg84
I0
sg31
I0
sg28
I0
sg24
I0
sg19
I0
sg23
I0
sg32
I0
sg26
I0
sg18
I0
sg27
I0
sg17
I0
sg22
I0
sg21
I0
sg12
I0
sg11
I0
sg8
I0
sg10
I0
sg9
I0
sg14
I8
sg29
I0
sg16
I0
sg25
I0
sg20
I0
sg85
I0
sg33
I0
sg30
I0
sg86
I0
sg87
I0
sg13
I0
ssg29
(dp91
g15
I0
sg37
I0
sg31
I0
sg28
I0
sg24
I0
sg19
I0
sg23
I0
sg32
I0
sg26
I0
sg18
I0
sg27
I0
sg17
I0
sg22
I0
sg21
I0
sg12
I0
sg11
I0
sg8
I0
sg10
I0
sg9
I0
sg14
I0
sg29
I0
sg16
I0
sg25
I0
sg20
I0
sg34
I0
sg33
I0
sg30
I8
sg36
I0
sg35
I0
sg13
I0
ssg16
(dp92
g15
I0
sg37
I0
sg31
I0
sg28
I0
sg24
I0
sg19
I0
sg23
I0
sg32
I0
sg26
I0
sg18
I0
sg27
I0
sg17
I0
sg22
I0
sg21
I0
sg12
I0
sg11
I0
sg8
I0
sg10
I0
sg9
I0
sg14
I0
sg29
I0
sg16
I0
sg25
I0
sg20
I0
sg34
I0
sg33
I0
sg30
I0
sg36
I0
sg35
I0
sg13
I0
ssg25
(dp93
g15
I0
sg37
I0
sg31
I0
sg28
I0
sg24
I0
sg19
I0
sg23
I0
sg32
I0
sg26
I8
sg18
I0
sg27
I0
sg17
I0
sg22
I0
sg21
I0
sg12
I0
sg11
I0
sg8
I0
sg10
I0
sg9
I0
sg14
I0
sg29
I0
sg16
I0
sg25
I0
sg20
I0
sg34
I0
sg33
I0
sg30
I0
sg36
I0
sg35
I0
sg13
I0
ssg20
(dp94
g15
I0
sg37
I0
sg31
I0
sg28
I0
sg24
I0
sg19
I0
sg23
I0
sg32
I0
sg26
I0
sg18
I0
sg27
I0
sg17
I0
sg22
I0
sg21
I0
sg12
I0
sg11
I0
sg8
I0
sg10
I0
sg9
I0
sg14
I0
sg29
I0
sg16
I0
sg25
I0
sg20
I8
sg34
I0
sg33
I0
sg30
I0
sg36
I0
sg35
I0
sg13
I0
ssg34
(dp95
g43
I0
sg44
I0
sg37
I0
sg45
I0
sg46
I0
sg47
I0
sg48
I0
sg49
I0
sg50
I0
sg51
I0
sg52
I0
sg53
I0
sg54
I0
sg55
I0
sg56
I0
sg57
I0
sg58
I0
sg59
I0
sg60
I0
sg61
I0
sg62
I0
sg63
I0
sg64
I0
sg65
I0
sg34
I8
sg66
I0
sg67
I0
sg36
I0
sg35
I0
sg68
I0
ssg33
(dp96
g15
I0
sg37
I6
sg31
I0
sg28
I0
sg24
I0
sg19
I0
sg23
I0
sg32
I0
sg26
I0
sg18
I0
sg27
I0
sg17
I0
sg22
I0
sg21
I0
sg12
I0
sg11
I0
sg8
I0
sg10
I0
sg9
I0
sg14
I0
sg29
I0
sg16
I0
sg25
I0
sg20
I0
sg34
I0
sg33
I10
sg30
I0
sg36
I0
sg35
I0
sg13
I0
ssg30
(dp97
g15
I0
sg37
I0
sg31
I0
sg28
I0
sg24
I0
sg19
I0
sg23
I0
sg32
I0
sg26
I0
sg18
I0
sg27
I0
sg17
I0
sg22
I0
sg21
I0
sg12
I0
sg11
I0
sg8
I0
sg10
I0
sg9
I0
sg14
I0
sg29
I0
sg16
I0
sg25
I0
sg20
I0
sg34
I0
sg33
I0
sg30
I0
sg36
I0
sg35
I0
sg13
I0
ssg36
(dp98
g43
I0
sg44
I0
sg37
I0
sg45
I0
sg46
I0
sg47
I0
sg48
I0
sg49
I0
sg50
I0
sg51
I0
sg52
I0
sg53
I0
sg54
I0
sg55
I0
sg56
I0
sg57
I0
sg58
I0
sg59
I0
sg60
I0
sg61
I0
sg62
I0
sg63
I0
sg64
I0
sg65
I0
sg34
I0
sg66
I0
sg67
I0
sg36
I0
sg35
I0
sg68
I0
ssg35
(dp99
g43
I0
sg44
I0
sg37
I0
sg45
I0
sg46
I0
sg47
I0
sg48
I0
sg49
I0
sg50
I0
sg51
I0
sg52
I0
sg53
I0
sg54
I0
sg55
I0
sg56
I0
sg57
I0
sg58
I0
sg59
I0
sg60
I0
sg61
I0
sg62
I0
sg63
I0
sg64
I0
sg65
I0
sg34
I0
sg66
I0
sg67
I0
sg36
I8
sg35
I0
sg68
I0
ssg13
(dp100
g15
I0
sg84
I0
sg31
I0
sg28
I0
sg24
I0
sg19
I0
sg23
I0
sg32
I0
sg26
I0
sg18
I0
sg27
I0
sg17
I0
sg22
I0
sg21
I0
sg12
I0
sg11
I0
sg8
I0
sg10
I0
sg9
I0
sg14
I0
sg29
I0
sg16
I0
sg25
I0
sg20
I0
sg85
I0
sg33
I0
sg30
I0
sg86
I0
sg87
I0
sg13
I8
sssb.