ccopy_reg
_reconstructor
p0
(cutils.eval
ConfusionMatrix
p1
c__builtin__
object
p2
Ntp3
Rp4
(dp5
S'labels'
p6
(lp7
S'put.v.01'
p8
aS'pan.n.03'
p9
aS'chicken.n.01'
p10
aS'chicken.n.04'
p11
asS'instanceCount'
p12
I3
sS'matrix'
p13
(dp14
g11
(dp15
g11
I0
ssg9
(dp16
S'pan.n.03'
p17
I1
ssg10
(dp18
g11
I1
ssg8
(dp19
S'put.v.01'
p20
I1
sssb.