ccopy_reg
_reconstructor
p0
(cutils.eval
ConfusionMatrix
p1
c__builtin__
object
p2
Ntp3
Rp4
(dp5
S'labels'
p6
(lp7
S'slice.v.03'
p8
aS'lemon.n.01'
p9
aS'cheese.n.01'
p10
aS'knife.n.01'
p11
aS'banana.n.02'
p12
aS'tomato.n.01'
p13
aS'bread.n.01'
p14
aS'meat.n.01'
p15
aS'cleaver.n.01'
p16
aS'zucchini.n.01'
p17
aS'zucchini.n.02'
p18
aS'green_onion.n.01'
p19
aS'mushroom.n.05'
p20
aS'bacon.n.01'
p21
aS'egg.n.02'
p22
aS'piece.n.08'
p23
aS'flesh.n.01'
p24
aS'pulp.n.02'
p25
aS'pizza.n.01'
p26
aS'slice.n.06'
p27
aS'olive.n.01'
p28
aS'olive.n.04'
p29
aS'orange.n.01'
p30
aS'cabbage.n.01'
p31
aS'catsup.n.01'
p32
aS'tomato.n.02'
p33
aS'onion.n.03'
p34
aS'onion.n.02'
p35
aS'mustard.n.02'
p36
aS'mustard.n.01'
p37
aS'potato.n.01'
p38
aS'vegetable.n.01'
p39
asS'instanceCount'
p40
I158
sS'matrix'
p41
(dp42
g20
(dp43
g20
I3
sS'slice.v.03'
p44
I0
sS'vegetable.n.01'
p45
I0
sS'knife.n.01'
p46
I0
sS'flesh.n.01'
p47
I0
sg22
I0
sS'potato.n.01'
p48
I0
sg27
I0
sg21
I0
sS'pizza.n.01'
p49
I0
sg18
I0
sS'lemon.n.01'
p50
I0
sg17
I0
sg19
I0
sg23
I0
sS'pulp.n.02'
p51
I0
ssg10
(dp52
g10
I3
sg28
I0
sg11
I0
sg12
I0
sg8
I0
sg33
I0
sg13
I0
sg29
I0
sS'slice.n.06'
p53
I0
sg36
I0
sg14
I0
sg30
I0
sg15
I0
sg9
I0
sg32
I0
sg31
I0
sS'piece.n.08'
p54
I0
sg35
I0
sg37
I0
sg34
I0
sg16
I0
ssg14
(dp55
g10
I0
sg11
I0
sg12
I0
sg8
I0
sg13
I0
sg24
I0
sg14
I3
sS'zucchini.n.02'
p56
I0
sg15
I0
sg9
I0
sS'zucchini.n.01'
p57
I0
sS'piece.n.08'
p58
I0
sg26
I0
sS'green_onion.n.01'
p59
I0
sg25
I0
sg16
I0
ssg30
(dp60
S'slice.v.03'
p61
I0
sg28
I0
sg31
I0
sg29
I0
sg33
I0
sS'tomato.n.01'
p62
I0
sg38
I0
sg53
I0
sg36
I0
sS'bacon.n.01'
p63
I0
sS'cheese.n.01'
p64
I0
sg30
I3
sg39
I0
sS'lemon.n.01'
p65
I0
sS'egg.n.02'
p66
I0
sg32
I0
sS'knife.n.01'
p67
I0
sg54
I0
sg37
I0
sg34
I0
sg35
I0
ssg18
(dp68
g20
I0
sg44
I0
sg46
I0
sg24
I0
sg22
I0
sg27
I0
sg21
I0
sS'bread.n.01'
p69
I0
sg18
I0
sS'meat.n.01'
p70
I0
sg50
I0
sg17
I0
sg19
I0
sg26
I0
sg23
I0
sg25
I0
sS'cleaver.n.01'
p71
I0
ssg17
(dp72
g20
I0
sg44
I0
sg46
I0
sg24
I0
sg22
I0
sg27
I0
sg21
I0
sg69
I0
sg18
I3
sg70
I0
sg50
I0
sg17
I0
sg19
I0
sg26
I0
sg23
I0
sg25
I0
sg71
I0
ssg31
(dp73
g61
I0
sg28
I0
sg31
I3
sS'banana.n.02'
p74
I0
sg29
I0
sg33
I0
sg62
I0
sg53
I0
sg36
I0
sg64
I0
sg30
I0
sS'vegetable.n.01'
p75
I0
sg65
I0
sS'potato.n.01'
p76
I0
sg32
I0
sS'knife.n.01'
p77
I0
sg54
I0
sg37
I0
sg34
I0
sg35
I0
ssg19
(dp78
g20
I0
sg44
I0
sg46
I0
sg24
I0
sg22
I0
sg27
I0
sg21
I0
sg69
I0
sg18
I0
sg70
I0
sg50
I0
sg17
I0
sg19
I3
sg26
I0
sg23
I0
sg25
I0
sg71
I0
ssg37
(dp79
g37
I0
sg28
I0
sg31
I0
sg74
I0
sg61
I0
sg33
I0
sg62
I0
sg29
I0
sg53
I0
sg36
I0
sg64
I0
sg30
I0
sg65
I0
sg32
I0
sg77
I0
sg54
I0
sg34
I0
sg35
I0
ssg36
(dp80
g61
I0
sg36
I1
sg31
I0
sg74
I0
sg29
I0
sg33
I0
sg62
I0
sg53
I0
sg28
I0
sg64
I0
sg30
I0
sg75
I0
sg65
I0
sg76
I0
sg32
I0
sg77
I0
sg54
I0
sg37
I2
sg34
I0
sg35
I0
ssg22
(dp81
g20
I0
sg44
I0
sg39
I0
sg46
I0
sS'olive.n.04'
p82
I0
sg22
I3
sg38
I0
sS'slice.n.06'
p83
I0
sS'olive.n.01'
p84
I0
sg21
I0
sS'orange.n.01'
p85
I0
sg18
I0
sg50
I0
sg17
I0
sg19
I0
sg23
I0
ssg13
(dp86
g10
I0
sg14
I0
sg30
I0
sg31
I0
sg37
I0
sg36
I0
sg33
I3
sg13
I3
sg15
I0
sg76
I0
sg16
I0
sg8
I0
sg28
I0
sg11
I0
sg12
I0
sg29
I0
sg32
I0
sS'piece.n.08'
p87
I0
sg75
I0
sS'flesh.n.01'
p88
I0
sg53
I0
sS'pizza.n.01'
p89
I0
sS'pulp.n.02'
p90
I0
sg9
I0
sg34
I0
sg35
I0
ssg21
(dp91
g20
I0
sg44
I0
sg39
I0
sg46
I0
sg82
I0
sg22
I0
sg38
I0
sg83
I0
sg84
I0
sg21
I3
sg85
I0
sg18
I0
sg50
I0
sg17
I0
sg19
I0
sg23
I0
ssg15
(dp92
g8
I0
sg11
I0
sg12
I0
sg10
I0
sg13
I0
sg24
I0
sg14
I0
sg56
I0
sg15
I3
sg9
I0
sg57
I0
sg58
I0
sg26
I0
sg59
I0
sg25
I0
sg16
I0
ssg38
(dp93
S'mushroom.n.05'
p94
I0
sS'slice.v.03'
p95
I0
sg39
I0
sg67
I0
sg82
I0
sg66
I0
sS'tomato.n.01'
p96
I0
sg83
I0
sg84
I0
sg63
I0
sS'tomato.n.02'
p97
I0
sg85
I0
sS'lemon.n.01'
p98
I0
sg38
I3
sS'cabbage.n.01'
p99
I0
sS'piece.n.08'
p100
I0
sS'mustard.n.02'
p101
I0
sS'onion.n.03'
p102
I0
sS'onion.n.02'
p103
I0
ssg16
(dp104
g8
I0
sg11
I0
sg12
I0
sg10
I0
sg13
I0
sg24
I0
sg14
I0
sg56
I0
sg16
I3
sg9
I0
sg57
I0
sg58
I0
sg26
I0
sg59
I0
sg25
I0
sg15
I0
ssg8
(dp105
g20
I0
sg10
I0
sg14
I0
sg30
I0
sg18
I0
sg17
I0
sg31
I0
sg19
I0
sg37
I0
sg36
I0
sg22
I0
sg13
I0
sg21
I0
sg15
I0
sg38
I0
sg16
I0
sg8
I57
sg28
I0
sg11
I0
sg12
I0
sg29
I0
sg32
I0
sg23
I0
sg39
I0
sg24
I0
sg27
I0
sg26
I0
sg34
I0
sg9
I0
sg33
I0
sg25
I0
sg35
I0
ssg28
(dp106
g61
I0
sg28
I0
sg31
I0
sg29
I3
sg33
I0
sg62
I0
sg38
I0
sg53
I0
sg36
I0
sg63
I0
sg64
I0
sg30
I0
sg39
I0
sg65
I0
sg66
I0
sg32
I0
sg67
I0
sg54
I0
sg37
I0
sg34
I0
sg35
I0
ssg11
(dp107
g20
I0
sg10
I0
sg14
I0
sg85
I0
sg18
I0
sg17
I0
sS'cabbage.n.01'
p108
I0
sg19
I0
sS'mustard.n.01'
p109
I0
sS'mustard.n.02'
p110
I0
sg22
I0
sg13
I0
sg21
I0
sg15
I0
sg38
I0
sg16
I0
sg8
I0
sg84
I0
sg11
I15
sg12
I0
sg82
I0
sS'catsup.n.01'
p111
I0
sg23
I0
sg39
I0
sg24
I0
sg27
I0
sg26
I0
sS'onion.n.03'
p112
I0
sg9
I0
sS'tomato.n.02'
p113
I0
sg25
I0
sg103
I0
ssg12
(dp114
g8
I0
sg110
I0
sg11
I0
sg12
I3
sg10
I0
sg113
I0
sg13
I0
sg88
I0
sg14
I0
sg112
I0
sg15
I0
sg9
I0
sg111
I0
sg108
I0
sg87
I0
sg89
I0
sg109
I0
sg90
I0
sg16
I0
ssg29
(dp115
g61
I0
sg28
I0
sg31
I0
sg29
I0
sg33
I0
sg62
I0
sg38
I0
sg53
I0
sg36
I0
sg63
I0
sg64
I0
sg30
I0
sg39
I0
sg65
I0
sg66
I0
sg32
I0
sg67
I0
sg54
I0
sg37
I0
sg34
I0
sg35
I0
ssg32
(dp116
g61
I0
sg28
I0
sg31
I0
sg74
I0
sg29
I0
sg33
I0
sg62
I0
sg53
I0
sg36
I0
sg64
I0
sg30
I0
sg65
I0
sg32
I2
sg77
I0
sg54
I0
sg37
I0
sg34
I0
sg35
I0
ssg23
(dp117
g20
I0
sg64
I0
sg69
I0
sg30
I0
sg18
I0
sg17
I0
sg31
I0
sg19
I0
sg37
I0
sg36
I0
sg22
I0
sS'tomato.n.01'
p118
I0
sg21
I0
sg70
I0
sg38
I0
sg71
I0
sg44
I0
sg28
I0
sg46
I0
sS'banana.n.02'
p119
I0
sg29
I0
sg32
I0
sg23
I6
sg39
I0
sg24
I0
sg27
I9
sg26
I0
sg34
I0
sg50
I0
sg33
I0
sg25
I0
sg35
I0
ssg39
(dp120
g94
I0
sg95
I0
sg39
I3
sg67
I0
sg82
I0
sg66
I0
sg96
I0
sg83
I0
sg84
I0
sg63
I0
sg97
I0
sg85
I0
sg98
I0
sg38
I0
sg99
I0
sg100
I0
sg101
I0
sg102
I0
sg103
I0
ssg24
(dp121
S'mushroom.n.05'
p122
I0
sS'slice.v.03'
p123
I0
sS'knife.n.01'
p124
I0
sg119
I0
sg24
I0
sg118
I0
sg27
I0
sg69
I0
sg56
I0
sg71
I0
sS'lemon.n.01'
p125
I0
sg57
I0
sg58
I0
sg26
I0
sg59
I0
sg25
I3
sg70
I0
ssg27
(dp126
g122
I0
sg64
I0
sg30
I0
sS'zucchini.n.02'
p127
I0
sS'zucchini.n.01'
p128
I0
sg31
I0
sS'green_onion.n.01'
p129
I0
sg37
I0
sg36
I0
sg33
I0
sg62
I0
sg63
I0
sg38
I0
sS'slice.v.03'
p130
I0
sg28
I0
sS'knife.n.01'
p131
I0
sg29
I0
sg32
I0
sS'piece.n.08'
p132
I0
sg39
I0
sg47
I0
sg27
I0
sg49
I0
sg51
I0
sg125
I0
sg66
I0
sg34
I0
sg35
I0
ssg26
(dp133
g122
I0
sg123
I0
sg124
I0
sg119
I0
sg24
I0
sg118
I0
sg27
I0
sg69
I0
sg56
I0
sg71
I0
sg125
I0
sg57
I0
sg58
I0
sg26
I3
sg59
I0
sg25
I0
sg70
I0
ssg34
(dp134
g61
I0
sg28
I0
sg31
I0
sg74
I0
sg29
I0
sg33
I0
sg62
I0
sg53
I0
sg36
I0
sg64
I0
sg30
I0
sg75
I0
sg65
I0
sg76
I0
sg32
I0
sg77
I0
sg54
I0
sg37
I0
sg34
I1
sg35
I2
ssg9
(dp135
g20
I0
sg10
I0
sg14
I0
sg30
I0
sg18
I0
sg17
I0
sg31
I0
sg19
I0
sg37
I0
sg36
I0
sg22
I0
sg13
I0
sg21
I0
sg15
I0
sg48
I0
sg16
I0
sg8
I0
sg28
I0
sg11
I0
sg12
I0
sg29
I0
sg32
I0
sg23
I0
sg45
I0
sg47
I0
sg27
I0
sg49
I0
sg34
I0
sg9
I6
sg33
I0
sg51
I0
sg35
I0
ssg33
(dp136
g61
I0
sg28
I0
sg31
I0
sg74
I0
sg29
I0
sg33
I0
sg62
I0
sg53
I0
sg36
I0
sg64
I0
sg30
I0
sg75
I0
sg65
I0
sg76
I0
sg32
I0
sg77
I0
sg54
I0
sg37
I0
sg34
I0
sg35
I0
ssg25
(dp137
g122
I0
sg123
I0
sg124
I0
sg119
I0
sg24
I0
sg118
I0
sg27
I0
sg69
I0
sg56
I0
sg71
I0
sg125
I0
sg57
I0
sg58
I0
sg26
I0
sg59
I0
sg25
I0
sg70
I0
ssg35
(dp138
g61
I0
sg28
I0
sg31
I0
sg29
I0
sg33
I0
sg62
I0
sg53
I0
sg36
I0
sg64
I0
sg30
I0
sg75
I0
sg65
I0
sg76
I0
sg32
I0
sS'knife.n.01'
p139
I0
sg54
I0
sg37
I0
sg34
I0
sg35
I0
sssb.