ccopy_reg
_reconstructor
p0
(cutils.eval
ConfusionMatrix
p1
c__builtin__
object
p2
Ntp3
Rp4
(dp5
S'labels'
p6
(lp7
S'slice.v.03'
p8
aS'potato.n.01'
p9
aS'piece.n.08'
p10
aS'slice.n.06'
p11
aS'vegetable.n.01'
p12
aS'knife.n.01'
p13
aS'olive.n.01'
p14
aS'olive.n.04'
p15
aS'orange.n.01'
p16
aS'cabbage.n.01'
p17
aS'tomato.n.01'
p18
aS'tomato.n.02'
p19
aS'onion.n.03'
p20
aS'onion.n.02'
p21
aS'mustard.n.02'
p22
asS'instanceCount'
p23
I17
sS'matrix'
p24
(dp25
g8
(dp26
S'slice.v.03'
p27
I5
ssg12
(dp28
S'vegetable.n.01'
p29
I1
ssg13
(dp30
S'knife.n.01'
p31
I1
ssg15
(dp32
g15
I0
ssg19
(dp33
g19
I0
ssg18
(dp34
g19
I1
ssg11
(dp35
g11
I0
ssg14
(dp36
g15
I1
ssg16
(dp37
S'orange.n.01'
p38
I1
ssg9
(dp39
S'potato.n.01'
p40
I1
ssg17
(dp41
S'cabbage.n.01'
p42
I1
ssg10
(dp43
S'piece.n.08'
p44
I1
sg11
I2
ssg22
(dp45
S'mustard.n.02'
p46
I1
ssg20
(dp47
g21
I1
ssg21
(dp48
g21
I0
sssb.