ccopy_reg
_reconstructor
p0
(cutils.eval
ConfusionMatrix
p1
c__builtin__
object
p2
Ntp3
Rp4
(dp5
S'labels'
p6
(lp7
S'slice.v.03'
p8
aS'cabbage.n.01'
p9
aS'catsup.n.01'
p10
aS'tomato.n.01'
p11
aS'tomato.n.02'
p12
aS'piece.n.08'
p13
aS'onion.n.03'
p14
aS'mustard.n.02'
p15
aS'mustard.n.01'
p16
aS'lemon.n.01'
p17
aS'cheese.n.01'
p18
aS'knife.n.01'
p19
aS'banana.n.02'
p20
asS'instanceCount'
p21
I17
sS'matrix'
p22
(dp23
g8
(dp24
S'slice.v.03'
p25
I5
ssg15
(dp26
g16
I1
ssg9
(dp27
S'cabbage.n.01'
p28
I1
ssg20
(dp29
S'banana.n.02'
p30
I1
ssg16
(dp31
g16
I0
ssg12
(dp32
g12
I0
ssg11
(dp33
g12
I1
sS'tomato.n.01'
p34
I1
ssg18
(dp35
S'cheese.n.01'
p36
I1
ssg17
(dp37
S'lemon.n.01'
p38
I1
ssg10
(dp39
S'catsup.n.01'
p40
I1
ssg19
(dp41
S'knife.n.01'
p42
I2
ssg13
(dp43
S'piece.n.08'
p44
I1
ssg14
(dp45
S'onion.n.03'
p46
I1
sssb.