ccopy_reg
_reconstructor
p0
(cutils.eval
ConfusionMatrix
p1
c__builtin__
object
p2
Ntp3
Rp4
(dp5
S'labels'
p6
(lp7
S'slice.v.03'
p8
aS'lemon.n.01'
p9
aS'mushroom.n.05'
p10
aS'bacon.n.01'
p11
aS'egg.n.02'
p12
aS'piece.n.08'
p13
aS'slice.n.06'
p14
aS'potato.n.01'
p15
aS'vegetable.n.01'
p16
aS'knife.n.01'
p17
asS'instanceCount'
p18
I15
sS'matrix'
p19
(dp20
g10
(dp21
S'mushroom.n.05'
p22
I1
ssg8
(dp23
S'slice.v.03'
p24
I6
ssg16
(dp25
S'vegetable.n.01'
p26
I1
ssg17
(dp27
S'knife.n.01'
p28
I1
ssg12
(dp29
S'egg.n.02'
p30
I1
ssg14
(dp31
g14
I0
ssg11
(dp32
S'bacon.n.01'
p33
I1
ssg9
(dp34
S'lemon.n.01'
p35
I1
ssg15
(dp36
S'potato.n.01'
p37
I1
ssg13
(dp38
g14
I2
sssb.