ccopy_reg
_reconstructor
p0
(cutils.eval
ConfusionMatrix
p1
c__builtin__
object
p2
Ntp3
Rp4
(dp5
S'labels'
p6
(lp7
S'knife.n.01'
p8
aS'banana.n.02'
p9
aS'slice.v.03'
p10
aS'tomato.n.01'
p11
aS'bread.n.01'
p12
aS'meat.n.01'
p13
aS'cleaver.n.01'
p14
aS'flesh.n.01'
p15
aS'pulp.n.02'
p16
aS'piece.n.08'
p17
aS'pizza.n.01'
p18
asS'instanceCount'
p19
I17
sS'matrix'
p20
(dp21
g10
(dp22
S'slice.v.03'
p23
I6
ssg8
(dp24
S'knife.n.01'
p25
I3
ssg9
(dp26
S'banana.n.02'
p27
I1
ssg15
(dp28
g16
I1
ssg11
(dp29
S'tomato.n.01'
p30
I1
ssg12
(dp31
S'bread.n.01'
p32
I1
ssg13
(dp33
S'meat.n.01'
p34
I1
ssg17
(dp35
S'piece.n.08'
p36
I1
ssg18
(dp37
S'pizza.n.01'
p38
I1
ssg16
(dp39
g16
I0
ssg14
(dp40
S'cleaver.n.01'
p41
I1
sssb.