ccopy_reg
_reconstructor
p0
(cutils.eval
ConfusionMatrix
p1
c__builtin__
object
p2
Ntp3
Rp4
(dp5
S'labels'
p6
(lp7
S'flesh.n.01'
p8
aS'pulp.n.02'
p9
aS'slice.v.03'
p10
aS'piece.n.08'
p11
aS'slice.n.06'
p12
aS'pizza.n.01'
p13
aS'zucchini.n.01'
p14
aS'zucchini.n.02'
p15
aS'knife.n.01'
p16
aS'green_onion.n.01'
p17
aS'lemon.n.01'
p18
aS'mushroom.n.05'
p19
asS'instanceCount'
p20
I14
sS'matrix'
p21
(dp22
g19
(dp23
S'mushroom.n.05'
p24
I1
ssg10
(dp25
S'slice.v.03'
p26
I6
ssg16
(dp27
S'knife.n.01'
p28
I1
ssg8
(dp29
g9
I1
ssg12
(dp30
g12
I0
ssg13
(dp31
S'pizza.n.01'
p32
I1
ssg15
(dp33
g15
I0
ssg18
(dp34
S'lemon.n.01'
p35
I1
ssg14
(dp36
g15
I1
ssg11
(dp37
g12
I1
ssg17
(dp38
S'green_onion.n.01'
p39
I1
ssg9
(dp40
g9
I0
sssb.