ccopy_reg
_reconstructor
p0
(cutils.eval
ConfusionMatrix
p1
c__builtin__
object
p2
Ntp3
Rp4
(dp5
S'labels'
p6
(lp7
S'slice.v.03'
p8
aS'bacon.n.01'
p9
aS'egg.n.02'
p10
aS'piece.n.08'
p11
aS'slice.n.06'
p12
aS'potato.n.01'
p13
aS'vegetable.n.01'
p14
aS'knife.n.01'
p15
aS'olive.n.01'
p16
aS'olive.n.04'
p17
aS'orange.n.01'
p18
asS'instanceCount'
p19
I16
sS'matrix'
p20
(dp21
g8
(dp22
S'slice.v.03'
p23
I6
ssg14
(dp24
S'vegetable.n.01'
p25
I1
ssg15
(dp26
S'knife.n.01'
p27
I1
ssg17
(dp28
g17
I0
ssg10
(dp29
S'egg.n.02'
p30
I1
ssg12
(dp31
g12
I0
ssg16
(dp32
g17
I1
ssg9
(dp33
S'bacon.n.01'
p34
I1
ssg18
(dp35
S'orange.n.01'
p36
I1
ssg13
(dp37
S'potato.n.01'
p38
I1
ssg11
(dp39
g12
I3
sssb.