ccopy_reg
_reconstructor
p0
(cutils.eval
ConfusionMatrix
p1
c__builtin__
object
p2
Ntp3
Rp4
(dp5
S'labels'
p6
(lp7
S'zucchini.n.01'
p8
aS'zucchini.n.02'
p9
aS'cut.v.01'
p10
aS'mushroom.n.05'
p11
aS'flesh.n.01'
p12
aS'pulp.n.02'
p13
aS'vegetable.n.01'
p14
aS'knife.n.01'
p15
aS'tomato.n.01'
p16
aS'cheese.n.01'
p17
aS'piece.n.08'
p18
aS'slice.n.06'
p19
aS'potato.n.01'
p20
aS'egg.n.02'
p21
aS'meat.n.01'
p22
aS'cleaver.n.01'
p23
aS'lemon.n.01'
p24
asS'instanceCount'
p25
I25
sS'matrix'
p26
(dp27
g11
(dp28
S'mushroom.n.05'
p29
I1
ssg17
(dp30
S'cheese.n.01'
p31
I1
ssg14
(dp32
S'vegetable.n.01'
p33
I1
ssg10
(dp34
S'cut.v.01'
p35
I10
ssg15
(dp36
S'knife.n.01'
p37
I2
ssg12
(dp38
g13
I1
ssg21
(dp39
S'egg.n.02'
p40
I1
ssg16
(dp41
S'tomato.n.01'
p42
I1
ssg20
(dp43
S'potato.n.01'
p44
I1
ssg19
(dp45
g19
I0
ssg9
(dp46
g9
I0
ssg22
(dp47
S'meat.n.01'
p48
I1
ssg24
(dp49
S'lemon.n.01'
p50
I1
ssg8
(dp51
g9
I1
ssg18
(dp52
g19
I2
ssg13
(dp53
g13
I0
ssg23
(dp54
S'cleaver.n.01'
p55
I1
sssb.