ccopy_reg
_reconstructor
p0
(cutils.eval
ConfusionMatrix
p1
c__builtin__
object
p2
Ntp3
Rp4
(dp5
S'labels'
p6
(lp7
S'cut.v.01'
p8
aS'bacon.n.01'
p9
aS'piece.n.08'
p10
aS'slice.n.06'
p11
aS'orange.n.01'
p12
aS'zucchini.n.01'
p13
aS'zucchini.n.02'
p14
aS'mushroom.n.05'
p15
aS'flesh.n.01'
p16
aS'pulp.n.02'
p17
aS'vegetable.n.01'
p18
aS'knife.n.01'
p19
aS'tomato.n.01'
p20
aS'cheese.n.01'
p21
aS'potato.n.01'
p22
aS'egg.n.02'
p23
asS'instanceCount'
p24
I25
sS'matrix'
p25
(dp26
g15
(dp27
S'mushroom.n.05'
p28
I1
ssg21
(dp29
S'cheese.n.01'
p30
I1
ssg18
(dp31
S'vegetable.n.01'
p32
I1
ssg8
(dp33
S'cut.v.01'
p34
I10
ssg19
(dp35
S'knife.n.01'
p36
I2
ssg16
(dp37
g17
I1
ssg23
(dp38
S'egg.n.02'
p39
I1
ssg20
(dp40
S'tomato.n.01'
p41
I1
ssg22
(dp42
S'potato.n.01'
p43
I1
ssg11
(dp44
g11
I0
ssg9
(dp45
S'bacon.n.01'
p46
I1
ssg12
(dp47
S'orange.n.01'
p48
I1
ssg14
(dp49
g14
I0
ssg13
(dp50
g14
I1
ssg10
(dp51
g11
I3
ssg17
(dp52
g17
I0
sssb.