ccopy_reg
_reconstructor
p0
(cutils.eval
ConfusionMatrix
p1
c__builtin__
object
p2
Ntp3
Rp4
(dp5
S'labels'
p6
(lp7
S'cut.v.01'
p8
aS'tomato.n.01'
p9
aS'knife.n.01'
p10
aS'cheese.n.01'
p11
aS'piece.n.08'
p12
aS'slice.n.06'
p13
aS'potato.n.01'
p14
aS'egg.n.02'
p15
aS'meat.n.01'
p16
aS'cleaver.n.01'
p17
aS'lemon.n.01'
p18
aS'fork.n.01'
p19
aS'fork.n.04'
p20
aS'cake.n.03'
p21
aS'bread.n.01'
p22
aS'pizza.n.01'
p23
asS'instanceCount'
p24
I27
sS'matrix'
p25
(dp26
g11
(dp27
S'cheese.n.01'
p28
I1
ssg8
(dp29
S'cut.v.01'
p30
I10
ssg10
(dp31
S'knife.n.01'
p32
I2
ssg15
(dp33
S'egg.n.02'
p34
I1
ssg9
(dp35
S'tomato.n.01'
p36
I1
ssg20
(dp37
g20
I0
ssg13
(dp38
g13
I0
ssg19
(dp39
g20
I1
ssg22
(dp40
S'bread.n.01'
p41
I1
ssg21
(dp42
S'cake.n.03'
p43
I1
ssg16
(dp44
S'meat.n.01'
p45
I1
ssg18
(dp46
S'lemon.n.01'
p47
I2
ssg14
(dp48
S'potato.n.01'
p49
I1
ssg12
(dp50
g13
I3
ssg23
(dp51
S'pizza.n.01'
p52
I1
ssg17
(dp53
S'cleaver.n.01'
p54
I1
sssb.