ccopy_reg
_reconstructor
p0
(cutils.eval
ConfusionMatrix
p1
c__builtin__
object
p2
Ntp3
Rp4
(dp5
S'labels'
p6
(lp7
S'cut.v.01'
p8
aS'lemon.n.01'
p9
aS'fork.n.01'
p10
aS'fork.n.04'
p11
aS'cake.n.03'
p12
aS'bread.n.01'
p13
aS'knife.n.01'
p14
aS'piece.n.08'
p15
aS'slice.n.06'
p16
aS'pizza.n.01'
p17
aS'green_onion.n.01'
p18
aS'olive.n.01'
p19
aS'olive.n.04'
p20
aS'banana.n.02'
p21
aS'cabbage.n.01'
p22
aS'bacon.n.01'
p23
aS'orange.n.01'
p24
asS'instanceCount'
p25
I26
sS'matrix'
p26
(dp27
g19
(dp28
g20
I1
ssg8
(dp29
S'cut.v.01'
p30
I10
ssg14
(dp31
S'knife.n.01'
p32
I3
ssg21
(dp33
S'banana.n.02'
p34
I1
ssg20
(dp35
g20
I0
ssg11
(dp36
g11
I0
ssg16
(dp37
g16
I0
ssg10
(dp38
g11
I1
ssg13
(dp39
S'bread.n.01'
p40
I1
ssg24
(dp41
S'orange.n.01'
p42
I1
ssg12
(dp43
S'cake.n.03'
p44
I1
ssg23
(dp45
S'bacon.n.01'
p46
I1
ssg9
(dp47
S'lemon.n.01'
p48
I1
ssg22
(dp49
S'cabbage.n.01'
p50
I1
ssg15
(dp51
g16
I2
ssg17
(dp52
S'pizza.n.01'
p53
I1
ssg18
(dp54
S'green_onion.n.01'
p55
I1
sssb.