ccopy_reg
_reconstructor
p0
(cutils.eval
ConfusionMatrix
p1
c__builtin__
object
p2
Ntp3
Rp4
(dp5
S'labels'
p6
(lp7
S'cut.v.01'
p8
aS'meat.n.01'
p9
aS'cleaver.n.01'
p10
aS'lemon.n.01'
p11
aS'fork.n.01'
p12
aS'fork.n.04'
p13
aS'cake.n.03'
p14
aS'bread.n.01'
p15
aS'knife.n.01'
p16
aS'piece.n.08'
p17
aS'pizza.n.01'
p18
aS'green_onion.n.01'
p19
aS'olive.n.01'
p20
aS'olive.n.04'
p21
aS'banana.n.02'
p22
aS'cabbage.n.01'
p23
asS'instanceCount'
p24
I26
sS'matrix'
p25
(dp26
g20
(dp27
g21
I1
ssg8
(dp28
S'cut.v.01'
p29
I10
ssg16
(dp30
S'knife.n.01'
p31
I3
ssg22
(dp32
S'banana.n.02'
p33
I1
ssg21
(dp34
g21
I0
ssg13
(dp35
g13
I0
ssg12
(dp36
g13
I1
ssg15
(dp37
S'bread.n.01'
p38
I1
ssg14
(dp39
S'cake.n.03'
p40
I1
ssg9
(dp41
S'meat.n.01'
p42
I1
ssg11
(dp43
S'lemon.n.01'
p44
I2
ssg23
(dp45
S'cabbage.n.01'
p46
I1
ssg17
(dp47
S'piece.n.08'
p48
I1
ssg18
(dp49
S'pizza.n.01'
p50
I1
ssg19
(dp51
S'green_onion.n.01'
p52
I1
ssg10
(dp53
S'cleaver.n.01'
p54
I1
sssb.