ccopy_reg
_reconstructor
p0
(cutils.eval
ConfusionMatrix
p1
c__builtin__
object
p2
Ntp3
Rp4
(dp5
S'labels'
p6
(lp7
S'cut.v.01'
p8
aS'meat.n.01'
p9
aS'cleaver.n.01'
p10
aS'lemon.n.01'
p11
aS'fork.n.01'
p12
aS'fork.n.04'
p13
aS'cake.n.03'
p14
aS'bread.n.01'
p15
aS'knife.n.01'
p16
aS'piece.n.08'
p17
aS'pizza.n.01'
p18
aS'green_onion.n.01'
p19
aS'olive.n.01'
p20
aS'olive.n.04'
p21
aS'banana.n.02'
p22
aS'cabbage.n.01'
p23
aS'slice.n.06'
p24
aS'bacon.n.01'
p25
aS'orange.n.01'
p26
aS'zucchini.n.01'
p27
aS'zucchini.n.02'
p28
aS'mushroom.n.05'
p29
aS'flesh.n.01'
p30
aS'pulp.n.02'
p31
aS'vegetable.n.01'
p32
aS'tomato.n.01'
p33
aS'cheese.n.01'
p34
aS'potato.n.01'
p35
aS'egg.n.02'
p36
aS'human_body.n.01'
p37
asS'instanceCount'
p38
I255
sS'matrix'
p39
(dp40
g29
(dp41
g29
I5
sg34
I0
sS'bread.n.01'
p42
I0
sg26
I0
sg28
I0
sg27
I0
sS'cabbage.n.01'
p43
I0
sS'green_onion.n.01'
p44
I0
sS'cut.v.01'
p45
I0
sg36
I0
sg33
I0
sg25
I0
sS'meat.n.01'
p46
I0
sg35
I0
sS'cleaver.n.01'
p47
I0
sS'olive.n.01'
p48
I0
sS'knife.n.01'
p49
I0
sS'banana.n.02'
p50
I0
sS'olive.n.04'
p51
I0
sg37
I0
sS'piece.n.08'
p52
I0
sg32
I0
sg30
I0
sg24
I0
sS'pizza.n.01'
p53
I0
sS'lemon.n.01'
p54
I0
sg31
I0
ssg34
(dp55
S'mushroom.n.05'
p56
I0
sg34
I5
sS'bread.n.01'
p57
I0
sS'orange.n.01'
p58
I0
sS'zucchini.n.02'
p59
I0
sS'zucchini.n.01'
p60
I0
sS'cabbage.n.01'
p61
I0
sS'cut.v.01'
p62
I0
sg36
I0
sg33
I0
sS'bacon.n.01'
p63
I0
sg46
I0
sg35
I0
sg47
I0
sS'knife.n.01'
p64
I0
sS'banana.n.02'
p65
I0
sS'fork.n.04'
p66
I0
sS'fork.n.01'
p67
I0
sS'human_body.n.01'
p68
I0
sS'piece.n.08'
p69
I0
sg32
I0
sg30
I0
sS'slice.n.06'
p70
I0
sS'pizza.n.01'
p71
I0
sS'cake.n.03'
p72
I0
sg54
I0
sg31
I0
ssg15
(dp73
g29
I0
sS'cheese.n.01'
p74
I0
sg15
I5
sg26
I0
sg28
I0
sg27
I0
sg23
I0
sg19
I0
sg8
I0
sS'egg.n.02'
p75
I0
sS'tomato.n.01'
p76
I0
sg25
I0
sg10
I0
sS'potato.n.01'
p77
I0
sg9
I0
sg20
I0
sg16
I0
sg22
I0
sg21
I0
sg13
I0
sg12
I0
sg17
I0
sg24
I0
sg18
I0
sg14
I0
sg11
I0
ssg26
(dp78
g29
I0
sg34
I0
sg42
I0
sg26
I5
sg28
I0
sg27
I0
sg43
I0
sg44
I0
sg45
I0
sg36
I0
sg33
I0
sg25
I0
sg35
I0
sg48
I0
sg49
I0
sg50
I0
sg51
I0
sS'fork.n.04'
p79
I0
sS'fork.n.01'
p80
I0
sg37
I0
sg52
I0
sg32
I0
sg30
I0
sg24
I0
sg53
I0
sS'cake.n.03'
p81
I0
sS'lemon.n.01'
p82
I0
sg31
I0
ssg28
(dp83
g29
I0
sg34
I0
sg42
I0
sg26
I0
sg28
I0
sg27
I0
sg43
I0
sg44
I0
sg45
I0
sg36
I0
sg33
I0
sg25
I0
sg46
I0
sg35
I0
sg47
I0
sg48
I0
sg49
I0
sg50
I0
sg51
I0
sg37
I0
sg52
I0
sg32
I0
sg30
I0
sg24
I0
sg53
I0
sg54
I0
sg31
I0
ssg27
(dp84
g29
I0
sg34
I0
sg42
I0
sg26
I0
sg28
I5
sg27
I0
sg43
I0
sg44
I0
sg45
I0
sg36
I0
sg33
I0
sg25
I0
sg46
I0
sg35
I0
sg47
I0
sg48
I0
sg49
I0
sg50
I0
sg51
I0
sg37
I0
sg52
I0
sg32
I0
sg30
I0
sg24
I0
sg53
I0
sg54
I0
sg31
I0
ssg23
(dp85
g29
I0
sS'cheese.n.01'
p86
I0
sg15
I0
sg26
I0
sg28
I0
sg27
I0
sg16
I0
sg19
I0
sg8
I0
sS'tomato.n.01'
p87
I0
sg25
I0
sg9
I0
sg10
I0
sg20
I0
sg23
I5
sg22
I0
sg21
I0
sg13
I0
sg12
I0
sg37
I0
sg17
I0
sS'vegetable.n.01'
p88
I0
sS'flesh.n.01'
p89
I0
sg24
I0
sg18
I0
sg14
I0
sg11
I0
ssg19
(dp90
g29
I0
sg15
I0
sg26
I0
sg28
I0
sg27
I0
sg23
I0
sg19
I5
sg8
I0
sg75
I0
sg25
I0
sg9
I0
sg77
I0
sg10
I0
sg20
I0
sg16
I0
sg22
I0
sg21
I0
sg13
I0
sg12
I0
sg37
I0
sg17
I0
sg88
I0
sg89
I0
sg24
I0
sg18
I0
sg14
I0
sg11
I0
ssg8
(dp91
g29
I0
sg34
I0
sg15
I0
sg26
I0
sg28
I0
sg27
I0
sg23
I0
sg19
I0
sg8
I100
sg36
I0
sg33
I0
sg25
I0
sg9
I0
sg35
I0
sg10
I0
sg20
I0
sg16
I0
sg22
I0
sg21
I0
sg13
I0
sg12
I0
sg37
I0
sg17
I0
sg32
I0
sg30
I0
sg24
I0
sg18
I0
sg14
I0
sg11
I0
sg31
I0
ssg36
(dp92
g56
I0
sg34
I0
sS'bread.n.01'
p93
I0
sg58
I0
sg59
I0
sg60
I0
sS'green_onion.n.01'
p94
I0
sg62
I0
sg36
I5
sg33
I0
sg63
I0
sg46
I0
sg35
I0
sg47
I0
sS'olive.n.01'
p95
I0
sg64
I0
sS'olive.n.04'
p96
I0
sg66
I0
sg67
I0
sg69
I0
sg32
I0
sg30
I0
sg70
I0
sS'pizza.n.01'
p97
I0
sg72
I0
sg54
I0
sg31
I0
ssg33
(dp98
g56
I0
sg34
I0
sg57
I0
sg58
I0
sg59
I0
sg60
I0
sg61
I0
sg62
I0
sg36
I0
sg33
I5
sg63
I0
sg46
I0
sg35
I0
sg47
I0
sg64
I0
sg65
I0
sg66
I0
sg67
I0
sg68
I0
sg69
I0
sg32
I0
sg30
I0
sg70
I0
sg71
I0
sg72
I0
sg54
I0
sg31
I0
ssg25
(dp99
g29
I0
sg34
I0
sg42
I0
sg26
I0
sg28
I0
sg27
I0
sg43
I0
sg44
I0
sg45
I0
sg36
I0
sg33
I0
sg25
I5
sg35
I0
sg48
I0
sg49
I0
sg50
I0
sg51
I0
sg79
I0
sg80
I0
sg37
I0
sg52
I0
sg32
I0
sg30
I0
sg24
I0
sg53
I0
sg81
I0
sg82
I0
sg31
I0
ssg9
(dp100
S'mushroom.n.05'
p101
I0
sS'cheese.n.01'
p102
I0
sg15
I0
sS'zucchini.n.02'
p103
I0
sS'zucchini.n.01'
p104
I0
sg23
I0
sg19
I0
sg8
I0
sS'egg.n.02'
p105
I0
sS'tomato.n.01'
p106
I0
sg9
I5
sS'potato.n.01'
p107
I0
sg10
I0
sg20
I0
sg16
I0
sg22
I0
sg21
I0
sg13
I0
sg12
I0
sg17
I0
sS'vegetable.n.01'
p108
I0
sS'flesh.n.01'
p109
I0
sS'slice.n.06'
p110
I0
sg18
I0
sg14
I0
sg11
I0
sS'pulp.n.02'
p111
I0
ssg35
(dp112
g56
I0
sg34
I0
sg93
I0
sg58
I0
sg59
I0
sg60
I0
sg94
I0
sg62
I0
sg36
I0
sg33
I0
sg63
I0
sg46
I0
sg35
I5
sg47
I0
sg95
I0
sg64
I0
sg96
I0
sg66
I0
sg67
I0
sg69
I0
sg32
I0
sg30
I0
sg70
I0
sg97
I0
sg72
I0
sg54
I0
sg31
I0
ssg10
(dp113
g101
I0
sg102
I0
sg15
I0
sg103
I0
sg104
I0
sg23
I0
sg19
I0
sg8
I0
sg105
I0
sg106
I0
sg10
I5
sg107
I0
sg9
I0
sg20
I0
sg16
I0
sg22
I0
sg21
I0
sg13
I0
sg12
I0
sg17
I0
sg108
I0
sg109
I0
sg110
I0
sg18
I0
sg14
I0
sg11
I0
sg111
I0
ssg20
(dp114
g29
I0
sg15
I0
sg26
I0
sg28
I0
sg27
I0
sg23
I0
sg19
I0
sg8
I0
sg75
I0
sg25
I0
sg9
I0
sg77
I0
sg10
I0
sg20
I0
sg16
I0
sg22
I0
sg21
I5
sg13
I0
sg12
I0
sg37
I0
sg17
I0
sg88
I0
sg89
I0
sg24
I0
sg18
I0
sg14
I0
sg11
I0
ssg16
(dp115
g29
I0
sg34
I0
sg15
I0
sg26
I0
sg28
I0
sg27
I0
sg23
I0
sg19
I0
sg8
I0
sg36
I0
sg33
I0
sg25
I0
sg9
I0
sg35
I0
sg10
I0
sg20
I0
sg16
I25
sg22
I0
sg21
I0
sg13
I0
sg12
I0
sg37
I0
sg17
I0
sg32
I0
sg30
I0
sg24
I0
sg18
I0
sg14
I0
sg11
I0
sg31
I0
ssg22
(dp116
g29
I0
sg86
I0
sg15
I0
sg26
I0
sg28
I0
sg27
I0
sg23
I0
sg19
I0
sg8
I0
sg87
I0
sg25
I0
sg9
I0
sg10
I0
sg20
I0
sg16
I0
sg22
I5
sg21
I0
sg13
I0
sg12
I0
sg37
I0
sg17
I0
sg88
I0
sg89
I0
sg24
I0
sg18
I0
sg14
I0
sg11
I0
ssg21
(dp117
g29
I0
sg15
I0
sg26
I0
sg28
I0
sg27
I0
sg23
I0
sg19
I0
sg8
I0
sg75
I0
sg25
I0
sg10
I0
sg77
I0
sg9
I0
sg20
I0
sg16
I0
sg22
I0
sg21
I0
sg13
I0
sg12
I0
sg37
I0
sg17
I0
sg88
I0
sg89
I0
sg24
I0
sg18
I0
sg14
I0
sg11
I0
ssg13
(dp118
S'cheese.n.01'
p119
I0
sg15
I0
sS'orange.n.01'
p120
I0
sg23
I0
sg19
I0
sg8
I0
sS'egg.n.02'
p121
I0
sS'tomato.n.01'
p122
I0
sS'bacon.n.01'
p123
I0
sg9
I0
sS'potato.n.01'
p124
I0
sg10
I0
sg20
I0
sg16
I0
sg22
I0
sg21
I0
sg13
I0
sg12
I0
sg17
I0
sS'vegetable.n.01'
p125
I0
sS'flesh.n.01'
p126
I0
sS'slice.n.06'
p127
I0
sg18
I0
sg14
I0
sg11
I0
sS'pulp.n.02'
p128
I0
ssg12
(dp129
g119
I0
sg15
I0
sg120
I0
sg23
I0
sg19
I0
sg8
I0
sg121
I0
sg122
I0
sg123
I0
sg9
I0
sg124
I0
sg10
I0
sg20
I0
sg16
I0
sg22
I0
sg21
I0
sg13
I5
sg12
I0
sg17
I0
sg125
I0
sg126
I0
sg127
I0
sg18
I0
sg14
I0
sg11
I0
sg128
I0
ssg37
(dp130
S'mushroom.n.05'
p131
I0
sg86
I0
sS'olive.n.01'
p132
I0
sS'cut.v.01'
p133
I0
sS'knife.n.01'
p134
I0
sS'banana.n.02'
p135
I0
sS'olive.n.04'
p136
I0
sg87
I0
sg89
I0
sS'slice.n.06'
p137
I0
sS'orange.n.01'
p138
I0
sS'bacon.n.01'
p139
I0
sg37
I0
sS'zucchini.n.02'
p140
I0
sg88
I0
sS'zucchini.n.01'
p141
I0
sS'cabbage.n.01'
p142
I0
sS'green_onion.n.01'
p143
I0
sS'piece.n.08'
p144
I0
ssg17
(dp145
g29
I0
sg34
I0
sg15
I0
sg26
I0
sg28
I0
sg27
I0
sg23
I0
sg19
I0
sg8
I0
sg36
I0
sg33
I0
sg25
I0
sg9
I0
sg35
I0
sg10
I0
sg20
I0
sg16
I0
sg22
I0
sg21
I0
sg13
I0
sg12
I0
sg37
I0
sg17
I1
sg32
I0
sg30
I0
sg24
I19
sg18
I0
sg14
I0
sg11
I0
sg31
I0
ssg32
(dp146
g56
I0
sg34
I0
sg58
I0
sg59
I0
sg60
I0
sg142
I0
sg143
I0
sg62
I0
sg36
I0
sg33
I0
sg63
I0
sg46
I0
sg35
I0
sg47
I0
sg132
I0
sg64
I0
sg135
I0
sg136
I0
sg66
I0
sg67
I0
sg37
I0
sg69
I0
sg32
I5
sg30
I0
sg70
I0
sg72
I0
sg54
I0
sg31
I0
ssg30
(dp147
g56
I0
sg34
I0
sg58
I0
sg59
I0
sg60
I0
sg142
I0
sg143
I0
sg62
I0
sg36
I0
sg33
I0
sg63
I0
sg46
I0
sg35
I0
sg47
I0
sg132
I0
sg64
I0
sg135
I0
sg136
I0
sg66
I0
sg67
I0
sg37
I2
sg69
I0
sg32
I0
sg30
I0
sg70
I0
sg72
I0
sg54
I0
sg31
I3
ssg24
(dp148
g29
I0
sg34
I0
sg42
I0
sg26
I0
sg28
I0
sg27
I0
sg43
I0
sg44
I0
sg45
I0
sg36
I0
sg33
I0
sg25
I0
sg46
I0
sg35
I0
sg47
I0
sg48
I0
sg49
I0
sg50
I0
sg51
I0
sg66
I0
sg67
I0
sg37
I0
sg52
I0
sg32
I0
sg30
I0
sg24
I0
sg53
I0
sg72
I0
sg54
I0
sg31
I0
ssg18
(dp149
g29
I0
sg74
I0
sg15
I0
sg26
I0
sg28
I0
sg27
I0
sg23
I0
sg19
I0
sg8
I0
sg75
I0
sg76
I0
sg25
I0
sg10
I0
sg77
I0
sg9
I0
sg20
I0
sg16
I0
sg22
I0
sg21
I0
sg13
I0
sg12
I0
sg17
I0
sg24
I0
sg18
I5
sg14
I0
sg11
I0
ssg14
(dp150
g119
I0
sg15
I0
sg120
I0
sg23
I0
sg19
I0
sg8
I0
sg121
I0
sg122
I0
sg123
I0
sg9
I0
sg124
I0
sg10
I0
sg20
I0
sg16
I0
sg22
I0
sg21
I0
sg13
I0
sg12
I0
sg17
I0
sg125
I0
sg126
I0
sg127
I0
sg18
I0
sg14
I5
sg11
I0
sg128
I0
ssg11
(dp151
g101
I0
sg102
I0
sg15
I0
sg120
I0
sg103
I0
sg104
I0
sg23
I0
sg19
I0
sg8
I0
sg105
I0
sg106
I0
sg123
I0
sg9
I0
sg107
I0
sg10
I0
sg20
I0
sg16
I0
sg22
I0
sg21
I0
sg13
I0
sg12
I0
sg17
I0
sg108
I0
sg109
I0
sg110
I0
sg18
I0
sg14
I0
sg11
I10
sg111
I0
ssg31
(dp152
g56
I0
sg34
I0
sg58
I0
sg59
I0
sg60
I0
sg62
I0
sg36
I0
sg33
I0
sg63
I0
sg46
I0
sg35
I0
sg47
I0
sg64
I0
sg66
I0
sg67
I0
sg69
I0
sg32
I0
sg30
I0
sg70
I0
sg72
I0
sg54
I0
sg31
I0
sssb.