ccopy_reg
_reconstructor
p0
(cutils.eval
ConfusionMatrix
p1
c__builtin__
object
p2
Ntp3
Rp4
(dp5
S'labels'
p6
(lp7
S'fill.v.01'
p8
aS'fill.v.09'
p9
aS'pitcher.n.02'
p10
aS'milk.n.01'
p11
aS'flesh.n.01'
p12
aS'human_body.n.01'
p13
aS'slice.v.03'
p14
aS'slice.v.02'
p15
aS'piece.n.08'
p16
aS'slice.n.06'
p17
aS'pizza.n.01'
p18
aS'knife.n.01'
p19
aS'tongue.n.03'
p20
aS'banana.n.02'
p21
aS'kettle.n.01'
p22
aS'water.n.06'
p23
asS'instanceCount'
p24
I14
sS'matrix'
p25
(dp26
g15
(dp27
g15
I0
ssg14
(dp28
g15
I1
sS'slice.v.03'
p29
I2
ssg19
(dp30
g20
I1
ssg21
(dp31
S'banana.n.02'
p32
I1
ssg9
(dp33
g9
I0
ssg12
(dp34
g13
I1
ssg17
(dp35
g17
I0
ssg23
(dp36
S'water.n.06'
p37
I1
ssg8
(dp38
S'fill.v.01'
p39
I1
sg9
I1
ssg10
(dp40
S'pitcher.n.02'
p41
I1
ssg13
(dp42
g13
I0
ssg22
(dp43
S'kettle.n.01'
p44
I1
ssg20
(dp45
g20
I0
ssg16
(dp46
g17
I1
ssg18
(dp47
S'pizza.n.01'
p48
I1
ssg11
(dp49
S'milk.n.01'
p50
I1
sssb.