ccopy_reg
_reconstructor
p0
(cutils.eval
ConfusionMatrix
p1
c__builtin__
object
p2
Ntp3
Rp4
(dp5
S'labels'
p6
(lp7
S'flesh.n.01'
p8
aS'slice.v.03'
p9
aS'slice.v.02'
p10
aS'piece.n.08'
p11
aS'slice.n.01'
p12
aS'knife.n.01'
p13
aS'banana.n.02'
p14
aS'fill.v.01'
p15
aS'kettle.n.01'
p16
aS'water.n.06'
p17
aS'cheese.n.01'
p18
asS'instanceCount'
p19
I12
sS'matrix'
p20
(dp21
g10
(dp22
g10
I0
ssg9
(dp23
g10
I4
ssg13
(dp24
S'knife.n.01'
p25
I1
ssg14
(dp26
S'banana.n.02'
p27
I1
ssg8
(dp28
S'flesh.n.01'
p29
I1
ssg12
(dp30
g12
I0
ssg17
(dp31
S'water.n.06'
p32
I1
ssg15
(dp33
S'fill.v.01'
p34
I1
ssg18
(dp35
S'cheese.n.01'
p36
I1
ssg16
(dp37
S'kettle.n.01'
p38
I1
ssg11
(dp39
g12
I1
sssb.