ccopy_reg
_reconstructor
p0
(cutils.eval
ConfusionMatrix
p1
c__builtin__
object
p2
Ntp3
Rp4
(dp5
S'labels'
p6
(lp7
S'fill.v.01'
p8
aS'mug.n.04'
p9
aS'tomato.n.01'
p10
aS'tomato.n.02'
p11
aS'piece.n.08'
p12
aS'slice.n.04'
p13
aS'onion.n.03'
p14
aS'onion.n.02'
p15
aS'mustard.n.02'
p16
aS'pitcher.n.02'
p17
aS'milk.n.01'
p18
aS'flesh.n.01'
p19
aS'pulp.n.02'
p20
aS'slice.v.03'
p21
aS'slice.n.06'
p22
aS'pizza.n.01'
p23
asS'instanceCount'
p24
I14
sS'matrix'
p25
(dp26
g9
(dp27
S'mug.n.04'
p28
I1
ssg16
(dp29
S'mustard.n.02'
p30
I1
ssg19
(dp31
g20
I1
ssg11
(dp32
g11
I0
ssg10
(dp33
g11
I1
ssg22
(dp34
g22
I0
ssg21
(dp35
S'slice.v.03'
p36
I2
ssg13
(dp37
g13
I0
ssg8
(dp38
S'fill.v.01'
p39
I2
ssg17
(dp40
S'pitcher.n.02'
p41
I1
ssg20
(dp42
g20
I0
ssg12
(dp43
g22
I1
sg13
I1
ssg23
(dp44
S'pizza.n.01'
p45
I1
ssg18
(dp46
S'milk.n.01'
p47
I1
ssg14
(dp48
g15
I1
ssg15
(dp49
g15
I0
sssb.