ccopy_reg
_reconstructor
p0
(cutils.eval
ConfusionMatrix
p1
c__builtin__
object
p2
Ntp3
Rp4
(dp5
S'labels'
p6
(lp7
S'opening.n.01'
p8
aS'gap.n.03'
p9
aS'fill.v.09'
p10
aS'fill.v.01'
p11
aS'batter.n.02'
p12
aS'mug.n.04'
p13
aS'tomato.n.01'
p14
aS'piece.n.08'
p15
aS'slice.n.04'
p16
aS'onion.n.03'
p17
aS'onion.n.02'
p18
aS'mustard.n.02'
p19
aS'mustard.n.01'
p20
aS'pitcher.n.02'
p21
aS'milk.n.01'
p22
aS'flesh.n.01'
p23
aS'human_body.n.01'
p24
aS'slice.v.03'
p25
asS'instanceCount'
p26
I14
sS'matrix'
p27
(dp28
g13
(dp29
S'mug.n.04'
p30
I1
ssg19
(dp31
g20
I1
ssg9
(dp32
g9
I0
ssg10
(dp33
g11
I1
ssg22
(dp34
S'milk.n.01'
p35
I1
ssg25
(dp36
S'slice.v.03'
p37
I1
ssg14
(dp38
S'tomato.n.01'
p39
I1
ssg23
(dp40
g24
I1
ssg16
(dp41
g16
I0
ssg11
(dp42
g11
I2
ssg21
(dp43
S'pitcher.n.02'
p44
I1
ssg24
(dp45
g24
I0
ssg12
(dp46
S'batter.n.02'
p47
I1
ssg15
(dp48
g16
I1
ssg18
(dp49
g18
I0
ssg20
(dp50
g20
I0
ssg17
(dp51
g18
I1
ssg8
(dp52
g9
I1
sssb.