ccopy_reg
_reconstructor
p0
(cutils.eval
ConfusionMatrix
p1
c__builtin__
object
p2
Ntp3
Rp4
(dp5
S'labels'
p6
(lp7
S'stir.v.01'
p8
aS'coffee.n.01'
p9
aS'champagne.n.01'
p10
aS'whiskey.n.01'
p11
aS'vegetable.n.01'
p12
aS'stir.v.08'
p13
aS'wine.n.01'
p14
aS'tomato.n.01'
p15
asS'instanceCount'
p16
I12
sS'matrix'
p17
(dp18
g12
(dp19
S'vegetable.n.01'
p20
I1
ssg14
(dp21
S'wine.n.01'
p22
I1
ssg13
(dp23
S'stir.v.08'
p24
I2
ssg15
(dp25
S'tomato.n.01'
p26
I1
ssg9
(dp27
S'coffee.n.01'
p28
I1
ssg10
(dp29
S'champagne.n.01'
p30
I1
ssg8
(dp31
S'stir.v.01'
p32
I4
ssg11
(dp33
S'whiskey.n.01'
p34
I1
sssb.