ccopy_reg
_reconstructor
p0
(cutils.eval
ConfusionMatrix
p1
c__builtin__
object
p2
Ntp3
Rp4
(dp5
S'labels'
p6
(lp7
S'stir.v.01'
p8
aS'milk.n.01'
p9
aS'stir.v.08'
p10
aS'peanut.n.04'
p11
aS'peanut.n.03'
p12
aS'butter.n.01'
p13
aS'sugar.n.01'
p14
aS'coffee.n.01'
p15
aS'champagne.n.01'
p16
asS'instanceCount'
p17
I12
sS'matrix'
p18
(dp19
g13
(dp20
S'butter.n.01'
p21
I1
ssg15
(dp22
S'coffee.n.01'
p23
I1
ssg16
(dp24
S'champagne.n.01'
p25
I1
ssg10
(dp26
S'stir.v.08'
p27
I3
ssg8
(dp28
S'stir.v.01'
p29
I3
ssg12
(dp30
g12
I0
ssg11
(dp31
g12
I1
ssg9
(dp32
S'milk.n.01'
p33
I1
ssg14
(dp34
S'sugar.n.01'
p35
I1
sssb.