ccopy_reg
_reconstructor
p0
(cutils.eval
ConfusionMatrix
p1
c__builtin__
object
p2
Ntp3
Rp4
(dp5
S'labels'
p6
(lp7
S'stir.v.08'
p8
aS'egg.n.02'
p9
aS'stir.v.01'
p10
aS'juice.n.01'
p11
aS'fruit_juice.n.01'
p12
aS'water.n.06'
p13
aS'cappuccino.n.01'
p14
aS'milk.n.01'
p15
aS'peanut.n.04'
p16
aS'peanut.n.03'
p17
asS'instanceCount'
p18
I12
sS'matrix'
p19
(dp20
g12
(dp21
g12
I0
ssg9
(dp22
S'egg.n.02'
p23
I1
ssg14
(dp24
S'cappuccino.n.01'
p25
I1
ssg13
(dp26
S'water.n.06'
p27
I1
ssg15
(dp28
S'milk.n.01'
p29
I1
ssg8
(dp30
S'stir.v.08'
p31
I2
ssg10
(dp32
S'stir.v.01'
p33
I4
ssg17
(dp34
g17
I0
ssg16
(dp35
g17
I1
ssg11
(dp36
g12
I1
sssb.