ccopy_reg
_reconstructor
p0
(cutils.eval
ConfusionMatrix
p1
c__builtin__
object
p2
Ntp3
Rp4
(dp5
S'labels'
p6
(lp7
S'stir.v.01'
p8
aS'water.n.06'
p9
aS'cappuccino.n.01'
p10
aS'milk.n.01'
p11
aS'stir.v.08'
p12
aS'peanut.n.04'
p13
aS'peanut.n.03'
p14
aS'butter.n.01'
p15
aS'sugar.n.01'
p16
asS'instanceCount'
p17
I12
sS'matrix'
p18
(dp19
g15
(dp20
S'butter.n.01'
p21
I1
ssg10
(dp22
S'cappuccino.n.01'
p23
I1
ssg9
(dp24
S'water.n.06'
p25
I1
ssg12
(dp26
S'stir.v.08'
p27
I3
ssg8
(dp28
S'stir.v.01'
p29
I3
ssg14
(dp30
g14
I0
ssg13
(dp31
g14
I1
ssg11
(dp32
S'milk.n.01'
p33
I1
ssg16
(dp34
S'sugar.n.01'
p35
I1
sssb.