ccopy_reg
_reconstructor
p0
(cutils.eval
ConfusionMatrix
p1
c__builtin__
object
p2
Ntp3
Rp4
(dp5
S'labels'
p6
(lp7
S'stir.v.08'
p8
aS'salt.n.02'
p9
aS'stir.v.01'
p10
aS'tea.n.01'
p11
aS'apple.n.01'
p12
aS'cream.n.02'
p13
aS'banana.n.02'
p14
aS'coca_cola.n.01'
p15
asS'instanceCount'
p16
I12
sS'matrix'
p17
(dp18
g9
(dp19
S'salt.n.02'
p20
I1
ssg14
(dp21
S'banana.n.02'
p22
I1
ssg13
(dp23
S'cream.n.02'
p24
I1
ssg8
(dp25
S'stir.v.01'
p26
I1
sS'stir.v.08'
p27
I3
ssg12
(dp28
S'apple.n.01'
p29
I1
ssg10
(dp30
S'stir.v.01'
p31
I2
ssg15
(dp32
S'coca_cola.n.01'
p33
I1
ssg11
(dp34
S'tea.n.01'
p35
I1
sssb.