ccopy_reg
_reconstructor
p0
(cutils.eval
ConfusionMatrix
p1
c__builtin__
object
p2
Ntp3
Rp4
(dp5
S'labels'
p6
(lp7
S'whiskey.n.01'
p8
aS'stir.v.01'
p9
aS'vegetable.n.01'
p10
aS'stir.v.08'
p11
aS'wine.n.01'
p12
aS'tomato.n.01'
p13
aS'salt.n.02'
p14
aS'tea.n.01'
p15
asS'instanceCount'
p16
I12
sS'matrix'
p17
(dp18
g14
(dp19
S'salt.n.02'
p20
I1
ssg10
(dp21
S'vegetable.n.01'
p22
I1
ssg12
(dp23
S'wine.n.01'
p24
I1
ssg13
(dp25
S'tomato.n.01'
p26
I1
ssg15
(dp27
S'tea.n.01'
p28
I1
ssg11
(dp29
S'stir.v.08'
p30
I3
ssg9
(dp31
S'stir.v.01'
p32
I3
ssg8
(dp33
S'whiskey.n.01'
p34
I1
sssb.