ccopy_reg
_reconstructor
p0
(cutils.eval
ConfusionMatrix
p1
c__builtin__
object
p2
Ntp3
Rp4
(dp5
S'labels'
p6
(lp7
S'put.v.01'
p8
aS'spoon.n.01'
p9
aS'batter.n.02'
p10
aS'bowl.n.01'
p11
aS'bowl.n.03'
p12
aS'cherry.n.03'
p13
aS'rib.n.03'
p14
aS'rib.n.01'
p15
aS'salt.n.02'
p16
aS'french_fries.n.01'
p17
aS'steak.n.01'
p18
aS'oven.n.01'
p19
aS'dish.n.02'
p20
asS'instanceCount'
p21
I17
sS'matrix'
p22
(dp23
g12
(dp24
g12
I0
ssg16
(dp25
S'salt.n.02'
p26
I1
ssg14
(dp27
g15
I1
ssg15
(dp28
g15
I0
ssg8
(dp29
S'put.v.01'
p30
I6
ssg9
(dp31
S'spoon.n.01'
p32
I1
ssg11
(dp33
g12
I1
ssg18
(dp34
S'steak.n.01'
p35
I1
ssg19
(dp36
S'oven.n.01'
p37
I2
ssg10
(dp38
S'batter.n.02'
p39
I1
ssg17
(dp40
S'french_fries.n.01'
p41
I1
ssg13
(dp42
S'cherry.n.03'
p43
I1
ssg20
(dp44
S'dish.n.02'
p45
I1
sssb.