ccopy_reg
_reconstructor
p0
(cutils.eval
ConfusionMatrix
p1
c__builtin__
object
p2
Ntp3
Rp4
(dp5
S'labels'
p6
(lp7
S'add.v.01'
p8
aS'rib.n.03'
p9
aS'mixing_bowl.n.01'
p10
aS'butter.n.01'
p11
aS'sugar.n.01'
p12
aS'pan.n.03'
p13
aS'vanilla.n.02'
p14
asS'instanceCount'
p15
I14
sS'matrix'
p16
(dp17
g13
(dp18
S'pan.n.03'
p19
I1
ssg9
(dp20
S'rib.n.03'
p21
I1
ssg11
(dp22
S'butter.n.01'
p23
I3
ssg10
(dp24
S'mixing_bowl.n.01'
p25
I2
ssg14
(dp26
S'vanilla.n.02'
p27
I1
ssg8
(dp28
S'add.v.01'
p29
I4
ssg12
(dp30
S'sugar.n.01'
p31
I2
sssb.