ccopy_reg
_reconstructor
p0
(cutils.eval
ConfusionMatrix
p1
c__builtin__
object
p2
Ntp3
Rp4
(dp5
S'labels'
p6
(lp7
S'tomato.n.01'
p8
aS'knife.n.01'
p9
aS'slice.v.03'
p10
aS'flesh.n.01'
p11
aS'human_body.n.01'
p12
aS'slice.v.02'
p13
aS'bread.n.01'
p14
aS'bacon.n.01'
p15
aS'vegetable.n.01'
p16
aS'olive.n.01'
p17
aS'olive.n.03'
p18
aS'lemon.n.01'
p19
aS'zucchini.n.01'
p20
aS'zucchini.n.02'
p21
aS'piece.n.08'
p22
aS'slice.n.06'
p23
aS'pizza.n.01'
p24
aS'tomato.n.02'
p25
aS'slice.n.04'
p26
aS'onion.n.03'
p27
aS'onion.n.02'
p28
aS'mustard.n.02'
p29
aS'egg.n.02'
p30
aS'mushroom.n.05'
p31
aS'green_onion.n.01'
p32
aS'banana.n.02'
p33
aS'cheese.n.01'
p34
aS'orange.n.01'
p35
aS'potato.n.01'
p36
asS'instanceCount'
p37
I47
sS'matrix'
p38
(dp39
g31
(dp40
S'mushroom.n.05'
p41
I1
ssg18
(dp42
g18
I0
ssg34
(dp43
S'cheese.n.01'
p44
I1
ssg14
(dp45
S'bread.n.01'
p46
I1
ssg35
(dp47
S'orange.n.01'
p48
I1
ssg21
(dp49
g21
I0
ssg20
(dp50
g21
I1
ssg32
(dp51
S'green_onion.n.01'
p52
I1
ssg29
(dp53
S'mustard.n.02'
p54
I1
ssg25
(dp55
g25
I0
ssg8
(dp56
g25
I1
sS'tomato.n.01'
p57
I1
ssg15
(dp58
S'bacon.n.01'
p59
I1
ssg36
(dp60
S'potato.n.01'
p61
I1
ssg13
(dp62
g13
I0
ssg10
(dp63
g13
I1
sS'slice.v.03'
p64
I16
ssg17
(dp65
g18
I1
ssg9
(dp66
S'knife.n.01'
p67
I5
ssg33
(dp68
S'banana.n.02'
p69
I1
ssg12
(dp70
g12
I0
ssg22
(dp71
g23
I4
sg26
I1
ssg16
(dp72
S'vegetable.n.01'
p73
I1
ssg11
(dp74
g12
I1
ssg23
(dp75
g23
I0
ssg26
(dp76
g26
I0
ssg24
(dp77
S'pizza.n.01'
p78
I1
ssg19
(dp79
S'lemon.n.01'
p80
I2
ssg30
(dp81
S'egg.n.02'
p82
I1
ssg27
(dp83
g28
I1
ssg28
(dp84
g28
I0
sssb.