ccopy_reg
_reconstructor
p0
(cutils.eval
ConfusionMatrix
p1
c__builtin__
object
p2
Ntp3
Rp4
(dp5
S'labels'
p6
(lp7
S'slice.v.03'
p8
aS'lemon.n.01'
p9
aS'zucchini.n.01'
p10
aS'zucchini.n.02'
p11
aS'piece.n.08'
p12
aS'slice.n.06'
p13
aS'pizza.n.01'
p14
aS'tomato.n.01'
p15
aS'tomato.n.02'
p16
aS'slice.n.04'
p17
aS'onion.n.03'
p18
aS'onion.n.02'
p19
aS'mustard.n.02'
p20
aS'egg.n.02'
p21
aS'mushroom.n.05'
p22
aS'knife.n.01'
p23
aS'green_onion.n.01'
p24
aS'banana.n.02'
p25
aS'cheese.n.01'
p26
aS'orange.n.01'
p27
aS'potato.n.01'
p28
aS'cabbage.n.01'
p29
aS'meat.n.01'
p30
aS'cleaver.n.01'
p31
aS'flesh.n.01'
p32
aS'pulp.n.02'
p33
aS'bread.n.01'
p34
aS'bacon.n.01'
p35
aS'bacon.n.02'
p36
asS'instanceCount'
p37
I47
sS'matrix'
p38
(dp39
g22
(dp40
S'mushroom.n.05'
p41
I1
ssg26
(dp42
S'cheese.n.01'
p43
I1
ssg34
(dp44
S'bread.n.01'
p45
I1
ssg27
(dp46
S'orange.n.01'
p47
I1
ssg11
(dp48
g11
I0
ssg10
(dp49
g11
I1
ssg29
(dp50
S'cabbage.n.01'
p51
I1
ssg24
(dp52
S'green_onion.n.01'
p53
I1
ssg20
(dp54
S'mustard.n.02'
p55
I1
ssg21
(dp56
S'egg.n.02'
p57
I1
ssg15
(dp58
g16
I1
sS'tomato.n.01'
p59
I1
ssg36
(dp60
g36
I0
ssg35
(dp61
g36
I1
ssg30
(dp62
S'meat.n.01'
p63
I1
ssg28
(dp64
S'potato.n.01'
p65
I1
ssg31
(dp66
S'cleaver.n.01'
p67
I1
ssg8
(dp68
S'slice.v.03'
p69
I17
ssg23
(dp70
S'knife.n.01'
p71
I4
ssg25
(dp72
S'banana.n.02'
p73
I1
ssg12
(dp74
g13
I4
sg17
I1
ssg32
(dp75
g33
I1
ssg13
(dp76
g13
I0
ssg17
(dp77
g17
I0
ssg14
(dp78
S'pizza.n.01'
p79
I1
ssg33
(dp80
g33
I0
ssg9
(dp81
S'lemon.n.01'
p82
I2
ssg16
(dp83
g16
I0
ssg18
(dp84
g19
I1
ssg19
(dp85
g19
I0
sssb.