ccopy_reg
_reconstructor
p0
(cutils.eval
ConfusionMatrix
p1
c__builtin__
object
p2
Ntp3
Rp4
(dp5
S'labels'
p6
(lp7
S'piece.n.08'
p8
aS'slice.n.06'
p9
aS'pizza.n.01'
p10
aS'slice.v.03'
p11
aS'slice.v.02'
p12
aS'catsup.n.01'
p13
aS'tomato.n.01'
p14
aS'tomato.n.02'
p15
aS'slice.n.01'
p16
aS'onion.n.03'
p17
aS'onion.n.02'
p18
aS'mustard.n.02'
p19
aS'mustard.n.01'
p20
aS'egg.n.02'
p21
aS'egg.n.01'
p22
aS'lemon.n.01'
p23
aS'mushroom.n.05'
p24
aS'mushroom.n.03'
p25
aS'knife.n.01'
p26
aS'knife.n.02'
p27
aS'green_onion.n.01'
p28
aS'banana.n.02'
p29
aS'cheese.n.01'
p30
aS'tall_mallow.n.01'
p31
aS'orange.n.01'
p32
aS'potato.n.01'
p33
aS'potato.n.02'
p34
aS'cabbage.n.01'
p35
aS'cabbage.n.03'
p36
aS'meat.n.01'
p37
aS'kernel.n.01'
p38
aS'cleaver.n.01'
p39
aS'helicopter.n.01'
p40
aS'flesh.n.01'
p41
aS'pulp.n.02'
p42
aS'bread.n.01'
p43
aS'bacon.n.01'
p44
aS'bacon.n.02'
p45
aS'vegetable.n.01'
p46
aS'vegetable.n.02'
p47
aS'olive.n.01'
p48
asS'instanceCount'
p49
I49
sS'matrix'
p50
(dp51
g24
(dp52
g25
I1
ssg30
(dp53
g31
I1
ssg25
(dp54
g25
I0
ssg38
(dp55
g38
I0
ssg43
(dp56
S'bread.n.01'
p57
I1
ssg32
(dp58
S'orange.n.01'
p59
I1
ssg35
(dp60
g36
I1
ssg28
(dp61
S'green_onion.n.01'
p62
I1
ssg20
(dp63
g20
I0
ssg19
(dp64
g20
I1
ssg36
(dp65
g36
I0
ssg15
(dp66
g15
I0
ssg14
(dp67
g15
I2
ssg45
(dp68
g45
I0
ssg44
(dp69
g45
I1
ssg34
(dp70
g34
I0
ssg37
(dp71
g38
I1
ssg33
(dp72
g34
I1
ssg39
(dp73
g40
I1
ssg12
(dp74
g12
I0
ssg11
(dp75
g12
I1
sS'slice.v.03'
p76
I16
ssg48
(dp77
S'olive.n.01'
p78
I1
ssg26
(dp79
g27
I5
ssg29
(dp80
S'banana.n.02'
p81
I1
ssg27
(dp82
g27
I0
ssg13
(dp83
S'catsup.n.01'
p84
I1
ssg8
(dp85
g16
I1
sg9
I4
ssg31
(dp86
g31
I0
ssg47
(dp87
g47
I0
ssg46
(dp88
g47
I1
ssg41
(dp89
g42
I1
ssg40
(dp90
g40
I0
ssg16
(dp91
g16
I0
ssg9
(dp92
g9
I0
ssg10
(dp93
S'pizza.n.01'
p94
I1
ssg42
(dp95
g42
I0
ssg23
(dp96
S'lemon.n.01'
p97
I1
ssg21
(dp98
g22
I1
ssg22
(dp99
g22
I0
ssg17
(dp100
g18
I1
ssg18
(dp101
g18
I0
sssb.