ccopy_reg
_reconstructor
p0
(cutils.eval
ConfusionMatrix
p1
c__builtin__
object
p2
Ntp3
Rp4
(dp5
S'labels'
p6
(lp7
S'slice.v.03'
p8
aS'cabbage.n.01'
p9
aS'meat.n.01'
p10
aS'cleaver.n.01'
p11
aS'chop.n.05'
p12
aS'tomato.n.01'
p13
aS'knife.n.01'
p14
aS'tongue.n.03'
p15
aS'flesh.n.01'
p16
aS'pulp.n.02'
p17
aS'bread.n.01'
p18
aS'bacon.n.01'
p19
aS'vegetable.n.01'
p20
aS'olive.n.01'
p21
aS'olive.n.04'
p22
aS'lemon.n.01'
p23
aS'zucchini.n.01'
p24
aS'zucchini.n.02'
p25
aS'piece.n.08'
p26
aS'pizza.n.01'
p27
aS'onion.n.03'
p28
aS'onion.n.02'
p29
aS'mustard.n.02'
p30
aS'mustard.n.01'
p31
aS'egg.n.02'
p32
aS'mushroom.n.05'
p33
aS'green_onion.n.01'
p34
aS'banana.n.02'
p35
aS'cheese.n.01'
p36
asS'instanceCount'
p37
I46
sS'matrix'
p38
(dp39
g33
(dp40
S'mushroom.n.05'
p41
I1
ssg36
(dp42
S'cheese.n.01'
p43
I1
ssg18
(dp44
S'bread.n.01'
p45
I1
ssg25
(dp46
g25
I0
ssg24
(dp47
g25
I1
ssg14
(dp48
g15
I5
ssg34
(dp49
S'green_onion.n.01'
p50
I1
ssg26
(dp51
S'piece.n.08'
p52
I3
ssg31
(dp53
g31
I0
ssg30
(dp54
g31
I1
ssg32
(dp55
S'egg.n.02'
p56
I1
ssg13
(dp57
S'tomato.n.01'
p58
I2
ssg19
(dp59
S'bacon.n.01'
p60
I1
ssg10
(dp61
S'meat.n.01'
p62
I1
ssg11
(dp63
g12
I1
ssg8
(dp64
S'slice.v.03'
p65
I17
ssg21
(dp66
g22
I1
ssg9
(dp67
S'cabbage.n.01'
p68
I1
ssg15
(dp69
g15
I0
ssg35
(dp70
S'banana.n.02'
p71
I1
ssg22
(dp72
g22
I0
ssg12
(dp73
g12
I0
ssg20
(dp74
S'vegetable.n.01'
p75
I1
ssg16
(dp76
g17
I1
ssg27
(dp77
S'pizza.n.01'
p78
I1
ssg17
(dp79
g17
I0
ssg23
(dp80
S'lemon.n.01'
p81
I2
ssg28
(dp82
g29
I1
ssg29
(dp83
g29
I0
sssb.