ccopy_reg
_reconstructor
p0
(cutils.eval
ConfusionMatrix
p1
c__builtin__
object
p2
Ntp3
Rp4
(dp5
S'labels'
p6
(lp7
S'slice.v.03'
p8
aS'egg.n.02'
p9
aS'piece.n.08'
p10
aS'slice.v.02'
p11
aS'lemon.n.01'
p12
aS'mushroom.n.05'
p13
aS'knife.n.01'
p14
aS'tongue.n.03'
p15
aS'banana.n.02'
p16
aS'cheese.n.01'
p17
aS'orange.n.01'
p18
aS'potato.n.01'
p19
aS'cabbage.n.01'
p20
aS'boodle.n.01'
p21
aS'meat.n.01'
p22
aS'cleaver.n.01'
p23
aS'chop.n.05'
p24
aS'tomato.n.01'
p25
aS'flesh.n.01'
p26
aS'human_body.n.01'
p27
aS'bread.n.01'
p28
aS'bacon.n.01'
p29
aS'vegetable.n.01'
p30
aS'olive.n.01'
p31
aS'olive.n.03'
p32
aS'zucchini.n.01'
p33
aS'zucchini.n.02'
p34
asS'instanceCount'
p35
I44
sS'matrix'
p36
(dp37
g13
(dp38
S'mushroom.n.05'
p39
I1
ssg17
(dp40
S'cheese.n.01'
p41
I1
ssg28
(dp42
S'bread.n.01'
p43
I1
ssg18
(dp44
S'orange.n.01'
p45
I1
ssg34
(dp46
g34
I0
ssg33
(dp47
g34
I1
ssg20
(dp48
g21
I1
ssg24
(dp49
g24
I0
ssg9
(dp50
S'egg.n.02'
p51
I1
ssg25
(dp52
S'tomato.n.01'
p53
I1
ssg29
(dp54
S'bacon.n.01'
p55
I1
ssg22
(dp56
S'meat.n.01'
p57
I1
ssg19
(dp58
S'potato.n.01'
p59
I1
ssg23
(dp60
g24
I1
ssg11
(dp61
g11
I0
ssg8
(dp62
g11
I10
sS'slice.v.03'
p63
I8
ssg31
(dp64
g32
I1
ssg14
(dp65
g15
I5
ssg12
(dp66
S'lemon.n.01'
p67
I2
ssg16
(dp68
S'banana.n.02'
p69
I1
ssg21
(dp70
g21
I0
ssg27
(dp71
g27
I0
ssg10
(dp72
S'piece.n.08'
p73
I3
ssg30
(dp74
S'vegetable.n.01'
p75
I1
ssg32
(dp76
g32
I0
ssg26
(dp77
g27
I1
ssg15
(dp78
g15
I0
sssb.