ccopy_reg
_reconstructor
p0
(cutils.eval
ConfusionMatrix
p1
c__builtin__
object
p2
Ntp3
Rp4
(dp5
S'labels'
p6
(lp7
S'tomato.n.01'
p8
aS'knife.n.01'
p9
aS'slice.v.03'
p10
aS'flesh.n.01'
p11
aS'human_body.n.01'
p12
aS'slice.v.02'
p13
aS'bread.n.01'
p14
aS'bacon.n.01'
p15
aS'vegetable.n.01'
p16
aS'olive.n.01'
p17
aS'olive.n.03'
p18
aS'lemon.n.01'
p19
aS'zucchini.n.01'
p20
aS'zucchini.n.02'
p21
aS'piece.n.08'
p22
aS'slice.n.06'
p23
aS'pizza.n.01'
p24
aS'tomato.n.02'
p25
aS'slice.n.04'
p26
aS'onion.n.03'
p27
aS'onion.n.02'
p28
aS'mustard.n.02'
p29
aS'egg.n.02'
p30
aS'mushroom.n.05'
p31
aS'green_onion.n.01'
p32
aS'banana.n.02'
p33
aS'cheese.n.01'
p34
aS'orange.n.01'
p35
aS'potato.n.01'
p36
aS'olive.n.04'
p37
aS'testis.n.01'
p38
aS'slice.n.05'
p39
aS'cabbage.n.01'
p40
aS'meat.n.01'
p41
aS'cleaver.n.01'
p42
aS'catsup.n.01'
p43
aS'slice.n.01'
p44
aS'mustard.n.01'
p45
aS'egg.n.01'
p46
aS'mushroom.n.03'
p47
aS'knife.n.02'
p48
aS'tall_mallow.n.01'
p49
aS'potato.n.02'
p50
aS'cabbage.n.03'
p51
aS'kernel.n.01'
p52
aS'helicopter.n.01'
p53
aS'pulp.n.02'
p54
aS'bacon.n.02'
p55
aS'vegetable.n.02'
p56
aS'chop.n.05'
p57
aS'tongue.n.03'
p58
aS'boodle.n.01'
p59
asS'instanceCount'
p60
I468
sS'matrix'
p61
(dp62
g31
(dp63
g31
I8
sg13
I0
sg47
I1
sg34
I0
sg14
I0
sg35
I0
sg21
I0
sg20
I0
sg40
I0
sg32
I0
sg39
I0
sg57
I0
sg45
I0
sg29
I0
sg51
I0
sg25
I0
sg8
I0
sg48
I0
sg38
I0
sg55
I0
sg15
I0
sg50
I0
sg41
I0
sg36
I0
sg42
I0
sg18
I0
sg10
I0
sg17
I0
sg9
I0
sg58
I0
sg33
I0
sg37
I0
sg59
I0
sg12
I0
sg43
I0
sg22
I0
sg49
I0
sg56
I0
sg16
I0
sg11
I0
sg53
I0
sg44
I0
sg23
I0
sg26
I0
sg24
I0
sg52
I0
sg54
I0
sg19
I0
sg30
I0
sg46
I0
sg27
I0
sg28
I0
ssg18
(dp64
g31
I0
sg13
I0
sg34
I0
sg14
I0
sg35
I0
sg21
I0
sg20
I0
sS'cabbage.n.01'
p65
I0
sg32
I0
sS'chop.n.05'
p66
I0
sg29
I0
sg25
I0
sg8
I0
sg15
I0
sS'meat.n.01'
p67
I0
sg36
I0
sS'cleaver.n.01'
p68
I0
sg18
I0
sg10
I0
sg17
I0
sg9
I0
sS'tongue.n.03'
p69
I0
sg33
I0
sg59
I0
sg12
I0
sg22
I0
sg16
I0
sg11
I0
sg23
I0
sg26
I0
sg24
I0
sg19
I0
sg30
I0
sg27
I0
sg28
I0
ssg47
(dp70
S'mushroom.n.05'
p71
I0
sS'cheese.n.01'
p72
I0
sg47
I0
sg52
I0
sS'bread.n.01'
p73
I0
sS'orange.n.01'
p74
I0
sS'cabbage.n.01'
p75
I0
sS'green_onion.n.01'
p76
I0
sg45
I0
sS'mustard.n.02'
p77
I0
sg51
I0
sS'tomato.n.02'
p78
I0
sS'tomato.n.01'
p79
I0
sg55
I0
sS'bacon.n.01'
p80
I0
sg50
I0
sS'meat.n.01'
p81
I0
sS'potato.n.01'
p82
I0
sS'cleaver.n.01'
p83
I0
sS'slice.v.02'
p84
I0
sS'slice.v.03'
p85
I0
sS'olive.n.01'
p86
I0
sS'knife.n.01'
p87
I0
sS'banana.n.02'
p88
I0
sg48
I0
sg43
I0
sS'piece.n.08'
p89
I0
sg49
I0
sg56
I0
sS'vegetable.n.01'
p90
I0
sS'flesh.n.01'
p91
I0
sg53
I0
sg44
I0
sS'slice.n.06'
p92
I0
sS'pizza.n.01'
p93
I0
sg54
I0
sS'lemon.n.01'
p94
I0
sS'egg.n.02'
p95
I0
sg46
I0
sS'onion.n.03'
p96
I0
sS'onion.n.02'
p97
I0
ssg34
(dp98
g31
I0
sg34
I8
sg47
I0
sg52
I0
sg14
I0
sg35
I0
sg21
I0
sg20
I0
sg40
I0
sg32
I0
sg39
I0
sg57
I0
sg45
I0
sg29
I0
sg51
I0
sg25
I0
sg8
I0
sg48
I0
sg38
I0
sg55
I0
sg15
I0
sg50
I0
sg41
I0
sg36
I0
sg42
I0
sg13
I0
sg10
I0
sg17
I0
sg9
I0
sg58
I0
sg33
I0
sg37
I0
sg59
I0
sg12
I0
sg43
I0
sg22
I0
sg49
I1
sg56
I0
sg16
I0
sg18
I0
sg11
I0
sg53
I0
sg44
I0
sg23
I0
sg26
I0
sg24
I0
sg54
I0
sg19
I0
sg30
I0
sg46
I0
sg27
I0
sg28
I0
ssg14
(dp99
g31
I0
sg18
I0
sg47
I0
sg34
I0
sg14
I9
sg35
I0
sg21
I0
sg20
I0
sg40
I0
sg32
I0
sg39
I0
sg57
I0
sg45
I0
sg29
I0
sg51
I0
sg25
I0
sg8
I0
sg48
I0
sg38
I0
sg55
I0
sg15
I0
sg50
I0
sg41
I0
sg36
I0
sg42
I0
sg13
I0
sg10
I0
sg17
I0
sg9
I0
sg58
I0
sg33
I0
sg37
I0
sg59
I0
sg12
I0
sg43
I0
sg22
I0
sg49
I0
sg56
I0
sg16
I0
sg11
I0
sg53
I0
sg44
I0
sg23
I0
sg26
I0
sg24
I0
sg52
I0
sg54
I0
sg19
I0
sg30
I0
sg46
I0
sg27
I0
sg28
I0
ssg35
(dp100
g31
I0
sg18
I0
sg47
I0
sg34
I0
sg14
I0
sg35
I9
sg21
I0
sg20
I0
sg40
I0
sg32
I0
sg39
I0
sg66
I0
sg45
I0
sg29
I0
sg51
I0
sg25
I0
sg8
I0
sg48
I0
sg38
I0
sg55
I0
sg15
I0
sg50
I0
sg41
I0
sg36
I0
sg42
I0
sg13
I0
sg10
I0
sg17
I0
sg9
I0
sg69
I0
sg33
I0
sg37
I0
sg59
I0
sg12
I0
sg43
I0
sg22
I0
sg49
I0
sg56
I0
sg16
I0
sg11
I0
sg53
I0
sg44
I0
sg23
I0
sg26
I0
sg24
I0
sg52
I0
sg54
I0
sg19
I0
sg30
I0
sg46
I0
sg27
I0
sg28
I0
ssg21
(dp101
g31
I0
sg18
I0
sg34
I0
sg14
I0
sg35
I0
sg21
I0
sg20
I0
sg40
I0
sg32
I0
sg39
I0
sg57
I0
sS'mustard.n.01'
p102
I0
sg29
I0
sg25
I0
sg8
I0
sg38
I0
sS'bacon.n.02'
p103
I0
sg15
I0
sg41
I0
sg36
I0
sg42
I0
sg13
I0
sg10
I0
sg17
I0
sg9
I0
sg58
I0
sg33
I0
sg37
I0
sg59
I0
sg12
I0
sg22
I0
sg16
I0
sg11
I0
sS'helicopter.n.01'
p104
I0
sg23
I0
sg26
I0
sg24
I0
sS'pulp.n.02'
p105
I0
sg19
I0
sg30
I0
sg27
I0
sg28
I0
ssg20
(dp106
g31
I0
sg18
I0
sg34
I0
sg14
I0
sg35
I0
sg21
I9
sg20
I0
sg40
I0
sg32
I0
sg39
I0
sg57
I0
sg102
I0
sg29
I0
sg25
I0
sg8
I0
sg38
I0
sg103
I0
sg15
I0
sg41
I0
sg36
I0
sg42
I0
sg13
I0
sg10
I0
sg17
I0
sg9
I0
sg58
I0
sg33
I0
sg37
I0
sg59
I0
sg12
I0
sg22
I0
sg16
I0
sg11
I0
sg104
I0
sg23
I0
sg26
I0
sg24
I0
sg105
I0
sg19
I0
sg30
I0
sg27
I0
sg28
I0
ssg40
(dp107
S'mushroom.n.05'
p108
I0
sS'cheese.n.01'
p109
I0
sg47
I0
sg52
I0
sS'bread.n.01'
p110
I0
sS'orange.n.01'
p111
I0
sS'zucchini.n.02'
p112
I0
sS'zucchini.n.01'
p113
I0
sg40
I7
sS'green_onion.n.01'
p114
I0
sS'pizza.n.01'
p115
I0
sg57
I0
sg45
I0
sS'mustard.n.02'
p116
I0
sg51
I1
sS'egg.n.02'
p117
I0
sS'tomato.n.01'
p118
I0
sg48
I0
sg38
I0
sg55
I0
sS'bacon.n.01'
p119
I0
sg50
I0
sg41
I0
sS'potato.n.01'
p120
I0
sg42
I0
sg84
I0
sS'slice.v.03'
p121
I0
sS'olive.n.01'
p122
I0
sS'knife.n.01'
p123
I0
sg58
I0
sS'banana.n.02'
p124
I0
sg37
I0
sg59
I1
sS'human_body.n.01'
p125
I0
sg43
I0
sS'piece.n.08'
p126
I0
sg49
I0
sg56
I0
sS'vegetable.n.01'
p127
I0
sS'olive.n.03'
p128
I0
sg91
I0
sg53
I0
sg44
I0
sS'slice.n.06'
p129
I0
sS'slice.n.04'
p130
I0
sg39
I0
sg54
I0
sS'lemon.n.01'
p131
I0
sg78
I0
sg46
I0
sS'onion.n.03'
p132
I0
sS'onion.n.02'
p133
I0
ssg32
(dp134
g31
I0
sg18
I0
sg47
I0
sg34
I0
sg14
I0
sg35
I0
sg21
I0
sg20
I0
sg40
I0
sg32
I8
sg39
I0
sg57
I0
sg45
I0
sg29
I0
sg51
I0
sg25
I0
sg8
I0
sg48
I0
sg38
I0
sg55
I0
sg15
I0
sg50
I0
sg41
I0
sg36
I0
sg42
I0
sg13
I0
sg10
I0
sg17
I0
sg9
I0
sg58
I0
sg33
I0
sg37
I0
sg12
I0
sg43
I0
sg22
I0
sg49
I0
sg56
I0
sg16
I0
sg11
I0
sg53
I0
sg44
I0
sg23
I0
sg26
I0
sg24
I0
sg52
I0
sg54
I0
sg19
I0
sg30
I0
sg46
I0
sg27
I0
sg28
I0
ssg39
(dp135
g108
I0
sg109
I0
sg110
I0
sg111
I0
sg112
I0
sg113
I0
sg40
I0
sg114
I0
sg39
I0
sg116
I0
sg117
I0
sg118
I0
sg38
I0
sg119
I0
sg41
I0
sg120
I0
sg42
I0
sg121
I0
sg122
I0
sg123
I0
sg124
I0
sg37
I0
sg126
I0
sg127
I0
sg129
I0
sg115
I0
sg131
I0
sg132
I0
sg133
I0
ssg57
(dp136
S'mushroom.n.05'
p137
I0
sS'cheese.n.01'
p138
I0
sS'bread.n.01'
p139
I0
sS'orange.n.01'
p140
I0
sS'zucchini.n.02'
p141
I0
sS'zucchini.n.01'
p142
I0
sS'knife.n.01'
p143
I0
sS'green_onion.n.01'
p144
I0
sS'piece.n.08'
p145
I0
sg102
I0
sS'mustard.n.02'
p146
I0
sS'egg.n.02'
p147
I0
sS'tomato.n.01'
p148
I0
sS'bacon.n.01'
p149
I0
sS'meat.n.01'
p150
I0
sS'potato.n.01'
p151
I0
sS'cleaver.n.01'
p152
I0
sS'slice.v.02'
p153
I0
sS'slice.v.03'
p154
I0
sS'olive.n.01'
p155
I0
sS'cabbage.n.01'
p156
I0
sg58
I0
sS'banana.n.02'
p157
I0
sS'olive.n.04'
p158
I0
sg59
I0
sg125
I0
sg57
I0
sS'vegetable.n.01'
p159
I0
sg128
I0
sS'flesh.n.01'
p160
I0
sS'pizza.n.01'
p161
I0
sg105
I0
sS'lemon.n.01'
p162
I0
sS'onion.n.03'
p163
I0
sS'onion.n.02'
p164
I0
ssg45
(dp165
g71
I0
sg72
I0
sg47
I0
sg52
I0
sg73
I0
sg74
I0
sg141
I0
sg142
I0
sg75
I0
sg76
I0
sg57
I0
sg45
I0
sg77
I0
sg51
I0
sg78
I0
sg79
I0
sg158
I0
sg55
I0
sg80
I0
sg50
I0
sg81
I0
sg82
I0
sg83
I0
sg84
I0
sg85
I0
sg86
I0
sg87
I0
sg58
I0
sg88
I0
sg48
I0
sg43
I0
sg89
I0
sg49
I0
sg56
I0
sg90
I0
sg91
I0
sg53
I0
sg44
I0
sg92
I0
sg93
I0
sg54
I0
sg94
I0
sg95
I0
sg46
I0
sg96
I0
sg97
I0
ssg29
(dp166
g31
I0
sg18
I0
sg47
I0
sg34
I0
sg14
I0
sg35
I0
sg21
I0
sg20
I0
sg40
I0
sg32
I0
sg39
I0
sg57
I0
sg45
I2
sg29
I7
sg51
I0
sg25
I0
sg8
I0
sg48
I0
sg38
I0
sg55
I0
sg15
I0
sg50
I0
sg41
I0
sg36
I0
sg42
I0
sg13
I0
sg10
I0
sg17
I0
sg9
I0
sg58
I0
sg33
I0
sg37
I0
sg12
I0
sg43
I0
sg22
I0
sg49
I0
sg56
I0
sg16
I0
sg11
I0
sg53
I0
sg44
I0
sg23
I0
sg26
I0
sg24
I0
sg52
I0
sg54
I0
sg19
I0
sg30
I0
sg46
I0
sg27
I0
sg28
I0
ssg51
(dp167
g71
I0
sg72
I0
sg47
I0
sg52
I0
sg73
I0
sg74
I0
sg75
I0
sg76
I0
sg45
I0
sg77
I0
sg88
I0
sg78
I0
sg79
I0
sg55
I0
sg80
I0
sg50
I0
sg81
I0
sg82
I0
sg83
I0
sg84
I0
sg85
I0
sg86
I0
sg87
I0
sg51
I0
sg48
I0
sg43
I0
sg89
I0
sg49
I0
sg56
I0
sg90
I0
sg91
I0
sg53
I0
sg44
I0
sg92
I0
sg93
I0
sg54
I0
sg94
I0
sg95
I0
sg46
I0
sg96
I0
sg97
I0
ssg25
(dp168
g31
I0
sg18
I0
sg47
I0
sg34
I0
sg14
I0
sg35
I0
sg21
I0
sg20
I0
sg75
I0
sg32
I0
sg45
I0
sg29
I0
sg51
I0
sg25
I0
sg8
I0
sS'olive.n.04'
p169
I0
sg55
I0
sg15
I0
sg50
I0
sg81
I0
sg36
I0
sg83
I0
sg13
I0
sg10
I0
sg17
I0
sg9
I0
sS'tongue.n.03'
p170
I0
sg33
I0
sg48
I0
sg12
I0
sg43
I0
sg22
I0
sg49
I0
sg56
I0
sg16
I0
sg11
I0
sg53
I0
sg44
I0
sg23
I0
sg26
I0
sg24
I0
sg52
I0
sg54
I0
sg19
I0
sg30
I0
sg46
I0
sg27
I0
sg28
I0
ssg8
(dp171
g31
I0
sg18
I0
sg47
I0
sg34
I0
sg14
I0
sg35
I0
sg21
I0
sg20
I0
sg40
I0
sg32
I0
sg39
I0
sg57
I0
sg45
I0
sg29
I0
sg51
I0
sg25
I7
sg8
I11
sg48
I0
sg38
I0
sg55
I0
sg15
I0
sg50
I0
sg41
I0
sg36
I0
sg42
I0
sg13
I0
sg10
I0
sg17
I0
sg9
I0
sg58
I0
sg33
I0
sg37
I0
sg59
I0
sg12
I0
sg43
I0
sg22
I0
sg49
I0
sg56
I0
sg16
I0
sg11
I0
sg53
I0
sg44
I0
sg23
I0
sg26
I0
sg24
I0
sg52
I0
sg54
I0
sg19
I0
sg30
I0
sg46
I0
sg27
I0
sg28
I0
ssg48
(dp172
g71
I0
sg72
I0
sg47
I0
sg52
I0
sg73
I0
sg74
I0
sg75
I0
sg76
I0
sg45
I0
sg77
I0
sg51
I0
sg78
I0
sg79
I0
sg55
I0
sg80
I0
sg50
I0
sg81
I0
sg82
I0
sg83
I0
sg84
I0
sg85
I0
sg86
I0
sg87
I0
sg88
I0
sg48
I0
sg43
I0
sg89
I0
sg49
I0
sg56
I0
sg90
I0
sg91
I0
sg53
I0
sg44
I0
sg92
I0
sg93
I0
sg54
I0
sg94
I0
sg95
I0
sg46
I0
sg96
I0
sg97
I0
ssg38
(dp173
g108
I0
sg109
I0
sg110
I0
sg111
I0
sg112
I0
sg113
I0
sg40
I0
sg114
I0
sg115
I0
sg116
I0
sg117
I0
sg118
I0
sg38
I0
sg119
I0
sg41
I0
sg120
I0
sg42
I0
sg121
I0
sg122
I0
sg123
I0
sg124
I0
sg37
I0
sg126
I0
sg127
I0
sg129
I0
sg39
I0
sg131
I0
sg132
I0
sg133
I0
ssg55
(dp174
g71
I0
sg72
I0
sg47
I0
sg52
I0
sg73
I0
sg74
I0
sS'zucchini.n.02'
p175
I0
sS'zucchini.n.01'
p176
I0
sg75
I0
sg76
I0
sg45
I0
sg77
I0
sg51
I0
sg78
I0
sg79
I0
sg55
I0
sg80
I0
sg50
I0
sg81
I0
sg82
I0
sg83
I0
sg84
I0
sg85
I0
sg86
I0
sg87
I0
sg88
I0
sg48
I0
sg43
I0
sg89
I0
sg49
I0
sg56
I0
sg90
I0
sg91
I0
sg53
I0
sg44
I0
sg92
I0
sg130
I0
sg93
I0
sg54
I0
sg94
I0
sg95
I0
sg46
I0
sg96
I0
sg97
I0
ssg15
(dp177
g31
I0
sg18
I0
sg47
I0
sg34
I0
sg14
I0
sg35
I0
sg21
I0
sg20
I0
sg40
I0
sg32
I0
sg39
I0
sg57
I0
sg45
I0
sg29
I0
sg51
I0
sg25
I0
sg8
I0
sg48
I0
sg38
I0
sg55
I2
sg15
I7
sg50
I0
sg41
I0
sg36
I0
sg42
I0
sg13
I0
sg10
I0
sg17
I0
sg9
I0
sg58
I0
sg33
I0
sg37
I0
sg59
I0
sg12
I0
sg43
I0
sg22
I0
sg49
I0
sg56
I0
sg16
I0
sg11
I0
sg53
I0
sg44
I0
sg23
I0
sg26
I0
sg24
I0
sg52
I0
sg54
I0
sg19
I0
sg30
I0
sg46
I0
sg27
I0
sg28
I0
ssg50
(dp178
g71
I0
sg72
I0
sg47
I0
sg52
I0
sg73
I0
sg74
I0
sg75
I0
sg76
I0
sg45
I0
sg77
I0
sg51
I0
sg78
I0
sg79
I0
sg55
I0
sg80
I0
sg50
I0
sg81
I0
sg82
I0
sg83
I0
sg84
I0
sg85
I0
sg86
I0
sg87
I0
sg88
I0
sg48
I0
sg43
I0
sg89
I0
sg49
I0
sg56
I0
sg90
I0
sg91
I0
sg53
I0
sg44
I0
sg92
I0
sg93
I0
sg54
I0
sg94
I0
sg95
I0
sg46
I0
sg96
I0
sg97
I0
ssg41
(dp179
g108
I0
sg109
I0
sg47
I0
sg52
I1
sg110
I0
sg111
I0
sg112
I0
sg113
I0
sg40
I0
sg114
I0
sg115
I0
sg57
I0
sg45
I0
sg116
I0
sg51
I0
sg117
I0
sg118
I0
sg48
I0
sg38
I0
sg55
I0
sg119
I0
sg50
I0
sg41
I8
sg120
I0
sg42
I0
sg84
I0
sg121
I0
sg122
I0
sg123
I0
sg58
I0
sg124
I0
sg37
I0
sg59
I0
sg125
I0
sg43
I0
sg126
I0
sg49
I0
sg56
I0
sg127
I0
sg128
I0
sg91
I0
sg53
I0
sg44
I0
sg129
I0
sg130
I0
sg39
I0
sg54
I0
sg131
I0
sg78
I0
sg46
I0
sg132
I0
sg133
I0
ssg36
(dp180
g31
I0
sg18
I0
sg47
I0
sg34
I0
sg14
I0
sg35
I0
sg21
I0
sg20
I0
sg40
I0
sg32
I0
sg39
I0
sg66
I0
sg45
I0
sg29
I0
sg51
I0
sg25
I0
sg8
I0
sg48
I0
sg38
I0
sg55
I0
sg15
I0
sg50
I1
sg41
I0
sg36
I8
sg42
I0
sg13
I0
sg10
I0
sg17
I0
sg9
I0
sg69
I0
sg33
I0
sg37
I0
sg59
I0
sg12
I0
sg43
I0
sg22
I0
sg49
I0
sg56
I0
sg16
I0
sg11
I0
sg53
I0
sg44
I0
sg23
I0
sg26
I0
sg24
I0
sg52
I0
sg54
I0
sg19
I0
sg30
I0
sg46
I0
sg27
I0
sg28
I0
ssg42
(dp181
g108
I0
sg109
I0
sg47
I0
sg52
I0
sg110
I0
sg111
I0
sg112
I0
sg113
I0
sg40
I0
sg114
I0
sg115
I0
sg57
I2
sg45
I0
sg116
I0
sg51
I0
sg117
I0
sg118
I0
sg48
I0
sg38
I0
sg55
I0
sg119
I0
sg50
I0
sg42
I5
sg120
I0
sg41
I0
sg84
I0
sg121
I0
sg122
I0
sg123
I0
sg58
I0
sg124
I0
sg37
I0
sg59
I0
sg125
I0
sg43
I0
sg126
I0
sg49
I0
sg56
I0
sg127
I0
sg128
I0
sg91
I0
sg53
I2
sg44
I0
sg129
I0
sg130
I0
sg39
I0
sg54
I0
sg131
I0
sg78
I0
sg46
I0
sg132
I0
sg133
I0
ssg13
(dp182
g31
I0
sg18
I0
sg47
I0
sg34
I0
sg14
I0
sg35
I0
sg21
I0
sg20
I0
sg75
I0
sg32
I0
sg66
I0
sg45
I0
sg29
I0
sg51
I0
sg25
I0
sg8
I0
sg55
I0
sg15
I0
sg50
I0
sg81
I0
sg36
I0
sg83
I0
sg13
I0
sg10
I0
sg17
I0
sg9
I0
sg69
I0
sg33
I0
sg48
I0
sg59
I0
sg12
I0
sg43
I0
sg22
I0
sg49
I0
sg56
I0
sg16
I0
sg11
I0
sg53
I0
sg44
I0
sg23
I0
sg26
I0
sg24
I0
sg52
I0
sg54
I0
sg19
I0
sg30
I0
sg46
I0
sg27
I0
sg28
I0
ssg10
(dp183
g31
I0
sg18
I0
sg47
I0
sg34
I0
sg14
I0
sg35
I0
sg21
I0
sg20
I0
sg40
I0
sg32
I0
sg39
I0
sg57
I0
sg45
I0
sg29
I0
sg51
I0
sg25
I0
sg8
I0
sg48
I0
sg38
I0
sg55
I0
sg15
I0
sg50
I0
sg41
I0
sg36
I0
sg42
I0
sg13
I12
sg10
I159
sg17
I0
sg9
I0
sg58
I0
sg33
I0
sg37
I0
sg59
I0
sg12
I0
sg43
I0
sg22
I0
sg49
I0
sg56
I0
sg16
I0
sg11
I0
sg53
I0
sg44
I0
sg23
I0
sg26
I0
sg24
I0
sg52
I0
sg54
I0
sg19
I0
sg30
I0
sg46
I0
sg27
I0
sg28
I0
ssg17
(dp184
g31
I0
sg18
I2
sg47
I0
sg34
I0
sg14
I0
sg35
I0
sg21
I0
sg20
I0
sg40
I0
sg32
I0
sg39
I0
sg57
I0
sg45
I0
sg29
I0
sg51
I0
sg25
I0
sg8
I0
sg48
I0
sg38
I0
sg55
I0
sg15
I0
sg50
I0
sg41
I0
sg36
I0
sg42
I0
sg13
I0
sg10
I0
sg17
I1
sg9
I0
sg58
I0
sg33
I0
sg37
I6
sg59
I0
sg12
I0
sg43
I0
sg22
I0
sg49
I0
sg56
I0
sg16
I0
sg11
I0
sg53
I0
sg44
I0
sg23
I0
sg26
I0
sg24
I0
sg52
I0
sg54
I0
sg19
I0
sg30
I0
sg46
I0
sg27
I0
sg28
I0
ssg9
(dp185
g31
I0
sg18
I0
sg47
I0
sg34
I0
sg14
I0
sg35
I0
sg21
I0
sg20
I0
sg40
I0
sg32
I0
sg39
I0
sg57
I0
sg45
I0
sg29
I0
sg51
I0
sg25
I0
sg8
I0
sg48
I5
sg38
I0
sg55
I0
sg15
I0
sg50
I0
sg41
I0
sg36
I0
sg42
I0
sg13
I0
sg10
I0
sg17
I0
sg9
I25
sg58
I15
sg33
I0
sg37
I0
sg59
I0
sg12
I0
sg43
I0
sg22
I0
sg49
I0
sg56
I0
sg16
I0
sg11
I0
sg53
I0
sg44
I0
sg23
I0
sg26
I0
sg24
I0
sg52
I0
sg54
I0
sg19
I0
sg30
I0
sg46
I0
sg27
I0
sg28
I0
ssg58
(dp186
g137
I0
sg138
I0
sg139
I0
sg140
I0
sg141
I0
sg142
I0
sg143
I0
sg144
I0
sg145
I0
sg102
I0
sg146
I0
sg147
I0
sg148
I0
sg149
I0
sg150
I0
sg151
I0
sg152
I0
sg153
I0
sg154
I0
sg155
I0
sg156
I0
sg58
I0
sg157
I0
sg158
I0
sg59
I0
sg125
I0
sg57
I0
sg159
I0
sg128
I0
sg160
I0
sg104
I0
sg161
I0
sg105
I0
sg162
I0
sS'tomato.n.02'
p187
I0
sg163
I0
sg164
I0
ssg33
(dp188
g31
I0
sg18
I0
sg47
I0
sg34
I0
sg14
I0
sg35
I0
sg21
I0
sg20
I0
sg40
I0
sg32
I0
sg39
I0
sg57
I0
sg45
I0
sg29
I0
sg51
I0
sg25
I0
sg8
I0
sg48
I0
sg38
I0
sg55
I0
sg15
I0
sg50
I0
sg41
I0
sg36
I0
sg42
I0
sg13
I0
sg10
I0
sg17
I0
sg9
I0
sg58
I0
sg33
I9
sg37
I0
sg59
I0
sg12
I0
sg43
I0
sg22
I0
sg49
I0
sg56
I0
sg16
I0
sg11
I0
sg53
I0
sg44
I0
sg23
I0
sg26
I0
sg24
I0
sg52
I0
sg54
I0
sg19
I0
sg30
I0
sg46
I0
sg27
I0
sg28
I0
ssg37
(dp189
g108
I0
sg109
I0
sg110
I0
sg111
I0
sg112
I0
sg113
I0
sg40
I0
sg114
I0
sg115
I0
sg57
I0
sg102
I0
sg116
I0
sg117
I0
sg118
I0
sg38
I0
sg119
I0
sg41
I0
sg120
I0
sg42
I0
sg121
I0
sg122
I0
sg123
I0
sg58
I0
sg124
I0
sg37
I0
sS'human_body.n.01'
p190
I0
sg126
I0
sg127
I0
sg160
I0
sg104
I0
sg129
I0
sS'slice.n.04'
p191
I0
sg39
I0
sg105
I0
sg131
I0
sg187
I0
sg132
I0
sg133
I0
ssg59
(dp192
S'mushroom.n.05'
p193
I0
sS'cheese.n.01'
p194
I0
sS'bread.n.01'
p195
I0
sg140
I0
sS'zucchini.n.02'
p196
I0
sS'zucchini.n.01'
p197
I0
sg65
I0
sg66
I0
sS'egg.n.02'
p198
I0
sS'tomato.n.01'
p199
I0
sS'bacon.n.01'
p200
I0
sg67
I0
sg151
I0
sg68
I0
sg153
I0
sS'slice.v.03'
p201
I0
sS'olive.n.01'
p202
I0
sS'knife.n.01'
p203
I0
sS'lemon.n.01'
p204
I0
sS'banana.n.02'
p205
I0
sg59
I0
sg125
I0
sS'piece.n.08'
p206
I0
sS'vegetable.n.01'
p207
I0
sg128
I0
sS'flesh.n.01'
p208
I0
sg69
I0
ssg12
(dp209
g31
I0
sg18
I0
sg34
I0
sg14
I0
sg35
I0
sg21
I0
sg20
I0
sg65
I0
sg32
I0
sg66
I0
sg29
I0
sg25
I0
sg8
I0
sg15
I0
sg67
I0
sg36
I0
sg68
I0
sg13
I0
sg10
I0
sg17
I0
sg9
I0
sg69
I0
sg33
I0
sS'olive.n.04'
p210
I0
sg59
I0
sg12
I0
sg22
I0
sg16
I0
sg11
I0
sg23
I0
sg26
I0
sg24
I0
sg19
I0
sg30
I0
sg27
I0
sg28
I0
ssg43
(dp211
g71
I0
sg72
I0
sg47
I0
sg52
I0
sg73
I0
sg74
I0
sg75
I0
sg76
I0
sg45
I0
sg77
I0
sg51
I0
sg78
I0
sg79
I0
sg55
I0
sg80
I0
sg50
I0
sg81
I0
sg82
I0
sg83
I0
sg84
I0
sg85
I0
sg86
I0
sg87
I0
sg88
I0
sg48
I0
sg43
I1
sg89
I0
sg49
I0
sg56
I0
sg90
I0
sg91
I0
sg53
I0
sg44
I0
sg92
I0
sg93
I0
sg54
I0
sg94
I0
sg95
I0
sg46
I0
sg96
I0
sg97
I0
ssg22
(dp212
g31
I0
sg18
I0
sg47
I0
sg34
I0
sg14
I0
sg35
I0
sg21
I0
sg20
I0
sg40
I0
sg32
I0
sg39
I1
sg57
I0
sg45
I0
sg29
I0
sg51
I0
sg25
I0
sg8
I0
sg48
I0
sg38
I0
sg55
I0
sg15
I0
sg50
I0
sg41
I0
sg36
I0
sg42
I0
sg13
I0
sg10
I0
sg17
I0
sg9
I0
sg58
I0
sg33
I0
sg37
I0
sg59
I0
sg12
I0
sg43
I0
sg22
I10
sg49
I0
sg56
I0
sg16
I0
sg11
I0
sg53
I0
sg44
I1
sg23
I29
sg26
I4
sg24
I0
sg52
I0
sg54
I0
sg19
I0
sg30
I0
sg46
I0
sg27
I0
sg28
I0
ssg49
(dp213
g71
I0
sg72
I0
sg47
I0
sg52
I0
sg73
I0
sg74
I0
sg75
I0
sg76
I0
sg45
I0
sg77
I0
sg51
I0
sg78
I0
sg79
I0
sg55
I0
sg80
I0
sg50
I0
sg81
I0
sg82
I0
sg83
I0
sg84
I0
sg85
I0
sg86
I0
sg87
I0
sg88
I0
sg48
I0
sg43
I0
sg89
I0
sg49
I0
sg56
I0
sg90
I0
sg91
I0
sg53
I0
sg44
I0
sg92
I0
sg93
I0
sg54
I0
sg94
I0
sg95
I0
sg46
I0
sg96
I0
sg97
I0
ssg56
(dp214
g71
I0
sg72
I0
sg47
I0
sg52
I0
sg73
I0
sg74
I0
sg75
I0
sg76
I0
sg45
I0
sg77
I0
sg51
I0
sg78
I0
sg79
I0
sg55
I0
sg80
I0
sg50
I0
sg81
I0
sg82
I0
sg83
I0
sg84
I0
sg85
I0
sg86
I0
sg87
I0
sg88
I0
sg48
I0
sg43
I0
sg89
I0
sg49
I0
sg56
I0
sg90
I0
sg91
I0
sg53
I0
sg44
I0
sg92
I0
sg93
I0
sg54
I0
sg94
I0
sg95
I0
sg46
I0
sg96
I0
sg97
I0
ssg16
(dp215
g31
I0
sg18
I0
sg47
I0
sg34
I0
sg14
I0
sg35
I0
sg21
I0
sg20
I0
sg40
I0
sg32
I0
sg39
I0
sg57
I0
sg45
I0
sg29
I0
sg51
I0
sg25
I0
sg8
I0
sg48
I0
sg38
I0
sg55
I0
sg15
I0
sg50
I0
sg41
I0
sg36
I0
sg42
I0
sg13
I0
sg10
I0
sg17
I0
sg9
I0
sg58
I0
sg33
I0
sg37
I0
sg59
I0
sg12
I0
sg43
I0
sg22
I0
sg49
I0
sg56
I1
sg16
I8
sg11
I0
sg53
I0
sg44
I0
sg23
I0
sg26
I0
sg24
I0
sg52
I0
sg54
I0
sg19
I0
sg30
I0
sg46
I0
sg27
I0
sg28
I0
ssg11
(dp216
g31
I0
sg18
I0
sg47
I0
sg34
I0
sg14
I0
sg35
I0
sg21
I0
sg20
I0
sg75
I0
sg32
I0
sg57
I0
sg45
I0
sg29
I0
sg51
I0
sg25
I0
sg8
I0
sg158
I0
sg55
I0
sg15
I0
sg50
I0
sg81
I0
sg36
I0
sg83
I0
sg13
I0
sg10
I0
sg17
I0
sg9
I0
sg58
I0
sg33
I0
sg48
I0
sg59
I0
sg12
I4
sg43
I0
sg22
I0
sg49
I0
sg56
I0
sg16
I0
sg11
I0
sg53
I0
sg44
I0
sg23
I0
sg26
I0
sg24
I0
sg52
I0
sg54
I5
sg19
I0
sg30
I0
sg46
I0
sg27
I0
sg28
I0
ssg53
(dp217
g71
I0
sg72
I0
sg47
I0
sg52
I0
sg73
I0
sg74
I0
sS'zucchini.n.02'
p218
I0
sS'zucchini.n.01'
p219
I0
sg75
I0
sg76
I0
sg45
I0
sg77
I0
sg51
I0
sg95
I0
sg79
I0
sg169
I0
sg55
I0
sg80
I0
sg50
I0
sg81
I0
sg82
I0
sg83
I0
sg84
I0
sg85
I0
sg86
I0
sg87
I0
sg170
I0
sg88
I0
sg48
I0
sg43
I0
sg89
I0
sg49
I0
sg56
I0
sg90
I0
sg91
I0
sg53
I0
sg44
I0
sg92
I0
sg93
I0
sg54
I0
sg94
I0
sg78
I0
sg46
I0
sg96
I0
sg97
I0
ssg44
(dp220
g71
I0
sg72
I0
sg47
I0
sg52
I0
sg73
I0
sg74
I0
sg75
I0
sg76
I0
sg45
I0
sg77
I0
sg51
I0
sg78
I0
sg79
I0
sg55
I0
sg80
I0
sg50
I0
sg81
I0
sg82
I0
sg83
I0
sg84
I0
sg85
I0
sg86
I0
sg87
I0
sg88
I0
sg48
I0
sg43
I0
sg89
I0
sg49
I0
sg56
I0
sg90
I0
sg91
I0
sg53
I0
sg44
I0
sg92
I0
sg93
I0
sg54
I0
sg94
I0
sg95
I0
sg46
I0
sg96
I0
sg97
I0
ssg23
(dp221
g31
I0
sg18
I0
sg47
I0
sg34
I0
sg14
I0
sg35
I0
sg21
I0
sg20
I0
sg40
I0
sg32
I0
sg39
I0
sg45
I0
sg29
I0
sg51
I0
sg25
I0
sg8
I0
sg48
I0
sg38
I0
sg55
I0
sg15
I0
sg50
I0
sg41
I0
sg36
I0
sg42
I0
sg13
I0
sg10
I0
sg17
I0
sg9
I0
sg33
I0
sg37
I0
sg12
I0
sg43
I0
sg22
I0
sg49
I0
sg56
I0
sg16
I0
sg11
I0
sg53
I0
sg44
I0
sg23
I0
sg26
I0
sg24
I0
sg52
I0
sg54
I0
sg19
I0
sg30
I0
sg46
I0
sg27
I0
sg28
I0
ssg26
(dp222
g31
I0
sg18
I0
sg34
I0
sg14
I0
sg35
I0
sg21
I0
sg20
I0
sS'cabbage.n.01'
p223
I0
sg32
I0
sg29
I0
sg25
I0
sg8
I0
sg103
I0
sg15
I0
sS'meat.n.01'
p224
I0
sg36
I0
sS'cleaver.n.01'
p225
I0
sg13
I0
sg10
I0
sg17
I0
sg9
I0
sg33
I0
sS'olive.n.04'
p226
I0
sg12
I0
sg22
I0
sg16
I0
sg11
I0
sg23
I0
sg26
I0
sg24
I0
sS'pulp.n.02'
p227
I0
sg19
I0
sg30
I0
sg27
I0
sg28
I0
ssg24
(dp228
g31
I0
sg18
I0
sg47
I0
sg34
I0
sg14
I0
sg35
I0
sg21
I0
sg20
I0
sg40
I0
sg32
I0
sg39
I0
sg57
I0
sg45
I0
sg29
I0
sg51
I0
sg25
I0
sg8
I0
sg48
I0
sg38
I0
sg55
I0
sg15
I0
sg50
I0
sg41
I0
sg36
I0
sg42
I0
sg13
I0
sg10
I0
sg17
I0
sg9
I0
sg58
I0
sg33
I0
sg37
I0
sg12
I0
sg43
I0
sg22
I0
sg49
I0
sg56
I0
sg16
I0
sg11
I0
sg53
I0
sg44
I0
sg23
I0
sg26
I0
sg24
I9
sg52
I0
sg54
I0
sg19
I0
sg30
I0
sg46
I0
sg27
I0
sg28
I0
ssg52
(dp229
g71
I0
sg52
I0
sg47
I0
sg72
I0
sg73
I0
sg74
I0
sg75
I0
sg76
I0
sg45
I0
sg77
I0
sg51
I0
sg78
I0
sg79
I0
sg55
I0
sg80
I0
sg50
I0
sg81
I0
sg82
I0
sg83
I0
sg84
I0
sg85
I0
sg86
I0
sg87
I0
sg88
I0
sg48
I0
sg43
I0
sg89
I0
sg49
I0
sg56
I0
sg90
I0
sg91
I0
sg53
I0
sg44
I0
sg92
I0
sg93
I0
sg54
I0
sg94
I0
sg95
I0
sg46
I0
sg96
I0
sg97
I0
ssg54
(dp230
g71
I0
sg72
I0
sg47
I0
sg52
I0
sg73
I0
sg74
I0
sg141
I0
sg142
I0
sg75
I0
sg76
I0
sg57
I0
sg45
I0
sg77
I0
sg51
I0
sg78
I0
sg79
I0
sg158
I0
sg55
I0
sg80
I0
sg50
I0
sg81
I0
sg82
I0
sg83
I0
sg84
I0
sg85
I0
sg86
I0
sg87
I0
sg58
I0
sg88
I0
sg48
I0
sg43
I0
sg89
I0
sg49
I0
sg56
I0
sg90
I0
sg91
I0
sg53
I0
sg44
I0
sg92
I0
sg130
I0
sg93
I0
sg54
I0
sg94
I0
sg95
I0
sg46
I0
sg96
I0
sg97
I0
ssg19
(dp231
g31
I0
sg18
I0
sg47
I0
sg34
I0
sg14
I0
sg35
I0
sg21
I0
sg20
I0
sg40
I0
sg32
I0
sg39
I0
sg57
I0
sg45
I0
sg29
I0
sg51
I0
sg25
I0
sg8
I0
sg48
I0
sg38
I0
sg55
I0
sg15
I0
sg50
I0
sg41
I0
sg36
I0
sg42
I0
sg13
I0
sg10
I0
sg17
I0
sg9
I0
sg58
I0
sg33
I0
sg37
I0
sg59
I0
sg12
I0
sg43
I0
sg22
I0
sg49
I0
sg56
I0
sg16
I0
sg11
I0
sg53
I0
sg44
I0
sg23
I0
sg26
I0
sg24
I0
sg52
I0
sg54
I0
sg19
I18
sg30
I0
sg46
I0
sg27
I0
sg28
I0
ssg30
(dp232
g31
I0
sg18
I0
sg47
I0
sg34
I0
sg14
I0
sg35
I0
sg21
I0
sg20
I0
sg40
I0
sg32
I0
sg39
I0
sg57
I0
sg45
I0
sg29
I0
sg51
I0
sg30
I7
sg8
I0
sg48
I0
sg38
I1
sg55
I0
sg15
I0
sg50
I0
sg41
I0
sg36
I0
sg42
I0
sg13
I0
sg10
I0
sg17
I0
sg9
I0
sg58
I0
sg33
I0
sg37
I0
sg59
I0
sg12
I0
sg43
I0
sg22
I0
sg49
I0
sg56
I0
sg16
I0
sg11
I0
sg53
I0
sg44
I0
sg23
I0
sg26
I0
sg24
I0
sg52
I0
sg54
I0
sg19
I0
sg25
I0
sg46
I1
sg27
I0
sg28
I0
ssg46
(dp233
g71
I0
sg72
I0
sg47
I0
sg52
I0
sg73
I0
sg74
I0
sg75
I0
sg76
I0
sg45
I0
sg77
I0
sg51
I0
sg78
I0
sg46
I0
sg55
I0
sg80
I0
sg50
I0
sg81
I0
sg82
I0
sg83
I0
sg84
I0
sg85
I0
sg86
I0
sg87
I0
sg88
I0
sg48
I0
sg43
I0
sg89
I0
sg49
I0
sg56
I0
sg90
I0
sg91
I0
sg53
I0
sg44
I0
sg92
I0
sg93
I0
sg54
I0
sg94
I0
sg95
I0
sg79
I0
sg96
I0
sg97
I0
ssg27
(dp234
g31
I0
sg18
I0
sg47
I0
sg34
I0
sg14
I0
sg35
I0
sg21
I0
sg20
I0
sg40
I0
sg32
I0
sg39
I0
sg57
I0
sg45
I0
sg29
I0
sg51
I0
sg25
I0
sg8
I0
sg48
I0
sg38
I0
sg55
I0
sg15
I0
sg50
I0
sg41
I0
sg36
I0
sg42
I0
sg13
I0
sg10
I0
sg17
I0
sg9
I0
sg58
I0
sg33
I0
sg37
I0
sg12
I0
sg43
I0
sg22
I0
sg49
I0
sg56
I0
sg16
I0
sg11
I0
sg53
I0
sg44
I0
sg23
I0
sg26
I0
sg24
I0
sg52
I0
sg54
I0
sg19
I0
sg30
I0
sg46
I0
sg27
I0
sg28
I9
ssg28
(dp235
g31
I0
sg18
I0
sg47
I0
sg34
I0
sg14
I0
sg35
I0
sg21
I0
sg20
I0
sg40
I0
sg32
I0
sg39
I0
sg57
I0
sg45
I0
sg29
I0
sg51
I0
sg25
I0
sg8
I0
sg48
I0
sg38
I0
sg55
I0
sg15
I0
sg50
I0
sg41
I0
sg36
I0
sg42
I0
sg13
I0
sg10
I0
sg17
I0
sg9
I0
sg58
I0
sg33
I0
sg37
I0
sg12
I0
sg43
I0
sg22
I0
sg49
I0
sg56
I0
sg16
I0
sg11
I0
sg53
I0
sg44
I0
sg23
I0
sg26
I0
sg24
I0
sg52
I0
sg54
I0
sg19
I0
sg30
I0
sg46
I0
sg27
I0
sg28
I0
sssb.