ccopy_reg
_reconstructor
p0
(cutils.eval
ConfusionMatrix
p1
c__builtin__
object
p2
Ntp3
Rp4
(dp5
S'labels'
p6
(lp7
S'knife.n.01'
p8
aS'banana.n.02'
p9
aS'slice.v.03'
p10
aS'cheese.n.01'
p11
aS'orange.n.01'
p12
aS'piece.n.08'
p13
aS'slice.n.06'
p14
aS'potato.n.01'
p15
aS'cabbage.n.01'
p16
aS'meat.n.01'
p17
aS'cleaver.n.01'
p18
aS'tomato.n.01'
p19
aS'flesh.n.01'
p20
aS'human_body.n.01'
p21
aS'bread.n.01'
p22
aS'bacon.n.01'
p23
aS'vegetable.n.01'
p24
aS'olive.n.01'
p25
aS'olive.n.04'
p26
aS'lemon.n.01'
p27
aS'zucchini.n.01'
p28
aS'zucchini.n.02'
p29
aS'pizza.n.01'
p30
aS'onion.n.03'
p31
aS'onion.n.02'
p32
aS'mustard.n.02'
p33
aS'egg.n.02'
p34
asS'instanceCount'
p35
I47
sS'matrix'
p36
(dp37
g11
(dp38
S'cheese.n.01'
p39
I1
ssg22
(dp40
S'bread.n.01'
p41
I1
ssg12
(dp42
S'orange.n.01'
p43
I1
ssg29
(dp44
g29
I0
ssg28
(dp45
g29
I1
ssg16
(dp46
S'cabbage.n.01'
p47
I1
ssg33
(dp48
S'mustard.n.02'
p49
I1
ssg34
(dp50
S'egg.n.02'
p51
I1
ssg19
(dp52
S'tomato.n.01'
p53
I2
ssg23
(dp54
S'bacon.n.01'
p55
I1
ssg17
(dp56
S'meat.n.01'
p57
I1
ssg15
(dp58
S'potato.n.01'
p59
I1
ssg18
(dp60
S'cleaver.n.01'
p61
I1
ssg10
(dp62
S'slice.v.03'
p63
I17
ssg25
(dp64
g26
I1
ssg8
(dp65
S'knife.n.01'
p66
I4
ssg9
(dp67
S'banana.n.02'
p68
I1
ssg26
(dp69
g26
I0
ssg21
(dp70
g21
I0
ssg13
(dp71
g14
I5
ssg24
(dp72
S'vegetable.n.01'
p73
I1
ssg20
(dp74
g21
I1
ssg14
(dp75
g14
I0
ssg30
(dp76
S'pizza.n.01'
p77
I1
ssg27
(dp78
S'lemon.n.01'
p79
I2
ssg31
(dp80
g32
I1
ssg32
(dp81
g32
I0
sssb.