ccopy_reg
_reconstructor
p0
(cutils.eval
ConfusionMatrix
p1
c__builtin__
object
p2
Ntp3
Rp4
(dp5
S'labels'
p6
(lp7
S'bread.n.01'
p8
aS'knife.n.01'
p9
aS'slice.v.03'
p10
aS'bacon.n.01'
p11
aS'vegetable.n.01'
p12
aS'olive.n.01'
p13
aS'olive.n.04'
p14
aS'lemon.n.01'
p15
aS'zucchini.n.01'
p16
aS'zucchini.n.02'
p17
aS'piece.n.08'
p18
aS'slice.n.06'
p19
aS'pizza.n.01'
p20
aS'tomato.n.01'
p21
aS'onion.n.03'
p22
aS'onion.n.02'
p23
aS'mustard.n.02'
p24
aS'egg.n.02'
p25
aS'testis.n.01'
p26
aS'slice.n.05'
p27
aS'mushroom.n.05'
p28
aS'green_onion.n.01'
p29
aS'banana.n.02'
p30
aS'cheese.n.01'
p31
aS'orange.n.01'
p32
aS'potato.n.01'
p33
aS'cabbage.n.01'
p34
aS'meat.n.01'
p35
aS'cleaver.n.01'
p36
asS'instanceCount'
p37
I47
sS'matrix'
p38
(dp39
g28
(dp40
S'mushroom.n.05'
p41
I1
ssg31
(dp42
S'cheese.n.01'
p43
I1
ssg8
(dp44
S'bread.n.01'
p45
I1
ssg32
(dp46
S'orange.n.01'
p47
I1
ssg17
(dp48
g17
I0
ssg16
(dp49
g17
I1
ssg34
(dp50
S'cabbage.n.01'
p51
I1
ssg29
(dp52
S'green_onion.n.01'
p53
I1
ssg20
(dp54
S'pizza.n.01'
p55
I1
ssg24
(dp56
S'mustard.n.02'
p57
I1
ssg25
(dp58
g26
I1
ssg21
(dp59
S'tomato.n.01'
p60
I1
ssg26
(dp61
g26
I0
ssg11
(dp62
S'bacon.n.01'
p63
I1
ssg35
(dp64
S'meat.n.01'
p65
I1
ssg33
(dp66
S'potato.n.01'
p67
I1
ssg36
(dp68
S'cleaver.n.01'
p69
I1
ssg10
(dp70
S'slice.v.03'
p71
I17
ssg13
(dp72
g14
I1
ssg9
(dp73
S'knife.n.01'
p74
I4
ssg30
(dp75
S'banana.n.02'
p76
I1
ssg14
(dp77
g14
I0
ssg18
(dp78
g19
I4
sg27
I1
ssg12
(dp79
S'vegetable.n.01'
p80
I1
ssg19
(dp81
g19
I0
ssg27
(dp82
g27
I0
ssg15
(dp83
S'lemon.n.01'
p84
I2
ssg22
(dp85
g23
I1
ssg23
(dp86
g23
I0
sssb.