ccopy_reg
_reconstructor
p0
(cutils.eval
ConfusionMatrix
p1
c__builtin__
object
p2
Ntp3
Rp4
(dp5
S'labels'
p6
(lp7
S'slice.v.03'
p8
aS'orange.n.01'
p9
aS'piece.n.08'
p10
aS'slice.n.06'
p11
aS'potato.n.01'
p12
aS'cabbage.n.01'
p13
aS'meat.n.01'
p14
aS'cleaver.n.01'
p15
aS'tomato.n.01'
p16
aS'knife.n.01'
p17
aS'flesh.n.01'
p18
aS'pulp.n.02'
p19
aS'bread.n.01'
p20
aS'bacon.n.01'
p21
aS'vegetable.n.01'
p22
aS'olive.n.01'
p23
aS'olive.n.04'
p24
aS'lemon.n.01'
p25
aS'zucchini.n.01'
p26
aS'zucchini.n.02'
p27
aS'pizza.n.01'
p28
aS'tomato.n.02'
p29
aS'slice.n.04'
p30
aS'onion.n.03'
p31
aS'onion.n.02'
p32
aS'mustard.n.02'
p33
aS'egg.n.02'
p34
aS'mushroom.n.05'
p35
aS'green_onion.n.01'
p36
asS'instanceCount'
p37
I47
sS'matrix'
p38
(dp39
g35
(dp40
S'mushroom.n.05'
p41
I1
ssg20
(dp42
S'bread.n.01'
p43
I1
ssg9
(dp44
S'orange.n.01'
p45
I1
ssg27
(dp46
g27
I0
ssg26
(dp47
g27
I1
ssg17
(dp48
S'knife.n.01'
p49
I4
ssg36
(dp50
S'green_onion.n.01'
p51
I1
ssg33
(dp52
S'mustard.n.02'
p53
I1
ssg29
(dp54
g29
I0
ssg16
(dp55
g29
I1
sS'tomato.n.01'
p56
I1
ssg21
(dp57
S'bacon.n.01'
p58
I1
ssg14
(dp59
S'meat.n.01'
p60
I1
ssg12
(dp61
S'potato.n.01'
p62
I1
ssg15
(dp63
S'cleaver.n.01'
p64
I1
ssg8
(dp65
S'slice.v.03'
p66
I17
ssg23
(dp67
g24
I1
ssg13
(dp68
S'cabbage.n.01'
p69
I1
ssg24
(dp70
g24
I0
ssg10
(dp71
g11
I4
sg30
I1
ssg22
(dp72
S'vegetable.n.01'
p73
I1
ssg18
(dp74
g19
I1
ssg11
(dp75
g11
I0
ssg30
(dp76
g30
I0
ssg28
(dp77
S'pizza.n.01'
p78
I1
ssg31
(dp79
g32
I1
ssg25
(dp80
S'lemon.n.01'
p81
I2
ssg34
(dp82
S'egg.n.02'
p83
I1
ssg19
(dp84
g19
I0
ssg32
(dp85
g32
I0
sssb.