ccopy_reg
_reconstructor
p0
(cutils.eval
ConfusionMatrix
p1
c__builtin__
object
p2
Ntp3
Rp4
(dp5
S'labels'
p6
(lp7
S'put.v.01'
p8
aS'invest.v.01'
p9
aS'spoon.n.01'
p10
aS'batter.n.02'
p11
aS'pan.n.03'
p12
aS'chicken.n.01'
p13
aS'chicken.n.04'
p14
asS'instanceCount'
p15
I6
sS'matrix'
p16
(dp17
g9
(dp18
g9
I0
ssg12
(dp19
S'pan.n.03'
p20
I1
ssg13
(dp21
g14
I1
ssg14
(dp22
g14
I0
ssg8
(dp23
g9
I1
sS'put.v.01'
p24
I1
ssg10
(dp25
S'spoon.n.01'
p26
I1
ssg11
(dp27
S'batter.n.02'
p28
I1
sssb.