ccopy_reg
_reconstructor
p0
(cutils.eval
ConfusionMatrix
p1
c__builtin__
object
p2
Ntp3
Rp4
(dp5
S'labels'
p6
(lp7
S'put.v.01'
p8
aS'rib.n.03'
p9
aS'salt.n.02'
p10
aS'invest.v.01'
p11
aS'french_fries.n.01'
p12
asS'instanceCount'
p13
I5
sS'matrix'
p14
(dp15
g9
(dp16
S'rib.n.03'
p17
I1
ssg10
(dp18
S'salt.n.02'
p19
I1
ssg12
(dp20
S'french_fries.n.01'
p21
I1
ssg8
(dp22
g11
I1
sS'put.v.01'
p23
I1
ssg11
(dp24
g11
I0
sssb.