ccopy_reg
_reconstructor
p0
(cutils.eval
ConfusionMatrix
p1
c__builtin__
object
p2
Ntp3
Rp4
(dp5
S'labels'
p6
(lp7
S'knife.n.01'
p8
aS'slice.v.03'
p9
aS'green_onion.n.01'
p10
aS'mushroom.n.05'
p11
aS'meat.n.01'
p12
aS'cleaver.n.01'
p13
aS'orange.n.01'
p14
aS'piece.n.08'
p15
aS'slice.n.06'
p16
aS'olive.n.01'
p17
aS'olive.n.04'
p18
aS'catsup.n.01'
p19
aS'tomato.n.01'
p20
aS'tomato.n.02'
p21
aS'onion.n.03'
p22
aS'onion.n.02'
p23
aS'mustard.n.02'
p24
aS'mustard.n.01'
p25
aS'bacon.n.01'
p26
aS'pizza.n.01'
p27
asS'instanceCount'
p28
I23
sS'matrix'
p29
(dp30
g11
(dp31
S'mushroom.n.05'
p32
I1
ssg9
(dp33
S'slice.v.03'
p34
I7
ssg17
(dp35
g18
I1
ssg8
(dp36
S'knife.n.01'
p37
I1
ssg18
(dp38
g18
I0
ssg21
(dp39
g21
I0
ssg20
(dp40
g21
I1
ssg16
(dp41
g16
I0
ssg24
(dp42
g25
I1
ssg26
(dp43
S'bacon.n.01'
p44
I1
ssg27
(dp45
S'pizza.n.01'
p46
I1
ssg14
(dp47
S'orange.n.01'
p48
I1
ssg12
(dp49
S'meat.n.01'
p50
I1
ssg25
(dp51
g25
I0
ssg19
(dp52
S'catsup.n.01'
p53
I1
ssg10
(dp54
S'green_onion.n.01'
p55
I1
ssg23
(dp56
g23
I0
ssg15
(dp57
S'piece.n.08'
p58
I1
sg16
I2
ssg22
(dp59
g23
I1
ssg13
(dp60
S'cleaver.n.01'
p61
I1
sssb.