ccopy_reg
_reconstructor
p0
(cutils.eval
ConfusionMatrix
p1
c__builtin__
object
p2
Ntp3
Rp4
(dp5
S'labels'
p6
(lp7
S'slice.v.03'
p8
aS'cabbage.n.01'
p9
aS'bread.n.01'
p10
aS'knife.n.01'
p11
aS'flesh.n.01'
p12
aS'pulp.n.02'
p13
aS'lemon.n.01'
p14
aS'green_onion.n.01'
p15
aS'mushroom.n.05'
p16
aS'meat.n.01'
p17
aS'cleaver.n.01'
p18
aS'orange.n.01'
p19
aS'piece.n.08'
p20
asS'instanceCount'
p21
I20
sS'matrix'
p22
(dp23
g16
(dp24
S'mushroom.n.05'
p25
I1
ssg8
(dp26
S'slice.v.03'
p27
I8
ssg11
(dp28
S'knife.n.01'
p29
I2
ssg12
(dp30
g13
I1
ssg10
(dp31
S'bread.n.01'
p32
I1
ssg19
(dp33
S'orange.n.01'
p34
I1
ssg17
(dp35
S'meat.n.01'
p36
I1
ssg14
(dp37
S'lemon.n.01'
p38
I1
ssg9
(dp39
S'cabbage.n.01'
p40
I1
ssg15
(dp41
S'green_onion.n.01'
p42
I1
ssg20
(dp43
S'piece.n.08'
p44
I1
ssg13
(dp45
g13
I0
ssg18
(dp46
S'cleaver.n.01'
p47
I1
sssb.