ccopy_reg
_reconstructor
p0
(cutils.eval
ConfusionMatrix
p1
c__builtin__
object
p2
Ntp3
Rp4
(dp5
S'labels'
p6
(lp7
S'slice.v.03'
p8
aS'lemon.n.01'
p9
aS'knife.n.01'
p10
aS'banana.n.02'
p11
aS'vegetable.n.01'
p12
aS'zucchini.n.01'
p13
aS'zucchini.n.02'
p14
aS'egg.n.02'
p15
aS'piece.n.08'
p16
aS'tomato.n.01'
p17
aS'cabbage.n.01'
p18
aS'bread.n.01'
p19
asS'instanceCount'
p20
I21
sS'matrix'
p21
(dp22
g8
(dp23
S'slice.v.03'
p24
I8
ssg12
(dp25
S'vegetable.n.01'
p26
I1
ssg10
(dp27
S'knife.n.01'
p28
I4
ssg11
(dp29
S'banana.n.02'
p30
I1
ssg15
(dp31
S'egg.n.02'
p32
I1
ssg17
(dp33
S'tomato.n.01'
p34
I1
ssg19
(dp35
S'bread.n.01'
p36
I1
ssg14
(dp37
g14
I0
ssg9
(dp38
S'lemon.n.01'
p39
I1
ssg13
(dp40
g14
I1
ssg18
(dp41
S'cabbage.n.01'
p42
I1
ssg16
(dp43
S'piece.n.08'
p44
I1
sssb.