ccopy_reg
_reconstructor
p0
(cutils.eval
ConfusionMatrix
p1
c__builtin__
object
p2
Ntp3
Rp4
(dp5
S'labels'
p6
(lp7
S'meat.n.01'
p8
aS'slice.v.03'
p9
aS'cleaver.n.01'
p10
aS'orange.n.01'
p11
aS'piece.n.08'
p12
aS'slice.n.06'
p13
aS'olive.n.01'
p14
aS'olive.n.04'
p15
aS'catsup.n.01'
p16
aS'tomato.n.01'
p17
aS'tomato.n.02'
p18
aS'onion.n.03'
p19
aS'mustard.n.02'
p20
aS'mustard.n.01'
p21
aS'bacon.n.01'
p22
aS'pizza.n.01'
p23
aS'potato.n.01'
p24
aS'cheese.n.01'
p25
asS'instanceCount'
p26
I23
sS'matrix'
p27
(dp28
g9
(dp29
S'slice.v.03'
p30
I7
ssg14
(dp31
g15
I1
ssg15
(dp32
g15
I0
ssg18
(dp33
g18
I0
ssg17
(dp34
g18
I1
ssg13
(dp35
g13
I0
ssg20
(dp36
g21
I1
ssg22
(dp37
S'bacon.n.01'
p38
I1
ssg23
(dp39
S'pizza.n.01'
p40
I1
ssg25
(dp41
S'cheese.n.01'
p42
I1
ssg11
(dp43
S'orange.n.01'
p44
I1
ssg8
(dp45
S'meat.n.01'
p46
I1
ssg24
(dp47
S'potato.n.01'
p48
I1
ssg16
(dp49
S'catsup.n.01'
p50
I1
ssg12
(dp51
g13
I4
ssg21
(dp52
g21
I0
ssg19
(dp53
S'onion.n.03'
p54
I1
ssg10
(dp55
S'cleaver.n.01'
p56
I1
sssb.