ccopy_reg
_reconstructor
p0
(cutils.eval
ConfusionMatrix
p1
c__builtin__
object
p2
Ntp3
Rp4
(dp5
S'labels'
p6
(lp7
S'knife.n.01'
p8
aS'slice.v.03'
p9
aS'green_onion.n.01'
p10
aS'mushroom.n.05'
p11
aS'meat.n.01'
p12
aS'cleaver.n.01'
p13
aS'orange.n.01'
p14
aS'piece.n.08'
p15
aS'slice.n.06'
p16
aS'olive.n.01'
p17
aS'olive.n.04'
p18
aS'catsup.n.01'
p19
aS'tomato.n.01'
p20
aS'tomato.n.02'
p21
aS'onion.n.03'
p22
aS'onion.n.02'
p23
aS'mustard.n.02'
p24
aS'mustard.n.01'
p25
aS'bacon.n.01'
p26
aS'pizza.n.01'
p27
aS'potato.n.01'
p28
aS'cheese.n.01'
p29
aS'lemon.n.01'
p30
aS'banana.n.02'
p31
aS'vegetable.n.01'
p32
aS'zucchini.n.01'
p33
aS'zucchini.n.02'
p34
aS'egg.n.02'
p35
aS'mustard.n.03'
p36
aS'cabbage.n.01'
p37
aS'bread.n.01'
p38
aS'flesh.n.01'
p39
aS'pulp.n.02'
p40
asS'instanceCount'
p41
I211
sS'matrix'
p42
(dp43
g11
(dp44
g11
I4
sg38
I0
sg14
I0
sg37
I0
sg10
I0
sg25
I0
sg24
I0
sg21
I0
sg20
I0
sg26
I0
sg12
I0
sg13
I0
sg9
I0
sg17
I0
sg8
I0
sg18
I0
sg19
I0
sg15
I0
sg39
I0
sg16
I0
sg27
I0
sg40
I0
sS'lemon.n.01'
p45
I0
sS'egg.n.02'
p46
I0
sg22
I0
sg23
I0
ssg29
(dp47
g29
I4
sS'orange.n.01'
p48
I0
sg34
I0
sg33
I0
sS'mustard.n.01'
p49
I0
sS'mustard.n.02'
p50
I0
sg36
I0
sg35
I0
sS'tomato.n.01'
p51
I0
sS'bacon.n.01'
p52
I0
sS'meat.n.01'
p53
I0
sg28
I0
sS'cleaver.n.01'
p54
I0
sS'slice.v.03'
p55
I0
sS'olive.n.01'
p56
I0
sS'knife.n.01'
p57
I0
sg31
I0
sS'olive.n.04'
p58
I0
sS'catsup.n.01'
p59
I0
sS'piece.n.08'
p60
I0
sg32
I0
sS'slice.n.06'
p61
I0
sS'pizza.n.01'
p62
I0
sg30
I0
sS'tomato.n.02'
p63
I0
sS'onion.n.03'
p64
I0
sS'onion.n.02'
p65
I0
ssg38
(dp66
S'mushroom.n.05'
p67
I0
sS'slice.v.03'
p68
I0
sS'vegetable.n.01'
p69
I0
sS'knife.n.01'
p70
I0
sS'banana.n.02'
p71
I0
sg39
I0
sS'egg.n.02'
p72
I0
sS'tomato.n.01'
p73
I0
sg38
I4
sS'orange.n.01'
p74
I0
sS'zucchini.n.02'
p75
I0
sS'meat.n.01'
p76
I0
sg45
I0
sS'zucchini.n.01'
p77
I0
sg37
I0
sS'green_onion.n.01'
p78
I0
sS'piece.n.08'
p79
I0
sg40
I0
sS'cleaver.n.01'
p80
I0
ssg14
(dp81
g11
I0
sS'cheese.n.01'
p82
I0
sg38
I0
sg14
I4
sg37
I0
sg10
I0
sg25
I0
sg24
I0
sg21
I0
sg20
I0
sg26
I0
sg12
I0
sS'potato.n.01'
p83
I0
sg13
I0
sg9
I0
sg17
I0
sg8
I0
sg18
I0
sg19
I0
sg15
I0
sg39
I0
sg16
I0
sg27
I0
sg40
I0
sg45
I0
sg22
I0
sg23
I0
ssg34
(dp84
g29
I0
sg32
I0
sg57
I0
sS'flesh.n.01'
p85
I0
sg31
I0
sg55
I0
sg35
I0
sg51
I0
sg33
I0
sS'slice.n.06'
p86
I0
sS'bacon.n.01'
p87
I0
sS'pizza.n.01'
p88
I0
sg34
I0
sg30
I0
sg28
I0
sS'cabbage.n.01'
p89
I0
sg60
I0
sS'bread.n.01'
p90
I0
sS'pulp.n.02'
p91
I0
ssg33
(dp92
g29
I0
sg32
I0
sg57
I0
sg85
I0
sg31
I0
sg55
I0
sg35
I0
sg51
I0
sg33
I0
sg86
I0
sg87
I0
sg88
I0
sg34
I4
sg30
I0
sg28
I0
sg89
I0
sg60
I0
sg90
I0
sg91
I0
ssg37
(dp93
g67
I0
sg68
I0
sg69
I0
sg70
I0
sg71
I0
sg39
I0
sg72
I0
sg73
I0
sg38
I0
sg74
I0
sg75
I0
sg76
I0
sg45
I0
sg77
I0
sg37
I4
sg78
I0
sg79
I0
sg40
I0
sg80
I0
ssg10
(dp94
g11
I0
sg38
I0
sg14
I0
sg37
I0
sg10
I4
sg25
I0
sg24
I0
sg21
I0
sg20
I0
sg26
I0
sg12
I0
sg13
I0
sg9
I0
sg17
I0
sg8
I0
sg18
I0
sg19
I0
sg15
I0
sg39
I0
sg16
I0
sg27
I0
sg40
I0
sg45
I0
sg46
I0
sg22
I0
sg23
I0
ssg25
(dp95
g11
I0
sg82
I0
sg14
I0
sg10
I0
sg25
I0
sg24
I0
sg21
I0
sg20
I0
sg26
I0
sg12
I0
sg83
I0
sg13
I0
sg9
I0
sg17
I0
sg8
I0
sg18
I0
sg19
I0
sg15
I0
sS'flesh.n.01'
p96
I0
sg16
I0
sg27
I0
sS'pulp.n.02'
p97
I0
sS'lemon.n.01'
p98
I0
sg22
I0
sg23
I0
ssg24
(dp99
g11
I0
sS'cheese.n.01'
p100
I0
sg14
I0
sg10
I0
sg25
I3
sg24
I0
sg36
I1
sg21
I0
sg20
I0
sg26
I0
sg12
I0
sS'potato.n.01'
p101
I0
sg13
I0
sg9
I0
sg17
I0
sg8
I0
sS'banana.n.02'
p102
I0
sg18
I0
sg19
I0
sg15
I0
sg96
I0
sg16
I0
sg27
I0
sg97
I0
sS'lemon.n.01'
p103
I0
sg22
I0
sg23
I0
ssg36
(dp104
S'slice.v.03'
p105
I0
sg56
I0
sg36
I0
sS'knife.n.01'
p106
I0
sg102
I0
sg58
I0
sg63
I0
sS'tomato.n.01'
p107
I0
sg61
I0
sg50
I0
sg52
I0
sg62
I0
sg100
I0
sg103
I0
sg101
I0
sS'piece.n.08'
p108
I0
sg64
I0
sg65
I0
ssg21
(dp109
g11
I0
sg100
I0
sg14
I0
sg10
I0
sg25
I0
sg24
I0
sg36
I0
sg21
I0
sg20
I0
sg26
I0
sg12
I0
sg101
I0
sg13
I0
sg9
I0
sg17
I0
sg8
I0
sg102
I0
sg18
I0
sg19
I0
sg15
I0
sg96
I0
sg16
I0
sg27
I0
sg97
I0
sg103
I0
sg22
I0
sg23
I0
ssg20
(dp110
g11
I0
sg29
I0
sg90
I0
sg14
I0
sg34
I0
sg33
I0
sg89
I0
sg10
I0
sg25
I0
sg24
I0
sg36
I0
sg21
I4
sg20
I4
sg26
I0
sg12
I0
sg28
I0
sg13
I0
sg9
I0
sg17
I0
sg8
I0
sg31
I0
sg18
I0
sg19
I0
sg15
I0
sg32
I0
sg96
I0
sg16
I0
sg27
I0
sg97
I0
sg30
I0
sg35
I0
sg22
I0
sg23
I0
ssg26
(dp111
g11
I0
sg100
I0
sg14
I0
sS'zucchini.n.02'
p112
I0
sS'zucchini.n.01'
p113
I0
sg10
I0
sg25
I0
sg24
I0
sg36
I0
sg21
I0
sg20
I0
sg26
I4
sg12
I0
sg101
I0
sg13
I0
sg9
I0
sg17
I0
sg8
I0
sg102
I0
sg18
I0
sg19
I0
sg15
I0
sS'vegetable.n.01'
p114
I0
sg16
I0
sg27
I0
sg103
I0
sg22
I0
sg23
I0
ssg12
(dp115
g11
I0
sg82
I0
sg38
I0
sg14
I0
sg37
I0
sg10
I0
sg25
I0
sg24
I0
sg21
I0
sg20
I0
sg26
I0
sg12
I4
sg83
I0
sg13
I0
sg9
I0
sg17
I0
sg8
I0
sg18
I0
sg19
I0
sg15
I0
sg39
I0
sg16
I0
sg27
I0
sg40
I0
sg45
I0
sg22
I0
sg23
I0
ssg28
(dp116
g29
I0
sg48
I0
sg34
I0
sg33
I0
sg49
I0
sg50
I0
sg36
I0
sg35
I0
sg51
I0
sg52
I0
sg53
I0
sg28
I4
sg54
I0
sg55
I0
sg56
I0
sg57
I0
sg31
I0
sg58
I0
sg59
I0
sg60
I0
sg32
I0
sg61
I0
sg62
I0
sg30
I0
sg63
I0
sg64
I0
sg65
I0
ssg13
(dp117
g11
I0
sg82
I0
sg38
I0
sg14
I0
sg37
I0
sg10
I0
sg25
I0
sg24
I0
sg21
I0
sg20
I0
sg26
I0
sg13
I4
sg83
I0
sg12
I0
sg9
I0
sg17
I0
sg8
I0
sg18
I0
sg19
I0
sg15
I0
sg39
I0
sg16
I0
sg27
I0
sg40
I0
sg45
I0
sg22
I0
sg23
I0
ssg9
(dp118
g11
I0
sg29
I0
sg38
I0
sg14
I0
sg34
I0
sg33
I0
sg37
I0
sg10
I0
sg25
I0
sg24
I0
sg36
I0
sg21
I0
sg20
I0
sg26
I0
sg12
I0
sg28
I0
sg13
I0
sg9
I76
sg17
I0
sg8
I0
sg31
I0
sg18
I0
sg19
I0
sg15
I0
sg32
I0
sg39
I0
sg16
I0
sg27
I0
sg40
I0
sg30
I0
sg35
I0
sg22
I0
sg23
I0
ssg17
(dp119
g11
I0
sg100
I0
sg14
I0
sg10
I0
sg25
I0
sg24
I0
sg36
I0
sg21
I0
sg20
I0
sg26
I0
sg12
I0
sg101
I0
sg13
I0
sg9
I0
sg17
I0
sg8
I0
sg102
I0
sg18
I4
sg19
I0
sg15
I0
sg96
I0
sg16
I0
sg27
I0
sg97
I0
sg103
I0
sg22
I0
sg23
I0
ssg8
(dp120
g11
I0
sg29
I0
sg38
I0
sg14
I0
sg34
I0
sg33
I0
sg37
I0
sg10
I0
sg25
I0
sg24
I0
sg36
I0
sg21
I0
sg20
I0
sg26
I0
sg12
I0
sg28
I0
sg13
I0
sg9
I0
sg17
I0
sg8
I20
sg31
I0
sg18
I0
sg19
I0
sg15
I0
sg32
I0
sg39
I0
sg16
I0
sg27
I0
sg40
I0
sg30
I0
sg35
I0
sg22
I0
sg23
I0
ssg31
(dp121
g29
I0
sS'bread.n.01'
p122
I0
sg34
I0
sg33
I0
sS'cabbage.n.01'
p123
I0
sg50
I0
sg36
I0
sg35
I0
sg51
I0
sg52
I0
sg28
I0
sg55
I0
sg56
I0
sg57
I0
sg31
I4
sg58
I0
sg60
I0
sg32
I0
sg61
I0
sg62
I0
sg30
I0
sg63
I0
sg64
I0
sg65
I0
ssg18
(dp124
g11
I0
sg100
I0
sg14
I0
sg10
I0
sg25
I0
sg24
I0
sg36
I0
sg21
I0
sg20
I0
sg26
I0
sg12
I0
sg101
I0
sg13
I0
sg9
I0
sg17
I0
sg8
I0
sg102
I0
sg18
I0
sg19
I0
sg15
I0
sg96
I0
sg16
I0
sg27
I0
sg97
I0
sg103
I0
sg22
I0
sg23
I0
ssg19
(dp125
g11
I0
sg82
I0
sg14
I0
sg10
I0
sg25
I0
sg24
I0
sg21
I0
sg20
I0
sg26
I0
sg12
I0
sg83
I0
sg13
I0
sg9
I0
sg17
I0
sg8
I0
sg18
I0
sg19
I3
sg15
I0
sg96
I0
sg16
I0
sg27
I0
sg97
I0
sg98
I0
sg22
I0
sg23
I0
ssg15
(dp126
g11
I0
sg29
I0
sg38
I0
sg14
I0
sg34
I0
sg33
I0
sg37
I0
sg10
I0
sg25
I0
sg24
I0
sg36
I0
sg21
I0
sg20
I0
sg26
I0
sg12
I0
sg28
I0
sg13
I0
sg9
I0
sg17
I0
sg8
I0
sg31
I0
sg18
I0
sg19
I0
sg15
I9
sg32
I0
sg39
I0
sg16
I11
sg27
I0
sg40
I0
sg30
I0
sg35
I0
sg22
I0
sg23
I0
ssg32
(dp127
g29
I0
sg32
I4
sg57
I0
sg85
I0
sg31
I0
sg55
I0
sg35
I0
sg51
I0
sg33
I0
sg86
I0
sg87
I0
sg88
I0
sg34
I0
sg30
I0
sg28
I0
sg89
I0
sg60
I0
sg90
I0
sg91
I0
ssg39
(dp128
g67
I0
sg38
I0
sg74
I0
sg75
I0
sg77
I0
sg37
I0
sg78
I0
sS'mustard.n.01'
p129
I0
sS'mustard.n.02'
p130
I0
sS'tomato.n.02'
p131
I0
sS'tomato.n.01'
p132
I0
sg76
I0
sg80
I0
sg68
I0
sS'olive.n.01'
p133
I0
sg70
I0
sS'olive.n.04'
p134
I0
sS'catsup.n.01'
p135
I0
sg79
I0
sg69
I0
sg39
I0
sS'slice.n.06'
p136
I0
sg40
I4
sg45
I0
sg72
I0
sS'onion.n.03'
p137
I0
ssg16
(dp138
g11
I0
sg100
I0
sg14
I0
sg112
I0
sg113
I0
sg10
I0
sg25
I0
sg24
I0
sg36
I0
sg21
I0
sg20
I0
sg26
I0
sg12
I0
sg101
I0
sg13
I0
sg9
I0
sg17
I0
sg8
I0
sg102
I0
sg18
I0
sg19
I0
sg15
I0
sg114
I0
sg96
I0
sg16
I0
sg27
I0
sg97
I0
sg103
I0
sg22
I0
sg23
I0
ssg27
(dp139
g11
I0
sg100
I0
sg14
I0
sg112
I0
sg113
I0
sg10
I0
sg25
I0
sg24
I0
sg36
I0
sg21
I0
sg20
I0
sg26
I0
sg12
I0
sg101
I0
sg13
I0
sg9
I0
sg17
I0
sg8
I0
sg102
I0
sg18
I0
sg19
I0
sg15
I0
sg114
I0
sg16
I0
sg27
I4
sg103
I0
sg22
I0
sg23
I0
ssg40
(dp140
g67
I0
sg38
I0
sg74
I0
sg75
I0
sg77
I0
sg37
I0
sg78
I0
sg129
I0
sg130
I0
sg131
I0
sg132
I0
sg76
I0
sg80
I0
sg68
I0
sg133
I0
sg70
I0
sg134
I0
sg135
I0
sg79
I0
sg69
I0
sg39
I0
sg136
I0
sg40
I0
sg45
I0
sg72
I0
sg137
I0
ssg30
(dp141
g67
I0
sg29
I0
sg38
I0
sg74
I0
sg34
I0
sg33
I0
sg37
I0
sg78
I0
sg129
I0
sg50
I0
sg36
I0
sg35
I0
sg51
I0
sg52
I0
sg76
I0
sg28
I0
sg80
I0
sg55
I0
sg56
I0
sg57
I0
sg31
I0
sg58
I0
sg135
I0
sg60
I0
sg32
I0
sg39
I0
sg61
I0
sg62
I0
sg40
I0
sg30
I8
sg63
I0
sg64
I0
sg65
I0
ssg35
(dp142
S'mushroom.n.05'
p143
I0
sg29
I0
sg32
I0
sg57
I0
sg31
I0
sg55
I0
sg35
I4
sg51
I0
sg33
I0
sg90
I0
sg34
I0
sg30
I0
sg28
I0
sg89
I0
sg60
I0
sg85
I0
sS'green_onion.n.01'
p144
I0
sg91
I0
ssg22
(dp145
g11
I0
sg100
I0
sg14
I0
sg10
I0
sg25
I0
sg24
I0
sg36
I0
sg21
I0
sg20
I0
sg26
I0
sg12
I0
sg101
I0
sg13
I0
sg9
I0
sg17
I0
sg8
I0
sg102
I0
sg18
I0
sg19
I0
sg15
I0
sg96
I0
sg16
I0
sg27
I0
sg97
I0
sg103
I0
sg22
I2
sg23
I2
ssg23
(dp146
g11
I0
sg100
I0
sg14
I0
sg10
I0
sg25
I0
sg24
I0
sg36
I0
sg21
I0
sg20
I0
sg26
I0
sg13
I0
sg101
I0
sg12
I0
sg9
I0
sg17
I0
sg8
I0
sg102
I0
sg18
I0
sg19
I0
sg15
I0
sg16
I0
sg27
I0
sg103
I0
sg22
I0
sg23
I0
sssb.