ccopy_reg
_reconstructor
p0
(cutils.eval
ConfusionMatrix
p1
c__builtin__
object
p2
Ntp3
Rp4
(dp5
S'labels'
p6
(lp7
S'slice.v.03'
p8
aS'egg.n.02'
p9
aS'piece.n.08'
p10
aS'tomato.n.01'
p11
aS'knife.n.01'
p12
aS'cabbage.n.01'
p13
aS'bread.n.01'
p14
aS'flesh.n.01'
p15
aS'pulp.n.02'
p16
aS'lemon.n.01'
p17
aS'green_onion.n.01'
p18
aS'mushroom.n.05'
p19
asS'instanceCount'
p20
I20
sS'matrix'
p21
(dp22
g19
(dp23
S'mushroom.n.05'
p24
I1
ssg8
(dp25
S'slice.v.03'
p26
I8
ssg13
(dp27
S'cabbage.n.01'
p28
I1
ssg15
(dp29
g16
I1
ssg9
(dp30
S'egg.n.02'
p31
I1
ssg11
(dp32
S'tomato.n.01'
p33
I1
ssg14
(dp34
S'bread.n.01'
p35
I1
ssg17
(dp36
S'lemon.n.01'
p37
I1
ssg12
(dp38
S'knife.n.01'
p39
I3
ssg10
(dp40
S'piece.n.08'
p41
I1
ssg18
(dp42
S'green_onion.n.01'
p43
I1
ssg16
(dp44
g16
I0
sssb.