ccopy_reg
_reconstructor
p0
(cutils.eval
ConfusionMatrix
p1
c__builtin__
object
p2
Ntp3
Rp4
(dp5
S'labels'
p6
(lp7
S'vegetable.n.01'
p8
aS'knife.n.01'
p9
aS'slice.v.03'
p10
aS'zucchini.n.01'
p11
aS'zucchini.n.02'
p12
aS'egg.n.02'
p13
aS'piece.n.08'
p14
aS'tomato.n.01'
p15
aS'cabbage.n.01'
p16
aS'bread.n.01'
p17
aS'flesh.n.01'
p18
aS'pulp.n.02'
p19
aS'lemon.n.01'
p20
asS'instanceCount'
p21
I20
sS'matrix'
p22
(dp23
g10
(dp24
S'slice.v.03'
p25
I8
ssg8
(dp26
S'vegetable.n.01'
p27
I1
ssg9
(dp28
S'knife.n.01'
p29
I3
ssg18
(dp30
g19
I1
ssg13
(dp31
S'egg.n.02'
p32
I1
ssg15
(dp33
S'tomato.n.01'
p34
I1
ssg17
(dp35
S'bread.n.01'
p36
I1
ssg12
(dp37
g12
I0
ssg20
(dp38
S'lemon.n.01'
p39
I1
ssg11
(dp40
g12
I1
ssg16
(dp41
S'cabbage.n.01'
p42
I1
ssg14
(dp43
S'piece.n.08'
p44
I1
ssg19
(dp45
g19
I0
sssb.