ccopy_reg
_reconstructor
p0
(cutils.eval
ConfusionMatrix
p1
c__builtin__
object
p2
Ntp3
Rp4
(dp5
S'labels'
p6
(lp7
S'slice.v.03'
p8
aS'bacon.n.01'
p9
aS'piece.n.08'
p10
aS'slice.n.06'
p11
aS'pizza.n.01'
p12
aS'potato.n.01'
p13
aS'cheese.n.01'
p14
aS'lemon.n.01'
p15
aS'knife.n.01'
p16
aS'banana.n.02'
p17
aS'vegetable.n.01'
p18
aS'zucchini.n.01'
p19
aS'zucchini.n.02'
p20
asS'instanceCount'
p21
I20
sS'matrix'
p22
(dp23
g8
(dp24
S'slice.v.03'
p25
I8
ssg18
(dp26
S'vegetable.n.01'
p27
I1
ssg16
(dp28
S'knife.n.01'
p29
I2
ssg17
(dp30
S'banana.n.02'
p31
I1
ssg14
(dp32
S'cheese.n.01'
p33
I1
ssg19
(dp34
g20
I1
ssg11
(dp35
g11
I0
ssg9
(dp36
S'bacon.n.01'
p37
I1
ssg12
(dp38
S'pizza.n.01'
p39
I1
ssg20
(dp40
g20
I0
ssg15
(dp41
S'lemon.n.01'
p42
I1
ssg13
(dp43
S'potato.n.01'
p44
I1
ssg10
(dp45
g11
I2
sssb.