ccopy_reg
_reconstructor
p0
(cutils.eval
ConfusionMatrix
p1
c__builtin__
object
p2
Ntp3
Rp4
(dp5
S'labels'
p6
(lp7
S'add.v.01'
p8
aS'lend.v.01'
p9
aS'milk.n.01'
p10
aS'milk.n.03'
p11
aS'water.n.06'
p12
aS'water.n.03'
p13
aS'mixing_bowl.n.01'
p14
aS'butter.n.01'
p15
aS'sugar.n.01'
p16
aS'carbohydrate.n.01'
p17
aS'dressing.n.01'
p18
aS'fertilization.n.02'
p19
aS'salad.n.01'
p20
aS'ingredient.n.03'
p21
aS'ingredient.n.01'
p22
aS'concoction.n.01'
p23
aS'assortment.n.01'
p24
aS'cream.n.02'
p25
aS'asparagus.n.02'
p26
aS'add.v.06'
p27
aS'rib.n.03'
p28
aS'pan.n.03'
p29
aS'vanilla.n.02'
p30
aS'vanilla.n.01'
p31
aS'salt.n.02'
p32
aS'meat.n.01'
p33
aS'kernel.n.03'
p34
aS'pot.n.01'
p35
aS'toilet.n.02'
p36
aS'bean.n.01'
p37
aS'attic.n.03'
p38
aS'flour.n.01'
p39
aS'egg.n.02'
p40
aS'testis.n.01'
p41
aS'apple.n.01'
p42
aS'onion.n.03'
p43
aS'onion.n.01'
p44
aS'total.v.02'
p45
aS'corn.n.03'
p46
aS'corn.n.01'
p47
aS'dish.n.02'
p48
aS'cup_of_tea.n.01'
p49
aS'vegetable.n.01'
p50
aS'vegetable.n.02'
p51
aS'sauce.n.01'
p52
aS'pan.n.01'
p53
aS'french_fries.n.01'
p54
aS'steak.n.01'
p55
aS'butter.n.02'
p56
asS'instanceCount'
p57
I522
sS'matrix'
p58
(dp59
g47
(dp60
g47
I0
sg36
I0
sg34
I0
sg19
I0
sg41
I0
sg14
I0
sg46
I0
sg17
I0
sg48
I0
sg42
I0
sg27
I0
sg8
I0
sg10
I0
sg11
I0
sg53
I0
sg29
I0
sg39
I0
sg40
I0
sg15
I0
sg35
I0
sg26
I0
sg31
I0
sg33
I0
sg30
I0
sg37
I0
sg23
I0
sg52
I0
sg32
I0
sg28
I0
sg24
I0
sg25
I0
sg21
I0
sg22
I0
sg38
I0
sg55
I0
sg51
I0
sg50
I0
sg49
I0
sg13
I0
sg44
I0
sg12
I0
sg18
I0
sg56
I0
sg54
I0
sg9
I0
sg45
I0
sg20
I0
sg43
I0
sg16
I0
ssg36
(dp61
g47
I0
sg36
I0
sg34
I0
sg19
I0
sg41
I0
sg14
I0
sg46
I0
sg17
I0
sg48
I0
sg42
I0
sg27
I0
sg8
I0
sg10
I0
sg11
I0
sg53
I0
sg29
I0
sg39
I0
sg40
I0
sg15
I0
sg35
I0
sg26
I0
sg31
I0
sg33
I0
sg30
I0
sg37
I0
sg23
I0
sg52
I0
sg32
I0
sg28
I0
sg24
I0
sg25
I0
sg21
I0
sg22
I0
sg38
I0
sg55
I0
sg51
I0
sg50
I0
sg49
I0
sg13
I0
sg44
I0
sg12
I0
sg18
I0
sg56
I0
sg54
I0
sg9
I0
sg45
I0
sg20
I0
sg43
I0
sg16
I0
ssg34
(dp62
g47
I0
sg36
I0
sg34
I0
sg19
I0
sg41
I0
sg14
I0
sg46
I0
sg17
I0
sg48
I0
sg42
I0
sg27
I0
sg8
I0
sg10
I0
sg11
I0
sg53
I0
sg29
I0
sg39
I0
sg40
I0
sg15
I0
sg35
I0
sg26
I0
sg31
I0
sg33
I0
sg30
I0
sg37
I0
sg23
I0
sg52
I0
sg32
I0
sg28
I0
sg24
I0
sg25
I0
sg21
I0
sg22
I0
sg38
I0
sg55
I0
sg51
I0
sg50
I0
sg49
I0
sg13
I0
sg44
I0
sg12
I0
sg18
I0
sg56
I0
sg54
I0
sg9
I0
sg45
I0
sg20
I0
sg43
I0
sg16
I0
ssg19
(dp63
g47
I0
sg36
I0
sg34
I0
sg19
I0
sg41
I0
sg14
I0
sg46
I0
sg17
I0
sg48
I0
sg42
I0
sg27
I0
sg8
I0
sg10
I0
sg11
I0
sg53
I0
sg29
I0
sg39
I0
sg40
I0
sg15
I0
sg35
I0
sg26
I0
sg31
I0
sg33
I0
sg30
I0
sg37
I0
sg23
I0
sg52
I0
sg32
I0
sg28
I0
sg24
I0
sg25
I0
sg21
I0
sg22
I0
sg38
I0
sg55
I0
sg51
I0
sg50
I0
sg49
I0
sg13
I0
sg44
I0
sg12
I0
sg18
I0
sg56
I0
sg54
I0
sg9
I0
sg45
I0
sg20
I0
sg43
I0
sg16
I0
ssg41
(dp64
g47
I0
sg36
I0
sg34
I0
sg19
I0
sg35
I0
sg14
I0
sg46
I0
sg17
I0
sg48
I0
sg42
I0
sg27
I0
sg8
I0
sg10
I0
sg11
I0
sg53
I0
sg29
I0
sg39
I0
sg40
I0
sg15
I0
sg41
I0
sg26
I0
sg31
I0
sg33
I0
sg30
I0
sg37
I0
sg23
I0
sg52
I0
sg32
I0
sg28
I0
sg24
I0
sg25
I0
sg21
I0
sg22
I0
sg38
I0
sg55
I0
sg51
I0
sg50
I0
sg49
I0
sg13
I0
sg44
I0
sg12
I0
sg18
I0
sg56
I0
sg54
I0
sg9
I0
sg45
I0
sg20
I0
sg43
I0
sg16
I0
ssg14
(dp65
g47
I0
sg36
I0
sg34
I0
sg19
I0
sg41
I0
sg14
I18
sg46
I0
sg17
I0
sg48
I0
sg42
I0
sg27
I0
sg8
I0
sg10
I0
sg11
I0
sg53
I0
sg29
I0
sg39
I0
sg40
I0
sg15
I0
sg35
I0
sg26
I0
sg31
I0
sg33
I0
sg30
I0
sg37
I0
sg23
I0
sg52
I0
sg32
I0
sg28
I0
sg24
I0
sg25
I0
sg21
I0
sg22
I0
sg38
I0
sg55
I0
sg51
I0
sg50
I0
sg49
I0
sg13
I0
sg44
I0
sg12
I0
sg18
I0
sg56
I0
sg54
I0
sg9
I0
sg45
I0
sg20
I0
sg43
I0
sg16
I0
ssg46
(dp66
g47
I9
sg46
I0
sg34
I0
sg19
I0
sg41
I0
sg14
I0
sg36
I0
sg17
I0
sg48
I0
sg42
I0
sg27
I0
sg8
I0
sg10
I0
sg11
I0
sg53
I0
sg29
I0
sg39
I0
sg40
I0
sg15
I0
sg35
I0
sg26
I0
sg31
I0
sg33
I0
sg30
I0
sg37
I0
sg23
I0
sg52
I0
sg32
I0
sg28
I0
sg24
I0
sg25
I0
sg21
I0
sg22
I0
sg38
I0
sg55
I0
sg51
I0
sg50
I0
sg49
I0
sg13
I0
sg44
I0
sg12
I0
sg18
I0
sg56
I0
sg54
I0
sg9
I0
sg45
I0
sg20
I0
sg43
I0
sg16
I0
ssg17
(dp67
g47
I0
sg36
I0
sg34
I0
sg19
I0
sg41
I0
sg14
I0
sg46
I0
sg17
I0
sg48
I0
sg42
I0
sg27
I0
sg8
I0
sg10
I0
sg11
I0
sS'pan.n.01'
p68
I0
sg29
I0
sg39
I0
sg40
I0
sg15
I0
sg35
I0
sg26
I0
sg31
I0
sg33
I0
sg30
I0
sg37
I0
sg23
I0
sg52
I0
sg32
I0
sg28
I0
sg24
I0
sg25
I0
sg21
I0
sg22
I0
sg38
I0
sS'steak.n.01'
p69
I0
sg51
I0
sg50
I0
sg49
I0
sg13
I0
sg44
I0
sg12
I0
sg18
I0
sg56
I0
sS'french_fries.n.01'
p70
I0
sg9
I0
sg45
I0
sg20
I0
sg43
I0
sg16
I0
ssg48
(dp71
g47
I0
sg36
I0
sg34
I0
sg19
I0
sg41
I0
sg14
I0
sg46
I0
sg17
I0
sg48
I0
sg42
I0
sg27
I0
sg8
I0
sg10
I0
sg11
I0
sg53
I0
sg29
I0
sg39
I0
sg40
I0
sg15
I0
sg35
I0
sg26
I0
sg31
I0
sg33
I0
sg30
I0
sg37
I0
sg23
I0
sg52
I0
sg32
I0
sg28
I0
sg24
I0
sg25
I0
sg21
I0
sg22
I0
sg38
I0
sg55
I0
sg51
I0
sg50
I0
sg49
I9
sg13
I0
sg44
I0
sg12
I0
sg18
I0
sg56
I0
sg54
I0
sg9
I0
sg45
I0
sg20
I0
sg43
I0
sg16
I0
ssg42
(dp72
g47
I0
sg36
I0
sg34
I0
sg19
I0
sg41
I0
sg14
I0
sg46
I0
sg17
I0
sg48
I0
sg42
I9
sg27
I0
sg8
I0
sg10
I0
sg11
I0
sg53
I0
sg29
I0
sg39
I0
sg40
I0
sg15
I0
sg35
I0
sg26
I0
sg31
I0
sg33
I0
sg30
I0
sg37
I0
sg23
I0
sg52
I0
sg32
I0
sg28
I0
sg24
I0
sg25
I0
sg21
I0
sg22
I0
sg38
I0
sg55
I0
sg51
I0
sg50
I0
sg49
I0
sg13
I0
sg44
I0
sg12
I0
sg18
I0
sg56
I0
sg54
I0
sg9
I0
sg45
I0
sg20
I0
sg43
I0
sg16
I0
ssg27
(dp73
g47
I0
sg36
I0
sg34
I0
sg19
I0
sg41
I0
sg14
I0
sg46
I0
sg17
I0
sg48
I0
sg42
I0
sg27
I0
sg8
I0
sg10
I0
sg11
I0
sg53
I0
sg29
I0
sg39
I0
sg40
I0
sg15
I0
sg35
I0
sg26
I0
sg31
I0
sg33
I0
sg30
I0
sg37
I0
sg23
I0
sg52
I0
sg32
I0
sg28
I0
sg24
I0
sg25
I0
sg21
I0
sg22
I0
sg38
I0
sg55
I0
sg51
I0
sg50
I0
sg49
I0
sg13
I0
sg44
I0
sg12
I0
sg18
I0
sg56
I0
sg54
I0
sg9
I0
sg45
I0
sg20
I0
sg43
I0
sg16
I0
ssg8
(dp74
g47
I0
sg36
I0
sg34
I0
sg19
I0
sg41
I0
sg14
I0
sg46
I0
sg17
I0
sg48
I0
sg42
I0
sg27
I47
sg8
I20
sg10
I0
sg11
I0
sg53
I0
sg29
I0
sg39
I0
sg40
I0
sg15
I0
sg35
I0
sg26
I0
sg31
I0
sg33
I0
sg30
I0
sg37
I0
sg23
I0
sg52
I0
sg32
I0
sg28
I0
sg24
I0
sg25
I0
sg21
I0
sg22
I0
sg38
I0
sg55
I0
sg51
I0
sg50
I0
sg49
I0
sg13
I0
sg44
I0
sg12
I0
sg18
I0
sg56
I0
sg54
I0
sg9
I104
sg45
I9
sg20
I0
sg43
I0
sg16
I0
ssg10
(dp75
g47
I0
sg36
I0
sg34
I0
sg19
I0
sg41
I0
sg14
I0
sg46
I0
sg17
I0
sg48
I0
sg42
I0
sg27
I0
sg8
I0
sg10
I0
sg11
I9
sg68
I0
sg29
I0
sg39
I0
sg40
I0
sg15
I0
sg35
I0
sg26
I0
sg31
I0
sg33
I0
sg30
I0
sg37
I0
sg23
I0
sg52
I0
sg32
I0
sg28
I0
sg24
I0
sg25
I0
sg21
I0
sg22
I0
sg38
I0
sg69
I0
sg51
I0
sg50
I0
sg49
I0
sg13
I0
sg44
I0
sg12
I0
sg18
I0
sg56
I0
sg70
I0
sg9
I0
sg45
I0
sg20
I0
sg43
I0
sg16
I0
ssg11
(dp76
g47
I0
sg36
I0
sg34
I0
sg19
I0
sg41
I0
sg14
I0
sg46
I0
sg17
I0
sg48
I0
sg42
I0
sg27
I0
sg8
I0
sg10
I0
sg11
I0
sg68
I0
sg29
I0
sg39
I0
sg40
I0
sg15
I0
sg35
I0
sg26
I0
sg31
I0
sg33
I0
sg30
I0
sg37
I0
sg23
I0
sg52
I0
sg32
I0
sg28
I0
sg24
I0
sg25
I0
sg21
I0
sg22
I0
sg38
I0
sg69
I0
sg51
I0
sg50
I0
sg49
I0
sg13
I0
sg44
I0
sg12
I0
sg18
I0
sg56
I0
sg70
I0
sg9
I0
sg45
I0
sg20
I0
sg43
I0
sg16
I0
ssg53
(dp77
S'corn.n.01'
p78
I0
sS'toilet.n.02'
p79
I0
sS'kernel.n.03'
p80
I0
sS'fertilization.n.02'
p81
I0
sS'testis.n.01'
p82
I0
sS'assortment.n.01'
p83
I0
sS'corn.n.03'
p84
I0
sS'carbohydrate.n.01'
p85
I0
sS'dish.n.02'
p86
I0
sS'apple.n.01'
p87
I0
sS'add.v.06'
p88
I0
sS'add.v.01'
p89
I0
sS'milk.n.01'
p90
I0
sS'milk.n.03'
p91
I0
sg53
I0
sS'pan.n.03'
p92
I0
sS'flour.n.01'
p93
I0
sS'egg.n.02'
p94
I0
sS'butter.n.01'
p95
I0
sS'pot.n.01'
p96
I0
sS'asparagus.n.02'
p97
I0
sS'vanilla.n.01'
p98
I0
sS'meat.n.01'
p99
I0
sS'vanilla.n.02'
p100
I0
sS'bean.n.01'
p101
I0
sS'concoction.n.01'
p102
I0
sS'sauce.n.01'
p103
I0
sS'salt.n.02'
p104
I0
sS'rib.n.03'
p105
I0
sS'mixing_bowl.n.01'
p106
I0
sS'cream.n.02'
p107
I0
sS'ingredient.n.03'
p108
I0
sS'ingredient.n.01'
p109
I0
sS'attic.n.03'
p110
I0
sg55
I0
sS'vegetable.n.02'
p111
I0
sS'vegetable.n.01'
p112
I0
sS'cup_of_tea.n.01'
p113
I0
sS'water.n.03'
p114
I0
sS'onion.n.01'
p115
I0
sS'water.n.06'
p116
I0
sS'dressing.n.01'
p117
I0
sg56
I0
sg54
I0
sS'lend.v.01'
p118
I0
sS'total.v.02'
p119
I0
sS'salad.n.01'
p120
I0
sS'onion.n.03'
p121
I0
sS'sugar.n.01'
p122
I0
ssg29
(dp123
g47
I0
sg36
I0
sg34
I0
sg19
I0
sg41
I0
sg14
I0
sg46
I0
sg17
I0
sg48
I0
sg42
I0
sg27
I0
sg8
I0
sg10
I0
sg11
I0
sg53
I21
sg29
I6
sg39
I0
sg40
I0
sg15
I0
sg35
I0
sg26
I0
sg31
I0
sg33
I0
sg30
I0
sg37
I0
sg23
I0
sg52
I0
sg32
I0
sg28
I0
sg24
I0
sg25
I0
sg21
I0
sg22
I0
sg38
I0
sg55
I0
sg51
I0
sg50
I0
sg49
I0
sg13
I0
sg44
I0
sg12
I0
sg18
I0
sg56
I0
sg54
I0
sg9
I0
sg45
I0
sg20
I0
sg43
I0
sg16
I0
ssg39
(dp124
g47
I0
sg36
I0
sg34
I0
sg19
I0
sg41
I0
sg14
I0
sg46
I0
sg17
I0
sg48
I0
sg42
I0
sg27
I0
sg8
I0
sg10
I0
sg11
I0
sg53
I0
sg29
I0
sg39
I9
sg40
I0
sg15
I0
sg35
I0
sg26
I0
sg31
I0
sg33
I0
sg30
I0
sg37
I0
sg23
I0
sg52
I0
sg32
I0
sg28
I0
sg24
I0
sg25
I0
sg21
I0
sg22
I0
sg38
I0
sg55
I0
sg51
I0
sg50
I0
sg49
I0
sg13
I0
sg44
I0
sg12
I0
sg18
I0
sg56
I0
sg54
I0
sg9
I0
sg45
I0
sg20
I0
sg43
I0
sg16
I0
ssg40
(dp125
g47
I0
sg36
I0
sg34
I0
sg19
I0
sg41
I8
sg14
I0
sg46
I0
sg17
I0
sg48
I0
sg42
I0
sg27
I0
sg8
I0
sg10
I0
sg11
I0
sg53
I0
sg29
I0
sg39
I0
sg40
I10
sg15
I0
sg35
I0
sg26
I0
sg31
I0
sg33
I0
sg30
I0
sg37
I0
sg23
I0
sg52
I0
sg32
I0
sg28
I0
sg24
I0
sg25
I0
sg21
I0
sg22
I0
sg38
I0
sg55
I0
sg51
I0
sg50
I0
sg49
I0
sg13
I0
sg44
I0
sg12
I0
sg18
I0
sg56
I0
sg54
I0
sg9
I0
sg45
I0
sg20
I0
sg43
I0
sg16
I0
ssg15
(dp126
g47
I0
sg36
I0
sg34
I0
sg19
I0
sg41
I0
sg14
I0
sg46
I0
sg17
I0
sg48
I0
sg42
I0
sg27
I0
sg8
I0
sg10
I0
sg11
I0
sg53
I0
sg29
I0
sg39
I0
sg40
I0
sg15
I6
sg35
I0
sg26
I0
sg31
I0
sg33
I0
sg30
I0
sg37
I0
sg23
I0
sg52
I0
sg32
I0
sg28
I0
sg24
I0
sg25
I0
sg21
I0
sg22
I0
sg38
I0
sg55
I0
sg51
I0
sg50
I0
sg49
I0
sg13
I0
sg44
I0
sg12
I0
sg18
I0
sg56
I21
sg54
I0
sg9
I0
sg45
I0
sg20
I0
sg43
I0
sg16
I0
ssg35
(dp127
g47
I0
sg36
I9
sg34
I0
sg19
I0
sg41
I0
sg14
I0
sg46
I0
sg17
I0
sg48
I0
sg42
I0
sg27
I0
sg8
I0
sg10
I0
sg11
I0
sg53
I0
sg29
I0
sg39
I0
sg40
I0
sg15
I0
sg35
I0
sg26
I0
sg31
I0
sg33
I0
sg30
I0
sg37
I0
sg23
I0
sg52
I0
sg32
I0
sg28
I0
sg24
I0
sg25
I0
sg21
I0
sg22
I0
sg38
I0
sg55
I0
sg51
I0
sg50
I0
sg49
I0
sg13
I0
sg44
I0
sg12
I0
sg18
I0
sg56
I0
sg54
I0
sg9
I0
sg45
I0
sg20
I0
sg43
I0
sg16
I0
ssg26
(dp128
g47
I0
sg36
I0
sg34
I0
sg19
I0
sg41
I0
sg14
I0
sg46
I0
sg17
I0
sg48
I0
sg42
I0
sg27
I0
sg8
I0
sg10
I0
sg11
I0
sg53
I0
sg29
I0
sg39
I0
sg40
I0
sg15
I0
sg35
I0
sg26
I9
sg31
I0
sg33
I0
sg30
I0
sg37
I0
sg23
I0
sg52
I0
sg32
I0
sg28
I0
sg24
I0
sg25
I0
sg21
I0
sg22
I0
sg38
I0
sg55
I0
sg51
I0
sg50
I0
sg49
I0
sg13
I0
sg44
I0
sg12
I0
sg18
I0
sg56
I0
sg54
I0
sg9
I0
sg45
I0
sg20
I0
sg43
I0
sg16
I0
ssg31
(dp129
g47
I0
sg36
I0
sg34
I0
sg19
I0
sg41
I0
sg14
I0
sg46
I0
sg17
I0
sg48
I0
sg42
I0
sg27
I0
sg8
I0
sg10
I0
sg11
I0
sg53
I0
sg29
I0
sg39
I0
sg40
I0
sg15
I0
sg35
I0
sg26
I0
sg31
I0
sg33
I0
sg30
I0
sg37
I0
sg23
I0
sg52
I0
sg32
I0
sg28
I0
sg24
I0
sg25
I0
sg21
I0
sg22
I0
sg38
I0
sg55
I0
sg51
I0
sg50
I0
sg49
I0
sg13
I0
sg44
I0
sg12
I0
sg18
I0
sg56
I0
sg54
I0
sg9
I0
sg45
I0
sg20
I0
sg43
I0
sg16
I0
ssg33
(dp130
g47
I0
sg36
I0
sg34
I9
sg19
I0
sg41
I0
sg14
I0
sg46
I0
sg17
I0
sg48
I0
sg42
I0
sg27
I0
sg8
I0
sg10
I0
sg11
I0
sg53
I0
sg29
I0
sg39
I0
sg40
I0
sg15
I0
sg35
I0
sg26
I0
sg31
I0
sg33
I0
sg30
I0
sg37
I0
sg23
I0
sg52
I0
sg32
I0
sg28
I0
sg24
I0
sg25
I0
sg21
I0
sg22
I0
sg38
I0
sg55
I0
sg51
I0
sg50
I0
sg49
I0
sg13
I0
sg44
I0
sg12
I0
sg18
I0
sg56
I0
sg54
I0
sg9
I0
sg45
I0
sg20
I0
sg43
I0
sg16
I0
ssg30
(dp131
g47
I0
sg36
I0
sg34
I0
sg19
I0
sg41
I0
sg14
I0
sg46
I0
sg17
I0
sg48
I0
sg42
I0
sg27
I0
sg8
I0
sg10
I0
sg11
I0
sg53
I0
sg29
I0
sg39
I0
sg40
I0
sg15
I0
sg35
I0
sg26
I0
sg31
I16
sg33
I0
sg30
I2
sg37
I0
sg23
I0
sg52
I0
sg32
I0
sg28
I0
sg24
I0
sg25
I0
sg21
I0
sg22
I0
sg38
I0
sg55
I0
sg51
I0
sg50
I0
sg49
I0
sg13
I0
sg44
I0
sg12
I0
sg18
I0
sg56
I0
sg54
I0
sg9
I0
sg45
I0
sg20
I0
sg43
I0
sg16
I0
ssg37
(dp132
g47
I0
sg36
I0
sg34
I0
sg19
I0
sg41
I0
sg14
I0
sg46
I0
sg17
I0
sg48
I0
sg42
I0
sg27
I0
sg8
I0
sg10
I0
sg11
I0
sg53
I0
sg29
I0
sg39
I0
sg40
I0
sg15
I0
sg35
I0
sg26
I0
sg31
I0
sg33
I0
sg30
I0
sg37
I0
sg23
I0
sg52
I0
sg32
I0
sg28
I0
sg24
I0
sg25
I0
sg21
I0
sg22
I0
sg38
I9
sg55
I0
sg51
I0
sg50
I0
sg49
I0
sg13
I0
sg44
I0
sg12
I0
sg18
I0
sg56
I0
sg54
I0
sg9
I0
sg45
I0
sg20
I0
sg43
I0
sg16
I0
ssg23
(dp133
g47
I0
sg36
I0
sg34
I0
sg19
I0
sg41
I0
sg14
I0
sg46
I0
sg17
I0
sg48
I0
sg42
I0
sg27
I0
sg8
I0
sg10
I0
sg11
I0
sg53
I0
sg29
I0
sg39
I0
sg40
I0
sg15
I0
sg35
I0
sg26
I0
sg31
I0
sg33
I0
sg30
I0
sg37
I0
sg23
I0
sg52
I0
sg32
I0
sg28
I0
sg24
I9
sg25
I0
sg21
I0
sg22
I0
sg38
I0
sg55
I0
sg51
I0
sg50
I0
sg49
I0
sg13
I0
sg44
I0
sg12
I0
sg18
I0
sg56
I0
sg54
I0
sg9
I0
sg45
I0
sg20
I0
sg43
I0
sg16
I0
ssg52
(dp134
g47
I0
sg36
I0
sg34
I0
sg19
I0
sg41
I0
sg14
I0
sg46
I0
sg17
I0
sg48
I0
sg42
I0
sg27
I0
sg8
I0
sg10
I0
sg11
I0
sg53
I0
sg29
I0
sg39
I0
sg40
I0
sg15
I0
sg35
I0
sg26
I0
sg31
I0
sg33
I0
sg30
I0
sg37
I0
sg23
I0
sg52
I9
sg32
I0
sg28
I0
sg24
I0
sg25
I0
sg21
I0
sg22
I0
sg38
I0
sg55
I0
sg51
I0
sg50
I0
sg49
I0
sg13
I0
sg44
I0
sg12
I0
sg18
I0
sS'butter.n.02'
p135
I0
sg54
I0
sg9
I0
sg45
I0
sg20
I0
sg43
I0
sg16
I0
ssg32
(dp136
g47
I0
sg36
I0
sg34
I0
sg19
I0
sg41
I0
sg14
I0
sg46
I0
sg17
I0
sg48
I0
sg42
I0
sg27
I0
sg8
I0
sg10
I0
sg11
I0
sg53
I0
sg29
I0
sg39
I0
sg40
I0
sg15
I0
sg35
I0
sg26
I0
sg31
I0
sg33
I0
sg30
I0
sg37
I0
sg23
I0
sg52
I0
sg32
I9
sg28
I0
sg24
I0
sg25
I0
sg21
I0
sg22
I0
sg38
I0
sg55
I0
sg51
I0
sg50
I0
sg49
I0
sg13
I0
sg44
I0
sg12
I0
sg18
I0
sg56
I0
sg54
I0
sg9
I0
sg45
I0
sg20
I0
sg43
I0
sg16
I0
ssg28
(dp137
g47
I0
sg36
I0
sg34
I0
sg19
I0
sg41
I0
sg14
I0
sg46
I0
sg17
I0
sg48
I0
sg42
I0
sg27
I0
sg8
I0
sg10
I0
sg11
I0
sg53
I0
sg29
I0
sg39
I0
sg40
I0
sg15
I0
sg35
I0
sg26
I0
sg31
I0
sg33
I0
sg30
I0
sg37
I0
sg23
I0
sg52
I0
sg32
I0
sg28
I9
sg24
I0
sg25
I0
sg21
I0
sg22
I0
sg38
I0
sg55
I0
sg51
I0
sg50
I0
sg49
I0
sg13
I0
sg44
I0
sg12
I0
sg18
I0
sg56
I0
sg54
I0
sg9
I0
sg45
I0
sg20
I0
sg43
I0
sg16
I0
ssg24
(dp138
g47
I0
sg36
I0
sg34
I0
sg19
I0
sg41
I0
sg14
I0
sg46
I0
sg17
I0
sg48
I0
sg42
I0
sg27
I0
sg8
I0
sg10
I0
sg11
I0
sg53
I0
sg29
I0
sg39
I0
sg40
I0
sg15
I0
sg35
I0
sg26
I0
sg31
I0
sg33
I0
sg30
I0
sg37
I0
sg23
I0
sg52
I0
sg32
I0
sg28
I0
sg24
I0
sg25
I0
sg21
I0
sg22
I0
sg38
I0
sg55
I0
sg51
I0
sg50
I0
sg49
I0
sg13
I0
sg44
I0
sg12
I0
sg18
I0
sg56
I0
sg54
I0
sg9
I0
sg45
I0
sg20
I0
sg43
I0
sg16
I0
ssg25
(dp139
g47
I0
sg36
I0
sg34
I0
sg19
I0
sg41
I0
sg14
I0
sg46
I0
sg17
I0
sg48
I0
sg42
I0
sg27
I0
sg8
I0
sg10
I0
sg11
I0
sg53
I0
sg29
I0
sg39
I0
sg40
I0
sg15
I0
sg35
I0
sg26
I0
sg31
I0
sg33
I0
sg30
I0
sg37
I0
sg23
I0
sg52
I0
sg32
I0
sg28
I0
sg24
I0
sg25
I18
sg21
I0
sg22
I0
sg38
I0
sg55
I0
sg51
I0
sg50
I0
sg49
I0
sg13
I0
sg44
I0
sg12
I0
sg18
I0
sg56
I0
sg54
I0
sg9
I0
sg45
I0
sg20
I0
sg43
I0
sg16
I0
ssg21
(dp140
g47
I0
sg36
I0
sg34
I0
sg19
I0
sg41
I0
sg14
I0
sg46
I0
sg17
I0
sg48
I0
sg42
I0
sg27
I0
sg8
I0
sg10
I0
sg11
I0
sg53
I0
sg29
I0
sg39
I0
sg40
I0
sg15
I0
sg35
I0
sg26
I0
sg31
I0
sg33
I0
sg30
I0
sg37
I0
sg23
I0
sg52
I0
sg32
I0
sg28
I0
sg24
I0
sg25
I0
sg21
I10
sg22
I8
sg38
I0
sg55
I0
sg51
I0
sg50
I0
sg49
I0
sg13
I0
sg44
I0
sg12
I0
sg18
I0
sg56
I0
sg54
I0
sg9
I0
sg45
I0
sg20
I0
sg43
I0
sg16
I0
ssg22
(dp141
g47
I0
sg36
I0
sg34
I0
sg19
I0
sg41
I0
sg14
I0
sg46
I0
sg17
I0
sg48
I0
sg42
I0
sg27
I0
sg8
I0
sg10
I0
sg11
I0
sg53
I0
sg29
I0
sg39
I0
sg40
I0
sg15
I0
sg35
I0
sg26
I0
sg31
I0
sg33
I0
sg30
I0
sg37
I0
sg23
I0
sg52
I0
sg32
I0
sg28
I0
sg24
I0
sg25
I0
sg21
I0
sg22
I0
sg38
I0
sg55
I0
sg51
I0
sg50
I0
sg49
I0
sg13
I0
sg44
I0
sg12
I0
sg18
I0
sg56
I0
sg54
I0
sg9
I0
sg45
I0
sg20
I0
sg43
I0
sg16
I0
ssg38
(dp142
g47
I0
sg36
I0
sg34
I0
sg19
I0
sg41
I0
sg14
I0
sg46
I0
sg17
I0
sg48
I0
sg42
I0
sg27
I0
sg8
I0
sg10
I0
sg11
I0
sg53
I0
sg29
I0
sg39
I0
sg40
I0
sg15
I0
sg35
I0
sg26
I0
sg31
I0
sg33
I0
sg30
I0
sg37
I0
sg23
I0
sg52
I0
sg32
I0
sg28
I0
sg24
I0
sg25
I0
sg21
I0
sg22
I0
sg38
I0
sg55
I0
sg51
I0
sg50
I0
sg49
I0
sg13
I0
sg44
I0
sg12
I0
sg18
I0
sg56
I0
sg54
I0
sg9
I0
sg45
I0
sg20
I0
sg43
I0
sg16
I0
ssg55
(dp143
g78
I0
sg79
I0
sg80
I0
sg81
I0
sg82
I0
sg83
I0
sg84
I0
sS'carbohydrate.n.01'
p144
I0
sg86
I0
sg87
I0
sg88
I0
sg89
I0
sS'milk.n.01'
p145
I0
sS'milk.n.03'
p146
I0
sg53
I0
sg92
I0
sg93
I0
sg94
I0
sg95
I0
sg96
I0
sg97
I0
sg98
I0
sg99
I0
sg100
I0
sg101
I0
sg102
I0
sg103
I0
sg104
I0
sg105
I0
sg106
I0
sg107
I0
sg108
I0
sg109
I0
sg110
I0
sg55
I9
sg111
I0
sg112
I0
sg113
I0
sS'water.n.03'
p147
I0
sg115
I0
sS'water.n.06'
p148
I0
sg117
I0
sg56
I0
sg54
I0
sg118
I0
sg119
I0
sg120
I0
sg121
I0
sS'sugar.n.01'
p149
I0
ssg51
(dp150
g47
I0
sg36
I0
sg34
I0
sg19
I0
sg41
I0
sg14
I0
sg46
I0
sg17
I0
sg48
I0
sg42
I0
sg27
I0
sg8
I0
sg10
I0
sg11
I0
sg53
I0
sg29
I0
sg39
I0
sg40
I0
sg15
I0
sg35
I0
sg26
I0
sg31
I0
sg33
I0
sg30
I0
sg37
I0
sg23
I0
sg52
I0
sg32
I0
sg28
I0
sg24
I0
sg25
I0
sg21
I0
sg22
I0
sg38
I0
sg55
I0
sg51
I0
sg50
I0
sg49
I0
sg13
I0
sg44
I0
sg12
I0
sg18
I0
sg135
I0
sg54
I0
sg9
I0
sg45
I0
sg20
I0
sg43
I0
sg16
I0
ssg50
(dp151
g47
I0
sg36
I0
sg34
I0
sg19
I0
sg41
I0
sg14
I0
sg46
I0
sg17
I0
sg48
I0
sg42
I0
sg27
I0
sg8
I0
sg10
I0
sg11
I0
sg53
I0
sg29
I0
sg39
I0
sg40
I0
sg15
I0
sg35
I0
sg26
I0
sg31
I0
sg33
I0
sg30
I0
sg37
I0
sg23
I0
sg52
I0
sg32
I0
sg28
I0
sg24
I0
sg25
I0
sg21
I0
sg22
I0
sg38
I0
sg55
I0
sg51
I9
sg50
I0
sg49
I0
sg13
I0
sg44
I0
sg12
I0
sg18
I0
sg135
I0
sg54
I0
sg9
I0
sg45
I0
sg20
I0
sg43
I0
sg16
I0
ssg49
(dp152
g47
I0
sg36
I0
sg34
I0
sg19
I0
sg41
I0
sg14
I0
sg46
I0
sg17
I0
sg48
I0
sg42
I0
sg27
I0
sg8
I0
sg10
I0
sg11
I0
sg53
I0
sg29
I0
sg39
I0
sg40
I0
sg15
I0
sg35
I0
sg26
I0
sg31
I0
sg33
I0
sg30
I0
sg37
I0
sg23
I0
sg52
I0
sg32
I0
sg28
I0
sg24
I0
sg25
I0
sg21
I0
sg22
I0
sg38
I0
sg55
I0
sg51
I0
sg50
I0
sg49
I0
sg13
I0
sg44
I0
sg12
I0
sg18
I0
sg56
I0
sg54
I0
sg9
I0
sg45
I0
sg20
I0
sg43
I0
sg16
I0
ssg13
(dp153
g47
I0
sg36
I0
sg34
I0
sg19
I0
sg41
I0
sg14
I0
sg46
I0
sg17
I0
sg48
I0
sg42
I0
sg27
I0
sg8
I0
sg10
I0
sg11
I0
sg68
I0
sg29
I0
sg39
I0
sg40
I0
sg15
I0
sg35
I0
sg26
I0
sg31
I0
sg33
I0
sg30
I0
sg37
I0
sg23
I0
sg52
I0
sg32
I0
sg28
I0
sg24
I0
sg25
I0
sg21
I0
sg22
I0
sg38
I0
sg69
I0
sg51
I0
sg50
I0
sg49
I0
sg13
I0
sg44
I0
sg12
I0
sg18
I0
sg56
I0
sg70
I0
sg9
I0
sg45
I0
sg20
I0
sg43
I0
sg16
I0
ssg44
(dp154
g47
I0
sg36
I0
sg34
I0
sg19
I0
sg41
I0
sg14
I0
sg46
I0
sg17
I0
sg48
I0
sg42
I0
sg27
I0
sg8
I0
sg10
I0
sg11
I0
sg53
I0
sg29
I0
sg39
I0
sg40
I0
sg15
I0
sg35
I0
sg26
I0
sg31
I0
sg33
I0
sg30
I0
sg37
I0
sg23
I0
sg52
I0
sg32
I0
sg28
I0
sg24
I0
sg25
I0
sg21
I0
sg22
I0
sg38
I0
sg55
I0
sg51
I0
sg50
I0
sg49
I0
sg13
I0
sg20
I0
sg12
I0
sg18
I0
sg56
I0
sg54
I0
sg9
I0
sg45
I0
sg44
I0
sg43
I0
sg16
I0
ssg12
(dp155
g47
I0
sg36
I0
sg34
I0
sg19
I0
sg41
I0
sg14
I0
sg46
I0
sg17
I0
sg48
I0
sg42
I0
sg27
I0
sg8
I0
sg10
I0
sg11
I0
sg68
I0
sg29
I0
sg39
I0
sg40
I0
sg15
I0
sg35
I0
sg26
I0
sg31
I0
sg33
I0
sg30
I0
sg37
I0
sg23
I0
sg52
I0
sg32
I0
sg28
I0
sg24
I0
sg25
I0
sg21
I0
sg22
I0
sg38
I0
sg69
I0
sg51
I0
sg50
I0
sg49
I0
sg13
I9
sg44
I0
sg12
I0
sg18
I0
sg56
I0
sg70
I0
sg9
I0
sg45
I0
sg20
I0
sg43
I0
sg16
I0
ssg18
(dp156
g47
I0
sg36
I0
sg34
I0
sg19
I9
sg41
I0
sg14
I0
sg46
I0
sg17
I0
sg48
I0
sg42
I0
sg27
I0
sg8
I0
sg10
I0
sg11
I0
sg53
I0
sg29
I0
sg39
I0
sg40
I0
sg15
I0
sg35
I0
sg26
I0
sg31
I0
sg33
I0
sg30
I0
sg37
I0
sg23
I0
sg52
I0
sg32
I0
sg28
I0
sg24
I0
sg25
I0
sg21
I0
sg22
I0
sg38
I0
sg55
I0
sg51
I0
sg50
I0
sg49
I0
sg13
I0
sg44
I0
sg12
I0
sg18
I0
sg56
I0
sg54
I0
sg9
I0
sg45
I0
sg20
I0
sg43
I0
sg16
I0
ssg56
(dp157
S'corn.n.01'
p158
I0
sS'toilet.n.02'
p159
I0
sS'kernel.n.03'
p160
I0
sS'fertilization.n.02'
p161
I0
sS'testis.n.01'
p162
I0
sS'mixing_bowl.n.01'
p163
I0
sS'corn.n.03'
p164
I0
sg85
I0
sS'dish.n.02'
p165
I0
sS'apple.n.01'
p166
I0
sS'add.v.06'
p167
I0
sS'add.v.01'
p168
I0
sg90
I0
sg91
I0
sg68
I0
sS'pan.n.03'
p169
I0
sS'flour.n.01'
p170
I0
sg56
I0
sS'butter.n.01'
p171
I0
sS'pot.n.01'
p172
I0
sS'asparagus.n.02'
p173
I0
sS'vanilla.n.01'
p174
I0
sS'meat.n.01'
p175
I0
sS'vanilla.n.02'
p176
I0
sS'bean.n.01'
p177
I0
sS'concoction.n.01'
p178
I0
sS'sauce.n.01'
p179
I0
sS'salt.n.02'
p180
I0
sS'egg.n.02'
p181
I0
sS'rib.n.03'
p182
I0
sS'assortment.n.01'
p183
I0
sS'cream.n.02'
p184
I0
sS'ingredient.n.03'
p185
I0
sS'ingredient.n.01'
p186
I0
sS'attic.n.03'
p187
I0
sS'steak.n.01'
p188
I0
sS'vegetable.n.02'
p189
I0
sS'vegetable.n.01'
p190
I0
sS'cup_of_tea.n.01'
p191
I0
sg114
I0
sS'onion.n.01'
p192
I0
sg116
I0
sS'dressing.n.01'
p193
I0
sS'french_fries.n.01'
p194
I0
sS'lend.v.01'
p195
I0
sS'total.v.02'
p196
I0
sS'salad.n.01'
p197
I0
sS'onion.n.03'
p198
I0
sg122
I0
ssg54
(dp199
g78
I0
sg79
I0
sg80
I0
sg81
I0
sg82
I0
sg83
I0
sg84
I0
sg144
I0
sg86
I0
sg87
I0
sg88
I0
sg89
I0
sg145
I0
sg146
I0
sg53
I0
sg92
I0
sg93
I0
sg94
I0
sg95
I0
sg96
I0
sg97
I0
sg98
I0
sg99
I0
sg100
I0
sg101
I0
sg102
I0
sg103
I0
sg104
I0
sg105
I0
sg106
I0
sg107
I0
sg108
I0
sg109
I0
sg110
I0
sg55
I0
sg111
I0
sg112
I0
sg113
I0
sg147
I0
sg115
I0
sg148
I0
sg117
I0
sg56
I0
sg54
I9
sg118
I0
sg119
I0
sg120
I0
sg121
I0
sg149
I0
ssg9
(dp200
g47
I0
sg36
I0
sg34
I0
sg19
I0
sg41
I0
sg14
I0
sg46
I0
sg17
I0
sg48
I0
sg42
I0
sg27
I0
sg8
I0
sg10
I0
sg11
I0
sg53
I0
sg29
I0
sg39
I0
sg40
I0
sg15
I0
sg35
I0
sg26
I0
sg31
I0
sg33
I0
sg30
I0
sg37
I0
sg23
I0
sg52
I0
sg32
I0
sg28
I0
sg24
I0
sg25
I0
sg21
I0
sg22
I0
sg38
I0
sg55
I0
sg51
I0
sg50
I0
sg49
I0
sg13
I0
sg44
I0
sg12
I0
sg18
I0
sg56
I0
sg54
I0
sg9
I0
sg45
I0
sg20
I0
sg43
I0
sg16
I0
ssg45
(dp201
g47
I0
sg36
I0
sg34
I0
sg19
I0
sg41
I0
sg14
I0
sg46
I0
sg17
I0
sg48
I0
sg42
I0
sg27
I0
sg8
I0
sg10
I0
sg11
I0
sg53
I0
sg29
I0
sg39
I0
sg40
I0
sg15
I0
sg35
I0
sg26
I0
sg31
I0
sg33
I0
sg30
I0
sg37
I0
sg23
I0
sg52
I0
sg32
I0
sg28
I0
sg24
I0
sg25
I0
sg21
I0
sg22
I0
sg38
I0
sg55
I0
sg51
I0
sg50
I0
sg49
I0
sg13
I0
sg44
I0
sg12
I0
sg18
I0
sg56
I0
sg54
I0
sg9
I0
sg45
I0
sg20
I0
sg43
I0
sg16
I0
ssg20
(dp202
g47
I0
sg36
I0
sg34
I0
sg19
I0
sg41
I0
sg14
I0
sg46
I0
sg17
I0
sg48
I0
sg42
I0
sg27
I0
sg8
I0
sg10
I0
sg11
I0
sg53
I0
sg29
I0
sg39
I0
sg40
I0
sg15
I0
sg35
I0
sg26
I0
sg31
I0
sg33
I0
sg30
I0
sg37
I0
sg23
I0
sg52
I0
sg32
I0
sg28
I0
sg24
I0
sg25
I0
sg21
I0
sg22
I0
sg38
I0
sg55
I0
sg51
I0
sg50
I0
sg49
I0
sg13
I0
sg44
I0
sg12
I0
sg18
I0
sg56
I0
sg54
I0
sg9
I0
sg45
I0
sg20
I18
sg43
I0
sg16
I0
ssg43
(dp203
g47
I0
sg36
I0
sg34
I0
sg19
I0
sg41
I0
sg14
I0
sg46
I0
sg17
I0
sg48
I0
sg42
I0
sg27
I0
sg8
I0
sg10
I0
sg11
I0
sg53
I0
sg29
I0
sg39
I0
sg40
I0
sg15
I0
sg35
I0
sg26
I0
sg31
I0
sg33
I0
sg30
I0
sg37
I0
sg23
I0
sg52
I0
sg32
I0
sg28
I0
sg24
I0
sg25
I0
sg21
I0
sg22
I0
sg38
I0
sg55
I0
sg51
I0
sg50
I0
sg49
I0
sg13
I0
sg44
I9
sg12
I0
sg18
I0
sg56
I0
sg54
I0
sg9
I0
sg45
I0
sg20
I0
sg43
I0
sg16
I0
ssg16
(dp204
g47
I0
sg36
I0
sg34
I0
sg19
I0
sg41
I0
sg14
I0
sg46
I0
sg17
I9
sg48
I0
sg42
I0
sg27
I0
sg8
I0
sg10
I0
sg11
I0
sg68
I0
sg29
I0
sg39
I0
sg40
I0
sg15
I0
sg35
I0
sg26
I0
sg31
I0
sg33
I0
sg30
I0
sg37
I0
sg23
I0
sg52
I0
sg32
I0
sg28
I0
sg24
I0
sg25
I0
sg21
I0
sg22
I0
sg38
I0
sg69
I0
sg51
I0
sg50
I0
sg49
I0
sg13
I0
sg44
I0
sg12
I0
sg18
I0
sg56
I0
sg70
I0
sg9
I0
sg45
I0
sg20
I0
sg43
I0
sg16
I0
sssb.