ccopy_reg
_reconstructor
p0
(cutils.eval
ConfusionMatrix
p1
c__builtin__
object
p2
Ntp3
Rp4
(dp5
S'labels'
p6
(lp7
S'opening.n.01'
p8
aS'gap.n.03'
p9
aS'fill.v.09'
p10
aS'fill.v.01'
p11
aS'batter.n.02'
p12
aS'jar.n.01'
p13
aS'gravy.n.01'
p14
aS'gravy.n.02'
p15
asS'instanceCount'
p16
I6
sS'matrix'
p17
(dp18
g14
(dp19
g15
I1
ssg15
(dp20
g15
I0
ssg9
(dp21
g9
I0
ssg10
(dp22
g11
I1
ssg11
(dp23
g11
I1
ssg12
(dp24
S'batter.n.02'
p25
I1
ssg13
(dp26
S'jar.n.01'
p27
I1
ssg8
(dp28
g9
I1
sssb.