ccopy_reg
_reconstructor
p0
(cutils.eval
ConfusionMatrix
p1
c__builtin__
object
p2
Ntp3
Rp4
(dp5
S'labels'
p6
(lp7
S'put.v.01'
p8
aS'spoon.n.01'
p9
aS'batter.n.02'
p10
aS'bowl.n.01'
p11
aS'rice.n.01'
p12
asS'instanceCount'
p13
I6
sS'matrix'
p14
(dp15
g9
(dp16
S'spoon.n.01'
p17
I1
ssg11
(dp18
S'bowl.n.01'
p19
I1
ssg12
(dp20
S'rice.n.01'
p21
I1
ssg10
(dp22
S'batter.n.02'
p23
I1
ssg8
(dp24
S'put.v.01'
p25
I2
sssb.