ccopy_reg
_reconstructor
p0
(cutils.eval
ConfusionMatrix
p1
c__builtin__
object
p2
Ntp3
Rp4
(dp5
S'labels'
p6
(lp7
S'fill.v.01'
p8
aS'foam.n.01'
p9
aS'mug.n.04'
p10
aS'piece.n.08'
p11
aS'slice.n.05'
p12
aS'pizza.n.01'
p13
aS'slice.v.03'
p14
aS'slice.v.02'
p15
aS'cheese.n.01'
p16
aS'flesh.n.01'
p17
aS'knife.n.01'
p18
aS'knife.n.02'
p19
aS'banana.n.02'
p20
aS'opening.n.01'
p21
aS'fill.v.09'
p22
aS'batter.n.02'
p23
aS'pitcher.n.02'
p24
aS'milk.n.01'
p25
asS'instanceCount'
p26
I19
sS'matrix'
p27
(dp28
g15
(dp29
g15
I0
ssg10
(dp30
S'mug.n.04'
p31
I1
ssg8
(dp32
S'fill.v.01'
p33
I2
ssg12
(dp34
g12
I0
ssg18
(dp35
g19
I1
ssg20
(dp36
S'banana.n.02'
p37
I1
ssg14
(dp38
g15
I4
ssg25
(dp39
S'milk.n.01'
p40
I1
ssg17
(dp41
S'flesh.n.01'
p42
I1
ssg13
(dp43
S'pizza.n.01'
p44
I1
ssg16
(dp45
S'cheese.n.01'
p46
I1
ssg19
(dp47
g19
I0
ssg22
(dp48
S'fill.v.01'
p49
I1
ssg23
(dp50
S'batter.n.02'
p51
I1
ssg11
(dp52
g12
I1
ssg9
(dp53
S'foam.n.01'
p54
I1
ssg24
(dp55
S'pitcher.n.02'
p56
I1
ssg21
(dp57
S'opening.n.01'
p58
I1
sssb.