ccopy_reg
_reconstructor
p0
(cutils.eval
ConfusionMatrix
p1
c__builtin__
object
p2
Ntp3
Rp4
(dp5
S'labels'
p6
(lp7
S'fill.v.01'
p8
aS'pan.n.01'
p9
aS'pan.n.03'
p10
aS'water.n.06'
p11
aS'foam.n.01'
p12
aS'mug.n.04'
p13
aS'piece.n.08'
p14
aS'slice.n.06'
p15
aS'pizza.n.01'
p16
aS'slice.v.03'
p17
aS'slice.v.02'
p18
aS'cheese.n.01'
p19
aS'flesh.n.01'
p20
aS'knife.n.01'
p21
aS'knife.n.02'
p22
aS'banana.n.02'
p23
aS'opening.n.01'
p24
aS'gap.n.03'
p25
aS'fill.v.09'
p26
aS'batter.n.02'
p27
asS'instanceCount'
p28
I19
sS'matrix'
p29
(dp30
g9
(dp31
g10
I1
ssg13
(dp32
S'mug.n.04'
p33
I1
ssg10
(dp34
g10
I0
ssg21
(dp35
g22
I1
ssg25
(dp36
g25
I0
ssg23
(dp37
S'banana.n.02'
p38
I1
ssg17
(dp39
g18
I4
ssg20
(dp40
S'flesh.n.01'
p41
I1
ssg15
(dp42
g15
I0
ssg11
(dp43
S'water.n.06'
p44
I1
ssg8
(dp45
S'fill.v.01'
p46
I2
ssg19
(dp47
S'cheese.n.01'
p48
I1
ssg22
(dp49
g22
I0
ssg26
(dp50
S'fill.v.01'
p51
I1
ssg16
(dp52
S'pizza.n.01'
p53
I1
ssg27
(dp54
S'batter.n.02'
p55
I1
ssg14
(dp56
g15
I1
ssg12
(dp57
S'foam.n.01'
p58
I1
ssg18
(dp59
g18
I0
ssg24
(dp60
g25
I1
sssb.