ccopy_reg
_reconstructor
p0
(cutils.eval
ConfusionMatrix
p1
c__builtin__
object
p2
Ntp3
Rp4
(dp5
S'labels'
p6
(lp7
S'flesh.n.01'
p8
aS'human_body.n.01'
p9
aS'slice.v.03'
p10
aS'slice.v.02'
p11
aS'knife.n.01'
p12
aS'tongue.n.03'
p13
aS'banana.n.02'
p14
aS'opening.n.01'
p15
aS'gap.n.01'
p16
aS'fill.v.09'
p17
aS'batter.n.02'
p18
aS'batter.n.01'
p19
aS'fill.v.01'
p20
aS'pitcher.n.02'
p21
aS'pitcher.n.03'
p22
aS'milk.n.01'
p23
aS'milk.n.04'
p24
aS'tomato.n.01'
p25
aS'piece.n.08'
p26
aS'cut.n.05'
p27
aS'onion.n.03'
p28
aS'onion.n.02'
p29
aS'mustard.n.02'
p30
aS'mustard.n.01'
p31
aS'kettle.n.01'
p32
aS'kettle.n.02'
p33
aS'water.n.06'
p34
aS'water_system.n.02'
p35
aS'pan.n.01'
p36
aS'pan.n.04'
p37
aS'gap.n.05'
p38
aS'pitcher.n.05'
p39
aS'tomato.n.02'
p40
aS'slice.n.04'
p41
aS'meet.v.04'
p42
aS'water.n.03'
p43
aS'pan.n.02'
p44
aS'mug.n.04'
p45
aS'slice.n.06'
p46
aS'pizza.n.01'
p47
aS'kettle_hole.n.01'
p48
aS'pan.n.03'
p49
aS'foam.n.01'
p50
aS'chump.n.01'
p51
aS'slice.n.05'
p52
aS'cheese.n.01'
p53
aS'knife.n.02'
p54
aS'gap.n.03'
p55
aS'milk.n.02'
p56
aS'pulp.n.02'
p57
aS'catsup.n.01'
p58
aS'onion.n.01'
p59
aS'slice.n.01'
p60
aS'banana.n.01'
p61
asS'instanceCount'
p62
I198
sS'matrix'
p63
(dp64
g53
(dp65
g53
I7
sS'slice.n.06'
p66
I0
sg55
I0
sS'batter.n.02'
p67
I0
sS'batter.n.01'
p68
I0
sS'milk.n.04'
p69
I0
sS'pizza.n.01'
p70
I0
sS'milk.n.01'
p71
I0
sS'pan.n.01'
p72
I0
sg49
I0
sg50
I0
sS'pan.n.04'
p73
I0
sS'fill.v.09'
p74
I0
sS'tomato.n.02'
p75
I0
sS'tomato.n.01'
p76
I0
sS'fill.v.01'
p77
I0
sS'pitcher.n.03'
p78
I0
sS'pitcher.n.02'
p79
I0
sS'cut.n.05'
p80
I0
sS'slice.v.02'
p81
I0
sS'slice.v.03'
p82
I0
sg51
I0
sS'knife.n.01'
p83
I0
sg61
I0
sS'banana.n.02'
p84
I0
sg54
I0
sS'mustard.n.02'
p85
I0
sS'human_body.n.01'
p86
I0
sg58
I0
sS'piece.n.08'
p87
I0
sS'opening.n.01'
p88
I0
sS'mug.n.04'
p89
I0
sS'flesh.n.01'
p90
I0
sg60
I0
sS'water_system.n.02'
p91
I0
sS'water.n.06'
p92
I0
sS'slice.n.04'
p93
I0
sg52
I0
sS'kettle.n.02'
p94
I0
sg48
I0
sS'kettle.n.01'
p95
I0
sg57
I0
sS'tongue.n.03'
p96
I0
sg59
I0
sS'onion.n.03'
p97
I0
sS'onion.n.02'
p98
I0
ssg52
(dp99
g53
I0
sg52
I0
sS'batter.n.02'
p100
I0
sg50
I0
sS'milk.n.01'
p101
I0
sg72
I0
sg49
I0
sg74
I0
sg77
I0
sS'pitcher.n.02'
p102
I0
sg81
I0
sg82
I0
sg51
I0
sg83
I0
sg84
I0
sg54
I0
sg87
I0
sS'opening.n.01'
p103
I0
sg89
I0
sg90
I0
sg92
I0
sg70
I0
sg48
I0
sg95
I0
ssg46
(dp104
S'cheese.n.01'
p105
I0
sS'water_system.n.02'
p106
I0
sg55
I0
sS'batter.n.02'
p107
I0
sS'milk.n.04'
p108
I0
sS'foam.n.01'
p109
I0
sS'milk.n.01'
p110
I0
sS'pan.n.01'
p111
I0
sS'mustard.n.01'
p112
I0
sS'mustard.n.02'
p113
I0
sg38
I0
sg73
I0
sS'fill.v.09'
p114
I0
sg40
I0
sS'tomato.n.01'
p115
I0
sS'fill.v.01'
p116
I0
sg78
I0
sS'pitcher.n.02'
p117
I0
sg39
I0
sg80
I0
sS'slice.v.02'
p118
I0
sS'slice.v.03'
p119
I0
sS'chump.n.01'
p120
I0
sS'knife.n.01'
p121
I0
sS'banana.n.02'
p122
I0
sS'knife.n.02'
p123
I0
sg42
I0
sS'pan.n.03'
p124
I0
sg44
I0
sS'piece.n.08'
p125
I0
sS'opening.n.01'
p126
I0
sg45
I0
sS'flesh.n.01'
p127
I0
sg43
I0
sg46
I0
sS'water.n.06'
p128
I0
sg41
I0
sg47
I0
sS'kettle.n.02'
p129
I0
sS'kettle.n.01'
p130
I0
sg57
I0
sS'onion.n.03'
p131
I0
sS'onion.n.02'
p132
I0
ssg60
(dp133
S'cheese.n.01'
p134
I0
sS'batter.n.02'
p135
I0
sS'milk.n.01'
p136
I0
sS'mustard.n.02'
p137
I0
sS'gap.n.03'
p138
I0
sS'fill.v.09'
p139
I0
sS'tomato.n.01'
p140
I0
sS'fill.v.01'
p141
I0
sS'pitcher.n.02'
p142
I0
sS'cut.n.05'
p143
I0
sS'slice.v.02'
p144
I0
sS'slice.v.03'
p145
I0
sS'knife.n.01'
p146
I0
sg61
I0
sS'banana.n.02'
p147
I0
sS'piece.n.08'
p148
I0
sS'opening.n.01'
p149
I0
sS'flesh.n.01'
p150
I0
sg60
I0
sS'tongue.n.03'
p151
I0
sS'onion.n.03'
p152
I0
sS'onion.n.02'
p153
I0
ssg55
(dp154
S'cheese.n.01'
p155
I0
sS'water_system.n.02'
p156
I0
sg67
I0
sg68
I0
sS'foam.n.01'
p157
I0
sS'milk.n.01'
p158
I0
sS'pan.n.01'
p159
I0
sg124
I0
sg55
I0
sS'fill.v.09'
p160
I0
sS'tomato.n.02'
p161
I0
sS'tomato.n.01'
p162
I0
sS'fill.v.01'
p163
I0
sS'pitcher.n.02'
p164
I0
sg143
I0
sg118
I0
sS'slice.v.03'
p165
I0
sg121
I0
sg61
I0
sg122
I0
sg123
I0
sS'mustard.n.02'
p166
I0
sg86
I0
sg58
I0
sS'piece.n.08'
p167
I0
sg88
I0
sS'mug.n.04'
p168
I0
sg127
I0
sg60
I0
sS'slice.n.06'
p169
I0
sS'water.n.06'
p170
I0
sS'pizza.n.01'
p171
I0
sS'kettle.n.01'
p172
I0
sg96
I0
sg59
I0
sS'onion.n.03'
p173
I0
sg153
I0
ssg18
(dp174
g155
I0
sS'slice.n.05'
p175
I0
sg46
I0
sg60
I0
sg55
I0
sg18
I5
sg19
I2
sg24
I0
sg157
I0
sg23
I0
sg56
I0
sg36
I0
sg31
I0
sg30
I0
sg38
I0
sg37
I0
sg16
I0
sg40
I0
sg25
I0
sg20
I0
sg22
I0
sg21
I0
sg39
I0
sg27
I0
sg11
I0
sg10
I0
sS'chump.n.01'
p176
I0
sg12
I0
sg61
I0
sg14
I0
sg123
I0
sg42
I0
sg124
I0
sg9
I0
sg44
I0
sg58
I0
sg26
I0
sg15
I0
sg45
I0
sg8
I0
sg43
I0
sg17
I0
sg35
I0
sg34
I0
sg41
I0
sg47
I0
sg33
I0
sg32
I0
sg13
I0
sg59
I0
sg28
I0
sg29
I0
ssg19
(dp177
S'cheese.n.01'
p178
I0
sS'gap.n.03'
p179
I0
sg18
I0
sg19
I0
sg24
I0
sg23
I0
sg36
I0
sg31
I0
sg30
I0
sg37
I0
sg16
I0
sg161
I0
sg25
I0
sg20
I0
sg22
I0
sg21
I0
sg27
I0
sg11
I0
sg10
I0
sg12
I0
sg14
I0
sg9
I0
sg58
I0
sg26
I0
sg15
I0
sg8
I0
sg17
I0
sg35
I0
sg34
I0
sg33
I0
sg32
I0
sg13
I0
sg59
I0
sg28
I0
sg29
I0
ssg24
(dp180
g105
I0
sg46
I0
sg18
I0
sg19
I0
sg24
I0
sg109
I0
sg23
I0
sg36
I0
sg31
I0
sg30
I0
sg38
I0
sg37
I0
sg16
I0
sg40
I0
sg25
I0
sg20
I0
sg22
I0
sg21
I0
sg39
I0
sg27
I0
sg11
I0
sg10
I0
sg120
I0
sg12
I0
sg14
I0
sg42
I0
sg9
I0
sg44
I0
sg26
I0
sg15
I0
sg45
I0
sg8
I0
sg43
I0
sg17
I0
sg35
I0
sg34
I0
sg41
I0
sg47
I0
sg33
I0
sg32
I0
sg13
I0
sg28
I0
sg29
I0
ssg50
(dp181
g53
I0
sg66
I0
sg55
I0
sg67
I0
sg69
I0
sg70
I0
sg71
I0
sg72
I0
sg49
I0
sg50
I4
sg73
I0
sg74
I0
sg76
I0
sg77
I0
sg78
I0
sg79
I0
sg80
I0
sg81
I0
sg82
I0
sg51
I0
sg83
I0
sg84
I0
sg54
I0
sg85
I0
sg87
I0
sg88
I0
sg89
I0
sg90
I0
sg91
I0
sg92
I0
sg52
I0
sg94
I0
sg48
I0
sg95
I0
sg97
I0
sg98
I0
ssg23
(dp182
g105
I0
sg175
I0
sg46
I0
sg60
I0
sg179
I0
sg18
I0
sg19
I0
sg24
I3
sg109
I0
sg23
I3
sg56
I1
sg36
I0
sg31
I0
sg30
I0
sg38
I0
sg37
I0
sg16
I0
sg40
I0
sg25
I0
sg20
I0
sg22
I0
sg21
I0
sg39
I0
sg27
I0
sg11
I0
sg10
I0
sg120
I0
sg12
I0
sg61
I0
sg14
I0
sS'knife.n.02'
p183
I0
sg42
I0
sg9
I0
sg44
I0
sg58
I0
sg26
I0
sg15
I0
sg45
I0
sg8
I0
sg43
I0
sg17
I0
sg35
I0
sg34
I0
sg41
I0
sg47
I0
sg33
I0
sg32
I0
sg13
I0
sg59
I0
sg28
I0
sg29
I0
ssg56
(dp184
S'batter.n.02'
p185
I0
sS'milk.n.01'
p186
I0
sg56
I0
sS'pan.n.01'
p187
I0
sS'mustard.n.01'
p188
I0
sS'mustard.n.02'
p189
I0
sS'gap.n.05'
p190
I0
sS'fill.v.09'
p191
I0
sS'tomato.n.01'
p192
I0
sS'fill.v.01'
p193
I0
sS'pitcher.n.03'
p194
I0
sS'pitcher.n.02'
p195
I0
sS'slice.v.03'
p196
I0
sg176
I0
sS'knife.n.01'
p197
I0
sS'banana.n.02'
p198
I0
sS'meet.v.04'
p199
I0
sS'pan.n.02'
p200
I0
sS'piece.n.08'
p201
I0
sS'opening.n.01'
p202
I0
sS'mug.n.04'
p203
I0
sS'water.n.03'
p204
I0
sS'water.n.06'
p205
I0
sS'slice.n.04'
p206
I0
sS'kettle.n.02'
p207
I0
sS'kettle.n.01'
p208
I0
sS'tongue.n.03'
p209
I0
sS'onion.n.03'
p210
I0
sS'onion.n.02'
p211
I0
ssg36
(dp212
g53
I0
sg52
I0
sg46
I0
sg55
I0
sg18
I0
sg19
I0
sg24
I0
sg50
I0
sg23
I0
sg56
I0
sg36
I0
sg31
I0
sg30
I0
sg38
I0
sg37
I2
sg16
I0
sg40
I0
sg25
I0
sg20
I0
sg22
I0
sg21
I0
sg39
I0
sg27
I0
sg11
I0
sg10
I0
sg51
I0
sg12
I0
sg14
I0
sg54
I0
sg42
I0
sg49
I3
sg9
I0
sg44
I2
sg26
I0
sg15
I0
sg45
I0
sg8
I0
sg43
I0
sg17
I0
sg35
I0
sg34
I0
sg41
I0
sg47
I0
sg33
I0
sg48
I0
sg32
I0
sg57
I0
sg13
I0
sg28
I0
sg29
I0
ssg31
(dp213
g46
I0
sg18
I0
sg19
I0
sg24
I0
sg23
I0
sg56
I0
sg36
I0
sg31
I0
sg30
I0
sg38
I0
sg37
I0
sg16
I0
sg40
I0
sg25
I0
sg20
I0
sg22
I0
sg21
I0
sg39
I0
sg27
I0
sg11
I0
sg10
I0
sg176
I0
sg12
I0
sg14
I0
sg42
I0
sg9
I0
sg44
I0
sg26
I0
sg15
I0
sg45
I0
sg8
I0
sg43
I0
sg17
I0
sg35
I0
sg34
I0
sg41
I0
sg47
I0
sg33
I0
sg32
I0
sg13
I0
sg28
I0
sg29
I0
ssg30
(dp214
g105
I0
sg60
I0
sg46
I0
sg179
I0
sg18
I0
sg19
I0
sg24
I0
sg109
I0
sg23
I0
sg56
I0
sg36
I0
sg31
I3
sg30
I4
sg38
I0
sg37
I0
sg16
I0
sg40
I0
sg25
I0
sg20
I0
sg22
I0
sg21
I0
sg39
I0
sg27
I0
sg11
I0
sg10
I0
sg120
I0
sg12
I0
sg61
I0
sg14
I0
sg42
I0
sS'pan.n.03'
p215
I0
sg9
I0
sg44
I0
sg58
I0
sg26
I0
sg15
I0
sg45
I0
sg8
I0
sg43
I0
sg17
I0
sg35
I0
sg34
I0
sg41
I0
sg47
I0
sg33
I0
sg32
I0
sg57
I0
sg13
I0
sg59
I0
sg28
I0
sg29
I0
ssg38
(dp216
g46
I0
sg107
I0
sg108
I0
sg110
I0
sg56
I0
sg111
I0
sg112
I0
sg113
I0
sg38
I0
sg114
I0
sg40
I0
sg115
I0
sg116
I0
sg194
I0
sg117
I0
sg39
I0
sg119
I0
sg176
I0
sg197
I0
sg198
I0
sg42
I0
sg44
I0
sg125
I0
sg126
I0
sg45
I0
sg43
I0
sg106
I0
sg128
I0
sg41
I0
sg47
I0
sg129
I0
sg130
I0
sg209
I0
sg131
I0
sg132
I0
ssg37
(dp217
g105
I0
sg66
I0
sg18
I0
sg19
I0
sg24
I0
sg109
I0
sg23
I0
sg36
I0
sg31
I0
sg30
I0
sg37
I0
sg16
I0
sg25
I0
sg20
I0
sg22
I0
sg21
I0
sg27
I0
sg11
I0
sg10
I0
sg120
I0
sg12
I0
sg14
I0
sg9
I0
sg26
I0
sg15
I0
sS'mug.n.04'
p218
I0
sg8
I0
sg17
I0
sg35
I0
sg34
I0
sg33
I0
sg32
I0
sg13
I0
sg28
I0
sg29
I0
ssg16
(dp219
g18
I0
sg19
I0
sg24
I0
sg23
I0
sg36
I0
sg31
I0
sg30
I0
sg37
I0
sg16
I0
sg25
I0
sg20
I0
sg22
I0
sg21
I0
sg27
I0
sg11
I0
sg10
I0
sg12
I0
sg14
I0
sg9
I0
sg26
I0
sg15
I0
sg8
I0
sg17
I0
sg35
I0
sg34
I0
sg33
I0
sg32
I0
sg13
I0
sg28
I0
sg29
I0
ssg40
(dp220
S'cheese.n.01'
p221
I0
sg46
I0
sg107
I0
sg68
I0
sg108
I0
sg110
I0
sg111
I0
sg112
I0
sg113
I0
sg38
I0
sg179
I0
sg114
I0
sg40
I0
sg115
I0
sg116
I0
sg117
I0
sg39
I0
sS'slice.v.02'
p222
I0
sg119
I0
sS'knife.n.01'
p223
I0
sS'banana.n.02'
p224
I0
sg42
I0
sg215
I0
sg86
I0
sg44
I0
sg58
I0
sg125
I0
sg126
I0
sg45
I0
sS'flesh.n.01'
p225
I0
sg43
I0
sg106
I0
sg128
I0
sg41
I0
sg47
I0
sg129
I0
sg130
I0
sg57
I0
sg96
I0
sg59
I0
sg131
I0
sg132
I0
ssg25
(dp226
g105
I0
sg60
I0
sg46
I0
sg179
I0
sg18
I0
sg19
I0
sg24
I0
sg109
I0
sg23
I0
sg56
I0
sg36
I0
sg31
I0
sg30
I0
sg38
I0
sg37
I0
sg16
I0
sg40
I3
sg25
I4
sg20
I0
sg22
I0
sg21
I0
sg39
I0
sg27
I0
sg11
I0
sg10
I0
sg120
I0
sg12
I0
sg61
I0
sg14
I0
sg42
I0
sg215
I0
sg9
I0
sg44
I0
sg58
I0
sg26
I0
sg15
I0
sg45
I0
sg8
I0
sg43
I0
sg17
I0
sg35
I0
sg34
I0
sg41
I0
sg47
I0
sg33
I0
sg32
I0
sg57
I0
sg13
I0
sg59
I0
sg28
I0
sg29
I0
ssg20
(dp227
g53
I0
sg52
I0
sg46
I0
sg60
I0
sg55
I0
sg18
I0
sg19
I0
sg24
I0
sg50
I0
sg23
I0
sg56
I0
sg36
I0
sg31
I0
sg30
I0
sg38
I0
sg37
I0
sg16
I0
sg40
I0
sg25
I0
sg20
I12
sg22
I0
sg21
I0
sg39
I0
sg27
I0
sg11
I0
sg10
I0
sg51
I0
sg12
I0
sg61
I0
sg14
I0
sg54
I0
sg42
I2
sg49
I0
sg9
I0
sg44
I0
sg58
I0
sg26
I0
sg15
I0
sg45
I0
sg8
I0
sg43
I0
sg17
I14
sg35
I0
sg34
I0
sg41
I0
sg47
I0
sg33
I0
sg48
I0
sg32
I0
sg57
I0
sg13
I0
sg59
I0
sg28
I0
sg29
I0
ssg22
(dp228
g105
I0
sg66
I0
sg18
I0
sg19
I0
sg24
I0
sg109
I0
sg23
I0
sg56
I0
sg36
I0
sg31
I0
sg30
I0
sg190
I0
sg37
I0
sg16
I0
sg25
I0
sg20
I0
sg22
I0
sg21
I0
sg27
I0
sg11
I0
sg10
I0
sg120
I0
sg12
I0
sg14
I0
sg199
I0
sg9
I0
sg200
I0
sg26
I0
sg15
I0
sg218
I0
sg8
I0
sg204
I0
sg17
I0
sg35
I0
sg34
I0
sg206
I0
sg33
I0
sg32
I0
sg13
I0
sg28
I0
sg29
I0
ssg21
(dp229
g105
I0
sg175
I0
sg46
I0
sg60
I0
sg179
I0
sg18
I0
sg19
I0
sg24
I0
sg109
I0
sg23
I0
sg56
I0
sg36
I0
sg31
I0
sg30
I0
sg38
I0
sg37
I0
sg16
I0
sg40
I0
sg25
I0
sg20
I0
sg22
I3
sg21
I3
sg39
I1
sg27
I0
sg11
I0
sg10
I0
sg120
I0
sg12
I0
sg61
I0
sg14
I0
sg183
I0
sg42
I0
sg9
I0
sg44
I0
sg58
I0
sg26
I0
sg15
I0
sg45
I0
sg8
I0
sg43
I0
sg17
I0
sg35
I0
sg34
I0
sg41
I0
sg47
I0
sg33
I0
sg32
I0
sg13
I0
sg59
I0
sg28
I0
sg29
I0
ssg39
(dp230
g46
I0
sg107
I0
sg108
I0
sg110
I0
sg111
I0
sg112
I0
sg113
I0
sg38
I0
sg114
I0
sg40
I0
sg115
I0
sg116
I0
sg117
I0
sg39
I0
sg119
I0
sg42
I0
sg44
I0
sg125
I0
sg126
I0
sg45
I0
sg43
I0
sg106
I0
sg128
I0
sg41
I0
sg47
I0
sg129
I0
sg130
I0
sg131
I0
sg132
I0
ssg27
(dp231
g105
I0
sg60
I0
sg66
I0
sg138
I0
sg18
I0
sg19
I0
sg24
I0
sg109
I0
sg23
I0
sg36
I0
sg31
I0
sg30
I0
sg37
I0
sg16
I0
sg25
I0
sg20
I0
sg22
I0
sg21
I0
sg27
I0
sg11
I0
sg10
I0
sg120
I0
sg12
I0
sg61
I0
sg14
I0
sg9
I0
sg26
I0
sg15
I0
sg218
I0
sg8
I0
sg17
I0
sg35
I0
sg34
I0
sg33
I0
sg32
I0
sg13
I0
sg28
I0
sg29
I0
ssg11
(dp232
g53
I0
sg60
I0
sg169
I0
sg55
I0
sg70
I0
sg18
I0
sg19
I0
sg24
I0
sg50
I0
sg23
I0
sg36
I0
sg31
I0
sg30
I0
sg37
I0
sg16
I0
sg161
I0
sg25
I0
sg20
I0
sg22
I0
sg21
I0
sg27
I0
sg11
I0
sg10
I0
sg51
I0
sg12
I0
sg61
I0
sg14
I0
sg54
I0
sg49
I0
sg9
I0
sg58
I0
sg26
I0
sg15
I0
sg89
I0
sg8
I0
sg17
I0
sg35
I0
sg34
I0
sg52
I0
sg33
I0
sg48
I0
sg32
I0
sg13
I0
sg59
I0
sg28
I0
sg29
I0
ssg10
(dp233
g53
I0
sg52
I0
sg46
I0
sg60
I0
sg55
I0
sg18
I0
sg19
I0
sg24
I0
sg50
I0
sg23
I0
sg56
I0
sg36
I0
sg31
I0
sg30
I0
sg38
I0
sg37
I0
sg16
I0
sg40
I0
sg25
I0
sg20
I0
sg22
I0
sg21
I0
sg39
I0
sg27
I0
sg11
I19
sg10
I9
sg51
I0
sg12
I0
sg61
I0
sg14
I0
sg54
I0
sg42
I0
sg49
I0
sg9
I0
sg44
I0
sg58
I0
sg26
I0
sg15
I0
sg45
I0
sg8
I0
sg43
I0
sg17
I0
sg35
I0
sg34
I0
sg41
I0
sg47
I0
sg33
I0
sg48
I0
sg32
I0
sg57
I0
sg13
I0
sg59
I0
sg28
I0
sg29
I0
ssg51
(dp234
g53
I0
sg66
I0
sg185
I0
sg69
I0
sg70
I0
sg200
I0
sg71
I0
sg56
I0
sg72
I0
sg188
I0
sg49
I0
sg50
I0
sg73
I0
sg74
I0
sg76
I0
sg77
I0
sg78
I0
sg79
I0
sg80
I0
sg81
I0
sg82
I0
sg51
I0
sg83
I0
sg84
I0
sg54
I0
sg199
I0
sg85
I0
sg190
I0
sg87
I0
sg202
I0
sg89
I0
sg90
I0
sg204
I0
sg91
I0
sg92
I0
sg206
I0
sg52
I0
sg94
I0
sg48
I0
sg95
I0
sg209
I0
sg97
I0
sg98
I0
ssg12
(dp235
g53
I0
sg60
I0
sg169
I0
sg55
I0
sg70
I0
sg18
I0
sg19
I0
sg24
I0
sg50
I0
sg23
I0
sg56
I0
sg36
I0
sg31
I0
sg30
I0
sg190
I0
sg37
I0
sg16
I0
sg161
I0
sg25
I0
sg20
I0
sg22
I0
sg21
I0
sg27
I0
sg11
I0
sg10
I0
sg51
I0
sg12
I0
sg61
I0
sg14
I0
sg54
I3
sg199
I0
sg49
I0
sg9
I0
sg200
I0
sg58
I0
sg26
I0
sg15
I0
sg89
I0
sg8
I0
sg204
I0
sg17
I0
sg35
I0
sg34
I0
sg206
I0
sg52
I0
sg33
I0
sg48
I0
sg32
I0
sg13
I4
sg59
I0
sg28
I0
sg29
I0
ssg61
(dp236
g134
I0
sg135
I0
sg136
I0
sg137
I0
sg138
I0
sg139
I0
sg140
I0
sg141
I0
sg142
I0
sg143
I0
sg144
I0
sg145
I0
sg146
I0
sg61
I0
sg147
I0
sg148
I0
sg149
I0
sg150
I0
sg60
I0
sg151
I0
sg152
I0
sg153
I0
ssg14
(dp237
g53
I0
sg60
I0
sg169
I0
sg55
I0
sg70
I0
sg18
I0
sg19
I0
sg24
I0
sg50
I0
sg23
I0
sg56
I0
sg36
I0
sg31
I0
sg30
I0
sg190
I0
sg37
I0
sg16
I0
sg161
I0
sg25
I0
sg20
I0
sg22
I0
sg21
I0
sg27
I0
sg11
I0
sg10
I0
sg51
I0
sg12
I0
sg61
I1
sg14
I6
sg54
I0
sg199
I0
sg49
I0
sg9
I0
sg200
I0
sg58
I0
sg26
I0
sg15
I0
sg89
I0
sg8
I0
sg204
I0
sg17
I0
sg35
I0
sg34
I0
sg206
I0
sg52
I0
sg33
I0
sg48
I0
sg32
I0
sg13
I0
sg59
I0
sg28
I0
sg29
I0
ssg54
(dp238
g53
I0
sg67
I0
sg70
I0
sg101
I0
sg72
I0
sg49
I0
sg50
I0
sg55
I0
sg74
I0
sg77
I0
sg102
I0
sg81
I0
sg82
I0
sg51
I0
sg83
I0
sg84
I0
sg54
I0
sg87
I0
sg88
I0
sg89
I0
sg90
I0
sg169
I0
sg92
I0
sg52
I0
sg48
I0
sg95
I0
ssg42
(dp239
g46
I0
sg107
I0
sg108
I0
sg110
I0
sg56
I0
sg111
I0
sg112
I0
sg113
I0
sg38
I0
sg114
I0
sg40
I0
sg115
I0
sg116
I0
sg194
I0
sg117
I0
sg39
I0
sg119
I0
sg176
I0
sg197
I0
sg198
I0
sg42
I0
sg44
I0
sg125
I0
sg126
I0
sg45
I0
sg43
I0
sg106
I0
sg128
I0
sg41
I0
sg47
I0
sg129
I0
sg130
I0
sg209
I0
sg131
I0
sg132
I0
ssg49
(dp240
g53
I0
sg67
I0
sg70
I0
sg72
I0
sg49
I0
sg50
I0
sg55
I0
sg74
I0
sg75
I0
sS'tomato.n.01'
p241
I0
sg77
I0
sg81
I0
sg82
I0
sg51
I0
sg83
I0
sg84
I0
sg54
I0
sS'mustard.n.02'
p242
I0
sg87
I0
sg88
I0
sg89
I0
sg90
I0
sg169
I0
sg92
I0
sg93
I0
sg52
I0
sg48
I0
sg95
I0
sg57
I0
sS'onion.n.03'
p243
I0
sS'onion.n.02'
p244
I0
ssg9
(dp245
g178
I0
sg179
I0
sg18
I0
sg19
I0
sg24
I0
sg23
I0
sg36
I0
sg31
I0
sg30
I0
sg37
I0
sg16
I0
sg161
I0
sg25
I0
sg20
I0
sg22
I0
sg21
I0
sg27
I0
sg11
I0
sg10
I0
sg12
I0
sg14
I0
sg9
I0
sg58
I0
sg26
I0
sg15
I0
sg8
I0
sg17
I0
sg35
I0
sg34
I0
sg33
I0
sg32
I0
sg13
I0
sg59
I0
sg28
I0
sg29
I0
ssg44
(dp246
g46
I0
sg107
I0
sg108
I0
sg110
I0
sg56
I0
sg111
I0
sg112
I0
sg113
I0
sg44
I0
sg114
I0
sg40
I0
sg115
I0
sg116
I0
sg194
I0
sg117
I0
sg39
I0
sg119
I0
sg176
I0
sg197
I0
sg198
I0
sg42
I0
sg38
I0
sg125
I0
sg126
I0
sg45
I0
sg43
I0
sg106
I0
sg128
I0
sg41
I0
sg47
I0
sg129
I0
sg130
I0
sg209
I0
sg131
I0
sg132
I0
ssg58
(dp247
g178
I0
sS'batter.n.02'
p248
I0
sg68
I0
sg158
I0
sg166
I0
sg179
I0
sS'fill.v.09'
p249
I0
sg161
I0
sg162
I0
sS'fill.v.01'
p250
I0
sg164
I0
sg222
I0
sS'slice.v.03'
p251
I0
sg223
I0
sg224
I0
sg86
I0
sg58
I1
sS'piece.n.08'
p252
I0
sS'opening.n.01'
p253
I0
sS'flesh.n.01'
p254
I0
sg156
I0
sS'water.n.06'
p255
I0
sg172
I0
sg96
I0
sg59
I0
sg173
I0
ssg26
(dp256
g53
I0
sg52
I2
sg46
I4
sg60
I1
sg55
I0
sg18
I0
sg19
I0
sg24
I0
sg50
I0
sg23
I0
sg56
I0
sg36
I0
sg31
I0
sg30
I0
sg38
I0
sg37
I0
sg16
I0
sg40
I0
sg25
I0
sg20
I0
sg22
I0
sg21
I0
sg39
I0
sg27
I3
sg11
I0
sg10
I0
sg51
I0
sg12
I0
sg61
I0
sg14
I0
sg54
I0
sg42
I0
sg49
I0
sg9
I0
sg44
I0
sg58
I0
sg26
I1
sg15
I0
sg45
I0
sg8
I0
sg43
I0
sg17
I0
sg35
I0
sg34
I0
sg41
I3
sg47
I0
sg33
I0
sg48
I0
sg32
I0
sg57
I0
sg13
I0
sg59
I0
sg28
I0
sg29
I0
ssg15
(dp257
g155
I0
sg175
I0
sg46
I0
sg60
I0
sg55
I3
sg18
I0
sg19
I0
sg24
I0
sg157
I0
sg23
I0
sg56
I0
sg36
I0
sg31
I0
sg30
I0
sg38
I2
sg37
I0
sg16
I1
sg40
I0
sg25
I0
sg20
I0
sg22
I0
sg21
I0
sg39
I0
sg27
I0
sg11
I0
sg10
I0
sg176
I0
sg12
I0
sg61
I0
sg14
I0
sg123
I0
sg42
I0
sg124
I0
sg9
I0
sg44
I0
sg58
I0
sg26
I0
sg15
I1
sg45
I0
sg8
I0
sg43
I0
sg17
I0
sg35
I0
sg34
I0
sg41
I0
sg47
I0
sg33
I0
sg32
I0
sg13
I0
sg59
I0
sg28
I0
sg29
I0
ssg45
(dp258
g53
I0
sg52
I0
sg46
I0
sg55
I0
sg107
I0
sg108
I0
sg50
I0
sg110
I0
sg56
I0
sg111
I0
sg112
I0
sg113
I0
sg38
I0
sg73
I0
sg114
I0
sg40
I0
sg115
I0
sg116
I0
sg78
I0
sg117
I0
sg39
I0
sg80
I0
sg81
I0
sg119
I0
sg51
I3
sg83
I0
sg84
I0
sg54
I0
sg42
I0
sg49
I0
sg44
I0
sg125
I0
sg126
I0
sg45
I4
sg90
I0
sg43
I0
sg106
I0
sg128
I0
sg41
I0
sg47
I0
sg129
I0
sg48
I0
sg130
I0
sg57
I0
sg209
I0
sg131
I0
sg132
I0
ssg8
(dp259
g53
I0
sg60
I0
sg169
I0
sg55
I0
sg70
I0
sg18
I0
sg19
I0
sg24
I0
sg50
I0
sg23
I0
sg36
I0
sg31
I0
sg30
I0
sg37
I0
sg16
I0
sg75
I0
sg25
I0
sg20
I0
sg22
I0
sg21
I0
sg27
I0
sg11
I0
sg10
I0
sg51
I0
sg12
I0
sg61
I0
sg14
I0
sg54
I0
sg49
I0
sg9
I2
sg58
I0
sg26
I0
sg15
I0
sg89
I0
sg8
I4
sg17
I0
sg35
I0
sg34
I0
sg93
I0
sg52
I0
sg33
I0
sg48
I0
sg32
I0
sg57
I1
sg13
I0
sg59
I0
sg28
I0
sg29
I0
ssg43
(dp260
g46
I0
sg107
I0
sg108
I0
sg110
I0
sg56
I0
sg111
I0
sg112
I0
sg113
I0
sg38
I0
sg114
I0
sg40
I0
sg115
I0
sg116
I0
sg194
I0
sg117
I0
sg39
I0
sg119
I0
sg176
I0
sg197
I0
sg198
I0
sg42
I0
sg44
I0
sg125
I0
sg126
I0
sg45
I0
sg43
I0
sg106
I0
sg128
I0
sg41
I0
sg47
I0
sg129
I0
sg130
I0
sg209
I0
sg131
I0
sg132
I0
ssg17
(dp261
g53
I0
sg52
I0
sg46
I0
sg60
I0
sg55
I0
sg18
I0
sg19
I0
sg24
I0
sg50
I0
sg23
I0
sg56
I0
sg36
I0
sg31
I0
sg30
I0
sg38
I0
sg37
I0
sg17
I3
sg40
I0
sg25
I0
sg20
I4
sg22
I0
sg21
I0
sg39
I0
sg27
I0
sg11
I0
sg10
I0
sg51
I0
sg12
I0
sg61
I0
sg14
I0
sg54
I0
sg42
I0
sg49
I0
sg9
I0
sg44
I0
sg58
I0
sg26
I0
sg15
I0
sg45
I0
sg8
I0
sg43
I0
sg16
I0
sg35
I0
sg34
I0
sg41
I0
sg47
I0
sg33
I0
sg48
I0
sg32
I0
sg13
I0
sg59
I0
sg28
I0
sg29
I0
ssg35
(dp262
g105
I0
sg46
I0
sg179
I0
sg18
I0
sg19
I0
sg24
I0
sg109
I0
sg23
I0
sg36
I0
sg31
I0
sg30
I0
sg38
I0
sg37
I0
sg16
I0
sg40
I0
sg25
I0
sg20
I0
sg22
I0
sg21
I0
sg39
I0
sg27
I0
sg11
I0
sg10
I0
sg120
I0
sg12
I0
sg14
I0
sg42
I0
sg9
I0
sg44
I0
sg58
I0
sg26
I0
sg15
I0
sg45
I0
sg8
I0
sg43
I0
sg17
I0
sg35
I0
sg34
I0
sg41
I0
sg47
I0
sg33
I0
sg32
I0
sg13
I0
sg59
I0
sg28
I0
sg29
I0
ssg34
(dp263
g53
I0
sg52
I0
sg46
I0
sg55
I0
sg18
I0
sg19
I0
sg24
I0
sg50
I0
sg23
I0
sg56
I0
sg36
I0
sg31
I0
sg30
I0
sg38
I0
sg37
I0
sg16
I0
sg40
I0
sg25
I0
sg20
I0
sg22
I0
sg21
I0
sg39
I0
sg27
I0
sg11
I0
sg10
I0
sg51
I0
sg12
I0
sg14
I0
sg54
I0
sg42
I0
sg49
I0
sg9
I0
sg44
I0
sg58
I0
sg26
I0
sg15
I0
sg45
I0
sg8
I0
sg43
I2
sg17
I0
sg35
I6
sg34
I6
sg41
I0
sg47
I0
sg33
I0
sg48
I0
sg32
I0
sg57
I0
sg13
I0
sg59
I0
sg28
I0
sg29
I0
ssg41
(dp264
g221
I0
sg46
I0
sg107
I0
sg108
I0
sg110
I0
sg56
I0
sg111
I0
sg112
I0
sg113
I0
sg38
I0
sg114
I0
sg40
I0
sg115
I0
sg116
I0
sg194
I0
sg117
I0
sg39
I0
sg119
I0
sg176
I0
sg197
I0
sg198
I0
sg42
I0
sg215
I0
sg44
I0
sg125
I0
sg126
I0
sg45
I0
sg225
I0
sg43
I0
sg106
I0
sg128
I0
sg41
I0
sg47
I0
sg129
I0
sg130
I0
sg57
I0
sg209
I0
sg131
I0
sg132
I0
ssg47
(dp265
g53
I0
sg52
I0
sg46
I0
sg107
I0
sg108
I0
sg50
I0
sg110
I0
sg111
I0
sg112
I0
sg113
I0
sg38
I0
sg55
I0
sg114
I0
sg40
I0
sg115
I0
sg116
I0
sg117
I0
sg39
I0
sg81
I0
sg119
I0
sg51
I0
sg83
I0
sg84
I0
sg54
I0
sg42
I0
sg49
I0
sg44
I0
sg125
I0
sg126
I0
sg45
I0
sg90
I0
sg43
I0
sg106
I0
sg128
I0
sg41
I0
sg47
I4
sg129
I0
sg48
I0
sg130
I0
sg131
I0
sg132
I0
ssg33
(dp266
g105
I0
sg46
I0
sg18
I0
sg19
I0
sg24
I0
sg109
I0
sg23
I0
sg56
I0
sg36
I0
sg31
I0
sg30
I0
sg38
I0
sg37
I0
sg16
I0
sg40
I0
sg25
I0
sg20
I0
sg22
I0
sg21
I0
sg39
I0
sg27
I0
sg11
I0
sg10
I0
sg120
I0
sg12
I0
sg14
I0
sg42
I0
sg9
I0
sg44
I0
sg26
I0
sg15
I0
sg45
I0
sg8
I0
sg43
I0
sg17
I0
sg35
I0
sg34
I0
sg41
I0
sg47
I0
sg33
I0
sg32
I0
sg13
I0
sg28
I0
sg29
I0
ssg48
(dp267
g72
I0
sg89
I0
sg49
I0
sg52
I0
sg83
I0
sg70
I0
sg84
I0
sg74
I0
sg82
I0
sg90
I0
sg51
I0
sg92
I0
sg77
I0
sg53
I0
sg48
I0
sg95
I0
sg54
I0
sg87
I0
sg50
I0
sg81
I0
ssg32
(dp268
g53
I0
sg52
I0
sg46
I0
sg179
I0
sg18
I0
sg19
I0
sg24
I0
sg50
I0
sg23
I0
sg56
I0
sg36
I0
sg31
I0
sg30
I0
sg38
I0
sg37
I0
sg16
I0
sg40
I0
sg25
I0
sg20
I0
sg22
I0
sg21
I0
sg39
I0
sg27
I0
sg11
I0
sg10
I0
sg51
I0
sg12
I0
sg14
I0
sg54
I0
sg42
I0
sg49
I0
sg9
I0
sg44
I0
sg58
I0
sg26
I0
sg15
I0
sg45
I0
sg8
I0
sg43
I0
sg17
I0
sg35
I0
sg34
I0
sg41
I0
sg47
I0
sg33
I4
sg48
I1
sg32
I2
sg57
I0
sg13
I0
sg59
I0
sg28
I0
sg29
I0
ssg57
(dp269
S'pan.n.01'
p270
I0
sS'mug.n.04'
p271
I0
sg242
I0
sS'slice.v.03'
p272
I0
sg75
I0
sg241
I0
sg225
I0
sS'slice.n.06'
p273
I0
sS'water.n.06'
p274
I0
sg93
I0
sS'fill.v.01'
p275
I0
sg221
I0
sS'kettle.n.01'
p276
I0
sg57
I0
sg215
I0
sS'piece.n.08'
p277
I0
sg243
I0
sg244
I0
ssg13
(dp278
g178
I0
sg60
I0
sg179
I0
sg18
I0
sg19
I0
sg24
I0
sg23
I0
sg56
I0
sg36
I0
sg31
I0
sg30
I0
sg190
I0
sg37
I0
sg16
I0
sg161
I0
sg25
I0
sg20
I0
sg22
I0
sg21
I0
sg27
I0
sg11
I0
sg10
I0
sg176
I0
sg12
I0
sg61
I0
sg14
I0
sg199
I0
sg9
I0
sg200
I0
sg58
I0
sg26
I0
sg15
I0
sg203
I0
sg8
I0
sg204
I0
sg17
I0
sg35
I0
sg34
I0
sg206
I0
sg33
I0
sg32
I0
sg13
I0
sg59
I0
sg28
I0
sg29
I0
ssg59
(dp279
g178
I0
sg248
I0
sg68
I0
sg158
I0
sg166
I0
sg179
I0
sg249
I0
sg161
I0
sg162
I0
sg250
I0
sg164
I0
sg222
I0
sg251
I0
sg223
I0
sg224
I0
sg86
I0
sg58
I0
sg252
I0
sg253
I0
sg254
I0
sg156
I0
sg255
I0
sg172
I0
sg96
I0
sg59
I0
sg173
I0
ssg28
(dp280
g105
I0
sg60
I0
sg46
I0
sg179
I0
sg18
I0
sg19
I0
sg24
I0
sg109
I0
sg23
I0
sg56
I0
sg36
I0
sg31
I0
sg30
I0
sg38
I0
sg37
I0
sg16
I0
sg40
I0
sg25
I0
sg20
I0
sg22
I0
sg21
I0
sg39
I0
sg27
I0
sg11
I0
sg10
I0
sg120
I0
sg12
I0
sg61
I0
sg14
I0
sg42
I0
sg215
I0
sg9
I0
sg44
I0
sg58
I0
sg26
I0
sg15
I0
sg45
I0
sg8
I0
sg43
I0
sg17
I0
sg35
I0
sg34
I0
sg41
I0
sg47
I0
sg33
I0
sg32
I0
sg57
I0
sg13
I0
sg59
I1
sg28
I0
sg29
I6
ssg29
(dp281
g105
I0
sg60
I0
sg46
I0
sg138
I0
sg18
I0
sg19
I0
sg24
I0
sg109
I0
sg23
I0
sg56
I0
sg36
I0
sg31
I0
sg30
I0
sg38
I0
sg37
I0
sg16
I0
sg40
I0
sg25
I0
sg20
I0
sg22
I0
sg21
I0
sg39
I0
sg27
I0
sg11
I0
sg10
I0
sg120
I0
sg12
I0
sg61
I0
sg14
I0
sg42
I0
sg215
I0
sg9
I0
sg44
I0
sg26
I0
sg15
I0
sg45
I0
sg8
I0
sg43
I0
sg17
I0
sg35
I0
sg34
I0
sg41
I0
sg47
I0
sg33
I0
sg32
I0
sg57
I0
sg13
I0
sg28
I0
sg29
I0
sssb.