ccopy_reg
_reconstructor
p0
(cutils.eval
ConfusionMatrix
p1
c__builtin__
object
p2
Ntp3
Rp4
(dp5
S'labels'
p6
(lp7
S'knife.n.01'
p8
aS'tongue.n.03'
p9
aS'banana.n.02'
p10
aS'slice.v.03'
p11
aS'opening.n.01'
p12
aS'gap.n.05'
p13
aS'fill.v.09'
p14
aS'batter.n.02'
p15
aS'fill.v.01'
p16
aS'pitcher.n.02'
p17
aS'pitcher.n.03'
p18
aS'milk.n.01'
p19
aS'milk.n.02'
p20
aS'tomato.n.01'
p21
aS'piece.n.08'
p22
aS'slice.n.04'
p23
aS'onion.n.03'
p24
aS'onion.n.02'
p25
aS'mustard.n.02'
p26
aS'mustard.n.01'
p27
aS'meet.v.04'
p28
aS'kettle.n.01'
p29
aS'kettle.n.02'
p30
aS'water.n.06'
p31
aS'pan.n.01'
p32
aS'pan.n.02'
p33
aS'water.n.03'
p34
aS'mug.n.04'
p35
aS'chump.n.01'
p36
asS'instanceCount'
p37
I21
sS'matrix'
p38
(dp39
g15
(dp40
S'batter.n.02'
p41
I1
ssg19
(dp42
g20
I1
ssg20
(dp43
g20
I0
ssg32
(dp44
g33
I1
ssg27
(dp45
g27
I0
ssg26
(dp46
g27
I1
ssg13
(dp47
g13
I0
ssg14
(dp48
S'fill.v.09'
p49
I1
ssg21
(dp50
S'tomato.n.01'
p51
I1
ssg16
(dp52
g28
I1
sS'fill.v.09'
p53
I3
ssg18
(dp54
g18
I0
ssg17
(dp55
g18
I1
ssg11
(dp56
S'slice.v.03'
p57
I1
ssg36
(dp58
g36
I0
ssg8
(dp59
g9
I1
ssg10
(dp60
S'banana.n.02'
p61
I1
ssg28
(dp62
g28
I0
ssg33
(dp63
g33
I0
ssg22
(dp64
g23
I1
ssg12
(dp65
g13
I1
ssg35
(dp66
g36
I1
ssg34
(dp67
g34
I0
ssg31
(dp68
g34
I1
sS'water.n.06'
p69
I1
ssg23
(dp70
g23
I0
ssg30
(dp71
g30
I0
ssg29
(dp72
g30
I1
ssg9
(dp73
g9
I0
ssg24
(dp74
g25
I1
ssg25
(dp75
g25
I0
sssb.