ccopy_reg
_reconstructor
p0
(cutils.eval
ConfusionMatrix
p1
c__builtin__
object
p2
Ntp3
Rp4
(dp5
S'labels'
p6
(lp7
S'tomato.n.01'
p8
aS'tomato.n.02'
p9
aS'piece.n.08'
p10
aS'slice.n.04'
p11
aS'onion.n.03'
p12
aS'onion.n.02'
p13
aS'mustard.n.02'
p14
aS'fill.v.01'
p15
aS'kettle.n.01'
p16
aS'water.n.06'
p17
aS'pan.n.01'
p18
aS'pan.n.03'
p19
aS'mug.n.04'
p20
aS'slice.n.06'
p21
aS'slice.v.03'
p22
aS'cheese.n.01'
p23
aS'flesh.n.01'
p24
aS'pulp.n.02'
p25
asS'instanceCount'
p26
I18
sS'matrix'
p27
(dp28
g18
(dp29
g19
I1
ssg20
(dp30
S'mug.n.04'
p31
I1
ssg14
(dp32
S'mustard.n.02'
p33
I1
ssg22
(dp34
S'slice.v.03'
p35
I3
ssg9
(dp36
g9
I0
ssg8
(dp37
g9
I1
ssg24
(dp38
g25
I1
ssg21
(dp39
g21
I0
ssg17
(dp40
S'water.n.06'
p41
I2
ssg11
(dp42
g11
I0
ssg15
(dp43
S'fill.v.01'
p44
I3
ssg23
(dp45
S'cheese.n.01'
p46
I1
ssg16
(dp47
S'kettle.n.01'
p48
I1
ssg25
(dp49
g25
I0
ssg19
(dp50
g19
I0
ssg10
(dp51
g21
I1
sg11
I1
ssg12
(dp52
g13
I1
ssg13
(dp53
g13
I0
sssb.