ccopy_reg
_reconstructor
p0
(cutils.eval
ConfusionMatrix
p1
c__builtin__
object
p2
Ntp3
Rp4
(dp5
S'labels'
p6
(lp7
S'fill.v.01'
p8
aS'fill.v.09'
p9
aS'pitcher.n.02'
p10
aS'pitcher.n.03'
p11
aS'milk.n.01'
p12
aS'milk.n.04'
p13
aS'tomato.n.01'
p14
aS'piece.n.08'
p15
aS'cut.n.05'
p16
aS'onion.n.03'
p17
aS'onion.n.02'
p18
aS'mustard.n.02'
p19
aS'kettle.n.01'
p20
aS'kettle.n.02'
p21
aS'water.n.06'
p22
aS'water_system.n.02'
p23
aS'pan.n.01'
p24
aS'pan.n.04'
p25
aS'foam.n.01'
p26
aS'mug.n.04'
p27
aS'chump.n.01'
p28
aS'slice.n.06'
p29
aS'slice.v.03'
p30
aS'cheese.n.01'
p31
asS'instanceCount'
p32
I20
sS'matrix'
p33
(dp34
g31
(dp35
S'cheese.n.01'
p36
I1
ssg23
(dp37
g23
I0
ssg13
(dp38
g13
I0
ssg26
(dp39
S'foam.n.01'
p40
I1
ssg12
(dp41
g13
I1
ssg24
(dp42
g25
I1
ssg19
(dp43
S'mustard.n.02'
p44
I1
ssg25
(dp45
g25
I0
ssg9
(dp46
g9
I0
ssg14
(dp47
S'tomato.n.01'
p48
I1
ssg8
(dp49
g9
I4
ssg11
(dp50
g11
I0
ssg10
(dp51
g11
I1
ssg16
(dp52
g16
I0
ssg30
(dp53
S'slice.v.03'
p54
I2
ssg28
(dp55
g28
I0
ssg15
(dp56
g29
I1
sg16
I1
ssg27
(dp57
g28
I1
ssg29
(dp58
g29
I0
ssg22
(dp59
g23
I2
ssg21
(dp60
g21
I0
ssg20
(dp61
g21
I1
ssg17
(dp62
g18
I1
ssg18
(dp63
g18
I0
sssb.