ccopy_reg
_reconstructor
p0
(cutils.eval
ConfusionMatrix
p1
c__builtin__
object
p2
Ntp3
Rp4
(dp5
S'labels'
p6
(lp7
S'put.v.01'
p8
aS'soup.n.01'
p9
aS'microwave.n.02'
p10
aS'pan.n.03'
p11
aS'chicken.n.01'
p12
aS'steak.n.01'
p13
aS'oven.n.01'
p14
aS'coca_cola.n.01'
p15
aS'electric_refrigerator.n.01'
p16
aS'rib.n.03'
p17
aS'rib.n.01'
p18
aS'salt.n.02'
p19
aS'jam.n.01'
p20
aS'refrigerator.n.01'
p21
aS'onion.n.01'
p22
aS'onion.n.03'
p23
aS'beef.n.02'
p24
aS'gripe.n.01'
p25
aS'plate.n.04'
p26
aS'plate.n.13'
p27
aS'blender.n.01'
p28
aS'banana.n.02'
p29
aS'cake.n.03'
p30
aS'patty.n.01'
p31
aS'whipped_cream.n.01'
p32
aS'mug.n.04'
p33
aS'microwave.n.01'
p34
asS'instanceCount'
p35
I31
sS'matrix'
p36
(dp37
g27
(dp38
g27
I0
ssg12
(dp39
S'chicken.n.01'
p40
I1
ssg24
(dp41
g25
I1
ssg9
(dp42
S'soup.n.01'
p43
I1
ssg21
(dp44
S'refrigerator.n.01'
p45
I1
ssg15
(dp46
S'coca_cola.n.01'
p47
I1
ssg11
(dp48
S'pan.n.03'
p49
I1
ssg34
(dp50
g34
I0
ssg10
(dp51
g34
I1
sS'microwave.n.02'
p52
I1
ssg16
(dp53
S'electric_refrigerator.n.01'
p54
I1
ssg26
(dp55
g27
I1
ssg19
(dp56
S'salt.n.02'
p57
I1
ssg29
(dp58
S'banana.n.02'
p59
I1
ssg17
(dp60
g18
I1
ssg18
(dp61
g18
I0
ssg25
(dp62
g25
I0
ssg13
(dp63
S'steak.n.01'
p64
I1
ssg14
(dp65
S'oven.n.01'
p66
I1
ssg31
(dp67
g31
I0
ssg33
(dp68
S'mug.n.04'
p69
I1
ssg28
(dp70
S'blender.n.01'
p71
I1
ssg20
(dp72
S'jam.n.01'
p73
I1
ssg8
(dp74
S'put.v.01'
p75
I10
ssg32
(dp76
S'whipped_cream.n.01'
p77
I1
ssg30
(dp78
g31
I1
ssg22
(dp79
g23
I1
ssg23
(dp80
g23
I0
sssb.