ccopy_reg
_reconstructor
p0
(cutils.eval
ConfusionMatrix
p1
c__builtin__
object
p2
Ntp3
Rp4
(dp5
S'labels'
p6
(lp7
S'put.v.01'
p8
aS'cake.n.03'
p9
aS'whipped_cream.n.01'
p10
aS'mug.n.04'
p11
aS'countenance.n.03'
p12
aS'microwave.n.02'
p13
aS'bowl.n.01'
p14
aS'bowl.n.03'
p15
aS'cherry.n.03'
p16
aS'dish.n.02'
p17
aS'oven.n.01'
p18
aS'spread.n.05'
p19
aS'bread.n.01'
p20
aS'pan.n.03'
p21
aS'pizza.n.01'
p22
aS'french_fries.n.01'
p23
aS'dressing.n.01'
p24
aS'dressing.n.04'
p25
aS'salad.n.01'
p26
aS'spoon.n.01'
p27
aS'batter.n.02'
p28
aS'rice.n.01'
p29
asS'instanceCount'
p30
I29
sS'matrix'
p31
(dp32
g20
(dp33
S'bread.n.01'
p34
I1
ssg15
(dp35
g15
I0
ssg14
(dp36
g15
I2
ssg17
(dp37
S'dish.n.02'
p38
I1
ssg24
(dp39
g25
I1
ssg21
(dp40
S'pan.n.03'
p41
I1
ssg13
(dp42
S'microwave.n.02'
p43
I1
ssg27
(dp44
S'spoon.n.01'
p45
I1
ssg12
(dp46
g12
I0
ssg19
(dp47
S'spread.n.05'
p48
I1
ssg10
(dp49
S'whipped_cream.n.01'
p50
I1
ssg18
(dp51
S'oven.n.01'
p52
I1
ssg11
(dp53
g12
I1
ssg25
(dp54
g25
I0
ssg29
(dp55
S'rice.n.01'
p56
I1
ssg8
(dp57
S'put.v.01'
p58
I10
ssg22
(dp59
S'pizza.n.01'
p60
I1
ssg9
(dp61
S'cake.n.03'
p62
I1
ssg23
(dp63
S'french_fries.n.01'
p64
I1
ssg16
(dp65
S'cherry.n.03'
p66
I1
ssg26
(dp67
S'salad.n.01'
p68
I1
ssg28
(dp69
S'batter.n.02'
p70
I1
sssb.