ccopy_reg
_reconstructor
p0
(cutils.eval
ConfusionMatrix
p1
c__builtin__
object
p2
Ntp3
Rp4
(dp5
S'labels'
p6
(lp7
S'put.v.01'
p8
aS'french_fries.n.01'
p9
aS'dressing.n.01'
p10
aS'dressing.n.04'
p11
aS'salad.n.01'
p12
aS'spoon.n.01'
p13
aS'batter.n.02'
p14
aS'bowl.n.01'
p15
aS'bowl.n.08'
p16
aS'rice.n.01'
p17
aS'pepper.n.03'
p18
aS'capsicum.n.01'
p19
aS'salt.n.02'
p20
aS'salt.n.04'
p21
aS'egg.n.02'
p22
aS'salmon.n.03'
p23
aS'plate.n.04'
p24
aS'plate.n.13'
p25
aS'soup.n.01'
p26
aS'microwave.n.02'
p27
aS'pan.n.03'
p28
aS'chicken.n.01'
p29
aS'steak.n.01'
p30
aS'oven.n.01'
p31
aS'coca_cola.n.01'
p32
aS'coke.n.01'
p33
aS'electric_refrigerator.n.01'
p34
asS'instanceCount'
p35
I30
sS'matrix'
p36
(dp37
g25
(dp38
g25
I0
ssg33
(dp39
g33
I0
ssg29
(dp40
S'chicken.n.01'
p41
I1
ssg26
(dp42
S'soup.n.01'
p43
I1
ssg15
(dp44
g16
I1
ssg14
(dp45
S'batter.n.02'
p46
I1
ssg16
(dp47
g16
I0
ssg23
(dp48
S'salmon.n.03'
p49
I1
ssg28
(dp50
S'pan.n.03'
p51
I1
ssg32
(dp52
g33
I1
ssg27
(dp53
S'microwave.n.02'
p54
I1
ssg22
(dp55
S'egg.n.02'
p56
I1
ssg34
(dp57
S'electric_refrigerator.n.01'
p58
I1
ssg13
(dp59
S'spoon.n.01'
p60
I1
ssg19
(dp61
g19
I0
ssg20
(dp62
g21
I1
ssg21
(dp63
g21
I0
ssg24
(dp64
g25
I1
ssg18
(dp65
g19
I1
ssg30
(dp66
S'steak.n.01'
p67
I1
ssg31
(dp68
S'oven.n.01'
p69
I1
ssg11
(dp70
g11
I0
ssg17
(dp71
S'rice.n.01'
p72
I1
ssg8
(dp73
S'put.v.01'
p74
I10
ssg10
(dp75
g11
I1
ssg9
(dp76
S'french_fries.n.01'
p77
I1
ssg12
(dp78
S'salad.n.01'
p79
I1
sssb.