ccopy_reg
_reconstructor
p0
(cutils.eval
ConfusionMatrix
p1
c__builtin__
object
p2
Ntp3
Rp4
(dp5
S'labels'
p6
(lp7
S'put.v.01'
p8
aS'spoon.n.01'
p9
aS'batter.n.02'
p10
aS'bowl.n.01'
p11
aS'rice.n.01'
p12
aS'pepper.n.03'
p13
aS'capsicum.n.01'
p14
aS'salt.n.02'
p15
aS'salt.n.04'
p16
aS'egg.n.02'
p17
aS'salmon.n.03'
p18
aS'plate.n.04'
p19
aS'plate.n.13'
p20
aS'soup.n.01'
p21
aS'microwave.n.02'
p22
aS'pan.n.03'
p23
aS'chicken.n.01'
p24
aS'steak.n.01'
p25
aS'oven.n.01'
p26
aS'coca_cola.n.01'
p27
aS'coke.n.01'
p28
aS'electric_refrigerator.n.01'
p29
aS'rib.n.03'
p30
aS'rib.n.01'
p31
aS'jam.n.01'
p32
aS'refrigerator.n.01'
p33
asS'instanceCount'
p34
I31
sS'matrix'
p35
(dp36
g20
(dp37
g20
I0
ssg28
(dp38
g28
I0
ssg32
(dp39
S'jam.n.01'
p40
I1
ssg24
(dp41
S'chicken.n.01'
p42
I1
ssg21
(dp43
S'soup.n.01'
p44
I1
ssg33
(dp45
S'refrigerator.n.01'
p46
I1
ssg11
(dp47
S'bowl.n.01'
p48
I1
ssg10
(dp49
S'batter.n.02'
p50
I1
ssg27
(dp51
g28
I1
ssg18
(dp52
S'salmon.n.03'
p53
I1
ssg23
(dp54
S'pan.n.03'
p55
I1
ssg22
(dp56
S'microwave.n.02'
p57
I1
ssg17
(dp58
S'egg.n.02'
p59
I1
ssg29
(dp60
S'electric_refrigerator.n.01'
p61
I1
ssg9
(dp62
S'spoon.n.01'
p63
I1
ssg14
(dp64
g14
I0
ssg15
(dp65
S'salt.n.02'
p66
I1
sg16
I1
ssg16
(dp67
g16
I0
ssg19
(dp68
g20
I1
ssg31
(dp69
g31
I0
ssg13
(dp70
g14
I1
ssg25
(dp71
S'steak.n.01'
p72
I1
ssg26
(dp73
S'oven.n.01'
p74
I1
ssg30
(dp75
g31
I1
ssg12
(dp76
S'rice.n.01'
p77
I1
ssg8
(dp78
S'put.v.01'
p79
I10
sssb.