ccopy_reg
_reconstructor
p0
(cutils.eval
ConfusionMatrix
p1
c__builtin__
object
p2
Ntp3
Rp4
(dp5
S'labels'
p6
(lp7
S'put.v.01'
p8
aS'onion.n.01'
p9
aS'onion.n.03'
p10
aS'beef.n.02'
p11
aS'gripe.n.01'
p12
aS'plate.n.04'
p13
aS'blender.n.01'
p14
aS'banana.n.02'
p15
aS'cake.n.03'
p16
aS'patty.n.01'
p17
aS'whipped_cream.n.01'
p18
aS'mug.n.04'
p19
aS'countenance.n.03'
p20
aS'microwave.n.02'
p21
aS'bowl.n.01'
p22
aS'bowl.n.03'
p23
aS'cherry.n.03'
p24
aS'dish.n.02'
p25
aS'oven.n.01'
p26
aS'spread.n.05'
p27
aS'paste.n.03'
p28
aS'bread.n.01'
p29
aS'pan.n.03'
p30
aS'pizza.n.01'
p31
aS'french_fries.n.01'
p32
aS'dressing.n.01'
p33
aS'dressing.n.04'
p34
aS'salad.n.01'
p35
asS'instanceCount'
p36
I30
sS'matrix'
p37
(dp38
g11
(dp39
g12
I1
ssg29
(dp40
S'bread.n.01'
p41
I1
ssg23
(dp42
g23
I0
ssg22
(dp43
g23
I1
ssg25
(dp44
S'dish.n.02'
p45
I1
ssg33
(dp46
g34
I1
ssg30
(dp47
S'pan.n.03'
p48
I1
ssg15
(dp49
S'banana.n.02'
p50
I1
ssg21
(dp51
S'microwave.n.02'
p52
I1
ssg17
(dp53
g17
I0
ssg20
(dp54
g20
I0
ssg13
(dp55
S'plate.n.04'
p56
I1
ssg12
(dp57
g12
I0
ssg27
(dp58
g28
I1
ssg18
(dp59
S'whipped_cream.n.01'
p60
I1
ssg26
(dp61
S'oven.n.01'
p62
I1
ssg28
(dp63
g28
I0
ssg19
(dp64
g20
I1
ssg14
(dp65
S'blender.n.01'
p66
I1
ssg35
(dp67
S'salad.n.01'
p68
I1
ssg34
(dp69
g34
I0
ssg8
(dp70
S'put.v.01'
p71
I10
ssg31
(dp72
S'pizza.n.01'
p73
I1
ssg16
(dp74
g17
I1
ssg32
(dp75
S'french_fries.n.01'
p76
I1
ssg24
(dp77
S'cherry.n.03'
p78
I1
ssg9
(dp79
g10
I1
ssg10
(dp80
g10
I0
sssb.