ccopy_reg
_reconstructor
p0
(cutils.eval
ConfusionMatrix
p1
c__builtin__
object
p2
Ntp3
Rp4
(dp5
S'labels'
p6
(lp7
S'put.v.01'
p8
aS'onion.n.01'
p9
aS'onion.n.03'
p10
aS'beef.n.02'
p11
aS'gripe.n.01'
p12
aS'plate.n.04'
p13
aS'blender.n.01'
p14
aS'banana.n.02'
p15
aS'cake.n.03'
p16
aS'patty.n.01'
p17
aS'whipped_cream.n.01'
p18
aS'mug.n.04'
p19
aS'countenance.n.03'
p20
aS'microwave.n.02'
p21
aS'bowl.n.01'
p22
aS'bowl.n.03'
p23
aS'cherry.n.03'
p24
aS'dish.n.02'
p25
aS'oven.n.01'
p26
aS'spread.n.05'
p27
aS'paste.n.03'
p28
aS'bread.n.01'
p29
aS'pan.n.03'
p30
aS'pizza.n.01'
p31
aS'french_fries.n.01'
p32
aS'dressing.n.01'
p33
aS'dressing.n.04'
p34
aS'salad.n.01'
p35
aS'spoon.n.01'
p36
aS'batter.n.02'
p37
aS'bowl.n.08'
p38
aS'rice.n.01'
p39
aS'pepper.n.03'
p40
aS'pepper.n.04'
p41
aS'salt.n.02'
p42
aS'salt.n.04'
p43
aS'egg.n.02'
p44
aS'egg.n.01'
p45
aS'salmon.n.03'
p46
aS'plate.n.13'
p47
aS'capsicum.n.01'
p48
aS'soup.n.01'
p49
aS'chicken.n.01'
p50
aS'steak.n.01'
p51
aS'coca_cola.n.01'
p52
aS'coke.n.01'
p53
aS'electric_refrigerator.n.01'
p54
aS'rib.n.03'
p55
aS'rib.n.01'
p56
aS'jam.n.01'
p57
aS'refrigerator.n.01'
p58
aS'microwave.n.01'
p59
asS'instanceCount'
p60
I305
sS'matrix'
p61
(dp62
g47
(dp63
g47
I0
sg53
I0
sg57
I0
sg50
I0
sS'beef.n.02'
p64
I0
sg49
I0
sg58
I0
sS'bread.n.01'
p65
I0
sS'bowl.n.03'
p66
I0
sS'bowl.n.01'
p67
I0
sS'dish.n.02'
p68
I0
sS'dressing.n.01'
p69
I0
sg38
I0
sg46
I0
sS'pan.n.03'
p70
I0
sg52
I0
sg59
I0
sS'microwave.n.02'
p71
I0
sg44
I0
sg45
I0
sg54
I0
sg36
I0
sg48
I0
sg42
I0
sS'banana.n.02'
p72
I0
sg43
I0
sS'plate.n.04'
p73
I0
sg41
I0
sg56
I0
sg40
I0
sS'spread.n.05'
p74
I0
sg51
I0
sS'oven.n.01'
p75
I0
sS'gripe.n.01'
p76
I0
sS'mug.n.04'
p77
I0
sS'blender.n.01'
p78
I0
sg55
I0
sS'onion.n.01'
p79
I0
sS'dressing.n.04'
p80
I0
sg39
I0
sS'put.v.01'
p81
I0
sS'pizza.n.01'
p82
I0
sS'whipped_cream.n.01'
p83
I0
sS'cake.n.03'
p84
I0
sS'french_fries.n.01'
p85
I0
sS'patty.n.01'
p86
I0
sS'cherry.n.03'
p87
I0
sS'salad.n.01'
p88
I0
sS'onion.n.03'
p89
I0
sg37
I0
ssg53
(dp90
g53
I0
sS'plate.n.13'
p91
I0
sg57
I0
sg50
I0
sg49
I0
sg58
I0
sS'bowl.n.01'
p92
I0
sS'batter.n.02'
p93
I0
sg52
I0
sS'salmon.n.03'
p94
I0
sS'pan.n.03'
p95
I0
sS'bowl.n.08'
p96
I0
sg71
I0
sS'egg.n.02'
p97
I0
sg54
I0
sS'spoon.n.01'
p98
I0
sg48
I0
sS'salt.n.02'
p99
I0
sS'salt.n.04'
p100
I0
sS'plate.n.04'
p101
I0
sg56
I0
sS'pepper.n.03'
p102
I0
sg51
I0
sS'oven.n.01'
p103
I0
sg55
I0
sS'dressing.n.04'
p104
I0
sS'rice.n.01'
p105
I0
sS'put.v.01'
p106
I0
sS'dressing.n.01'
p107
I0
sS'french_fries.n.01'
p108
I0
sS'salad.n.01'
p109
I0
ssg57
(dp110
g91
I0
sg53
I0
sg57
I5
sg50
I0
sg64
I0
sg49
I0
sg58
I0
sS'bread.n.01'
p111
I0
sS'bowl.n.03'
p112
I0
sg92
I0
sg93
I0
sg52
I0
sg94
I0
sg95
I0
sg59
I0
sS'countenance.n.03'
p113
I0
sg71
I0
sg97
I0
sg54
I0
sg98
I0
sg48
I0
sg99
I0
sg72
I0
sg100
I0
sg101
I0
sg56
I0
sg102
I0
sS'spread.n.05'
p114
I0
sg51
I0
sg103
I0
sg76
I0
sg77
I0
sg78
I0
sg55
I0
sg105
I0
sg106
I0
sS'pizza.n.01'
p115
I0
sg83
I0
sg84
I0
sg86
I0
sS'cherry.n.03'
p116
I0
sg79
I0
sg89
I0
sS'dish.n.02'
p117
I0
ssg50
(dp118
g91
I0
sg53
I0
sg57
I0
sg50
I5
sg64
I0
sg49
I0
sg58
I0
sS'bread.n.01'
p119
I0
sg92
I0
sg93
I0
sS'dressing.n.01'
p120
I0
sg52
I0
sg94
I0
sg95
I0
sg96
I0
sg59
I0
sg71
I0
sg97
I0
sS'egg.n.01'
p121
I0
sg54
I0
sg98
I0
sg48
I0
sg99
I0
sg72
I0
sg100
I0
sg101
I0
sS'pepper.n.04'
p122
I0
sg56
I0
sg102
I0
sS'spread.n.05'
p123
I0
sg51
I0
sg103
I0
sg76
I0
sg77
I0
sg78
I0
sg55
I0
sg79
I0
sS'dressing.n.04'
p124
I0
sg105
I0
sg106
I0
sS'pizza.n.01'
p125
I0
sg83
I0
sg84
I0
sS'french_fries.n.01'
p126
I0
sg86
I0
sS'salad.n.01'
p127
I0
sg89
I0
ssg11
(dp128
S'plate.n.13'
p129
I0
sS'chicken.n.01'
p130
I0
sg11
I0
sS'soup.n.01'
p131
I0
sS'refrigerator.n.01'
p132
I0
sg29
I0
sg23
I0
sg22
I0
sg25
I0
sg33
I0
sS'salmon.n.03'
p133
I0
sg30
I0
sS'coca_cola.n.01'
p134
I0
sg59
I0
sg15
I0
sg21
I0
sS'egg.n.02'
p135
I0
sg17
I0
sS'capsicum.n.01'
p136
I0
sS'salt.n.02'
p137
I0
sg20
I0
sS'salt.n.04'
p138
I0
sg13
I0
sS'rib.n.01'
p139
I0
sg12
I5
sg27
I0
sg18
I0
sg26
I0
sS'pepper.n.03'
p140
I0
sg28
I0
sg19
I0
sg14
I0
sS'rib.n.03'
p141
I0
sg35
I0
sg34
I0
sS'jam.n.01'
p142
I0
sg8
I0
sg31
I0
sS'electric_refrigerator.n.01'
p143
I0
sS'steak.n.01'
p144
I0
sg16
I0
sg32
I0
sg24
I0
sg9
I0
sg10
I0
ssg49
(dp145
g91
I0
sg53
I0
sg57
I0
sg50
I0
sg64
I0
sg49
I5
sg58
I0
sg119
I0
sg92
I0
sg93
I0
sg120
I0
sg52
I0
sg94
I0
sg95
I0
sg96
I0
sg59
I0
sg71
I0
sg97
I0
sg121
I0
sg54
I0
sg98
I0
sg48
I0
sg99
I0
sg72
I0
sg100
I0
sg101
I0
sg122
I0
sg56
I0
sg102
I0
sg123
I0
sg51
I0
sg103
I0
sg76
I0
sg77
I0
sg78
I0
sg55
I0
sg79
I0
sg124
I0
sg105
I0
sg106
I0
sg125
I0
sg83
I0
sg84
I0
sg126
I0
sg86
I0
sg127
I0
sg89
I0
ssg58
(dp146
g91
I0
sg53
I0
sg57
I0
sg50
I0
sg64
I0
sg49
I0
sg58
I5
sg111
I0
sg112
I0
sg92
I0
sg93
I0
sg52
I0
sg94
I0
sg95
I0
sg59
I0
sg113
I0
sg71
I0
sg97
I0
sg54
I0
sg98
I0
sg48
I0
sg99
I0
sg72
I0
sg100
I0
sg101
I0
sg56
I0
sg102
I0
sg114
I0
sg51
I0
sg103
I0
sg76
I0
sg77
I0
sg78
I0
sg55
I0
sg105
I0
sg106
I0
sg115
I0
sg83
I0
sg84
I0
sg86
I0
sg116
I0
sg79
I0
sg89
I0
sg117
I0
ssg29
(dp147
g47
I0
sS'jam.n.01'
p148
I0
sS'chicken.n.01'
p149
I0
sg11
I0
sS'soup.n.01'
p150
I0
sS'refrigerator.n.01'
p151
I0
sg29
I5
sg23
I0
sg22
I0
sg25
I0
sg33
I0
sg46
I0
sg30
I0
sg38
I0
sg15
I0
sg21
I0
sg44
I0
sg45
I0
sg17
I0
sg36
I0
sS'rib.n.03'
p152
I0
sg42
I0
sg20
I0
sg43
I0
sg13
I0
sg41
I0
sS'rib.n.01'
p153
I0
sg12
I0
sg27
I0
sg18
I0
sg26
I0
sg40
I0
sg28
I0
sg19
I0
sg14
I0
sg35
I0
sg34
I0
sg39
I0
sg8
I0
sg31
I0
sg16
I0
sg32
I0
sg24
I0
sg9
I0
sg10
I0
sg37
I0
ssg23
(dp154
g47
I0
sg148
I0
sg11
I0
sg151
I0
sg29
I0
sg23
I0
sg22
I0
sg25
I0
sg33
I0
sg46
I0
sg30
I0
sg38
I0
sS'microwave.n.01'
p155
I0
sg15
I0
sg21
I0
sg44
I0
sg45
I0
sg17
I0
sg36
I0
sg152
I0
sg42
I0
sS'coca_cola.n.01'
p156
I0
sg20
I0
sg43
I0
sg13
I0
sg41
I0
sg153
I0
sg12
I0
sg27
I0
sg18
I0
sg26
I0
sg40
I0
sg28
I0
sg19
I0
sg14
I0
sg35
I0
sg34
I0
sg39
I0
sg8
I0
sg31
I0
sS'electric_refrigerator.n.01'
p157
I0
sS'steak.n.01'
p158
I0
sg16
I0
sg32
I0
sg24
I0
sg9
I0
sg10
I0
sg37
I0
ssg22
(dp159
g47
I0
sg53
I0
sg57
I0
sg50
I0
sg11
I0
sg49
I0
sg58
I0
sg29
I0
sg23
I6
sg22
I2
sg25
I0
sg33
I0
sg46
I0
sg30
I0
sg38
I2
sg155
I0
sg15
I0
sg21
I0
sg44
I0
sg45
I0
sg17
I0
sg36
I0
sg48
I0
sg42
I0
sg52
I0
sg20
I0
sg43
I0
sg13
I0
sg41
I0
sg56
I0
sg12
I0
sg27
I0
sg18
I0
sg26
I0
sg40
I0
sg28
I0
sg19
I0
sg14
I0
sg55
I0
sg35
I0
sg34
I0
sg39
I0
sg8
I0
sg31
I0
sg54
I0
sg51
I0
sg16
I0
sg32
I0
sg24
I0
sg9
I0
sg10
I0
sg37
I0
ssg25
(dp160
g47
I0
sg148
I0
sg11
I0
sg151
I0
sg29
I0
sg23
I0
sg22
I0
sg25
I5
sg33
I0
sg46
I0
sg30
I0
sg38
I0
sg155
I0
sg15
I0
sg21
I0
sg44
I0
sg45
I0
sg17
I0
sg36
I0
sg152
I0
sg42
I0
sg156
I0
sg20
I0
sg43
I0
sg13
I0
sg41
I0
sg153
I0
sg12
I0
sg27
I0
sg18
I0
sg26
I0
sg40
I0
sg28
I0
sg19
I0
sg14
I0
sg35
I0
sg34
I0
sg39
I0
sg8
I0
sg31
I0
sg157
I0
sg158
I0
sg16
I0
sg32
I0
sg24
I0
sg9
I0
sg10
I0
sg37
I0
ssg33
(dp161
g47
I0
sS'coke.n.01'
p162
I0
sg149
I0
sg11
I0
sg150
I0
sg29
I0
sg23
I0
sg22
I0
sg25
I0
sg31
I0
sg46
I0
sg30
I0
sg38
I0
sg15
I0
sg21
I0
sg44
I0
sg45
I0
sg17
I0
sg36
I0
sS'capsicum.n.01'
p163
I0
sg42
I0
sS'coca_cola.n.01'
p164
I0
sg20
I0
sg43
I0
sg13
I0
sg41
I0
sg12
I0
sg27
I0
sg18
I0
sg26
I0
sg40
I0
sg28
I0
sg19
I0
sg14
I0
sg35
I0
sg34
I5
sg39
I0
sg8
I0
sg33
I0
sS'electric_refrigerator.n.01'
p165
I0
sS'steak.n.01'
p166
I0
sg16
I0
sg32
I0
sg24
I0
sg9
I0
sg10
I0
sg37
I0
ssg46
(dp167
g47
I0
sg53
I0
sg57
I0
sg50
I0
sg64
I0
sg49
I0
sg58
I0
sg65
I0
sg66
I0
sg67
I0
sg68
I0
sg69
I0
sg38
I0
sg46
I5
sg70
I0
sg52
I0
sg71
I0
sg44
I0
sg45
I0
sg54
I0
sg36
I0
sg48
I0
sg42
I0
sg72
I0
sg43
I0
sg73
I0
sg41
I0
sg56
I0
sg40
I0
sg74
I0
sg51
I0
sg75
I0
sg76
I0
sg78
I0
sg55
I0
sg79
I0
sg80
I0
sg39
I0
sg81
I0
sg82
I0
sg85
I0
sg87
I0
sg88
I0
sg89
I0
sg37
I0
ssg30
(dp168
g47
I0
sg53
I0
sg57
I0
sg50
I0
sg11
I0
sg49
I0
sg58
I0
sg29
I0
sg23
I0
sg22
I0
sg25
I0
sg33
I0
sg46
I0
sg30
I10
sg38
I0
sg59
I0
sg15
I0
sg21
I0
sg44
I0
sg45
I0
sg17
I0
sg36
I0
sg48
I0
sg42
I0
sg52
I0
sg20
I0
sg43
I0
sg13
I0
sg41
I0
sg56
I0
sg12
I0
sg27
I0
sg18
I0
sg26
I0
sg40
I0
sg28
I0
sg19
I0
sg14
I0
sg55
I0
sg35
I0
sg34
I0
sg39
I0
sg8
I0
sg31
I0
sg54
I0
sg51
I0
sg16
I0
sg32
I0
sg24
I0
sg9
I0
sg10
I0
sg37
I0
ssg38
(dp169
g47
I0
sg162
I0
sS'chicken.n.01'
p170
I0
sS'soup.n.01'
p171
I0
sg65
I0
sg66
I0
sg67
I0
sg68
I0
sg69
I0
sg46
I0
sg70
I0
sg38
I0
sS'microwave.n.02'
p172
I0
sg44
I0
sg45
I0
sg165
I0
sg36
I0
sg163
I0
sg42
I0
sg43
I0
sg73
I0
sg41
I0
sg40
I0
sg74
I0
sg166
I0
sg75
I0
sg80
I0
sg39
I0
sg81
I0
sg82
I0
sg164
I0
sg85
I0
sg87
I0
sg88
I0
sg37
I0
ssg59
(dp173
S'plate.n.13'
p174
I0
sS'chicken.n.01'
p175
I0
sS'beef.n.02'
p176
I0
sS'soup.n.01'
p177
I0
sS'refrigerator.n.01'
p178
I0
sS'bowl.n.03'
p179
I0
sS'bowl.n.01'
p180
I0
sS'dish.n.02'
p181
I0
sS'coca_cola.n.01'
p182
I0
sS'pan.n.03'
p183
I0
sg59
I0
sS'microwave.n.02'
p184
I0
sS'electric_refrigerator.n.01'
p185
I0
sS'plate.n.04'
p186
I0
sS'salt.n.02'
p187
I0
sS'banana.n.02'
p188
I0
sS'rib.n.03'
p189
I0
sS'rib.n.01'
p190
I0
sS'gripe.n.01'
p191
I0
sS'steak.n.01'
p192
I0
sS'oven.n.01'
p193
I0
sg86
I0
sg77
I0
sS'blender.n.01'
p194
I0
sS'jam.n.01'
p195
I0
sS'put.v.01'
p196
I0
sg83
I0
sg84
I0
sS'cherry.n.03'
p197
I0
sS'onion.n.01'
p198
I0
sS'onion.n.03'
p199
I0
ssg15
(dp200
g129
I0
sg130
I0
sg11
I0
sg131
I0
sg132
I0
sg29
I0
sg23
I0
sg22
I0
sg25
I0
sg33
I0
sg133
I0
sg30
I0
sg134
I0
sg59
I0
sg15
I5
sg21
I0
sg135
I0
sg17
I0
sg136
I0
sg137
I0
sg20
I0
sg138
I0
sg13
I0
sg139
I0
sg12
I0
sg27
I0
sg18
I0
sg26
I0
sg140
I0
sg28
I0
sg19
I0
sg14
I0
sg141
I0
sg35
I0
sg34
I0
sg142
I0
sg8
I0
sg31
I0
sg143
I0
sg144
I0
sg16
I0
sg32
I0
sg24
I0
sg9
I0
sg10
I0
ssg21
(dp201
g91
I0
sg53
I0
sg57
I0
sg50
I0
sg11
I0
sg49
I0
sg58
I0
sg29
I0
sg23
I0
sg22
I0
sg25
I0
sg33
I0
sg94
I0
sg30
I0
sg52
I0
sg59
I2
sg15
I0
sg21
I8
sg97
I0
sg121
I0
sg17
I0
sg98
I0
sg48
I0
sg99
I0
sg20
I0
sg100
I0
sg13
I0
sg122
I0
sg56
I0
sg12
I0
sg27
I0
sg18
I0
sg26
I0
sg102
I0
sg28
I0
sg19
I0
sg14
I0
sg55
I0
sg35
I0
sg34
I0
sg105
I0
sg8
I0
sg31
I0
sg54
I0
sg51
I0
sg16
I0
sg96
I0
sg32
I0
sg24
I0
sg9
I0
sg10
I0
sg93
I0
ssg44
(dp202
g47
I0
sg53
I0
sg57
I0
sg50
I0
sg64
I0
sg49
I0
sg58
I0
sg65
I0
sg66
I0
sg67
I0
sg68
I0
sg69
I0
sg38
I0
sg46
I0
sg70
I0
sg52
I0
sg71
I0
sg44
I3
sg45
I2
sg54
I0
sg36
I0
sg48
I0
sg42
I0
sg72
I0
sg43
I0
sg73
I0
sg41
I0
sg56
I0
sg40
I0
sg74
I0
sg51
I0
sg75
I0
sg76
I0
sg78
I0
sg55
I0
sg79
I0
sg80
I0
sg39
I0
sg81
I0
sg82
I0
sg85
I0
sg87
I0
sg88
I0
sg89
I0
sg37
I0
ssg45
(dp203
g47
I0
sg149
I0
sg150
I0
sg65
I0
sg66
I0
sg67
I0
sg68
I0
sg69
I0
sg38
I0
sg46
I0
sg70
I0
sS'microwave.n.02'
p204
I0
sg44
I0
sg45
I0
sg36
I0
sg42
I0
sg43
I0
sg73
I0
sg41
I0
sg40
I0
sg74
I0
sg75
I0
sg80
I0
sg39
I0
sg81
I0
sg82
I0
sg85
I0
sg87
I0
sg88
I0
sg37
I0
ssg17
(dp205
g174
I0
sg175
I0
sg11
I0
sg177
I0
sg178
I0
sg29
I0
sg23
I0
sg22
I0
sg25
I0
sg33
I0
sg30
I0
sg182
I0
sg59
I0
sg15
I0
sg21
I0
sg17
I0
sg189
I0
sg187
I0
sg20
I0
sg13
I0
sg190
I0
sg12
I0
sg27
I0
sg18
I0
sg26
I0
sg28
I0
sg19
I0
sg14
I0
sg35
I0
sg34
I0
sg195
I0
sg8
I0
sg31
I0
sg185
I0
sg192
I0
sg16
I0
sg32
I0
sg24
I0
sg9
I0
sg10
I0
ssg36
(dp206
g47
I0
sg53
I0
sg57
I0
sg50
I0
sg49
I0
sg58
I0
sg65
I0
sg66
I0
sg67
I0
sg68
I0
sg69
I0
sg38
I0
sg46
I0
sg70
I0
sg52
I0
sg71
I0
sg44
I0
sg45
I0
sg54
I0
sg36
I5
sg48
I0
sg42
I0
sS'countenance.n.03'
p207
I0
sg43
I0
sg73
I0
sg41
I0
sg56
I0
sg40
I0
sg74
I0
sg51
I0
sg75
I0
sS'mug.n.04'
p208
I0
sg55
I0
sg80
I0
sg39
I0
sg81
I0
sg82
I0
sS'whipped_cream.n.01'
p209
I0
sS'cake.n.03'
p210
I0
sg85
I0
sg87
I0
sg88
I0
sg37
I0
ssg48
(dp211
g91
I0
sg53
I0
sg57
I0
sg50
I0
sg64
I0
sg49
I0
sg58
I0
sg92
I0
sg93
I0
sg52
I0
sg94
I0
sg95
I0
sg96
I0
sg71
I0
sg97
I0
sg54
I0
sg98
I0
sg48
I0
sg99
I0
sg72
I0
sg100
I0
sg101
I0
sg56
I0
sg102
I0
sg51
I0
sg103
I0
sg76
I0
sg78
I0
sg55
I0
sg109
I0
sg104
I0
sg105
I0
sg106
I0
sg107
I0
sg108
I0
sg79
I0
sg89
I0
ssg42
(dp212
g47
I0
sg53
I0
sg57
I0
sg50
I0
sg64
I0
sg49
I0
sg58
I0
sg65
I0
sg66
I0
sg67
I0
sg68
I0
sg69
I0
sg38
I0
sg46
I0
sg70
I0
sg52
I0
sg59
I0
sg113
I0
sg71
I0
sg44
I0
sg45
I0
sg54
I0
sg36
I0
sg48
I0
sg42
I5
sg72
I0
sg43
I5
sg73
I0
sg41
I0
sg56
I0
sg40
I0
sg74
I0
sg51
I0
sg75
I0
sg76
I0
sg77
I0
sg78
I0
sg55
I0
sg79
I0
sg80
I0
sg39
I0
sg81
I0
sg82
I0
sg83
I0
sg84
I0
sg85
I0
sg86
I0
sg87
I0
sg88
I0
sg89
I0
sg37
I0
ssg52
(dp213
g91
I0
sg53
I2
sg57
I0
sg50
I0
sg64
I0
sg49
I0
sg58
I0
sg179
I0
sg92
I0
sg93
I0
sg52
I3
sg94
I0
sg95
I0
sg96
I0
sg59
I0
sg71
I0
sg97
I0
sg54
I0
sg98
I0
sg48
I0
sg99
I0
sg72
I0
sg100
I0
sg101
I0
sg56
I0
sg102
I0
sg51
I0
sg103
I0
sg76
I0
sg77
I0
sg78
I0
sg55
I0
sg109
I0
sg104
I0
sg105
I0
sg106
I0
sg107
I0
sg83
I0
sg84
I0
sg108
I0
sg86
I0
sg197
I0
sg79
I0
sg89
I0
sg181
I0
ssg20
(dp214
g148
I0
sg11
I0
sg151
I0
sg29
I0
sg23
I0
sg22
I0
sg25
I0
sg33
I0
sg30
I0
sg20
I0
sg21
I0
sg17
I0
sS'spoon.n.01'
p215
I0
sg152
I0
sS'salt.n.02'
p216
I0
sg15
I0
sg13
I0
sg153
I0
sg12
I0
sg27
I0
sg18
I0
sg26
I0
sg28
I0
sg19
I0
sg14
I0
sg35
I0
sg34
I0
sS'rice.n.01'
p217
I0
sg8
I0
sg31
I0
sg16
I0
sg32
I0
sg24
I0
sg9
I0
sg10
I0
sS'batter.n.02'
p218
I0
ssg43
(dp219
g47
I0
sg53
I0
sg57
I0
sg50
I0
sg64
I0
sg49
I0
sg58
I0
sg65
I0
sg66
I0
sg67
I0
sg68
I0
sg69
I0
sg38
I0
sg46
I0
sg70
I0
sg52
I0
sg71
I0
sg44
I0
sg45
I0
sg54
I0
sg36
I0
sg48
I0
sg42
I0
sg72
I0
sg43
I0
sg73
I0
sg41
I0
sg56
I0
sg40
I0
sg74
I0
sg51
I0
sg75
I0
sg76
I0
sg78
I0
sg55
I0
sg79
I0
sg80
I0
sg39
I0
sg81
I0
sg82
I0
sg85
I0
sg87
I0
sg88
I0
sg89
I0
sg37
I0
ssg13
(dp220
g47
I8
sg53
I0
sg57
I0
sg50
I0
sg11
I0
sg49
I0
sg58
I0
sg29
I0
sg23
I0
sg22
I0
sg25
I0
sg33
I0
sg46
I0
sg30
I0
sg38
I0
sg59
I0
sg15
I0
sg21
I0
sg44
I0
sg45
I0
sg17
I0
sg36
I0
sg48
I0
sg42
I0
sg52
I0
sg20
I0
sg43
I0
sg13
I2
sg41
I0
sg56
I0
sg12
I0
sg27
I0
sg18
I0
sg26
I0
sg40
I0
sg28
I0
sg19
I0
sg14
I0
sg55
I0
sg35
I0
sg34
I0
sg39
I0
sg8
I0
sg31
I0
sg54
I0
sg51
I0
sg16
I0
sg32
I0
sg24
I0
sg9
I0
sg10
I0
sg37
I0
ssg41
(dp221
g47
I0
sg149
I0
sg150
I0
sg65
I0
sg66
I0
sg67
I0
sg68
I0
sg69
I0
sg38
I0
sg46
I0
sg70
I0
sg204
I0
sg44
I0
sg45
I0
sg36
I0
sg42
I0
sg43
I0
sg73
I0
sg41
I0
sg40
I0
sg74
I0
sg75
I0
sg80
I0
sg39
I0
sg81
I0
sg82
I0
sg85
I0
sg87
I0
sg88
I0
sg37
I0
ssg56
(dp222
g91
I0
sg53
I0
sg57
I0
sg50
I0
sg64
I0
sg49
I0
sg58
I0
sg111
I0
sg112
I0
sg92
I0
sg93
I0
sg52
I0
sg94
I0
sg95
I0
sg59
I0
sg113
I0
sg71
I0
sg97
I0
sg54
I0
sg98
I0
sg48
I0
sg99
I0
sg72
I0
sg100
I0
sg101
I0
sg56
I0
sg102
I0
sg114
I0
sg51
I0
sg103
I0
sg76
I0
sg77
I0
sg78
I0
sg55
I0
sg105
I0
sg106
I0
sg115
I0
sg83
I0
sg84
I0
sg86
I0
sg116
I0
sg79
I0
sg89
I0
sg117
I0
ssg12
(dp223
g129
I0
sg130
I0
sg11
I0
sg131
I0
sg132
I0
sg29
I0
sg23
I0
sg22
I0
sg25
I0
sg33
I0
sg133
I0
sg30
I0
sg134
I0
sg59
I0
sg15
I0
sg21
I0
sg135
I0
sg17
I0
sg136
I0
sg137
I0
sg20
I0
sg138
I0
sg13
I0
sg139
I0
sg12
I0
sg27
I0
sg18
I0
sg26
I0
sg140
I0
sg28
I0
sg19
I0
sg14
I0
sg141
I0
sg35
I0
sg34
I0
sg142
I0
sg8
I0
sg31
I0
sg143
I0
sg144
I0
sg16
I0
sg32
I0
sg24
I0
sg9
I0
sg10
I0
ssg27
(dp224
g47
I0
sg148
I0
sg149
I0
sg11
I0
sg150
I0
sg151
I0
sg29
I0
sg23
I0
sg22
I0
sg25
I0
sg33
I0
sg46
I0
sg30
I0
sg38
I0
sg15
I0
sg21
I0
sg44
I0
sg45
I0
sg17
I0
sg36
I0
sg152
I0
sg42
I0
sg20
I0
sg43
I0
sg13
I0
sg41
I0
sg153
I0
sg12
I0
sg27
I4
sg18
I0
sg26
I0
sg40
I0
sg28
I1
sg19
I0
sg14
I0
sg35
I0
sg34
I0
sg39
I0
sg8
I0
sg31
I0
sg16
I0
sg32
I0
sg24
I0
sg9
I0
sg10
I0
sg37
I0
ssg18
(dp225
g174
I0
sg217
I0
sg175
I0
sg11
I0
sg177
I0
sg178
I0
sg29
I0
sg23
I0
sg22
I0
sg25
I0
sg33
I0
sg30
I0
sg182
I0
sg59
I0
sg15
I0
sg21
I0
sg17
I0
sg215
I0
sg189
I0
sg187
I0
sg20
I0
sg13
I0
sg190
I0
sg12
I0
sg27
I0
sg18
I5
sg26
I0
sg28
I0
sg19
I0
sg14
I0
sg35
I0
sg34
I0
sg195
I0
sg8
I0
sg31
I0
sg185
I0
sg192
I0
sg16
I0
sg32
I0
sg24
I0
sg9
I0
sg10
I0
sg218
I0
ssg26
(dp226
g47
I0
sg53
I0
sg57
I0
sg50
I0
sg11
I0
sg49
I0
sg58
I0
sg29
I0
sg23
I0
sg22
I0
sg25
I0
sg33
I0
sg46
I0
sg30
I0
sg38
I0
sg59
I0
sg15
I0
sg21
I0
sg44
I0
sg45
I0
sg17
I0
sg36
I0
sg48
I0
sg42
I0
sg52
I0
sg20
I0
sg43
I0
sg13
I0
sg41
I0
sg56
I0
sg12
I0
sg27
I0
sg18
I0
sg26
I10
sg40
I0
sg28
I0
sg19
I0
sg14
I0
sg55
I0
sg35
I0
sg34
I0
sg39
I0
sg8
I0
sg31
I0
sg54
I0
sg51
I0
sg16
I0
sg32
I0
sg24
I0
sg9
I0
sg10
I0
sg37
I0
ssg40
(dp227
g47
I0
sg53
I0
sg57
I0
sg50
I0
sg64
I0
sg49
I0
sg58
I0
sg65
I0
sg66
I0
sg67
I0
sg37
I0
sg69
I0
sg38
I0
sg46
I0
sg70
I0
sg52
I0
sg71
I0
sg44
I0
sg45
I0
sg54
I0
sg36
I0
sg48
I3
sg42
I0
sg72
I0
sg43
I0
sg73
I0
sg41
I2
sg56
I0
sg40
I0
sg74
I0
sg51
I0
sg75
I0
sg76
I0
sg78
I0
sg55
I0
sg79
I0
sg80
I0
sg39
I0
sg81
I0
sg82
I0
sg85
I0
sg87
I0
sg88
I0
sg89
I0
sg68
I0
ssg28
(dp228
g11
I0
sg29
I0
sg23
I0
sg22
I0
sg25
I0
sg33
I0
sg30
I0
sg15
I0
sg21
I0
sg17
I0
sg20
I0
sg13
I0
sg12
I0
sg27
I0
sg18
I0
sg26
I0
sg28
I0
sg19
I0
sg14
I0
sg35
I0
sg34
I0
sg8
I0
sg31
I0
sg16
I0
sg32
I0
sg24
I0
sg9
I0
sg10
I0
ssg19
(dp229
g174
I0
sg217
I0
sg175
I0
sg11
I0
sg177
I0
sg178
I0
sg29
I0
sg23
I0
sg22
I0
sg25
I0
sg33
I0
sg30
I0
sg182
I0
sg59
I0
sg15
I0
sg21
I0
sg17
I0
sg215
I0
sg189
I0
sg187
I0
sg20
I3
sg13
I0
sg190
I0
sg12
I0
sg27
I0
sg18
I0
sg26
I0
sg28
I0
sg19
I2
sg14
I0
sg35
I0
sg34
I0
sg195
I0
sg8
I0
sg31
I0
sg185
I0
sg192
I0
sg16
I0
sg32
I0
sg24
I0
sg9
I0
sg10
I0
sg218
I0
ssg14
(dp230
g129
I0
sg130
I0
sg11
I0
sg131
I0
sg132
I0
sg29
I0
sg23
I0
sg22
I0
sg25
I0
sg33
I0
sg133
I0
sg30
I0
sg134
I0
sg59
I0
sg15
I0
sg21
I0
sg135
I0
sg17
I0
sg136
I0
sg137
I0
sg20
I0
sg138
I0
sg13
I0
sg139
I0
sg12
I0
sg27
I0
sg18
I0
sg26
I0
sg140
I0
sg28
I0
sg19
I0
sg14
I5
sg141
I0
sg35
I0
sg34
I0
sg142
I0
sg8
I0
sg31
I0
sg143
I0
sg144
I0
sg16
I0
sg32
I0
sg24
I0
sg9
I0
sg10
I0
ssg55
(dp231
g91
I0
sg53
I0
sg57
I0
sg50
I0
sg64
I0
sg49
I0
sg58
I0
sg111
I0
sg112
I0
sg92
I0
sg93
I0
sg52
I0
sg94
I0
sg95
I0
sg59
I0
sg113
I0
sg48
I0
sg97
I0
sg54
I0
sg98
I0
sg55
I0
sg99
I0
sg72
I0
sg100
I0
sg101
I0
sg56
I5
sg102
I0
sg114
I0
sg51
I0
sg103
I0
sg76
I0
sg71
I0
sg77
I0
sg78
I0
sg105
I0
sg106
I0
sg115
I0
sg83
I0
sg84
I0
sg86
I0
sg116
I0
sg79
I0
sg89
I0
sg117
I0
ssg35
(dp232
g47
I0
sg162
I0
sg149
I0
sg11
I0
sg150
I0
sg29
I0
sg23
I0
sg22
I0
sg25
I0
sg33
I0
sg46
I0
sg30
I0
sg38
I0
sg15
I0
sg21
I0
sg44
I0
sg45
I0
sg17
I0
sg36
I0
sg163
I0
sg42
I0
sg164
I0
sg20
I0
sg43
I0
sg13
I0
sg41
I0
sg12
I0
sg27
I0
sg18
I0
sg26
I0
sg40
I0
sg28
I0
sg19
I0
sg14
I0
sg9
I0
sg34
I0
sg39
I0
sg8
I0
sg31
I0
sg165
I0
sg166
I0
sg16
I0
sg32
I0
sg24
I0
sg35
I5
sg10
I0
sg37
I0
ssg34
(dp233
g47
I0
sg162
I0
sg149
I0
sg11
I0
sg150
I0
sg29
I0
sg23
I0
sg22
I0
sg25
I0
sg33
I0
sg46
I0
sg30
I0
sg38
I0
sg15
I0
sg21
I0
sg44
I0
sg45
I0
sg17
I0
sg36
I0
sg163
I0
sg42
I0
sg164
I0
sg20
I0
sg43
I0
sg13
I0
sg41
I0
sg12
I0
sg27
I0
sg18
I0
sg26
I0
sg40
I0
sg28
I0
sg19
I0
sg14
I0
sg35
I0
sg34
I0
sg39
I0
sg8
I0
sg31
I0
sg165
I0
sg166
I0
sg16
I0
sg32
I0
sg24
I0
sg9
I0
sg10
I0
sg37
I0
ssg39
(dp234
g47
I0
sg53
I0
sg57
I0
sg50
I0
sg49
I0
sg58
I0
sg65
I0
sg66
I0
sg67
I0
sg68
I0
sg69
I0
sg38
I0
sg46
I0
sg70
I0
sg52
I0
sg71
I0
sg44
I0
sg45
I0
sg54
I0
sg36
I0
sg48
I0
sg42
I0
sg207
I0
sg43
I0
sg73
I0
sg41
I0
sg56
I0
sg40
I0
sg74
I0
sg51
I0
sg75
I0
sg208
I0
sg55
I0
sg80
I0
sg39
I5
sg81
I0
sg82
I0
sg209
I0
sg210
I0
sg85
I0
sg87
I0
sg88
I0
sg37
I0
ssg8
(dp235
g47
I0
sg53
I0
sg57
I0
sg50
I0
sg11
I0
sg49
I0
sg58
I0
sg29
I0
sg23
I0
sg22
I0
sg25
I0
sg33
I0
sg46
I0
sg30
I0
sg38
I0
sg59
I0
sg15
I0
sg21
I0
sg44
I0
sg45
I0
sg17
I0
sg36
I0
sg48
I0
sg42
I0
sg52
I0
sg20
I0
sg43
I0
sg13
I0
sg41
I0
sg56
I0
sg12
I0
sg27
I0
sg18
I0
sg26
I0
sg40
I0
sg28
I0
sg19
I0
sg14
I0
sg55
I0
sg35
I0
sg34
I0
sg39
I0
sg8
I100
sg31
I0
sg54
I0
sg51
I0
sg16
I0
sg32
I0
sg24
I0
sg9
I0
sg10
I0
sg37
I0
ssg31
(dp236
g47
I0
sg148
I0
sg149
I0
sg11
I0
sg150
I0
sg151
I0
sg29
I0
sg23
I0
sg22
I0
sg25
I0
sg33
I0
sg46
I0
sg30
I0
sg38
I0
sg15
I0
sg21
I0
sg44
I0
sg45
I0
sg17
I0
sg36
I0
sg152
I0
sg42
I0
sg20
I0
sg43
I0
sg13
I0
sg41
I0
sg153
I0
sg12
I0
sg27
I0
sg18
I0
sg26
I0
sg40
I0
sg28
I0
sg19
I0
sg14
I0
sg35
I0
sg34
I0
sg39
I0
sg8
I0
sg31
I5
sg16
I0
sg32
I0
sg24
I0
sg9
I0
sg10
I0
sg37
I0
ssg54
(dp237
g91
I0
sg53
I0
sg57
I0
sg50
I0
sg64
I0
sg49
I0
sg58
I0
sg179
I0
sg92
I0
sg93
I0
sg52
I0
sg94
I0
sg95
I0
sg96
I0
sg59
I0
sg71
I0
sg97
I0
sg54
I5
sg98
I0
sg48
I0
sg99
I0
sg72
I0
sg100
I0
sg101
I0
sg56
I0
sg102
I0
sg51
I0
sg103
I0
sg76
I0
sg77
I0
sg78
I0
sg55
I0
sg109
I0
sg104
I0
sg105
I0
sg106
I0
sg107
I0
sg83
I0
sg84
I0
sg108
I0
sg86
I0
sg197
I0
sg79
I0
sg89
I0
sg181
I0
ssg51
(dp238
g91
I0
sg53
I0
sg57
I0
sg50
I0
sg64
I0
sg49
I0
sg58
I0
sg179
I0
sg92
I0
sg93
I0
sg52
I0
sg94
I0
sg95
I0
sg96
I0
sg59
I0
sg71
I0
sg97
I0
sg54
I0
sg98
I0
sg48
I0
sg99
I0
sg72
I0
sg100
I0
sg101
I0
sg56
I0
sg102
I0
sg51
I5
sg103
I0
sg76
I0
sg77
I0
sg78
I0
sg55
I0
sg109
I0
sg104
I0
sg105
I0
sg106
I0
sg107
I0
sg83
I0
sg84
I0
sg108
I0
sg86
I0
sg197
I0
sg79
I0
sg89
I0
sg181
I0
ssg16
(dp239
g174
I0
sg217
I0
sg175
I0
sg11
I0
sg177
I0
sg178
I0
sg29
I0
sg23
I0
sg22
I0
sg25
I0
sg33
I0
sg30
I0
sg182
I0
sg59
I0
sg15
I0
sg21
I0
sg17
I4
sg215
I0
sg189
I0
sg187
I0
sg20
I0
sg13
I0
sg190
I0
sg12
I0
sg27
I0
sg18
I0
sg26
I0
sg28
I0
sg19
I0
sg14
I0
sg35
I0
sg34
I0
sg195
I0
sg8
I0
sg31
I0
sg185
I0
sg192
I0
sg16
I1
sg32
I0
sg24
I0
sg9
I0
sg10
I0
sg218
I0
ssg32
(dp240
g47
I0
sg162
I0
sg149
I0
sg11
I0
sg150
I0
sg29
I0
sg23
I0
sg22
I0
sg25
I0
sg33
I0
sg46
I0
sg30
I0
sg38
I0
sg15
I0
sg21
I0
sg44
I0
sg45
I0
sg17
I0
sg36
I0
sg163
I0
sg42
I0
sg164
I0
sg20
I0
sg43
I0
sg13
I0
sg41
I0
sg12
I0
sg27
I0
sg18
I0
sg26
I0
sg40
I0
sg28
I0
sg19
I0
sg14
I0
sg35
I0
sg34
I0
sg39
I0
sg8
I0
sg31
I0
sg165
I0
sg166
I0
sg16
I0
sg32
I5
sg24
I0
sg9
I0
sg10
I0
sg37
I0
ssg24
(dp241
g47
I0
sg148
I0
sg11
I0
sg151
I0
sg29
I0
sg23
I0
sg22
I0
sg25
I0
sg33
I0
sg46
I0
sg30
I0
sg38
I0
sg155
I0
sg15
I0
sg21
I0
sg44
I0
sg45
I0
sg17
I0
sg36
I0
sg152
I0
sg42
I0
sg156
I0
sg20
I0
sg43
I0
sg13
I0
sg41
I0
sg153
I0
sg12
I0
sg27
I0
sg18
I0
sg26
I0
sg40
I0
sg28
I0
sg19
I0
sg14
I0
sg35
I0
sg34
I0
sg39
I0
sg8
I0
sg31
I0
sg157
I0
sg158
I0
sg16
I0
sg32
I0
sg24
I5
sg9
I0
sg10
I0
sg37
I0
ssg9
(dp242
g129
I0
sg130
I0
sg11
I0
sg131
I0
sg132
I0
sg29
I0
sg23
I0
sg22
I0
sg25
I0
sg33
I0
sg133
I0
sg30
I0
sg134
I0
sg59
I0
sg15
I0
sg21
I0
sg135
I0
sg17
I0
sg136
I0
sg137
I0
sg20
I0
sg138
I0
sg13
I0
sg139
I0
sg12
I0
sg27
I0
sg18
I0
sg26
I0
sg140
I0
sg28
I0
sg19
I0
sg14
I0
sg141
I0
sg35
I0
sg34
I0
sg142
I0
sg8
I0
sg31
I0
sg143
I0
sg144
I0
sg16
I0
sg32
I0
sg24
I0
sg9
I0
sg10
I5
ssg10
(dp243
g129
I0
sg130
I0
sg11
I0
sg131
I0
sg132
I0
sg29
I0
sg23
I0
sg22
I0
sg25
I0
sg33
I0
sg133
I0
sg30
I0
sg134
I0
sg59
I0
sg15
I0
sg21
I0
sg135
I0
sg17
I0
sg136
I0
sg137
I0
sg20
I0
sg138
I0
sg13
I0
sg139
I0
sg12
I0
sg27
I0
sg18
I0
sg26
I0
sg140
I0
sg28
I0
sg19
I0
sg14
I0
sg141
I0
sg35
I0
sg34
I0
sg142
I0
sg8
I0
sg31
I0
sg143
I0
sg144
I0
sg16
I0
sg32
I0
sg24
I0
sg9
I0
sg10
I0
ssg37
(dp244
g47
I0
sg53
I0
sg57
I0
sg50
I0
sg49
I0
sg58
I0
sg65
I0
sg66
I0
sg67
I0
sg37
I5
sg69
I0
sg38
I0
sg46
I0
sg70
I0
sg52
I0
sg71
I0
sg44
I0
sg45
I0
sg54
I0
sg36
I0
sg48
I0
sg42
I0
sg207
I0
sg43
I0
sg73
I0
sg41
I0
sg56
I0
sg40
I0
sg74
I0
sg51
I0
sg75
I0
sg208
I0
sg55
I0
sg80
I0
sg39
I0
sg81
I0
sg82
I0
sg209
I0
sg210
I0
sg85
I0
sg87
I0
sg88
I0
sg68
I0
sssb.