ccopy_reg
_reconstructor
p0
(cutils.eval
ConfusionMatrix
p1
c__builtin__
object
p2
Ntp3
Rp4
(dp5
S'labels'
p6
(lp7
S'put.v.01'
p8
aS'spread.n.05'
p9
aS'bread.n.01'
p10
aS'pan.n.03'
p11
aS'pizza.n.01'
p12
aS'french_fries.n.01'
p13
aS'dressing.n.01'
p14
aS'dressing.n.04'
p15
aS'salad.n.01'
p16
aS'spoon.n.01'
p17
aS'batter.n.02'
p18
aS'bowl.n.01'
p19
aS'rice.n.01'
p20
aS'pepper.n.03'
p21
aS'pepper.n.04'
p22
aS'salt.n.02'
p23
aS'salt.n.04'
p24
aS'egg.n.02'
p25
aS'egg.n.01'
p26
aS'salmon.n.03'
p27
aS'plate.n.04'
p28
aS'plate.n.13'
p29
aS'soup.n.01'
p30
aS'microwave.n.02'
p31
aS'chicken.n.01'
p32
asS'instanceCount'
p33
I30
sS'matrix'
p34
(dp35
g29
(dp36
g29
I0
ssg32
(dp37
S'chicken.n.01'
p38
I1
ssg30
(dp39
S'soup.n.01'
p40
I1
ssg10
(dp41
S'bread.n.01'
p42
I1
ssg19
(dp43
S'bowl.n.01'
p44
I1
ssg18
(dp45
S'batter.n.02'
p46
I1
ssg14
(dp47
g15
I1
ssg27
(dp48
S'salmon.n.03'
p49
I1
ssg11
(dp50
S'pan.n.03'
p51
I2
ssg31
(dp52
S'microwave.n.02'
p53
I1
ssg25
(dp54
g26
I1
ssg26
(dp55
g26
I0
ssg17
(dp56
S'spoon.n.01'
p57
I1
ssg23
(dp58
g24
I1
ssg24
(dp59
g24
I0
ssg28
(dp60
g29
I1
ssg22
(dp61
g22
I0
ssg21
(dp62
g22
I1
ssg9
(dp63
S'spread.n.05'
p64
I1
ssg15
(dp65
g15
I0
ssg20
(dp66
S'rice.n.01'
p67
I1
ssg8
(dp68
S'put.v.01'
p69
I10
ssg12
(dp70
S'pizza.n.01'
p71
I1
ssg13
(dp72
S'french_fries.n.01'
p73
I1
ssg16
(dp74
S'salad.n.01'
p75
I1
sssb.