ccopy_reg
_reconstructor
p0
(cutils.eval
ConfusionMatrix
p1
c__builtin__
object
p2
Ntp3
Rp4
(dp5
S'labels'
p6
(lp7
S'cut.v.01'
p8
aS'lemon.n.01'
p9
aS'egg.n.02'
p10
aS'piece.n.08'
p11
aS'cheese.n.01'
p12
aS'vegetable.n.01'
p13
aS'knife.n.01'
p14
aS'olive.n.01'
p15
aS'olive.n.04'
p16
aS'bread.n.01'
p17
aS'meat.n.01'
p18
aS'cleaver.n.01'
p19
aS'green_onion.n.01'
p20
asS'instanceCount'
p21
I21
sS'matrix'
p22
(dp23
g12
(dp24
S'cheese.n.01'
p25
I1
ssg13
(dp26
S'vegetable.n.01'
p27
I1
ssg8
(dp28
S'cut.v.01'
p29
I8
ssg14
(dp30
S'knife.n.01'
p31
I3
ssg16
(dp32
g16
I0
ssg10
(dp33
S'egg.n.02'
p34
I1
ssg15
(dp35
g16
I1
ssg17
(dp36
S'bread.n.01'
p37
I1
ssg18
(dp38
S'meat.n.01'
p39
I1
ssg9
(dp40
S'lemon.n.01'
p41
I1
ssg11
(dp42
S'piece.n.08'
p43
I1
ssg20
(dp44
S'green_onion.n.01'
p45
I1
ssg19
(dp46
S'cleaver.n.01'
p47
I1
sssb.