ccopy_reg
_reconstructor
p0
(cutils.eval
ConfusionMatrix
p1
c__builtin__
object
p2
Ntp3
Rp4
(dp5
S'labels'
p6
(lp7
S'cut.v.01'
p8
aS'meat.n.01'
p9
aS'cleaver.n.01'
p10
aS'knife.n.01'
p11
aS'green_onion.n.01'
p12
aS'piece.n.08'
p13
aS'slice.n.06'
p14
aS'orange.n.01'
p15
aS'mushroom.n.05'
p16
aS'banana.n.02'
p17
aS'lemon.n.01'
p18
aS'bacon.n.01'
p19
aS'potato.n.01'
p20
asS'instanceCount'
p21
I21
sS'matrix'
p22
(dp23
g16
(dp24
S'mushroom.n.05'
p25
I1
ssg8
(dp26
S'cut.v.01'
p27
I8
ssg11
(dp28
S'knife.n.01'
p29
I2
ssg17
(dp30
S'banana.n.02'
p31
I1
ssg14
(dp32
g14
I0
ssg19
(dp33
S'bacon.n.01'
p34
I1
ssg15
(dp35
S'orange.n.01'
p36
I1
ssg9
(dp37
S'meat.n.01'
p38
I1
ssg18
(dp39
S'lemon.n.01'
p40
I1
ssg20
(dp41
S'potato.n.01'
p42
I1
ssg13
(dp43
g14
I2
ssg12
(dp44
S'green_onion.n.01'
p45
I1
ssg10
(dp46
S'cleaver.n.01'
p47
I1
sssb.