ccopy_reg
_reconstructor
p0
(cutils.eval
ConfusionMatrix
p1
c__builtin__
object
p2
Ntp3
Rp4
(dp5
S'labels'
p6
(lp7
S'cut.v.01'
p8
aS'tomato.n.01'
p9
aS'knife.n.01'
p10
aS'fork.n.01'
p11
aS'fork.n.04'
p12
aS'cake.n.03'
p13
aS'flesh.n.01'
p14
aS'pulp.n.02'
p15
aS'cabbage.n.01'
p16
aS'zucchini.n.01'
p17
aS'zucchini.n.02'
p18
aS'piece.n.08'
p19
aS'slice.n.06'
p20
aS'pizza.n.01'
p21
aS'lemon.n.01'
p22
aS'egg.n.02'
p23
asS'instanceCount'
p24
I20
sS'matrix'
p25
(dp26
g8
(dp27
S'cut.v.01'
p28
I8
ssg10
(dp29
S'knife.n.01'
p30
I1
ssg14
(dp31
g15
I1
ssg23
(dp32
S'egg.n.02'
p33
I1
ssg9
(dp34
S'tomato.n.01'
p35
I1
ssg12
(dp36
g12
I0
ssg20
(dp37
g20
I0
ssg11
(dp38
g12
I1
ssg21
(dp39
S'pizza.n.01'
p40
I1
ssg18
(dp41
g18
I0
ssg13
(dp42
S'cake.n.03'
p43
I1
ssg22
(dp44
S'lemon.n.01'
p45
I1
ssg17
(dp46
g18
I1
ssg16
(dp47
S'cabbage.n.01'
p48
I1
ssg19
(dp49
g20
I2
ssg15
(dp50
g15
I0
sssb.