ccopy_reg
_reconstructor
p0
(cutils.eval
ConfusionMatrix
p1
c__builtin__
object
p2
Ntp3
Rp4
(dp5
S'labels'
p6
(lp7
S'cut.v.01'
p8
aS'knife.n.01'
p9
aS'banana.n.02'
p10
aS'lemon.n.01'
p11
aS'bacon.n.01'
p12
aS'piece.n.08'
p13
aS'slice.n.06'
p14
aS'potato.n.01'
p15
aS'tomato.n.01'
p16
aS'fork.n.01'
p17
aS'fork.n.04'
p18
aS'cake.n.03'
p19
aS'flesh.n.01'
p20
aS'human_body.n.01'
p21
aS'cabbage.n.01'
p22
asS'instanceCount'
p23
I20
sS'matrix'
p24
(dp25
g8
(dp26
S'cut.v.01'
p27
I8
ssg9
(dp28
S'knife.n.01'
p29
I2
ssg10
(dp30
S'banana.n.02'
p31
I1
ssg20
(dp32
g21
I1
ssg16
(dp33
S'tomato.n.01'
p34
I1
ssg18
(dp35
g18
I0
ssg14
(dp36
g14
I0
ssg12
(dp37
S'bacon.n.01'
p38
I1
ssg21
(dp39
g21
I0
ssg19
(dp40
S'cake.n.03'
p41
I1
ssg17
(dp42
g18
I1
ssg11
(dp43
S'lemon.n.01'
p44
I1
ssg15
(dp45
S'potato.n.01'
p46
I1
ssg22
(dp47
S'cabbage.n.01'
p48
I1
ssg13
(dp49
g14
I1
sssb.