ccopy_reg
_reconstructor
p0
(cutils.eval
ConfusionMatrix
p1
c__builtin__
object
p2
Ntp3
Rp4
(dp5
S'labels'
p6
(lp7
S'piece.n.08'
p8
aS'slice.n.06'
p9
aS'cut.v.01'
p10
aS'orange.n.01'
p11
aS'mushroom.n.05'
p12
aS'knife.n.01'
p13
aS'banana.n.02'
p14
aS'lemon.n.01'
p15
aS'bacon.n.01'
p16
aS'potato.n.01'
p17
aS'tomato.n.01'
p18
aS'fork.n.01'
p19
aS'fork.n.04'
p20
aS'cake.n.03'
p21
aS'flesh.n.01'
p22
aS'human_body.n.01'
p23
aS'cabbage.n.01'
p24
aS'pulp.n.02'
p25
aS'zucchini.n.01'
p26
aS'zucchini.n.02'
p27
aS'pizza.n.01'
p28
aS'egg.n.02'
p29
aS'cheese.n.01'
p30
aS'vegetable.n.01'
p31
aS'meat.n.01'
p32
aS'cleaver.n.01'
p33
aS'green_onion.n.01'
p34
aS'olive.n.01'
p35
aS'olive.n.04'
p36
aS'bread.n.01'
p37
asS'instanceCount'
p38
I204
sS'matrix'
p39
(dp40
g12
(dp41
g12
I4
sS'cheese.n.01'
p42
I0
sS'bread.n.01'
p43
I0
sg11
I0
sg34
I0
sg10
I0
sg18
I0
sg16
I0
sg33
I0
sg17
I0
sg32
I0
sS'olive.n.01'
p44
I0
sg13
I0
sg14
I0
sS'olive.n.04'
p45
I0
sg20
I0
sg19
I0
sg8
I0
sS'vegetable.n.01'
p46
I0
sg9
I0
sg21
I0
sg15
I0
ssg30
(dp47
S'mushroom.n.05'
p48
I0
sg30
I4
sg37
I0
sS'orange.n.01'
p49
I0
sg27
I0
sg26
I0
sS'knife.n.01'
p50
I0
sS'green_onion.n.01'
p51
I0
sS'cut.v.01'
p52
I0
sg29
I0
sS'meat.n.01'
p53
I0
sS'cleaver.n.01'
p54
I0
sg35
I0
sS'cabbage.n.01'
p55
I0
sg36
I0
sS'piece.n.08'
p56
I0
sg31
I0
sS'flesh.n.01'
p57
I0
sS'slice.n.06'
p58
I0
sg28
I0
sS'lemon.n.01'
p59
I0
sg25
I0
ssg37
(dp60
g48
I0
sS'cheese.n.01'
p61
I0
sS'vegetable.n.01'
p62
I0
sS'cut.v.01'
p63
I0
sS'knife.n.01'
p64
I0
sS'banana.n.02'
p65
I0
sg36
I0
sS'egg.n.02'
p66
I0
sS'slice.n.06'
p67
I0
sg35
I0
sg37
I4
sg49
I0
sS'zucchini.n.02'
p68
I0
sg53
I0
sS'lemon.n.01'
p69
I0
sS'zucchini.n.01'
p70
I0
sS'piece.n.08'
p71
I0
sS'pizza.n.01'
p72
I0
sg51
I0
sg54
I0
ssg11
(dp73
g12
I0
sg42
I0
sg43
I0
sg11
I4
sg34
I0
sg10
I0
sg18
I0
sg16
I0
sg33
I0
sg17
I0
sg32
I0
sg44
I0
sg13
I0
sg14
I0
sg45
I0
sg20
I0
sg19
I0
sg8
I0
sg46
I0
sg9
I0
sg21
I0
sg15
I0
ssg27
(dp74
g30
I0
sg37
I0
sg27
I0
sg26
I0
sg50
I0
sg52
I0
sg29
I0
sS'tomato.n.01'
p75
I0
sS'bacon.n.01'
p76
I0
sS'potato.n.01'
p77
I0
sg35
I0
sg55
I0
sg36
I0
sS'fork.n.04'
p78
I0
sS'fork.n.01'
p79
I0
sg56
I0
sg31
I0
sg57
I0
sg58
I0
sg28
I0
sS'cake.n.03'
p80
I0
sg59
I0
sg25
I0
ssg26
(dp81
g30
I0
sg37
I0
sg27
I4
sg26
I0
sg50
I0
sg52
I0
sg29
I0
sg75
I0
sg76
I0
sg77
I0
sg35
I0
sg55
I0
sg36
I0
sg78
I0
sg79
I0
sg56
I0
sg31
I0
sg57
I0
sg58
I0
sg28
I0
sg80
I0
sg59
I0
sg25
I0
ssg24
(dp82
g30
I0
sg27
I0
sg26
I0
sg24
I4
sS'cut.v.01'
p83
I0
sg29
I0
sS'tomato.n.01'
p84
I0
sS'bacon.n.01'
p85
I0
sS'potato.n.01'
p86
I0
sS'knife.n.01'
p87
I0
sS'banana.n.02'
p88
I0
sS'fork.n.04'
p89
I0
sS'fork.n.01'
p90
I0
sg23
I0
sS'piece.n.08'
p91
I0
sg31
I0
sg22
I0
sS'slice.n.06'
p92
I0
sg28
I0
sS'cake.n.03'
p93
I0
sS'lemon.n.01'
p94
I0
sg25
I0
ssg34
(dp95
S'mushroom.n.05'
p96
I0
sS'cheese.n.01'
p97
I0
sS'vegetable.n.01'
p98
I0
sS'cut.v.01'
p99
I0
sS'knife.n.01'
p100
I0
sS'banana.n.02'
p101
I0
sS'olive.n.04'
p102
I0
sS'egg.n.02'
p103
I0
sS'slice.n.06'
p104
I0
sS'olive.n.01'
p105
I0
sS'bacon.n.01'
p106
I0
sS'bread.n.01'
p107
I0
sS'orange.n.01'
p108
I0
sg32
I0
sS'lemon.n.01'
p109
I0
sS'potato.n.01'
p110
I0
sS'piece.n.08'
p111
I0
sg34
I4
sg33
I0
ssg10
(dp112
g12
I0
sg30
I0
sg37
I0
sg11
I0
sg27
I0
sg26
I0
sg24
I0
sg34
I0
sg10
I80
sg29
I0
sg18
I0
sg16
I0
sg32
I0
sg17
I0
sg33
I0
sg35
I0
sg13
I0
sg14
I0
sg36
I0
sg20
I0
sg19
I0
sg23
I0
sg8
I0
sg31
I0
sg22
I0
sg9
I0
sg28
I0
sg21
I0
sg15
I0
sg25
I0
ssg29
(dp113
g30
I0
sg37
I0
sg27
I0
sg26
I0
sg50
I0
sg51
I0
sg52
I0
sg29
I4
sg75
I0
sg53
I0
sg54
I0
sg35
I0
sg55
I0
sg36
I0
sg78
I0
sg79
I0
sg56
I0
sg31
I0
sg57
I0
sg58
I0
sg28
I0
sg80
I0
sg59
I0
sg25
I0
ssg18
(dp114
g12
I0
sg11
I0
sS'zucchini.n.02'
p115
I0
sS'zucchini.n.01'
p116
I0
sg24
I0
sg10
I0
sS'egg.n.02'
p117
I0
sg18
I4
sg16
I0
sg17
I0
sg13
I0
sg14
I0
sg20
I0
sg19
I0
sg23
I0
sg8
I0
sg22
I0
sg9
I0
sS'pizza.n.01'
p118
I0
sg21
I0
sg15
I0
sS'pulp.n.02'
p119
I0
ssg16
(dp120
g12
I0
sg11
I0
sS'zucchini.n.02'
p121
I0
sS'zucchini.n.01'
p122
I0
sg24
I0
sg34
I0
sg10
I0
sg18
I0
sg16
I4
sg33
I0
sg17
I0
sg32
I0
sg13
I0
sg14
I0
sg20
I0
sg19
I0
sg23
I0
sg8
I0
sg22
I0
sg9
I0
sS'pizza.n.01'
p123
I0
sg21
I0
sg15
I0
sS'pulp.n.02'
p124
I0
ssg32
(dp125
g96
I0
sg97
I0
sg98
I0
sg99
I0
sg100
I0
sg101
I0
sg102
I0
sg103
I0
sg104
I0
sg105
I0
sg106
I0
sg107
I0
sg108
I0
sg32
I4
sg109
I0
sg110
I0
sg111
I0
sg34
I0
sg33
I0
ssg17
(dp126
g12
I0
sg11
I0
sg121
I0
sg122
I0
sg24
I0
sg34
I0
sg10
I0
sg18
I0
sg16
I0
sg33
I0
sg17
I4
sg32
I0
sg13
I0
sg14
I0
sg20
I0
sg19
I0
sg23
I0
sg8
I0
sg22
I0
sg9
I0
sg123
I0
sg21
I0
sg15
I0
sg124
I0
ssg33
(dp127
g96
I0
sg97
I0
sg98
I0
sg99
I0
sg100
I0
sg101
I0
sg102
I0
sg103
I0
sg104
I0
sg105
I0
sg106
I0
sg107
I0
sg108
I0
sg33
I4
sg109
I0
sg110
I0
sg111
I0
sg34
I0
sg32
I0
ssg35
(dp128
g48
I0
sg61
I0
sg35
I0
sg63
I0
sg64
I0
sg65
I0
sg36
I4
sg66
I0
sg67
I0
sg62
I0
sg72
I0
sg49
I0
sg68
I0
sg53
I0
sg69
I0
sg70
I0
sg71
I0
sg37
I0
sg51
I0
sg54
I0
ssg13
(dp129
g12
I0
sg30
I0
sg37
I0
sg11
I0
sg27
I0
sg26
I0
sg24
I0
sg34
I0
sg10
I0
sg29
I0
sg18
I0
sg16
I0
sg32
I0
sg17
I0
sg33
I0
sg35
I0
sg13
I20
sg14
I0
sg36
I0
sg20
I0
sg19
I0
sg23
I0
sg8
I0
sg31
I0
sg22
I0
sg9
I0
sg28
I0
sg21
I0
sg15
I0
sg25
I0
ssg14
(dp130
g12
I0
sS'bread.n.01'
p131
I0
sg11
I0
sg24
I0
sg34
I0
sg10
I0
sg18
I0
sg16
I0
sg33
I0
sg17
I0
sg32
I0
sS'olive.n.01'
p132
I0
sg13
I0
sg14
I4
sS'olive.n.04'
p133
I0
sg20
I0
sg19
I0
sg23
I0
sg8
I0
sg22
I0
sg9
I0
sg21
I0
sg15
I0
ssg36
(dp134
g48
I0
sg61
I0
sg62
I0
sg63
I0
sg64
I0
sg65
I0
sg36
I0
sg66
I0
sg67
I0
sg35
I0
sg72
I0
sg49
I0
sg68
I0
sg53
I0
sg69
I0
sg70
I0
sg71
I0
sg37
I0
sg51
I0
sg54
I0
ssg20
(dp135
g12
I0
sg11
I0
sg115
I0
sg116
I0
sg24
I0
sg10
I0
sg117
I0
sg18
I0
sg16
I0
sg17
I0
sg13
I0
sg14
I0
sg20
I0
sg19
I0
sg23
I0
sg8
I0
sg22
I0
sg9
I0
sg118
I0
sg21
I0
sg15
I0
sg119
I0
ssg19
(dp136
g12
I0
sg11
I0
sg115
I0
sg116
I0
sg24
I0
sg10
I0
sg117
I0
sg18
I0
sg16
I0
sg17
I0
sg13
I0
sg14
I0
sg20
I4
sg19
I0
sg23
I0
sg8
I0
sg22
I0
sg9
I0
sg118
I0
sg21
I0
sg15
I0
sg119
I0
ssg23
(dp137
g83
I0
sg87
I0
sg88
I0
sg22
I0
sg84
I0
sg89
I0
sg92
I0
sg85
I0
sg23
I0
sg93
I0
sg90
I0
sg94
I0
sg86
I0
sg24
I0
sg91
I0
ssg8
(dp138
g12
I0
sg30
I0
sg37
I0
sg11
I0
sg27
I0
sg26
I0
sg24
I0
sg34
I0
sg10
I0
sg29
I0
sg18
I0
sg16
I0
sg32
I0
sg17
I0
sg33
I0
sg35
I0
sg13
I0
sg14
I0
sg36
I0
sg20
I0
sg19
I0
sg23
I0
sg8
I1
sg31
I0
sg22
I0
sg9
I15
sg28
I0
sg21
I0
sg15
I0
sg25
I0
ssg31
(dp139
g48
I0
sg30
I0
sg37
I0
sg49
I0
sg27
I0
sg26
I0
sg50
I0
sg51
I0
sg52
I0
sg29
I0
sg53
I0
sg54
I0
sg35
I0
sg55
I0
sg36
I0
sg56
I0
sg31
I4
sg57
I0
sg58
I0
sg28
I0
sg59
I0
sg25
I0
ssg22
(dp140
g30
I0
sg27
I0
sg26
I0
sg24
I0
sg83
I0
sg29
I0
sg84
I0
sg85
I0
sg86
I0
sg87
I0
sg88
I0
sg89
I0
sg90
I0
sg23
I1
sg91
I0
sg31
I0
sg22
I0
sg92
I0
sg28
I0
sg93
I0
sg94
I0
sg25
I3
ssg9
(dp141
g12
I0
sg30
I0
sg37
I0
sg11
I0
sg27
I0
sg26
I0
sg24
I0
sg34
I0
sg10
I0
sg29
I0
sg18
I0
sg16
I0
sg32
I0
sg17
I0
sg33
I0
sg35
I0
sg13
I0
sg14
I0
sg36
I0
sg20
I0
sg19
I0
sg23
I0
sg8
I0
sg31
I0
sg22
I0
sg9
I0
sg28
I0
sg21
I0
sg15
I0
sg25
I0
ssg28
(dp142
g30
I0
sg37
I0
sg27
I0
sg26
I0
sg50
I0
sg52
I0
sg29
I0
sg75
I0
sg76
I0
sg77
I0
sg35
I0
sg55
I0
sg36
I0
sg78
I0
sg79
I0
sg56
I0
sg31
I0
sg57
I0
sg58
I0
sg28
I4
sg80
I0
sg59
I0
sg25
I0
ssg21
(dp143
g12
I0
sg11
I0
sg115
I0
sg116
I0
sg24
I0
sg10
I0
sg117
I0
sg18
I0
sg16
I0
sg17
I0
sg13
I0
sg14
I0
sg20
I0
sg19
I0
sg23
I0
sg8
I0
sg22
I0
sg9
I0
sg118
I0
sg21
I4
sg15
I0
sg119
I0
ssg15
(dp144
g12
I0
sg30
I0
sg37
I0
sg11
I0
sg27
I0
sg26
I0
sg24
I0
sg34
I0
sg10
I0
sg29
I0
sg18
I0
sg16
I0
sg32
I0
sg17
I0
sg33
I0
sg35
I0
sg13
I0
sg14
I0
sg36
I0
sg20
I0
sg19
I0
sg23
I0
sg8
I0
sg31
I0
sg22
I0
sg9
I0
sg28
I0
sg21
I0
sg15
I8
sg25
I0
ssg25
(dp145
g30
I0
sg31
I0
sg52
I0
sg55
I0
sg57
I0
sg29
I0
sg75
I0
sg78
I0
sg58
I0
sg80
I0
sg79
I0
sg28
I0
sg27
I0
sg76
I0
sg59
I0
sg26
I0
sg77
I0
sg50
I0
sg56
I0
sg25
I0
sssb.