ccopy_reg
_reconstructor
p0
(cutils.eval
ConfusionMatrix
p1
c__builtin__
object
p2
Ntp3
Rp4
(dp5
S'labels'
p6
(lp7
S'cut.v.01'
p8
aS'bacon.n.01'
p9
aS'piece.n.08'
p10
aS'slice.n.06'
p11
aS'potato.n.01'
p12
aS'tomato.n.01'
p13
aS'knife.n.01'
p14
aS'fork.n.01'
p15
aS'fork.n.04'
p16
aS'cake.n.03'
p17
aS'flesh.n.01'
p18
aS'pulp.n.02'
p19
aS'cabbage.n.01'
p20
aS'zucchini.n.01'
p21
aS'zucchini.n.02'
p22
aS'pizza.n.01'
p23
asS'instanceCount'
p24
I20
sS'matrix'
p25
(dp26
g21
(dp27
g22
I1
ssg8
(dp28
S'cut.v.01'
p29
I8
ssg14
(dp30
S'knife.n.01'
p31
I1
ssg18
(dp32
g19
I1
ssg13
(dp33
S'tomato.n.01'
p34
I1
ssg16
(dp35
g16
I0
ssg11
(dp36
g11
I0
ssg9
(dp37
S'bacon.n.01'
p38
I1
ssg23
(dp39
S'pizza.n.01'
p40
I1
ssg22
(dp41
g22
I0
ssg17
(dp42
S'cake.n.03'
p43
I1
ssg15
(dp44
g16
I1
ssg12
(dp45
S'potato.n.01'
p46
I1
ssg20
(dp47
S'cabbage.n.01'
p48
I1
ssg10
(dp49
g11
I2
ssg19
(dp50
g19
I0
sssb.