ccopy_reg
_reconstructor
p0
(cutils.eval
ConfusionMatrix
p1
c__builtin__
object
p2
Ntp3
Rp4
(dp5
S'labels'
p6
(lp7
S'olive.n.01'
p8
aS'olive.n.04'
p9
aS'cut.v.01'
p10
aS'bread.n.01'
p11
aS'knife.n.01'
p12
aS'meat.n.01'
p13
aS'cleaver.n.01'
p14
aS'green_onion.n.01'
p15
aS'piece.n.08'
p16
aS'slice.n.06'
p17
aS'orange.n.01'
p18
aS'mushroom.n.05'
p19
aS'banana.n.02'
p20
aS'lemon.n.01'
p21
asS'instanceCount'
p22
I21
sS'matrix'
p23
(dp24
g19
(dp25
S'mushroom.n.05'
p26
I1
ssg8
(dp27
g9
I1
ssg10
(dp28
S'cut.v.01'
p29
I8
ssg12
(dp30
S'knife.n.01'
p31
I3
ssg20
(dp32
S'banana.n.02'
p33
I1
ssg9
(dp34
g9
I0
ssg17
(dp35
g17
I0
ssg11
(dp36
S'bread.n.01'
p37
I1
ssg18
(dp38
S'orange.n.01'
p39
I1
ssg13
(dp40
S'meat.n.01'
p41
I1
ssg21
(dp42
S'lemon.n.01'
p43
I1
ssg15
(dp44
S'green_onion.n.01'
p45
I1
ssg16
(dp46
g17
I1
ssg14
(dp47
S'cleaver.n.01'
p48
I1
sssb.