ccopy_reg
_reconstructor
p0
(cutils.eval
ConfusionMatrix
p1
c__builtin__
object
p2
Ntp3
Rp4
(dp5
S'labels'
p6
(lp7
S'cut.v.01'
p8
aS'swerve.v.01'
p9
aS'bacon.n.01'
p10
aS'bacon.n.03'
p11
aS'opening.n.01'
p12
aS'gap.n.05'
p13
aS'fill.v.09'
p14
aS'batter.n.02'
p15
asS'instanceCount'
p16
I5
sS'matrix'
p17
(dp18
g8
(dp19
g9
I1
ssg9
(dp20
g9
I0
ssg14
(dp21
S'fill.v.09'
p22
I1
ssg11
(dp23
g11
I0
ssg10
(dp24
g11
I1
ssg13
(dp25
g13
I0
ssg15
(dp26
S'batter.n.02'
p27
I1
ssg12
(dp28
g13
I1
sssb.