ccopy_reg
_reconstructor
p0
(cutils.eval
ConfusionMatrix
p1
c__builtin__
object
p2
Ntp3
Rp4
(dp5
S'labels'
p6
(lp7
S'put.v.01'
p8
aS'invest.v.01'
p9
aS'pan.n.03'
p10
aS'pan.n.01'
p11
aS'chicken.n.01'
p12
aS'onion.n.01'
p13
aS'beef.n.02'
p14
aS'beef.n.01'
p15
aS'plate.n.04'
p16
aS'plate.n.12'
p17
asS'instanceCount'
p18
I7
sS'matrix'
p19
(dp20
g11
(dp21
g11
I0
ssg9
(dp22
g9
I0
ssg10
(dp23
g11
I1
ssg17
(dp24
g17
I0
ssg12
(dp25
S'chicken.n.01'
p26
I1
ssg14
(dp27
g15
I1
ssg16
(dp28
g17
I1
ssg8
(dp29
g9
I2
ssg15
(dp30
g15
I0
ssg13
(dp31
S'onion.n.01'
p32
I1
sssb.