ccopy_reg
_reconstructor
p0
(cutils.eval
ConfusionMatrix
p1
c__builtin__
object
p2
Ntp3
Rp4
(dp5
S'labels'
p6
(lp7
S'cut.v.01'
p8
aS'swerve.v.01'
p9
aS'bread.n.01'
p10
aS'knife.n.01'
p11
aS'cabbage.n.01'
p12
aS'cheese.n.01'
p13
aS'slice.v.03'
p14
aS'slice.v.02'
p15
aS'put.v.01'
p16
aS'frame.v.04'
p17
aS'pepper.n.03'
p18
aS'pepper.n.04'
p19
aS'salt.n.02'
p20
aS'egg.n.02'
p21
aS'testis.n.01'
p22
aS'fill.v.01'
p23
aS'fill.v.09'
p24
aS'foam.n.01'
p25
aS'mug.n.04'
p26
aS'invest.v.01'
p27
aS'pan.n.03'
p28
aS'pan.n.01'
p29
aS'pizza.n.01'
p30
aS'piece.n.08'
p31
aS'slice.n.01'
p32
aS'meat.n.01'
p33
aS'kernel.n.01'
p34
aS'cleaver.n.01'
p35
aS'water.n.06'
p36
aS'water.n.03'
p37
aS'lemon.n.01'
p38
aS'lemon.n.04'
p39
aS'pitcher.n.02'
p40
aS'pitcher.n.03'
p41
aS'milk.n.01'
p42
aS'milk.n.04'
p43
aS'banana.n.02'
p44
aS'chicken.n.01'
p45
aS'onion.n.01'
p46
aS'beef.n.02'
p47
aS'beef.n.01'
p48
aS'plate.n.04'
p49
aS'plate.n.12'
p50
aS'flesh.n.01'
p51
aS'bacon.n.01'
p52
aS'bacon.n.03'
p53
aS'opening.n.01'
p54
aS'gap.n.05'
p55
aS'batter.n.02'
p56
aS'meet.v.04'
p57
aS'kettle.n.01'
p58
aS'kettle.n.02'
p59
aS'cake.n.03'
p60
aS'patty.n.01'
p61
aS'whipped_cream.n.01'
p62
asS'instanceCount'
p63
I57
sS'matrix'
p64
(dp65
g50
(dp66
S'pan.n.01'
p67
I0
sg50
I0
sS'pan.n.03'
p68
I0
sg45
I0
sS'invest.v.01'
p69
I0
sg49
I0
sg47
I0
sS'put.v.01'
p70
I0
sg48
I0
sg46
I0
ssg13
(dp71
g15
I0
sg13
I1
sg17
I0
sg14
I0
sg19
I0
sg22
I0
sg18
I0
sg16
I0
sg21
I0
sg20
I0
ssg9
(dp72
g34
I0
sg9
I0
sg10
I0
sg56
I0
sg11
I0
sS'pan.n.01'
p73
I0
sg8
I0
sS'fill.v.09'
p74
I0
sg53
I0
sg52
I0
sS'fill.v.01'
p75
I0
sg33
I0
sg35
I0
sS'slice.v.02'
p76
I0
sS'slice.v.03'
p77
I0
sg12
I0
sg55
I0
sg31
I0
sg54
I0
sg37
I0
sg32
I0
sg36
I0
sS'pizza.n.01'
p78
I0
sg39
I0
sg38
I0
ssg48
(dp79
g67
I0
sg69
I0
sg68
I0
sg50
I0
sg48
I0
sg47
I0
sg49
I0
sg70
I0
sg45
I0
sg46
I0
ssg27
(dp80
g27
I0
sg45
I0
sg50
I0
sg48
I0
sg61
I0
sg29
I0
sg28
I0
sg25
I0
sg24
I0
sg47
I0
sg23
I0
sg49
I0
sg57
I0
sg62
I0
sg26
I0
sS'water.n.03'
p81
I0
sS'water.n.06'
p82
I0
sS'put.v.01'
p83
I0
sg30
I0
sg59
I0
sg58
I0
sg60
I0
sg46
I0
ssg53
(dp84
S'cut.v.01'
p85
I0
sS'swerve.v.01'
p86
I0
sS'fill.v.09'
p87
I0
sg53
I0
sg52
I0
sg55
I0
sg56
I0
sg54
I0
ssg10
(dp88
g12
I0
sg11
I0
sg8
I0
sg9
I0
sg10
I1
ssg56
(dp89
g85
I0
sg86
I0
sg87
I0
sg53
I0
sg52
I0
sg55
I0
sg56
I1
sg54
I0
ssg43
(dp90
S'slice.v.02'
p91
I0
sS'slice.v.03'
p92
I0
sS'knife.n.01'
p93
I0
sg44
I0
sS'fill.v.09'
p94
I0
sS'fill.v.01'
p95
I0
sg41
I0
sg40
I0
sg43
I0
sg42
I0
ssg11
(dp96
g91
I0
sg92
I0
sg8
I0
sg12
I0
sg44
I0
sg94
I0
sg11
I2
sg95
I0
sg41
I0
sg40
I0
sg43
I0
sg9
I0
sg10
I0
sg42
I0
ssg25
(dp97
g29
I0
sg27
I0
sg28
I0
sg24
I0
sg83
I0
sg23
I0
sg30
I0
sg25
I1
sg26
I0
ssg42
(dp98
g91
I0
sg92
I0
sg93
I0
sg44
I0
sg94
I0
sg95
I0
sg41
I0
sg40
I0
sg43
I1
sg42
I0
ssg29
(dp99
g29
I1
sg26
I0
sg28
I0
sS'cut.v.01'
p100
I0
sS'swerve.v.01'
p101
I0
sg48
I0
sg24
I0
sg37
I0
sg47
I0
sg36
I0
sg83
I0
sg23
I0
sg27
I0
sg49
I0
sg30
I0
sg50
I0
sg38
I0
sg45
I0
sg25
I0
sg46
I0
sg39
I0
ssg28
(dp102
g29
I2
sg26
I0
sg28
I0
sg50
I0
sg45
I0
sg24
I0
sg49
I0
sg47
I0
sg83
I0
sg23
I0
sg27
I0
sg30
I0
sg48
I0
sg25
I0
sg46
I0
ssg8
(dp103
g34
I0
sg9
I5
sg10
I0
sg56
I0
sg11
I0
sg73
I0
sg8
I0
sg74
I0
sg53
I0
sg52
I0
sg75
I0
sg33
I0
sg35
I0
sg76
I0
sg77
I0
sg12
I0
sg55
I0
sg31
I0
sg54
I0
sg37
I0
sg32
I0
sg36
I0
sg78
I0
sg39
I0
sg38
I0
ssg17
(dp104
g15
I0
sg13
I0
sg17
I0
sg14
I0
sg19
I0
sg22
I0
sg18
I0
sg16
I0
sg21
I0
sg20
I0
ssg24
(dp105
g27
I0
sg101
I0
sg56
I0
sg43
I0
sg25
I0
sg42
I0
sg29
I0
sg28
I0
sg100
I0
sg24
I1
sg53
I0
sg52
I0
sg23
I0
sg41
I0
sg40
I0
sg91
I0
sg92
I0
sg93
I0
sg44
I0
sg55
I0
sg54
I0
sg26
I0
sg37
I0
sg36
I0
sg83
I0
sg30
I0
sg39
I0
sg38
I0
ssg21
(dp106
g15
I0
sg14
I0
sg17
I0
sg13
I0
sg21
I0
sg22
I1
sg16
I0
sg18
I0
sg19
I0
sg20
I0
ssg62
(dp107
S'invest.v.01'
p108
I0
sg81
I0
sg57
I0
sg82
I0
sS'put.v.01'
p109
I0
sS'fill.v.01'
p110
I0
sg59
I0
sg62
I1
sg60
I0
sg58
I0
sg61
I0
ssg47
(dp111
g67
I0
sg69
I0
sg68
I0
sg50
I0
sg45
I0
sg47
I0
sg49
I0
sg70
I0
sg48
I1
sg46
I0
ssg22
(dp112
g15
I0
sg13
I0
sg17
I0
sg14
I0
sg19
I0
sg22
I0
sg16
I0
sg18
I0
sg21
I0
sg20
I0
ssg52
(dp113
g85
I0
sg86
I0
sg87
I0
sg53
I1
sg52
I0
sg55
I0
sg56
I0
sg54
I0
ssg23
(dp114
g27
I0
sg101
I0
sg43
I0
sg25
I0
sg42
I0
sg29
I0
sg28
I0
sg100
I0
sg24
I3
sg23
I0
sg41
I0
sg40
I0
sg58
I0
sg91
I0
sg92
I0
sg93
I0
sg44
I0
sg57
I1
sg62
I0
sg61
I0
sg26
I0
sg37
I0
sg36
I0
sg83
I0
sg30
I0
sg59
I0
sg39
I0
sg60
I0
sg38
I0
ssg41
(dp115
g91
I0
sg92
I0
sg93
I0
sg44
I0
sg94
I0
sg95
I0
sg41
I0
sg40
I0
sg43
I0
sg42
I0
ssg40
(dp116
g91
I0
sg92
I0
sg93
I0
sg44
I0
sg94
I0
sg95
I0
sg41
I1
sg40
I0
sg43
I0
sg42
I0
ssg58
(dp117
g108
I0
sg81
I0
sg62
I0
sg57
I0
sg82
I0
sg109
I0
sg110
I0
sg59
I1
sg58
I0
sg60
I0
sg61
I0
ssg33
(dp118
g76
I0
sg77
I0
sS'cut.v.01'
p119
I0
sS'swerve.v.01'
p120
I0
sg34
I1
sg32
I0
sg78
I0
sg33
I0
sg31
I0
sg35
I0
ssg60
(dp121
g108
I0
sg81
I0
sg62
I0
sg57
I0
sg82
I0
sg109
I0
sg110
I0
sg59
I0
sg58
I0
sg60
I0
sg61
I1
ssg20
(dp122
g15
I0
sg20
I1
sg17
I0
sg14
I0
sg19
I0
sg22
I0
sg16
I0
sg13
I0
sg18
I0
sg21
I0
ssg35
(dp123
g76
I0
sg77
I0
sg119
I0
sg120
I0
sg34
I0
sg32
I0
sg78
I0
sg35
I1
sg31
I0
sg33
I0
ssg15
(dp124
g13
I0
sg120
I0
sg34
I0
sg43
I0
sg42
I0
sg119
I0
sg17
I0
sg94
I0
sg21
I0
sg22
I0
sg95
I0
sg41
I0
sg40
I0
sg35
I0
sg20
I0
sg33
I0
sg15
I0
sg14
I0
sg93
I0
sg44
I0
sg19
I0
sg18
I0
sg31
I0
sg51
I0
sg32
I0
sg16
I0
sg78
I0
sS'onion.n.01'
p125
I0
ssg14
(dp126
g13
I0
sg120
I0
sg34
I0
sg43
I0
sg42
I0
sg119
I0
sg17
I0
sg94
I0
sg21
I0
sg22
I0
sg95
I0
sg41
I0
sg40
I0
sg35
I0
sg20
I0
sg33
I0
sg15
I5
sg14
I0
sg93
I0
sg44
I0
sg19
I0
sg18
I0
sg31
I0
sg51
I0
sg32
I0
sg16
I0
sg78
I0
sg125
I0
ssg12
(dp127
g11
I0
sg9
I0
sg8
I0
sg12
I1
sg10
I0
ssg44
(dp128
g91
I0
sg92
I0
sg93
I0
sg44
I1
sg94
I0
sg95
I0
sg41
I0
sg40
I0
sg43
I0
sg42
I0
ssg49
(dp129
g67
I0
sg69
I0
sg68
I0
sg50
I1
sg45
I0
sg47
I0
sg49
I0
sg70
I0
sg48
I0
sg46
I0
ssg19
(dp130
g15
I0
sg14
I0
sg17
I0
sg13
I0
sg19
I1
sg51
I0
sg22
I0
sg16
I0
sg18
I0
sg21
I0
sg125
I0
sg20
I0
ssg57
(dp131
g108
I0
sg81
I0
sg62
I0
sg57
I0
sg82
I0
sg109
I0
sg110
I0
sg59
I0
sg58
I0
sg60
I0
sg61
I0
ssg18
(dp132
g15
I0
sg13
I0
sg17
I0
sg14
I0
sg19
I1
sg22
I0
sg16
I0
sg18
I0
sg21
I0
sg20
I0
ssg45
(dp133
g67
I0
sg69
I0
sg68
I0
sg50
I0
sg45
I1
sg47
I0
sg49
I0
sg70
I0
sg48
I0
sg46
I0
ssg55
(dp134
g85
I0
sg86
I0
sg87
I0
sg53
I0
sg52
I0
sg55
I0
sg56
I0
sg54
I0
ssg61
(dp135
g108
I0
sg81
I0
sg62
I0
sg57
I0
sg82
I0
sg109
I0
sg110
I0
sg59
I0
sg58
I0
sg60
I0
sg61
I0
ssg31
(dp136
g76
I0
sg77
I0
sg119
I0
sg120
I0
sg34
I0
sg32
I1
sg78
I0
sg33
I0
sg31
I0
sg35
I0
ssg54
(dp137
g85
I0
sg86
I0
sg87
I0
sg53
I0
sg52
I0
sg55
I1
sg56
I0
sg54
I0
ssg26
(dp138
g29
I0
sg26
I1
sg28
I0
sg24
I0
sg83
I0
sg23
I0
sg27
I0
sg30
I0
sg25
I0
ssg51
(dp139
S'slice.v.02'
p140
I0
sS'slice.v.03'
p141
I0
sS'pepper.n.04'
p142
I0
sg125
I0
sg51
I1
ssg37
(dp143
g73
I0
sg108
I0
sg100
I0
sg101
I0
sg74
I0
sg37
I0
sg62
I0
sg57
I0
sg36
I0
sg109
I0
sg75
I0
sg59
I0
sg39
I0
sg60
I0
sg38
I0
sg58
I0
sg61
I0
ssg32
(dp144
g76
I0
sg77
I0
sg119
I0
sg120
I0
sg34
I0
sg32
I0
sg78
I0
sg33
I0
sg31
I0
sg35
I0
ssg36
(dp145
g73
I0
sg108
I0
sg100
I0
sg101
I0
sg74
I0
sg37
I2
sg62
I0
sg57
I0
sg36
I0
sg109
I0
sg75
I0
sg59
I0
sg39
I0
sg60
I0
sg38
I0
sg58
I0
sg61
I0
ssg16
(dp146
g50
I0
sg13
I0
sg45
I0
sg47
I0
sg48
I0
sg25
I0
sg29
I0
sg59
I0
sg28
I0
sg17
I1
sg24
I0
sg21
I0
sg22
I0
sg23
I0
sg20
I0
sg15
I0
sg14
I0
sg49
I0
sg19
I0
sg57
I0
sg18
I0
sg62
I0
sg61
I0
sg26
I0
sg81
I0
sg82
I0
sg16
I0
sg30
I0
sg27
I4
sg58
I0
sg60
I0
sg46
I0
ssg30
(dp147
g29
I0
sg26
I0
sg28
I0
sg119
I0
sg120
I0
sg24
I0
sg77
I0
sg32
I0
sg83
I0
sg23
I0
sg27
I0
sg30
I2
sg34
I0
sg33
I0
sg31
I0
sg25
I0
sg76
I0
sg35
I0
ssg59
(dp148
g108
I0
sg81
I0
sg62
I0
sg57
I0
sg82
I0
sg109
I0
sg110
I0
sg59
I0
sg58
I0
sg60
I0
sg61
I0
ssg39
(dp149
g73
I0
sg100
I0
sg101
I0
sg74
I0
sg37
I0
sg36
I0
sg75
I0
sg39
I0
sg38
I0
ssg34
(dp150
g76
I0
sg34
I0
sg119
I0
sg120
I0
sg77
I0
sg32
I0
sg78
I0
sg33
I0
sg31
I0
sg35
I0
ssg38
(dp151
g73
I0
sg100
I0
sg101
I0
sg74
I0
sg37
I0
sg36
I0
sg75
I0
sg39
I1
sg38
I0
ssg46
(dp152
g67
I0
sg69
I0
sg68
I0
sg50
I0
sg45
I0
sg47
I0
sg49
I0
sg142
I0
sg51
I0
sg70
I0
sg140
I0
sg48
I0
sg141
I0
sg46
I2
sssb.