ccopy_reg
_reconstructor
p0
(cutils.eval
ConfusionMatrix
p1
c__builtin__
object
p2
Ntp3
Rp4
(dp5
S'labels'
p6
(lp7
S'fill.v.01'
p8
aS'fill.v.09'
p9
aS'pitcher.n.02'
p10
aS'pitcher.n.03'
p11
aS'milk.n.01'
p12
aS'milk.n.04'
p13
aS'knife.n.01'
p14
aS'banana.n.02'
p15
aS'slice.v.03'
p16
aS'slice.v.02'
p17
asS'instanceCount'
p18
I6
sS'matrix'
p19
(dp20
g17
(dp21
g17
I0
ssg16
(dp22
g17
I1
ssg14
(dp23
S'knife.n.01'
p24
I1
ssg15
(dp25
S'banana.n.02'
p26
I1
ssg9
(dp27
g9
I0
ssg8
(dp28
g9
I1
ssg11
(dp29
g11
I0
ssg10
(dp30
g11
I1
ssg13
(dp31
g13
I0
ssg12
(dp32
g13
I1
sssb.