ccopy_reg
_reconstructor
p0
(cutils.eval
ConfusionMatrix
p1
c__builtin__
object
p2
Ntp3
Rp4
(dp5
S'labels'
p6
(lp7
S'fill.v.01'
p8
aS'fill.v.09'
p9
aS'pan.n.01'
p10
aS'water.n.06'
p11
aS'water.n.03'
p12
aS'cut.v.01'
p13
aS'swerve.v.01'
p14
aS'lemon.n.01'
p15
aS'lemon.n.04'
p16
asS'instanceCount'
p17
I5
sS'matrix'
p18
(dp19
g10
(dp20
S'pan.n.01'
p21
I1
ssg13
(dp22
g14
I1
ssg14
(dp23
g14
I0
ssg9
(dp24
g9
I0
ssg12
(dp25
g12
I0
ssg11
(dp26
g12
I1
ssg8
(dp27
g9
I1
ssg16
(dp28
g16
I0
ssg15
(dp29
g16
I1
sssb.