ccopy_reg
_reconstructor
p0
(cutils.eval
ConfusionMatrix
p1
c__builtin__
object
p2
Ntp3
Rp4
(dp5
S'labels'
p6
(lp7
S'jar.n.01'
p8
aS'fill.v.01'
p9
aS'gravy.n.01'
p10
aS'gravy.n.02'
p11
aS'ice.n.01'
p12
aS'ice.n.05'
p13
aS'bowl.n.01'
p14
aS'measuring_cup.n.01'
p15
aS'meal.n.03'
p16
asS'instanceCount'
p17
I11
sS'matrix'
p18
(dp19
g10
(dp20
g11
I1
ssg11
(dp21
g11
I0
ssg9
(dp22
S'fill.v.01'
p23
I4
ssg12
(dp24
g13
I1
ssg14
(dp25
S'bowl.n.01'
p26
I1
ssg13
(dp27
g13
I0
ssg15
(dp28
S'measuring_cup.n.01'
p29
I1
ssg8
(dp30
S'jar.n.01'
p31
I2
ssg16
(dp32
S'meal.n.03'
p33
I1
sssb.