ccopy_reg
_reconstructor
p0
(cutils.eval
ConfusionMatrix
p1
c__builtin__
object
p2
Ntp3
Rp4
(dp5
S'labels'
p6
(lp7
S'fill.v.01'
p8
aS'thermos.n.01'
p9
aS'coffee.n.01'
p10
aS'opening.n.01'
p11
aS'gap.n.03'
p12
aS'fill.v.09'
p13
aS'batter.n.02'
p14
aS'saltcellar.n.01'
p15
aS'salt.n.02'
p16
aS'foam.n.01'
p17
aS'mug.n.04'
p18
asS'instanceCount'
p19
I12
sS'matrix'
p20
(dp21
g16
(dp22
S'salt.n.02'
p23
I1
ssg15
(dp24
S'saltcellar.n.01'
p25
I1
ssg12
(dp26
g12
I0
ssg13
(dp27
S'fill.v.01'
p28
I1
ssg9
(dp29
S'thermos.n.01'
p30
I1
ssg10
(dp31
S'coffee.n.01'
p32
I1
ssg8
(dp33
S'fill.v.01'
p34
I3
ssg14
(dp35
S'batter.n.02'
p36
I1
ssg18
(dp37
S'mug.n.04'
p38
I1
ssg17
(dp39
S'foam.n.01'
p40
I1
ssg11
(dp41
g12
I1
sssb.