ccopy_reg
_reconstructor
p0
(cutils.eval
ConfusionMatrix
p1
c__builtin__
object
p2
Ntp3
Rp4
(dp5
S'labels'
p6
(lp7
S'ice.n.01'
p8
aS'ice.n.05'
p9
aS'fill.v.01'
p10
aS'bowl.n.01'
p11
aS'measuring_cup.n.01'
p12
aS'meal.n.03'
p13
aS'blender.n.01'
p14
aS'apple.n.01'
p15
aS'whiskey.n.01'
p16
aS'carafe.n.01'
p17
aS'cup.n.01'
p18
aS'cola.n.02'
p19
aS'pitcher.n.02'
p20
aS'milk.n.01'
p21
aS'bottle.n.01'
p22
aS'fruit_juice.n.01'
p23
aS'kettle.n.01'
p24
aS'water.n.06'
p25
aS'pot.n.01'
p26
aS'pan.n.03'
p27
aS'teapot.n.01'
p28
aS'wok.n.01'
p29
aS'rice.n.01'
p30
aS'opening.n.01'
p31
aS'opening.n.10'
p32
aS'fill.v.09'
p33
aS'curd.n.01'
p34
aS'glass.n.02'
p35
aS'thermos.n.01'
p36
aS'coffee.n.01'
p37
aS'gap.n.03'
p38
aS'batter.n.02'
p39
aS'saltcellar.n.01'
p40
aS'salt.n.02'
p41
aS'foam.n.01'
p42
aS'mug.n.04'
p43
aS'jar.n.01'
p44
aS'gravy.n.01'
p45
aS'gravy.n.02'
p46
asS'instanceCount'
p47
I118
sS'matrix'
p48
(dp49
g40
(dp50
S'gravy.n.01'
p51
I0
sg41
I0
sS'gravy.n.02'
p52
I0
sS'gap.n.03'
p53
I0
sg40
I2
sS'thermos.n.01'
p54
I0
sS'coffee.n.01'
p55
I0
sS'fill.v.01'
p56
I0
sS'fill.v.09'
p57
I0
sS'batter.n.02'
p58
I0
sg43
I0
sg42
I0
sS'jar.n.01'
p59
I0
sS'opening.n.01'
p60
I0
ssg36
(dp61
g41
I0
sg40
I0
sS'rice.n.01'
p62
I0
sS'teapot.n.01'
p63
I0
sS'fill.v.09'
p64
I0
sS'wok.n.01'
p65
I0
sg36
I2
sg37
I0
sS'water.n.06'
p66
I0
sS'fill.v.01'
p67
I0
sg38
I0
sg39
I0
sg43
I0
sg42
I0
sS'opening.n.01'
p68
I0
ssg11
(dp69
g45
I0
sg46
I0
sg14
I0
sg10
I0
sg8
I0
sg11
I2
sg9
I0
sg15
I0
sg12
I0
sg44
I0
sg17
I0
sg16
I0
sg13
I0
ssg39
(dp70
g41
I0
sg40
I0
sg36
I0
sg63
I0
sg64
I0
sg65
I0
sg62
I0
sg37
I0
sg66
I0
sg67
I0
sg38
I0
sg39
I2
sg43
I0
sg42
I0
sg68
I0
ssg32
(dp71
S'fruit_juice.n.01'
p72
I0
sg33
I0
sS'bottle.n.01'
p73
I0
sS'pot.n.01'
p74
I0
sS'water.n.06'
p75
I0
sS'fill.v.01'
p76
I0
sS'kettle.n.01'
p77
I0
sS'pan.n.03'
p78
I0
sg34
I0
sg32
I0
sS'milk.n.01'
p79
I0
sg35
I0
sg31
I0
ssg15
(dp80
S'cola.n.02'
p81
I0
sg14
I0
sS'milk.n.01'
p82
I0
sg10
I0
sg8
I0
sS'pitcher.n.02'
p83
I0
sg11
I0
sg9
I0
sg12
I0
sg15
I2
sS'cup.n.01'
p84
I0
sg17
I0
sg16
I0
sg13
I0
ssg18
(dp85
g23
I0
sg19
I0
sS'blender.n.01'
p86
I0
sg22
I0
sg25
I0
sS'fill.v.01'
p87
I0
sg20
I0
sg24
I0
sS'apple.n.01'
p88
I0
sg18
I2
sS'carafe.n.01'
p89
I0
sg21
I0
sS'whiskey.n.01'
p90
I0
ssg21
(dp91
g23
I0
sg19
I0
sg33
I0
sg22
I0
sg86
I0
sg74
I0
sg25
I0
sg78
I0
sg87
I0
sg90
I0
sg20
I0
sg24
I0
sg88
I0
sg34
I0
sg32
I0
sg18
I0
sg89
I0
sg21
I4
sg35
I0
sg31
I0
ssg27
(dp92
g27
I2
sg28
I0
sS'fill.v.09'
p93
I0
sg29
I0
sg30
I0
sg26
I0
sS'water.n.06'
p94
I0
sS'fill.v.01'
p95
I0
sS'curd.n.01'
p96
I0
sS'opening.n.10'
p97
I0
sS'milk.n.01'
p98
I0
sS'glass.n.02'
p99
I0
sS'opening.n.01'
p100
I0
ssg42
(dp101
g51
I0
sg41
I0
sg40
I0
sg52
I0
sg53
I0
sg57
I0
sg54
I0
sg55
I0
sg56
I0
sg58
I0
sg43
I0
sg42
I2
sg59
I0
sg60
I0
ssg19
(dp102
g23
I0
sg19
I2
sg86
I0
sg22
I0
sg25
I0
sg87
I0
sg20
I0
sg24
I0
sg88
I0
sg18
I0
sg89
I0
sg21
I0
sg90
I0
ssg38
(dp103
g41
I0
sg40
I0
sg36
I0
sg63
I0
sg64
I0
sg65
I0
sg62
I0
sg37
I0
sg66
I0
sg67
I0
sg42
I0
sg39
I0
sg43
I0
sg68
I0
sg38
I0
ssg33
(dp104
g40
I0
sg62
I0
sg39
I0
sg32
I0
sg42
I0
sg79
I0
sg78
I0
sg38
I0
sg33
I0
sg73
I0
sg74
I0
sg76
I4
sg35
I0
sg41
I0
sg65
I0
sg37
I0
sg31
I0
sg43
I0
sg72
I0
sg63
I0
sg36
I0
sg75
I0
sg77
I0
sg34
I0
ssg22
(dp105
g23
I0
sg19
I0
sg33
I0
sg22
I2
sg25
I0
sg87
I0
sg20
I0
sg24
I0
sg34
I0
sg32
I0
sg18
I0
sg21
I0
sg35
I0
sg31
I0
ssg26
(dp106
g27
I0
sg28
I0
sg93
I0
sg29
I0
sg30
I0
sg26
I2
sg94
I0
sg95
I0
sg96
I0
sg97
I0
sg98
I0
sg99
I0
sg100
I0
ssg10
(dp107
g40
I0
sg36
I0
sg11
I0
sg39
I0
sg32
I0
sg15
I0
sg18
I0
sg21
I0
sg27
I0
sg42
I0
sg19
I0
sg38
I0
sg33
I0
sg22
I0
sg26
I0
sg10
I36
sg20
I0
sg12
I0
sg35
I0
sg45
I0
sg41
I0
sg46
I0
sg29
I0
sg37
I0
sg16
I0
sg31
I0
sg43
I0
sg23
I0
sg28
I0
sg14
I0
sg30
I0
sg25
I0
sg8
I0
sg24
I0
sg9
I0
sg34
I0
sg44
I0
sg17
I0
sg13
I0
ssg20
(dp108
g23
I0
sg19
I0
sg86
I0
sg22
I0
sg25
I0
sg87
I0
sg20
I2
sg24
I0
sg88
I0
sg18
I0
sg89
I0
sg21
I0
sg90
I0
ssg12
(dp109
g45
I0
sg46
I0
sg14
I0
sg10
I0
sg8
I0
sg11
I0
sg9
I0
sg15
I0
sg12
I2
sg44
I0
sg17
I0
sg16
I0
sg13
I0
ssg35
(dp110
g72
I0
sg33
I0
sg73
I0
sg74
I0
sg75
I0
sg76
I0
sg77
I0
sg78
I0
sg34
I0
sg32
I0
sg79
I0
sg35
I2
sg31
I0
ssg45
(dp111
g45
I0
sS'salt.n.02'
p112
I0
sS'mug.n.04'
p113
I0
sg46
I2
sS'saltcellar.n.01'
p114
I0
sS'fill.v.01'
p115
I0
sS'ice.n.01'
p116
I0
sS'bowl.n.01'
p117
I0
sS'ice.n.05'
p118
I0
sS'measuring_cup.n.01'
p119
I0
sg44
I0
sS'foam.n.01'
p120
I0
sS'meal.n.03'
p121
I0
ssg41
(dp122
g51
I0
sg41
I2
sg40
I0
sg52
I0
sg53
I0
sg57
I0
sg54
I0
sg55
I0
sg56
I0
sg58
I0
sg43
I0
sg42
I0
sg59
I0
sg60
I0
ssg46
(dp123
g45
I0
sg112
I0
sg113
I0
sg46
I0
sg114
I0
sg115
I0
sg116
I0
sg117
I0
sg118
I0
sg119
I0
sg44
I0
sg120
I0
sg121
I0
ssg29
(dp124
g27
I0
sg36
I0
sg28
I0
sg64
I0
sg29
I2
sg37
I0
sg30
I0
sg26
I0
sg94
I0
sg95
I0
sg38
I0
sg39
I0
sg68
I0
ssg37
(dp125
g41
I0
sg40
I0
sg36
I0
sg63
I0
sg64
I0
sg65
I0
sg62
I0
sg37
I2
sg66
I0
sg67
I0
sg38
I0
sg39
I0
sg43
I0
sg42
I0
sg68
I0
ssg16
(dp126
g81
I0
sg14
I0
sg82
I0
sg10
I0
sg8
I0
sg83
I0
sg11
I0
sg9
I0
sg15
I0
sg12
I0
sg84
I0
sg17
I0
sg16
I2
sg13
I0
ssg31
(dp127
g40
I0
sg62
I0
sg39
I0
sg32
I2
sg42
I0
sg79
I0
sg78
I0
sg38
I2
sg33
I0
sg73
I0
sg74
I0
sg76
I0
sg35
I0
sg41
I0
sg65
I0
sg37
I0
sg31
I0
sg43
I0
sg72
I0
sg63
I0
sg36
I0
sg75
I0
sg77
I0
sg34
I0
ssg43
(dp128
g51
I0
sg43
I2
sg40
I0
sg52
I0
sg53
I0
sg57
I0
sg54
I0
sg55
I0
sg56
I0
sg58
I0
sg59
I0
sg42
I0
sg41
I0
sg60
I0
ssg23
(dp129
g23
I2
sg19
I0
sg33
I0
sg22
I0
sg25
I0
sg87
I0
sg20
I0
sg24
I0
sg34
I0
sg32
I0
sg18
I0
sg21
I0
sg35
I0
sg31
I0
ssg28
(dp130
g27
I0
sg36
I0
sg28
I2
sg64
I0
sg29
I0
sg37
I0
sg30
I0
sg26
I0
sg94
I0
sg95
I0
sg38
I0
sg39
I0
sg68
I0
ssg14
(dp131
g81
I0
sg14
I2
sg82
I0
sg10
I0
sg8
I0
sg83
I0
sg11
I0
sg9
I0
sg15
I0
sg12
I0
sg84
I0
sg17
I0
sg16
I0
sg13
I0
ssg30
(dp132
g27
I0
sg36
I0
sg28
I0
sg64
I0
sg29
I0
sg37
I0
sg30
I2
sg26
I0
sg94
I0
sg95
I0
sg38
I0
sg39
I0
sg68
I0
ssg25
(dp133
g30
I0
sg39
I0
sg32
I0
sg18
I0
sg21
I0
sg27
I0
sg19
I0
sg38
I0
sg33
I0
sg22
I0
sg26
I0
sg87
I0
sg20
I0
sg35
I0
sg29
I0
sg37
I0
sg31
I0
sg23
I0
sg28
I0
sg36
I0
sg25
I8
sg24
I0
sg34
I0
ssg8
(dp134
g45
I0
sg46
I0
sg14
I0
sg10
I0
sg8
I0
sg11
I0
sg9
I2
sg15
I0
sg12
I0
sg44
I0
sg17
I0
sg16
I0
sg13
I0
ssg24
(dp135
g23
I0
sg19
I0
sg33
I0
sg22
I0
sg25
I0
sg87
I0
sg20
I0
sg24
I2
sg34
I0
sg32
I0
sg18
I0
sg21
I0
sg35
I0
sg31
I0
ssg9
(dp136
g45
I0
sg46
I0
sg14
I0
sg10
I0
sg8
I0
sg11
I0
sg9
I0
sg15
I0
sg12
I0
sg44
I0
sg17
I0
sg16
I0
sg13
I0
ssg34
(dp137
g72
I0
sg33
I0
sg73
I0
sg74
I0
sg75
I0
sg76
I0
sg77
I0
sg78
I0
sg34
I2
sg32
I0
sg79
I0
sg35
I0
sg31
I0
ssg44
(dp138
g45
I0
sg112
I0
sg113
I0
sg46
I0
sg114
I0
sg115
I0
sg116
I0
sg117
I0
sg118
I0
sg119
I0
sg44
I4
sg120
I0
sg121
I0
ssg17
(dp139
g81
I0
sg14
I0
sg82
I0
sg10
I0
sg8
I0
sg83
I0
sg11
I0
sg9
I0
sg15
I0
sg12
I0
sg84
I0
sg17
I2
sg16
I0
sg13
I0
ssg13
(dp140
g45
I0
sg46
I0
sg14
I0
sg10
I0
sg8
I0
sg11
I0
sg9
I0
sg15
I0
sg12
I0
sg44
I0
sg17
I0
sg16
I0
sg13
I2
sssb.