ccopy_reg
_reconstructor
p0
(cutils.eval
ConfusionMatrix
p1
c__builtin__
object
p2
Ntp3
Rp4
(dp5
S'labels'
p6
(lp7
S'fill.v.01'
p8
aS'bottle.n.01'
p9
aS'fruit_juice.n.01'
p10
aS'kettle.n.01'
p11
aS'water.n.06'
p12
aS'opening.n.01'
p13
aS'opening.n.10'
p14
aS'fill.v.09'
p15
aS'curd.n.01'
p16
aS'glass.n.02'
p17
aS'milk.n.01'
p18
asS'instanceCount'
p19
I12
sS'matrix'
p20
(dp21
g10
(dp22
S'fruit_juice.n.01'
p23
I1
ssg15
(dp24
S'fill.v.01'
p25
I1
ssg9
(dp26
S'bottle.n.01'
p27
I1
ssg12
(dp28
S'water.n.06'
p29
I1
ssg8
(dp30
S'fill.v.01'
p31
I3
ssg11
(dp32
S'kettle.n.01'
p33
I1
ssg16
(dp34
S'curd.n.01'
p35
I1
ssg14
(dp36
g14
I0
ssg18
(dp37
S'milk.n.01'
p38
I1
ssg17
(dp39
S'glass.n.02'
p40
I1
ssg13
(dp41
g14
I1
sssb.