ccopy_reg
_reconstructor
p0
(cutils.eval
ConfusionMatrix
p1
c__builtin__
object
p2
Ntp3
Rp4
(dp5
S'labels'
p6
(lp7
S'ice.n.01'
p8
aS'ice.n.05'
p9
aS'fill.v.01'
p10
aS'bowl.n.01'
p11
aS'measuring_cup.n.01'
p12
aS'meal.n.03'
p13
aS'blender.n.01'
p14
aS'apple.n.01'
p15
aS'whiskey.n.01'
p16
aS'carafe.n.01'
p17
asS'instanceCount'
p18
I12
sS'matrix'
p19
(dp20
g14
(dp21
S'blender.n.01'
p22
I1
ssg10
(dp23
S'fill.v.01'
p24
I4
ssg8
(dp25
g9
I1
ssg11
(dp26
S'bowl.n.01'
p27
I1
ssg9
(dp28
g9
I0
ssg15
(dp29
S'apple.n.01'
p30
I1
ssg12
(dp31
S'measuring_cup.n.01'
p32
I1
ssg17
(dp33
S'carafe.n.01'
p34
I1
ssg16
(dp35
S'whiskey.n.01'
p36
I1
ssg13
(dp37
S'meal.n.03'
p38
I1
sssb.