ccopy_reg
_reconstructor
p0
(cutils.eval
ConfusionMatrix
p1
c__builtin__
object
p2
Ntp3
Rp4
(dp5
S'labels'
p6
(lp7
S'pot.n.01'
p8
aS'fill.v.01'
p9
aS'water.n.06'
p10
aS'pan.n.03'
p11
aS'teapot.n.01'
p12
aS'wok.n.01'
p13
aS'rice.n.01'
p14
asS'instanceCount'
p15
I12
sS'matrix'
p16
(dp17
g11
(dp18
S'pan.n.03'
p19
I1
ssg12
(dp20
S'teapot.n.01'
p21
I1
ssg13
(dp22
S'wok.n.01'
p23
I1
ssg14
(dp24
S'rice.n.01'
p25
I1
ssg8
(dp26
S'pot.n.01'
p27
I1
ssg10
(dp28
S'water.n.06'
p29
I3
ssg9
(dp30
S'fill.v.01'
p31
I4
sssb.