ccopy_reg
_reconstructor
p0
(cutils.eval
ConfusionMatrix
p1
c__builtin__
object
p2
Ntp3
Rp4
(dp5
S'labels'
p6
(lp7
S'olive.n.01'
p8
aS'olive.n.04'
p9
aS'cut.v.01'
p10
aS'vegetable.n.01'
p11
aS'knife.n.01'
p12
asS'instanceCount'
p13
I5
sS'matrix'
p14
(dp15
g8
(dp16
g9
I1
ssg10
(dp17
S'cut.v.01'
p18
I2
ssg12
(dp19
S'knife.n.01'
p20
I1
ssg11
(dp21
S'vegetable.n.01'
p22
I1
ssg9
(dp23
g9
I0
sssb.