ccopy_reg
_reconstructor
p0
(cutils.eval
ConfusionMatrix
p1
c__builtin__
object
p2
Ntp3
Rp4
(dp5
S'labels'
p6
(lp7
S'cut.v.01'
p8
aS'flesh.n.01'
p9
aS'human_body.n.01'
p10
aS'cleaver.n.01'
p11
aS'cake.n.03'
p12
aS'fork.n.01'
p13
aS'crotch.n.02'
p14
asS'instanceCount'
p15
I6
sS'matrix'
p16
(dp17
g8
(dp18
S'cut.v.01'
p19
I2
ssg9
(dp20
g10
I1
ssg13
(dp21
g14
I1
ssg10
(dp22
g10
I0
ssg12
(dp23
S'cake.n.03'
p24
I1
ssg11
(dp25
S'cleaver.n.01'
p26
I1
ssg14
(dp27
g14
I0
sssb.