ccopy_reg
_reconstructor
p0
(cutils.eval
ConfusionMatrix
p1
c__builtin__
object
p2
Ntp3
Rp4
(dp5
S'labels'
p6
(lp7
S'tomato.n.01'
p8
aS'tomato.n.02'
p9
aS'piece.n.08'
p10
aS'onion.n.03'
p11
aS'onion.n.02'
p12
aS'mustard.n.02'
p13
aS'flesh.n.01'
p14
aS'human_body.n.01'
p15
aS'slice.v.03'
p16
aS'lemon.n.01'
p17
aS'knife.n.01'
p18
aS'banana.n.02'
p19
aS'orange.n.01'
p20
aS'slice.n.06'
p21
aS'mushroom.n.05'
p22
aS'zucchini.n.01'
p23
aS'zucchini.n.02'
p24
aS'vegetable.n.01'
p25
aS'green_onion.n.01'
p26
aS'bacon.n.01'
p27
aS'bread.n.01'
p28
aS'cabbage.n.01'
p29
aS'meat.n.01'
p30
aS'cleaver.n.01'
p31
aS'potato.n.01'
p32
aS'egg.n.02'
p33
aS'olive.n.01'
p34
aS'olive.n.04'
p35
aS'pizza.n.01'
p36
aS'cheese.n.01'
p37
asS'instanceCount'
p38
I52
sS'matrix'
p39
(dp40
g22
(dp41
g22
I1
sS'slice.v.03'
p42
I0
sg20
I0
sg21
I0
sS'piece.n.08'
p43
I0
ssg37
(dp44
g37
I1
sS'piece.n.08'
p45
I0
sS'slice.v.03'
p46
I0
sg36
I0
ssg28
(dp47
S'slice.v.03'
p48
I0
sS'knife.n.01'
p49
I0
sS'lemon.n.01'
p50
I0
sg28
I1
ssg20
(dp51
g22
I0
sg42
I0
sg20
I1
sg21
I0
sg43
I0
ssg24
(dp52
S'knife.n.01'
p53
I0
sS'slice.v.03'
p54
I0
sg25
I0
sg24
I0
sg23
I0
ssg23
(dp55
g53
I0
sg54
I0
sg25
I0
sg24
I1
sg23
I0
ssg29
(dp56
S'slice.v.03'
p57
I0
sg29
I1
sg30
I0
sg31
I0
ssg26
(dp58
S'slice.v.03'
p59
I0
sg26
I1
sS'knife.n.01'
p60
I0
sg27
I0
ssg13
(dp61
g16
I0
sg13
I1
sg14
I0
sg9
I0
sg8
I0
sg15
I0
sg10
I0
sg11
I0
sg12
I0
ssg9
(dp62
g16
I0
sg13
I0
sg14
I0
sg9
I0
sg8
I0
sg15
I0
sg10
I0
sg11
I0
sg12
I0
ssg8
(dp63
g16
I0
sg13
I0
sS'knife.n.01'
p64
I0
sg14
I0
sg9
I1
sg8
I1
sg15
I0
sg32
I0
sg10
I0
sg11
I0
sg12
I0
ssg27
(dp65
g59
I0
sg26
I0
sg60
I0
sg27
I1
ssg30
(dp66
g57
I0
sg29
I0
sg30
I1
sg31
I0
ssg32
(dp67
S'slice.v.03'
p68
I0
sS'tomato.n.01'
p69
I0
sg64
I0
sS'piece.n.08'
p70
I0
sg32
I1
ssg31
(dp71
g57
I0
sg29
I0
sg31
I1
sg30
I0
ssg16
(dp72
g22
I0
sg37
I0
sg28
I0
sg20
I0
sg24
I0
sg23
I0
sg29
I0
sg26
I0
sg13
I0
sg9
I0
sg8
I0
sg27
I0
sg30
I0
sg32
I0
sg31
I0
sg16
I19
sg34
I0
sg18
I0
sg19
I0
sg35
I0
sg15
I0
sg10
I0
sg25
I0
sg14
I0
sg21
I0
sg36
I0
sg17
I0
sg33
I0
sg11
I0
sg12
I0
ssg34
(dp73
S'slice.v.03'
p74
I0
sg34
I0
sg35
I1
sS'piece.n.08'
p75
I0
sg33
I0
ssg18
(dp76
S'slice.v.03'
p77
I0
sg25
I0
sg18
I5
sg19
I0
sg69
I0
sg32
I0
sg27
I0
sg28
I0
sg24
I0
sg17
I0
sg23
I0
sg26
I0
sg70
I0
ssg19
(dp78
g77
I0
sg18
I0
sg17
I0
sg19
I1
ssg35
(dp79
g34
I0
sg74
I0
sg75
I0
sg33
I0
sg35
I0
ssg15
(dp80
g16
I0
sg13
I0
sg14
I0
sg9
I0
sg8
I0
sg15
I0
sg10
I0
sg11
I0
sg12
I0
ssg10
(dp81
g22
I0
sg16
I0
sg13
I0
sg64
I0
sg33
I0
sg14
I0
sg9
I0
sg8
I0
sg35
I0
sg21
I1
sg20
I0
sg36
I0
sg37
I0
sg15
I0
sg32
I0
sg10
I4
sg34
I0
sg11
I0
sg12
I0
ssg25
(dp82
g53
I0
sg54
I0
sg25
I1
sg24
I0
sg23
I0
ssg14
(dp83
g16
I0
sg13
I0
sg14
I0
sg9
I0
sg8
I0
sg15
I1
sg10
I0
sg11
I0
sg12
I0
ssg21
(dp84
g22
I0
sg42
I0
sg20
I0
sg21
I0
sg43
I0
ssg36
(dp85
g37
I0
sg46
I0
sg45
I0
sg36
I1
ssg17
(dp86
g77
I0
sg18
I0
sg19
I0
sg17
I2
sg28
I0
ssg33
(dp87
g33
I1
sg75
I0
sg35
I0
sg34
I0
sg74
I0
ssg11
(dp88
g16
I0
sg13
I0
sg14
I0
sg9
I0
sg8
I0
sg15
I0
sg10
I0
sg11
I0
sg12
I1
ssg12
(dp89
g16
I0
sg13
I0
sg14
I0
sg9
I0
sg8
I0
sg15
I0
sg10
I0
sg11
I0
sg12
I0
sssb.