ccopy_reg
_reconstructor
p0
(cutils.eval
ConfusionMatrix
p1
c__builtin__
object
p2
Ntp3
Rp4
(dp5
S'labels'
p6
(lp7
S'Neutralisation'
p8
aS'Filling'
p9
aS'Stirring'
p10
aS'Slicing'
p11
aS'Cutting'
p12
asS'instanceCount'
p13
I3
sS'matrix'
p14
(dp15
g11
(dp16
g12
I1
ssg9
(dp17
g9
I0
ssg12
(dp18
g12
I0
ssg10
(dp19
S'Stirring'
p20
I1
ssg8
(dp21
g9
I1
sssb.