ccopy_reg
_reconstructor
p0
(cutils.eval
ConfusionMatrix
p1
c__builtin__
object
p2
Ntp3
Rp4
(dp5
S'labels'
p6
(lp7
S'Cutting'
p8
aS'Stirring'
p9
aS'Filling'
p10
aS'Adding'
p11
asS'instanceCount'
p12
I4
sS'matrix'
p13
(dp14
g11
(dp15
S'Adding'
p16
I1
ssg10
(dp17
S'Filling'
p18
I1
ssg8
(dp19
g9
I1
ssg9
(dp20
g9
I1
sssb.