ccopy_reg
_reconstructor
p0
(cutils.eval
ConfusionMatrix
p1
c__builtin__
object
p2
Ntp3
Rp4
(dp5
S'labels'
p6
(lp7
S'Adding'
p8
aS'Filling'
p9
aS'Cutting'
p10
aS'Stirring'
p11
asS'instanceCount'
p12
I4
sS'matrix'
p13
(dp14
g8
(dp15
g9
I1
ssg9
(dp16
g9
I1
ssg10
(dp17
g11
I2
ssg11
(dp18
g11
I0
sssb.