ccopy_reg
_reconstructor
p0
(cutils.eval
ConfusionMatrix
p1
c__builtin__
object
p2
Ntp3
Rp4
(dp5
S'labels'
p6
(lp7
S'Stirring'
p8
aS'Slicing'
p9
aS'Filling'
p10
asS'instanceCount'
p11
I4
sS'matrix'
p12
(dp13
g9
(dp14
S'Stirring'
p15
I1
ssg10
(dp16
S'Filling'
p17
I2
ssg8
(dp18
g15
I1
sssb.