ccopy_reg
_reconstructor
p0
(cutils.eval
ConfusionMatrix
p1
c__builtin__
object
p2
Ntp3
Rp4
(dp5
S'labels'
p6
(lp7
S'Stirring'
p8
aS'Adding'
p9
aS'Filling'
p10
aS'Neutralisation'
p11
asS'instanceCount'
p12
I4
sS'matrix'
p13
(dp14
g9
(dp15
g10
I1
ssg10
(dp16
g10
I0
ssg11
(dp17
S'Neutralisation'
p18
I1
ssg8
(dp19
S'Stirring'
p20
I2
sssb.