ccopy_reg
_reconstructor
p0
(cutils.eval
ConfusionMatrix
p1
c__builtin__
object
p2
Ntp3
Rp4
(dp5
S'labels'
p6
(lp7
S'pan.n.03'
p8
aS'add.v.01'
p9
aS'butter.n.01'
p10
aS'salt.n.02'
p11
aS'meat.n.01'
p12
aS'sauce.n.01'
p13
aS'cream.n.02'
p14
aS'cream.n.03'
p15
aS'pot.n.01'
p16
aS'pot.n.04'
p17
aS'bean.n.01'
p18
aS'rib.n.03'
p19
aS'mixing_bowl.n.01'
p20
aS'sugar.n.01'
p21
aS'ingredient.n.03'
p22
aS'concoction.n.01'
p23
aS'mixture.n.01'
p24
aS'asparagus.n.02'
p25
aS'salad.n.01'
p26
aS'milk.n.01'
p27
aS'milk.n.04'
p28
aS'water.n.06'
p29
aS'water_system.n.02'
p30
aS'egg.n.02'
p31
aS'vanilla.n.02'
p32
asS'instanceCount'
p33
I36
sS'matrix'
p34
(dp35
g20
(dp36
S'mixing_bowl.n.01'
p37
I2
ssg28
(dp38
g28
I0
ssg9
(dp39
S'add.v.01'
p40
I12
ssg27
(dp41
g28
I1
ssg8
(dp42
S'pan.n.03'
p43
I2
ssg17
(dp44
g17
I0
ssg10
(dp45
S'butter.n.01'
p46
I2
ssg16
(dp47
g17
I1
ssg25
(dp48
S'asparagus.n.02'
p49
I1
ssg12
(dp50
S'meat.n.01'
p51
I1
ssg32
(dp52
S'vanilla.n.02'
p53
I1
ssg18
(dp54
S'bean.n.01'
p55
I1
ssg23
(dp56
g24
I1
ssg13
(dp57
S'sauce.n.01'
p58
I1
ssg11
(dp59
S'salt.n.02'
p60
I1
ssg19
(dp61
S'rib.n.03'
p62
I1
ssg24
(dp63
g24
I0
ssg14
(dp64
g15
I2
ssg15
(dp65
g15
I0
ssg22
(dp66
S'ingredient.n.03'
p67
I2
ssg30
(dp68
g30
I0
ssg29
(dp69
g30
I1
ssg31
(dp70
S'egg.n.02'
p71
I1
ssg26
(dp72
S'salad.n.01'
p73
I1
ssg21
(dp74
S'sugar.n.01'
p75
I1
sssb.