ccopy_reg
_reconstructor
p0
(cutils.eval
ConfusionMatrix
p1
c__builtin__
object
p2
Ntp3
Rp4
(dp5
S'labels'
p6
(lp7
S'add.v.01'
p8
aS'ingredient.n.03'
p9
aS'concoction.n.01'
p10
aS'mixture.n.01'
p11
aS'cream.n.02'
p12
aS'cream.n.03'
p13
aS'asparagus.n.02'
p14
aS'salad.n.01'
p15
aS'milk.n.01'
p16
aS'water.n.06'
p17
aS'water_system.n.02'
p18
aS'egg.n.02'
p19
aS'mixing_bowl.n.01'
p20
aS'pan.n.03'
p21
aS'vanilla.n.02'
p22
aS'butter.n.01'
p23
aS'onion.n.03'
p24
aS'french_fries.n.01'
p25
aS'steak.n.01'
p26
aS'corn.n.03'
p27
aS'dish.n.02'
p28
aS'dish.n.01'
p29
aS'dressing.n.01'
p30
aS'dressing.n.04'
p31
asS'instanceCount'
p32
I35
sS'matrix'
p33
(dp34
g27
(dp35
S'corn.n.03'
p36
I1
ssg20
(dp37
S'mixing_bowl.n.01'
p38
I1
ssg28
(dp39
g29
I1
ssg29
(dp40
g29
I0
ssg8
(dp41
S'add.v.01'
p42
I12
ssg16
(dp43
S'milk.n.01'
p44
I1
ssg21
(dp45
S'pan.n.03'
p46
I2
ssg19
(dp47
S'egg.n.02'
p48
I2
ssg23
(dp49
S'butter.n.01'
p50
I1
ssg14
(dp51
S'asparagus.n.02'
p52
I1
ssg22
(dp53
S'vanilla.n.02'
p54
I2
ssg10
(dp55
g11
I1
ssg11
(dp56
g11
I0
ssg12
(dp57
g13
I1
ssg9
(dp58
S'ingredient.n.03'
p59
I2
ssg13
(dp60
g13
I0
ssg26
(dp61
S'steak.n.01'
p62
I1
ssg31
(dp63
g31
I0
ssg18
(dp64
g18
I0
ssg17
(dp65
g18
I1
ssg30
(dp66
g31
I1
ssg25
(dp67
S'french_fries.n.01'
p68
I1
ssg15
(dp69
S'salad.n.01'
p70
I2
ssg24
(dp71
S'onion.n.03'
p72
I1
sssb.