ccopy_reg
_reconstructor
p0
(cutils.eval
ConfusionMatrix
p1
c__builtin__
object
p2
Ntp3
Rp4
(dp5
S'labels'
p6
(lp7
S'add.v.01'
p8
aS'egg.n.02'
p9
aS'french_fries.n.01'
p10
aS'corn.n.03'
p11
aS'dish.n.02'
p12
aS'dish.n.01'
p13
aS'dressing.n.01'
p14
aS'dressing.n.04'
p15
aS'salad.n.01'
p16
aS'apple.n.01'
p17
aS'vegetable.n.01'
p18
aS'pan.n.03'
p19
aS'butter.n.01'
p20
aS'salt.n.02'
p21
aS'meat.n.01'
p22
aS'kernel.n.01'
p23
aS'sauce.n.01'
p24
aS'cream.n.02'
p25
aS'cream.n.03'
p26
aS'pot.n.01'
p27
aS'pot.n.04'
p28
aS'bean.n.01'
p29
aS'rib.n.03'
p30
aS'mixing_bowl.n.01'
p31
aS'sugar.n.01'
p32
aS'boodle.n.01'
p33
asS'instanceCount'
p34
I32
sS'matrix'
p35
(dp36
g23
(dp37
g23
I0
ssg11
(dp38
S'corn.n.03'
p39
I1
ssg31
(dp40
S'mixing_bowl.n.01'
p41
I1
ssg12
(dp42
g13
I1
ssg13
(dp43
g13
I0
ssg17
(dp44
S'apple.n.01'
p45
I1
ssg8
(dp46
S'add.v.01'
p47
I12
ssg19
(dp48
S'pan.n.03'
p49
I1
ssg9
(dp50
S'egg.n.02'
p51
I1
ssg20
(dp52
S'butter.n.01'
p53
I2
ssg27
(dp54
g28
I1
ssg22
(dp55
g23
I1
ssg29
(dp56
S'bean.n.01'
p57
I1
ssg24
(dp58
S'sauce.n.01'
p59
I1
ssg21
(dp60
S'salt.n.02'
p61
I1
ssg30
(dp62
S'rib.n.03'
p63
I1
ssg25
(dp64
g26
I1
ssg26
(dp65
g26
I0
ssg33
(dp66
g33
I0
ssg18
(dp67
S'vegetable.n.01'
p68
I1
ssg15
(dp69
g15
I0
ssg14
(dp70
g15
I1
ssg10
(dp71
S'french_fries.n.01'
p72
I1
ssg28
(dp73
g28
I0
ssg16
(dp74
S'salad.n.01'
p75
I1
ssg32
(dp76
g33
I1
sssb.