ccopy_reg
_reconstructor
p0
(cutils.eval
ConfusionMatrix
p1
c__builtin__
object
p2
Ntp3
Rp4
(dp5
S'labels'
p6
(lp7
S'AC_ADD'
p8
aS'AC_FILL'
p9
aS'AC_CUT'
p10
aS'AC_PUT'
p11
aS'AC_STIR'
p12
aS'AC_SLICE'
p13
asS'instanceCount'
p14
I71
sS'matrix'
p15
(dp16
g11
(dp17
g12
I3
sS'AC_ADD'
p18
I3
sg11
I3
sg9
I2
ssg9
(dp19
g9
I5
ssg12
(dp20
g18
I3
sg12
I3
ssg8
(dp21
g12
I4
sg18
I9
sS'AC_CUT'
p22
I1
sg11
I1
sg9
I4
ssg13
(dp23
g13
I5
sg22
I5
ssg10
(dp24
g11
I1
sg9
I4
sg12
I2
sg18
I5
sg13
I4
sg22
I4
sssb.