ccopy_reg
_reconstructor
p0
(cutils.eval
ConfusionMatrix
p1
c__builtin__
object
p2
Ntp3
Rp4
(dp5
S'labels'
p6
(lp7
S'put.v.01'
p8
aS'invest.v.01'
p9
aS'cake.n.03'
p10
aS'patty.n.01'
p11
aS'whipped_cream.n.01'
p12
aS'cheese.n.01'
p13
aS'slice.v.03'
p14
aS'slice.v.02'
p15
aS'fill.v.01'
p16
aS'fill.v.09'
p17
aS'pan.n.01'
p18
aS'water.n.06'
p19
aS'water.n.03'
p20
aS'knife.n.01'
p21
aS'banana.n.02'
p22
aS'onion.n.01'
p23
aS'pepper.n.04'
p24
aS'pan.n.03'
p25
aS'chicken.n.01'
p26
aS'pizza.n.01'
p27
aS'beef.n.02'
p28
aS'beef.n.01'
p29
aS'plate.n.04'
p30
aS'plate.n.12'
p31
aS'cut.v.01'
p32
aS'swerve.v.01'
p33
aS'meat.n.01'
p34
aS'kernel.n.01'
p35
aS'cleaver.n.01'
p36
aS'flesh.n.01'
p37
aS'bacon.n.01'
p38
aS'bacon.n.03'
p39
aS'foam.n.01'
p40
aS'mug.n.04'
p41
aS'opening.n.01'
p42
aS'gap.n.05'
p43
aS'batter.n.02'
p44
aS'meet.v.04'
p45
aS'kettle.n.01'
p46
aS'kettle.n.02'
p47
aS'bread.n.01'
p48
aS'frame.v.04'
p49
aS'pepper.n.03'
p50
aS'salt.n.02'
p51
aS'egg.n.02'
p52
aS'testis.n.01'
p53
aS'cabbage.n.01'
p54
aS'lemon.n.01'
p55
aS'lemon.n.04'
p56
aS'pitcher.n.02'
p57
aS'pitcher.n.03'
p58
aS'milk.n.01'
p59
aS'milk.n.04'
p60
aS'piece.n.08'
p61
aS'slice.n.01'
p62
asS'instanceCount'
p63
I114
sS'matrix'
p64
(dp65
g31
(dp66
S'slice.v.02'
p67
I0
sg31
I0
sg25
I0
sS'cut.v.01'
p68
I0
sg26
I0
sS'lemon.n.01'
p69
I0
sS'slice.v.03'
p70
I0
sg30
I0
sg24
I0
sg28
I0
sS'put.v.01'
p71
I0
sg27
I0
sS'invest.v.01'
p72
I0
sS'lemon.n.04'
p73
I0
sS'swerve.v.01'
p74
I0
sS'cabbage.n.01'
p75
I0
sg29
I0
sS'pan.n.01'
p76
I0
sg23
I0
ssg13
(dp77
g13
I2
sS'swerve.v.01'
p78
I0
sg9
I0
sS'bread.n.01'
p79
I0
sg16
I0
sg18
I0
sS'cut.v.01'
p80
I0
sS'frame.v.04'
p81
I0
sg17
I0
sS'egg.n.02'
p82
I0
sS'testis.n.01'
p83
I0
sg11
I0
sg15
I0
sS'salt.n.02'
p84
I0
sg21
I0
sg22
I0
sS'pepper.n.04'
p85
I0
sS'pepper.n.03'
p86
I0
sg12
I0
sg20
I0
sg19
I0
sg8
I0
sg10
I0
sg14
I0
ssg29
(dp87
g67
I0
sg70
I0
sg25
I0
sg31
I0
sg29
I0
sg69
I0
sg72
I0
sg30
I0
sg24
I0
sg28
I0
sg71
I0
sg27
I0
sg68
I0
sg74
I0
sg75
I0
sg26
I0
sg76
I0
sg23
I0
sg73
I0
ssg9
(dp88
g31
I0
sg13
I0
sg29
I0
sg9
I0
sg83
I0
sg79
I0
sg26
I0
sg16
I0
sg18
I0
sg25
I0
sS'cut.v.01'
p89
I0
sg81
I0
sg17
I0
sg75
I0
sg82
I0
sg28
I0
sS'bacon.n.03'
p90
I0
sS'bacon.n.01'
p91
I0
sg11
I0
sg84
I0
sg15
I0
sg14
I0
sg21
I0
sg22
I0
sg30
I0
sg24
I0
sg86
I0
sS'foam.n.01'
p92
I0
sg12
I0
sS'swerve.v.01'
p93
I0
sS'mug.n.04'
p94
I0
sg20
I0
sg19
I0
sg8
I0
sg27
I0
sg73
I0
sg10
I0
sg69
I0
sg23
I0
ssg53
(dp95
S'invest.v.01'
p96
I0
sS'swerve.v.01'
p97
I0
sS'cheese.n.01'
p98
I0
sg48
I0
sg44
I0
sS'patty.n.01'
p99
I0
sS'cut.v.01'
p100
I0
sg49
I0
sS'fill.v.09'
p101
I0
sg52
I0
sS'whipped_cream.n.01'
p102
I0
sg53
I0
sS'fill.v.01'
p103
I0
sS'slice.v.02'
p104
I0
sg51
I0
sS'knife.n.01'
p105
I0
sS'pepper.n.04'
p106
I0
sg45
I0
sg50
I0
sg43
I0
sg42
I0
sS'water.n.03'
p107
I0
sS'water.n.06'
p108
I0
sS'put.v.01'
p109
I0
sg47
I0
sg46
I0
sS'cake.n.03'
p110
I0
sS'slice.v.03'
p111
I0
ssg48
(dp112
g96
I0
sg97
I0
sg98
I0
sg48
I2
sg44
I0
sg99
I0
sg100
I0
sg49
I0
sg101
I0
sg52
I0
sg102
I0
sg53
I0
sg103
I0
sg104
I0
sg51
I0
sg105
I0
sg106
I0
sg45
I0
sg50
I0
sg43
I0
sg42
I0
sg107
I0
sg108
I0
sg109
I0
sg47
I0
sg46
I0
sg110
I0
sg111
I0
ssg44
(dp113
g97
I0
sS'slice.v.03'
p114
I0
sg48
I0
sg44
I2
sS'milk.n.04'
p115
I0
sS'milk.n.01'
p116
I0
sg100
I0
sg49
I0
sg101
I0
sg52
I0
sg53
I0
sg103
I0
sS'pitcher.n.03'
p117
I0
sS'pitcher.n.02'
p118
I0
sS'slice.v.02'
p119
I0
sg51
I0
sg105
I0
sg106
I0
sg45
I0
sg50
I0
sg43
I0
sS'piece.n.08'
p120
I0
sg42
I0
sg107
I0
sS'slice.n.01'
p121
I0
sg108
I0
sg109
I0
sS'pizza.n.01'
p122
I0
sg47
I0
sg46
I0
ssg60
(dp123
S'swerve.v.01'
p124
I0
sS'batter.n.02'
p125
I0
sg60
I0
sg59
I0
sS'cut.v.01'
p126
I0
sS'fill.v.09'
p127
I0
sS'fill.v.01'
p128
I0
sg58
I0
sg57
I0
sS'kettle.n.01'
p129
I0
sS'slice.v.02'
p130
I0
sS'slice.v.03'
p131
I0
sg54
I0
sS'meet.v.04'
p132
I0
sS'gap.n.05'
p133
I0
sg61
I0
sS'opening.n.01'
p134
I0
sS'water.n.03'
p135
I0
sg62
I0
sS'water.n.06'
p136
I0
sS'pizza.n.01'
p137
I0
sS'kettle.n.02'
p138
I0
sg56
I0
sg55
I0
ssg26
(dp139
g31
I0
sg26
I2
sg72
I0
sg93
I0
sg92
I0
sg76
I0
sg25
I0
sg89
I0
sS'fill.v.09'
p140
I0
sg28
I0
sg90
I0
sg91
I0
sS'fill.v.01'
p141
I0
sg67
I0
sg70
I0
sg30
I0
sg24
I0
sg94
I0
sg71
I0
sg27
I0
sg29
I0
sg23
I0
ssg16
(dp142
g9
I0
sg33
I0
sg13
I0
sg53
I0
sg48
I0
sg44
I0
sg60
I0
sS'chicken.n.01'
p143
I0
sg16
I0
sg59
I0
sg18
I0
sS'pan.n.03'
p144
I0
sg32
I0
sg49
I0
sg17
I6
sg54
I0
sg52
I0
sg39
I0
sg38
I0
sg11
I0
sg58
I0
sg57
I0
sg56
I0
sg36
I0
sg10
I0
sg51
I0
sg34
I0
sg15
I0
sg14
I0
sg21
I0
sg22
I0
sS'pepper.n.04'
p145
I0
sg45
I2
sg50
I0
sg40
I0
sg12
I0
sg61
I0
sg42
I0
sg41
I0
sg37
I0
sg20
I0
sg62
I0
sg19
I0
sg8
I0
sg137
I0
sg47
I0
sg46
I0
sg35
I0
sg43
I0
sg55
I0
sS'onion.n.01'
p146
I0
ssg59
(dp147
g124
I0
sg125
I0
sg60
I2
sg59
I0
sg126
I0
sg127
I0
sg128
I0
sg58
I0
sg57
I0
sg129
I0
sg130
I0
sg131
I0
sg54
I0
sg132
I0
sg133
I0
sg61
I0
sg134
I0
sg135
I0
sg62
I0
sg136
I0
sg137
I0
sg138
I0
sg56
I0
sg55
I0
ssg18
(dp148
g31
I0
sg9
I0
sg29
I0
sg13
I0
sg26
I0
sg16
I0
sg18
I2
sg25
I0
sg89
I0
sg17
I0
sg75
I0
sg28
I0
sg90
I0
sg91
I0
sg11
I0
sS'meat.n.01'
p149
I0
sS'cleaver.n.01'
p150
I0
sg15
I0
sg14
I0
sg21
I0
sg22
I0
sg30
I0
sg24
I0
sg92
I0
sg12
I0
sg93
I0
sg94
I0
sS'flesh.n.01'
p151
I0
sg20
I0
sg19
I0
sg8
I0
sg27
I0
sg73
I0
sg10
I0
sg69
I0
sg23
I0
sS'kernel.n.01'
p152
I0
ssg25
(dp153
g31
I0
sg26
I0
sg72
I0
sg93
I0
sg92
I0
sg76
I4
sg25
I0
sg89
I0
sg140
I0
sg28
I0
sg90
I0
sg91
I0
sg141
I0
sg67
I0
sg70
I0
sg75
I0
sg69
I0
sg30
I0
sg24
I0
sg94
I0
sg71
I0
sg27
I0
sg73
I0
sg29
I0
sg23
I0
ssg32
(dp154
S'plate.n.12'
p155
I0
sg35
I0
sg33
I10
sS'beef.n.01'
p156
I0
sS'invest.v.01'
p157
I0
sg53
I0
sg48
I0
sg98
I0
sg44
I0
sg60
I0
sg143
I0
sg40
I0
sg59
I0
sS'pan.n.01'
p158
I0
sg144
I0
sg32
I0
sg49
I0
sS'fill.v.09'
p159
I0
sg54
I0
sg52
I0
sg102
I0
sS'beef.n.02'
p160
I0
sg39
I0
sg38
I0
sS'fill.v.01'
p161
I0
sg58
I0
sg57
I0
sg56
I0
sg34
I0
sg51
I0
sg36
I0
sS'slice.v.02'
p162
I0
sS'slice.v.03'
p163
I0
sS'knife.n.01'
p164
I0
sS'banana.n.02'
p165
I0
sS'plate.n.04'
p166
I0
sg145
I0
sg45
I0
sg50
I0
sg43
I0
sg99
I0
sg61
I0
sg42
I0
sg41
I0
sg37
I0
sS'water.n.03'
p167
I0
sg62
I0
sS'water.n.06'
p168
I0
sS'put.v.01'
p169
I0
sg137
I0
sg47
I0
sg46
I0
sg110
I0
sg55
I0
sg146
I0
ssg49
(dp170
g96
I0
sg97
I0
sg98
I0
sg48
I0
sg44
I0
sg99
I0
sg100
I0
sg49
I0
sg101
I0
sg52
I0
sg102
I0
sg53
I0
sg103
I0
sg104
I0
sg51
I0
sg105
I0
sg106
I0
sg45
I0
sg50
I0
sg43
I0
sg42
I0
sg107
I0
sg108
I0
sg109
I0
sg47
I0
sg46
I0
sg110
I0
sg111
I0
ssg17
(dp171
g9
I0
sg33
I0
sg13
I0
sg53
I0
sg48
I0
sg44
I0
sg60
I0
sg143
I0
sg16
I0
sg59
I0
sg18
I0
sg144
I0
sg32
I0
sg49
I0
sg17
I2
sg54
I0
sg52
I0
sg39
I0
sg38
I0
sg11
I0
sg58
I0
sg57
I0
sg56
I0
sg36
I0
sg10
I0
sg51
I0
sg34
I0
sg15
I0
sg14
I0
sg21
I0
sg22
I0
sg145
I0
sg45
I0
sg50
I0
sg40
I0
sg12
I0
sg61
I0
sg42
I0
sg41
I0
sg37
I0
sg20
I0
sg62
I0
sg19
I0
sg8
I0
sg137
I0
sg47
I0
sg46
I0
sg35
I0
sg43
I0
sg55
I0
sg146
I0
ssg54
(dp172
g155
I0
sS'invest.v.01'
p173
I0
sg124
I0
sg160
I0
sg60
I0
sg156
I0
sg59
I0
sS'pan.n.01'
p174
I0
sS'pan.n.03'
p175
I0
sg126
I0
sg127
I0
sg128
I0
sg58
I0
sg57
I0
sg130
I0
sg131
I0
sg54
I2
sg166
I0
sg61
I0
sg62
I0
sS'put.v.01'
p176
I0
sg137
I0
sg56
I0
sg55
I0
sS'onion.n.01'
p177
I0
ssg52
(dp178
g96
I0
sg97
I0
sg98
I0
sg48
I0
sg44
I0
sg99
I0
sg100
I0
sg49
I0
sg101
I0
sg52
I0
sg102
I0
sg53
I2
sg103
I0
sg104
I0
sg51
I0
sg105
I0
sg106
I0
sg45
I0
sg50
I0
sg43
I0
sg42
I0
sg107
I0
sg108
I0
sg109
I0
sg47
I0
sg46
I0
sg110
I0
sg111
I0
ssg28
(dp179
g67
I0
sg70
I0
sg25
I0
sg31
I0
sg26
I0
sg69
I0
sg28
I0
sg30
I0
sg24
I0
sg71
I0
sg27
I0
sg72
I0
sg68
I0
sg74
I0
sg75
I0
sg29
I2
sg76
I0
sg23
I0
sg73
I0
ssg39
(dp180
g162
I0
sg35
I0
sg41
I0
sg32
I0
sg33
I0
sg37
I0
sg145
I0
sg159
I0
sg39
I0
sg144
I0
sg38
I0
sg161
I0
sg157
I0
sg158
I0
sg36
I0
sg143
I0
sg163
I0
sg40
I0
sg146
I0
sg169
I0
sg34
I0
ssg38
(dp181
g162
I0
sg35
I0
sg41
I0
sg32
I0
sg33
I0
sg37
I0
sg145
I0
sg159
I0
sg39
I2
sg144
I0
sg38
I0
sg161
I0
sg157
I0
sg158
I0
sg34
I0
sg143
I0
sg163
I0
sg40
I0
sg146
I0
sg169
I0
sg36
I0
ssg11
(dp182
g13
I0
sg78
I0
sg9
I0
sg79
I0
sg16
I0
sg18
I0
sg80
I0
sg81
I0
sg17
I0
sg82
I0
sg83
I0
sg11
I0
sg15
I0
sg84
I0
sg21
I0
sg22
I0
sg85
I0
sg86
I0
sg12
I0
sg20
I0
sg19
I0
sg8
I0
sg10
I0
sg14
I0
ssg58
(dp183
g124
I0
sg125
I0
sg60
I0
sg59
I0
sg126
I0
sg127
I0
sg128
I0
sg58
I0
sg57
I0
sg129
I0
sg130
I0
sg131
I0
sg54
I0
sg132
I0
sg133
I0
sg61
I0
sg134
I0
sg135
I0
sg62
I0
sg136
I0
sg137
I0
sg138
I0
sg56
I0
sg55
I0
ssg57
(dp184
g124
I0
sg125
I0
sg60
I0
sg59
I0
sg126
I0
sg127
I0
sg128
I0
sg58
I2
sg57
I0
sg129
I0
sg130
I0
sg131
I0
sg54
I0
sg132
I0
sg133
I0
sg61
I0
sg134
I0
sg135
I0
sg62
I0
sg136
I0
sg137
I0
sg138
I0
sg56
I0
sg55
I0
ssg56
(dp185
g155
I0
sg173
I0
sg124
I0
sg160
I0
sg60
I0
sg156
I0
sg59
I0
sg174
I0
sg175
I0
sg126
I0
sg127
I0
sg128
I0
sg58
I0
sg57
I0
sg130
I0
sg131
I0
sg54
I0
sg166
I0
sg61
I0
sg62
I0
sg176
I0
sg137
I0
sg56
I0
sg55
I0
sg177
I0
ssg34
(dp186
g162
I0
sg35
I2
sg41
I0
sg32
I0
sg33
I0
sg165
I0
sg37
I0
sg167
I0
sg159
I0
sg39
I0
sg168
I0
sg38
I0
sg161
I0
sS'pan.n.01'
p187
I0
sg34
I0
sg164
I0
sg163
I0
sg40
I0
sg36
I0
ssg51
(dp188
g96
I0
sg97
I0
sg98
I0
sg48
I0
sg44
I0
sg99
I0
sg43
I0
sg49
I0
sg101
I0
sg52
I0
sg102
I0
sg53
I0
sg103
I0
sg104
I0
sg51
I2
sg105
I0
sg106
I0
sg45
I0
sg50
I0
sg100
I0
sg42
I0
sg107
I0
sg108
I0
sg109
I0
sg47
I0
sg46
I0
sg110
I0
sg111
I0
ssg36
(dp189
g162
I0
sg35
I0
sg41
I0
sg32
I0
sg33
I0
sg165
I0
sg37
I0
sg167
I0
sg159
I0
sg39
I0
sg168
I0
sg38
I0
sg161
I0
sg187
I0
sg36
I2
sg164
I0
sg163
I0
sg40
I0
sg34
I0
ssg15
(dp190
g31
I0
sg9
I0
sg29
I0
sg13
I0
sg83
I0
sg79
I0
sg125
I0
sg60
I0
sg26
I0
sg16
I0
sg59
I0
sg18
I0
sg25
I0
sg32
I0
sg81
I0
sg17
I0
sg54
I0
sg82
I0
sg28
I0
sg39
I0
sg38
I0
sg11
I0
sg58
I0
sg57
I0
sg129
I0
sg34
I0
sg84
I0
sg36
I0
sg15
I0
sg14
I0
sg21
I0
sg22
I0
sg30
I0
sg24
I0
sg132
I0
sg86
I0
sg40
I0
sg12
I0
sg33
I0
sg61
I0
sg134
I0
sg41
I0
sg37
I0
sg20
I0
sg62
I0
sg19
I0
sg8
I0
sg27
I0
sg138
I0
sg56
I0
sg10
I0
sg133
I0
sg55
I0
sg23
I0
sg35
I0
ssg14
(dp191
g31
I0
sg9
I0
sg29
I0
sg28
I0
sg83
I0
sg79
I0
sg13
I0
sg125
I0
sg60
I0
sg26
I0
sg16
I0
sg59
I0
sg18
I0
sg25
I0
sg32
I0
sg81
I0
sg17
I0
sg54
I0
sg82
I0
sg39
I0
sg38
I0
sg11
I0
sg58
I0
sg57
I0
sg129
I0
sg34
I0
sg84
I0
sg36
I0
sg15
I10
sg14
I0
sg21
I0
sg22
I0
sg30
I0
sg24
I0
sg132
I0
sg86
I0
sg40
I0
sg12
I0
sg33
I0
sg61
I0
sg134
I0
sg41
I0
sg37
I0
sg20
I0
sg62
I0
sg19
I0
sg8
I0
sg27
I0
sg138
I0
sg56
I0
sg10
I0
sg133
I0
sg55
I0
sg23
I0
sg35
I0
ssg21
(dp192
g9
I0
sS'swerve.v.01'
p193
I0
sg13
I0
sg48
I0
sg44
I0
sg16
I0
sg18
I0
sS'cut.v.01'
p194
I0
sg49
I0
sg17
I0
sg52
I0
sg53
I0
sg11
I0
sg150
I0
sg10
I0
sg51
I0
sg149
I0
sg15
I0
sg14
I0
sg21
I4
sg22
I0
sg106
I0
sg45
I0
sg50
I0
sg12
I0
sg42
I0
sg151
I0
sg20
I0
sg19
I0
sg8
I0
sg47
I0
sg46
I0
sg152
I0
sg43
I0
ssg22
(dp195
g15
I0
sg9
I0
sg194
I0
sg21
I0
sg150
I0
sg22
I2
sg13
I0
sg20
I0
sg17
I0
sg19
I0
sg8
I0
sg11
I0
sg152
I0
sg12
I0
sg10
I0
sg149
I0
sg193
I0
sg14
I0
sg16
I0
sg151
I0
sg18
I0
ssg30
(dp196
g67
I0
sg70
I0
sg25
I0
sg31
I2
sg26
I0
sg69
I0
sg72
I0
sg30
I0
sg24
I0
sg28
I0
sg71
I0
sg27
I0
sg68
I0
sg74
I0
sg75
I0
sg29
I0
sg76
I0
sg23
I0
sg73
I0
ssg24
(dp197
g72
I0
sg26
I0
sg31
I0
sg53
I0
sg48
I0
sg98
I0
sg44
I0
sg93
I0
sg92
I0
sg76
I0
sg25
I0
sg89
I0
sg49
I0
sg140
I0
sg52
I0
sg102
I0
sg28
I0
sg90
I0
sg91
I0
sg141
I0
sg51
I0
sg67
I0
sg70
I0
sg105
I0
sg30
I0
sg24
I2
sg45
I0
sg50
I0
sg43
I0
sg99
I0
sg42
I0
sg94
I0
sg107
I0
sg108
I0
sg71
I0
sg27
I0
sg47
I0
sg46
I0
sg110
I0
sg29
I0
sg23
I0
ssg45
(dp198
g97
I0
sg114
I0
sg48
I0
sg44
I0
sg115
I0
sg116
I0
sg100
I0
sg49
I0
sg101
I0
sg52
I0
sg53
I0
sg103
I0
sg117
I0
sg118
I0
sg119
I0
sg51
I0
sg105
I0
sg106
I0
sg45
I0
sg50
I0
sg43
I0
sg120
I0
sg42
I0
sg107
I0
sg121
I0
sg108
I0
sg109
I0
sg122
I0
sg47
I0
sg46
I0
ssg50
(dp199
g96
I0
sg97
I0
sg98
I0
sg48
I0
sg44
I0
sg99
I0
sg100
I0
sg49
I0
sg101
I0
sg52
I0
sg102
I0
sg53
I0
sg103
I0
sg104
I0
sg51
I0
sg105
I0
sg106
I2
sg45
I0
sg50
I0
sg43
I0
sg42
I0
sg107
I0
sg108
I0
sg109
I0
sg47
I0
sg46
I0
sg110
I0
sg111
I0
ssg40
(dp200
g162
I0
sg35
I0
sg41
I0
sg32
I0
sg33
I0
sg37
I0
sg145
I0
sg159
I0
sg39
I0
sg144
I0
sg38
I0
sg161
I0
sg157
I0
sg158
I0
sg36
I0
sg143
I0
sg163
I0
sg40
I2
sg146
I0
sg169
I0
sg34
I0
ssg12
(dp201
g13
I0
sg78
I0
sg9
I0
sg79
I0
sg16
I0
sg18
I0
sg80
I0
sg81
I0
sg17
I0
sg82
I0
sg83
I0
sg11
I0
sg15
I0
sg84
I0
sg21
I0
sg22
I0
sg85
I0
sg86
I0
sg12
I2
sg20
I0
sg19
I0
sg8
I0
sg10
I0
sg14
I0
ssg33
(dp202
g155
I0
sg35
I0
sg33
I0
sg156
I0
sg157
I0
sg53
I0
sg48
I0
sg98
I0
sg44
I0
sg60
I0
sg143
I0
sg40
I0
sg59
I0
sg158
I0
sg144
I0
sg32
I0
sg49
I0
sg159
I0
sg54
I0
sg52
I0
sg102
I0
sg160
I0
sg39
I0
sg38
I0
sg161
I0
sg58
I0
sg57
I0
sg56
I0
sg34
I0
sg51
I0
sg36
I0
sg162
I0
sg163
I0
sg164
I0
sg165
I0
sg166
I0
sg145
I0
sg45
I0
sg50
I0
sg43
I0
sg99
I0
sg61
I0
sg42
I0
sg41
I0
sg37
I0
sg167
I0
sg62
I0
sg168
I0
sg169
I0
sg137
I0
sg47
I0
sg46
I0
sg110
I0
sg55
I0
sg146
I0
ssg61
(dp203
g124
I0
sg125
I0
sg60
I0
sg59
I0
sg126
I0
sg127
I0
sg128
I0
sg58
I0
sg57
I0
sg129
I0
sg130
I0
sg131
I0
sg54
I0
sg132
I0
sg133
I0
sg61
I0
sg134
I0
sg135
I0
sg62
I2
sg136
I0
sg137
I0
sg138
I0
sg56
I0
sg55
I0
ssg42
(dp204
g97
I0
sg114
I0
sg48
I0
sg44
I0
sg115
I0
sg116
I0
sg100
I0
sg49
I0
sg101
I0
sg52
I0
sg53
I0
sg103
I0
sg117
I0
sg118
I0
sg119
I0
sg51
I0
sg105
I0
sg106
I0
sg45
I0
sg50
I0
sg43
I2
sg120
I0
sg42
I0
sg107
I0
sg121
I0
sg108
I0
sg109
I0
sg122
I0
sg47
I0
sg46
I0
ssg41
(dp205
g162
I0
sg41
I2
sg144
I0
sg32
I0
sg33
I0
sg35
I0
sg145
I0
sg37
I0
sg39
I0
sg38
I0
sg161
I0
sg157
I0
sg159
I0
sg158
I0
sg36
I0
sg143
I0
sg163
I0
sg40
I0
sg146
I0
sg169
I0
sg34
I0
ssg37
(dp206
g162
I0
sg35
I0
sg41
I0
sg32
I0
sg33
I0
sg165
I0
sg37
I2
sg167
I0
sg159
I0
sg39
I0
sg168
I0
sg38
I0
sg161
I0
sg187
I0
sg36
I0
sg164
I0
sg163
I0
sg40
I0
sg34
I0
ssg20
(dp207
g9
I0
sg193
I0
sg13
I0
sg48
I0
sg44
I0
sg115
I0
sg16
I0
sg116
I0
sg18
I0
sg194
I0
sg49
I0
sg17
I0
sg52
I0
sg53
I0
sg11
I0
sg117
I0
sg118
I0
sg150
I0
sg10
I0
sg51
I0
sg149
I0
sg15
I0
sg14
I0
sg21
I0
sg22
I0
sg106
I0
sg45
I0
sg50
I0
sg12
I0
sg120
I0
sg42
I0
sg151
I0
sg20
I0
sg121
I0
sg19
I0
sg8
I0
sg122
I0
sg47
I0
sg46
I0
sg152
I0
sg43
I0
ssg62
(dp208
g124
I0
sg125
I0
sg60
I0
sg59
I0
sg126
I0
sg127
I0
sg128
I0
sg58
I0
sg57
I0
sg129
I0
sg130
I0
sg131
I0
sg54
I0
sg132
I0
sg133
I0
sg61
I0
sg134
I0
sg135
I0
sg62
I0
sg136
I0
sg137
I0
sg138
I0
sg56
I0
sg55
I0
ssg19
(dp209
g9
I0
sg193
I0
sg13
I0
sg48
I0
sg44
I0
sg115
I0
sg16
I0
sg116
I0
sg18
I0
sg194
I0
sg49
I0
sg17
I0
sg52
I0
sg53
I0
sg11
I0
sg117
I0
sg118
I0
sg150
I0
sg10
I0
sg51
I0
sg149
I0
sg15
I0
sg14
I0
sg21
I0
sg22
I0
sg106
I0
sg45
I0
sg50
I0
sg12
I0
sg120
I0
sg42
I0
sg151
I0
sg20
I4
sg121
I0
sg19
I0
sg8
I0
sg122
I0
sg47
I0
sg46
I0
sg152
I0
sg43
I0
ssg8
(dp210
g31
I0
sg13
I0
sg29
I0
sg9
I8
sg53
I0
sg48
I0
sg44
I0
sg26
I0
sg16
I0
sg18
I0
sg25
I0
sg89
I0
sg49
I2
sg17
I0
sg75
I0
sg52
I0
sg28
I0
sg90
I0
sg91
I0
sg11
I0
sg73
I0
sg51
I0
sg15
I0
sg14
I0
sg21
I0
sg22
I0
sg30
I0
sg24
I0
sg45
I0
sg50
I0
sg92
I0
sg12
I0
sg93
I0
sg42
I0
sg94
I0
sg20
I0
sg19
I0
sg8
I0
sg27
I0
sg47
I0
sg46
I0
sg10
I0
sg43
I0
sg69
I0
sg23
I0
ssg27
(dp211
g31
I0
sg26
I0
sg29
I0
sg72
I0
sg125
I0
sg60
I0
sg124
I0
sg59
I0
sg76
I0
sg25
I0
sg126
I0
sg127
I0
sg28
I0
sg128
I0
sg58
I0
sg57
I0
sg129
I0
sg67
I0
sg70
I0
sg54
I0
sg30
I0
sg24
I0
sg132
I0
sg133
I0
sg61
I0
sg134
I0
sg135
I0
sg62
I0
sg136
I0
sg71
I0
sg27
I4
sg138
I0
sg56
I0
sg55
I0
sg23
I0
ssg47
(dp212
g97
I0
sg114
I0
sg48
I0
sg44
I0
sg115
I0
sg116
I0
sg100
I0
sg49
I0
sg101
I0
sg52
I0
sg53
I0
sg103
I0
sg117
I0
sg118
I0
sg119
I0
sg51
I0
sg105
I0
sg106
I0
sg45
I0
sg50
I0
sg43
I0
sg120
I0
sg42
I0
sg107
I0
sg121
I0
sg108
I0
sg109
I0
sg122
I0
sg47
I0
sg46
I0
ssg46
(dp213
g97
I0
sg114
I0
sg48
I0
sg44
I0
sg115
I0
sg116
I0
sg100
I0
sg49
I0
sg101
I0
sg52
I0
sg53
I0
sg103
I0
sg117
I0
sg118
I0
sg119
I0
sg51
I0
sg105
I0
sg106
I0
sg45
I0
sg50
I0
sg43
I0
sg120
I0
sg42
I0
sg107
I0
sg121
I0
sg108
I0
sg109
I0
sg122
I0
sg47
I2
sg46
I0
ssg10
(dp214
g13
I0
sg78
I0
sg9
I0
sg79
I0
sg16
I0
sg18
I0
sg80
I0
sg81
I0
sg17
I0
sg82
I0
sg83
I0
sg11
I2
sg15
I0
sg84
I0
sg21
I0
sg22
I0
sg85
I0
sg86
I0
sg12
I0
sg20
I0
sg19
I0
sg8
I0
sg10
I0
sg14
I0
ssg43
(dp215
g97
I0
sg114
I0
sg48
I0
sg44
I0
sg115
I0
sg116
I0
sg100
I0
sg49
I0
sg101
I0
sg52
I0
sg53
I0
sg103
I0
sg117
I0
sg118
I0
sg119
I0
sg51
I0
sg105
I0
sg106
I0
sg45
I0
sg50
I0
sg43
I0
sg120
I0
sg42
I0
sg107
I0
sg121
I0
sg108
I0
sg109
I0
sg122
I0
sg47
I0
sg46
I0
ssg55
(dp216
g155
I0
sg173
I0
sg124
I0
sg160
I0
sg60
I0
sg156
I0
sg59
I0
sg174
I0
sg175
I0
sg126
I0
sg127
I0
sg128
I0
sg58
I0
sg57
I0
sg130
I0
sg131
I0
sg54
I0
sg166
I0
sg61
I0
sg62
I0
sg176
I0
sg137
I0
sg56
I2
sg55
I0
sg177
I0
ssg23
(dp217
g31
I0
sg26
I0
sg72
I0
sg93
I0
sg92
I0
sg76
I0
sg25
I0
sg89
I0
sg140
I0
sg28
I0
sg90
I0
sg91
I0
sg141
I0
sg67
I0
sg70
I0
sg75
I0
sg69
I0
sg30
I0
sg24
I0
sg94
I0
sg71
I0
sg27
I0
sg73
I0
sg29
I0
sg23
I4
ssg35
(dp218
g162
I0
sg35
I0
sg41
I0
sg32
I0
sg33
I0
sg165
I0
sg37
I0
sg167
I0
sg159
I0
sg39
I0
sg168
I0
sg38
I0
sg161
I0
sg187
I0
sg34
I0
sg164
I0
sg163
I0
sg40
I0
sg36
I0
sssb.