ccopy_reg
_reconstructor
p0
(cutils.eval
ConfusionMatrix
p1
c__builtin__
object
p2
Ntp3
Rp4
(dp5
S'labels'
p6
(lp7
S'put.v.01'
p8
aS'invest.v.01'
p9
aS'pan.n.03'
p10
aS'pan.n.01'
p11
aS'pizza.n.01'
p12
aS'onion.n.01'
p13
aS'beef.n.02'
p14
aS'beef.n.01'
p15
aS'plate.n.04'
p16
aS'plate.n.12'
p17
aS'cabbage.n.01'
p18
aS'cut.v.01'
p19
aS'swerve.v.01'
p20
aS'lemon.n.01'
p21
aS'lemon.n.04'
p22
asS'instanceCount'
p23
I11
sS'matrix'
p24
(dp25
g11
(dp26
g11
I0
ssg9
(dp27
g9
I0
ssg10
(dp28
g11
I1
ssg17
(dp29
g17
I0
ssg15
(dp30
g15
I0
ssg21
(dp31
g22
I1
ssg14
(dp32
g15
I1
ssg16
(dp33
g17
I1
ssg8
(dp34
g9
I2
ssg12
(dp35
S'pizza.n.01'
p36
I1
ssg19
(dp37
g20
I2
ssg20
(dp38
g20
I0
ssg18
(dp39
S'cabbage.n.01'
p40
I1
ssg13
(dp41
S'onion.n.01'
p42
I1
ssg22
(dp43
g22
I0
sssb.