ccopy_reg
_reconstructor
p0
(cutils.eval
ConfusionMatrix
p1
c__builtin__
object
p2
Ntp3
Rp4
(dp5
S'labels'
p6
(lp7
S'put.v.01'
p8
aS'invest.v.01'
p9
aS'cake.n.03'
p10
aS'patty.n.01'
p11
aS'whipped_cream.n.01'
p12
aS'cheese.n.01'
p13
aS'slice.v.03'
p14
aS'slice.v.02'
p15
aS'fill.v.01'
p16
aS'fill.v.09'
p17
aS'pan.n.01'
p18
aS'water.n.06'
p19
aS'water.n.03'
p20
aS'knife.n.01'
p21
aS'banana.n.02'
p22
asS'instanceCount'
p23
I11
sS'matrix'
p24
(dp25
g15
(dp26
g15
I0
ssg13
(dp27
S'cheese.n.01'
p28
I1
ssg21
(dp29
S'knife.n.01'
p30
I1
ssg22
(dp31
S'banana.n.02'
p32
I1
ssg9
(dp33
g9
I0
ssg20
(dp34
g20
I0
ssg17
(dp35
g17
I0
ssg19
(dp36
g20
I1
ssg8
(dp37
g9
I1
ssg11
(dp38
g11
I0
ssg12
(dp39
S'whipped_cream.n.01'
p40
I1
ssg10
(dp41
g11
I1
ssg14
(dp42
g15
I2
ssg16
(dp43
g17
I1
ssg18
(dp44
S'pan.n.01'
p45
I1
sssb.