ccopy_reg
_reconstructor
p0
(cutils.eval
ConfusionMatrix
p1
c__builtin__
object
p2
Ntp3
Rp4
(dp5
S'labels'
p6
(lp7
S'cut.v.01'
p8
aS'swerve.v.01'
p9
aS'bacon.n.01'
p10
aS'bacon.n.03'
p11
aS'fill.v.01'
p12
aS'fill.v.09'
p13
aS'foam.n.01'
p14
aS'mug.n.04'
p15
aS'slice.v.03'
p16
aS'slice.v.02'
p17
aS'onion.n.01'
p18
aS'pepper.n.04'
p19
aS'put.v.01'
p20
aS'invest.v.01'
p21
aS'pan.n.03'
p22
aS'pan.n.01'
p23
aS'chicken.n.01'
p24
asS'instanceCount'
p25
I11
sS'matrix'
p26
(dp27
g17
(dp28
g17
I0
ssg15
(dp29
S'mug.n.04'
p30
I1
ssg22
(dp31
g23
I1
ssg8
(dp32
g9
I1
ssg9
(dp33
g9
I0
ssg13
(dp34
g13
I0
ssg19
(dp35
S'pepper.n.04'
p36
I1
ssg11
(dp37
g11
I0
ssg10
(dp38
g11
I1
ssg12
(dp39
g13
I1
ssg21
(dp40
g21
I0
ssg20
(dp41
g21
I1
ssg24
(dp42
S'chicken.n.01'
p43
I1
ssg16
(dp44
g17
I1
ssg14
(dp45
S'foam.n.01'
p46
I1
ssg18
(dp47
S'onion.n.01'
p48
I1
ssg23
(dp49
g23
I0
sssb.