ccopy_reg
_reconstructor
p0
(cutils.eval
ConfusionMatrix
p1
c__builtin__
object
p2
Ntp3
Rp4
(dp5
S'labels'
p6
(lp7
S'flesh.n.01'
p8
aS'human_body.n.01'
p9
aS'slice.v.03'
p10
aS'slice.v.02'
p11
aS'cheese.n.01'
p12
asS'instanceCount'
p13
I4
sS'matrix'
p14
(dp15
g11
(dp16
g11
I0
ssg10
(dp17
g11
I1
sS'slice.v.03'
p18
I1
ssg9
(dp19
g9
I0
ssg12
(dp20
S'cheese.n.01'
p21
I1
ssg8
(dp22
g9
I1
sssb.