ccopy_reg
_reconstructor
p0
(cutils.eval
ConfusionMatrix
p1
c__builtin__
object
p2
Ntp3
Rp4
(dp5
S'labels'
p6
(lp7
S'slice.v.03'
p8
aS'onion.n.01'
p9
aS'onion.n.03'
p10
aS'pepper.n.04'
p11
aS'pepper.n.03'
p12
aS'knife.n.01'
p13
aS'tongue.n.03'
p14
aS'banana.n.02'
p15
asS'instanceCount'
p16
I6
sS'matrix'
p17
(dp18
g8
(dp19
S'slice.v.03'
p20
I2
ssg13
(dp21
g14
I1
ssg15
(dp22
S'banana.n.02'
p23
I1
ssg11
(dp24
g12
I1
ssg12
(dp25
g12
I0
ssg14
(dp26
g14
I0
ssg9
(dp27
g10
I1
ssg10
(dp28
g10
I0
sssb.