ccopy_reg
_reconstructor
p0
(cutils.eval
ConfusionMatrix
p1
c__builtin__
object
p2
Ntp3
Rp4
(dp5
S'labels'
p6
(lp7
S'knife.n.01'
p8
aS'tongue.n.03'
p9
aS'banana.n.02'
p10
aS'slice.v.03'
p11
aS'piece.n.08'
p12
aS'slice.n.05'
p13
aS'pizza.n.01'
p14
aS'slice.n.06'
p15
aS'flesh.n.01'
p16
aS'human_body.n.01'
p17
aS'slice.v.02'
p18
aS'cheese.n.01'
p19
aS'onion.n.01'
p20
aS'onion.n.03'
p21
aS'pepper.n.04'
p22
aS'pepper.n.03'
p23
asS'instanceCount'
p24
I26
sS'matrix'
p25
(dp26
g18
(dp27
g18
I0
sS'slice.v.03'
p28
I0
sg16
I0
sg15
I0
sS'pizza.n.01'
p29
I0
sg19
I0
sg17
I0
sS'piece.n.08'
p30
I0
ssg11
(dp31
g18
I2
sg11
I8
sg8
I0
sg10
I0
sg16
I0
sg22
I0
sg15
I0
sg23
I0
sg13
I0
sg19
I0
sg17
I0
sg9
I0
sg12
I0
sg14
I0
sg20
I0
sg21
I0
ssg8
(dp32
g11
I0
sg8
I0
sg10
I0
sS'pepper.n.04'
p33
I0
sS'pepper.n.03'
p34
I0
sg13
I0
sg9
I2
sg12
I0
sg14
I0
sS'onion.n.01'
p35
I0
sS'onion.n.03'
p36
I0
ssg10
(dp37
g11
I0
sg8
I0
sg10
I2
sg33
I0
sg34
I0
sg13
I0
sg9
I0
sg12
I0
sg14
I0
sg35
I0
sg36
I0
ssg16
(dp38
g18
I0
sg28
I0
sg16
I0
sg15
I0
sg29
I0
sg19
I0
sg17
I2
sg30
I0
ssg22
(dp39
S'slice.v.03'
p40
I0
sS'knife.n.01'
p41
I0
sS'banana.n.02'
p42
I0
sS'cheese.n.01'
p43
I0
sg22
I0
sg23
I2
sS'tongue.n.03'
p44
I0
sg20
I0
sg21
I0
ssg15
(dp45
g18
I0
sg28
I0
sg16
I0
sg15
I0
sg29
I0
sg17
I0
sg30
I0
ssg23
(dp46
g43
I0
sg41
I0
sg42
I0
sg40
I0
sg22
I0
sg23
I0
sg44
I0
sg20
I0
sg21
I0
ssg13
(dp47
g11
I0
sg8
I0
sg10
I0
sg13
I0
sg9
I0
sg12
I0
sg14
I0
ssg19
(dp48
S'slice.v.02'
p49
I0
sg19
I2
sS'slice.v.03'
p50
I0
sg22
I0
sS'flesh.n.01'
p51
I0
sg23
I0
sS'human_body.n.01'
p52
I0
sg20
I0
sg21
I0
ssg17
(dp53
g18
I0
sg28
I0
sg16
I0
sg15
I0
sg29
I0
sg19
I0
sg17
I0
sg30
I0
ssg9
(dp54
g11
I0
sg8
I0
sg10
I0
sg33
I0
sg34
I0
sg13
I0
sg9
I0
sg12
I0
sg14
I0
sg35
I0
sg36
I0
ssg12
(dp55
g18
I0
sg11
I0
sg8
I0
sg10
I0
sg16
I0
sg15
I1
sg13
I1
sg17
I0
sg9
I0
sg12
I0
sg14
I0
ssg14
(dp56
g18
I0
sg11
I0
sg8
I0
sg10
I0
sg16
I0
sg15
I0
sg14
I2
sg17
I0
sg9
I0
sg12
I0
sg13
I0
ssg20
(dp57
g43
I0
sg41
I0
sg42
I0
sg40
I0
sg22
I0
sg23
I0
sg44
I0
sg20
I0
sg21
I2
ssg21
(dp58
g43
I0
sg41
I0
sg42
I0
sg40
I0
sg22
I0
sg23
I0
sg44
I0
sg20
I0
sg21
I0
sssb.