ccopy_reg
_reconstructor
p0
(cutils.eval
ConfusionMatrix
p1
c__builtin__
object
p2
Ntp3
Rp4
(dp5
S'labels'
p6
(lp7
S'cheese.n.01'
p8
aS'slice.v.03'
p9
aS'onion.n.01'
p10
aS'onion.n.03'
p11
aS'pepper.n.04'
p12
aS'pepper.n.03'
p13
asS'instanceCount'
p14
I5
sS'matrix'
p15
(dp16
g8
(dp17
S'cheese.n.01'
p18
I1
ssg9
(dp19
S'slice.v.03'
p20
I2
ssg12
(dp21
g13
I1
ssg13
(dp22
g13
I0
ssg10
(dp23
g11
I1
ssg11
(dp24
g11
I0
sssb.