ccopy_reg
_reconstructor
p0
(cutils.eval
ConfusionMatrix
p1
c__builtin__
object
p2
Ntp3
Rp4
(dp5
S'labels'
p6
(lp7
S'opening.n.01'
p8
aS'gap.n.03'
p9
aS'fill.v.09'
p10
aS'fill.v.01'
p11
aS'batter.n.02'
p12
aS'knife.n.01'
p13
aS'tongue.n.03'
p14
aS'banana.n.02'
p15
aS'slice.v.03'
p16
aS'pan.n.01'
p17
aS'pan.n.03'
p18
aS'water.n.06'
p19
aS'cheese.n.01'
p20
aS'tall_mallow.n.01'
p21
aS'slice.v.02'
p22
aS'onion.n.01'
p23
aS'pepper.n.04'
p24
aS'pepper.n.03'
p25
aS'pitcher.n.02'
p26
aS'milk.n.01'
p27
aS'piece.n.08'
p28
aS'slice.n.06'
p29
aS'pizza.n.01'
p30
aS'flesh.n.01'
p31
aS'pulp.n.02'
p32
aS'human_body.n.01'
p33
aS'foam.n.01'
p34
aS'mug.n.04'
p35
aS'kettle.n.01'
p36
asS'instanceCount'
p37
I56
sS'matrix'
p38
(dp39
g20
(dp40
g17
I0
sg20
I1
sg18
I0
sS'slice.v.03'
p41
I0
sg29
I0
sg19
I0
sS'fill.v.01'
p42
I0
sg30
I0
sg28
I0
sg21
I1
sg22
I0
ssg12
(dp43
g16
I0
sg13
I0
sg9
I0
sg15
I0
sg10
I0
sS'water.n.06'
p44
I0
sg11
I0
sg36
I0
sg12
I2
sg14
I0
sg8
I0
ssg34
(dp45
S'slice.v.03'
p46
I0
sg35
I0
sS'flesh.n.01'
p47
I0
sS'water.n.06'
p48
I0
sS'fill.v.01'
p49
I0
sg33
I0
sS'kettle.n.01'
p50
I0
sg34
I2
ssg27
(dp51
S'slice.v.03'
p52
I0
sg31
I0
sg24
I0
sg25
I0
sS'fill.v.01'
p53
I0
sg26
I0
sg23
I0
sg27
I2
sg32
I0
ssg17
(dp54
g17
I0
sg20
I0
sg18
I2
sS'knife.n.01'
p55
I0
sS'banana.n.02'
p56
I0
sg41
I0
sg19
I0
sg42
I0
sS'tongue.n.03'
p57
I0
sg21
I0
sg22
I0
ssg18
(dp58
g17
I0
sg20
I0
sg18
I0
sg55
I0
sg56
I0
sg41
I0
sg19
I0
sg42
I0
sg57
I0
sg21
I0
sg22
I0
ssg9
(dp59
g16
I0
sg13
I0
sg9
I0
sg15
I0
sg10
I0
sg44
I0
sg11
I0
sg36
I0
sg12
I0
sg14
I0
sg8
I0
ssg10
(dp60
g16
I0
sg13
I0
sg9
I0
sg15
I0
sg10
I0
sg44
I0
sg11
I2
sg36
I0
sg12
I0
sg14
I0
sg8
I0
ssg11
(dp61
g20
I0
sg12
I0
sg34
I0
sg27
I0
sg17
I0
sg18
I0
sg9
I0
sg10
I0
sg11
I8
sg26
I0
sg22
I0
sg16
I0
sg13
I0
sg15
I0
sg24
I0
sg25
I0
sg33
I0
sg21
I0
sg8
I0
sg35
I0
sg31
I0
sg19
I0
sg36
I0
sg14
I0
sg23
I0
sg32
I0
ssg26
(dp62
g52
I0
sg31
I0
sg24
I0
sg25
I0
sg53
I0
sg26
I2
sg23
I0
sg27
I0
sg32
I0
ssg22
(dp63
g22
I0
sg17
I0
sg18
I0
sg20
I0
sg19
I0
sg42
I0
sg41
I0
sg21
I0
ssg16
(dp64
g20
I0
sg12
I0
sg34
I0
sg27
I0
sg17
I0
sg18
I0
sg9
I0
sg10
I0
sg11
I0
sg26
I0
sg22
I1
sg16
I9
sg13
I0
sg15
I0
sg24
I0
sg25
I0
sg33
I0
sg28
I0
sg21
I0
sg8
I0
sg35
I0
sg31
I0
sg29
I0
sg19
I0
sg30
I0
sg14
I0
sg23
I0
sg32
I0
ssg13
(dp65
S'pan.n.01'
p66
I0
sg16
I0
sS'pan.n.03'
p67
I0
sg13
I0
sg9
I0
sg15
I0
sg10
I0
sS'water.n.06'
p68
I0
sg11
I0
sg12
I0
sg14
I2
sg8
I0
ssg15
(dp69
g66
I0
sg16
I0
sg67
I0
sg13
I0
sg9
I0
sg15
I2
sg10
I0
sg68
I0
sg11
I0
sg12
I0
sg14
I0
sg8
I0
ssg24
(dp70
g52
I0
sg24
I0
sS'slice.n.06'
p71
I0
sg25
I2
sg53
I0
sg26
I0
sS'piece.n.08'
p72
I0
sS'pizza.n.01'
p73
I0
sg23
I0
sg27
I0
ssg25
(dp74
g52
I0
sg24
I0
sg71
I0
sg25
I0
sg53
I0
sg26
I0
sg72
I0
sg73
I0
sg23
I0
sg27
I0
ssg33
(dp75
g46
I0
sg35
I0
sg47
I0
sg49
I0
sg33
I0
sg34
I0
ssg28
(dp76
S'cheese.n.01'
p77
I0
sS'slice.v.03'
p78
I0
sS'pepper.n.04'
p79
I0
sg29
I2
sS'pepper.n.03'
p80
I0
sg30
I0
sg28
I0
sS'onion.n.01'
p81
I0
ssg21
(dp82
g17
I0
sg20
I0
sg18
I0
sg41
I0
sg19
I0
sg42
I0
sg21
I0
sg22
I0
ssg8
(dp83
g16
I0
sg13
I0
sg9
I2
sg15
I0
sg10
I0
sg44
I0
sg11
I0
sg36
I0
sg12
I0
sg14
I0
sg8
I0
ssg35
(dp84
g35
I2
sg46
I0
sg47
I0
sg48
I0
sg49
I0
sg33
I0
sg50
I0
sg34
I0
ssg31
(dp85
S'slice.v.03'
p86
I0
sg31
I0
sS'fill.v.01'
p87
I0
sS'pitcher.n.02'
p88
I0
sg33
I1
sg34
I0
sS'milk.n.01'
p89
I0
sg32
I1
sg35
I0
ssg29
(dp90
g77
I0
sg78
I0
sg79
I0
sg29
I0
sg80
I0
sg30
I0
sg28
I0
sg81
I0
ssg19
(dp91
g17
I0
sg20
I0
sg18
I0
sS'foam.n.01'
p92
I0
sg55
I0
sS'gap.n.03'
p93
I0
sg56
I0
sg41
I0
sS'fill.v.09'
p94
I0
sg19
I4
sg42
I0
sg36
I0
sS'batter.n.02'
p95
I0
sg57
I0
sS'mug.n.04'
p96
I0
sg21
I0
sg22
I0
sS'opening.n.01'
p97
I0
ssg30
(dp98
g77
I0
sg78
I0
sg79
I0
sg29
I0
sg80
I0
sg30
I2
sg28
I0
sg81
I0
ssg36
(dp99
g96
I0
sg93
I0
sg94
I0
sg44
I0
sS'fill.v.01'
p100
I0
sg36
I2
sg95
I0
sg92
I0
sg97
I0
ssg14
(dp101
g66
I0
sg16
I0
sg67
I0
sg13
I0
sg9
I0
sg15
I0
sg10
I0
sg68
I0
sg11
I0
sg12
I0
sg14
I0
sg8
I0
ssg23
(dp102
g52
I0
sg24
I0
sg71
I0
sg25
I0
sg53
I0
sg26
I0
sg72
I0
sg73
I0
sg23
I2
sg27
I0
ssg32
(dp103
g86
I0
sg31
I0
sg87
I0
sg88
I0
sg89
I0
sg32
I0
sssb.