ccopy_reg
_reconstructor
p0
(cutils.eval
ConfusionMatrix
p1
c__builtin__
object
p2
Ntp3
Rp4
(dp5
S'labels'
p6
(lp7
S'knife.n.01'
p8
aS'tongue.n.03'
p9
aS'banana.n.02'
p10
aS'slice.v.03'
p11
aS'fill.v.01'
p12
aS'pan.n.01'
p13
aS'pan.n.03'
p14
aS'water.n.06'
p15
asS'instanceCount'
p16
I6
sS'matrix'
p17
(dp18
g13
(dp19
g14
I1
ssg11
(dp20
S'slice.v.03'
p21
I1
ssg14
(dp22
g14
I0
ssg8
(dp23
g9
I1
ssg10
(dp24
S'banana.n.02'
p25
I1
ssg15
(dp26
S'water.n.06'
p27
I1
ssg12
(dp28
S'fill.v.01'
p29
I1
ssg9
(dp30
g9
I0
sssb.