ccopy_reg
_reconstructor
p0
(cutils.eval
ConfusionMatrix
p1
c__builtin__
object
p2
Ntp3
Rp4
(dp5
S'labels'
p6
(lp7
S'flesh.n.01'
p8
aS'human_body.n.01'
p9
aS'slice.v.03'
p10
aS'fill.v.01'
p11
aS'foam.n.01'
p12
aS'mug.n.04'
p13
asS'instanceCount'
p14
I5
sS'matrix'
p15
(dp16
g10
(dp17
S'slice.v.03'
p18
I1
ssg13
(dp19
S'mug.n.04'
p20
I1
ssg8
(dp21
g9
I1
ssg11
(dp22
S'fill.v.01'
p23
I1
ssg9
(dp24
g9
I0
ssg12
(dp25
S'foam.n.01'
p26
I1
sssb.