ccopy_reg
_reconstructor
p0
(cutils.eval
ConfusionMatrix
p1
c__builtin__
object
p2
Ntp3
Rp4
(dp5
S'labels'
p6
(lp7
S'fill.v.01'
p8
aS'kettle.n.01'
p9
aS'water.n.06'
p10
aS'opening.n.01'
p11
aS'gap.n.03'
p12
aS'fill.v.09'
p13
aS'batter.n.02'
p14
asS'instanceCount'
p15
I6
sS'matrix'
p16
(dp17
g12
(dp18
g12
I0
ssg13
(dp19
S'fill.v.01'
p20
I1
ssg10
(dp21
S'water.n.06'
p22
I1
ssg8
(dp23
S'fill.v.01'
p24
I1
ssg9
(dp25
S'kettle.n.01'
p26
I1
ssg14
(dp27
S'batter.n.02'
p28
I1
ssg11
(dp29
g12
I1
sssb.