ccopy_reg
_reconstructor
p0
(cutils.eval
ConfusionMatrix
p1
c__builtin__
object
p2
Ntp3
Rp4
(dp5
S'labels'
p6
(lp7
S'milliliter.n.01'
p8
aS'fill.v.01'
p9
aS'fruit_juice.n.01'
p10
aS'water.n.06'
p11
asS'instanceCount'
p12
I6
sS'matrix'
p13
(dp14
g11
(dp15
S'water.n.06'
p16
I1
ssg10
(dp17
S'fruit_juice.n.01'
p18
I1
ssg8
(dp19
S'milliliter.n.01'
p20
I2
ssg9
(dp21
S'fill.v.01'
p22
I2
sssb.