ccopy_reg
_reconstructor
p0
(cutils.eval
ConfusionMatrix
p1
c__builtin__
object
p2
Ntp3
Rp4
(dp5
S'labels'
p6
(lp7
S'stir.v.08'
p8
aS'stir.v.01'
p9
aS'dough.n.01'
p10
aS'cream.n.02'
p11
aS'whiskey.n.01'
p12
aS'wine.n.01'
p13
asS'instanceCount'
p14
I7
sS'matrix'
p15
(dp16
g10
(dp17
S'dough.n.01'
p18
I1
ssg13
(dp19
S'wine.n.01'
p20
I1
ssg11
(dp21
S'cream.n.02'
p22
I1
ssg8
(dp23
g9
I1
ssg9
(dp24
g9
I2
ssg12
(dp25
S'whiskey.n.01'
p26
I1
sssb.