ccopy_reg
_reconstructor
p0
(cutils.eval
ConfusionMatrix
p1
c__builtin__
object
p2
Ntp3
Rp4
(dp5
S'labels'
p6
(lp7
S'stir.v.08'
p8
aS'apple.n.01'
p9
aS'coca_cola.n.01'
p10
aS'stir.v.01'
p11
aS'milk.n.01'
p12
aS'wooden_spoon.n.02'
p13
asS'instanceCount'
p14
I7
sS'matrix'
p15
(dp16
g13
(dp17
S'wooden_spoon.n.02'
p18
I1
ssg8
(dp19
S'stir.v.08'
p20
I1
ssg9
(dp21
S'apple.n.01'
p22
I1
ssg11
(dp23
S'stir.v.01'
p24
I2
ssg10
(dp25
S'coca_cola.n.01'
p26
I1
ssg12
(dp27
S'milk.n.01'
p28
I1
sssb.