ccopy_reg
_reconstructor
p0
(cutils.eval
ConfusionMatrix
p1
c__builtin__
object
p2
Ntp3
Rp4
(dp5
S'labels'
p6
(lp7
S'stir.v.08'
p8
aS'stir.v.01'
p9
aS'butter.n.01'
p10
aS'tomato.n.01'
p11
aS'tea.n.01'
p12
aS'teaspoon.n.02'
p13
asS'instanceCount'
p14
I7
sS'matrix'
p15
(dp16
g13
(dp17
S'teaspoon.n.02'
p18
I1
ssg10
(dp19
S'butter.n.01'
p20
I1
ssg11
(dp21
S'tomato.n.01'
p22
I1
ssg8
(dp23
g9
I1
sS'stir.v.08'
p24
I1
ssg9
(dp25
g9
I1
ssg12
(dp26
S'tea.n.01'
p27
I1
sssb.