ccopy_reg
_reconstructor
p0
(cutils.eval
ConfusionMatrix
p1
c__builtin__
object
p2
Ntp3
Rp4
(dp5
S'labels'
p6
(lp7
S'juice.n.01'
p8
aS'fruit_juice.n.01'
p9
aS'stir.v.01'
p10
aS'cappuccino.n.01'
p11
aS'teaspoon.n.02'
p12
aS'tea.n.01'
p13
asS'instanceCount'
p14
I7
sS'matrix'
p15
(dp16
g9
(dp17
g9
I0
ssg12
(dp18
S'teaspoon.n.02'
p19
I1
ssg11
(dp20
S'cappuccino.n.01'
p21
I1
ssg13
(dp22
S'tea.n.01'
p23
I1
ssg10
(dp24
S'stir.v.01'
p25
I3
ssg8
(dp26
g9
I1
sssb.