ccopy_reg
_reconstructor
p0
(cutils.eval
ConfusionMatrix
p1
c__builtin__
object
p2
Ntp3
Rp4
(dp5
S'labels'
p6
(lp7
S'sauce.n.01'
p8
aS'stir.v.08'
p9
aS'salt.n.02'
p10
aS'water.n.06'
p11
aS'stir.v.01'
p12
aS'coca_cola.n.01'
p13
asS'instanceCount'
p14
I7
sS'matrix'
p15
(dp16
g10
(dp17
S'salt.n.02'
p18
I1
ssg11
(dp19
S'water.n.06'
p20
I1
ssg9
(dp21
S'stir.v.08'
p22
I1
ssg12
(dp23
S'stir.v.01'
p24
I2
ssg13
(dp25
S'coca_cola.n.01'
p26
I1
ssg8
(dp27
S'sauce.n.01'
p28
I1
sssb.