ccopy_reg
_reconstructor
p0
(cutils.eval
ConfusionMatrix
p1
c__builtin__
object
p2
Ntp3
Rp4
(dp5
S'labels'
p6
(lp7
S'whiskey.n.01'
p8
aS'stir.v.01'
p9
aS'vegetable.n.01'
p10
aS'stir.v.08'
p11
aS'sauce.n.01'
p12
aS'sugar.n.01'
p13
asS'instanceCount'
p14
I7
sS'matrix'
p15
(dp16
g10
(dp17
S'vegetable.n.01'
p18
I1
ssg11
(dp19
S'stir.v.08'
p20
I2
ssg9
(dp21
S'stir.v.01'
p22
I1
ssg8
(dp23
S'whiskey.n.01'
p24
I1
ssg12
(dp25
S'sauce.n.01'
p26
I1
ssg13
(dp27
S'sugar.n.01'
p28
I1
sssb.