ccopy_reg
_reconstructor
p0
(cutils.eval
ConfusionMatrix
p1
c__builtin__
object
p2
Ntp3
Rp4
(dp5
S'labels'
p6
(lp7
S'cappuccino.n.01'
p8
aS'stir.v.01'
p9
aS'water.n.06'
p10
aS'wooden_spoon.n.02'
p11
aS'juice.n.01'
p12
aS'fruit_juice.n.01'
p13
asS'instanceCount'
p14
I7
sS'matrix'
p15
(dp16
g13
(dp17
g13
I0
ssg8
(dp18
S'cappuccino.n.01'
p19
I1
ssg10
(dp20
S'water.n.06'
p21
I1
ssg11
(dp22
S'wooden_spoon.n.02'
p23
I1
ssg9
(dp24
S'stir.v.01'
p25
I3
ssg12
(dp26
g13
I1
sssb.