ccopy_reg
_reconstructor
p0
(cutils.eval
ConfusionMatrix
p1
c__builtin__
object
p2
Ntp3
Rp4
(dp5
S'labels'
p6
(lp7
S'fill.v.01'
p8
aS'fill.v.09'
p9
aS'thermos.n.01'
p10
aS'coffee.n.01'
p11
aS'kettle.n.01'
p12
aS'kettle.n.02'
p13
aS'water.n.06'
p14
asS'instanceCount'
p15
I6
sS'matrix'
p16
(dp17
g9
(dp18
g9
I0
ssg10
(dp19
S'thermos.n.01'
p20
I1
ssg11
(dp21
S'coffee.n.01'
p22
I1
ssg14
(dp23
S'water.n.06'
p24
I1
ssg8
(dp25
g9
I2
ssg13
(dp26
g13
I0
ssg12
(dp27
g13
I1
sssb.