ccopy_reg
_reconstructor
p0
(cutils.eval
ConfusionMatrix
p1
c__builtin__
object
p2
Ntp3
Rp4
(dp5
S'labels'
p6
(lp7
S'pot.n.01'
p8
aS'toilet.n.02'
p9
aS'fill.v.01'
p10
aS'fill.v.09'
p11
aS'water.n.06'
p12
aS'bottle.n.01'
p13
aS'fruit_juice.n.01'
p14
aS'thermos.n.01'
p15
aS'coffee.n.01'
p16
aS'kettle.n.01'
p17
aS'kettle.n.02'
p18
aS'ice.n.01'
p19
aS'ice_rink.n.01'
p20
aS'bowl.n.01'
p21
aS'pitcher.n.02'
p22
aS'milk.n.01'
p23
aS'pan.n.01'
p24
aS'whiskey.n.01'
p25
aS'carafe.n.01'
p26
aS'opening.n.01'
p27
aS'curd.n.01'
p28
aS'glass.n.02'
p29
aS'teapot.n.01'
p30
aS'wok.n.01'
p31
aS'rice.n.01'
p32
aS'meal.n.03'
p33
aS'saltcellar.n.01'
p34
aS'salt.n.02'
p35
aS'blender.n.01'
p36
aS'apple.n.01'
p37
aS'cup.n.01'
p38
aS'cup.n.02'
p39
aS'cola.n.02'
p40
aS'jar.n.01'
p41
aS'gravy.n.01'
p42
aS'mug.n.04'
p43
aS'batter.n.02'
p44
asS'instanceCount'
p45
I57
sS'matrix'
p46
(dp47
g9
(dp48
g9
I0
sg11
I0
sg13
I0
sg14
I0
sg8
I0
sg12
I0
sg10
I0
ssg32
(dp49
S'water.n.06'
p50
I0
sg31
I0
sg32
I1
sg30
I0
sS'fill.v.01'
p51
I0
ssg20
(dp52
S'fill.v.09'
p53
I0
sg20
I0
sS'fill.v.01'
p54
I0
sg19
I0
sg22
I0
sg21
I0
sg23
I0
ssg39
(dp55
g40
I0
sS'fill.v.09'
p56
I0
sg36
I0
sg39
I0
sg38
I0
sg37
I0
sS'fill.v.01'
p57
I0
ssg21
(dp58
g53
I0
sg20
I0
sg54
I0
sg19
I0
sg22
I0
sg21
I1
sg23
I0
ssg44
(dp59
S'fill.v.09'
p60
I0
sS'jar.n.01'
p61
I0
sS'opening.n.01'
p62
I0
sg44
I1
sS'fill.v.01'
p63
I0
ssg37
(dp64
g40
I0
sg56
I0
sg36
I0
sg39
I0
sg38
I0
sg37
I1
sg57
I0
ssg38
(dp65
g40
I0
sg56
I0
sg36
I0
sg39
I1
sg57
I0
sg37
I0
sg38
I0
ssg23
(dp66
g53
I0
sg20
I0
sg54
I0
sg19
I0
sg22
I0
sg21
I0
sg28
I0
sg23
I2
sg29
I0
sg27
I0
ssg24
(dp67
g24
I1
sS'fill.v.09'
p68
I0
sS'water.n.06'
p69
I0
sS'fill.v.01'
p70
I0
sg26
I0
sg25
I0
ssg18
(dp71
S'fill.v.09'
p72
I0
sg15
I0
sg16
I0
sS'water.n.06'
p73
I0
sS'fill.v.01'
p74
I0
sg18
I0
sg17
I0
ssg40
(dp75
g40
I1
sg36
I0
sg56
I0
sg39
I0
sg38
I0
sg37
I0
sg57
I0
ssg34
(dp76
g33
I0
sS'fill.v.09'
p77
I0
sS'fill.v.01'
p78
I0
sg35
I0
sg34
I1
ssg11
(dp79
g9
I0
sg20
I0
sg39
I0
sg21
I0
sg44
I0
sg37
I0
sg38
I0
sg23
I0
sg24
I0
sg18
I0
sg40
I0
sg34
I0
sg11
I0
sg13
I0
sg8
I0
sg10
I2
sg22
I0
sg29
I0
sg35
I0
sg16
I0
sg25
I0
sg27
I0
sg14
I0
sg36
I0
sg15
I0
sg12
I0
sg19
I0
sg17
I0
sg28
I0
sg61
I0
sg26
I0
sg33
I0
ssg13
(dp80
g9
I0
sg11
I0
sg13
I1
sg14
I0
sg8
I0
sg12
I0
sg10
I0
ssg8
(dp81
g9
I1
sg11
I0
sg13
I0
sg14
I0
sg8
I0
sg12
I0
sg10
I0
ssg10
(dp82
g9
I0
sg32
I0
sg20
I0
sg39
I0
sg21
I0
sg44
I0
sg37
I0
sg38
I0
sg23
I0
sg24
I0
sg18
I0
sg40
I0
sg34
I0
sg11
I9
sg13
I0
sg8
I0
sg10
I9
sg22
I0
sg29
I0
sg42
I0
sg35
I0
sg31
I0
sg16
I0
sg25
I0
sg27
I0
sg43
I0
sg14
I0
sg30
I0
sg36
I0
sg15
I0
sg12
I0
sg19
I0
sg17
I0
sg28
I0
sg41
I0
sg26
I0
sg33
I0
ssg22
(dp83
g53
I0
sg20
I0
sg54
I0
sg19
I0
sg22
I1
sg21
I0
sg23
I0
ssg29
(dp84
S'fill.v.09'
p85
I0
sS'fill.v.01'
p86
I0
sg28
I0
sS'milk.n.01'
p87
I0
sg29
I1
sg27
I0
ssg42
(dp88
g42
I1
sg43
I0
sg41
I0
sS'fill.v.01'
p89
I0
ssg35
(dp90
g33
I0
sg35
I1
sg77
I0
sg34
I0
sg78
I0
ssg31
(dp91
g31
I1
sg50
I0
sg32
I0
sg30
I0
sg51
I0
ssg16
(dp92
g72
I0
sg15
I0
sg16
I1
sg73
I0
sg74
I0
sg18
I0
sg17
I0
ssg25
(dp93
g24
I0
sg68
I0
sg69
I0
sg70
I0
sg26
I0
sg25
I1
ssg27
(dp94
g85
I0
sg86
I0
sg44
I0
sg28
I0
sg61
I0
sg87
I0
sg29
I0
sg27
I2
ssg43
(dp95
g42
I0
sg43
I1
sg41
I0
sg89
I0
ssg14
(dp96
g14
I1
sg11
I0
sg13
I0
sg8
I0
sg12
I0
sg10
I0
sg9
I0
ssg30
(dp97
g50
I0
sg31
I0
sg32
I0
sg30
I1
sg51
I0
ssg36
(dp98
g40
I0
sg56
I0
sg36
I1
sg39
I0
sg57
I0
sg37
I0
sg38
I0
ssg15
(dp99
g72
I0
sg15
I1
sg16
I0
sg73
I0
sg74
I0
sg18
I0
sg17
I0
ssg12
(dp100
g24
I0
sg9
I0
sg32
I0
sg30
I0
sg11
I0
sg13
I0
sg14
I0
sg15
I0
sg8
I0
sg12
I4
sg10
I0
sg18
I0
sg31
I0
sg17
I0
sg16
I0
sg26
I0
sg25
I0
ssg19
(dp101
g53
I0
sg20
I1
sg54
I0
sg19
I0
sg22
I0
sg21
I0
sg23
I0
ssg17
(dp102
g72
I0
sg15
I0
sg16
I0
sg73
I0
sg74
I0
sg18
I1
sg17
I0
ssg28
(dp103
g85
I0
sg86
I0
sg28
I1
sg87
I0
sg29
I0
sg27
I0
ssg41
(dp104
g42
I0
sg43
I0
sg60
I0
sg89
I0
sg44
I0
sg41
I2
sg62
I0
ssg26
(dp105
g24
I0
sg68
I0
sg69
I0
sg70
I0
sg26
I1
sg25
I0
ssg33
(dp106
g77
I0
sg78
I0
sg34
I0
sg35
I0
sg33
I1
sssb.