ccopy_reg
_reconstructor
p0
(cutils.eval
ConfusionMatrix
p1
c__builtin__
object
p2
Ntp3
Rp4
(dp5
S'labels'
p6
(lp7
S'cup.n.01'
p8
aS'cup.n.02'
p9
aS'fill.v.01'
p10
aS'cola.n.02'
p11
aS'mug.n.04'
p12
asS'instanceCount'
p13
I5
sS'matrix'
p14
(dp15
g11
(dp16
S'cola.n.02'
p17
I1
ssg12
(dp18
S'mug.n.04'
p19
I1
ssg10
(dp20
S'fill.v.01'
p21
I2
ssg9
(dp22
g9
I0
ssg8
(dp23
g9
I1
sssb.