ccopy_reg
_reconstructor
p0
(cutils.eval
ConfusionMatrix
p1
c__builtin__
object
p2
Ntp3
Rp4
(dp5
S'labels'
p6
(lp7
S'fill.v.01'
p8
aS'fill.v.09'
p9
aS'thermos.n.01'
p10
aS'coffee.n.01'
p11
aS'teapot.n.01'
p12
aS'water.n.06'
p13
asS'instanceCount'
p14
I6
sS'matrix'
p15
(dp16
g12
(dp17
S'teapot.n.01'
p18
I1
ssg9
(dp19
g9
I0
ssg10
(dp20
S'thermos.n.01'
p21
I1
ssg11
(dp22
S'coffee.n.01'
p23
I1
ssg13
(dp24
S'water.n.06'
p25
I1
ssg8
(dp26
S'fill.v.01'
p27
I1
sg9
I1
sssb.