ccopy_reg
_reconstructor
p0
(cutils.eval
ConfusionMatrix
p1
c__builtin__
object
p2
Ntp3
Rp4
(dp5
S'labels'
p6
(lp7
S'opening.n.01'
p8
aS'fill.v.09'
p9
aS'fill.v.01'
p10
aS'curd.n.01'
p11
aS'glass.n.02'
p12
aS'milk.n.01'
p13
asS'instanceCount'
p14
I6
sS'matrix'
p15
(dp16
g9
(dp17
g10
I1
ssg10
(dp18
S'fill.v.09'
p19
I1
sg10
I0
ssg11
(dp20
S'curd.n.01'
p21
I1
ssg13
(dp22
S'milk.n.01'
p23
I1
ssg12
(dp24
S'glass.n.02'
p25
I1
ssg8
(dp26
S'opening.n.01'
p27
I1
sssb.