ccopy_reg
_reconstructor
p0
(cutils.eval
ConfusionMatrix
p1
c__builtin__
object
p2
Ntp3
Rp4
(dp5
S'labels'
p6
(lp7
S'pot.n.01'
p8
aS'toilet.n.02'
p9
aS'fill.v.01'
p10
aS'fill.v.09'
p11
aS'water.n.06'
p12
aS'bottle.n.01'
p13
aS'fruit_juice.n.01'
p14
asS'instanceCount'
p15
I6
sS'matrix'
p16
(dp17
g9
(dp18
g9
I0
ssg11
(dp19
g11
I0
ssg13
(dp20
S'bottle.n.01'
p21
I1
ssg14
(dp22
S'fruit_juice.n.01'
p23
I1
ssg8
(dp24
g9
I1
ssg12
(dp25
S'water.n.06'
p26
I1
ssg10
(dp27
S'fill.v.01'
p28
I1
sg11
I1
sssb.