ccopy_reg
_reconstructor
p0
(cutils.eval
ConfusionMatrix
p1
c__builtin__
object
p2
Ntp3
Rp4
(dp5
S'labels'
p6
(lp7
S'jar.n.01'
p8
aS'fill.v.01'
p9
aS'opening.n.01'
p10
aS'fill.v.09'
p11
aS'batter.n.02'
p12
asS'instanceCount'
p13
I5
sS'matrix'
p14
(dp15
g11
(dp16
S'fill.v.01'
p17
I1
ssg8
(dp18
S'jar.n.01'
p19
I1
ssg10
(dp20
S'opening.n.01'
p21
I1
ssg12
(dp22
S'batter.n.02'
p23
I1
ssg9
(dp24
S'fill.v.01'
p25
I1
sssb.