ccopy_reg
_reconstructor
p0
(cutils.eval
ConfusionMatrix
p1
c__builtin__
object
p2
Ntp3
Rp4
(dp5
S'labels'
p6
(lp7
S'fill.v.01'
p8
aS'teapot.n.01'
p9
aS'water.n.06'
p10
aS'add.v.01'
p11
aS'lend.v.01'
p12
aS'butter.n.01'
p13
aS'sugar.n.01'
p14
aS'boodle.n.01'
p15
aS'carve.v.03'
p16
aS'hack.v.07'
p17
aS'pepper.n.04'
p18
aS'pepper.n.03'
p19
aS'onion.n.01'
p20
aS'put.v.01'
p21
aS'put.v.02'
p22
aS'onion.n.03'
p23
aS'beef.n.02'
p24
aS'gripe.n.01'
p25
aS'plate.n.04'
p26
aS'plate.n.13'
p27
aS'piece.n.08'
p28
aS'slice.n.06'
p29
aS'pizza.n.01'
p30
aS'slice.v.03'
p31
aS'rum.n.01'
p32
aS'shaker.n.03'
p33
aS'take.v.04'
p34
aS'bring.v.01'
p35
aS'decant.v.01'
p36
aS'pour.v.01'
p37
aS'pot.n.01'
p38
aS'measuring_cup.n.01'
p39
aS'meal.n.03'
p40
aS'pitcher.n.02'
p41
aS'milk.n.01'
p42
aS'strawberry.n.01'
p43
aS'cut.v.01'
p44
aS'edit.v.03'
p45
aS'bread.n.01'
p46
aS'slice.n.04'
p47
aS'serve.v.05'
p48
aS'serve.v.11'
p49
aS'whiskey.n.01'
p50
aS'carafe.n.01'
p51
aS'kettle.n.01'
p52
aS'pan.n.01'
p53
aS'pan.n.03'
p54
aS'jar.n.01'
p55
aS'gravy.n.01'
p56
aS'gravy.n.02'
p57
aS'water_system.n.02'
p58
aS'rice.n.01'
p59
aS'concoction.n.01'
p60
aS'mix.n.03'
p61
aS'glass.n.02'
p62
aS'vanilla.n.02'
p63
aS'vanilla.n.03'
p64
aS'egg.n.02'
p65
aS'egg.n.01'
p66
aS'blend.v.03'
p67
aS'mix.v.05'
p68
aS'thermos.n.01'
p69
aS'coffee.n.01'
p70
asS'instanceCount'
p71
I64
sS'matrix'
p72
(dp73
g27
(dp74
g27
I0
ssg43
(dp75
S'strawberry.n.01'
p76
I1
ssg69
(dp77
S'thermos.n.01'
p78
I1
ssg24
(dp79
g25
I1
ssg16
(dp80
g17
I1
ssg58
(dp81
g58
I0
ssg10
(dp82
g58
I1
sS'water.n.06'
p83
I4
ssg48
(dp84
g49
I1
ssg47
(dp85
g47
I0
ssg34
(dp86
g35
I1
ssg67
(dp87
g68
I1
ssg11
(dp88
g12
I2
ssg42
(dp89
S'milk.n.01'
p90
I2
ssg53
(dp91
g54
I1
ssg54
(dp92
g54
I0
ssg44
(dp93
g45
I2
ssg65
(dp94
g66
I1
ssg13
(dp95
S'butter.n.01'
p96
I1
ssg38
(dp97
S'pot.n.01'
p98
I1
ssg8
(dp99
S'fill.v.01'
p100
I10
ssg41
(dp101
S'pitcher.n.02'
p102
I1
ssg55
(dp103
S'jar.n.01'
p104
I1
ssg64
(dp105
g64
I0
ssg63
(dp106
g64
I1
ssg39
(dp107
S'measuring_cup.n.01'
p108
I1
ssg35
(dp109
g35
I0
ssg56
(dp110
g57
I1
ssg17
(dp111
g17
I0
ssg57
(dp112
g57
I0
ssg46
(dp113
S'bread.n.01'
p114
I1
ssg70
(dp115
S'coffee.n.01'
p116
I1
ssg26
(dp117
g27
I1
ssg18
(dp118
g19
I1
ssg61
(dp119
g61
I0
ssg45
(dp120
g45
I0
ssg19
(dp121
g19
I0
ssg15
(dp122
g15
I0
ssg49
(dp123
g49
I0
ssg25
(dp124
g25
I0
ssg60
(dp125
S'concoction.n.01'
p126
I1
sg61
I1
ssg28
(dp127
g29
I3
sg47
I1
ssg32
(dp128
S'rum.n.01'
p129
I1
ssg50
(dp130
S'whiskey.n.01'
p131
I1
ssg66
(dp132
g66
I0
ssg68
(dp133
g68
I0
ssg9
(dp134
S'teapot.n.01'
p135
I1
ssg51
(dp136
S'carafe.n.01'
p137
I1
ssg59
(dp138
S'rice.n.01'
p139
I1
ssg29
(dp140
g29
I0
ssg22
(dp141
g22
I0
ssg21
(dp142
g22
I1
ssg30
(dp143
S'pizza.n.01'
p144
I1
ssg33
(dp145
S'shaker.n.03'
p146
I1
ssg52
(dp147
S'kettle.n.01'
p148
I1
ssg37
(dp149
g37
I1
ssg62
(dp150
S'glass.n.02'
p151
I1
ssg12
(dp152
g12
I0
ssg31
(dp153
S'slice.v.03'
p154
I1
ssg40
(dp155
S'meal.n.03'
p156
I1
ssg20
(dp157
S'onion.n.01'
p158
I1
sg23
I1
ssg36
(dp159
g37
I1
ssg23
(dp160
g23
I0
ssg14
(dp161
g15
I1
sssb.