ccopy_reg
_reconstructor
p0
(cutils.eval
ConfusionMatrix
p1
c__builtin__
object
p2
Ntp3
Rp4
(dp5
S'labels'
p6
(lp7
S'add.v.01'
p8
aS'lend.v.01'
p9
aS'butter.n.01'
p10
aS'egg.n.02'
p11
aS'egg.n.01'
p12
aS'dough.n.01'
p13
aS'boodle.n.01'
p14
aS'mix.v.04'
p15
aS'mix.v.05'
p16
aS'jar.n.01'
p17
aS'fill.v.01'
p18
aS'cup.n.01'
p19
aS'cola.n.02'
p20
aS'flesh.n.01'
p21
aS'human_body.n.01'
p22
aS'slice.v.03'
p23
aS'tomato.n.01'
p24
aS'tomato.n.02'
p25
aS'piece.n.08'
p26
aS'slice.n.04'
p27
aS'onion.n.03'
p28
aS'onion.n.02'
p29
aS'mustard.n.02'
p30
aS'blender.n.01'
p31
aS'apple.n.01'
p32
aS'cheese.n.01'
p33
aS'put.v.01'
p34
aS'put.v.02'
p35
aS'sauce.n.01'
p36
aS'bottle.n.01'
p37
aS'fruit_juice.n.01'
p38
aS'pour.v.01'
p39
aS'bread.n.01'
p40
aS'pan.n.01'
p41
aS'pan.n.03'
p42
aS'mix.n.03'
p43
aS'blend.v.03'
p44
aS'avocado.n.01'
p45
aS'chicken.n.01'
p46
aS'wimp.n.01'
p47
aS'corn.n.02'
p48
aS'corn.n.03'
p49
aS'chop.v.01'
p50
aS'chop.v.05'
p51
aS'cut.v.01'
p52
aS'cut.v.32'
p53
aS'squash.n.02'
p54
aS'squash.n.01'
p55
aS'cover.v.01'
p56
aS'cover.v.16'
p57
aS'rib.n.03'
p58
aS'rib.n.01'
p59
aS'opening.n.01'
p60
aS'gap.n.03'
p61
aS'fill.v.09'
p62
aS'batter.n.02'
p63
aS'knife.n.01'
p64
aS'tongue.n.03'
p65
aS'banana.n.02'
p66
aS'mug.n.04'
p67
aS'lodge.v.02'
p68
aS'stick.v.08'
p69
aS'pizza.n.01'
p70
aS'burner.n.02'
p71
aS'burner.n.01'
p72
aS'pan.n.02'
p73
aS'vanilla.n.02'
p74
aS'vanilla.n.03'
p75
aS'walnut.n.01'
p76
aS'walnut.n.02'
p77
aS'get.v.01'
p78
aS'make.v.02'
p79
aS'pear.n.01'
p80
aS'pear.n.02'
p81
aS'bowl.n.01'
p82
aS'bowl.n.08'
p83
asS'instanceCount'
p84
I63
sS'matrix'
p85
(dp86
g33
(dp87
S'cheese.n.01'
p88
I1
ssg49
(dp89
g49
I0
ssg48
(dp90
g49
I1
ssg46
(dp91
g47
I1
ssg83
(dp92
g83
I0
ssg71
(dp93
g72
I1
ssg68
(dp94
g69
I1
ssg79
(dp95
g79
I0
ssg40
(dp96
S'bread.n.01'
p97
I1
ssg45
(dp98
S'avocado.n.01'
p99
I1
ssg34
(dp100
g35
I2
ssg47
(dp101
g47
I0
ssg69
(dp102
g69
I0
ssg32
(dp103
S'apple.n.01'
p104
I1
ssg60
(dp105
g61
I1
ssg18
(dp106
S'fill.v.01'
p107
I5
ssg8
(dp108
g9
I4
ssg41
(dp109
g42
I2
sg73
I1
ssg30
(dp110
S'mustard.n.02'
p111
I1
ssg52
(dp112
g53
I1
ssg20
(dp113
S'cola.n.02'
p114
I1
ssg61
(dp115
g61
I0
ssg62
(dp116
S'fill.v.01'
p117
I1
ssg37
(dp118
S'bottle.n.01'
p119
I1
ssg11
(dp120
g12
I1
ssg10
(dp121
S'butter.n.01'
p122
I2
ssg82
(dp123
g83
I1
ssg80
(dp124
g81
I1
ssg19
(dp125
S'cup.n.01'
p126
I1
ssg43
(dp127
S'mix.n.03'
p128
I1
ssg81
(dp129
g81
I0
ssg51
(dp130
g51
I0
ssg56
(dp131
g57
I1
ssg66
(dp132
S'banana.n.02'
p133
I1
ssg55
(dp134
g55
I0
ssg50
(dp135
g51
I1
ssg74
(dp136
g75
I1
ssg15
(dp137
g16
I1
ssg16
(dp138
g16
I0
ssg53
(dp139
g53
I0
ssg65
(dp140
g65
I0
ssg36
(dp141
S'sauce.n.01'
p142
I1
ssg64
(dp143
g65
I1
ssg23
(dp144
S'slice.v.03'
p145
I3
ssg44
(dp146
S'mix.v.05'
p147
I2
ssg54
(dp148
g55
I1
ssg13
(dp149
g14
I1
ssg78
(dp150
g79
I1
ssg58
(dp151
g59
I1
ssg59
(dp152
g59
I0
ssg9
(dp153
g9
I0
ssg77
(dp154
g77
I0
ssg42
(dp155
g42
I0
ssg14
(dp156
g14
I0
ssg22
(dp157
g22
I0
ssg73
(dp158
g73
I0
ssg63
(dp159
S'batter.n.02'
p160
I1
ssg26
(dp161
g27
I1
ssg76
(dp162
g77
I1
ssg12
(dp163
g12
I0
ssg67
(dp164
S'mug.n.04'
p165
I1
ssg38
(dp166
S'fruit_juice.n.01'
p167
I1
ssg21
(dp168
g22
I1
ssg31
(dp169
S'blender.n.01'
p170
I1
ssg35
(dp171
g35
I0
ssg27
(dp172
g27
I0
ssg70
(dp173
S'pizza.n.01'
p174
I1
ssg75
(dp175
g75
I0
ssg39
(dp176
S'pour.v.01'
p177
I1
ssg72
(dp178
g72
I0
ssg57
(dp179
g57
I0
ssg25
(dp180
g25
I0
ssg17
(dp181
S'jar.n.01'
p182
I1
ssg24
(dp183
g25
I1
ssg28
(dp184
g29
I1
ssg29
(dp185
g29
I0
sssb.