ccopy_reg
_reconstructor
p0
(cutils.eval
ConfusionMatrix
p1
c__builtin__
object
p2
Ntp3
Rp4
(dp5
S'labels'
p6
(lp7
S'blend.v.03'
p8
aS'mix.v.05'
p9
aS'avocado.n.01'
p10
aS'add.v.01'
p11
aS'lend.v.01'
p12
aS'chicken.n.01'
p13
aS'wimp.n.01'
p14
aS'corn.n.02'
p15
aS'corn.n.03'
p16
aS'chop.v.01'
p17
aS'chop.v.05'
p18
aS'cut.v.01'
p19
aS'cut.v.32'
p20
aS'squash.n.02'
p21
aS'squash.n.01'
p22
aS'cover.v.01'
p23
aS'cover.v.16'
p24
aS'rib.n.03'
p25
aS'rib.n.01'
p26
aS'opening.n.01'
p27
aS'gap.n.03'
p28
aS'fill.v.09'
p29
aS'fill.v.01'
p30
aS'batter.n.02'
p31
aS'knife.n.01'
p32
aS'tongue.n.03'
p33
aS'banana.n.02'
p34
aS'slice.v.03'
p35
aS'mug.n.04'
p36
aS'put.v.01'
p37
aS'put.v.02'
p38
aS'lodge.v.02'
p39
aS'stick.v.08'
p40
aS'pizza.n.01'
p41
aS'pan.n.01'
p42
aS'pan.n.03'
p43
aS'burner.n.02'
p44
aS'burner.n.01'
p45
aS'pan.n.02'
p46
aS'butter.n.01'
p47
aS'vanilla.n.02'
p48
aS'vanilla.n.03'
p49
aS'walnut.n.01'
p50
aS'walnut.n.02'
p51
aS'get.v.01'
p52
aS'make.v.02'
p53
aS'pear.n.01'
p54
aS'pear.n.02'
p55
aS'bowl.n.01'
p56
aS'bowl.n.08'
p57
aS'pepper.n.03'
p58
aS'salt.n.02'
p59
aS'salt.n.04'
p60
aS'egg.n.02'
p61
aS'egg.n.01'
p62
aS'ice.n.01'
p63
aS'ice.n.05'
p64
aS'piece.n.08'
p65
aS'slice.n.06'
p66
aS'liquid.n.01'
p67
aS'pour.v.01'
p68
aS'sink.n.01'
p69
aS'cesspool.n.01'
p70
aS'opening.n.10'
p71
aS'curd.n.01'
p72
aS'wok.n.01'
p73
aS'rice.n.01'
p74
aS'saltcellar.n.01'
p75
aS'fork.n.01'
p76
aS'branching.n.01'
p77
aS'blend.v.01'
p78
aS'cut.n.16'
p79
aS'edit.v.03'
p80
aS'bag.n.01'
p81
aS'bag.n.04'
p82
asS'instanceCount'
p83
I61
sS'matrix'
p84
(dp85
g16
(dp86
g16
I0
ssg15
(dp87
g16
I1
ssg13
(dp88
g14
I1
ssg69
(dp89
g70
I1
ssg17
(dp90
g18
I1
ssg39
(dp91
g40
I1
ssg53
(dp92
g53
I0
ssg75
(dp93
S'saltcellar.n.01'
p94
I1
ssg38
(dp95
g38
I0
ssg68
(dp96
S'pour.v.01'
p97
I1
ssg10
(dp98
S'avocado.n.01'
p99
I1
ssg31
(dp100
S'batter.n.02'
p101
I1
ssg14
(dp102
g14
I0
ssg40
(dp103
g40
I0
ssg32
(dp104
g33
I1
ssg57
(dp105
g57
I0
ssg11
(dp106
g12
I4
ssg42
(dp107
g43
I1
sg46
I1
ssg43
(dp108
g43
I0
ssg19
(dp109
g20
I1
ssg49
(dp110
g49
I0
ssg28
(dp111
g28
I0
ssg29
(dp112
g30
I2
ssg56
(dp113
S'bowl.n.01'
p114
I1
sg57
I3
ssg61
(dp115
g62
I1
ssg47
(dp116
S'butter.n.01'
p117
I1
ssg60
(dp118
g60
I0
ssg54
(dp119
g55
I1
ssg30
(dp120
g30
I4
ssg82
(dp121
g82
I0
ssg55
(dp122
g55
I0
ssg18
(dp123
g18
I0
ssg22
(dp124
g22
I0
ssg21
(dp125
g22
I1
ssg48
(dp126
g49
I1
ssg9
(dp127
g9
I0
ssg33
(dp128
g33
I0
ssg59
(dp129
S'salt.n.02'
p130
I1
sg60
I1
ssg81
(dp131
g82
I1
ssg35
(dp132
S'slice.v.03'
p133
I1
ssg8
(dp134
g9
I3
ssg23
(dp135
g24
I1
ssg34
(dp136
S'banana.n.02'
p137
I1
ssg52
(dp138
g53
I1
ssg25
(dp139
g26
I1
ssg80
(dp140
g80
I0
ssg26
(dp141
g26
I0
ssg78
(dp142
S'blend.v.01'
p143
I1
ssg51
(dp144
g51
I0
ssg58
(dp145
S'pepper.n.03'
p146
I1
ssg50
(dp147
g51
I1
ssg72
(dp148
S'curd.n.01'
p149
I1
ssg73
(dp150
S'wok.n.01'
p151
I1
ssg46
(dp152
g46
I0
ssg76
(dp153
g77
I1
ssg65
(dp154
g66
I1
ssg62
(dp155
g62
I0
ssg70
(dp156
g70
I0
ssg27
(dp157
g71
I1
sg28
I1
ssg36
(dp158
S'mug.n.04'
p159
I1
ssg71
(dp160
g71
I0
ssg74
(dp161
S'rice.n.01'
p162
I1
ssg66
(dp163
g66
I0
ssg20
(dp164
g20
I0
ssg37
(dp165
g38
I2
ssg41
(dp166
S'pizza.n.01'
p167
I1
ssg63
(dp168
g64
I1
ssg64
(dp169
g64
I0
ssg24
(dp170
g24
I0
ssg12
(dp171
g12
I0
ssg67
(dp172
S'liquid.n.01'
p173
I1
ssg79
(dp174
g80
I1
ssg44
(dp175
g45
I1
ssg45
(dp176
g45
I0
ssg77
(dp177
g77
I0
sssb.