ccopy_reg
_reconstructor
p0
(cutils.eval
ConfusionMatrix
p1
c__builtin__
object
p2
Ntp3
Rp4
(dp5
S'labels'
p6
(lp7
S'sauce.n.01'
p8
aS'add.v.01'
p9
aS'cream.n.02'
p10
aS'cream.n.03'
p11
aS'vegetable.n.01'
p12
aS'pan.n.03'
p13
aS'butter.n.01'
p14
aS'egg.n.02'
p15
aS'ingredient.n.03'
p16
aS'french_fries.n.01'
p17
aS'steak.n.01'
p18
aS'concoction.n.01'
p19
aS'vanilla.n.02'
p20
aS'milk.n.01'
p21
aS'milk.n.04'
p22
aS'water.n.06'
p23
aS'water_system.n.02'
p24
aS'corn.n.03'
p25
aS'dish.n.02'
p26
aS'dish.n.01'
p27
aS'onion.n.03'
p28
aS'rib.n.03'
p29
aS'dressing.n.01'
p30
aS'dressing.n.04'
p31
aS'salad.n.01'
p32
aS'apple.n.01'
p33
asS'instanceCount'
p34
I38
sS'matrix'
p35
(dp36
g25
(dp37
S'corn.n.03'
p38
I1
ssg26
(dp39
g27
I1
ssg27
(dp40
g27
I0
ssg22
(dp41
g22
I0
ssg33
(dp42
S'apple.n.01'
p43
I1
ssg9
(dp44
S'add.v.01'
p45
I14
ssg21
(dp46
g22
I1
ssg13
(dp47
S'pan.n.03'
p48
I2
ssg15
(dp49
S'egg.n.02'
p50
I1
ssg14
(dp51
S'butter.n.01'
p52
I2
ssg20
(dp53
S'vanilla.n.02'
p54
I1
ssg19
(dp55
S'concoction.n.01'
p56
I1
ssg8
(dp57
S'sauce.n.01'
p58
I1
ssg29
(dp59
S'rib.n.03'
p60
I1
ssg10
(dp61
g11
I2
ssg11
(dp62
g11
I0
ssg16
(dp63
S'ingredient.n.03'
p64
I2
ssg18
(dp65
S'steak.n.01'
p66
I1
ssg12
(dp67
S'vegetable.n.01'
p68
I1
ssg31
(dp69
g31
I0
ssg24
(dp70
g24
I0
ssg23
(dp71
g24
I1
ssg30
(dp72
g31
I1
ssg17
(dp73
S'french_fries.n.01'
p74
I1
ssg32
(dp75
S'salad.n.01'
p76
I1
ssg28
(dp77
S'onion.n.03'
p78
I1
sssb.