ccopy_reg
_reconstructor
p0
(cutils.eval
ConfusionMatrix
p1
c__builtin__
object
p2
Ntp3
Rp4
(dp5
S'labels'
p6
(lp7
S'pan.n.03'
p8
aS'add.v.01'
p9
aS'butter.n.01'
p10
aS'egg.n.02'
p11
aS'ingredient.n.03'
p12
aS'french_fries.n.01'
p13
aS'steak.n.01'
p14
aS'concoction.n.01'
p15
aS'cream.n.02'
p16
aS'cream.n.03'
p17
aS'vanilla.n.02'
p18
aS'milk.n.01'
p19
aS'milk.n.04'
p20
aS'water.n.06'
p21
aS'corn.n.03'
p22
aS'dish.n.02'
p23
aS'onion.n.03'
p24
aS'rib.n.03'
p25
aS'dressing.n.01'
p26
aS'salad.n.01'
p27
aS'apple.n.01'
p28
aS'flour.n.01'
p29
aS'mixing_bowl.n.01'
p30
aS'sugar.n.01'
p31
asS'instanceCount'
p32
I41
sS'matrix'
p33
(dp34
g22
(dp35
S'corn.n.03'
p36
I1
ssg30
(dp37
S'mixing_bowl.n.01'
p38
I2
ssg23
(dp39
S'dish.n.02'
p40
I1
ssg20
(dp41
g20
I0
ssg28
(dp42
S'apple.n.01'
p43
I1
ssg9
(dp44
S'add.v.01'
p45
I14
ssg19
(dp46
g20
I1
ssg8
(dp47
S'pan.n.03'
p48
I2
ssg29
(dp49
S'flour.n.01'
p50
I1
ssg11
(dp51
S'egg.n.02'
p52
I2
ssg10
(dp53
S'butter.n.01'
p54
I3
ssg18
(dp55
S'vanilla.n.02'
p56
I1
ssg15
(dp57
S'concoction.n.01'
p58
I1
ssg25
(dp59
S'rib.n.03'
p60
I1
ssg16
(dp61
g17
I1
ssg12
(dp62
S'ingredient.n.03'
p63
I2
ssg17
(dp64
g17
I0
ssg14
(dp65
S'steak.n.01'
p66
I1
ssg21
(dp67
S'water.n.06'
p68
I1
ssg26
(dp69
S'dressing.n.01'
p70
I1
ssg13
(dp71
S'french_fries.n.01'
p72
I1
ssg27
(dp73
S'salad.n.01'
p74
I1
ssg24
(dp75
S'onion.n.03'
p76
I1
ssg31
(dp77
S'sugar.n.01'
p78
I1
sssb.