ccopy_reg
_reconstructor
p0
(cutils.eval
ConfusionMatrix
p1
c__builtin__
object
p2
Ntp3
Rp4
(dp5
S'labels'
p6
(lp7
S'add.v.01'
p8
aS'onion.n.03'
p9
aS'rib.n.03'
p10
aS'dressing.n.01'
p11
aS'stuffing.n.01'
p12
aS'salad.n.01'
p13
aS'apple.n.01'
p14
aS'flour.n.01'
p15
aS'egg.n.02'
p16
aS'mixing_bowl.n.01'
p17
aS'butter.n.01'
p18
aS'sugar.n.01'
p19
aS'salt.n.02'
p20
aS'meat.n.01'
p21
aS'asparagus.n.02'
p22
aS'pot.n.01'
p23
aS'pot.n.09'
p24
aS'bean.n.01'
p25
aS'pan.n.03'
p26
aS'vanilla.n.02'
p27
aS'sauce.n.01'
p28
aS'cream.n.02'
p29
aS'vegetable.n.01'
p30
asS'instanceCount'
p31
I39
sS'matrix'
p32
(dp33
g17
(dp34
S'mixing_bowl.n.01'
p35
I2
ssg14
(dp36
S'apple.n.01'
p37
I1
ssg8
(dp38
S'add.v.01'
p39
I14
ssg26
(dp40
S'pan.n.03'
p41
I2
ssg24
(dp42
g24
I0
ssg15
(dp43
S'flour.n.01'
p44
I1
ssg16
(dp45
S'egg.n.02'
p46
I2
ssg18
(dp47
S'butter.n.01'
p48
I2
ssg23
(dp49
g24
I1
ssg22
(dp50
S'asparagus.n.02'
p51
I1
ssg21
(dp52
S'meat.n.01'
p53
I1
ssg27
(dp54
S'vanilla.n.02'
p55
I1
ssg25
(dp56
S'bean.n.01'
p57
I1
ssg28
(dp58
S'sauce.n.01'
p59
I1
ssg20
(dp60
S'salt.n.02'
p61
I1
ssg10
(dp62
S'rib.n.03'
p63
I1
ssg29
(dp64
S'cream.n.02'
p65
I1
ssg12
(dp66
g12
I0
ssg30
(dp67
S'vegetable.n.01'
p68
I1
ssg11
(dp69
g12
I1
ssg13
(dp70
S'salad.n.01'
p71
I2
ssg9
(dp72
S'onion.n.03'
p73
I1
ssg19
(dp74
S'sugar.n.01'
p75
I1
sssb.