ccopy_reg
_reconstructor
p0
(cutils.eval
ConfusionMatrix
p1
c__builtin__
object
p2
Ntp3
Rp4
(dp5
S'labels'
p6
(lp7
S'add.v.01'
p8
aS'flour.n.01'
p9
aS'egg.n.02'
p10
aS'mixing_bowl.n.01'
p11
aS'butter.n.01'
p12
aS'sugar.n.01'
p13
aS'salt.n.02'
p14
aS'meat.n.01'
p15
aS'asparagus.n.02'
p16
aS'salad.n.01'
p17
aS'pot.n.01'
p18
aS'pot.n.09'
p19
aS'bean.n.01'
p20
aS'pan.n.03'
p21
aS'vanilla.n.02'
p22
aS'sauce.n.01'
p23
aS'cream.n.02'
p24
aS'vegetable.n.01'
p25
aS'ingredient.n.03'
p26
aS'french_fries.n.01'
p27
aS'steak.n.01'
p28
aS'concoction.n.01'
p29
asS'instanceCount'
p30
I43
sS'matrix'
p31
(dp32
g11
(dp33
S'mixing_bowl.n.01'
p34
I2
ssg8
(dp35
S'add.v.01'
p36
I14
ssg21
(dp37
S'pan.n.03'
p38
I3
ssg19
(dp39
g19
I0
ssg9
(dp40
S'flour.n.01'
p41
I1
ssg10
(dp42
S'egg.n.02'
p43
I2
ssg12
(dp44
S'butter.n.01'
p45
I3
ssg18
(dp46
g19
I1
ssg16
(dp47
S'asparagus.n.02'
p48
I1
ssg15
(dp49
S'meat.n.01'
p50
I1
ssg22
(dp51
S'vanilla.n.02'
p52
I2
ssg20
(dp53
S'bean.n.01'
p54
I1
ssg29
(dp55
S'concoction.n.01'
p56
I1
ssg23
(dp57
S'sauce.n.01'
p58
I1
ssg14
(dp59
S'salt.n.02'
p60
I1
ssg24
(dp61
S'cream.n.02'
p62
I2
ssg26
(dp63
S'ingredient.n.03'
p64
I2
ssg28
(dp65
S'steak.n.01'
p66
I1
ssg25
(dp67
S'vegetable.n.01'
p68
I1
ssg27
(dp69
S'french_fries.n.01'
p70
I1
ssg17
(dp71
S'salad.n.01'
p72
I1
ssg13
(dp73
S'sugar.n.01'
p74
I1
sssb.