ccopy_reg
_reconstructor
p0
(cutils.eval
ConfusionMatrix
p1
c__builtin__
object
p2
Ntp3
Rp4
(dp5
S'labels'
p6
(lp7
S'add.v.01'
p8
aS'dressing.n.01'
p9
aS'stuffing.n.01'
p10
aS'salad.n.01'
p11
aS'apple.n.01'
p12
aS'flour.n.01'
p13
aS'egg.n.02'
p14
aS'mixing_bowl.n.01'
p15
aS'butter.n.01'
p16
aS'sugar.n.01'
p17
aS'salt.n.02'
p18
aS'meat.n.01'
p19
aS'asparagus.n.02'
p20
aS'pot.n.01'
p21
aS'pot.n.09'
p22
aS'bean.n.01'
p23
aS'pan.n.03'
p24
aS'vanilla.n.02'
p25
aS'sauce.n.01'
p26
aS'cream.n.02'
p27
aS'vegetable.n.01'
p28
aS'ingredient.n.03'
p29
aS'french_fries.n.01'
p30
aS'steak.n.01'
p31
asS'instanceCount'
p32
I40
sS'matrix'
p33
(dp34
g15
(dp35
S'mixing_bowl.n.01'
p36
I2
ssg12
(dp37
S'apple.n.01'
p38
I1
ssg8
(dp39
S'add.v.01'
p40
I14
ssg24
(dp41
S'pan.n.03'
p42
I2
ssg22
(dp43
g22
I0
ssg13
(dp44
S'flour.n.01'
p45
I1
ssg14
(dp46
S'egg.n.02'
p47
I2
ssg16
(dp48
S'butter.n.01'
p49
I2
ssg21
(dp50
g22
I1
ssg20
(dp51
S'asparagus.n.02'
p52
I1
ssg19
(dp53
S'meat.n.01'
p54
I1
ssg25
(dp55
S'vanilla.n.02'
p56
I1
ssg23
(dp57
S'bean.n.01'
p58
I1
ssg26
(dp59
S'sauce.n.01'
p60
I1
ssg18
(dp61
S'salt.n.02'
p62
I1
ssg27
(dp63
S'cream.n.02'
p64
I1
ssg29
(dp65
S'ingredient.n.03'
p66
I1
ssg31
(dp67
S'steak.n.01'
p68
I1
ssg10
(dp69
g10
I0
ssg28
(dp70
S'vegetable.n.01'
p71
I1
ssg9
(dp72
g10
I1
ssg30
(dp73
S'french_fries.n.01'
p74
I1
ssg11
(dp75
S'salad.n.01'
p76
I2
ssg17
(dp77
S'sugar.n.01'
p78
I1
sssb.