ccopy_reg
_reconstructor
p0
(cutils.eval
ConfusionMatrix
p1
c__builtin__
object
p2
Ntp3
Rp4
(dp5
S'labels'
p6
(lp7
S'add.v.01'
p8
aS'ingredient.n.03'
p9
aS'french_fries.n.01'
p10
aS'steak.n.01'
p11
aS'concoction.n.01'
p12
aS'cream.n.02'
p13
aS'cream.n.03'
p14
aS'pan.n.03'
p15
aS'butter.n.01'
p16
aS'vanilla.n.02'
p17
aS'milk.n.01'
p18
aS'water.n.06'
p19
aS'water_system.n.02'
p20
aS'corn.n.03'
p21
aS'dish.n.02'
p22
aS'dish.n.01'
p23
aS'onion.n.03'
p24
aS'rib.n.03'
p25
aS'dressing.n.01'
p26
aS'stuffing.n.01'
p27
aS'salad.n.01'
p28
aS'apple.n.01'
p29
aS'flour.n.01'
p30
aS'egg.n.02'
p31
aS'mixing_bowl.n.01'
p32
aS'sugar.n.01'
p33
aS'salt.n.02'
p34
aS'meat.n.01'
p35
aS'asparagus.n.02'
p36
asS'instanceCount'
p37
I42
sS'matrix'
p38
(dp39
g21
(dp40
S'corn.n.03'
p41
I1
ssg32
(dp42
S'mixing_bowl.n.01'
p43
I2
ssg22
(dp44
g23
I1
ssg23
(dp45
g23
I0
ssg29
(dp46
S'apple.n.01'
p47
I1
ssg8
(dp48
S'add.v.01'
p49
I14
ssg18
(dp50
S'milk.n.01'
p51
I1
ssg15
(dp52
S'pan.n.03'
p53
I1
ssg30
(dp54
S'flour.n.01'
p55
I1
ssg31
(dp56
S'egg.n.02'
p57
I1
ssg16
(dp58
S'butter.n.01'
p59
I2
ssg36
(dp60
S'asparagus.n.02'
p61
I1
ssg35
(dp62
S'meat.n.01'
p63
I1
ssg17
(dp64
S'vanilla.n.02'
p65
I1
ssg12
(dp66
S'concoction.n.01'
p67
I1
ssg34
(dp68
S'salt.n.02'
p69
I1
ssg25
(dp70
S'rib.n.03'
p71
I1
ssg13
(dp72
g14
I1
ssg9
(dp73
S'ingredient.n.03'
p74
I2
ssg14
(dp75
g14
I0
ssg11
(dp76
S'steak.n.01'
p77
I1
ssg27
(dp78
g27
I0
ssg20
(dp79
g20
I0
ssg19
(dp80
g20
I1
ssg26
(dp81
g27
I1
ssg10
(dp82
S'french_fries.n.01'
p83
I1
ssg28
(dp84
S'salad.n.01'
p85
I2
ssg24
(dp86
S'onion.n.03'
p87
I1
ssg33
(dp88
S'sugar.n.01'
p89
I1
sssb.