ccopy_reg
_reconstructor
p0
(cutils.eval
ConfusionMatrix
p1
c__builtin__
object
p2
Ntp3
Rp4
(dp5
S'labels'
p6
(lp7
S'flesh.n.01'
p8
aS'slice.v.03'
p9
aS'slice.v.02'
p10
aS'opening.n.01'
p11
aS'gap.n.05'
p12
aS'fill.v.09'
p13
aS'fill.v.06'
p14
aS'batter.n.02'
p15
asS'instanceCount'
p16
I5
sS'matrix'
p17
(dp18
g10
(dp19
g10
I0
ssg9
(dp20
g10
I1
ssg12
(dp21
g12
I0
ssg13
(dp22
g14
I1
ssg14
(dp23
g14
I0
ssg8
(dp24
S'flesh.n.01'
p25
I1
ssg15
(dp26
S'batter.n.02'
p27
I1
ssg11
(dp28
g12
I1
sssb.