ccopy_reg
_reconstructor
p0
(cutils.eval
ConfusionMatrix
p1
c__builtin__
object
p2
Ntp3
Rp4
(dp5
S'labels'
p6
(lp7
S'fill.v.01'
p8
aS'pan.n.01'
p9
aS'water.n.06'
p10
aS'flesh.n.01'
p11
aS'slice.v.03'
p12
aS'slice.v.02'
p13
asS'instanceCount'
p14
I5
sS'matrix'
p15
(dp16
g9
(dp17
S'pan.n.01'
p18
I1
ssg12
(dp19
g13
I1
ssg11
(dp20
S'flesh.n.01'
p21
I1
ssg10
(dp22
S'water.n.06'
p23
I1
ssg8
(dp24
S'fill.v.01'
p25
I1
ssg13
(dp26
g13
I0
sssb.