ccopy_reg
_reconstructor
p0
(cutils.eval
ConfusionMatrix
p1
c__builtin__
object
p2
Ntp3
Rp4
(dp5
S'labels'
p6
(lp7
S'cheese.n.01'
p8
aS'tall_mallow.n.01'
p9
aS'slice.v.03'
p10
aS'slice.v.02'
p11
aS'knife.n.01'
p12
aS'banana.n.02'
p13
aS'banana.n.01'
p14
asS'instanceCount'
p15
I5
sS'matrix'
p16
(dp17
g11
(dp18
g11
I0
ssg8
(dp19
g9
I1
ssg12
(dp20
S'knife.n.01'
p21
I1
ssg14
(dp22
g14
I0
ssg13
(dp23
g14
I1
ssg10
(dp24
g11
I2
ssg9
(dp25
g9
I0
sssb.