ccopy_reg
_reconstructor
p0
(cutils.eval
ConfusionMatrix
p1
c__builtin__
object
p2
Ntp3
Rp4
(dp5
S'labels'
p6
(lp7
S'bread.n.01'
p8
aS'knife.n.01'
p9
aS'slice.v.03'
p10
aS'orange.n.01'
p11
aS'piece.n.08'
p12
aS'lemon.n.01'
p13
aS'slice.v.02'
p14
aS'bacon.n.01'
p15
aS'bacon.n.02'
p16
aS'mushroom.n.05'
p17
aS'cheese.n.01'
p18
aS'tomato.n.01'
p19
aS'onion.n.03'
p20
aS'onion.n.02'
p21
aS'mustard.n.02'
p22
aS'banana.n.02'
p23
aS'green_onion.n.01'
p24
aS'vegetable.n.01'
p25
aS'cabbage.n.01'
p26
aS'pizza.n.01'
p27
aS'meat.n.01'
p28
aS'cleaver.n.01'
p29
aS'olive.n.01'
p30
aS'olive.n.04'
p31
aS'zucchini.n.01'
p32
aS'zucchini.n.02'
p33
aS'slice.n.06'
p34
aS'flesh.n.01'
p35
aS'pulp.n.02'
p36
aS'potato.n.01'
p37
aS'egg.n.02'
p38
aS'onion.n.01'
p39
aS'mustard.n.01'
p40
aS'catsup.n.01'
p41
aS'tomato.n.02'
p42
aS'slice.n.01'
p43
aS'knife.n.02'
p44
aS'slice.n.05'
p45
aS'helicopter.n.01'
p46
aS'human_body.n.01'
p47
aS'egg.n.01'
p48
aS'mushroom.n.03'
p49
aS'cabbage.n.03'
p50
aS'tall_mallow.n.01'
p51
aS'mustard.n.03'
p52
aS'kernel.n.01'
p53
aS'olive.n.03'
p54
asS'instanceCount'
p55
I420
sS'matrix'
p56
(dp57
g17
(dp58
g17
I6
sg18
I0
sg49
I2
sg53
I0
sg8
I0
sg11
I0
sg33
I0
sg32
I0
sg26
I0
sg24
I0
sg40
I0
sg22
I0
sg52
I0
sg50
I0
sS'egg.n.02'
p59
I0
sg19
I0
sg16
I0
sg15
I0
sg29
I0
sS'potato.n.01'
p60
I0
sg28
I0
sg14
I0
sg10
I0
sg30
I0
sg9
I0
sg23
I0
sg31
I0
sg47
I0
sS'catsup.n.01'
p61
I0
sg12
I0
sg51
I0
sg25
I0
sg54
I0
sS'flesh.n.01'
p62
I0
sS'slice.n.06'
p63
I0
sg27
I0
sS'pulp.n.02'
p64
I0
sg13
I0
sS'tomato.n.02'
p65
I0
sg39
I0
sg48
I0
sg20
I0
sg21
I0
ssg18
(dp66
g17
I0
sg18
I7
sg49
I0
sg53
I0
sg8
I0
sg11
I0
sg33
I0
sg32
I0
sg26
I0
sg24
I0
sg40
I0
sg22
I0
sg52
I0
sg50
I0
sg59
I0
sg19
I0
sg16
I0
sg15
I0
sg29
I0
sg60
I0
sg28
I0
sg14
I0
sg10
I0
sg30
I0
sg9
I0
sg23
I0
sg31
I0
sg47
I0
sg61
I0
sg12
I0
sg51
I1
sg25
I0
sg54
I0
sg62
I0
sg63
I0
sg27
I0
sg64
I0
sg13
I0
sg65
I0
sg39
I0
sg48
I0
sg20
I0
sg21
I0
ssg49
(dp67
S'mushroom.n.05'
p68
I0
sS'cheese.n.01'
p69
I0
sg49
I0
sg53
I0
sS'bread.n.01'
p70
I0
sS'orange.n.01'
p71
I0
sS'cabbage.n.01'
p72
I0
sS'green_onion.n.01'
p73
I0
sS'mustard.n.01'
p74
I0
sS'mustard.n.02'
p75
I0
sg52
I0
sg50
I0
sS'egg.n.02'
p76
I0
sS'tomato.n.01'
p77
I0
sS'bacon.n.02'
p78
I0
sS'bacon.n.01'
p79
I0
sS'meat.n.01'
p80
I0
sS'potato.n.01'
p81
I0
sS'cleaver.n.01'
p82
I0
sS'slice.v.03'
p83
I0
sS'knife.n.01'
p84
I0
sS'banana.n.02'
p85
I0
sS'catsup.n.01'
p86
I0
sS'piece.n.08'
p87
I0
sg51
I0
sS'vegetable.n.01'
p88
I0
sS'flesh.n.01'
p89
I0
sS'slice.n.06'
p90
I0
sS'pizza.n.01'
p91
I0
sS'pulp.n.02'
p92
I0
sS'lemon.n.01'
p93
I0
sS'tomato.n.02'
p94
I0
sS'onion.n.01'
p95
I0
sg48
I0
sS'onion.n.03'
p96
I0
ssg53
(dp97
S'mushroom.n.05'
p98
I0
sg53
I0
sS'mushroom.n.03'
p99
I0
sS'cheese.n.01'
p100
I0
sS'bread.n.01'
p101
I0
sS'orange.n.01'
p102
I0
sS'cabbage.n.01'
p103
I0
sS'green_onion.n.01'
p104
I0
sS'mustard.n.02'
p105
I0
sg52
I0
sS'cabbage.n.03'
p106
I0
sS'egg.n.02'
p107
I0
sS'egg.n.01'
p108
I0
sS'bacon.n.02'
p109
I0
sS'bacon.n.01'
p110
I0
sg80
I0
sS'potato.n.01'
p111
I0
sg82
I0
sS'slice.v.03'
p112
I0
sS'knife.n.01'
p113
I0
sS'banana.n.02'
p114
I0
sS'piece.n.08'
p115
I0
sg51
I0
sS'vegetable.n.01'
p116
I0
sS'slice.n.06'
p117
I0
sS'pizza.n.01'
p118
I0
sS'lemon.n.01'
p119
I0
sg95
I0
sS'tomato.n.01'
p120
I0
sS'onion.n.03'
p121
I0
ssg8
(dp122
g17
I0
sg18
I0
sg49
I0
sg53
I0
sg8
I8
sg11
I0
sg33
I0
sg32
I0
sg26
I0
sg24
I0
sg45
I0
sS'mustard.n.01'
p123
I0
sg22
I0
sg52
I0
sg50
I0
sg38
I0
sg19
I0
sg44
I0
sg16
I0
sg15
I0
sg29
I0
sg37
I0
sg28
I0
sg14
I0
sg10
I0
sg30
I0
sg9
I0
sg23
I0
sg31
I0
sS'human_body.n.01'
p124
I0
sg41
I0
sg12
I0
sg51
I0
sg25
I0
sg54
I0
sg35
I0
sg46
I0
sg43
I0
sg34
I0
sg27
I0
sg36
I0
sg13
I0
sg42
I0
sg95
I0
sg48
I0
sg20
I0
sg21
I0
ssg11
(dp125
g17
I0
sg18
I0
sg49
I0
sg53
I0
sg8
I0
sg11
I8
sg33
I0
sg32
I0
sg26
I0
sg24
I0
sg45
I0
sg123
I0
sg22
I0
sg52
I0
sg50
I0
sg38
I0
sg19
I0
sg44
I0
sg16
I0
sg15
I0
sg29
I0
sg37
I0
sg28
I0
sg14
I0
sg10
I0
sg30
I0
sg9
I0
sg23
I0
sg31
I0
sg124
I0
sg41
I0
sg12
I0
sg51
I0
sg25
I0
sg54
I0
sg35
I0
sg46
I0
sg43
I0
sg34
I0
sg27
I0
sg36
I0
sg13
I0
sg42
I0
sg95
I0
sg48
I0
sg20
I0
sg21
I0
ssg33
(dp126
g17
I0
sg18
I0
sg8
I0
sg11
I0
sg33
I0
sg32
I0
sg26
I0
sg24
I0
sg45
I0
sg40
I0
sg22
I0
sg38
I0
sg19
I0
sg44
I0
sg16
I0
sg15
I0
sg28
I0
sg37
I0
sg29
I0
sg14
I0
sg10
I0
sg30
I0
sg9
I0
sg23
I0
sg31
I0
sg47
I0
sg41
I0
sg12
I0
sg25
I0
sg54
I0
sg35
I0
sg46
I0
sg43
I0
sg34
I0
sg27
I0
sg36
I0
sg13
I0
sg42
I0
sg39
I0
sg20
I0
sg21
I0
ssg32
(dp127
g17
I0
sg18
I0
sg8
I0
sg11
I0
sg33
I8
sg32
I0
sg26
I0
sg24
I0
sg45
I0
sg40
I0
sg22
I0
sg38
I0
sg19
I0
sg44
I0
sg16
I0
sg15
I0
sg28
I0
sg37
I0
sg29
I0
sg14
I0
sg10
I0
sg30
I0
sg9
I0
sg23
I0
sg31
I0
sg47
I0
sg41
I0
sg12
I0
sg25
I0
sg54
I0
sg35
I0
sg46
I0
sg43
I0
sg34
I0
sg27
I0
sg36
I0
sg13
I0
sg42
I0
sg39
I0
sg20
I0
sg21
I0
ssg26
(dp128
g17
I0
sg18
I0
sg49
I0
sg53
I0
sg8
I0
sg11
I0
sg33
I0
sg32
I0
sg26
I6
sg24
I0
sg45
I0
sg40
I0
sg22
I0
sg52
I0
sg50
I2
sg38
I0
sg19
I0
sg44
I0
sg16
I0
sg15
I0
sg29
I0
sg37
I0
sg28
I0
sg14
I0
sg10
I0
sg30
I0
sg9
I0
sg23
I0
sg31
I0
sg47
I0
sg41
I0
sg12
I0
sg51
I0
sg25
I0
sg35
I0
sg46
I0
sg43
I0
sg34
I0
sg27
I0
sg36
I0
sg13
I0
sg42
I0
sg39
I0
sg48
I0
sg20
I0
sg21
I0
ssg24
(dp129
g17
I0
sg18
I0
sg49
I0
sg53
I0
sg8
I0
sg11
I0
sg33
I0
sg32
I0
sg26
I0
sg24
I8
sg45
I0
sg40
I0
sg22
I0
sg52
I0
sg50
I0
sg38
I0
sg19
I0
sg44
I0
sg16
I0
sg15
I0
sg29
I0
sg37
I0
sg28
I0
sg14
I0
sg10
I0
sg30
I0
sg9
I0
sg23
I0
sg31
I0
sg47
I0
sg41
I0
sg12
I0
sg51
I0
sg25
I0
sg35
I0
sg46
I0
sg43
I0
sg34
I0
sg27
I0
sg36
I0
sg13
I0
sg42
I0
sg39
I0
sg48
I0
sg20
I0
sg21
I0
ssg45
(dp130
S'bread.n.01'
p131
I0
sS'orange.n.01'
p132
I0
sS'zucchini.n.02'
p133
I0
sS'zucchini.n.01'
p134
I0
sS'cabbage.n.01'
p135
I0
sS'green_onion.n.01'
p136
I0
sS'pizza.n.01'
p137
I0
sg123
I0
sS'mustard.n.02'
p138
I0
sg42
I0
sS'tomato.n.01'
p139
I0
sS'olive.n.04'
p140
I0
sS'cleaver.n.01'
p141
I0
sS'potato.n.01'
p142
I0
sS'meat.n.01'
p143
I0
sS'slice.v.03'
p144
I0
sS'olive.n.01'
p145
I0
sS'knife.n.01'
p146
I0
sS'banana.n.02'
p147
I0
sg44
I0
sg41
I0
sS'piece.n.08'
p148
I0
sS'vegetable.n.01'
p149
I0
sS'flesh.n.01'
p150
I0
sg46
I0
sg43
I0
sg45
I0
sS'pulp.n.02'
p151
I0
sS'lemon.n.01'
p152
I0
sS'egg.n.02'
p153
I0
sS'onion.n.03'
p154
I0
sS'onion.n.02'
p155
I0
ssg40
(dp156
S'mushroom.n.05'
p157
I0
sS'cheese.n.01'
p158
I0
sg49
I0
sg131
I0
sg132
I0
sS'zucchini.n.02'
p159
I0
sS'zucchini.n.01'
p160
I0
sS'cabbage.n.01'
p161
I0
sS'green_onion.n.01'
p162
I0
sg45
I0
sg40
I0
sS'mustard.n.02'
p163
I0
sg50
I0
sg59
I0
sS'tomato.n.01'
p164
I0
sg44
I0
sg78
I0
sS'bacon.n.01'
p165
I0
sS'meat.n.01'
p166
I0
sg60
I0
sS'cleaver.n.01'
p167
I0
sS'slice.v.03'
p168
I0
sS'olive.n.01'
p169
I0
sS'knife.n.01'
p170
I0
sS'banana.n.02'
p171
I0
sS'olive.n.04'
p172
I0
sg47
I0
sg41
I0
sS'piece.n.08'
p173
I0
sS'vegetable.n.01'
p174
I0
sg62
I0
sg46
I0
sg43
I0
sg63
I0
sS'pizza.n.01'
p175
I0
sg64
I0
sS'lemon.n.01'
p176
I0
sg42
I0
sg39
I0
sg48
I0
sS'onion.n.03'
p177
I0
sg155
I0
ssg22
(dp178
g17
I0
sg18
I0
sg49
I0
sg53
I0
sg8
I0
sg11
I0
sg33
I0
sg32
I0
sg26
I0
sg24
I0
sg45
I0
sg40
I5
sg22
I2
sg52
I1
sg50
I0
sg59
I0
sg19
I0
sg44
I0
sg16
I0
sg15
I0
sg29
I0
sg60
I0
sg28
I0
sg14
I0
sg10
I0
sg30
I0
sg9
I0
sg23
I0
sg31
I0
sg47
I0
sg41
I0
sg12
I0
sg51
I0
sg25
I0
sg54
I0
sg62
I0
sg46
I0
sg43
I0
sg63
I0
sg27
I0
sg64
I0
sg13
I0
sg42
I0
sg39
I0
sg48
I0
sg20
I0
sg21
I0
ssg52
(dp179
g98
I0
sg100
I0
sg99
I0
sg53
I0
sg101
I0
sg102
I0
sg103
I0
sg104
I0
sg105
I0
sg52
I0
sg106
I0
sg107
I0
sg108
I0
sg109
I0
sg110
I0
sg80
I0
sg111
I0
sg82
I0
sg112
I0
sg113
I0
sg114
I0
sg115
I0
sg51
I0
sg116
I0
sg117
I0
sg118
I0
sg119
I0
sg95
I0
sg120
I0
sg121
I0
ssg50
(dp180
g68
I0
sg69
I0
sg49
I0
sg53
I0
sg70
I0
sg71
I0
sg72
I0
sg73
I0
sg74
I0
sg75
I0
sg52
I0
sg85
I0
sg76
I0
sg77
I0
sg78
I0
sg79
I0
sg80
I0
sg81
I0
sg82
I0
sg83
I0
sg84
I0
sg50
I0
sg86
I0
sg87
I0
sg51
I0
sg88
I0
sg89
I0
sg90
I0
sg91
I0
sg92
I0
sg93
I0
sg94
I0
sg95
I0
sg48
I0
sg96
I0
ssg38
(dp181
g157
I0
sg158
I0
sg49
I0
sg53
I0
sS'bread.n.01'
p182
I0
sS'orange.n.01'
p183
I0
sS'zucchini.n.02'
p184
I0
sS'zucchini.n.01'
p185
I0
sS'knife.n.01'
p186
I0
sS'green_onion.n.01'
p187
I0
sg45
I0
sg40
I0
sg163
I0
sg52
I0
sg50
I0
sg38
I6
sS'tomato.n.01'
p188
I0
sg44
I0
sg78
I0
sS'bacon.n.01'
p189
I0
sS'meat.n.01'
p190
I0
sg37
I0
sS'cleaver.n.01'
p191
I0
sg54
I0
sS'slice.v.03'
p192
I0
sS'olive.n.01'
p193
I0
sS'cabbage.n.01'
p194
I0
sg171
I0
sS'olive.n.04'
p195
I0
sg124
I0
sg41
I0
sS'piece.n.08'
p196
I0
sg51
I0
sS'slice.v.02'
p197
I0
sS'vegetable.n.01'
p198
I0
sg35
I0
sg46
I0
sg43
I0
sg34
I0
sS'pizza.n.01'
p199
I0
sg177
I0
sS'lemon.n.01'
p200
I0
sg42
I0
sg39
I0
sg48
I2
sg36
I0
sg155
I0
ssg19
(dp201
g17
I0
sg18
I0
sg49
I0
sg53
I0
sg8
I0
sg11
I0
sg33
I0
sg32
I0
sg26
I0
sg24
I0
sg45
I0
sg40
I0
sg22
I0
sg52
I0
sg50
I0
sg38
I0
sg19
I11
sg44
I0
sg16
I0
sg15
I0
sg29
I0
sg37
I0
sg28
I0
sg14
I0
sg10
I0
sg30
I0
sg9
I0
sg23
I0
sg31
I0
sg47
I0
sg41
I0
sg12
I0
sg51
I0
sg25
I0
sg54
I0
sg35
I0
sg46
I0
sg43
I0
sg34
I0
sg27
I0
sg36
I0
sg13
I0
sg42
I5
sg39
I0
sg48
I0
sg20
I0
sg21
I0
ssg44
(dp202
g131
I0
sg132
I0
sg133
I0
sg134
I0
sg135
I0
sg136
I0
sg137
I0
sg123
I0
sg138
I0
sg42
I0
sg139
I0
sg140
I0
sg141
I0
sg142
I0
sg143
I0
sg144
I0
sg145
I0
sg146
I0
sg147
I0
sg44
I0
sg41
I0
sg148
I0
sg149
I0
sg150
I0
sg46
I0
sg43
I0
sg45
I0
sg151
I0
sg152
I0
sg153
I0
sg154
I0
sg155
I0
ssg16
(dp203
g17
I0
sg18
I0
sg49
I0
sg53
I0
sg8
I0
sg11
I0
sg33
I0
sg32
I0
sg26
I0
sg24
I0
sg74
I0
sg22
I0
sg52
I0
sg50
I0
sg76
I0
sg19
I0
sg16
I0
sg15
I0
sg29
I0
sg81
I0
sg28
I0
sg14
I0
sg10
I0
sg30
I0
sg9
I0
sg23
I0
sg31
I0
sg86
I0
sg12
I0
sg51
I0
sg25
I0
sg89
I0
sg90
I0
sg27
I0
sg92
I0
sg13
I0
sg94
I0
sg95
I0
sg48
I0
sg20
I0
sg21
I0
ssg15
(dp204
g17
I0
sg18
I0
sg49
I0
sg53
I0
sg8
I0
sg11
I0
sg33
I0
sg32
I0
sg26
I0
sg24
I0
sS'mustard.n.01'
p205
I0
sg22
I0
sg52
I0
sg50
I0
sg38
I0
sg19
I0
sg16
I4
sg15
I4
sg29
I0
sg37
I0
sg28
I0
sg14
I0
sg10
I0
sg30
I0
sg9
I0
sg23
I0
sg31
I0
sg47
I0
sg61
I0
sg12
I0
sg51
I0
sg25
I0
sg54
I0
sg35
I0
sg34
I0
sg27
I0
sg36
I0
sg13
I0
sg65
I0
sS'onion.n.01'
p206
I0
sg48
I0
sg20
I0
sg21
I0
ssg29
(dp207
g17
I0
sg18
I0
sg99
I0
sg53
I0
sg8
I0
sg11
I0
sg33
I0
sg32
I0
sg26
I0
sg24
I0
sg45
I0
sg40
I0
sg22
I0
sg52
I0
sg106
I0
sg38
I0
sg19
I0
sg44
I0
sg16
I0
sg15
I0
sg28
I0
sg37
I0
sg29
I7
sg14
I0
sg10
I0
sg30
I0
sg9
I0
sg23
I0
sg31
I0
sg47
I0
sg41
I0
sg12
I0
sg51
I0
sg25
I0
sg54
I0
sg35
I0
sg46
I1
sg43
I0
sg34
I0
sg27
I0
sg36
I0
sg13
I0
sg42
I0
sg39
I0
sg108
I0
sg20
I0
sg21
I0
ssg37
(dp208
g157
I0
sg158
I0
sg49
I0
sg53
I0
sg182
I0
sg183
I0
sg184
I0
sg185
I0
sg186
I0
sg187
I0
sg45
I0
sg40
I0
sg163
I0
sg52
I0
sg50
I0
sg38
I0
sg188
I0
sg44
I0
sg78
I0
sg189
I0
sg190
I0
sg37
I8
sg191
I0
sg54
I0
sg192
I0
sg193
I0
sg194
I0
sg171
I0
sg195
I0
sg124
I0
sg41
I0
sg196
I0
sg51
I0
sg197
I0
sg198
I0
sg35
I0
sg46
I0
sg43
I0
sg34
I0
sg199
I0
sg177
I0
sg200
I0
sg42
I0
sg39
I0
sg48
I0
sg36
I0
sg155
I0
ssg28
(dp209
g17
I0
sg18
I0
sg99
I0
sg53
I1
sg8
I0
sg11
I0
sg33
I0
sg32
I0
sg26
I0
sg24
I0
sg45
I0
sg40
I0
sg22
I0
sg52
I0
sg106
I0
sg38
I0
sg19
I0
sg44
I0
sg16
I0
sg15
I0
sg29
I0
sg37
I0
sg28
I7
sg14
I0
sg10
I0
sg30
I0
sg9
I0
sg23
I0
sg31
I0
sg47
I0
sg41
I0
sg12
I0
sg51
I0
sg25
I0
sg54
I0
sg35
I0
sg46
I0
sg43
I0
sg34
I0
sg27
I0
sg36
I0
sg13
I0
sg42
I0
sg39
I0
sg108
I0
sg20
I0
sg21
I0
ssg14
(dp210
g17
I0
sg18
I0
sg8
I0
sg11
I0
sg33
I0
sg32
I0
sg26
I0
sg24
I0
sg22
I0
sS'egg.n.02'
p211
I0
sg19
I0
sg16
I0
sg15
I0
sg29
I0
sS'potato.n.01'
p212
I0
sg28
I0
sg14
I0
sg10
I0
sg30
I0
sg9
I0
sg23
I0
sg31
I0
sg12
I0
sg25
I0
sS'flesh.n.01'
p213
I0
sS'slice.n.06'
p214
I0
sg27
I0
sS'pulp.n.02'
p215
I0
sg13
I0
sg20
I0
sg21
I0
ssg10
(dp216
g17
I0
sg18
I0
sg49
I0
sg53
I0
sg8
I0
sg11
I0
sg33
I0
sg32
I0
sg26
I0
sg24
I0
sg45
I0
sg40
I0
sg22
I0
sg52
I0
sg50
I0
sg38
I0
sg19
I0
sg44
I0
sg16
I0
sg15
I0
sg29
I0
sg37
I0
sg28
I0
sg14
I2
sg10
I150
sg30
I0
sg9
I0
sg23
I0
sg31
I0
sg47
I0
sg41
I0
sg12
I0
sg51
I0
sg25
I0
sg54
I0
sg35
I0
sg46
I0
sg43
I0
sg34
I0
sg27
I0
sg36
I0
sg13
I0
sg42
I0
sg39
I0
sg48
I0
sg20
I0
sg21
I0
ssg30
(dp217
g17
I0
sg18
I0
sg8
I0
sg11
I0
sg33
I0
sg32
I0
sg26
I0
sg24
I0
sg45
I0
sg40
I0
sg22
I0
sg38
I0
sg19
I0
sg44
I0
sg16
I0
sg15
I0
sg28
I0
sg37
I0
sg29
I0
sg14
I0
sg10
I0
sg30
I1
sg9
I0
sg23
I0
sg31
I6
sg47
I0
sg41
I0
sg12
I0
sg25
I0
sg54
I1
sg35
I0
sg46
I0
sg43
I0
sg34
I0
sg27
I0
sg36
I0
sg13
I0
sg42
I0
sg39
I0
sg20
I0
sg21
I0
ssg9
(dp218
g17
I0
sg18
I0
sg49
I0
sg53
I0
sg8
I0
sg11
I0
sg33
I0
sg32
I0
sg26
I0
sg24
I0
sg45
I0
sg40
I0
sg22
I0
sg52
I0
sg50
I0
sg38
I0
sg19
I0
sg44
I5
sg16
I0
sg15
I0
sg29
I0
sg37
I0
sg28
I0
sg14
I0
sg10
I0
sg30
I0
sg9
I35
sg23
I0
sg31
I0
sg47
I0
sg41
I0
sg12
I0
sg51
I0
sg25
I0
sg54
I0
sg35
I0
sg46
I0
sg43
I0
sg34
I0
sg27
I0
sg36
I0
sg13
I0
sg42
I0
sg39
I0
sg48
I0
sg20
I0
sg21
I0
ssg23
(dp219
g17
I0
sg18
I0
sg49
I0
sg53
I0
sg8
I0
sg11
I0
sg33
I0
sg32
I0
sg26
I0
sg24
I0
sg45
I0
sg40
I0
sg22
I0
sg52
I0
sg50
I0
sg59
I0
sg19
I0
sg44
I0
sg16
I0
sg15
I0
sg29
I0
sg60
I0
sg28
I0
sg14
I0
sg10
I0
sg30
I0
sg9
I0
sg23
I8
sg31
I0
sg47
I0
sg41
I0
sg12
I0
sg51
I0
sg25
I0
sg54
I0
sg62
I0
sg46
I0
sg43
I0
sg63
I0
sg27
I0
sg64
I0
sg13
I0
sg42
I0
sg39
I0
sg48
I0
sg20
I0
sg21
I0
ssg31
(dp220
g17
I0
sg18
I0
sg8
I0
sg11
I0
sg33
I0
sg32
I0
sg26
I0
sg24
I0
sg45
I0
sg40
I0
sg22
I0
sg38
I0
sg19
I0
sg44
I0
sg16
I0
sg15
I0
sg28
I0
sg37
I0
sg29
I0
sg14
I0
sg10
I0
sg30
I0
sg9
I0
sg23
I0
sg31
I0
sg47
I0
sg41
I0
sg12
I0
sg25
I0
sg35
I0
sg46
I0
sg43
I0
sg34
I0
sg27
I0
sg36
I0
sg13
I0
sg42
I0
sg39
I0
sg20
I0
sg21
I0
ssg47
(dp221
S'mushroom.n.05'
p222
I0
sS'cheese.n.01'
p223
I0
sS'bread.n.01'
p224
I0
sS'orange.n.01'
p225
I0
sS'zucchini.n.02'
p226
I0
sS'zucchini.n.01'
p227
I0
sS'cabbage.n.01'
p228
I0
sS'green_onion.n.01'
p229
I0
sg205
I0
sS'mustard.n.02'
p230
I0
sg65
I0
sS'tomato.n.01'
p231
I0
sg165
I0
sS'cleaver.n.01'
p232
I0
sS'potato.n.01'
p233
I0
sS'meat.n.01'
p234
I0
sg54
I0
sS'slice.v.03'
p235
I0
sS'olive.n.01'
p236
I0
sS'knife.n.01'
p237
I0
sS'banana.n.02'
p238
I0
sS'olive.n.04'
p239
I0
sg47
I0
sg61
I0
sS'piece.n.08'
p240
I0
sS'vegetable.n.01'
p241
I0
sS'flesh.n.01'
p242
I0
sS'pizza.n.01'
p243
I0
sS'lemon.n.01'
p244
I0
sS'egg.n.02'
p245
I0
sg206
I0
sS'onion.n.03'
p246
I0
sS'onion.n.02'
p247
I0
ssg41
(dp248
g222
I0
sg223
I0
sg49
I0
sg131
I0
sg132
I0
sg133
I0
sg134
I0
sg135
I0
sg136
I0
sg137
I0
sg123
I0
sg138
I0
sg50
I0
sg42
I0
sg139
I0
sg140
I0
sg78
I0
sg165
I0
sg141
I0
sg142
I0
sg143
I0
sg144
I0
sg145
I0
sg146
I0
sg147
I0
sg44
I0
sg47
I0
sg41
I4
sg148
I0
sg149
I0
sg150
I0
sg46
I0
sg43
I0
sg90
I0
sg45
I0
sg151
I0
sg152
I0
sg153
I0
sg206
I0
sg48
I0
sg154
I0
sg155
I0
ssg12
(dp249
g17
I0
sg18
I0
sg49
I0
sg53
I0
sg8
I0
sg11
I0
sg33
I0
sg32
I0
sg26
I0
sg24
I0
sg45
I4
sg40
I0
sg22
I0
sg52
I0
sg50
I0
sg38
I0
sg19
I0
sg44
I0
sg16
I0
sg15
I0
sg29
I0
sg37
I0
sg28
I0
sg14
I0
sg10
I0
sg30
I0
sg9
I0
sg23
I0
sg31
I0
sg47
I0
sg41
I0
sg12
I11
sg51
I0
sg25
I0
sg54
I0
sg35
I0
sg46
I0
sg43
I1
sg34
I24
sg27
I0
sg36
I0
sg13
I0
sg42
I0
sg39
I0
sg48
I0
sg20
I0
sg21
I0
ssg51
(dp250
g98
I0
sg100
I0
sg99
I0
sg53
I0
sg101
I0
sg102
I0
sg103
I0
sg104
I0
sg105
I0
sg52
I0
sg106
I0
sg107
I0
sg108
I0
sg109
I0
sg110
I0
sg80
I0
sg111
I0
sg82
I0
sg112
I0
sg113
I0
sg114
I0
sg115
I0
sg51
I0
sg116
I0
sg117
I0
sg118
I0
sg119
I0
sg95
I0
sg120
I0
sg121
I0
ssg25
(dp251
g17
I0
sg18
I0
sg49
I0
sg53
I0
sg8
I0
sg11
I0
sg33
I0
sg32
I0
sg26
I0
sg24
I0
sg45
I0
sg40
I0
sg22
I0
sg52
I0
sg50
I0
sg38
I0
sg19
I0
sg44
I0
sg16
I0
sg15
I0
sg29
I0
sg37
I0
sg28
I0
sg14
I0
sg10
I0
sg30
I0
sg9
I0
sg23
I0
sg31
I0
sg47
I0
sg41
I0
sg12
I0
sg51
I0
sg25
I8
sg35
I0
sg46
I0
sg43
I0
sg34
I0
sg27
I0
sg36
I0
sg13
I0
sg42
I0
sg39
I0
sg48
I0
sg20
I0
sg21
I0
ssg54
(dp252
S'mushroom.n.05'
p253
I0
sS'cheese.n.01'
p254
I0
sg224
I0
sg225
I0
sS'zucchini.n.02'
p255
I0
sS'zucchini.n.01'
p256
I0
sS'mustard.n.02'
p257
I0
sg245
I0
sS'tomato.n.01'
p258
I0
sS'bacon.n.01'
p259
I0
sS'meat.n.01'
p260
I0
sg233
I0
sS'cleaver.n.01'
p261
I0
sg54
I0
sS'slice.v.03'
p262
I0
sS'olive.n.01'
p263
I0
sS'knife.n.01'
p264
I0
sS'banana.n.02'
p265
I0
sg124
I0
sS'piece.n.08'
p266
I0
sS'flesh.n.01'
p267
I0
sS'lemon.n.01'
p268
I0
sS'tomato.n.02'
p269
I0
sS'onion.n.03'
p270
I0
sg247
I0
ssg35
(dp271
g157
I0
sg158
I0
sg49
I0
sg182
I0
sg183
I0
sg184
I0
sg185
I0
sg186
I0
sg187
I0
sg45
I0
sg40
I0
sg163
I0
sg50
I0
sg38
I0
sg188
I0
sg44
I0
sg78
I0
sg189
I0
sg190
I0
sg37
I0
sg191
I0
sg54
I0
sg192
I0
sg193
I0
sg194
I0
sg171
I0
sg195
I0
sg47
I2
sg41
I0
sg196
I0
sg197
I0
sg198
I0
sg35
I0
sg46
I0
sg43
I0
sg34
I0
sg199
I0
sg177
I0
sg200
I0
sg42
I0
sg39
I0
sg48
I0
sg36
I6
sg155
I0
ssg46
(dp272
g131
I0
sg132
I0
sg133
I0
sg134
I0
sg135
I0
sg136
I0
sg137
I0
sg123
I0
sg138
I0
sg42
I0
sg139
I0
sg140
I0
sg141
I0
sg142
I0
sg143
I0
sg144
I0
sg145
I0
sg146
I0
sg147
I0
sg44
I0
sg41
I0
sg148
I0
sg149
I0
sg150
I0
sg46
I0
sg43
I0
sg45
I0
sg151
I0
sg152
I0
sg153
I0
sg154
I0
sg155
I0
ssg43
(dp273
g131
I0
sg132
I0
sg133
I0
sg134
I0
sg135
I0
sg136
I0
sg137
I0
sg123
I0
sg138
I0
sg42
I0
sg139
I0
sg140
I0
sg141
I0
sg142
I0
sg143
I0
sg144
I0
sg145
I0
sg146
I0
sg147
I0
sg44
I0
sg41
I0
sg148
I0
sg149
I0
sg150
I0
sg46
I0
sg43
I0
sg45
I0
sg151
I0
sg152
I0
sg153
I0
sg154
I0
sg155
I0
ssg34
(dp274
g157
I0
sg158
I0
sg49
I0
sg53
I0
sg182
I0
sg183
I0
sg184
I0
sg185
I0
sg186
I0
sg187
I0
sg40
I0
sg163
I0
sg52
I0
sg50
I0
sg38
I0
sg188
I0
sg78
I0
sg189
I0
sg190
I0
sg37
I0
sg191
I0
sg197
I0
sg192
I0
sg193
I0
sg194
I0
sg171
I0
sg195
I0
sg86
I0
sg196
I0
sg51
I0
sg198
I0
sg35
I0
sg34
I0
sg199
I0
sg177
I0
sg200
I0
sg94
I0
sg39
I0
sg48
I0
sg36
I0
sS'onion.n.02'
p275
I0
ssg27
(dp276
g17
I0
sg18
I0
sg49
I0
sg53
I0
sg8
I0
sg11
I0
sg33
I0
sg32
I0
sg26
I0
sg24
I0
sg45
I0
sg40
I0
sg22
I0
sg52
I0
sg50
I0
sg38
I0
sg19
I0
sg44
I0
sg16
I0
sg15
I0
sg29
I0
sg37
I0
sg28
I0
sg14
I0
sg10
I0
sg30
I0
sg9
I0
sg23
I0
sg31
I0
sg47
I0
sg41
I0
sg12
I0
sg51
I0
sg25
I0
sg35
I0
sg46
I0
sg43
I0
sg34
I0
sg27
I8
sg36
I0
sg13
I0
sg42
I0
sg39
I0
sg48
I0
sg20
I0
sg21
I0
ssg36
(dp277
g157
I0
sg158
I0
sg49
I0
sg182
I0
sg183
I0
sg184
I0
sg185
I0
sg186
I0
sg187
I0
sg45
I0
sg40
I0
sg163
I0
sg50
I0
sg38
I0
sg188
I0
sg44
I0
sg78
I0
sg189
I0
sg190
I0
sg37
I0
sg191
I0
sg197
I0
sg192
I0
sg193
I0
sg194
I0
sg171
I0
sg195
I0
sg41
I0
sg196
I0
sg198
I0
sg35
I0
sg46
I0
sg43
I0
sg34
I0
sg199
I0
sg177
I0
sg200
I0
sg42
I0
sg39
I0
sg48
I0
sg36
I0
sg155
I0
ssg13
(dp278
g17
I0
sg18
I0
sg49
I0
sg53
I0
sg8
I0
sg11
I0
sg33
I0
sg32
I0
sg26
I0
sg24
I0
sg45
I0
sg40
I0
sg22
I0
sg52
I0
sg50
I0
sg38
I0
sg19
I0
sg44
I0
sg16
I0
sg15
I0
sg29
I0
sg37
I0
sg28
I0
sg14
I0
sg10
I0
sg30
I0
sg9
I0
sg23
I0
sg31
I0
sg47
I0
sg41
I0
sg12
I0
sg51
I0
sg25
I0
sg54
I0
sg35
I0
sg46
I0
sg43
I0
sg34
I0
sg27
I0
sg36
I0
sg13
I16
sg42
I0
sg39
I0
sg48
I0
sg20
I0
sg21
I0
ssg42
(dp279
g222
I0
sg223
I0
sg49
I0
sg131
I0
sg132
I0
sg133
I0
sg134
I0
sg135
I0
sg136
I0
sg137
I0
sg123
I0
sg138
I0
sg50
I0
sg42
I0
sg139
I0
sg140
I0
sg78
I0
sg165
I0
sg141
I0
sg142
I0
sg143
I0
sg54
I0
sg144
I0
sg145
I0
sg146
I0
sg147
I0
sg44
I0
sg47
I0
sg41
I0
sg148
I0
sg149
I0
sg150
I0
sg46
I0
sg43
I0
sg90
I0
sg45
I0
sg151
I0
sg152
I0
sg153
I0
sg206
I0
sg48
I0
sg154
I0
sg155
I0
ssg39
(dp280
g157
I0
sg158
I0
sg99
I0
sg53
I0
sg101
I0
sg102
I0
sg159
I0
sg160
I0
sg161
I0
sg162
I0
sg40
I0
sg163
I0
sg52
I0
sg106
I0
sg59
I0
sg164
I0
sg109
I0
sg165
I0
sg166
I0
sg60
I0
sg167
I0
sg168
I0
sg169
I0
sg170
I0
sg171
I0
sg172
I0
sg47
I0
sg61
I0
sg173
I0
sg51
I0
sg174
I0
sg62
I0
sg63
I0
sg175
I0
sg64
I0
sg176
I0
sg65
I0
sg39
I0
sg108
I0
sg177
I0
ssg48
(dp281
g68
I0
sg69
I0
sg49
I0
sg53
I0
sg70
I0
sg71
I0
sg72
I0
sg73
I0
sg74
I0
sg75
I0
sg52
I0
sg50
I0
sg76
I0
sg48
I0
sg78
I0
sg79
I0
sg80
I0
sg81
I0
sg82
I0
sg83
I0
sg84
I0
sg85
I0
sg86
I0
sg87
I0
sg51
I0
sg88
I0
sg89
I0
sg90
I0
sg91
I0
sg92
I0
sg93
I0
sg94
I0
sg95
I0
sg77
I0
sg96
I0
ssg20
(dp282
g17
I0
sg18
I0
sg49
I0
sg53
I0
sg8
I0
sg11
I0
sg33
I0
sg32
I0
sg26
I0
sg24
I0
sg45
I0
sg40
I0
sg22
I0
sg52
I0
sg50
I0
sg59
I0
sg19
I0
sg44
I0
sg16
I0
sg15
I0
sg29
I0
sg60
I0
sg28
I0
sg14
I0
sg10
I0
sg30
I0
sg9
I0
sg23
I0
sg31
I0
sg47
I0
sg41
I0
sg12
I0
sg51
I0
sg25
I0
sg54
I0
sg62
I0
sg46
I0
sg43
I0
sg63
I0
sg27
I0
sg64
I0
sg13
I0
sg42
I0
sg39
I3
sg48
I0
sg20
I1
sg21
I4
ssg21
(dp283
g17
I0
sg18
I0
sg8
I0
sg11
I0
sg33
I0
sg32
I0
sg26
I0
sg24
I0
sg45
I0
sg123
I0
sg22
I0
sg42
I0
sg19
I0
sg44
I0
sg16
I0
sg15
I0
sg29
I0
sg142
I0
sg28
I0
sg14
I0
sg10
I0
sg30
I0
sg9
I0
sg23
I0
sg31
I0
sg124
I0
sg41
I0
sg12
I0
sg25
I0
sg54
I0
sg150
I0
sg46
I0
sg43
I0
sS'slice.n.06'
p284
I0
sg27
I0
sg151
I0
sg13
I0
sg153
I0
sg20
I0
sg21
I0
sssb.