ccopy_reg
_reconstructor
p0
(cutils.eval
ConfusionMatrix
p1
c__builtin__
object
p2
Ntp3
Rp4
(dp5
S'labels'
p6
(lp7
S'slice.v.03'
p8
aS'lemon.n.01'
p9
aS'bacon.n.01'
p10
aS'mushroom.n.05'
p11
aS'cheese.n.01'
p12
aS'catsup.n.01'
p13
aS'tomato.n.01'
p14
aS'tomato.n.02'
p15
aS'piece.n.08'
p16
aS'onion.n.03'
p17
aS'onion.n.01'
p18
aS'mustard.n.02'
p19
aS'mustard.n.01'
p20
aS'knife.n.01'
p21
aS'banana.n.02'
p22
aS'green_onion.n.01'
p23
aS'vegetable.n.01'
p24
aS'cabbage.n.01'
p25
aS'pizza.n.01'
p26
aS'meat.n.01'
p27
aS'cleaver.n.01'
p28
aS'olive.n.01'
p29
aS'olive.n.04'
p30
aS'zucchini.n.01'
p31
aS'zucchini.n.02'
p32
aS'flesh.n.01'
p33
aS'human_body.n.01'
p34
asS'instanceCount'
p35
I41
sS'matrix'
p36
(dp37
g11
(dp38
S'mushroom.n.05'
p39
I1
ssg12
(dp40
S'cheese.n.01'
p41
I1
ssg32
(dp42
g32
I0
ssg31
(dp43
g32
I1
ssg25
(dp44
S'cabbage.n.01'
p45
I1
ssg23
(dp46
S'green_onion.n.01'
p47
I1
ssg20
(dp48
g20
I0
ssg19
(dp49
g20
I1
ssg15
(dp50
g15
I0
ssg14
(dp51
g15
I1
sS'tomato.n.01'
p52
I1
ssg10
(dp53
S'bacon.n.01'
p54
I1
ssg28
(dp55
S'cleaver.n.01'
p56
I1
ssg27
(dp57
S'meat.n.01'
p58
I1
ssg8
(dp59
S'slice.v.03'
p60
I15
ssg29
(dp61
g30
I1
ssg21
(dp62
S'knife.n.01'
p63
I4
ssg22
(dp64
S'banana.n.02'
p65
I1
ssg30
(dp66
g30
I0
ssg34
(dp67
g34
I0
ssg13
(dp68
S'catsup.n.01'
p69
I1
ssg16
(dp70
S'piece.n.08'
p71
I2
ssg24
(dp72
S'vegetable.n.01'
p73
I1
ssg33
(dp74
g34
I1
ssg26
(dp75
S'pizza.n.01'
p76
I1
ssg9
(dp77
S'lemon.n.01'
p78
I2
ssg18
(dp79
g18
I0
ssg17
(dp80
g18
I1
sssb.