ccopy_reg
_reconstructor
p0
(cutils.eval
ConfusionMatrix
p1
c__builtin__
object
p2
Ntp3
Rp4
(dp5
S'labels'
p6
(lp7
S'slice.v.03'
p8
aS'mushroom.n.05'
p9
aS'cheese.n.01'
p10
aS'tomato.n.01'
p11
aS'piece.n.08'
p12
aS'onion.n.03'
p13
aS'onion.n.01'
p14
aS'mustard.n.02'
p15
aS'mustard.n.01'
p16
aS'knife.n.01'
p17
aS'banana.n.02'
p18
aS'green_onion.n.01'
p19
aS'vegetable.n.01'
p20
aS'cabbage.n.01'
p21
aS'slice.n.06'
p22
aS'pizza.n.01'
p23
aS'lemon.n.01'
p24
aS'meat.n.01'
p25
aS'cleaver.n.01'
p26
aS'olive.n.01'
p27
aS'olive.n.04'
p28
aS'zucchini.n.01'
p29
aS'zucchini.n.02'
p30
aS'flesh.n.01'
p31
aS'pulp.n.02'
p32
aS'potato.n.01'
p33
aS'egg.n.02'
p34
asS'instanceCount'
p35
I42
sS'matrix'
p36
(dp37
g9
(dp38
S'mushroom.n.05'
p39
I1
ssg10
(dp40
S'cheese.n.01'
p41
I1
ssg30
(dp42
g30
I0
ssg29
(dp43
g30
I1
ssg21
(dp44
S'cabbage.n.01'
p45
I1
ssg19
(dp46
S'green_onion.n.01'
p47
I1
ssg16
(dp48
g16
I0
ssg15
(dp49
g16
I1
ssg34
(dp50
S'egg.n.02'
p51
I1
ssg11
(dp52
S'tomato.n.01'
p53
I2
ssg25
(dp54
S'meat.n.01'
p55
I1
ssg33
(dp56
S'potato.n.01'
p57
I1
ssg26
(dp58
S'cleaver.n.01'
p59
I1
ssg8
(dp60
S'slice.v.03'
p61
I15
ssg27
(dp62
g28
I1
ssg17
(dp63
S'knife.n.01'
p64
I4
ssg18
(dp65
S'banana.n.02'
p66
I1
ssg28
(dp67
g28
I0
ssg12
(dp68
S'piece.n.08'
p69
I1
sg22
I3
ssg20
(dp70
S'vegetable.n.01'
p71
I1
ssg31
(dp72
g32
I1
ssg22
(dp73
g22
I0
ssg23
(dp74
S'pizza.n.01'
p75
I1
ssg32
(dp76
g32
I0
ssg24
(dp77
S'lemon.n.01'
p78
I1
ssg14
(dp79
g14
I0
ssg13
(dp80
g14
I1
sssb.