ccopy_reg
_reconstructor
p0
(cutils.eval
ConfusionMatrix
p1
c__builtin__
object
p2
Ntp3
Rp4
(dp5
S'labels'
p6
(lp7
S'slice.v.03'
p8
aS'cabbage.n.01'
p9
aS'piece.n.08'
p10
aS'slice.n.06'
p11
aS'pizza.n.01'
p12
aS'lemon.n.01'
p13
aS'meat.n.01'
p14
aS'cleaver.n.01'
p15
aS'olive.n.01'
p16
aS'zucchini.n.01'
p17
aS'zucchini.n.02'
p18
aS'flesh.n.01'
p19
aS'pulp.n.02'
p20
aS'tomato.n.01'
p21
aS'knife.n.01'
p22
aS'potato.n.01'
p23
aS'egg.n.02'
p24
aS'bread.n.01'
p25
aS'orange.n.01'
p26
aS'slice.v.02'
p27
aS'bacon.n.01'
p28
aS'bacon.n.02'
p29
aS'mushroom.n.05'
p30
aS'cheese.n.01'
p31
asS'instanceCount'
p32
I39
sS'matrix'
p33
(dp34
g30
(dp35
S'mushroom.n.05'
p36
I1
ssg31
(dp37
S'cheese.n.01'
p38
I1
ssg25
(dp39
S'bread.n.01'
p40
I1
ssg26
(dp41
S'orange.n.01'
p42
I1
ssg18
(dp43
g18
I0
ssg17
(dp44
g18
I1
ssg22
(dp45
S'knife.n.01'
p46
I2
ssg24
(dp47
S'egg.n.02'
p48
I1
ssg21
(dp49
S'tomato.n.01'
p50
I1
ssg29
(dp51
g29
I0
ssg28
(dp52
g29
I1
ssg14
(dp53
S'meat.n.01'
p54
I1
ssg23
(dp55
S'potato.n.01'
p56
I1
ssg15
(dp57
S'cleaver.n.01'
p58
I1
ssg27
(dp59
g27
I0
ssg8
(dp60
g27
I1
sS'slice.v.03'
p61
I15
ssg16
(dp62
S'olive.n.01'
p63
I1
ssg9
(dp64
S'cabbage.n.01'
p65
I1
ssg10
(dp66
g11
I4
ssg19
(dp67
g20
I1
ssg11
(dp68
g11
I0
ssg12
(dp69
S'pizza.n.01'
p70
I1
ssg13
(dp71
S'lemon.n.01'
p72
I2
ssg20
(dp73
g20
I0
sssb.