ccopy_reg
_reconstructor
p0
(cutils.eval
ConfusionMatrix
p1
c__builtin__
object
p2
Ntp3
Rp4
(dp5
S'labels'
p6
(lp7
S'AC_FILL_INGREDIENT_L'
p8
aS'AC_FILL_INGREDIENT_ML'
p9
asS'instanceCount'
p10
I10
sS'matrix'
p11
(dp12
g9
(dp13
g9
I5
ssg8
(dp14
g8
I5
sssb.