ccopy_reg
_reconstructor
p0
(cutils.eval
ConfusionMatrix
p1
c__builtin__
object
p2
Ntp3
Rp4
(dp5
S'labels'
p6
(lp7
S'opening.n.01'
p8
aS'gap.n.03'
p9
aS'fill.v.09'
p10
aS'fill.v.01'
p11
aS'batter.n.02'
p12
aS'bottle.n.01'
p13
aS'fruit_juice.n.01'
p14
asS'instanceCount'
p15
I6
sS'matrix'
p16
(dp17
g14
(dp18
S'fruit_juice.n.01'
p19
I1
ssg9
(dp20
g9
I0
ssg10
(dp21
g11
I1
ssg13
(dp22
S'bottle.n.01'
p23
I1
ssg11
(dp24
g11
I1
ssg12
(dp25
S'batter.n.02'
p26
I1
ssg8
(dp27
g9
I1
sssb.