ccopy_reg
_reconstructor
p0
(cutils.eval
ConfusionMatrix
p1
c__builtin__
object
p2
Ntp3
Rp4
(dp5
S'labels'
p6
(lp7
S'fill.v.01'
p8
aS'measuring_cup.n.01'
p9
aS'meal.n.03'
p10
aS'teapot.n.01'
p11
aS'water.n.06'
p12
asS'instanceCount'
p13
I6
sS'matrix'
p14
(dp15
g12
(dp16
S'water.n.06'
p17
I1
ssg9
(dp18
S'measuring_cup.n.01'
p19
I1
ssg10
(dp20
S'meal.n.03'
p21
I1
ssg11
(dp22
S'teapot.n.01'
p23
I1
ssg8
(dp24
S'fill.v.01'
p25
I2
sssb.