ccopy_reg
_reconstructor
p0
(cutils.eval
ConfusionMatrix
p1
c__builtin__
object
p2
Ntp3
Rp4
(dp5
S'labels'
p6
(lp7
S'fill.v.01'
p8
aS'glass.n.02'
p9
aS'milk.n.01'
p10
aS'pan.n.03'
p11
aS'water.n.06'
p12
asS'instanceCount'
p13
I6
sS'matrix'
p14
(dp15
g12
(dp16
S'water.n.06'
p17
I1
ssg11
(dp18
S'pan.n.03'
p19
I1
ssg10
(dp20
S'milk.n.01'
p21
I1
ssg9
(dp22
S'glass.n.02'
p23
I1
ssg8
(dp24
S'fill.v.01'
p25
I2
sssb.