ccopy_reg
_reconstructor
p0
(cutils.eval
ConfusionMatrix
p1
c__builtin__
object
p2
Ntp3
Rp4
(dp5
S'labels'
p6
(lp7
S'ice.n.01'
p8
aS'ice.n.05'
p9
aS'fill.v.01'
p10
aS'bowl.n.01'
p11
aS'jar.n.01'
p12
aS'gravy.n.01'
p13
aS'gravy.n.02'
p14
asS'instanceCount'
p15
I6
sS'matrix'
p16
(dp17
g13
(dp18
g14
I1
ssg14
(dp19
g14
I0
ssg10
(dp20
S'fill.v.01'
p21
I2
ssg8
(dp22
g9
I1
ssg11
(dp23
S'bowl.n.01'
p24
I1
ssg9
(dp25
g9
I0
ssg12
(dp26
S'jar.n.01'
p27
I1
sssb.