ccopy_reg
_reconstructor
p0
(cutils.eval
ConfusionMatrix
p1
c__builtin__
object
p2
Ntp3
Rp4
(dp5
S'labels'
p6
(lp7
S'cut.v.01'
p8
aS'flesh.n.01'
p9
aS'human_body.n.01'
p10
aS'fork.n.01'
p11
aS'fork.n.04'
p12
aS'cake.n.03'
p13
aS'knife.n.01'
p14
aS'banana.n.02'
p15
aS'lemon.n.01'
p16
asS'instanceCount'
p17
I10
sS'matrix'
p18
(dp19
g8
(dp20
S'cut.v.01'
p21
I4
ssg14
(dp22
S'knife.n.01'
p23
I1
ssg15
(dp24
S'banana.n.02'
p25
I1
ssg9
(dp26
g10
I1
ssg12
(dp27
g12
I0
ssg11
(dp28
g12
I1
ssg10
(dp29
g10
I0
ssg13
(dp30
S'cake.n.03'
p31
I1
ssg16
(dp32
S'lemon.n.01'
p33
I1
sssb.