ccopy_reg
_reconstructor
p0
(cutils.eval
ConfusionMatrix
p1
c__builtin__
object
p2
Ntp3
Rp4
(dp5
S'labels'
p6
(lp7
S'cut.v.01'
p8
aS'meat.n.01'
p9
aS'cleaver.n.01'
p10
aS'cheese.n.01'
p11
aS'flesh.n.01'
p12
aS'pulp.n.02'
p13
aS'fork.n.01'
p14
aS'fork.n.04'
p15
aS'cake.n.03'
p16
asS'instanceCount'
p17
I10
sS'matrix'
p18
(dp19
g11
(dp20
S'cheese.n.01'
p21
I1
ssg8
(dp22
S'cut.v.01'
p23
I4
ssg12
(dp24
g13
I1
ssg15
(dp25
g15
I0
ssg14
(dp26
g15
I1
ssg16
(dp27
S'cake.n.03'
p28
I1
ssg9
(dp29
S'meat.n.01'
p30
I1
ssg13
(dp31
g13
I0
ssg10
(dp32
S'cleaver.n.01'
p33
I1
sssb.