ccopy_reg
_reconstructor
p0
(cutils.eval
ConfusionMatrix
p1
c__builtin__
object
p2
Ntp3
Rp4
(dp5
S'labels'
p6
(lp7
S'olive.n.01'
p8
aS'olive.n.04'
p9
aS'cut.v.01'
p10
aS'mushroom.n.05'
p11
aS'vegetable.n.01'
p12
aS'knife.n.01'
p13
aS'lemon.n.01'
p14
asS'instanceCount'
p15
I9
sS'matrix'
p16
(dp17
g11
(dp18
S'mushroom.n.05'
p19
I1
ssg8
(dp20
g9
I1
ssg10
(dp21
S'cut.v.01'
p22
I4
ssg13
(dp23
S'knife.n.01'
p24
I1
ssg9
(dp25
g9
I0
ssg12
(dp26
S'vegetable.n.01'
p27
I1
ssg14
(dp28
S'lemon.n.01'
p29
I1
sssb.