ccopy_reg
_reconstructor
p0
(cutils.eval
ConfusionMatrix
p1
c__builtin__
object
p2
Ntp3
Rp4
(dp5
S'labels'
p6
(lp7
S'egg.n.02'
p8
aS'cut.v.01'
p9
aS'piece.n.08'
p10
aS'slice.n.06'
p11
aS'orange.n.01'
p12
aS'tomato.n.01'
p13
aS'knife.n.01'
p14
aS'bacon.n.01'
p15
asS'instanceCount'
p16
I11
sS'matrix'
p17
(dp18
g9
(dp19
S'cut.v.01'
p20
I4
ssg14
(dp21
S'knife.n.01'
p22
I1
ssg8
(dp23
S'egg.n.02'
p24
I1
ssg13
(dp25
S'tomato.n.01'
p26
I1
ssg11
(dp27
g11
I0
ssg15
(dp28
S'bacon.n.01'
p29
I1
ssg12
(dp30
S'orange.n.01'
p31
I1
ssg10
(dp32
g11
I2
sssb.