ccopy_reg
_reconstructor
p0
(cutils.eval
ConfusionMatrix
p1
c__builtin__
object
p2
Ntp3
Rp4
(dp5
S'labels'
p6
(lp7
S'piece.n.08'
p8
aS'slice.n.06'
p9
aS'potato.n.01'
p10
aS'cut.v.01'
p11
aS'pizza.n.01'
p12
aS'egg.n.02'
p13
aS'orange.n.01'
p14
aS'tomato.n.01'
p15
aS'knife.n.01'
p16
aS'bacon.n.01'
p17
aS'vegetable.n.01'
p18
aS'lemon.n.01'
p19
aS'meat.n.01'
p20
aS'cleaver.n.01'
p21
aS'cheese.n.01'
p22
aS'cabbage.n.01'
p23
aS'zucchini.n.01'
p24
aS'zucchini.n.02'
p25
aS'olive.n.01'
p26
aS'olive.n.04'
p27
aS'mushroom.n.05'
p28
aS'flesh.n.01'
p29
aS'pulp.n.02'
p30
aS'fork.n.01'
p31
aS'fork.n.04'
p32
aS'cake.n.03'
p33
aS'human_body.n.01'
p34
aS'banana.n.02'
p35
aS'bread.n.01'
p36
aS'green_onion.n.01'
p37
asS'instanceCount'
p38
I102
sS'matrix'
p39
(dp40
g28
(dp41
g28
I2
sg26
I0
sS'cut.v.01'
p42
I0
sS'knife.n.01'
p43
I0
sg27
I0
sS'tomato.n.01'
p44
I0
sS'vegetable.n.01'
p45
I0
sS'bacon.n.01'
p46
I0
sS'lemon.n.01'
p47
I0
ssg22
(dp48
g22
I2
sg18
I0
sS'cut.v.01'
p49
I0
sS'knife.n.01'
p50
I0
sg29
I0
sg32
I0
sg31
I0
sg33
I0
sg20
I0
sg19
I0
sg30
I0
sg21
I0
ssg36
(dp51
S'cut.v.01'
p52
I0
sS'knife.n.01'
p53
I0
sS'banana.n.02'
p54
I0
sg36
I2
sS'zucchini.n.02'
p55
I0
sS'lemon.n.01'
p56
I0
sS'zucchini.n.01'
p57
I0
sS'cabbage.n.01'
p58
I0
sg37
I0
ssg14
(dp59
g11
I0
sg16
I0
sg13
I0
sg15
I0
sg9
I0
sg17
I0
sg12
I0
sg14
I2
sg10
I0
sg8
I0
ssg25
(dp60
S'cut.v.01'
p61
I0
sg23
I0
sS'potato.n.01'
p62
I0
sS'slice.n.06'
p63
I0
sS'pizza.n.01'
p64
I0
sg25
I0
sg24
I0
sS'knife.n.01'
p65
I0
sS'piece.n.08'
p66
I0
sS'bread.n.01'
p67
I0
sS'green_onion.n.01'
p68
I0
ssg24
(dp69
g61
I0
sg23
I0
sg62
I0
sg63
I0
sg64
I0
sg25
I2
sg24
I0
sg65
I0
sg66
I0
sg67
I0
sg68
I0
ssg23
(dp70
g61
I0
sg23
I2
sg62
I0
sg63
I0
sg64
I0
sg25
I0
sg24
I0
sg65
I0
sg66
I0
sg67
I0
sg68
I0
ssg37
(dp71
g52
I0
sg53
I0
sg54
I0
sg36
I0
sg55
I0
sg56
I0
sg57
I0
sg58
I0
sg37
I2
ssg11
(dp72
g28
I0
sg22
I0
sg36
I0
sg14
I0
sg25
I0
sg24
I0
sg23
I0
sg37
I0
sg11
I40
sg13
I0
sg15
I0
sg17
I0
sg20
I0
sg10
I0
sg21
I0
sg26
I0
sg16
I0
sg35
I0
sg27
I0
sg32
I0
sg31
I0
sg34
I0
sg8
I0
sg18
I0
sg29
I0
sg9
I0
sg12
I0
sg33
I0
sg19
I0
sg30
I0
ssg13
(dp73
g11
I0
sg16
I0
sg13
I2
sg15
I0
sg9
I0
sg17
I0
sg12
I0
sg14
I0
sg10
I0
sg8
I0
ssg15
(dp74
S'mushroom.n.05'
p75
I0
sS'olive.n.01'
p76
I0
sS'cut.v.01'
p77
I0
sg16
I0
sS'olive.n.04'
p78
I0
sS'egg.n.02'
p79
I0
sg15
I2
sS'slice.n.06'
p80
I0
sg17
I0
sS'orange.n.01'
p81
I0
sS'piece.n.08'
p82
I0
ssg17
(dp83
g75
I0
sg76
I0
sg77
I0
sg16
I0
sg78
I0
sg79
I0
sg15
I0
sg80
I0
sg17
I2
sg81
I0
sg82
I0
ssg20
(dp84
g22
I0
sg18
I0
sg49
I0
sg50
I0
sg29
I0
sg32
I0
sg31
I0
sg33
I0
sg20
I2
sg19
I0
sg30
I0
sg21
I0
ssg10
(dp85
g11
I0
sg23
I0
sg13
I0
sg24
I0
sg9
I0
sg12
I0
sg14
I0
sg25
I0
sg10
I2
sg8
I0
ssg21
(dp86
g22
I0
sg18
I0
sg49
I0
sg50
I0
sg29
I0
sg32
I0
sg31
I0
sg33
I0
sg21
I2
sg19
I0
sg30
I0
sg20
I0
ssg26
(dp87
g28
I0
sg26
I0
sg42
I0
sg43
I0
sg27
I2
sg44
I0
sg45
I0
sg46
I0
sg47
I0
ssg16
(dp88
g28
I0
sg22
I0
sg36
I0
sg81
I0
sg55
I0
sg57
I0
sg58
I0
sg37
I0
sg77
I0
sg79
I0
sg15
I0
sg17
I0
sg20
I0
sg21
I0
sg26
I0
sg16
I10
sg35
I0
sg27
I0
sS'fork.n.04'
p89
I0
sS'fork.n.01'
p90
I0
sg34
I0
sg82
I0
sg18
I0
sS'flesh.n.01'
p91
I0
sg80
I0
sS'cake.n.03'
p92
I0
sg19
I0
ssg35
(dp93
S'cut.v.01'
p94
I0
sS'knife.n.01'
p95
I0
sg35
I2
sg91
I0
sg89
I0
sg90
I0
sg36
I0
sg34
I0
sg92
I0
sS'lemon.n.01'
p96
I0
sg37
I0
ssg27
(dp97
g28
I0
sg26
I0
sg42
I0
sg43
I0
sg27
I0
sg44
I0
sg45
I0
sg46
I0
sg47
I0
ssg32
(dp98
S'cheese.n.01'
p99
I0
sS'cut.v.01'
p100
I0
sg95
I0
sg35
I0
sg29
I0
sg32
I0
sg31
I0
sg34
I0
sg33
I0
sS'meat.n.01'
p101
I0
sg96
I0
sg30
I0
sS'cleaver.n.01'
p102
I0
ssg31
(dp103
g99
I0
sg100
I0
sg95
I0
sg35
I0
sg29
I0
sg32
I2
sg31
I0
sg34
I0
sg33
I0
sg101
I0
sg96
I0
sg30
I0
sg102
I0
ssg34
(dp104
g94
I0
sg95
I0
sg35
I0
sg91
I0
sg89
I0
sg90
I0
sg34
I0
sg92
I0
sg96
I0
ssg8
(dp105
g11
I0
sg16
I0
sg13
I0
sg15
I0
sg24
I0
sg9
I8
sg17
I0
sg12
I0
sg14
I0
sg25
I0
sg10
I0
sg23
I0
sg8
I0
ssg18
(dp106
g28
I0
sg22
I0
sg18
I2
sg49
I0
sg50
I0
sg27
I0
sg26
I0
sg20
I0
sg19
I0
sg21
I0
ssg29
(dp107
g99
I0
sg100
I0
sg95
I0
sg35
I0
sg29
I0
sg32
I0
sg31
I0
sg34
I1
sg33
I0
sg102
I0
sg96
I0
sg30
I1
sg101
I0
ssg9
(dp108
g11
I0
sg16
I0
sg13
I0
sg15
I0
sg24
I0
sg9
I0
sg17
I0
sg12
I0
sg14
I0
sg25
I0
sg10
I0
sg23
I0
sg8
I0
ssg12
(dp109
g11
I0
sg23
I0
sg13
I0
sg24
I0
sg9
I0
sg12
I2
sg14
I0
sg25
I0
sg10
I0
sg8
I0
ssg33
(dp110
g99
I0
sg100
I0
sg95
I0
sg35
I0
sg29
I0
sg32
I0
sg31
I0
sg34
I0
sg33
I2
sg101
I0
sg96
I0
sg30
I0
sg102
I0
ssg19
(dp111
g28
I0
sg22
I0
sg18
I0
sg49
I0
sg50
I0
sg35
I0
sg27
I0
sg91
I0
sg26
I0
sg90
I0
sg36
I0
sg34
I0
sg89
I0
sg92
I0
sg20
I0
sg19
I4
sg37
I0
sg21
I0
ssg30
(dp112
g99
I0
sg100
I0
sg29
I0
sg32
I0
sg31
I0
sg33
I0
sg101
I0
sg30
I0
sg102
I0
sssb.