ccopy_reg
_reconstructor
p0
(cutils.eval
ConfusionMatrix
p1
c__builtin__
object
p2
Ntp3
Rp4
(dp5
S'labels'
p6
(lp7
S'cut.v.01'
p8
aS'knife.n.01'
p9
aS'banana.n.02'
p10
aS'lemon.n.01'
p11
aS'bread.n.01'
p12
aS'green_onion.n.01'
p13
asS'instanceCount'
p14
I11
sS'matrix'
p15
(dp16
g8
(dp17
S'cut.v.01'
p18
I4
ssg9
(dp19
S'knife.n.01'
p20
I3
ssg10
(dp21
S'banana.n.02'
p22
I1
ssg12
(dp23
S'bread.n.01'
p24
I1
ssg11
(dp25
S'lemon.n.01'
p26
I1
ssg13
(dp27
S'green_onion.n.01'
p28
I1
sssb.