ccopy_reg
_reconstructor
p0
(cutils.eval
ConfusionMatrix
p1
c__builtin__
object
p2
Ntp3
Rp4
(dp5
S'labels'
p6
(lp7
S'cabbage.n.01'
p8
aS'cut.v.01'
p9
aS'zucchini.n.01'
p10
aS'zucchini.n.02'
p11
aS'piece.n.08'
p12
aS'slice.n.06'
p13
aS'potato.n.01'
p14
aS'pizza.n.01'
p15
asS'instanceCount'
p16
I10
sS'matrix'
p17
(dp18
g9
(dp19
S'cut.v.01'
p20
I4
ssg8
(dp21
S'cabbage.n.01'
p22
I1
ssg14
(dp23
S'potato.n.01'
p24
I1
ssg13
(dp25
g13
I0
ssg15
(dp26
S'pizza.n.01'
p27
I1
ssg11
(dp28
g11
I0
ssg10
(dp29
g11
I1
ssg12
(dp30
g13
I2
sssb.