ccopy_reg
_reconstructor
p0
(cutils.eval
ConfusionMatrix
p1
c__builtin__
object
p2
Ntp3
Rp4
(dp5
S'labels'
p6
(lp7
S'cut.v.01'
p8
aS'bread.n.01'
p9
aS'knife.n.01'
p10
aS'green_onion.n.01'
p11
aS'cabbage.n.01'
p12
aS'zucchini.n.01'
p13
aS'zucchini.n.02'
p14
asS'instanceCount'
p15
I10
sS'matrix'
p16
(dp17
g8
(dp18
S'cut.v.01'
p19
I4
ssg12
(dp20
S'cabbage.n.01'
p21
I1
ssg9
(dp22
S'bread.n.01'
p23
I1
ssg14
(dp24
g14
I0
ssg13
(dp25
g14
I1
ssg10
(dp26
S'knife.n.01'
p27
I2
ssg11
(dp28
S'green_onion.n.01'
p29
I1
sssb.