ccopy_reg
_reconstructor
p0
(cutils.eval
ConfusionMatrix
p1
c__builtin__
object
p2
Ntp3
Rp4
(dp5
S'labels'
p6
(lp7
S'piece.n.08'
p8
aS'slice.n.06'
p9
aS'potato.n.01'
p10
aS'cut.v.01'
p11
aS'pizza.n.01'
p12
aS'egg.n.02'
p13
aS'orange.n.01'
p14
asS'instanceCount'
p15
I12
sS'matrix'
p16
(dp17
g11
(dp18
S'cut.v.01'
p19
I4
ssg13
(dp20
S'egg.n.02'
p21
I1
ssg9
(dp22
g9
I0
ssg12
(dp23
S'pizza.n.01'
p24
I1
ssg14
(dp25
S'orange.n.01'
p26
I1
ssg10
(dp27
S'potato.n.01'
p28
I1
ssg8
(dp29
g9
I4
sssb.