ccopy_reg
_reconstructor
p0
(cutils.eval
ConfusionMatrix
p1
c__builtin__
object
p2
Ntp3
Rp4
(dp5
S'labels'
p6
(lp7
S'sauce.n.01'
p8
aS'add.v.01'
p9
aS'cream.n.02'
p10
aS'cream.n.03'
p11
aS'pot.n.01'
p12
aS'pot.n.09'
p13
aS'bean.n.01'
p14
aS'bean.n.02'
p15
aS'mixing_bowl.n.01'
p16
aS'butter.n.01'
p17
aS'sugar.n.01'
p18
aS'french_fries.n.01'
p19
aS'steak.n.01'
p20
aS'onion.n.03'
p21
aS'vegetable.n.01'
p22
aS'egg.n.02'
p23
aS'rib.n.03'
p24
aS'pan.n.03'
p25
aS'vanilla.n.02'
p26
aS'milk.n.01'
p27
aS'milk.n.04'
p28
aS'water.n.06'
p29
aS'water_system.n.02'
p30
aS'asparagus.n.02'
p31
aS'asparagus.n.01'
p32
aS'salad.n.01'
p33
aS'corn.n.03'
p34
aS'dish.n.02'
p35
aS'dish.n.01'
p36
aS'ingredient.n.03'
p37
aS'concoction.n.01'
p38
aS'mixture.n.01'
p39
aS'salt.n.02'
p40
aS'meat.n.01'
p41
aS'kernel.n.01'
p42
asS'instanceCount'
p43
I47
sS'matrix'
p44
(dp45
g42
(dp46
g42
I0
ssg34
(dp47
S'corn.n.03'
p48
I1
ssg16
(dp49
S'mixing_bowl.n.01'
p50
I1
ssg35
(dp51
g36
I1
ssg36
(dp52
g36
I0
ssg28
(dp53
g28
I0
ssg9
(dp54
S'add.v.01'
p55
I16
ssg27
(dp56
g28
I1
ssg25
(dp57
S'pan.n.03'
p58
I3
ssg13
(dp59
g13
I0
ssg23
(dp60
S'egg.n.02'
p61
I1
ssg17
(dp62
S'butter.n.01'
p63
I3
ssg12
(dp64
g13
I1
ssg31
(dp65
g32
I1
ssg32
(dp66
g32
I0
ssg41
(dp67
g42
I1
ssg26
(dp68
S'vanilla.n.02'
p69
I2
ssg14
(dp70
g15
I1
ssg38
(dp71
g39
I1
ssg15
(dp72
g15
I0
ssg8
(dp73
S'sauce.n.01'
p74
I1
ssg40
(dp75
S'salt.n.02'
p76
I1
ssg24
(dp77
S'rib.n.03'
p78
I1
ssg39
(dp79
g39
I0
ssg10
(dp80
g11
I2
ssg11
(dp81
g11
I0
ssg37
(dp82
S'ingredient.n.03'
p83
I1
ssg20
(dp84
S'steak.n.01'
p85
I1
ssg22
(dp86
S'vegetable.n.01'
p87
I1
ssg30
(dp88
g30
I0
ssg29
(dp89
g30
I1
ssg19
(dp90
S'french_fries.n.01'
p91
I1
ssg33
(dp92
S'salad.n.01'
p93
I1
ssg21
(dp94
S'onion.n.03'
p95
I1
ssg18
(dp96
S'sugar.n.01'
p97
I1
sssb.