ccopy_reg
_reconstructor
p0
(cutils.eval
ConfusionMatrix
p1
c__builtin__
object
p2
Ntp3
Rp4
(dp5
S'labels'
p6
(lp7
S'add.v.01'
p8
aS'ingredient.n.03'
p9
aS'concoction.n.01'
p10
aS'mix.n.03'
p11
aS'cream.n.02'
p12
aS'cream.n.03'
p13
aS'salt.n.02'
p14
aS'meat.n.01'
p15
aS'dressing.n.01'
p16
aS'dressing.n.04'
p17
aS'salad.n.01'
p18
aS'egg.n.02'
p19
aS'mixing_bowl.n.01'
p20
aS'apple.n.01'
p21
aS'sauce.n.01'
p22
aS'pot.n.01'
p23
aS'pot.n.09'
p24
aS'bean.n.01'
p25
aS'butter.n.01'
p26
aS'sugar.n.01'
p27
aS'french_fries.n.01'
p28
aS'steak.n.01'
p29
aS'onion.n.03'
p30
aS'vegetable.n.01'
p31
aS'rib.n.03'
p32
aS'pan.n.03'
p33
aS'vanilla.n.02'
p34
asS'instanceCount'
p35
I45
sS'matrix'
p36
(dp37
g20
(dp38
S'mixing_bowl.n.01'
p39
I2
ssg21
(dp40
S'apple.n.01'
p41
I1
ssg8
(dp42
S'add.v.01'
p43
I16
ssg33
(dp44
S'pan.n.03'
p45
I2
ssg24
(dp46
g24
I0
ssg19
(dp47
S'egg.n.02'
p48
I2
ssg26
(dp49
S'butter.n.01'
p50
I3
ssg23
(dp51
g24
I1
ssg15
(dp52
S'meat.n.01'
p53
I1
ssg34
(dp54
S'vanilla.n.02'
p55
I1
ssg25
(dp56
S'bean.n.01'
p57
I1
ssg10
(dp58
g11
I1
ssg22
(dp59
S'sauce.n.01'
p60
I1
ssg14
(dp61
S'salt.n.02'
p62
I1
ssg32
(dp63
S'rib.n.03'
p64
I1
ssg12
(dp65
g13
I2
ssg13
(dp66
g13
I0
ssg9
(dp67
S'ingredient.n.03'
p68
I2
ssg29
(dp69
S'steak.n.01'
p70
I1
ssg31
(dp71
S'vegetable.n.01'
p72
I1
ssg17
(dp73
g17
I0
ssg16
(dp74
g17
I1
ssg28
(dp75
S'french_fries.n.01'
p76
I1
ssg11
(dp77
g11
I0
ssg18
(dp78
S'salad.n.01'
p79
I1
ssg30
(dp80
S'onion.n.03'
p81
I1
ssg27
(dp82
S'sugar.n.01'
p83
I1
sssb.