ccopy_reg
_reconstructor
p0
(cutils.eval
ConfusionMatrix
p1
c__builtin__
object
p2
Ntp3
Rp4
(dp5
S'labels'
p6
(lp7
S'pan.n.03'
p8
aS'add.v.01'
p9
aS'butter.n.01'
p10
aS'vanilla.n.02'
p11
aS'milk.n.01'
p12
aS'milk.n.04'
p13
aS'water.n.06'
p14
aS'asparagus.n.02'
p15
aS'salad.n.01'
p16
aS'corn.n.03'
p17
aS'dish.n.02'
p18
aS'ingredient.n.03'
p19
aS'concoction.n.01'
p20
aS'cream.n.02'
p21
aS'salt.n.02'
p22
aS'meat.n.01'
p23
aS'dressing.n.01'
p24
aS'stuffing.n.01'
p25
aS'flour.n.01'
p26
aS'egg.n.02'
p27
aS'mixing_bowl.n.01'
p28
aS'apple.n.01'
p29
aS'sauce.n.01'
p30
aS'pot.n.01'
p31
aS'pot.n.09'
p32
aS'bean.n.01'
p33
aS'sugar.n.01'
p34
aS'french_fries.n.01'
p35
aS'steak.n.01'
p36
aS'water_system.n.02'
p37
aS'asparagus.n.01'
p38
aS'dish.n.01'
p39
aS'cream.n.03'
p40
aS'dressing.n.04'
p41
aS'pot.n.04'
p42
aS'onion.n.03'
p43
aS'vegetable.n.01'
p44
aS'bean.n.02'
p45
aS'boodle.n.01'
p46
aS'rib.n.03'
p47
aS'mixture.n.01'
p48
aS'mix.n.03'
p49
aS'vanilla.n.03'
p50
aS'kernel.n.01'
p51
aS'pan.n.01'
p52
asS'instanceCount'
p53
I457
sS'matrix'
p54
(dp55
g51
(dp56
g51
I0
sS'corn.n.03'
p57
I0
sS'mixing_bowl.n.01'
p58
I0
sS'dish.n.02'
p59
I0
sS'dish.n.01'
p60
I0
sS'milk.n.04'
p61
I0
sS'apple.n.01'
p62
I0
sS'add.v.01'
p63
I0
sS'milk.n.01'
p64
I0
sS'pan.n.03'
p65
I0
sS'pot.n.09'
p66
I0
sS'egg.n.02'
p67
I0
sS'butter.n.01'
p68
I0
sS'pot.n.01'
p69
I0
sS'asparagus.n.02'
p70
I0
sS'asparagus.n.01'
p71
I0
sS'pot.n.04'
p72
I0
sS'meat.n.01'
p73
I0
sS'vanilla.n.03'
p74
I0
sS'vanilla.n.02'
p75
I0
sS'bean.n.01'
p76
I0
sS'concoction.n.01'
p77
I0
sS'bean.n.02'
p78
I0
sS'sauce.n.01'
p79
I0
sS'salt.n.02'
p80
I0
sS'rib.n.03'
p81
I0
sS'mixture.n.01'
p82
I0
sS'cream.n.02'
p83
I0
sS'cream.n.03'
p84
I0
sS'ingredient.n.03'
p85
I0
sS'steak.n.01'
p86
I0
sS'vegetable.n.01'
p87
I0
sS'dressing.n.04'
p88
I0
sS'water_system.n.02'
p89
I0
sS'water.n.06'
p90
I0
sS'dressing.n.01'
p91
I0
sS'french_fries.n.01'
p92
I0
sS'mix.n.03'
p93
I0
sS'salad.n.01'
p94
I0
sS'onion.n.03'
p95
I0
sS'sugar.n.01'
p96
I0
ssg17
(dp97
g51
I0
sg17
I8
sg28
I0
sg93
I0
sg18
I0
sg39
I0
sg13
I0
sg29
I0
sg9
I0
sg12
I0
sg52
I0
sg8
I0
sg32
I0
sg26
I0
sg27
I0
sg10
I0
sg31
I0
sg15
I0
sg38
I0
sg23
I0
sg50
I0
sg11
I0
sg33
I0
sg20
I0
sS'bean.n.02'
p98
I0
sg30
I0
sg22
I0
sS'rib.n.03'
p99
I0
sg48
I0
sg21
I0
sg19
I0
sg40
I0
sg36
I0
sg25
I0
sS'boodle.n.01'
p100
I0
sg44
I0
sg41
I0
sg37
I0
sg14
I0
sg24
I0
sg35
I0
sg42
I0
sg16
I0
sg43
I0
sg34
I0
ssg28
(dp101
g51
I0
sg17
I0
sg28
I16
sg49
I0
sg18
I0
sg39
I0
sg13
I0
sg29
I0
sg9
I0
sg12
I0
sg52
I0
sg8
I0
sg32
I0
sg26
I0
sg27
I0
sg10
I0
sg31
I0
sg15
I0
sg38
I0
sg23
I0
sg50
I0
sg11
I0
sg33
I0
sg20
I0
sg45
I0
sg30
I0
sg22
I0
sg47
I0
sg48
I0
sg21
I0
sg19
I0
sg40
I0
sg36
I0
sg25
I0
sg46
I0
sg44
I0
sg41
I0
sg37
I0
sg14
I0
sg24
I0
sg35
I0
sg42
I0
sg16
I0
sg43
I0
sg34
I0
ssg49
(dp102
S'kernel.n.01'
p103
I0
sS'corn.n.03'
p104
I0
sS'mixing_bowl.n.01'
p105
I0
sS'dish.n.02'
p106
I0
sS'dish.n.01'
p107
I0
sS'apple.n.01'
p108
I0
sS'add.v.01'
p109
I0
sS'milk.n.01'
p110
I0
sS'pan.n.03'
p111
I0
sS'pot.n.09'
p112
I0
sS'egg.n.02'
p113
I0
sS'butter.n.01'
p114
I0
sS'pot.n.01'
p115
I0
sS'asparagus.n.02'
p116
I0
sS'asparagus.n.01'
p117
I0
sg72
I0
sS'meat.n.01'
p118
I0
sg74
I0
sS'vanilla.n.02'
p119
I0
sS'bean.n.01'
p120
I0
sS'concoction.n.01'
p121
I0
sS'sauce.n.01'
p122
I0
sS'salt.n.02'
p123
I0
sS'rib.n.03'
p124
I0
sS'cream.n.02'
p125
I0
sS'cream.n.03'
p126
I0
sS'ingredient.n.03'
p127
I0
sS'steak.n.01'
p128
I0
sS'vegetable.n.01'
p129
I0
sS'dressing.n.04'
p130
I0
sS'water_system.n.02'
p131
I0
sS'water.n.06'
p132
I0
sS'dressing.n.01'
p133
I0
sS'french_fries.n.01'
p134
I0
sg49
I0
sS'salad.n.01'
p135
I0
sS'onion.n.03'
p136
I0
sS'sugar.n.01'
p137
I0
ssg18
(dp138
g51
I0
sg17
I0
sg28
I0
sg93
I0
sg18
I1
sg39
I7
sg13
I0
sg29
I0
sg9
I0
sg12
I0
sg52
I0
sg8
I0
sg32
I0
sg26
I0
sg27
I0
sg10
I0
sg31
I0
sg15
I0
sg38
I0
sg23
I0
sg50
I0
sg11
I0
sg33
I0
sg20
I0
sg98
I0
sg30
I0
sg22
I0
sg99
I0
sg48
I0
sg21
I0
sg19
I0
sg40
I0
sg36
I0
sg25
I0
sg100
I0
sg44
I0
sg41
I0
sg37
I0
sg14
I0
sg24
I0
sg35
I0
sg42
I0
sg16
I0
sg43
I0
sg34
I0
ssg39
(dp139
g51
I0
sS'corn.n.03'
p140
I0
sS'mixing_bowl.n.01'
p141
I0
sg93
I0
sS'dish.n.02'
p142
I0
sg39
I0
sS'milk.n.04'
p143
I0
sS'apple.n.01'
p144
I0
sS'add.v.01'
p145
I0
sS'milk.n.01'
p146
I0
sg52
I0
sS'pan.n.03'
p147
I0
sS'pot.n.09'
p148
I0
sS'flour.n.01'
p149
I0
sS'egg.n.02'
p150
I0
sS'butter.n.01'
p151
I0
sS'pot.n.01'
p152
I0
sS'asparagus.n.02'
p153
I0
sg38
I0
sS'meat.n.01'
p154
I0
sg50
I0
sS'vanilla.n.02'
p155
I0
sS'bean.n.01'
p156
I0
sS'concoction.n.01'
p157
I0
sg98
I0
sS'sauce.n.01'
p158
I0
sS'salt.n.02'
p159
I0
sg99
I0
sg48
I0
sS'cream.n.02'
p160
I0
sg40
I0
sS'ingredient.n.03'
p161
I0
sS'steak.n.01'
p162
I0
sg100
I0
sg44
I0
sg41
I0
sg37
I0
sS'water.n.06'
p163
I0
sS'dressing.n.01'
p164
I0
sS'french_fries.n.01'
p165
I0
sg42
I0
sS'salad.n.01'
p166
I0
sg43
I0
sS'sugar.n.01'
p167
I0
ssg13
(dp168
g51
I0
sg17
I0
sg28
I0
sg18
I0
sg39
I0
sg13
I0
sg29
I0
sg9
I0
sg12
I0
sg52
I0
sg8
I0
sg32
I0
sg26
I0
sg27
I0
sg10
I0
sg31
I0
sg15
I0
sg38
I0
sg23
I0
sg50
I0
sg11
I0
sg33
I0
sg20
I0
sg45
I0
sg30
I0
sg22
I0
sg47
I0
sg48
I0
sg21
I0
sg19
I0
sg40
I0
sg36
I0
sg25
I0
sg46
I0
sg44
I0
sg41
I0
sg37
I0
sg14
I0
sg24
I0
sg35
I0
sg42
I0
sg16
I0
sg43
I0
sg34
I0
ssg29
(dp169
g103
I0
sg17
I0
sg28
I0
sg49
I0
sg18
I0
sg39
I0
sg13
I0
sg29
I8
sg9
I0
sg12
I0
sg8
I0
sg32
I0
sg26
I0
sg27
I0
sg10
I0
sg31
I0
sg15
I0
sg38
I0
sg23
I0
sg50
I0
sg11
I0
sg33
I0
sg20
I0
sg45
I0
sg30
I0
sg22
I0
sg47
I0
sg48
I0
sg21
I0
sg19
I0
sg40
I0
sg36
I0
sg25
I0
sg46
I0
sg44
I0
sg41
I0
sg37
I0
sg14
I0
sg24
I0
sg35
I0
sg42
I0
sg16
I0
sg43
I0
sg34
I0
ssg9
(dp170
g51
I0
sg17
I0
sg28
I0
sg49
I0
sg18
I0
sg39
I0
sg13
I0
sg29
I0
sg9
I160
sg12
I0
sg52
I0
sg8
I0
sg32
I0
sg26
I0
sg27
I0
sg10
I0
sg31
I0
sg15
I0
sg38
I0
sg23
I0
sg50
I0
sg11
I0
sg33
I0
sg20
I0
sg45
I0
sg30
I0
sg22
I0
sg47
I0
sg48
I0
sg21
I0
sg19
I0
sg40
I0
sg36
I0
sg25
I0
sg46
I0
sg44
I0
sg41
I0
sg37
I0
sg14
I0
sg24
I0
sg35
I0
sg42
I0
sg16
I0
sg43
I0
sg34
I0
ssg12
(dp171
g51
I0
sg17
I0
sg28
I0
sg93
I0
sg18
I0
sg39
I0
sg13
I7
sg29
I0
sg9
I0
sg12
I1
sg52
I0
sg8
I0
sg32
I0
sg26
I0
sg27
I0
sg10
I0
sg31
I0
sg15
I0
sg38
I0
sg23
I0
sg50
I0
sg11
I0
sg33
I0
sg20
I0
sg45
I0
sg30
I0
sg22
I0
sg47
I0
sg48
I0
sg21
I0
sg19
I0
sg40
I0
sg36
I0
sg25
I0
sg46
I0
sg44
I0
sg41
I0
sg37
I0
sg14
I0
sg24
I0
sg35
I0
sg42
I0
sg16
I0
sg43
I0
sg34
I0
ssg52
(dp172
S'corn.n.03'
p173
I0
sS'mixing_bowl.n.01'
p174
I0
sS'dish.n.02'
p175
I0
sS'dish.n.01'
p176
I0
sS'milk.n.04'
p177
I0
sS'add.v.01'
p178
I0
sS'milk.n.01'
p179
I0
sg52
I0
sS'pan.n.03'
p180
I0
sS'flour.n.01'
p181
I0
sS'egg.n.02'
p182
I0
sS'butter.n.01'
p183
I0
sS'asparagus.n.02'
p184
I0
sS'meat.n.01'
p185
I0
sS'vanilla.n.02'
p186
I0
sS'concoction.n.01'
p187
I0
sS'salt.n.02'
p188
I0
sS'rib.n.03'
p189
I0
sS'cream.n.02'
p190
I0
sS'ingredient.n.03'
p191
I0
sS'cream.n.03'
p192
I0
sS'steak.n.01'
p193
I0
sS'vegetable.n.01'
p194
I0
sS'water.n.06'
p195
I0
sS'dressing.n.01'
p196
I0
sS'french_fries.n.01'
p197
I0
sS'salad.n.01'
p198
I0
sS'onion.n.03'
p199
I0
sS'sugar.n.01'
p200
I0
ssg8
(dp201
g51
I0
sg17
I0
sg28
I0
sg49
I0
sg18
I0
sg39
I0
sg13
I0
sg29
I0
sg9
I0
sg12
I0
sg52
I1
sg8
I23
sg32
I0
sg26
I0
sg27
I0
sg10
I0
sg31
I0
sg15
I0
sg38
I0
sg23
I0
sg50
I0
sg11
I0
sg33
I0
sg20
I0
sg45
I0
sg30
I0
sg22
I0
sg47
I0
sg48
I0
sg21
I0
sg19
I0
sg40
I0
sg36
I0
sg25
I0
sg46
I0
sg44
I0
sg41
I0
sg37
I0
sg14
I0
sg24
I0
sg35
I0
sg42
I0
sg16
I0
sg43
I0
sg34
I0
ssg32
(dp202
g51
I0
sg17
I0
sg28
I0
sg18
I0
sS'dish.n.01'
p203
I0
sg13
I0
sg29
I0
sg9
I0
sg12
I0
sg8
I0
sg32
I0
sg26
I0
sg27
I0
sg10
I0
sg31
I0
sg15
I0
sS'asparagus.n.01'
p204
I0
sg23
I0
sg50
I0
sg11
I0
sg33
I0
sg20
I0
sg45
I0
sg30
I0
sg22
I0
sg47
I0
sg82
I0
sg21
I0
sg19
I0
sS'cream.n.03'
p205
I0
sg36
I0
sg25
I0
sg46
I0
sS'vegetable.n.01'
p206
I0
sS'dressing.n.04'
p207
I0
sS'water_system.n.02'
p208
I0
sg14
I0
sg24
I0
sg35
I0
sg49
I0
sg16
I0
sS'onion.n.03'
p209
I0
sg34
I0
ssg26
(dp210
g17
I0
sg28
I0
sg18
I0
sg39
I0
sg13
I0
sg29
I0
sg9
I0
sg12
I0
sg52
I0
sg8
I0
sg32
I0
sg26
I3
sg27
I0
sg10
I0
sg31
I0
sg15
I0
sg38
I0
sg23
I0
sg11
I0
sg33
I0
sg20
I0
sg30
I0
sg22
I0
sg189
I0
sg21
I0
sg19
I0
sg40
I0
sg36
I0
sg25
I0
sg44
I0
sg41
I0
sg37
I0
sg14
I0
sg24
I0
sg35
I0
sg42
I0
sg16
I0
sg43
I0
sg34
I0
ssg27
(dp211
g51
I0
sg17
I0
sg28
I0
sg49
I0
sg18
I0
sg39
I0
sg13
I0
sg29
I0
sg9
I0
sg12
I0
sg52
I0
sg8
I0
sg32
I0
sg26
I0
sg27
I16
sg10
I0
sg31
I0
sg15
I0
sg38
I0
sg23
I0
sg50
I0
sg11
I0
sg33
I0
sg20
I0
sg45
I0
sg30
I0
sg22
I0
sg47
I0
sg48
I0
sg21
I0
sg19
I0
sg40
I0
sg36
I0
sg25
I0
sg46
I0
sg44
I0
sg41
I0
sg37
I0
sg14
I0
sg24
I0
sg35
I0
sg42
I0
sg16
I0
sg43
I0
sg34
I0
ssg10
(dp212
g51
I0
sg17
I0
sg28
I0
sg49
I0
sg18
I0
sg39
I0
sg13
I0
sg29
I0
sg9
I0
sg12
I0
sg52
I0
sg8
I0
sg32
I0
sg26
I0
sg27
I0
sg10
I24
sg31
I0
sg15
I0
sg38
I0
sg23
I0
sg50
I0
sg11
I0
sg33
I0
sg20
I0
sg45
I0
sg30
I0
sg22
I0
sg47
I0
sg48
I0
sg21
I0
sg19
I0
sg40
I0
sg36
I0
sg25
I0
sg46
I0
sg44
I0
sg41
I0
sg37
I0
sg14
I0
sg24
I0
sg35
I0
sg42
I0
sg16
I0
sg43
I0
sg34
I0
ssg31
(dp213
g51
I0
sg17
I0
sg28
I0
sg49
I0
sg18
I0
sg39
I0
sg13
I0
sg29
I0
sg9
I0
sg12
I0
sg8
I0
sg32
I5
sg26
I0
sg27
I0
sg10
I0
sg31
I0
sg15
I0
sg38
I0
sg23
I0
sg50
I0
sg11
I0
sg33
I0
sg20
I0
sg45
I0
sg30
I0
sg22
I0
sg47
I0
sg48
I0
sg21
I0
sg19
I0
sg40
I0
sg36
I0
sg25
I0
sg46
I0
sg44
I0
sg41
I0
sg37
I0
sg14
I0
sg24
I0
sg35
I0
sg42
I3
sg16
I0
sg43
I0
sg34
I0
ssg15
(dp214
g51
I0
sg17
I0
sg28
I0
sg93
I0
sg18
I0
sg39
I0
sg13
I0
sg29
I0
sg9
I0
sg12
I0
sg52
I0
sg8
I0
sg32
I0
sg26
I0
sg27
I0
sg10
I0
sg31
I0
sg15
I3
sg38
I5
sg23
I0
sg50
I0
sg11
I0
sg33
I0
sg20
I0
sg45
I0
sg30
I0
sg22
I0
sg47
I0
sg48
I0
sg21
I0
sg19
I0
sg40
I0
sg36
I0
sg25
I0
sg46
I0
sg44
I0
sg41
I0
sg37
I0
sg14
I0
sg24
I0
sg35
I0
sg42
I0
sg16
I0
sg43
I0
sg34
I0
ssg38
(dp215
g51
I0
sg140
I0
sg141
I0
sg93
I0
sg142
I0
sg39
I0
sg143
I0
sg144
I0
sg145
I0
sg146
I0
sg147
I0
sS'pot.n.09'
p216
I0
sg149
I0
sg150
I0
sg151
I0
sg152
I0
sg153
I0
sg38
I0
sg154
I0
sg50
I0
sg155
I0
sg156
I0
sg157
I0
sg45
I0
sg158
I0
sg159
I0
sg47
I0
sg82
I0
sg160
I0
sg40
I0
sg161
I0
sg162
I0
sg46
I0
sg44
I0
sg41
I0
sg37
I0
sg163
I0
sg164
I0
sg165
I0
sg42
I0
sg166
I0
sg43
I0
sg167
I0
ssg23
(dp217
g51
I3
sg17
I0
sg28
I0
sg49
I0
sg18
I0
sg39
I0
sg13
I0
sg29
I0
sg9
I0
sg12
I0
sg52
I0
sg8
I0
sg32
I0
sg26
I0
sg27
I0
sg10
I0
sg31
I0
sg15
I0
sg38
I0
sg23
I5
sg74
I0
sg11
I0
sg33
I0
sg20
I0
sg78
I0
sg30
I0
sg22
I0
sg99
I0
sg48
I0
sg21
I0
sg19
I0
sg40
I0
sg36
I0
sg25
I0
sg44
I0
sg41
I0
sg37
I0
sg14
I0
sg24
I0
sg35
I0
sg42
I0
sg16
I0
sg43
I0
sg34
I0
ssg50
(dp218
g103
I0
sS'corn.n.03'
p219
I0
sS'mixing_bowl.n.01'
p220
I0
sS'dish.n.02'
p221
I0
sg203
I0
sS'milk.n.04'
p222
I0
sS'apple.n.01'
p223
I0
sS'add.v.01'
p224
I0
sS'milk.n.01'
p225
I0
sS'pan.n.03'
p226
I0
sg148
I0
sS'egg.n.02'
p227
I0
sS'butter.n.01'
p228
I0
sS'pot.n.01'
p229
I0
sS'asparagus.n.02'
p230
I0
sS'asparagus.n.01'
p231
I0
sS'meat.n.01'
p232
I0
sg50
I0
sS'vanilla.n.02'
p233
I0
sS'bean.n.01'
p234
I0
sS'concoction.n.01'
p235
I0
sg98
I0
sS'sauce.n.01'
p236
I0
sS'salt.n.02'
p237
I0
sS'rib.n.03'
p238
I0
sS'cream.n.02'
p239
I0
sS'ingredient.n.03'
p240
I0
sS'cream.n.03'
p241
I0
sg100
I0
sS'vegetable.n.01'
p242
I0
sg88
I0
sS'water_system.n.02'
p243
I0
sS'water.n.06'
p244
I0
sg91
I0
sS'french_fries.n.01'
p245
I0
sg93
I0
sS'salad.n.01'
p246
I0
sS'onion.n.03'
p247
I0
sS'sugar.n.01'
p248
I0
ssg11
(dp249
g51
I0
sg17
I0
sg28
I0
sg49
I0
sg18
I0
sg39
I0
sg13
I0
sg29
I0
sg9
I0
sg12
I0
sg52
I0
sg8
I0
sg32
I0
sg26
I0
sg27
I0
sg10
I0
sg31
I0
sg15
I0
sg38
I0
sg23
I0
sg50
I2
sg11
I14
sg33
I0
sg20
I0
sg45
I0
sg30
I0
sg22
I0
sg47
I0
sg48
I0
sg21
I0
sg19
I0
sg40
I0
sg36
I0
sg25
I0
sg46
I0
sg44
I0
sg41
I0
sg37
I0
sg14
I0
sg24
I0
sg35
I0
sg42
I0
sg16
I0
sg43
I0
sg34
I0
ssg33
(dp250
g51
I0
sg17
I0
sg28
I0
sg49
I0
sg18
I0
sg39
I0
sg13
I0
sg29
I0
sg9
I0
sg12
I0
sg8
I0
sg32
I0
sg26
I0
sg27
I0
sg10
I0
sg31
I0
sg15
I0
sg38
I0
sg23
I0
sg50
I0
sg11
I0
sg33
I5
sg20
I0
sg45
I3
sg30
I0
sg22
I0
sg47
I0
sg48
I0
sg21
I0
sg19
I0
sg40
I0
sg36
I0
sg25
I0
sg46
I0
sg44
I0
sg41
I0
sg37
I0
sg14
I0
sg24
I0
sg35
I0
sg42
I0
sg16
I0
sg43
I0
sg34
I0
ssg20
(dp251
g51
I0
sg17
I0
sg28
I0
sg49
I3
sg18
I0
sg39
I0
sg13
I0
sg29
I0
sg9
I0
sg12
I0
sg52
I0
sg8
I0
sg32
I0
sg26
I0
sg27
I0
sg10
I0
sg31
I0
sg15
I0
sg38
I0
sg23
I0
sg74
I0
sg11
I0
sg33
I0
sg20
I3
sg78
I0
sg30
I0
sg22
I0
sg99
I0
sg48
I2
sg21
I0
sg19
I0
sg40
I0
sg36
I0
sg25
I0
sg44
I0
sg41
I0
sg37
I0
sg14
I0
sg24
I0
sg35
I0
sg42
I0
sg16
I0
sg43
I0
sg34
I0
ssg45
(dp252
g51
I0
sg219
I0
sS'mixing_bowl.n.01'
p253
I0
sg205
I0
sg221
I0
sg203
I0
sS'milk.n.04'
p254
I0
sS'apple.n.01'
p255
I0
sS'add.v.01'
p256
I0
sS'milk.n.01'
p257
I0
sS'pan.n.03'
p258
I0
sg216
I0
sS'egg.n.02'
p259
I0
sS'butter.n.01'
p260
I0
sS'pot.n.01'
p261
I0
sS'asparagus.n.02'
p262
I0
sg204
I0
sg73
I0
sg50
I0
sS'vanilla.n.02'
p263
I0
sS'bean.n.01'
p264
I0
sg77
I0
sg45
I0
sS'sauce.n.01'
p265
I0
sg80
I0
sg47
I0
sg82
I0
sS'cream.n.02'
p266
I0
sS'ingredient.n.03'
p267
I0
sg46
I0
sS'steak.n.01'
p268
I0
sg206
I0
sg207
I0
sg208
I0
sS'water.n.06'
p269
I0
sS'dressing.n.01'
p270
I0
sS'french_fries.n.01'
p271
I0
sS'salad.n.01'
p272
I0
sg209
I0
sS'sugar.n.01'
p273
I0
ssg30
(dp274
g51
I0
sg17
I0
sg28
I0
sg49
I0
sg18
I0
sg39
I0
sg13
I0
sg29
I0
sg9
I0
sg12
I0
sg8
I0
sg32
I0
sg26
I0
sg27
I0
sg10
I0
sg31
I0
sg15
I0
sg38
I0
sg23
I0
sg50
I0
sg11
I0
sg33
I0
sg20
I0
sg45
I0
sg30
I8
sg22
I0
sg47
I0
sg48
I0
sg21
I0
sg19
I0
sg40
I0
sg36
I0
sg25
I0
sg46
I0
sg44
I0
sg41
I0
sg37
I0
sg14
I0
sg24
I0
sg35
I0
sg42
I0
sg16
I0
sg43
I0
sg34
I0
ssg22
(dp275
g51
I0
sg17
I0
sg28
I0
sg49
I0
sg18
I0
sg39
I0
sg13
I0
sg29
I0
sg9
I0
sg12
I0
sg52
I0
sg8
I0
sg32
I0
sg26
I0
sg27
I0
sg10
I0
sg31
I0
sg15
I0
sg38
I0
sg23
I0
sg74
I0
sg11
I0
sg33
I0
sg20
I0
sg78
I0
sg30
I0
sg22
I8
sg99
I0
sg48
I0
sg21
I0
sg19
I0
sg40
I0
sg36
I0
sg25
I0
sg44
I0
sg41
I0
sg37
I0
sg14
I0
sg24
I0
sg35
I0
sg42
I0
sg16
I0
sg43
I0
sg34
I0
ssg47
(dp276
g51
I0
sS'corn.n.03'
p277
I0
sg253
I0
sg49
I0
sg205
I0
sS'dish.n.02'
p278
I0
sS'dish.n.01'
p279
I0
sg254
I0
sg255
I0
sg256
I0
sg257
I0
sg52
I0
sg258
I0
sg216
I0
sg181
I0
sg259
I0
sg260
I0
sg261
I0
sg262
I0
sg204
I0
sS'meat.n.01'
p280
I0
sg50
I0
sg263
I0
sg264
I0
sS'concoction.n.01'
p281
I0
sg45
I0
sg265
I0
sS'salt.n.02'
p282
I0
sg47
I8
sg48
I0
sg266
I0
sg267
I0
sg46
I0
sg268
I0
sg206
I0
sg207
I0
sg208
I0
sg269
I0
sg270
I0
sg271
I0
sS'pot.n.04'
p283
I0
sg272
I0
sg209
I0
sg273
I0
ssg48
(dp284
g51
I0
sg277
I0
sS'mixing_bowl.n.01'
p285
I0
sg278
I0
sg279
I0
sS'milk.n.04'
p286
I0
sS'apple.n.01'
p287
I0
sS'add.v.01'
p288
I0
sS'milk.n.01'
p289
I0
sS'pan.n.03'
p290
I0
sg66
I0
sS'egg.n.02'
p291
I0
sS'butter.n.01'
p292
I0
sS'pot.n.01'
p293
I0
sS'asparagus.n.02'
p294
I0
sg71
I0
sg280
I0
sS'vanilla.n.02'
p295
I0
sS'bean.n.01'
p296
I0
sg281
I0
sg78
I0
sS'sauce.n.01'
p297
I0
sg282
I0
sg99
I0
sg48
I0
sS'cream.n.02'
p298
I0
sS'ingredient.n.03'
p299
I0
sS'cream.n.03'
p300
I0
sg86
I0
sg87
I0
sS'dressing.n.04'
p301
I0
sS'water_system.n.02'
p302
I0
sS'water.n.06'
p303
I0
sS'dressing.n.01'
p304
I0
sg92
I0
sg283
I0
sS'salad.n.01'
p305
I0
sg95
I0
sg96
I0
ssg21
(dp306
g51
I0
sg17
I0
sg28
I0
sg49
I0
sg18
I0
sg39
I0
sg13
I0
sg29
I0
sg9
I0
sg12
I0
sg52
I0
sg8
I0
sg32
I0
sg26
I0
sg27
I0
sg10
I0
sg31
I0
sg15
I0
sg38
I0
sg23
I0
sg50
I0
sg11
I0
sg33
I0
sg20
I0
sg45
I0
sg30
I0
sg22
I0
sg47
I0
sg48
I0
sg21
I2
sg19
I0
sg40
I14
sg36
I0
sg25
I0
sg46
I0
sg44
I0
sg41
I0
sg37
I0
sg14
I0
sg24
I0
sg35
I0
sg42
I0
sg16
I0
sg43
I0
sg34
I0
ssg19
(dp307
g51
I0
sg17
I0
sg28
I0
sg49
I0
sg18
I0
sg39
I0
sg13
I0
sg29
I0
sg9
I0
sg12
I0
sg52
I0
sg8
I0
sg32
I0
sg26
I0
sg27
I0
sg10
I0
sg31
I0
sg15
I0
sg38
I0
sg23
I0
sg50
I0
sg11
I0
sg33
I0
sg20
I0
sg45
I0
sg30
I0
sg22
I0
sg47
I0
sg48
I0
sg21
I0
sg19
I16
sg40
I0
sg36
I0
sg25
I0
sg46
I0
sg44
I0
sg41
I0
sg37
I0
sg14
I0
sg24
I0
sg35
I0
sg42
I0
sg16
I0
sg43
I0
sg34
I0
ssg40
(dp308
g51
I0
sg140
I0
sg141
I0
sg49
I0
sg142
I0
sg39
I0
sg143
I0
sg144
I0
sg145
I0
sg146
I0
sg52
I0
sg147
I0
sg216
I0
sg149
I0
sg150
I0
sg151
I0
sg152
I0
sg153
I0
sg38
I0
sg154
I0
sg50
I0
sg155
I0
sg156
I0
sg157
I0
sg45
I0
sg158
I0
sg159
I0
sg47
I0
sg48
I0
sg160
I0
sg161
I0
sg40
I0
sg162
I0
sg46
I0
sg44
I0
sg41
I0
sg37
I0
sg163
I0
sg164
I0
sg165
I0
sg42
I0
sg166
I0
sg43
I0
sg167
I0
ssg36
(dp309
g51
I0
sg17
I0
sg28
I0
sg18
I0
sg39
I0
sg13
I0
sg29
I0
sg9
I0
sg12
I0
sg52
I0
sg8
I0
sg32
I0
sg26
I0
sg27
I0
sg10
I0
sg31
I0
sg15
I0
sg38
I0
sg23
I0
sg11
I0
sg33
I0
sg20
I0
sg45
I0
sg30
I0
sg22
I0
sg82
I0
sg47
I0
sg49
I0
sg21
I0
sg19
I0
sg40
I0
sg36
I6
sg25
I0
sg46
I0
sg44
I0
sg41
I0
sg37
I0
sg14
I0
sg24
I0
sg35
I0
sg42
I0
sg16
I0
sg43
I0
sg34
I0
ssg25
(dp310
g17
I0
sg28
I0
sg18
I0
sg13
I0
sg29
I0
sg9
I0
sg12
I0
sg8
I0
sg32
I0
sg26
I0
sg27
I0
sg10
I0
sg31
I0
sg15
I0
sg23
I0
sg11
I0
sg33
I0
sg20
I0
sg30
I0
sg22
I0
sg21
I0
sg19
I0
sg36
I0
sg25
I0
sg14
I0
sg24
I0
sg35
I0
sg16
I0
sg34
I0
ssg46
(dp311
g219
I0
sg253
I0
sg221
I0
sg203
I0
sg254
I0
sg255
I0
sg256
I0
sg257
I0
sg258
I0
sg216
I0
sg259
I0
sg260
I0
sg261
I0
sg262
I0
sg204
I0
sg50
I0
sg263
I0
sg264
I0
sg45
I0
sg265
I0
sg47
I0
sg266
I0
sg267
I0
sg205
I0
sg268
I0
sg46
I0
sg206
I0
sg207
I0
sg208
I0
sg269
I0
sg270
I0
sg271
I0
sg272
I0
sg209
I0
sg273
I0
ssg44
(dp312
g51
I0
sg140
I0
sg141
I0
sg142
I0
sg39
I0
sg143
I0
sg144
I0
sg145
I0
sg146
I0
sg52
I0
sg147
I0
sg216
I0
sg149
I0
sg150
I0
sg151
I0
sg152
I0
sg153
I0
sg38
I0
sg154
I0
sg50
I0
sg155
I0
sg156
I0
sg157
I0
sg45
I0
sg158
I0
sg159
I0
sg82
I0
sg47
I0
sg49
I0
sg160
I0
sg40
I0
sg161
I0
sg162
I0
sg46
I0
sg44
I8
sg41
I0
sg37
I0
sg163
I0
sg164
I0
sg165
I0
sg42
I0
sg166
I0
sg43
I0
sg167
I0
ssg41
(dp313
g103
I0
sg140
I0
sg141
I0
sg49
I0
sg142
I0
sg39
I0
sg143
I0
sg144
I0
sg145
I0
sg146
I0
sg147
I0
sg216
I0
sg149
I0
sg150
I0
sg151
I0
sg152
I0
sg153
I0
sg38
I0
sg154
I0
sg74
I0
sg155
I0
sg156
I0
sg157
I0
sg45
I0
sg158
I0
sg159
I0
sg47
I0
sg48
I0
sg160
I0
sg40
I0
sg161
I0
sg162
I0
sg46
I0
sg44
I0
sg41
I0
sg37
I0
sg163
I0
sg164
I0
sg165
I0
sg42
I0
sg166
I0
sg43
I0
sg167
I0
ssg37
(dp314
g51
I0
sg140
I0
sg141
I0
sg93
I0
sg142
I0
sg39
I0
sg143
I0
sg144
I0
sg145
I0
sg146
I0
sg147
I0
sg216
I0
sg149
I0
sg150
I0
sg151
I0
sg152
I0
sg153
I0
sg38
I0
sg154
I0
sg50
I0
sg155
I0
sg156
I0
sg157
I0
sg45
I0
sg158
I0
sg159
I0
sg47
I0
sg48
I0
sg160
I0
sg40
I0
sg161
I0
sg162
I0
sg46
I0
sg44
I0
sg41
I0
sg37
I0
sg163
I0
sg164
I0
sg165
I0
sg42
I0
sg166
I0
sg43
I0
sg167
I0
ssg14
(dp315
g51
I0
sg17
I0
sg28
I0
sg93
I0
sg18
I0
sg39
I0
sg13
I0
sg29
I0
sg9
I0
sg12
I0
sg52
I0
sg8
I0
sg32
I0
sg26
I0
sg27
I0
sg10
I0
sg31
I0
sg15
I0
sg38
I0
sg23
I0
sg50
I0
sg11
I0
sg33
I0
sg20
I0
sg45
I0
sg30
I0
sg22
I0
sg47
I0
sg48
I0
sg21
I0
sg19
I0
sg40
I0
sg36
I0
sg25
I0
sg46
I0
sg44
I0
sg41
I0
sg37
I6
sg14
I2
sg24
I0
sg35
I0
sg42
I0
sg16
I0
sg43
I0
sg34
I0
ssg24
(dp316
g103
I0
sg17
I0
sg28
I0
sg49
I0
sg18
I0
sg39
I0
sg13
I0
sg29
I0
sg9
I0
sg12
I0
sg52
I0
sg8
I0
sg32
I0
sg26
I0
sg27
I0
sg10
I0
sg31
I0
sg15
I0
sg38
I0
sg23
I0
sg74
I0
sg11
I0
sg33
I0
sg20
I0
sg45
I0
sg30
I0
sg22
I0
sg47
I0
sg48
I0
sg21
I0
sg19
I0
sg40
I0
sg36
I0
sg25
I1
sg46
I0
sg44
I0
sg41
I6
sg37
I0
sg14
I0
sg24
I1
sg35
I0
sg42
I0
sg16
I0
sg43
I0
sg34
I0
ssg35
(dp317
g51
I0
sg17
I0
sg28
I0
sg18
I0
sg39
I0
sg13
I0
sg29
I0
sg9
I0
sg12
I0
sg52
I0
sg8
I0
sg32
I0
sg26
I0
sg27
I0
sg10
I0
sg31
I0
sg15
I0
sg38
I0
sg23
I0
sg50
I0
sg11
I0
sg33
I0
sg20
I0
sg45
I0
sg30
I0
sg22
I0
sg82
I0
sg47
I0
sg49
I0
sg21
I0
sg19
I0
sg40
I0
sg36
I0
sg25
I0
sg46
I0
sg44
I0
sg41
I0
sg37
I0
sg14
I0
sg24
I0
sg35
I8
sg42
I0
sg16
I0
sg43
I0
sg34
I0
ssg42
(dp318
S'kernel.n.01'
p319
I0
sg140
I0
sg141
I0
sS'mix.n.03'
p320
I0
sg142
I0
sg39
I0
sg143
I0
sg144
I0
sg145
I0
sg146
I0
sg147
I0
sg149
I0
sg42
I0
sg151
I0
sg152
I0
sg153
I0
sg38
I0
sg154
I0
sg155
I0
sg156
I0
sg157
I0
sg158
I0
sg159
I0
sg99
I0
sg48
I0
sg160
I0
sg40
I0
sg161
I0
sg162
I0
sg44
I0
sg41
I0
sg37
I0
sg163
I0
sg164
I0
sg165
I0
sg150
I0
sg166
I0
sg43
I0
sg167
I0
ssg16
(dp321
g51
I0
sg17
I0
sg28
I0
sg49
I0
sg18
I0
sg39
I0
sg13
I0
sg29
I0
sg9
I0
sg12
I0
sg52
I0
sg8
I0
sg32
I0
sg26
I0
sg27
I0
sg10
I0
sg31
I0
sg15
I0
sg38
I0
sg23
I0
sg50
I0
sg11
I0
sg33
I0
sg20
I0
sg45
I0
sg30
I0
sg22
I0
sg47
I0
sg48
I0
sg21
I0
sg19
I0
sg40
I0
sg36
I0
sg25
I0
sg46
I0
sg44
I0
sg41
I0
sg37
I0
sg14
I0
sg24
I0
sg35
I0
sg42
I0
sg16
I16
sg43
I0
sg34
I0
ssg43
(dp322
g51
I0
sg140
I0
sg141
I0
sg142
I0
sg39
I0
sg143
I0
sg144
I0
sg145
I0
sg146
I0
sg52
I0
sg147
I0
sg216
I0
sg149
I0
sg150
I0
sg151
I0
sg152
I0
sg153
I0
sg38
I0
sg154
I0
sg50
I0
sg155
I0
sg156
I0
sg157
I0
sg45
I0
sg158
I0
sg159
I0
sg82
I0
sg47
I0
sg49
I0
sg160
I0
sg40
I0
sg161
I0
sg162
I0
sg46
I0
sg44
I0
sg41
I0
sg37
I0
sg163
I0
sg164
I0
sg165
I0
sg42
I0
sg166
I0
sg43
I8
sg167
I0
ssg34
(dp323
g51
I0
sg17
I0
sg28
I0
sg18
I0
sg39
I0
sg13
I0
sg29
I0
sg9
I0
sg12
I0
sg52
I0
sg8
I0
sg32
I0
sg26
I0
sg27
I0
sg10
I0
sg31
I0
sg15
I0
sg38
I0
sg23
I0
sg50
I0
sg11
I0
sg33
I0
sg20
I0
sg45
I0
sg30
I0
sg22
I0
sg82
I0
sg47
I0
sg49
I0
sg21
I0
sg19
I0
sg40
I0
sg36
I0
sg25
I0
sg46
I2
sg44
I0
sg41
I0
sg37
I0
sg14
I0
sg24
I0
sg35
I0
sg42
I0
sg16
I0
sg43
I0
sg34
I6
sssb.