ccopy_reg
_reconstructor
p0
(cutils.eval
ConfusionMatrix
p1
c__builtin__
object
p2
Ntp3
Rp4
(dp5
S'labels'
p6
(lp7
S'add.v.01'
p8
aS'egg.n.02'
p9
aS'rib.n.03'
p10
aS'pan.n.03'
p11
aS'butter.n.01'
p12
aS'vanilla.n.02'
p13
aS'milk.n.01'
p14
aS'milk.n.04'
p15
aS'water.n.06'
p16
aS'water_system.n.02'
p17
aS'asparagus.n.02'
p18
aS'salad.n.01'
p19
aS'corn.n.03'
p20
aS'dish.n.02'
p21
aS'dish.n.01'
p22
aS'ingredient.n.03'
p23
aS'concoction.n.01'
p24
aS'mixture.n.01'
p25
aS'cream.n.02'
p26
aS'cream.n.03'
p27
aS'salt.n.02'
p28
aS'meat.n.01'
p29
aS'dressing.n.01'
p30
aS'dressing.n.04'
p31
aS'mixing_bowl.n.01'
p32
aS'apple.n.01'
p33
aS'sauce.n.01'
p34
aS'pot.n.01'
p35
aS'pot.n.04'
p36
aS'bean.n.01'
p37
asS'instanceCount'
p38
I46
sS'matrix'
p39
(dp40
g20
(dp41
S'corn.n.03'
p42
I1
ssg32
(dp43
S'mixing_bowl.n.01'
p44
I1
ssg21
(dp45
g22
I1
ssg22
(dp46
g22
I0
ssg15
(dp47
g15
I0
ssg33
(dp48
S'apple.n.01'
p49
I1
ssg8
(dp50
S'add.v.01'
p51
I16
ssg14
(dp52
g15
I1
ssg11
(dp53
S'pan.n.03'
p54
I3
ssg9
(dp55
S'egg.n.02'
p56
I2
ssg12
(dp57
S'butter.n.01'
p58
I2
ssg35
(dp59
g36
I1
ssg18
(dp60
S'asparagus.n.02'
p61
I1
ssg29
(dp62
S'meat.n.01'
p63
I1
ssg13
(dp64
S'vanilla.n.02'
p65
I2
ssg37
(dp66
S'bean.n.01'
p67
I1
ssg24
(dp68
g25
I1
ssg34
(dp69
S'sauce.n.01'
p70
I1
ssg28
(dp71
S'salt.n.02'
p72
I1
ssg10
(dp73
S'rib.n.03'
p74
I1
ssg25
(dp75
g25
I0
ssg26
(dp76
g27
I2
ssg23
(dp77
S'ingredient.n.03'
p78
I2
ssg27
(dp79
g27
I0
ssg31
(dp80
g31
I0
ssg17
(dp81
g17
I0
ssg16
(dp82
g17
I1
ssg30
(dp83
g31
I1
ssg36
(dp84
g36
I0
ssg19
(dp85
S'salad.n.01'
p86
I2
sssb.