ccopy_reg
_reconstructor
p0
(cutils.eval
ConfusionMatrix
p1
c__builtin__
object
p2
Ntp3
Rp4
(dp5
S'labels'
p6
(lp7
S'add.v.01'
p8
aS'onion.n.03'
p9
aS'vegetable.n.01'
p10
aS'egg.n.02'
p11
aS'rib.n.03'
p12
aS'pan.n.03'
p13
aS'butter.n.01'
p14
aS'vanilla.n.02'
p15
aS'vanilla.n.03'
p16
aS'milk.n.01'
p17
aS'water.n.06'
p18
aS'water_system.n.02'
p19
aS'asparagus.n.02'
p20
aS'asparagus.n.01'
p21
aS'salad.n.01'
p22
aS'corn.n.03'
p23
aS'dish.n.02'
p24
aS'dish.n.01'
p25
aS'ingredient.n.03'
p26
aS'concoction.n.01'
p27
aS'mix.n.03'
p28
aS'cream.n.02'
p29
aS'cream.n.03'
p30
aS'salt.n.02'
p31
aS'meat.n.01'
p32
aS'kernel.n.01'
p33
aS'dressing.n.01'
p34
aS'dressing.n.04'
p35
aS'mixing_bowl.n.01'
p36
aS'apple.n.01'
p37
asS'instanceCount'
p38
I44
sS'matrix'
p39
(dp40
g33
(dp41
g33
I0
ssg23
(dp42
S'corn.n.03'
p43
I1
ssg36
(dp44
S'mixing_bowl.n.01'
p45
I1
ssg24
(dp46
g25
I1
ssg25
(dp47
g25
I0
ssg37
(dp48
S'apple.n.01'
p49
I1
ssg8
(dp50
S'add.v.01'
p51
I16
ssg17
(dp52
S'milk.n.01'
p53
I1
ssg13
(dp54
S'pan.n.03'
p55
I3
ssg11
(dp56
S'egg.n.02'
p57
I2
ssg14
(dp58
S'butter.n.01'
p59
I2
ssg20
(dp60
g21
I1
ssg21
(dp61
g21
I0
ssg32
(dp62
g33
I1
ssg16
(dp63
g16
I0
ssg15
(dp64
g16
I1
sS'vanilla.n.02'
p65
I1
ssg27
(dp66
g28
I1
ssg31
(dp67
S'salt.n.02'
p68
I1
ssg12
(dp69
S'rib.n.03'
p70
I1
ssg29
(dp71
g30
I1
ssg26
(dp72
S'ingredient.n.03'
p73
I2
ssg30
(dp74
g30
I0
ssg10
(dp75
S'vegetable.n.01'
p76
I1
ssg35
(dp77
g35
I0
ssg19
(dp78
g19
I0
ssg18
(dp79
g19
I1
ssg34
(dp80
g35
I1
ssg28
(dp81
g28
I0
ssg22
(dp82
S'salad.n.01'
p83
I2
ssg9
(dp84
S'onion.n.03'
p85
I1
sssb.