ccopy_reg
_reconstructor
p0
(cutils.eval
ConfusionMatrix
p1
c__builtin__
object
p2
Ntp3
Rp4
(dp5
S'labels'
p6
(lp7
S'add.v.01'
p8
aS'corn.n.03'
p9
aS'dish.n.02'
p10
aS'dish.n.01'
p11
aS'pan.n.03'
p12
aS'vanilla.n.02'
p13
aS'ingredient.n.03'
p14
aS'concoction.n.01'
p15
aS'mix.n.03'
p16
aS'cream.n.02'
p17
aS'cream.n.03'
p18
aS'salt.n.02'
p19
aS'meat.n.01'
p20
aS'kernel.n.01'
p21
aS'dressing.n.01'
p22
aS'dressing.n.04'
p23
aS'salad.n.01'
p24
aS'egg.n.02'
p25
aS'mixing_bowl.n.01'
p26
aS'apple.n.01'
p27
aS'sauce.n.01'
p28
aS'pot.n.01'
p29
aS'pot.n.04'
p30
aS'bean.n.01'
p31
aS'butter.n.01'
p32
aS'sugar.n.01'
p33
aS'french_fries.n.01'
p34
aS'onion.n.03'
p35
aS'vegetable.n.01'
p36
aS'rib.n.03'
p37
asS'instanceCount'
p38
I43
sS'matrix'
p39
(dp40
g21
(dp41
g21
I0
ssg9
(dp42
S'corn.n.03'
p43
I1
ssg26
(dp44
S'mixing_bowl.n.01'
p45
I2
ssg10
(dp46
g11
I1
ssg11
(dp47
g11
I0
ssg27
(dp48
S'apple.n.01'
p49
I1
ssg8
(dp50
S'add.v.01'
p51
I16
ssg30
(dp52
g30
I0
ssg12
(dp53
S'pan.n.03'
p54
I1
ssg25
(dp55
S'egg.n.02'
p56
I2
ssg32
(dp57
S'butter.n.01'
p58
I1
ssg29
(dp59
g30
I1
ssg20
(dp60
g21
I1
ssg13
(dp61
S'vanilla.n.02'
p62
I1
ssg31
(dp63
S'bean.n.01'
p64
I1
ssg15
(dp65
g16
I1
ssg28
(dp66
S'sauce.n.01'
p67
I1
ssg19
(dp68
S'salt.n.02'
p69
I1
ssg37
(dp70
S'rib.n.03'
p71
I1
ssg17
(dp72
g18
I2
ssg14
(dp73
S'ingredient.n.03'
p74
I2
ssg18
(dp75
g18
I0
ssg36
(dp76
S'vegetable.n.01'
p77
I1
ssg23
(dp78
g23
I0
ssg22
(dp79
g23
I1
ssg34
(dp80
S'french_fries.n.01'
p81
I1
ssg16
(dp82
g16
I0
ssg24
(dp83
S'salad.n.01'
p84
I1
ssg35
(dp85
S'onion.n.03'
p86
I1
ssg33
(dp87
S'sugar.n.01'
p88
I1
sssb.