ccopy_reg
_reconstructor
p0
(cutils.eval
ConfusionMatrix
p1
c__builtin__
object
p2
Ntp3
Rp4
(dp5
S'labels'
p6
(lp7
S'pan.n.03'
p8
aS'add.v.01'
p9
aS'butter.n.01'
p10
aS'vanilla.n.02'
p11
aS'milk.n.01'
p12
aS'milk.n.04'
p13
aS'water.n.06'
p14
aS'asparagus.n.02'
p15
aS'salad.n.01'
p16
aS'corn.n.03'
p17
aS'dish.n.02'
p18
aS'ingredient.n.03'
p19
aS'concoction.n.01'
p20
aS'cream.n.02'
p21
aS'salt.n.02'
p22
aS'meat.n.01'
p23
aS'dressing.n.01'
p24
aS'stuffing.n.01'
p25
aS'flour.n.01'
p26
aS'egg.n.02'
p27
aS'mixing_bowl.n.01'
p28
aS'apple.n.01'
p29
aS'sauce.n.01'
p30
aS'pot.n.01'
p31
aS'pot.n.09'
p32
aS'bean.n.01'
p33
aS'sugar.n.01'
p34
aS'french_fries.n.01'
p35
aS'steak.n.01'
p36
asS'instanceCount'
p37
I50
sS'matrix'
p38
(dp39
g17
(dp40
S'corn.n.03'
p41
I1
ssg28
(dp42
S'mixing_bowl.n.01'
p43
I2
ssg18
(dp44
S'dish.n.02'
p45
I1
ssg13
(dp46
g13
I0
ssg29
(dp47
S'apple.n.01'
p48
I1
ssg9
(dp49
S'add.v.01'
p50
I16
ssg12
(dp51
g13
I1
ssg8
(dp52
S'pan.n.03'
p53
I3
ssg32
(dp54
g32
I0
ssg26
(dp55
S'flour.n.01'
p56
I1
ssg27
(dp57
S'egg.n.02'
p58
I1
ssg10
(dp59
S'butter.n.01'
p60
I3
ssg31
(dp61
g32
I1
ssg15
(dp62
S'asparagus.n.02'
p63
I1
ssg23
(dp64
S'meat.n.01'
p65
I1
ssg11
(dp66
S'vanilla.n.02'
p67
I2
ssg33
(dp68
S'bean.n.01'
p69
I1
ssg20
(dp70
S'concoction.n.01'
p71
I1
ssg30
(dp72
S'sauce.n.01'
p73
I1
ssg22
(dp74
S'salt.n.02'
p75
I1
ssg21
(dp76
S'cream.n.02'
p77
I2
ssg19
(dp78
S'ingredient.n.03'
p79
I2
ssg36
(dp80
S'steak.n.01'
p81
I1
ssg25
(dp82
g25
I0
ssg14
(dp83
S'water.n.06'
p84
I1
ssg24
(dp85
g25
I1
ssg35
(dp86
S'french_fries.n.01'
p87
I1
ssg16
(dp88
S'salad.n.01'
p89
I2
ssg34
(dp90
S'sugar.n.01'
p91
I1
sssb.