ccopy_reg
_reconstructor
p0
(cutils.eval
ConfusionMatrix
p1
c__builtin__
object
p2
Ntp3
Rp4
(dp5
S'labels'
p6
(lp7
S'cabbage.n.01'
p8
aS'cabbage.n.03'
p9
aS'cut.v.01'
p10
aS'slice.v.03'
p11
aS'onion.n.01'
p12
aS'pepper.n.04'
p13
aS'pepper.n.03'
p14
aS'cheese.n.01'
p15
aS'flesh.n.01'
p16
aS'human_body.n.01'
p17
aS'bacon.n.01'
p18
aS'bacon.n.02'
p19
aS'put.v.01'
p20
aS'onion.n.02'
p21
aS'beef.n.02'
p22
aS'plate.n.04'
p23
aS'plate.n.13'
p24
aS'fill.v.01'
p25
aS'fill.v.09'
p26
aS'pan.n.01'
p27
aS'pan.n.03'
p28
aS'water.n.06'
p29
aS'cake.n.03'
p30
aS'patty.n.01'
p31
aS'whipped_cream.n.01'
p32
aS'foam.n.01'
p33
aS'mug.n.04'
p34
aS'kettle.n.01'
p35
aS'capsicum.n.01'
p36
aS'salt.n.02'
p37
aS'egg.n.02'
p38
aS'egg.n.01'
p39
aS'lemon.n.01'
p40
aS'lemon.n.05'
p41
asS'instanceCount'
p42
I33
sS'matrix'
p43
(dp44
g24
(dp45
g24
I0
ssg15
(dp46
S'cheese.n.01'
p47
I1
ssg22
(dp48
S'beef.n.02'
p49
I1
ssg31
(dp50
g31
I0
ssg27
(dp51
g28
I1
ssg28
(dp52
g28
I0
ssg10
(dp53
S'cut.v.01'
p54
I3
ssg26
(dp55
g26
I0
ssg38
(dp56
g39
I1
ssg39
(dp57
g39
I0
ssg19
(dp58
g19
I0
ssg18
(dp59
g19
I1
ssg25
(dp60
S'fill.v.01'
p61
I1
sg26
I2
ssg36
(dp62
g36
I0
ssg37
(dp63
S'salt.n.02'
p64
I1
ssg11
(dp65
S'slice.v.03'
p66
I3
ssg8
(dp67
g9
I1
ssg9
(dp68
g9
I0
ssg23
(dp69
g24
I1
ssg13
(dp70
g14
I1
ssg14
(dp71
g36
I1
sg14
I0
ssg33
(dp72
S'foam.n.01'
p73
I1
ssg17
(dp74
g17
I0
ssg32
(dp75
S'whipped_cream.n.01'
p76
I1
ssg34
(dp77
S'mug.n.04'
p78
I1
ssg16
(dp79
g17
I1
ssg29
(dp80
S'water.n.06'
p81
I2
ssg20
(dp82
S'put.v.01'
p83
I3
ssg41
(dp84
g41
I0
ssg35
(dp85
S'kettle.n.01'
p86
I1
ssg30
(dp87
g31
I1
ssg40
(dp88
g41
I1
ssg12
(dp89
S'onion.n.01'
p90
I1
sg21
I1
ssg21
(dp91
g21
I0
sssb.