ccopy_reg
_reconstructor
p0
(cutils.eval
ConfusionMatrix
p1
c__builtin__
object
p2
Ntp3
Rp4
(dp5
S'labels'
p6
(lp7
S'cabbage.n.01'
p8
aS'cabbage.n.03'
p9
aS'cut.v.01'
p10
aS'slice.v.03'
p11
aS'onion.n.01'
p12
aS'pepper.n.04'
p13
aS'pepper.n.03'
p14
aS'cheese.n.01'
p15
aS'flesh.n.01'
p16
aS'human_body.n.01'
p17
aS'bacon.n.01'
p18
aS'bacon.n.02'
p19
aS'put.v.01'
p20
aS'onion.n.02'
p21
aS'beef.n.02'
p22
aS'plate.n.04'
p23
aS'plate.n.13'
p24
aS'fill.v.01'
p25
aS'fill.v.09'
p26
aS'pan.n.01'
p27
aS'pan.n.03'
p28
aS'water.n.06'
p29
aS'cake.n.03'
p30
aS'patty.n.01'
p31
aS'whipped_cream.n.01'
p32
aS'foam.n.01'
p33
aS'mug.n.04'
p34
aS'kettle.n.01'
p35
aS'capsicum.n.01'
p36
aS'salt.n.02'
p37
aS'egg.n.02'
p38
aS'egg.n.01'
p39
aS'lemon.n.01'
p40
aS'lemon.n.05'
p41
aS'chump.n.01'
p42
aS'piece.n.08'
p43
aS'slice.n.06'
p44
aS'pizza.n.01'
p45
aS'opening.n.01'
p46
aS'gap.n.03'
p47
aS'batter.n.02'
p48
aS'salt.n.01'
p49
aS'pitcher.n.02'
p50
aS'milk.n.01'
p51
aS'bread.n.01'
p52
aS'knife.n.01'
p53
aS'knife.n.02'
p54
aS'meat.n.01'
p55
aS'cleaver.n.01'
p56
aS'helicopter.n.01'
p57
aS'banana.n.02'
p58
aS'chicken.n.01'
p59
aS'onion.n.03'
p60
aS'water.n.03'
p61
aS'meet.v.04'
p62
aS'milk.n.04'
p63
aS'slice.v.02'
p64
aS'batter.n.01'
p65
aS'put.v.02'
p66
aS'wimp.n.01'
p67
aS'tongue.n.03'
p68
aS'plate.n.08'
p69
aS'plate.n.11'
p70
asS'instanceCount'
p71
I340
sS'matrix'
p72
(dp73
g24
(dp74
g24
I0
sg15
I0
sS'chicken.n.01'
p75
I0
sg22
I0
sg48
I0
sS'knife.n.01'
p76
I0
sg31
I0
sg27
I0
sg28
I0
sg10
I0
sg47
I0
sg26
I0
sg38
I0
sg39
I0
sg19
I0
sg18
I0
sg25
I0
sS'banana.n.02'
p77
I0
sg36
I0
sg37
I0
sg11
I0
sg42
I0
sg8
I0
sg9
I0
sg23
I0
sg13
I0
sg14
I0
sg33
I0
sg17
I0
sg32
I0
sg43
I0
sg46
I0
sg34
I0
sg16
I0
sg44
I0
sg29
I0
sg20
I0
sg45
I0
sg41
I0
sg35
I0
sg30
I0
sg40
I0
sg12
I0
sg60
I0
sg21
I0
ssg15
(dp78
g24
I0
sg15
I6
sg75
I0
sg22
I0
sS'bread.n.01'
p79
I0
sg48
I0
sg65
I0
sg67
I0
sg76
I0
sg31
I0
sS'milk.n.01'
p80
I0
sg27
I0
sg28
I0
sg10
I0
sg47
I0
sg26
I0
sg38
I0
sg39
I0
sg19
I0
sg18
I0
sg25
I0
sg77
I0
sg36
I0
sS'meat.n.01'
p81
I0
sg37
I0
sS'cleaver.n.01'
p82
I0
sg64
I0
sg11
I0
sg42
I0
sg8
I0
sg68
I0
sg9
I0
sS'knife.n.02'
p83
I0
sg23
I0
sg13
I0
sg14
I0
sg33
I0
sg17
I0
sg32
I0
sg43
I0
sg69
I0
sg46
I0
sg34
I0
sg66
I0
sg16
I0
sS'helicopter.n.01'
p84
I0
sg44
I0
sg29
I0
sg20
I0
sg45
I0
sg41
I0
sg35
I0
sg30
I0
sg40
I0
sg12
I0
sS'pitcher.n.02'
p85
I0
sg60
I0
sg21
I0
ssg70
(dp86
g70
I0
sS'beef.n.02'
p87
I0
sS'batter.n.02'
p88
I0
sS'milk.n.04'
p89
I0
sS'milk.n.01'
p90
I0
sS'pan.n.01'
p91
I0
sS'pan.n.03'
p92
I0
sS'cut.v.01'
p93
I0
sS'gap.n.03'
p94
I0
sS'fill.v.09'
p95
I0
sS'egg.n.02'
p96
I0
sS'egg.n.01'
p97
I0
sS'bacon.n.01'
p98
I0
sS'fill.v.01'
p99
I0
sS'pitcher.n.02'
p100
I0
sS'salt.n.02'
p101
I0
sS'salt.n.01'
p102
I0
sS'plate.n.04'
p103
I0
sS'pepper.n.04'
p104
I0
sS'meet.v.04'
p105
I0
sS'pepper.n.03'
p106
I0
sS'whipped_cream.n.01'
p107
I0
sS'piece.n.08'
p108
I0
sS'opening.n.01'
p109
I0
sS'mug.n.04'
p110
I0
sS'slice.n.06'
p111
I0
sS'water.n.06'
p112
I0
sS'put.v.01'
p113
I0
sS'pizza.n.01'
p114
I0
sS'kettle.n.01'
p115
I0
sS'cake.n.03'
p116
I0
sS'lemon.n.01'
p117
I0
sS'slice.v.03'
p118
I0
sS'onion.n.01'
p119
I0
ssg59
(dp120
S'plate.n.13'
p121
I0
sS'cheese.n.01'
p122
I0
sg59
I5
sS'slice.v.03'
p123
I0
sS'chump.n.01'
p124
I0
sg52
I0
sS'batter.n.02'
p125
I0
sg65
I0
sg67
I1
sS'cabbage.n.01'
p126
I0
sS'foam.n.01'
p127
I0
sg51
I0
sS'pan.n.01'
p128
I0
sS'pan.n.03'
p129
I0
sS'cut.v.01'
p130
I0
sS'gap.n.03'
p131
I0
sS'fill.v.09'
p132
I0
sS'egg.n.02'
p133
I0
sS'egg.n.01'
p134
I0
sS'beef.n.02'
p135
I0
sS'bacon.n.01'
p136
I0
sS'fill.v.01'
p137
I0
sg50
I0
sg55
I0
sg56
I0
sg64
I0
sS'salt.n.02'
p138
I0
sg49
I0
sg53
I0
sg68
I0
sg58
I0
sg54
I0
sS'plate.n.04'
p139
I0
sS'pepper.n.04'
p140
I0
sS'pepper.n.03'
p141
I0
sS'human_body.n.01'
p142
I0
sS'whipped_cream.n.01'
p143
I0
sS'patty.n.01'
p144
I0
sS'capsicum.n.01'
p145
I0
sS'piece.n.08'
p146
I0
sg69
I0
sS'opening.n.01'
p147
I0
sS'mug.n.04'
p148
I0
sS'flesh.n.01'
p149
I0
sg57
I0
sS'slice.n.06'
p150
I0
sS'water.n.06'
p151
I0
sS'put.v.01'
p152
I0
sS'pizza.n.01'
p153
I0
sS'kettle.n.01'
p154
I0
sS'cake.n.03'
p155
I0
sS'lemon.n.01'
p156
I0
sS'onion.n.01'
p157
I0
sg60
I0
sg66
I0
ssg22
(dp158
g24
I0
sg15
I0
sg70
I0
sg75
I0
sg22
I6
sg102
I0
sS'bread.n.01'
p159
I0
sg48
I0
sg89
I0
sg76
I0
sg31
I0
sS'milk.n.01'
p160
I0
sg27
I0
sg28
I0
sg10
I0
sg47
I0
sg26
I0
sg38
I0
sg39
I0
sg19
I0
sg18
I0
sg25
I0
sg77
I0
sg36
I0
sS'meat.n.01'
p161
I0
sg37
I0
sS'cleaver.n.01'
p162
I0
sg11
I0
sg42
I0
sg8
I0
sg68
I0
sg9
I0
sS'knife.n.02'
p163
I0
sg23
I0
sg13
I0
sg105
I0
sg14
I0
sg33
I0
sg17
I0
sg32
I0
sg43
I0
sg69
I0
sg46
I0
sg34
I0
sg16
I0
sS'helicopter.n.01'
p164
I0
sg44
I0
sg29
I0
sg20
I0
sg45
I0
sg41
I0
sg35
I0
sg30
I0
sg40
I0
sg12
I0
sS'pitcher.n.02'
p165
I0
sg60
I0
sg21
I0
ssg49
(dp166
g70
I0
sg59
I0
sg123
I0
sg52
I0
sg125
I0
sg63
I0
sS'cabbage.n.01'
p167
I0
sg127
I0
sg51
I0
sS'pan.n.01'
p168
I0
sg129
I0
sg130
I0
sg131
I0
sg132
I0
sg133
I0
sg134
I0
sg87
I0
sg98
I0
sg137
I0
sg50
I0
sg55
I0
sg56
I0
sg138
I0
sg49
I0
sg53
I0
sg58
I0
sg54
I0
sg103
I0
sg140
I0
sg62
I0
sg141
I0
sS'whipped_cream.n.01'
p169
I0
sg145
I0
sg146
I0
sg147
I0
sg148
I0
sg61
I0
sg57
I0
sg150
I0
sg151
I0
sg152
I0
sg153
I0
sg154
I0
sS'cake.n.03'
p170
I0
sg156
I0
sS'onion.n.01'
p171
I0
ssg52
(dp172
S'cheese.n.01'
p173
I0
sg59
I0
sg123
I0
sg52
I6
sg125
I0
sg65
I0
sg67
I0
sg63
I0
sg167
I0
sg127
I0
sg51
I0
sg168
I0
sg129
I0
sg130
I0
sg131
I0
sg132
I0
sg133
I0
sg134
I0
sS'beef.n.02'
p174
I0
sS'bacon.n.01'
p175
I0
sg137
I0
sg50
I0
sg55
I0
sg56
I0
sg64
I0
sg138
I0
sg49
I0
sg53
I0
sg68
I0
sg58
I0
sg54
I0
sS'plate.n.04'
p176
I0
sg140
I0
sg62
I0
sg141
I0
sS'human_body.n.01'
p177
I0
sg169
I0
sS'patty.n.01'
p178
I0
sg145
I0
sg146
I0
sg69
I0
sg147
I0
sg148
I0
sS'flesh.n.01'
p179
I0
sg61
I0
sg57
I0
sg150
I0
sg151
I0
sg152
I0
sg153
I0
sg154
I0
sg170
I0
sg156
I0
sg171
I0
sS'onion.n.03'
p180
I0
sg66
I0
ssg48
(dp181
S'plate.n.13'
p182
I0
sS'cheese.n.01'
p183
I0
sg70
I0
sg59
I0
sS'beef.n.02'
p184
I0
sg49
I0
sg52
I0
sg48
I5
sg65
I1
sg67
I0
sg63
I0
sg167
I0
sS'fill.v.01'
p185
I0
sg51
I0
sS'pan.n.01'
p186
I0
sS'pan.n.03'
p187
I0
sS'cut.v.01'
p188
I0
sg47
I0
sS'fill.v.09'
p189
I0
sS'egg.n.02'
p190
I0
sS'egg.n.01'
p191
I0
sS'bacon.n.02'
p192
I0
sS'bacon.n.01'
p193
I0
sS'patty.n.01'
p194
I0
sS'capsicum.n.01'
p195
I0
sg55
I0
sS'salt.n.02'
p196
I0
sg56
I0
sg64
I0
sS'slice.v.03'
p197
I0
sg42
I0
sg53
I0
sg58
I0
sg54
I0
sS'plate.n.04'
p198
I0
sg140
I0
sg62
I0
sS'pepper.n.03'
p199
I0
sS'foam.n.01'
p200
I0
sS'human_body.n.01'
p201
I0
sS'whipped_cream.n.01'
p202
I0
sg43
I0
sg46
I0
sS'mug.n.04'
p203
I0
sS'flesh.n.01'
p204
I0
sg61
I0
sg57
I0
sg44
I0
sS'water.n.06'
p205
I0
sS'put.v.01'
p206
I0
sg45
I0
sS'kettle.n.01'
p207
I0
sS'cake.n.03'
p208
I0
sS'lemon.n.01'
p209
I0
sS'onion.n.01'
p210
I0
sg50
I0
sg180
I0
sg66
I0
ssg65
(dp211
g173
I0
sS'chicken.n.01'
p212
I0
sg79
I0
sS'batter.n.02'
p213
I0
sg65
I0
sg67
I0
sS'cabbage.n.01'
p214
I0
sg80
I0
sS'pan.n.03'
p215
I0
sS'cut.v.01'
p216
I0
sS'fill.v.09'
p217
I0
sS'fill.v.01'
p218
I0
sg85
I0
sg82
I0
sg81
I0
sg64
I0
sS'slice.v.03'
p219
I0
sS'knife.n.01'
p220
I0
sS'banana.n.02'
p221
I0
sg83
I0
sS'pepper.n.04'
p222
I0
sS'pepper.n.03'
p223
I0
sg177
I0
sS'piece.n.08'
p224
I0
sS'opening.n.01'
p225
I0
sg179
I0
sg84
I0
sS'slice.n.06'
p226
I0
sg66
I0
sS'put.v.01'
p227
I0
sS'pizza.n.01'
p228
I0
sS'onion.n.01'
p229
I0
sg180
I0
ssg67
(dp230
g173
I0
sg212
I0
sg79
I0
sg213
I0
sg65
I0
sg67
I0
sg214
I0
sg80
I0
sg215
I0
sg216
I0
sg217
I0
sg218
I0
sg85
I0
sg82
I0
sg81
I0
sg64
I0
sg219
I0
sg220
I0
sg221
I0
sg83
I0
sg222
I0
sg223
I0
sg177
I0
sg224
I0
sg225
I0
sg179
I0
sg84
I0
sg226
I0
sg66
I0
sg227
I0
sg228
I0
sg229
I0
sg180
I0
ssg63
(dp231
g70
I0
sS'slice.v.03'
p232
I0
sS'bread.n.01'
p233
I0
sS'batter.n.02'
p234
I0
sg63
I0
sS'foam.n.01'
p235
I0
sS'milk.n.01'
p236
I0
sg168
I0
sS'pan.n.03'
p237
I0
sS'cut.v.01'
p238
I0
sS'gap.n.03'
p239
I0
sS'fill.v.09'
p240
I0
sS'egg.n.02'
p241
I0
sS'egg.n.01'
p242
I0
sg87
I0
sg98
I0
sS'fill.v.01'
p243
I0
sS'pitcher.n.02'
p244
I0
sS'meat.n.01'
p245
I0
sS'cleaver.n.01'
p246
I0
sS'salt.n.02'
p247
I0
sS'salt.n.01'
p248
I0
sS'knife.n.01'
p249
I0
sS'knife.n.02'
p250
I0
sg103
I0
sS'pepper.n.04'
p251
I0
sg62
I0
sS'pepper.n.03'
p252
I0
sg169
I0
sS'piece.n.08'
p253
I0
sS'opening.n.01'
p254
I0
sS'mug.n.04'
p255
I0
sg61
I0
sS'slice.n.06'
p256
I0
sS'water.n.06'
p257
I0
sS'put.v.01'
p258
I0
sS'pizza.n.01'
p259
I0
sS'kettle.n.01'
p260
I0
sg170
I0
sS'lemon.n.01'
p261
I0
sg119
I0
ssg53
(dp262
g121
I0
sg122
I0
sg59
I0
sg123
I0
sg124
I0
sg52
I0
sg125
I0
sg65
I0
sg67
I0
sg63
I0
sg126
I0
sg127
I0
sg51
I0
sg128
I0
sg129
I0
sg130
I0
sg131
I0
sg132
I0
sg133
I0
sg134
I0
sg135
I0
sg136
I0
sg137
I0
sg50
I0
sg55
I0
sg56
I0
sg64
I0
sg138
I0
sg49
I0
sg53
I1
sg68
I1
sg58
I0
sg54
I10
sg139
I0
sg140
I0
sg62
I0
sg141
I0
sg142
I0
sg143
I0
sg144
I0
sg145
I0
sg146
I0
sg69
I0
sg147
I0
sg148
I0
sg149
I0
sg61
I0
sg57
I0
sg150
I0
sg151
I0
sg152
I0
sg153
I0
sg154
I0
sg155
I0
sg156
I0
sg157
I0
sg60
I0
sg66
I0
ssg31
(dp263
g24
I0
sg15
I0
sg75
I0
sg22
I0
sS'bread.n.01'
p264
I0
sg48
I0
sg76
I0
sg25
I0
sg27
I0
sg28
I0
sg10
I0
sg47
I0
sg26
I0
sg38
I0
sg39
I0
sg19
I0
sg18
I0
sg31
I0
sg77
I0
sg36
I0
sS'meat.n.01'
p265
I0
sg37
I0
sS'cleaver.n.01'
p266
I0
sg11
I0
sg42
I0
sg8
I0
sg9
I0
sS'knife.n.02'
p267
I0
sg23
I0
sg13
I0
sg14
I0
sg33
I0
sg17
I0
sg32
I0
sg43
I0
sS'plate.n.08'
p268
I0
sg46
I0
sg34
I0
sg16
I0
sS'helicopter.n.01'
p269
I0
sg44
I0
sg29
I0
sg20
I0
sg45
I0
sg41
I0
sg35
I0
sg30
I0
sg40
I0
sg12
I0
sg60
I0
sg21
I0
ssg51
(dp270
g173
I0
sg70
I0
sg59
I0
sg123
I0
sg52
I0
sg125
I0
sg65
I0
sg67
I0
sg63
I2
sg167
I0
sg127
I0
sg51
I4
sg168
I0
sg129
I0
sg130
I0
sg131
I0
sg132
I0
sg133
I0
sg134
I0
sg174
I0
sg175
I0
sg137
I0
sg50
I0
sg55
I0
sg56
I0
sg64
I0
sg138
I0
sg49
I0
sg53
I0
sg68
I0
sg58
I0
sg54
I0
sg176
I0
sg140
I0
sg62
I0
sg141
I0
sg177
I0
sg169
I0
sg145
I0
sg146
I0
sg69
I0
sg147
I0
sg148
I0
sg179
I0
sg61
I0
sg57
I0
sg150
I0
sg151
I0
sg152
I0
sg153
I0
sg154
I0
sg170
I0
sg156
I0
sg171
I0
sg180
I0
sg66
I0
ssg27
(dp271
g24
I0
sg15
I0
sg70
I0
sg75
I0
sg22
I0
sg248
I0
sg233
I0
sg48
I0
sg63
I0
sg76
I0
sg31
I0
sg236
I0
sg27
I3
sg28
I3
sg10
I0
sg47
I0
sg26
I0
sg38
I0
sg39
I0
sg19
I0
sg18
I0
sg25
I0
sg77
I0
sg36
I0
sg245
I0
sg37
I0
sg246
I0
sg11
I0
sg42
I0
sg8
I0
sg9
I0
sg250
I0
sg23
I0
sg13
I0
sg62
I0
sg14
I0
sg33
I0
sg17
I0
sg32
I0
sg43
I0
sg268
I0
sg46
I0
sg34
I0
sg16
I0
sg61
I0
sg269
I0
sg44
I0
sg29
I0
sg20
I0
sg45
I0
sg41
I0
sg35
I0
sg30
I0
sg40
I0
sg12
I0
sg244
I0
sg60
I0
sg21
I0
ssg28
(dp272
g24
I0
sg15
I0
sg70
I0
sg59
I0
sg22
I0
sg49
I0
sg52
I0
sg48
I0
sg65
I0
sg67
I0
sg63
I0
sg53
I0
sg31
I0
sg51
I0
sg27
I0
sg28
I12
sg10
I0
sg47
I0
sg26
I0
sg38
I0
sg39
I0
sg19
I0
sg18
I0
sg25
I0
sg58
I0
sg36
I0
sg55
I0
sg37
I0
sg56
I0
sg64
I0
sg11
I0
sg42
I0
sg8
I0
sg68
I0
sg9
I0
sg54
I0
sg23
I0
sg13
I0
sg62
I0
sg14
I0
sg33
I0
sg17
I0
sg32
I0
sg43
I0
sg69
I0
sg46
I0
sg34
I0
sg66
I0
sg16
I0
sg61
I0
sg57
I0
sg44
I0
sg29
I0
sg20
I0
sg45
I0
sg41
I0
sg35
I0
sg30
I0
sg40
I0
sg12
I0
sg50
I0
sg60
I0
sg21
I0
ssg10
(dp273
g24
I0
sg15
I0
sg70
I0
sg59
I0
sg22
I0
sg49
I0
sg52
I0
sg48
I0
sg65
I0
sg67
I0
sg63
I0
sg53
I0
sg31
I0
sg51
I0
sg27
I0
sg28
I0
sg10
I30
sg47
I0
sg26
I0
sg38
I0
sg39
I0
sg19
I0
sg18
I0
sg25
I0
sg58
I0
sg36
I0
sg55
I0
sg37
I0
sg56
I0
sg64
I0
sg11
I0
sg42
I0
sg8
I0
sg68
I0
sg9
I0
sg54
I0
sg23
I0
sg13
I0
sg62
I0
sg14
I0
sg33
I0
sg17
I0
sg32
I0
sg43
I0
sg69
I0
sg46
I0
sg34
I0
sg66
I0
sg16
I0
sg61
I0
sg57
I0
sg44
I0
sg29
I0
sg20
I0
sg45
I0
sg41
I0
sg35
I0
sg30
I0
sg40
I0
sg12
I0
sg50
I0
sg60
I0
sg21
I0
ssg47
(dp274
g182
I0
sg183
I0
sg70
I0
sg59
I0
sg184
I0
sg49
I0
sg52
I0
sg48
I0
sg63
I0
sg167
I0
sg185
I0
sg51
I0
sg186
I0
sg187
I0
sg188
I0
sg47
I0
sg189
I0
sg190
I0
sg191
I0
sg192
I0
sg193
I0
sg194
I0
sg195
I0
sg55
I0
sg196
I0
sg56
I0
sg197
I0
sg42
I0
sg53
I0
sg58
I0
sg54
I0
sg198
I0
sg140
I0
sg62
I0
sg199
I0
sg200
I0
sg201
I0
sg202
I0
sg43
I0
sg46
I0
sg203
I0
sg204
I0
sg61
I0
sg57
I0
sg44
I0
sg205
I0
sg206
I0
sg45
I0
sg207
I0
sg208
I0
sg209
I0
sg210
I0
sg50
I0
ssg26
(dp275
g24
I0
sg15
I0
sg70
I0
sg59
I0
sg22
I0
sg49
I0
sg52
I0
sg48
I0
sg65
I0
sg67
I0
sg63
I0
sg53
I0
sg31
I0
sg51
I0
sg27
I0
sg28
I0
sg10
I0
sg47
I0
sg26
I2
sg38
I0
sg39
I0
sg19
I0
sg18
I0
sg25
I4
sg58
I0
sg36
I0
sg55
I0
sg37
I0
sg56
I0
sg64
I0
sg11
I0
sg42
I0
sg8
I0
sg9
I0
sg54
I0
sg23
I0
sg13
I0
sg62
I0
sg14
I0
sg33
I0
sg17
I0
sg32
I0
sg43
I0
sg46
I0
sg34
I0
sg66
I0
sg16
I0
sg61
I0
sg57
I0
sg44
I0
sg29
I0
sg20
I0
sg45
I0
sg41
I0
sg35
I0
sg30
I0
sg40
I0
sg12
I0
sg50
I0
sg180
I0
sg21
I0
ssg38
(dp276
g24
I0
sg15
I0
sg70
I0
sg59
I0
sg22
I0
sg49
I0
sg52
I0
sg48
I0
sg63
I0
sg53
I0
sg31
I0
sg51
I0
sg27
I0
sg28
I0
sg10
I0
sg47
I0
sg26
I0
sg38
I0
sg39
I6
sg19
I0
sg18
I0
sg25
I0
sg58
I0
sg36
I0
sg55
I0
sg37
I0
sg56
I0
sg11
I0
sg42
I0
sg8
I0
sg9
I0
sg54
I0
sg23
I0
sg13
I0
sg62
I0
sg14
I0
sg33
I0
sg17
I0
sg32
I0
sg43
I0
sg46
I0
sg34
I0
sg16
I0
sg61
I0
sg57
I0
sg44
I0
sg29
I0
sg20
I0
sg45
I0
sg41
I0
sg35
I0
sg30
I0
sg40
I0
sg12
I0
sg50
I0
sg21
I0
ssg39
(dp277
g24
I0
sg15
I0
sg70
I0
sg59
I0
sg22
I0
sg49
I0
sg52
I0
sg48
I0
sg63
I0
sg53
I0
sg31
I0
sg51
I0
sg27
I0
sg28
I0
sg10
I0
sg47
I0
sg26
I0
sg38
I0
sg39
I0
sg19
I0
sg18
I0
sg25
I0
sg58
I0
sg36
I0
sg55
I0
sg37
I0
sg56
I0
sg11
I0
sg42
I0
sg8
I0
sg9
I0
sg54
I0
sg23
I0
sg13
I0
sg62
I0
sg14
I0
sg33
I0
sg17
I0
sg32
I0
sg43
I0
sg46
I0
sg34
I0
sg16
I0
sg61
I0
sg57
I0
sg44
I0
sg29
I0
sg20
I0
sg45
I0
sg41
I0
sg35
I0
sg30
I0
sg40
I0
sg12
I0
sg50
I0
sg21
I0
ssg19
(dp278
g24
I0
sg15
I0
sg22
I0
sg48
I0
sg31
I0
sg27
I0
sg28
I0
sg10
I0
sg47
I0
sg26
I0
sg38
I0
sg39
I0
sg19
I0
sg18
I0
sg25
I0
sg36
I0
sg37
I0
sg11
I0
sg42
I0
sg8
I0
sg9
I0
sg23
I0
sg13
I0
sg14
I0
sg33
I0
sg17
I0
sg32
I0
sg43
I0
sg46
I0
sg34
I0
sg16
I0
sg44
I0
sg29
I0
sg20
I0
sg45
I0
sg41
I0
sg35
I0
sg30
I0
sg40
I0
sg12
I0
sg21
I0
ssg18
(dp279
g24
I0
sg15
I0
sg70
I0
sg75
I0
sg22
I0
sg102
I0
sg159
I0
sg48
I0
sg89
I0
sg76
I0
sg31
I0
sg160
I0
sg27
I0
sg28
I0
sg10
I0
sg47
I0
sg26
I0
sg38
I0
sg39
I0
sg19
I2
sg18
I4
sg25
I0
sg77
I0
sg36
I0
sg161
I0
sg37
I0
sg162
I0
sg11
I0
sg42
I0
sg8
I0
sg68
I0
sg9
I0
sg163
I0
sg23
I0
sg13
I0
sg105
I0
sg14
I0
sg33
I0
sg17
I0
sg32
I0
sg43
I0
sg69
I0
sg46
I0
sg34
I0
sg16
I0
sg164
I0
sg44
I0
sg29
I0
sg20
I0
sg45
I0
sg41
I0
sg35
I0
sg30
I0
sg40
I0
sg12
I0
sg165
I0
sg60
I0
sg21
I0
ssg25
(dp280
g24
I0
sg15
I0
sg70
I0
sg59
I0
sg22
I0
sg49
I0
sg52
I0
sg48
I0
sg65
I0
sg67
I0
sg63
I0
sg53
I0
sg31
I0
sg51
I0
sg27
I0
sg28
I0
sg10
I0
sg47
I0
sg26
I9
sg38
I0
sg39
I0
sg19
I0
sg18
I0
sg25
I13
sg58
I0
sg36
I0
sg55
I0
sg37
I0
sg56
I0
sg64
I0
sg11
I0
sg42
I0
sg8
I0
sg68
I0
sg9
I0
sg54
I0
sg23
I0
sg13
I0
sg62
I2
sg14
I0
sg33
I0
sg17
I0
sg32
I0
sg43
I0
sg69
I0
sg46
I0
sg34
I0
sg66
I0
sg16
I0
sg61
I0
sg57
I0
sg44
I0
sg29
I0
sg20
I0
sg45
I0
sg41
I0
sg35
I0
sg30
I0
sg40
I0
sg12
I0
sg50
I0
sg60
I0
sg21
I0
ssg58
(dp281
g121
I0
sg122
I0
sg59
I0
sg123
I0
sg124
I0
sg52
I0
sg125
I0
sg65
I0
sg67
I0
sg126
I0
sg127
I0
sg51
I0
sg128
I0
sg129
I0
sg130
I0
sg131
I0
sg132
I0
sg133
I0
sg134
I0
sg135
I0
sg136
I0
sg137
I0
sg50
I0
sg55
I0
sg56
I0
sg64
I0
sg138
I0
sg49
I0
sg53
I0
sg68
I0
sg58
I6
sg54
I0
sg139
I0
sg140
I0
sg141
I0
sg142
I0
sg143
I0
sg144
I0
sg145
I0
sg146
I0
sg69
I0
sg147
I0
sg148
I0
sg149
I0
sg57
I0
sg150
I0
sg151
I0
sg152
I0
sg153
I0
sg154
I0
sg155
I0
sg156
I0
sg157
I0
sg60
I0
sg66
I0
ssg36
(dp282
g24
I0
sg15
I0
sS'chicken.n.01'
p283
I0
sg22
I0
sS'salt.n.01'
p284
I0
sS'bread.n.01'
p285
I0
sg48
I0
sS'knife.n.01'
p286
I0
sg31
I0
sS'milk.n.01'
p287
I0
sg27
I0
sg28
I0
sg10
I0
sg47
I0
sg26
I0
sg38
I0
sg39
I0
sg19
I0
sg18
I0
sg25
I0
sS'banana.n.02'
p288
I0
sg36
I0
sS'meat.n.01'
p289
I0
sg37
I0
sS'cleaver.n.01'
p290
I0
sg11
I0
sg42
I0
sg8
I0
sg9
I0
sS'knife.n.02'
p291
I0
sg23
I0
sg13
I0
sg14
I0
sg33
I0
sg17
I0
sg32
I0
sg43
I0
sg46
I0
sg34
I0
sg16
I0
sS'helicopter.n.01'
p292
I0
sg44
I0
sg29
I0
sg20
I0
sg45
I0
sg41
I0
sg35
I0
sg30
I0
sg40
I0
sg12
I0
sS'pitcher.n.02'
p293
I0
sg21
I0
ssg55
(dp294
g173
I0
sg59
I0
sg123
I0
sg52
I0
sg125
I0
sg65
I0
sg67
I0
sg63
I0
sg167
I0
sg127
I0
sg51
I0
sg168
I0
sg129
I0
sg130
I0
sg131
I0
sg132
I0
sg133
I0
sg134
I0
sg174
I0
sg175
I0
sg137
I0
sg50
I0
sg55
I6
sg56
I0
sg64
I0
sg138
I0
sg49
I0
sg53
I0
sg68
I0
sg58
I0
sg54
I0
sg176
I0
sg140
I0
sg62
I0
sg141
I0
sg177
I0
sg169
I0
sg178
I0
sg145
I0
sg146
I0
sg69
I0
sg147
I0
sg148
I0
sg179
I0
sg61
I0
sg57
I0
sg150
I0
sg151
I0
sg152
I0
sg153
I0
sg154
I0
sg170
I0
sg156
I0
sg171
I0
sg180
I0
sg66
I0
ssg37
(dp295
g24
I0
sg15
I0
sg70
I0
sg59
I0
sg11
I0
sg49
I4
sg52
I0
sg48
I0
sg63
I0
sg53
I0
sg31
I0
sg51
I0
sg27
I0
sg28
I0
sg10
I0
sg47
I0
sg26
I0
sg38
I0
sg39
I0
sg22
I0
sg19
I0
sg18
I0
sg25
I0
sg58
I0
sg36
I0
sg55
I0
sg56
I0
sg37
I2
sg42
I0
sg8
I0
sg9
I0
sg54
I0
sg23
I0
sg13
I0
sg62
I0
sg14
I0
sg33
I0
sg17
I0
sg32
I0
sg43
I0
sg46
I0
sg34
I0
sg16
I0
sg61
I0
sg57
I0
sg44
I0
sg29
I0
sg20
I0
sg45
I0
sg41
I0
sg35
I0
sg30
I0
sg40
I0
sg12
I0
sg50
I0
sg21
I0
ssg56
(dp296
g173
I0
sg59
I0
sg123
I0
sg52
I0
sg125
I0
sg65
I0
sg67
I0
sg63
I0
sg167
I0
sg127
I0
sg51
I0
sg168
I0
sg129
I0
sg130
I0
sg131
I0
sg132
I0
sg133
I0
sg134
I0
sg174
I0
sg175
I0
sg137
I0
sg50
I0
sg56
I1
sg55
I0
sg64
I0
sg138
I0
sg49
I0
sg53
I0
sg68
I0
sg58
I0
sg54
I0
sg176
I0
sg140
I0
sg62
I0
sg141
I0
sg177
I0
sg169
I0
sg178
I0
sg145
I0
sg146
I0
sg69
I0
sg147
I0
sg148
I0
sg179
I0
sg61
I0
sg57
I5
sg150
I0
sg151
I0
sg152
I0
sg153
I0
sg154
I0
sg170
I0
sg156
I0
sg171
I0
sg180
I0
sg66
I0
ssg64
(dp297
g173
I0
sg212
I0
sg79
I0
sg213
I0
sg65
I0
sg67
I0
sg214
I0
sg80
I0
sg215
I0
sg216
I0
sg217
I0
sg218
I0
sg85
I0
sg82
I0
sg81
I0
sg64
I0
sg219
I0
sg220
I0
sg221
I0
sg83
I0
sg222
I0
sg223
I0
sg177
I0
sg224
I0
sg225
I0
sg179
I0
sg84
I0
sg226
I0
sg66
I0
sg227
I0
sg228
I0
sg229
I0
sg180
I0
ssg11
(dp298
g24
I0
sg15
I0
sg70
I0
sg59
I0
sg22
I0
sg49
I0
sg52
I0
sg48
I0
sg65
I0
sg67
I0
sg63
I0
sg53
I0
sg31
I0
sg51
I0
sg27
I0
sg28
I0
sg10
I0
sg47
I0
sg26
I0
sg38
I0
sg39
I0
sg19
I0
sg18
I0
sg25
I0
sg58
I0
sg36
I0
sg55
I0
sg37
I0
sg56
I0
sg64
I1
sg11
I29
sg42
I0
sg8
I0
sg68
I0
sg9
I0
sg54
I0
sg23
I0
sg13
I0
sg62
I0
sg14
I0
sg33
I0
sg17
I0
sg32
I0
sg43
I0
sg69
I0
sg46
I0
sg34
I0
sg66
I0
sg16
I0
sg61
I0
sg57
I0
sg44
I0
sg29
I0
sg20
I0
sg45
I0
sg41
I0
sg35
I0
sg30
I0
sg40
I0
sg12
I0
sg50
I0
sg60
I0
sg21
I0
ssg42
(dp299
g182
I0
sg183
I0
sg75
I0
sg184
I0
sg48
I0
sg126
I0
sg185
I0
sg186
I0
sg187
I0
sg188
I0
sg47
I0
sg189
I0
sg190
I0
sg191
I0
sg192
I0
sg193
I0
sg194
I0
sg195
I0
sg196
I0
sg197
I0
sg42
I0
sg76
I0
sg77
I0
sg198
I0
sS'pepper.n.04'
p300
I0
sg199
I0
sg200
I0
sg201
I0
sg202
I0
sg43
I0
sg46
I0
sg203
I0
sg204
I0
sg44
I0
sg205
I0
sg206
I0
sg45
I0
sg207
I0
sg208
I0
sg209
I0
sg210
I0
sg60
I0
ssg8
(dp301
g24
I0
sg15
I0
sg75
I0
sg22
I0
sS'gap.n.03'
p302
I0
sg284
I0
sg285
I0
sS'batter.n.02'
p303
I0
sg65
I0
sg67
I0
sg76
I0
sg31
I0
sg287
I0
sg27
I0
sg28
I0
sg10
I0
sg77
I0
sg26
I0
sg38
I0
sg39
I0
sg19
I0
sg18
I0
sg25
I0
sg36
I0
sg289
I0
sg37
I0
sg290
I0
sg64
I0
sg11
I0
sg124
I0
sg8
I5
sg68
I0
sg9
I1
sg291
I0
sg23
I0
sg13
I0
sg14
I0
sg33
I0
sg17
I0
sg32
I0
sS'piece.n.08'
p304
I0
sg69
I0
sS'opening.n.01'
p305
I0
sg34
I0
sg66
I0
sg16
I0
sg292
I0
sS'slice.n.06'
p306
I0
sg29
I0
sg20
I0
sS'pizza.n.01'
p307
I0
sg41
I0
sg35
I0
sg30
I0
sg40
I0
sg12
I0
sg293
I0
sg60
I0
sg21
I0
ssg68
(dp308
S'cheese.n.01'
p309
I0
sS'chicken.n.01'
p310
I0
sg174
I0
sg159
I0
sS'knife.n.01'
p311
I0
sg160
I0
sS'pan.n.03'
p312
I0
sS'cut.v.01'
p313
I0
sg175
I0
sS'fill.v.01'
p314
I0
sg165
I0
sg161
I0
sg162
I0
sS'slice.v.03'
p315
I0
sS'cabbage.n.01'
p316
I0
sS'banana.n.02'
p317
I0
sg163
I0
sg176
I0
sS'pepper.n.04'
p318
I0
sS'pepper.n.03'
p319
I0
sS'human_body.n.01'
p320
I0
sg69
I0
sS'flesh.n.01'
p321
I0
sg164
I0
sS'put.v.01'
p322
I0
sS'pizza.n.01'
p323
I0
sg68
I0
sS'onion.n.01'
p324
I0
sS'onion.n.03'
p325
I0
ssg9
(dp326
g24
I0
sg15
I0
sg22
I0
sg31
I0
sg27
I0
sg28
I0
sg10
I0
sg26
I0
sg38
I0
sg39
I0
sg19
I0
sg18
I0
sg25
I0
sg36
I0
sg37
I0
sg11
I0
sg8
I0
sg9
I0
sg23
I0
sg13
I0
sg14
I0
sg33
I0
sg17
I0
sg32
I0
sg34
I0
sg16
I0
sg29
I0
sg20
I0
sg41
I0
sg35
I0
sg30
I0
sg40
I0
sg12
I0
sg21
I0
ssg54
(dp327
g173
I0
sg59
I0
sg138
I0
sg52
I0
sg125
I0
sg65
I0
sg67
I0
sg63
I0
sg167
I0
sg127
I0
sg51
I0
sg168
I0
sg129
I0
sg130
I0
sg131
I0
sg132
I0
sg133
I0
sg134
I0
sg174
I0
sg175
I0
sg137
I0
sg50
I0
sg55
I0
sg56
I0
sg64
I0
sg123
I0
sg49
I0
sg53
I0
sg68
I0
sg58
I0
sg54
I0
sg176
I0
sg140
I0
sg62
I0
sg141
I0
sg177
I0
sg169
I0
sg178
I0
sg145
I0
sg146
I0
sg69
I0
sg147
I0
sg148
I0
sg179
I0
sg61
I0
sg57
I0
sg150
I0
sg151
I0
sg152
I0
sg153
I0
sg154
I0
sg170
I0
sg156
I0
sg171
I0
sg180
I0
sg66
I0
ssg23
(dp328
g24
I3
sg15
I0
sg70
I1
sg75
I0
sg22
I0
sg102
I0
sg159
I0
sg48
I0
sg89
I0
sg76
I0
sg31
I0
sg160
I0
sg27
I0
sg28
I0
sg10
I0
sg47
I0
sg26
I0
sg38
I0
sg39
I0
sg19
I0
sg18
I0
sg25
I0
sg77
I0
sg36
I0
sg161
I0
sg37
I0
sg162
I0
sg11
I0
sg42
I0
sg8
I0
sg68
I0
sg9
I0
sg163
I0
sg23
I0
sg13
I0
sg105
I0
sg14
I0
sg33
I0
sg17
I0
sg32
I0
sg43
I0
sg69
I2
sg46
I0
sg34
I0
sg16
I0
sg164
I0
sg44
I0
sg29
I0
sg20
I0
sg45
I0
sg41
I0
sg35
I0
sg30
I0
sg40
I0
sg12
I0
sg165
I0
sg60
I0
sg21
I0
ssg13
(dp329
g24
I0
sg15
I0
sg70
I0
sg59
I0
sg22
I0
sg124
I0
sg52
I0
sg125
I0
sg65
I0
sg67
I0
sg63
I0
sg53
I0
sg31
I0
sg51
I0
sg27
I0
sg28
I0
sg10
I0
sg131
I0
sg26
I0
sg38
I0
sg39
I0
sg19
I0
sg18
I0
sg25
I0
sg58
I0
sg36
I0
sg55
I0
sg37
I0
sg56
I0
sg64
I0
sg11
I0
sg49
I0
sg8
I0
sg68
I0
sg9
I0
sg54
I0
sg23
I0
sg13
I1
sg62
I0
sg14
I5
sg33
I0
sg17
I0
sg32
I0
sg146
I0
sg69
I0
sg147
I0
sg34
I0
sg66
I0
sg16
I0
sg61
I0
sg57
I0
sg150
I0
sg29
I0
sg20
I0
sg153
I0
sg41
I0
sg35
I0
sg30
I0
sg40
I0
sg12
I0
sg50
I0
sg60
I0
sg21
I0
ssg62
(dp330
g70
I0
sg232
I0
sg233
I0
sg234
I0
sg63
I0
sg235
I0
sg236
I0
sg168
I0
sg237
I0
sg238
I0
sg239
I0
sg240
I0
sg241
I0
sg242
I0
sg87
I0
sg98
I0
sg243
I0
sg244
I0
sg245
I0
sg246
I0
sg247
I0
sg248
I0
sg249
I0
sg250
I0
sg103
I0
sg251
I0
sg62
I0
sg252
I0
sg169
I0
sg253
I0
sg254
I0
sg255
I0
sg61
I0
sg256
I0
sg257
I0
sg258
I0
sg259
I0
sg260
I0
sg170
I0
sg261
I0
sg119
I0
ssg14
(dp331
g24
I0
sg15
I0
sg70
I0
sg59
I0
sg22
I0
sg49
I0
sg52
I0
sg48
I0
sg65
I0
sg67
I0
sg63
I0
sg53
I0
sg31
I0
sg51
I0
sg27
I0
sg28
I0
sg10
I0
sg47
I0
sg26
I0
sg38
I0
sg39
I0
sg19
I0
sg18
I0
sg25
I0
sg58
I0
sg36
I3
sg55
I0
sg37
I0
sg56
I0
sg64
I0
sg11
I0
sg42
I0
sg8
I0
sg68
I0
sg9
I0
sg54
I0
sg23
I0
sg13
I3
sg62
I0
sg14
I0
sg33
I0
sg17
I0
sg32
I0
sg43
I0
sg69
I0
sg46
I0
sg34
I0
sg66
I0
sg16
I0
sg61
I0
sg57
I0
sg44
I0
sg29
I0
sg20
I0
sg45
I0
sg41
I0
sg35
I0
sg30
I0
sg40
I0
sg12
I0
sg50
I0
sg60
I0
sg21
I0
ssg33
(dp332
g24
I0
sg15
I0
sg59
I0
sg22
I0
sg49
I0
sg52
I0
sg48
I0
sg63
I0
sg53
I0
sg33
I4
sg51
I0
sg27
I0
sg28
I0
sg10
I0
sg47
I0
sg26
I0
sg38
I0
sg39
I0
sg19
I0
sg18
I0
sg25
I0
sg58
I0
sg36
I0
sg55
I0
sg37
I0
sg56
I0
sg11
I0
sg42
I0
sg8
I0
sg9
I0
sg54
I0
sg23
I0
sg13
I0
sg62
I0
sg14
I0
sg17
I0
sg32
I0
sg31
I0
sg43
I0
sg46
I0
sg34
I0
sg16
I0
sg61
I0
sg57
I0
sg44
I0
sg29
I0
sg20
I0
sg45
I0
sg41
I0
sg35
I0
sg30
I0
sg40
I0
sg12
I0
sg50
I0
sg21
I0
ssg17
(dp333
g24
I0
sg15
I0
sg75
I0
sg22
I0
sg79
I0
sg48
I0
sg65
I0
sg67
I0
sg76
I0
sg31
I0
sg80
I0
sg27
I0
sg28
I0
sg10
I0
sg47
I0
sg26
I0
sg38
I0
sg39
I0
sg19
I0
sg18
I0
sg25
I0
sg77
I0
sg36
I0
sg81
I0
sg37
I0
sg82
I0
sg64
I0
sg11
I0
sg42
I0
sg8
I0
sg68
I0
sg9
I0
sg83
I0
sg23
I0
sg13
I0
sg14
I0
sg33
I0
sg17
I0
sg32
I0
sg43
I0
sg69
I0
sg46
I0
sg34
I0
sg66
I0
sg16
I0
sg84
I0
sg44
I0
sg29
I0
sg20
I0
sg45
I0
sg41
I0
sg35
I0
sg30
I0
sg40
I0
sg12
I0
sg85
I0
sg60
I0
sg21
I0
ssg32
(dp334
g24
I0
sg15
I0
sg70
I0
sg75
I0
sg22
I0
sg248
I0
sg233
I0
sg48
I0
sg63
I0
sg76
I0
sg31
I0
sg236
I0
sg27
I0
sg28
I0
sg10
I0
sg47
I0
sg26
I0
sg38
I0
sg39
I0
sg19
I0
sg18
I0
sg25
I0
sg77
I0
sg36
I0
sg245
I0
sg37
I0
sg246
I0
sg11
I0
sg42
I0
sg8
I0
sg9
I0
sg250
I0
sg23
I0
sg13
I0
sg62
I0
sg14
I0
sg33
I0
sg17
I0
sg32
I6
sg43
I0
sg268
I0
sg46
I0
sg34
I0
sg16
I0
sg61
I0
sg269
I0
sg44
I0
sg29
I0
sg20
I0
sg45
I0
sg41
I0
sg35
I0
sg30
I0
sg40
I0
sg12
I0
sg244
I0
sg60
I0
sg21
I0
ssg43
(dp335
g182
I0
sg183
I0
sg70
I0
sg59
I0
sg184
I0
sg49
I0
sg52
I0
sg48
I0
sg65
I0
sg67
I0
sg63
I0
sg167
I0
sg185
I0
sg51
I0
sg186
I0
sg187
I0
sg188
I0
sg47
I0
sg189
I0
sg190
I0
sg191
I0
sg192
I0
sg193
I0
sg194
I0
sg195
I0
sg55
I0
sg196
I0
sg56
I0
sg64
I0
sg197
I0
sg42
I0
sg53
I0
sg58
I0
sg54
I0
sg198
I0
sg140
I0
sg62
I0
sg199
I0
sg200
I0
sg201
I0
sg202
I0
sg43
I0
sg46
I0
sg203
I0
sg204
I0
sg61
I0
sg57
I0
sg44
I6
sg205
I0
sg206
I0
sg45
I0
sg207
I0
sg208
I0
sg209
I0
sg210
I0
sg50
I0
sg180
I0
sg66
I0
ssg69
(dp336
g309
I0
sg310
I0
sg174
I0
sg159
I0
sg316
I0
sg178
I0
sg160
I0
sS'pan.n.01'
p337
I0
sg312
I0
sg313
I0
sg175
I0
sg314
I0
sg165
I0
sg161
I0
sg162
I0
sg176
I0
sg315
I0
sg69
I0
sg317
I0
sg163
I0
sg311
I0
sg318
I0
sg319
I0
sg320
I0
sS'whipped_cream.n.01'
p338
I0
sg321
I0
sg164
I0
sS'water.n.06'
p339
I0
sg322
I0
sg323
I0
sS'cake.n.03'
p340
I0
sg68
I0
sg324
I0
sg325
I0
ssg46
(dp341
g182
I0
sg183
I0
sg70
I0
sg59
I0
sg184
I0
sg49
I0
sg52
I0
sg48
I0
sg65
I0
sg67
I0
sg63
I0
sg167
I0
sg185
I0
sg51
I0
sg186
I0
sg187
I0
sg188
I0
sg47
I5
sg189
I0
sg190
I0
sg191
I0
sg192
I0
sg193
I0
sg194
I0
sg195
I0
sg55
I0
sg196
I0
sg56
I0
sg64
I0
sg197
I0
sg42
I0
sg53
I0
sg58
I0
sg54
I0
sg198
I0
sg140
I0
sg62
I0
sg199
I0
sg200
I0
sg201
I0
sg202
I0
sg43
I0
sg46
I1
sg203
I0
sg204
I0
sg61
I0
sg57
I0
sg44
I0
sg205
I0
sg206
I0
sg45
I0
sg207
I0
sg208
I0
sg209
I0
sg210
I0
sg50
I0
sg180
I0
sg66
I0
ssg34
(dp342
g24
I0
sg15
I0
sg70
I0
sg59
I0
sg22
I0
sg49
I0
sg52
I0
sg48
I0
sg63
I0
sg53
I0
sg31
I0
sg51
I0
sg27
I0
sg28
I0
sg10
I0
sg47
I0
sg26
I0
sg38
I0
sg39
I0
sg19
I0
sg18
I0
sg25
I0
sg58
I0
sg36
I0
sg55
I0
sg37
I0
sg56
I0
sg11
I0
sg42
I2
sg8
I0
sg9
I0
sg54
I0
sg23
I0
sg13
I0
sg62
I0
sg14
I0
sg33
I0
sg17
I0
sg32
I0
sg43
I0
sg46
I0
sg34
I4
sg16
I0
sg61
I0
sg57
I0
sg44
I0
sg29
I0
sg20
I0
sg45
I0
sg41
I0
sg35
I0
sg30
I0
sg40
I0
sg12
I0
sg50
I0
sg60
I0
sg21
I0
ssg66
(dp343
g173
I0
sg212
I0
sg79
I0
sg213
I0
sg65
I0
sg67
I0
sg214
I0
sg80
I0
sg215
I0
sg216
I0
sg217
I0
sg218
I0
sg85
I0
sg82
I0
sg81
I0
sg64
I0
sg219
I0
sg220
I0
sg221
I0
sg83
I0
sg222
I0
sg223
I0
sg177
I0
sg224
I0
sg225
I0
sg179
I0
sg84
I0
sg226
I0
sg66
I0
sg227
I0
sg228
I0
sg229
I0
sg180
I0
ssg16
(dp344
g24
I0
sg15
I0
sg75
I0
sg22
I0
sg79
I0
sg48
I0
sg65
I0
sg67
I0
sg76
I0
sg31
I0
sg80
I0
sg27
I0
sg28
I0
sg10
I0
sg47
I0
sg26
I0
sg38
I0
sg39
I0
sg19
I0
sg18
I0
sg25
I0
sg77
I0
sg36
I0
sg81
I0
sg37
I0
sg82
I0
sg64
I0
sg11
I0
sg42
I0
sg8
I0
sg68
I0
sg9
I0
sg83
I0
sg23
I0
sg13
I0
sg14
I0
sg33
I0
sg17
I6
sg32
I0
sg43
I0
sg69
I0
sg46
I0
sg34
I0
sg66
I0
sg16
I0
sg84
I0
sg44
I0
sg29
I0
sg20
I0
sg45
I0
sg41
I0
sg35
I0
sg30
I0
sg40
I0
sg12
I0
sg85
I0
sg60
I0
sg21
I0
ssg61
(dp345
g232
I0
sg233
I0
sg234
I0
sg63
I0
sg235
I0
sg236
I0
sg168
I0
sg237
I0
sg238
I0
sg239
I0
sg240
I0
sg241
I0
sg242
I0
sg243
I0
sg244
I0
sg245
I0
sg246
I0
sg247
I0
sg248
I0
sg249
I0
sg250
I0
sg251
I0
sg62
I0
sg252
I0
sg169
I0
sg253
I0
sg254
I0
sg255
I0
sg61
I0
sg256
I0
sg257
I0
sg258
I0
sg259
I0
sg260
I0
sg170
I0
sg261
I0
ssg57
(dp346
g173
I0
sg59
I0
sg123
I0
sg52
I0
sg125
I0
sg65
I0
sg67
I0
sg167
I0
sg127
I0
sg51
I0
sg337
I0
sg129
I0
sg130
I0
sg131
I0
sg132
I0
sg133
I0
sg134
I0
sg174
I0
sg175
I0
sg137
I0
sg50
I0
sg55
I0
sg56
I0
sg64
I0
sg138
I0
sg49
I0
sg53
I0
sg68
I0
sg58
I0
sg54
I0
sg176
I0
sg140
I0
sg141
I0
sg177
I0
sg338
I0
sg178
I0
sg145
I0
sg146
I0
sg69
I0
sg147
I0
sg148
I0
sg179
I0
sg57
I0
sg150
I0
sg151
I0
sg152
I0
sg153
I0
sg154
I0
sg340
I0
sg156
I0
sg171
I0
sg180
I0
sg66
I0
ssg44
(dp347
g182
I0
sg183
I0
sg70
I0
sg59
I0
sg184
I0
sg49
I0
sg52
I0
sg48
I0
sg65
I0
sg67
I0
sg63
I0
sg167
I0
sg200
I0
sg51
I0
sg186
I0
sg187
I0
sg188
I0
sg47
I0
sg189
I0
sg190
I0
sg191
I0
sg192
I0
sg193
I0
sg185
I0
sg195
I0
sg55
I0
sg196
I0
sg56
I0
sg64
I0
sg197
I0
sg42
I0
sg53
I0
sg58
I0
sg54
I0
sg198
I0
sg140
I0
sg62
I0
sg199
I0
sg201
I0
sg202
I0
sg194
I0
sg43
I0
sg46
I0
sg203
I0
sg204
I0
sg61
I0
sg57
I0
sg44
I0
sg205
I0
sg206
I0
sg45
I0
sg207
I0
sg208
I0
sg209
I0
sg210
I0
sg50
I0
sg180
I0
sg66
I0
ssg29
(dp348
g24
I0
sg15
I0
sg70
I0
sg59
I0
sg22
I0
sg49
I0
sg52
I0
sg48
I0
sg63
I0
sg53
I0
sg31
I0
sg51
I0
sg27
I0
sg28
I0
sg10
I0
sg47
I0
sg26
I0
sg38
I0
sg39
I0
sg19
I0
sg18
I0
sg25
I0
sg58
I0
sg36
I0
sg55
I0
sg37
I0
sg56
I0
sg11
I0
sg42
I0
sg8
I0
sg9
I0
sg54
I0
sg23
I0
sg13
I0
sg62
I0
sg14
I0
sg33
I0
sg17
I0
sg32
I0
sg43
I0
sg268
I0
sg46
I0
sg34
I0
sg16
I0
sg61
I2
sg57
I0
sg44
I0
sg29
I10
sg20
I0
sg45
I0
sg41
I0
sg35
I0
sg30
I0
sg40
I0
sg12
I0
sg50
I0
sg60
I0
sg21
I0
ssg20
(dp349
g24
I0
sg15
I0
sg70
I0
sg59
I0
sg22
I0
sg49
I0
sg52
I0
sg48
I0
sg65
I0
sg67
I0
sg63
I0
sg53
I0
sg31
I0
sg51
I0
sg27
I0
sg28
I0
sg10
I0
sg47
I0
sg26
I0
sg38
I0
sg39
I0
sg19
I0
sg18
I0
sg25
I0
sg58
I0
sg36
I0
sg55
I0
sg37
I0
sg56
I0
sg64
I0
sg11
I0
sg42
I0
sg8
I0
sg68
I0
sg9
I0
sg54
I0
sg23
I0
sg13
I0
sg62
I0
sg14
I0
sg33
I0
sg17
I0
sg32
I0
sg43
I0
sg69
I0
sg46
I0
sg34
I0
sg66
I1
sg16
I0
sg61
I0
sg57
I0
sg44
I0
sg29
I0
sg20
I29
sg45
I0
sg41
I0
sg35
I0
sg30
I0
sg40
I0
sg12
I0
sg50
I0
sg60
I0
sg21
I0
ssg45
(dp350
g182
I0
sg183
I0
sg70
I0
sg59
I0
sg184
I0
sg49
I0
sg52
I0
sg48
I0
sg65
I0
sg67
I0
sg63
I0
sg167
I0
sg185
I0
sg51
I0
sg186
I0
sg187
I0
sg188
I0
sg47
I0
sg189
I0
sg190
I0
sg191
I0
sg192
I0
sg193
I0
sg194
I0
sg195
I0
sg55
I0
sg196
I0
sg56
I0
sg64
I0
sg197
I0
sg42
I0
sg53
I0
sg68
I0
sg58
I0
sg54
I0
sg198
I0
sg140
I0
sg62
I0
sg199
I0
sg200
I0
sg201
I0
sg202
I0
sg43
I0
sg69
I0
sg46
I0
sg203
I0
sg204
I0
sg61
I0
sg57
I0
sg44
I0
sg205
I0
sg206
I0
sg45
I12
sg207
I0
sg208
I0
sg209
I0
sg210
I0
sg50
I0
sg180
I0
sg66
I0
ssg41
(dp351
g24
I0
sg15
I0
sg22
I0
sg31
I0
sg27
I0
sg28
I0
sg10
I0
sg26
I0
sg38
I0
sg39
I0
sg19
I0
sg18
I0
sg25
I0
sg36
I0
sg37
I0
sg11
I0
sg8
I0
sg9
I0
sg23
I0
sg13
I0
sg14
I0
sg33
I0
sg17
I0
sg32
I0
sg34
I0
sg16
I0
sg29
I0
sg20
I0
sg41
I0
sg35
I0
sg30
I0
sg40
I0
sg12
I0
sg21
I0
ssg35
(dp352
g24
I0
sg15
I0
sg70
I0
sg59
I0
sg22
I0
sg49
I0
sg52
I0
sg48
I0
sg63
I0
sg53
I0
sg31
I0
sg51
I0
sg27
I0
sg28
I0
sg10
I0
sg47
I0
sg26
I0
sg38
I0
sg39
I0
sg19
I0
sg18
I0
sg25
I0
sg58
I0
sg36
I0
sg55
I0
sg37
I0
sg56
I0
sg11
I0
sg42
I0
sg8
I0
sg9
I0
sg54
I0
sg23
I0
sg13
I0
sg62
I0
sg14
I0
sg33
I0
sg17
I0
sg32
I0
sg43
I0
sg46
I0
sg34
I0
sg16
I0
sg61
I0
sg57
I0
sg44
I0
sg29
I0
sg20
I0
sg45
I0
sg41
I0
sg35
I6
sg30
I0
sg40
I0
sg12
I0
sg50
I0
sg60
I0
sg21
I0
ssg30
(dp353
g24
I0
sg15
I0
sg70
I0
sg75
I0
sg22
I0
sg248
I0
sg233
I0
sg48
I0
sg63
I0
sg76
I0
sg31
I4
sg236
I0
sg27
I0
sg28
I0
sg10
I0
sg47
I0
sg26
I0
sg38
I0
sg39
I0
sg19
I0
sg18
I0
sg25
I0
sg77
I0
sg36
I0
sg245
I0
sg37
I0
sg246
I0
sg11
I0
sg42
I0
sg8
I0
sg9
I0
sg250
I0
sg23
I0
sg13
I0
sg62
I0
sg14
I0
sg33
I0
sg17
I0
sg32
I0
sg43
I0
sg268
I0
sg46
I0
sg34
I0
sg16
I0
sg61
I0
sg269
I0
sg44
I0
sg29
I0
sg20
I0
sg45
I0
sg41
I0
sg35
I0
sg30
I2
sg40
I0
sg12
I0
sg244
I0
sg60
I0
sg21
I0
ssg40
(dp354
g24
I0
sg15
I0
sg70
I0
sg59
I0
sg22
I0
sg49
I0
sg52
I0
sg48
I0
sg63
I0
sg53
I0
sg31
I0
sg51
I0
sg27
I0
sg28
I0
sg10
I0
sg47
I0
sg26
I0
sg38
I0
sg39
I0
sg19
I0
sg18
I0
sg25
I0
sg58
I0
sg36
I0
sg55
I0
sg37
I0
sg56
I0
sg11
I0
sg42
I0
sg8
I0
sg9
I0
sg54
I0
sg23
I0
sg13
I0
sg62
I0
sg14
I0
sg33
I0
sg17
I0
sg32
I0
sg43
I0
sg46
I0
sg34
I0
sg16
I0
sg61
I0
sg57
I0
sg44
I0
sg29
I0
sg20
I0
sg45
I0
sg41
I1
sg35
I0
sg30
I0
sg40
I5
sg12
I0
sg50
I0
sg21
I0
ssg12
(dp355
g24
I0
sg15
I0
sg70
I0
sg75
I0
sg22
I0
sg284
I0
sg285
I0
sg48
I0
sg65
I0
sg67
I0
sg89
I0
sg76
I0
sg31
I0
sg287
I0
sg27
I0
sg28
I0
sg10
I0
sg47
I0
sg26
I0
sg38
I0
sg39
I0
sg19
I0
sg18
I0
sg25
I0
sg77
I0
sg36
I0
sg289
I0
sg37
I0
sg290
I0
sg64
I0
sg11
I0
sg42
I0
sg8
I0
sg68
I0
sg9
I0
sg291
I0
sg23
I0
sg13
I0
sg105
I0
sg14
I0
sg33
I0
sg17
I0
sg32
I0
sg43
I0
sg69
I0
sg46
I0
sg34
I0
sg66
I0
sg16
I0
sg292
I0
sg44
I0
sg29
I0
sg20
I0
sg45
I0
sg41
I0
sg35
I0
sg30
I0
sg40
I0
sg12
I5
sg293
I0
sg60
I6
sg21
I1
ssg50
(dp356
g173
I0
sg70
I0
sg59
I0
sg123
I0
sg52
I0
sg125
I0
sg65
I0
sg67
I0
sg63
I0
sg167
I0
sg127
I0
sg51
I0
sg168
I0
sg129
I0
sg130
I0
sg131
I0
sg132
I0
sg133
I0
sg134
I0
sg174
I0
sg175
I0
sg137
I0
sg50
I6
sg55
I0
sg56
I0
sg64
I0
sg138
I0
sg49
I0
sg53
I0
sg68
I0
sg58
I0
sg54
I0
sg176
I0
sg140
I0
sg62
I0
sg141
I0
sg177
I0
sg169
I0
sg145
I0
sg146
I0
sg69
I0
sg147
I0
sg148
I0
sg179
I0
sg61
I0
sg57
I0
sg150
I0
sg151
I0
sg152
I0
sg153
I0
sg154
I0
sg170
I0
sg156
I0
sg171
I0
sg180
I0
sg66
I0
ssg60
(dp357
g121
I0
sg122
I0
sg75
I0
sg135
I0
sg79
I0
sg213
I0
sg65
I0
sg67
I0
sg126
I0
sg144
I0
sg80
I0
sg128
I0
sS'pan.n.03'
p358
I0
sS'cut.v.01'
p359
I0
sg217
I0
sg136
I0
sS'fill.v.01'
p360
I0
sg85
I0
sg81
I0
sg82
I0
sg64
I0
sS'slice.v.03'
p361
I0
sg124
I0
sg76
I0
sg77
I0
sg83
I0
sg139
I0
sg300
I0
sS'pepper.n.03'
p362
I0
sg142
I0
sg143
I0
sg224
I0
sg69
I0
sg225
I0
sS'mug.n.04'
p363
I0
sg149
I0
sg84
I0
sg226
I0
sS'water.n.06'
p364
I0
sS'put.v.01'
p365
I0
sg228
I0
sS'kettle.n.01'
p366
I0
sg155
I0
sg68
I0
sg157
I0
sg60
I0
sg66
I0
ssg21
(dp367
g24
I0
sg15
I0
sg22
I0
sg31
I0
sg27
I0
sg28
I0
sg10
I0
sg26
I0
sg38
I0
sg39
I0
sg19
I0
sg18
I0
sg25
I0
sg36
I0
sg37
I0
sg11
I0
sg8
I0
sg9
I0
sg23
I0
sg13
I0
sg14
I0
sg33
I0
sg17
I0
sg32
I0
sg34
I0
sg16
I0
sg29
I0
sg20
I0
sg41
I0
sg35
I0
sg30
I0
sg40
I0
sg12
I0
sg21
I0
sssb.