ccopy_reg
_reconstructor
p0
(cutils.eval
ConfusionMatrix
p1
c__builtin__
object
p2
Ntp3
Rp4
(dp5
S'labels'
p6
(lp7
S'piece.n.08'
p8
aS'slice.n.06'
p9
aS'pizza.n.01'
p10
aS'slice.v.03'
p11
aS'slice.v.02'
p12
aS'opening.n.01'
p13
aS'fill.v.09'
p14
aS'fill.v.01'
p15
aS'batter.n.02'
p16
aS'batter.n.01'
p17
aS'pitcher.n.02'
p18
aS'milk.n.01'
p19
aS'put.v.01'
p20
aS'pan.n.03'
p21
aS'cut.v.01'
p22
aS'bread.n.01'
p23
aS'knife.n.01'
p24
aS'knife.n.02'
p25
aS'meat.n.01'
p26
aS'cleaver.n.01'
p27
aS'helicopter.n.01'
p28
aS'banana.n.02'
p29
aS'put.v.02'
p30
aS'chicken.n.01'
p31
aS'wimp.n.01'
p32
aS'cabbage.n.01'
p33
aS'onion.n.01'
p34
aS'onion.n.03'
p35
aS'pepper.n.04'
p36
aS'pepper.n.03'
p37
aS'cheese.n.01'
p38
aS'flesh.n.01'
p39
aS'human_body.n.01'
p40
asS'instanceCount'
p41
I33
sS'matrix'
p42
(dp43
g38
(dp44
S'cheese.n.01'
p45
I1
ssg31
(dp46
g32
I1
ssg23
(dp47
S'bread.n.01'
p48
I1
ssg16
(dp49
g17
I1
ssg17
(dp50
g17
I0
ssg32
(dp51
g32
I0
ssg33
(dp52
S'cabbage.n.01'
p53
I1
ssg19
(dp54
S'milk.n.01'
p55
I1
ssg21
(dp56
S'pan.n.03'
p57
I2
ssg22
(dp58
S'cut.v.01'
p59
I3
ssg14
(dp60
g15
I1
ssg15
(dp61
g15
I1
ssg18
(dp62
S'pitcher.n.02'
p63
I1
ssg27
(dp64
g28
I1
ssg26
(dp65
S'meat.n.01'
p66
I1
ssg12
(dp67
g12
I0
ssg11
(dp68
g12
I1
sS'slice.v.03'
p69
I4
ssg24
(dp70
g25
I2
ssg29
(dp71
S'banana.n.02'
p72
I1
ssg25
(dp73
g25
I0
ssg36
(dp74
g37
I1
ssg37
(dp75
g37
I0
ssg40
(dp76
g40
I0
ssg8
(dp77
g9
I1
ssg13
(dp78
S'opening.n.01'
p79
I1
ssg39
(dp80
g40
I1
ssg28
(dp81
g28
I0
ssg9
(dp82
g9
I0
ssg30
(dp83
g30
I0
ssg20
(dp84
g30
I1
sS'put.v.01'
p85
I1
ssg10
(dp86
S'pizza.n.01'
p87
I2
ssg34
(dp88
g35
I1
ssg35
(dp89
g35
I0
sssb.