ccopy_reg
_reconstructor
p0
(cutils.eval
ConfusionMatrix
p1
c__builtin__
object
p2
Ntp3
Rp4
(dp5
S'labels'
p6
(lp7
S'fill.v.01'
p8
aS'foam.n.01'
p9
aS'mug.n.04'
p10
aS'kettle.n.01'
p11
aS'water.n.06'
p12
aS'put.v.01'
p13
aS'pepper.n.03'
p14
aS'pepper.n.04'
p15
aS'salt.n.02'
p16
aS'salt.n.01'
p17
aS'egg.n.02'
p18
aS'egg.n.01'
p19
aS'cut.v.01'
p20
aS'lemon.n.01'
p21
aS'piece.n.08'
p22
aS'slice.n.06'
p23
aS'pizza.n.01'
p24
aS'slice.v.03'
p25
aS'opening.n.01'
p26
aS'gap.n.03'
p27
aS'fill.v.09'
p28
aS'batter.n.02'
p29
aS'pitcher.n.02'
p30
aS'milk.n.01'
p31
aS'pan.n.03'
p32
aS'bread.n.01'
p33
aS'knife.n.01'
p34
aS'knife.n.02'
p35
aS'meat.n.01'
p36
aS'cleaver.n.01'
p37
aS'helicopter.n.01'
p38
aS'banana.n.02'
p39
aS'chicken.n.01'
p40
asS'instanceCount'
p41
I36
sS'matrix'
p42
(dp43
g40
(dp44
S'chicken.n.01'
p45
I1
ssg25
(dp46
S'slice.v.03'
p47
I2
ssg33
(dp48
S'bread.n.01'
p49
I1
ssg29
(dp50
S'batter.n.02'
p51
I1
ssg9
(dp52
S'foam.n.01'
p53
I1
ssg31
(dp54
S'milk.n.01'
p55
I1
ssg32
(dp56
S'pan.n.03'
p57
I2
ssg20
(dp58
S'cut.v.01'
p59
I3
ssg27
(dp60
g27
I0
ssg28
(dp61
S'fill.v.01'
p62
I1
ssg18
(dp63
g19
I1
ssg19
(dp64
g19
I0
ssg8
(dp65
S'fill.v.01'
p66
I3
ssg30
(dp67
S'pitcher.n.02'
p68
I1
ssg36
(dp69
S'meat.n.01'
p70
I1
ssg37
(dp71
g38
I1
ssg16
(dp72
g17
I1
ssg17
(dp73
g17
I0
ssg34
(dp74
g35
I2
ssg39
(dp75
S'banana.n.02'
p76
I1
ssg35
(dp77
g35
I0
ssg15
(dp78
g15
I0
ssg14
(dp79
g15
I1
ssg22
(dp80
g23
I1
ssg26
(dp81
g27
I1
ssg10
(dp82
S'mug.n.04'
p83
I1
ssg38
(dp84
g38
I0
ssg23
(dp85
g23
I0
ssg12
(dp86
S'water.n.06'
p87
I1
ssg13
(dp88
S'put.v.01'
p89
I3
ssg24
(dp90
S'pizza.n.01'
p91
I2
ssg11
(dp92
S'kettle.n.01'
p93
I1
ssg21
(dp94
S'lemon.n.01'
p95
I1
sssb.