ccopy_reg
_reconstructor
p0
(cutils.eval
ConfusionMatrix
p1
c__builtin__
object
p2
Ntp3
Rp4
(dp5
S'labels'
p6
(lp7
S'cut.v.01'
p8
aS'bread.n.01'
p9
aS'knife.n.01'
p10
aS'knife.n.02'
p11
aS'meat.n.01'
p12
aS'cleaver.n.01'
p13
aS'helicopter.n.01'
p14
aS'banana.n.02'
p15
aS'slice.v.03'
p16
aS'put.v.01'
p17
aS'pan.n.03'
p18
aS'chicken.n.01'
p19
aS'cabbage.n.01'
p20
aS'onion.n.01'
p21
aS'onion.n.03'
p22
aS'pepper.n.04'
p23
aS'pepper.n.03'
p24
aS'cheese.n.01'
p25
aS'flesh.n.01'
p26
aS'human_body.n.01'
p27
aS'bacon.n.01'
p28
aS'beef.n.02'
p29
aS'plate.n.04'
p30
aS'plate.n.08'
p31
aS'fill.v.01'
p32
aS'pan.n.01'
p33
aS'water.n.06'
p34
aS'cake.n.03'
p35
aS'patty.n.01'
p36
aS'whipped_cream.n.01'
p37
asS'instanceCount'
p38
I33
sS'matrix'
p39
(dp40
g25
(dp41
S'cheese.n.01'
p42
I1
ssg19
(dp43
S'chicken.n.01'
p44
I1
ssg29
(dp45
S'beef.n.02'
p46
I1
ssg9
(dp47
S'bread.n.01'
p48
I1
ssg20
(dp49
S'cabbage.n.01'
p50
I1
ssg36
(dp51
g36
I0
ssg33
(dp52
S'pan.n.03'
p53
I1
ssg18
(dp54
S'pan.n.03'
p55
I1
ssg8
(dp56
S'cut.v.01'
p57
I4
ssg28
(dp58
S'bacon.n.01'
p59
I1
ssg32
(dp60
S'fill.v.01'
p61
I1
ssg13
(dp62
g14
I1
ssg12
(dp63
S'meat.n.01'
p64
I1
ssg16
(dp65
S'slice.v.03'
p66
I4
ssg10
(dp67
g11
I2
ssg15
(dp68
S'banana.n.02'
p69
I1
ssg11
(dp70
g11
I0
ssg30
(dp71
g31
I1
ssg23
(dp72
g24
I1
ssg24
(dp73
g24
I0
ssg27
(dp74
g27
I0
ssg37
(dp75
S'whipped_cream.n.01'
p76
I1
ssg31
(dp77
g31
I0
ssg26
(dp78
g27
I1
ssg14
(dp79
g14
I0
ssg34
(dp80
S'water.n.06'
p81
I1
ssg17
(dp82
S'put.v.01'
p83
I3
ssg35
(dp84
g36
I1
ssg21
(dp85
g22
I2
ssg22
(dp86
g22
I0
sssb.