ccopy_reg
_reconstructor
p0
(cutils.eval
ConfusionMatrix
p1
c__builtin__
object
p2
Ntp3
Rp4
(dp5
S'labels'
p6
(lp7
S'knife.n.01'
p8
aS'banana.n.02'
p9
aS'banana.n.01'
p10
aS'slice.v.03'
p11
aS'slice.v.02'
p12
aS'piece.n.08'
p13
aS'slice.n.05'
p14
aS'pizza.n.01'
p15
asS'instanceCount'
p16
I6
sS'matrix'
p17
(dp18
g12
(dp19
g12
I0
ssg11
(dp20
g12
I2
ssg8
(dp21
S'knife.n.01'
p22
I1
ssg10
(dp23
g10
I0
ssg9
(dp24
g10
I1
ssg14
(dp25
g14
I0
ssg13
(dp26
g14
I1
ssg15
(dp27
S'pizza.n.01'
p28
I1
sssb.