ccopy_reg
_reconstructor
p0
(cutils.eval
ConfusionMatrix
p1
c__builtin__
object
p2
Ntp3
Rp4
(dp5
S'labels'
p6
(lp7
S'piece.n.08'
p8
aS'slice.n.05'
p9
aS'pizza.n.01'
p10
aS'slice.v.03'
p11
aS'slice.v.02'
p12
aS'flesh.n.01'
p13
asS'instanceCount'
p14
I5
sS'matrix'
p15
(dp16
g12
(dp17
g12
I0
ssg11
(dp18
g12
I2
ssg13
(dp19
S'flesh.n.01'
p20
I1
ssg10
(dp21
S'pizza.n.01'
p22
I1
ssg8
(dp23
g9
I1
ssg9
(dp24
g9
I0
sssb.