ccopy_reg
_reconstructor
p0
(cutils.eval
ConfusionMatrix
p1
c__builtin__
object
p2
Ntp3
Rp4
(dp5
S'labels'
p6
(lp7
S'fill.v.01'
p8
aS'kettle.n.01'
p9
aS'kettle_hole.n.01'
p10
aS'water.n.06'
p11
aS'pitcher.n.02'
p12
aS'pitcher.n.01'
p13
aS'milk.n.01'
p14
aS'milk.n.02'
p15
asS'instanceCount'
p16
I6
sS'matrix'
p17
(dp18
g12
(dp19
g13
I1
ssg11
(dp20
S'water.n.06'
p21
I1
ssg8
(dp22
S'fill.v.01'
p23
I2
ssg10
(dp24
g10
I0
ssg13
(dp25
g13
I0
ssg9
(dp26
g10
I1
ssg14
(dp27
g15
I1
ssg15
(dp28
g15
I0
sssb.