ccopy_reg
_reconstructor
p0
(cutils.eval
ConfusionMatrix
p1
c__builtin__
object
p2
Ntp3
Rp4
(dp5
S'labels'
p6
(lp7
S'cheese.n.01'
p8
aS'slice.v.03'
p9
aS'knife.n.01'
p10
aS'tongue.n.03'
p11
aS'banana.n.02'
p12
aS'slice.v.02'
p13
asS'instanceCount'
p14
I5
sS'matrix'
p15
(dp16
g13
(dp17
g13
I0
ssg8
(dp18
S'cheese.n.01'
p19
I1
ssg10
(dp20
g11
I1
ssg12
(dp21
S'banana.n.02'
p22
I1
ssg9
(dp23
g13
I1
sS'slice.v.03'
p24
I1
ssg11
(dp25
g11
I0
sssb.