ccopy_reg
_reconstructor
p0
(cutils.eval
ConfusionMatrix
p1
c__builtin__
object
p2
Ntp3
Rp4
(dp5
S'labels'
p6
(lp7
S'fill.v.01'
p8
aS'pitcher.n.02'
p9
aS'milk.n.01'
p10
aS'piece.n.08'
p11
aS'slice.n.05'
p12
aS'pizza.n.01'
p13
aS'slice.v.03'
p14
asS'instanceCount'
p15
I6
sS'matrix'
p16
(dp17
g8
(dp18
S'fill.v.01'
p19
I1
ssg14
(dp20
S'slice.v.03'
p21
I1
ssg13
(dp22
S'pizza.n.01'
p23
I1
ssg9
(dp24
S'pitcher.n.02'
p25
I1
ssg11
(dp26
g12
I1
ssg12
(dp27
g12
I0
ssg10
(dp28
S'milk.n.01'
p29
I1
sssb.