ccopy_reg
_reconstructor
p0
(cutils.eval
ConfusionMatrix
p1
c__builtin__
object
p2
Ntp3
Rp4
(dp5
S'labels'
p6
(lp7
S'fill.v.01'
p8
aS'foam.n.01'
p9
aS'mug.n.04'
p10
aS'tomato.n.01'
p11
aS'tomato.n.02'
p12
aS'piece.n.08'
p13
aS'cut.n.05'
p14
aS'onion.n.03'
p15
aS'mustard.n.02'
p16
aS'cheese.n.01'
p17
aS'slice.v.03'
p18
aS'knife.n.01'
p19
aS'tongue.n.03'
p20
aS'banana.n.02'
p21
aS'slice.v.02'
p22
aS'flesh.n.01'
p23
aS'pulp.n.02'
p24
aS'opening.n.01'
p25
aS'fill.v.09'
p26
aS'batter.n.02'
p27
aS'pan.n.01'
p28
aS'pan.n.03'
p29
aS'water.n.06'
p30
aS'gap.n.01'
p31
aS'kettle.n.01'
p32
aS'kettle_hole.n.01'
p33
aS'pitcher.n.02'
p34
aS'pitcher.n.01'
p35
aS'milk.n.01'
p36
aS'milk.n.02'
p37
aS'catsup.n.01'
p38
aS'mustard.n.01'
p39
aS'human_body.n.01'
p40
aS'slice.n.05'
p41
aS'pizza.n.01'
p42
asS'instanceCount'
p43
I59
sS'matrix'
p44
(dp45
g17
(dp46
g22
I0
sg17
I2
sS'mustard.n.02'
p47
I0
sg19
I0
sg21
I0
sg18
I0
sS'tomato.n.02'
p48
I0
sS'tomato.n.01'
p49
I0
sg20
I0
sg38
I0
sS'piece.n.08'
p50
I0
sg39
I0
sS'onion.n.03'
p51
I0
sS'cut.n.05'
p52
I0
ssg42
(dp53
S'slice.v.03'
p54
I0
sS'fill.v.01'
p55
I0
sS'mug.n.04'
p56
I0
sg41
I0
sS'pitcher.n.02'
p57
I0
sg42
I2
sS'piece.n.08'
p58
I0
sS'foam.n.01'
p59
I0
sS'milk.n.01'
p60
I0
ssg27
(dp61
S'water.n.06'
p62
I0
sS'slice.v.03'
p63
I0
sg26
I0
sg23
I0
sg31
I0
sS'fill.v.01'
p64
I0
sg32
I0
sg27
I2
sg24
I0
sg25
I0
ssg9
(dp65
g10
I0
sg16
I0
sg41
I0
sg54
I0
sg12
I0
sg11
I0
sg8
I0
sg42
I0
sg13
I0
sg9
I2
sg15
I0
sg14
I0
ssg36
(dp66
S'pizza.n.01'
p67
I0
sS'slice.v.03'
p68
I0
sg34
I0
sS'water.n.06'
p69
I0
sS'fill.v.01'
p70
I0
sg33
I0
sg35
I0
sS'kettle.n.01'
p71
I0
sS'piece.n.08'
p72
I0
sS'slice.n.05'
p73
I0
sg36
I1
sg37
I1
ssg37
(dp74
g34
I0
sg69
I0
sg70
I0
sg33
I0
sg35
I0
sg71
I0
sg36
I0
sg37
I0
ssg28
(dp75
g28
I0
sS'slice.v.03'
p76
I0
sg29
I2
sS'knife.n.01'
p77
I0
sS'banana.n.02'
p78
I0
sS'flesh.n.01'
p79
I0
sg30
I0
sS'fill.v.01'
p80
I0
sg40
I0
sS'tongue.n.03'
p81
I0
ssg39
(dp82
g39
I0
sg47
I0
sS'cheese.n.01'
p83
I0
sg48
I0
sg49
I0
sS'slice.v.03'
p84
I0
sg38
I0
sg50
I0
sg51
I0
sg52
I0
ssg16
(dp85
g10
I0
sg16
I1
sg39
I1
sg12
I0
sg11
I0
sg84
I0
sg8
I0
sg83
I0
sg38
I0
sg13
I0
sg9
I0
sg15
I0
sg14
I0
ssg26
(dp86
g62
I0
sg63
I0
sg23
I0
sg26
I0
sg31
I0
sg64
I2
sg32
I0
sg27
I0
sg24
I0
sg25
I0
ssg12
(dp87
g10
I0
sg16
I0
sg39
I0
sg12
I0
sg11
I0
sg84
I0
sg8
I0
sg83
I0
sg38
I0
sg13
I0
sg9
I0
sg15
I0
sg14
I0
ssg11
(dp88
g10
I0
sg16
I0
sg39
I0
sg12
I2
sg11
I0
sg84
I0
sg8
I0
sg83
I0
sg38
I0
sg13
I0
sg9
I0
sg15
I0
sg14
I0
ssg8
(dp89
g42
I0
sg27
I0
sg9
I0
sg36
I0
sg37
I0
sg28
I0
sg16
I0
sg26
I0
sg12
I0
sg11
I0
sg8
I8
sg34
I0
sg35
I0
sg14
I0
sg63
I0
sg77
I0
sg78
I0
sg29
I0
sg40
I0
sg13
I0
sg25
I0
sg10
I0
sg23
I0
sg31
I0
sg30
I0
sg41
I0
sg33
I0
sg32
I0
sg15
I0
sg81
I0
sg24
I0
ssg34
(dp90
g67
I0
sg68
I0
sg33
I0
sg69
I0
sg70
I0
sg34
I1
sg35
I1
sg71
I0
sg72
I0
sg73
I0
sg36
I0
sg37
I0
ssg35
(dp91
g34
I0
sg69
I0
sg70
I0
sg33
I0
sg35
I0
sg71
I0
sg36
I0
sg37
I0
ssg14
(dp92
g10
I0
sg16
I0
sg39
I0
sg12
I0
sg11
I0
sg84
I0
sg8
I0
sg83
I0
sg38
I0
sg13
I0
sg9
I0
sg15
I0
sg14
I0
ssg22
(dp93
g22
I0
sg17
I0
sg19
I0
sg21
I0
sg18
I0
sg20
I0
ssg18
(dp94
g17
I0
sg27
I0
sg42
I0
sg60
I0
sg28
I0
sg39
I0
sg29
I0
sg59
I0
sg26
I0
sg48
I0
sg49
I0
sg64
I0
sg57
I0
sg52
I0
sg22
I1
sg18
I7
sg19
I0
sg21
I0
sg47
I0
sg40
I0
sg38
I0
sg50
I0
sg25
I0
sg56
I0
sg23
I0
sg30
I0
sg41
I0
sg24
I0
sg20
I0
sg51
I0
ssg19
(dp95
g22
I0
sg17
I0
sg29
I0
sg19
I0
sg21
I0
sg18
I0
sg30
I0
sg80
I0
sg20
I2
sg28
I0
ssg21
(dp96
g22
I0
sg17
I0
sg29
I0
sg19
I0
sg21
I2
sg18
I0
sg30
I0
sg80
I0
sg20
I0
sg28
I0
ssg29
(dp97
g28
I0
sg76
I0
sg29
I0
sg77
I0
sg78
I0
sg79
I0
sg30
I0
sg80
I0
sg40
I0
sg81
I0
ssg40
(dp98
S'pan.n.01'
p99
I0
sS'slice.v.03'
p100
I0
sS'pan.n.03'
p101
I0
sg79
I0
sS'water.n.06'
p102
I0
sS'fill.v.01'
p103
I0
sg40
I0
ssg38
(dp104
g39
I0
sg47
I0
sg83
I0
sg48
I0
sg49
I0
sg84
I0
sg38
I1
sg50
I0
sg51
I0
sg52
I0
ssg13
(dp105
g10
I0
sg16
I0
sg41
I2
sg39
I0
sg12
I0
sg11
I0
sg84
I0
sg8
I0
sg83
I0
sg57
I0
sg42
I0
sg38
I0
sg13
I0
sg9
I0
sg60
I0
sg15
I0
sg14
I2
ssg25
(dp106
g62
I0
sg63
I0
sg26
I0
sg23
I0
sg31
I1
sg64
I0
sg32
I0
sg27
I0
sg24
I0
sg25
I1
ssg10
(dp107
g10
I2
sg16
I0
sg41
I0
sg54
I0
sg12
I0
sg11
I0
sg8
I0
sg42
I0
sg13
I0
sg9
I0
sg15
I0
sg14
I0
ssg23
(dp108
g99
I0
sg63
I0
sg101
I0
sg26
I0
sg23
I0
sg102
I0
sg64
I0
sg40
I1
sg27
I0
sg24
I1
sg25
I0
ssg31
(dp109
S'fill.v.09'
p110
I0
sg31
I0
sg62
I0
sS'fill.v.01'
p111
I0
sg32
I0
sS'batter.n.02'
p112
I0
sS'opening.n.01'
p113
I0
ssg30
(dp114
g28
I0
sg76
I0
sg29
I0
sg77
I0
sg78
I0
sg31
I0
sg36
I0
sg110
I0
sg30
I4
sg40
I0
sg80
I0
sg33
I0
sg35
I0
sg32
I0
sg112
I0
sg81
I0
sg79
I0
sg34
I0
sg37
I0
sg113
I0
ssg41
(dp115
g54
I0
sg55
I0
sg41
I0
sg56
I0
sg42
I0
sg57
I0
sg58
I0
sg59
I0
sg60
I0
ssg33
(dp116
g34
I0
sg69
I0
sg70
I0
sg33
I0
sg35
I0
sg71
I0
sg36
I0
sg37
I0
ssg32
(dp117
g110
I0
sg36
I0
sg31
I0
sg62
I0
sg111
I0
sg33
I1
sg35
I0
sg32
I1
sg112
I0
sg34
I0
sg37
I0
sg113
I0
ssg15
(dp118
g10
I0
sg16
I0
sg39
I0
sg12
I0
sg11
I0
sg84
I0
sg8
I0
sg83
I0
sg38
I0
sg13
I0
sg9
I0
sg15
I2
sg14
I0
ssg20
(dp119
g22
I0
sg17
I0
sg29
I0
sg19
I0
sg21
I0
sg18
I0
sg30
I0
sg80
I0
sg20
I0
sg28
I0
ssg24
(dp120
g63
I0
sg26
I0
sg23
I0
sg64
I0
sg27
I0
sg24
I0
sg25
I0
sssb.