ccopy_reg
_reconstructor
p0
(cutils.eval
ConfusionMatrix
p1
c__builtin__
object
p2
Ntp3
Rp4
(dp5
S'labels'
p6
(lp7
S'stir.v.08'
p8
aS'banana.n.02'
p9
aS'tomato.n.01'
p10
aS'stir.v.01'
p11
aS'coffee.n.01'
p12
aS'wine.n.01'
p13
aS'milk.n.01'
p14
aS'tea.n.01'
p15
aS'cappuccino.n.01'
p16
aS'juice.n.01'
p17
aS'fruit_juice.n.01'
p18
aS'salt.n.02'
p19
aS'coca_cola.n.01'
p20
aS'champagne.n.01'
p21
aS'cream.n.02'
p22
aS'sugar.n.01'
p23
aS'egg.n.02'
p24
asS'instanceCount'
p25
I28
sS'matrix'
p26
(dp27
g19
(dp28
S'salt.n.02'
p29
I1
ssg18
(dp30
g18
I0
ssg20
(dp31
S'coca_cola.n.01'
p32
I1
ssg9
(dp33
S'banana.n.02'
p34
I1
ssg13
(dp35
S'wine.n.01'
p36
I1
ssg22
(dp37
S'cream.n.02'
p38
I1
ssg10
(dp39
S'tomato.n.01'
p40
I1
ssg16
(dp41
S'cappuccino.n.01'
p42
I1
ssg12
(dp43
S'coffee.n.01'
p44
I1
ssg15
(dp45
S'tea.n.01'
p46
I1
ssg8
(dp47
S'stir.v.01'
p48
I1
sS'stir.v.08'
p49
I5
ssg24
(dp50
S'egg.n.02'
p51
I1
ssg11
(dp52
S'stir.v.01'
p53
I8
ssg17
(dp54
g18
I1
ssg21
(dp55
S'champagne.n.01'
p56
I1
ssg14
(dp57
S'milk.n.01'
p58
I1
ssg23
(dp59
S'sugar.n.01'
p60
I1
sssb.