ccopy_reg
_reconstructor
p0
(cutils.eval
ConfusionMatrix
p1
c__builtin__
object
p2
Ntp3
Rp4
(dp5
S'labels'
p6
(lp7
S'stir.v.01'
p8
aS'stir.v.08'
p9
aS'water.n.06'
p10
aS'whiskey.n.01'
p11
aS'butter.n.01'
p12
aS'apple.n.01'
p13
aS'banana.n.02'
p14
aS'tomato.n.01'
p15
aS'coffee.n.01'
p16
aS'wine.n.01'
p17
aS'milk.n.01'
p18
aS'milk.n.04'
p19
aS'tea.n.01'
p20
aS'tea.n.05'
p21
aS'cappuccino.n.01'
p22
aS'juice.n.01'
p23
aS'salt.n.02'
p24
aS'coca_cola.n.01'
p25
asS'instanceCount'
p26
I28
sS'matrix'
p27
(dp28
g24
(dp29
S'salt.n.02'
p30
I1
ssg25
(dp31
S'coca_cola.n.01'
p32
I1
ssg14
(dp33
S'banana.n.02'
p34
I1
ssg17
(dp35
S'wine.n.01'
p36
I1
ssg18
(dp37
g19
I1
ssg12
(dp38
S'butter.n.01'
p39
I1
ssg22
(dp40
S'cappuccino.n.01'
p41
I1
ssg16
(dp42
S'coffee.n.01'
p43
I1
ssg10
(dp44
S'water.n.06'
p45
I1
ssg15
(dp46
S'tomato.n.01'
p47
I1
ssg9
(dp48
g9
I5
ssg21
(dp49
g21
I0
ssg19
(dp50
g19
I0
ssg13
(dp51
S'apple.n.01'
p52
I1
ssg8
(dp53
S'stir.v.01'
p54
I4
sg9
I5
ssg23
(dp55
S'juice.n.01'
p56
I1
ssg11
(dp57
S'whiskey.n.01'
p58
I1
ssg20
(dp59
g21
I1
sssb.