ccopy_reg
_reconstructor
p0
(cutils.eval
ConfusionMatrix
p1
c__builtin__
object
p2
Ntp3
Rp4
(dp5
S'labels'
p6
(lp7
S'stir.v.01'
p8
aS'coffee.n.01'
p9
aS'wine.n.01'
p10
aS'milk.n.01'
p11
aS'tea.n.01'
p12
aS'cappuccino.n.01'
p13
aS'juice.n.01'
p14
aS'fruit_juice.n.01'
p15
aS'stir.v.08'
p16
aS'salt.n.02'
p17
aS'coca_cola.n.01'
p18
aS'champagne.n.01'
p19
aS'cream.n.02'
p20
aS'sugar.n.01'
p21
aS'egg.n.02'
p22
aS'peanut.n.04'
p23
aS'peanut.n.01'
p24
aS'vegetable.n.01'
p25
asS'instanceCount'
p26
I28
sS'matrix'
p27
(dp28
g17
(dp29
S'salt.n.02'
p30
I1
ssg15
(dp31
g15
I0
ssg18
(dp32
S'coca_cola.n.01'
p33
I1
ssg19
(dp34
S'champagne.n.01'
p35
I1
ssg10
(dp36
S'wine.n.01'
p37
I1
ssg20
(dp38
S'cream.n.02'
p39
I1
ssg13
(dp40
S'cappuccino.n.01'
p41
I1
ssg9
(dp42
S'coffee.n.01'
p43
I1
ssg25
(dp44
S'vegetable.n.01'
p45
I1
ssg12
(dp46
S'tea.n.01'
p47
I1
ssg16
(dp48
S'stir.v.01'
p49
I1
sS'stir.v.08'
p50
I5
ssg22
(dp51
S'egg.n.02'
p52
I1
ssg24
(dp53
g24
I0
ssg8
(dp54
S'stir.v.01'
p55
I8
ssg14
(dp56
g15
I1
ssg23
(dp57
g24
I1
ssg11
(dp58
S'milk.n.01'
p59
I1
ssg21
(dp60
S'sugar.n.01'
p61
I1
sssb.