ccopy_reg
_reconstructor
p0
(cutils.eval
ConfusionMatrix
p1
c__builtin__
object
p2
Ntp3
Rp4
(dp5
S'labels'
p6
(lp7
S'stir.v.08'
p8
aS'sugar.n.01'
p9
aS'egg.n.02'
p10
aS'peanut.n.04'
p11
aS'peanut.n.03'
p12
aS'vegetable.n.01'
p13
aS'stir.v.01'
p14
aS'water.n.06'
p15
aS'whiskey.n.01'
p16
aS'butter.n.01'
p17
aS'apple.n.01'
p18
aS'banana.n.02'
p19
aS'tomato.n.01'
p20
aS'coffee.n.01'
p21
aS'wine.n.01'
p22
aS'milk.n.01'
p23
aS'tea.n.01'
p24
asS'instanceCount'
p25
I28
sS'matrix'
p26
(dp27
g13
(dp28
S'vegetable.n.01'
p29
I1
ssg19
(dp30
S'banana.n.02'
p31
I1
ssg22
(dp32
S'wine.n.01'
p33
I1
ssg23
(dp34
S'milk.n.01'
p35
I1
ssg10
(dp36
S'egg.n.02'
p37
I1
ssg17
(dp38
S'butter.n.01'
p39
I1
ssg21
(dp40
S'coffee.n.01'
p41
I1
ssg15
(dp42
S'water.n.06'
p43
I1
ssg20
(dp44
S'tomato.n.01'
p45
I1
ssg8
(dp46
S'stir.v.08'
p47
I8
ssg18
(dp48
S'apple.n.01'
p49
I1
ssg14
(dp50
S'stir.v.01'
p51
I6
ssg12
(dp52
g12
I0
ssg11
(dp53
g12
I1
ssg16
(dp54
S'whiskey.n.01'
p55
I1
ssg24
(dp56
S'tea.n.01'
p57
I1
ssg9
(dp58
S'sugar.n.01'
p59
I1
sssb.