ccopy_reg
_reconstructor
p0
(cutils.eval
ConfusionMatrix
p1
c__builtin__
object
p2
Ntp3
Rp4
(dp5
S'labels'
p6
(lp7
S'stir.v.08'
p8
aS'peanut.n.04'
p9
aS'peanut.n.03'
p10
aS'vegetable.n.01'
p11
aS'stir.v.01'
p12
aS'water.n.06'
p13
aS'whiskey.n.01'
p14
aS'butter.n.01'
p15
aS'apple.n.01'
p16
aS'banana.n.02'
p17
aS'tomato.n.01'
p18
aS'coffee.n.01'
p19
aS'wine.n.01'
p20
aS'milk.n.01'
p21
aS'milk.n.04'
p22
aS'tea.n.01'
p23
aS'tea.n.05'
p24
aS'cappuccino.n.01'
p25
aS'juice.n.01'
p26
asS'instanceCount'
p27
I28
sS'matrix'
p28
(dp29
g11
(dp30
S'vegetable.n.01'
p31
I1
ssg17
(dp32
S'banana.n.02'
p33
I1
ssg20
(dp34
S'wine.n.01'
p35
I1
ssg21
(dp36
g22
I1
ssg15
(dp37
S'butter.n.01'
p38
I1
ssg25
(dp39
S'cappuccino.n.01'
p40
I1
ssg19
(dp41
S'coffee.n.01'
p42
I1
ssg13
(dp43
S'water.n.06'
p44
I1
ssg26
(dp45
S'juice.n.01'
p46
I1
ssg18
(dp47
S'tomato.n.01'
p48
I1
ssg8
(dp49
S'stir.v.08'
p50
I6
ssg24
(dp51
g24
I0
ssg22
(dp52
g22
I0
ssg16
(dp53
S'apple.n.01'
p54
I1
ssg12
(dp55
S'stir.v.01'
p56
I4
sS'stir.v.08'
p57
I4
ssg10
(dp58
g10
I0
ssg9
(dp59
g10
I1
ssg14
(dp60
S'whiskey.n.01'
p61
I1
ssg23
(dp62
g24
I1
sssb.