ccopy_reg
_reconstructor
p0
(cutils.eval
ConfusionMatrix
p1
c__builtin__
object
p2
Ntp3
Rp4
(dp5
S'labels'
p6
(lp7
S'stir.v.01'
p8
aS'champagne.n.01'
p9
aS'stir.v.08'
p10
aS'cream.n.02'
p11
aS'sugar.n.01'
p12
aS'egg.n.02'
p13
aS'peanut.n.04'
p14
aS'peanut.n.03'
p15
aS'vegetable.n.01'
p16
aS'water.n.06'
p17
aS'whiskey.n.01'
p18
aS'butter.n.01'
p19
aS'apple.n.01'
p20
aS'banana.n.02'
p21
aS'tomato.n.01'
p22
aS'coffee.n.01'
p23
aS'wine.n.01'
p24
asS'instanceCount'
p25
I28
sS'matrix'
p26
(dp27
g16
(dp28
S'vegetable.n.01'
p29
I1
ssg21
(dp30
S'banana.n.02'
p31
I1
ssg22
(dp32
S'tomato.n.01'
p33
I1
ssg23
(dp34
S'coffee.n.01'
p35
I1
ssg13
(dp36
S'egg.n.02'
p37
I1
ssg19
(dp38
S'butter.n.01'
p39
I1
ssg24
(dp40
S'wine.n.01'
p41
I1
ssg11
(dp42
S'cream.n.02'
p43
I1
ssg17
(dp44
S'water.n.06'
p45
I1
ssg9
(dp46
S'champagne.n.01'
p47
I1
ssg10
(dp48
S'stir.v.01'
p49
I3
sS'stir.v.08'
p50
I6
ssg20
(dp51
S'apple.n.01'
p52
I1
ssg8
(dp53
S'stir.v.01'
p54
I5
ssg15
(dp55
g15
I0
ssg14
(dp56
g15
I1
ssg18
(dp57
S'whiskey.n.01'
p58
I1
ssg12
(dp59
S'sugar.n.01'
p60
I1
sssb.