ccopy_reg
_reconstructor
p0
(cutils.eval
ConfusionMatrix
p1
c__builtin__
object
p2
Ntp3
Rp4
(dp5
S'labels'
p6
(lp7
S'stir.v.01'
p8
aS'milk.n.01'
p9
aS'tea.n.01'
p10
aS'cappuccino.n.01'
p11
aS'juice.n.01'
p12
aS'fruit_juice.n.01'
p13
aS'stir.v.08'
p14
aS'salt.n.02'
p15
aS'coca_cola.n.01'
p16
aS'champagne.n.01'
p17
aS'cream.n.02'
p18
aS'sugar.n.01'
p19
aS'egg.n.02'
p20
aS'peanut.n.04'
p21
aS'peanut.n.01'
p22
aS'vegetable.n.01'
p23
aS'water.n.06'
p24
aS'whiskey.n.01'
p25
asS'instanceCount'
p26
I28
sS'matrix'
p27
(dp28
g24
(dp29
S'water.n.06'
p30
I1
ssg15
(dp31
S'salt.n.02'
p32
I1
ssg13
(dp33
g13
I0
ssg17
(dp34
S'champagne.n.01'
p35
I1
ssg20
(dp36
S'egg.n.02'
p37
I1
ssg11
(dp38
S'cappuccino.n.01'
p39
I1
ssg18
(dp40
S'cream.n.02'
p41
I1
ssg23
(dp42
S'vegetable.n.01'
p43
I1
ssg12
(dp44
g13
I1
ssg25
(dp45
S'whiskey.n.01'
p46
I1
ssg14
(dp47
S'stir.v.01'
p48
I1
sS'stir.v.08'
p49
I5
ssg22
(dp50
g22
I0
ssg8
(dp51
S'stir.v.01'
p52
I8
ssg16
(dp53
S'coca_cola.n.01'
p54
I1
ssg21
(dp55
g22
I1
ssg9
(dp56
S'milk.n.01'
p57
I1
ssg10
(dp58
S'tea.n.01'
p59
I1
ssg19
(dp60
S'sugar.n.01'
p61
I1
sssb.