ccopy_reg
_reconstructor
p0
(cutils.eval
ConfusionMatrix
p1
c__builtin__
object
p2
Ntp3
Rp4
(dp5
S'labels'
p6
(lp7
S'stir.v.01'
p8
aS'cappuccino.n.01'
p9
aS'juice.n.01'
p10
aS'fruit_juice.n.01'
p11
aS'stir.v.08'
p12
aS'salt.n.02'
p13
aS'coca_cola.n.01'
p14
aS'champagne.n.01'
p15
aS'cream.n.02'
p16
aS'sugar.n.01'
p17
aS'egg.n.02'
p18
aS'peanut.n.04'
p19
aS'peanut.n.01'
p20
aS'vegetable.n.01'
p21
aS'water.n.06'
p22
aS'whiskey.n.01'
p23
aS'butter.n.01'
p24
aS'apple.n.01'
p25
asS'instanceCount'
p26
I28
sS'matrix'
p27
(dp28
g22
(dp29
S'water.n.06'
p30
I1
ssg13
(dp31
S'salt.n.02'
p32
I1
ssg11
(dp33
g11
I0
ssg18
(dp34
S'egg.n.02'
p35
I1
ssg24
(dp36
S'butter.n.01'
p37
I1
ssg9
(dp38
S'cappuccino.n.01'
p39
I1
ssg16
(dp40
S'cream.n.02'
p41
I1
ssg21
(dp42
S'vegetable.n.01'
p43
I1
ssg15
(dp44
S'champagne.n.01'
p45
I1
ssg12
(dp46
S'stir.v.01'
p47
I5
sS'stir.v.08'
p48
I3
ssg25
(dp49
S'apple.n.01'
p50
I1
ssg20
(dp51
g20
I0
ssg8
(dp52
S'stir.v.01'
p53
I6
ssg14
(dp54
S'coca_cola.n.01'
p55
I1
ssg19
(dp56
g20
I1
ssg10
(dp57
g11
I1
ssg23
(dp58
S'whiskey.n.01'
p59
I1
ssg17
(dp60
S'sugar.n.01'
p61
I1
sssb.