ccopy_reg
_reconstructor
p0
(cutils.eval
ConfusionMatrix
p1
c__builtin__
object
p2
Ntp3
Rp4
(dp5
S'labels'
p6
(lp7
S'add.v.01'
p8
aS'french_fries.n.01'
p9
aS'steak.n.01'
p10
aS'pan.n.03'
p11
aS'butter.n.01'
p12
aS'mixing_bowl.n.01'
p13
aS'sugar.n.01'
p14
aS'corn.n.03'
p15
aS'dish.n.02'
p16
aS'dish.n.01'
p17
aS'egg.n.02'
p18
aS'rib.n.03'
p19
aS'pot.n.01'
p20
aS'pot.n.09'
p21
aS'bean.n.01'
p22
aS'bean.n.02'
p23
aS'ingredient.n.03'
p24
aS'vegetable.n.01'
p25
aS'onion.n.03'
p26
aS'asparagus.n.02'
p27
aS'asparagus.n.01'
p28
aS'salad.n.01'
p29
aS'concoction.n.01'
p30
aS'mix.n.03'
p31
aS'cream.n.02'
p32
aS'cream.n.03'
p33
aS'salt.n.02'
p34
aS'meat.n.01'
p35
aS'kernel.n.01'
p36
asS'instanceCount'
p37
I39
sS'matrix'
p38
(dp39
g36
(dp40
g36
I0
ssg15
(dp41
S'corn.n.03'
p42
I1
ssg13
(dp43
S'mixing_bowl.n.01'
p44
I2
ssg16
(dp45
g17
I1
ssg17
(dp46
g17
I0
ssg8
(dp47
S'add.v.01'
p48
I14
ssg11
(dp49
S'pan.n.03'
p50
I1
ssg21
(dp51
g21
I0
ssg18
(dp52
S'egg.n.02'
p53
I2
ssg12
(dp54
S'butter.n.01'
p55
I2
ssg20
(dp56
g21
I1
ssg27
(dp57
g28
I1
ssg28
(dp58
g28
I0
ssg35
(dp59
g36
I1
ssg22
(dp60
g23
I1
ssg30
(dp61
g31
I1
ssg23
(dp62
g23
I0
ssg34
(dp63
S'salt.n.02'
p64
I1
ssg19
(dp65
S'rib.n.03'
p66
I1
ssg32
(dp67
g33
I1
ssg24
(dp68
S'ingredient.n.03'
p69
I2
ssg33
(dp70
g33
I0
ssg10
(dp71
S'steak.n.01'
p72
I1
ssg25
(dp73
S'vegetable.n.01'
p74
I1
ssg9
(dp75
S'french_fries.n.01'
p76
I1
ssg31
(dp77
g31
I0
ssg29
(dp78
S'salad.n.01'
p79
I1
ssg26
(dp80
S'onion.n.03'
p81
I1
ssg14
(dp82
S'sugar.n.01'
p83
I1
sssb.