ccopy_reg
_reconstructor
p0
(cutils.eval
ConfusionMatrix
p1
c__builtin__
object
p2
Ntp3
Rp4
(dp5
S'labels'
p6
(lp7
S'sauce.n.01'
p8
aS'add.v.01'
p9
aS'cream.n.02'
p10
aS'dressing.n.01'
p11
aS'stuffing.n.01'
p12
aS'salad.n.01'
p13
aS'pan.n.03'
p14
aS'vanilla.n.02'
p15
aS'apple.n.01'
p16
aS'pan.n.02'
p17
aS'butter.n.01'
p18
aS'milk.n.01'
p19
aS'milk.n.04'
p20
aS'water.n.06'
p21
aS'water.n.03'
p22
aS'french_fries.n.01'
p23
aS'steak.n.01'
p24
aS'sugar.n.01'
p25
aS'corn.n.03'
p26
aS'dish.n.02'
p27
aS'flour.n.01'
p28
aS'egg.n.02'
p29
aS'rib.n.03'
p30
aS'pot.n.01'
p31
aS'pot.n.09'
p32
aS'bean.n.01'
p33
aS'ingredient.n.03'
p34
asS'instanceCount'
p35
I40
sS'matrix'
p36
(dp37
g26
(dp38
S'corn.n.03'
p39
I1
ssg27
(dp40
S'dish.n.02'
p41
I1
ssg20
(dp42
g20
I0
ssg16
(dp43
S'apple.n.01'
p44
I1
ssg9
(dp45
S'add.v.01'
p46
I14
ssg19
(dp47
g20
I1
ssg14
(dp48
S'pan.n.03'
p49
I2
sg17
I1
ssg17
(dp50
g17
I0
ssg32
(dp51
g32
I0
ssg28
(dp52
S'flour.n.01'
p53
I1
ssg29
(dp54
S'egg.n.02'
p55
I1
ssg18
(dp56
S'butter.n.01'
p57
I3
ssg31
(dp58
g32
I1
ssg15
(dp59
S'vanilla.n.02'
p60
I2
ssg33
(dp61
S'bean.n.01'
p62
I1
ssg8
(dp63
S'sauce.n.01'
p64
I1
ssg30
(dp65
S'rib.n.03'
p66
I1
ssg10
(dp67
S'cream.n.02'
p68
I1
ssg34
(dp69
S'ingredient.n.03'
p70
I1
ssg24
(dp71
S'steak.n.01'
p72
I1
ssg12
(dp73
g12
I0
ssg22
(dp74
g22
I0
ssg21
(dp75
g22
I1
ssg11
(dp76
g12
I1
ssg23
(dp77
S'french_fries.n.01'
p78
I1
ssg13
(dp79
S'salad.n.01'
p80
I1
ssg25
(dp81
S'sugar.n.01'
p82
I1
sssb.