ccopy_reg
_reconstructor
p0
(cutils.eval
ConfusionMatrix
p1
c__builtin__
object
p2
Ntp3
Rp4
(dp5
S'labels'
p6
(lp7
S'pan.n.03'
p8
aS'add.v.01'
p9
aS'vanilla.n.02'
p10
aS'apple.n.01'
p11
aS'pan.n.02'
p12
aS'butter.n.01'
p13
aS'milk.n.01'
p14
aS'milk.n.04'
p15
aS'water.n.06'
p16
aS'water.n.03'
p17
aS'french_fries.n.01'
p18
aS'steak.n.01'
p19
aS'sugar.n.01'
p20
aS'corn.n.03'
p21
aS'dish.n.02'
p22
aS'flour.n.01'
p23
aS'egg.n.02'
p24
aS'rib.n.03'
p25
aS'pot.n.01'
p26
aS'pot.n.09'
p27
aS'bean.n.01'
p28
aS'ingredient.n.03'
p29
aS'vegetable.n.01'
p30
aS'onion.n.03'
p31
asS'instanceCount'
p32
I38
sS'matrix'
p33
(dp34
g21
(dp35
S'corn.n.03'
p36
I1
ssg22
(dp37
S'dish.n.02'
p38
I1
ssg15
(dp39
g15
I0
ssg11
(dp40
S'apple.n.01'
p41
I1
ssg9
(dp42
S'add.v.01'
p43
I14
ssg14
(dp44
g15
I1
ssg8
(dp45
S'pan.n.03'
p46
I2
sg12
I1
ssg12
(dp47
g12
I0
ssg27
(dp48
g27
I0
ssg23
(dp49
S'flour.n.01'
p50
I1
ssg24
(dp51
S'egg.n.02'
p52
I1
ssg13
(dp53
S'butter.n.01'
p54
I3
ssg26
(dp55
g27
I1
ssg10
(dp56
S'vanilla.n.02'
p57
I2
ssg28
(dp58
S'bean.n.01'
p59
I1
ssg25
(dp60
S'rib.n.03'
p61
I1
ssg29
(dp62
S'ingredient.n.03'
p63
I1
ssg19
(dp64
S'steak.n.01'
p65
I1
ssg30
(dp66
S'vegetable.n.01'
p67
I1
ssg17
(dp68
g17
I0
ssg16
(dp69
g17
I1
ssg18
(dp70
S'french_fries.n.01'
p71
I1
ssg31
(dp72
S'onion.n.03'
p73
I1
ssg20
(dp74
S'sugar.n.01'
p75
I1
sssb.