ccopy_reg
_reconstructor
p0
(cutils.eval
ConfusionMatrix
p1
c__builtin__
object
p2
Ntp3
Rp4
(dp5
S'labels'
p6
(lp7
S'pan.n.03'
p8
aS'add.v.01'
p9
aS'butter.n.01'
p10
aS'vanilla.n.02'
p11
aS'milk.n.01'
p12
aS'milk.n.04'
p13
aS'water.n.06'
p14
aS'water_system.n.02'
p15
aS'french_fries.n.01'
p16
aS'steak.n.01'
p17
aS'mixing_bowl.n.01'
p18
aS'sugar.n.01'
p19
aS'corn.n.03'
p20
aS'dish.n.02'
p21
aS'dish.n.01'
p22
aS'egg.n.02'
p23
aS'rib.n.03'
p24
aS'pot.n.01'
p25
aS'pot.n.09'
p26
aS'bean.n.01'
p27
aS'bean.n.02'
p28
aS'ingredient.n.03'
p29
aS'vegetable.n.01'
p30
aS'onion.n.03'
p31
aS'asparagus.n.02'
p32
aS'salad.n.01'
p33
asS'instanceCount'
p34
I39
sS'matrix'
p35
(dp36
g20
(dp37
S'corn.n.03'
p38
I1
ssg18
(dp39
S'mixing_bowl.n.01'
p40
I2
ssg21
(dp41
g22
I1
ssg22
(dp42
g22
I0
ssg13
(dp43
g13
I0
ssg9
(dp44
S'add.v.01'
p45
I14
ssg12
(dp46
g13
I1
ssg8
(dp47
S'pan.n.03'
p48
I2
ssg26
(dp49
g26
I0
ssg23
(dp50
S'egg.n.02'
p51
I2
ssg10
(dp52
S'butter.n.01'
p53
I3
ssg25
(dp54
g26
I1
ssg32
(dp55
S'asparagus.n.02'
p56
I1
ssg11
(dp57
S'vanilla.n.02'
p58
I1
ssg27
(dp59
g28
I1
ssg28
(dp60
g28
I0
ssg24
(dp61
S'rib.n.03'
p62
I1
ssg29
(dp63
S'ingredient.n.03'
p64
I1
ssg17
(dp65
S'steak.n.01'
p66
I1
ssg30
(dp67
S'vegetable.n.01'
p68
I1
ssg15
(dp69
g15
I0
ssg14
(dp70
g15
I1
ssg16
(dp71
S'french_fries.n.01'
p72
I1
ssg33
(dp73
S'salad.n.01'
p74
I1
ssg31
(dp75
S'onion.n.03'
p76
I1
ssg19
(dp77
S'sugar.n.01'
p78
I1
sssb.