ccopy_reg
_reconstructor
p0
(cutils.eval
ConfusionMatrix
p1
c__builtin__
object
p2
Ntp3
Rp4
(dp5
S'labels'
p6
(lp7
S'add.v.01'
p8
aS'mixing_bowl.n.01'
p9
aS'butter.n.01'
p10
aS'sugar.n.01'
p11
aS'corn.n.03'
p12
aS'dish.n.02'
p13
aS'dish.n.01'
p14
aS'egg.n.02'
p15
aS'rib.n.03'
p16
aS'pot.n.01'
p17
aS'pot.n.04'
p18
aS'bean.n.01'
p19
aS'ingredient.n.03'
p20
aS'vegetable.n.01'
p21
aS'onion.n.03'
p22
aS'asparagus.n.02'
p23
aS'salad.n.01'
p24
aS'concoction.n.01'
p25
aS'mixture.n.01'
p26
aS'cream.n.02'
p27
aS'cream.n.03'
p28
aS'salt.n.02'
p29
aS'meat.n.01'
p30
aS'kernel.n.01'
p31
aS'sauce.n.01'
p32
aS'dressing.n.01'
p33
aS'dressing.n.04'
p34
asS'instanceCount'
p35
I39
sS'matrix'
p36
(dp37
g31
(dp38
g31
I0
ssg12
(dp39
S'corn.n.03'
p40
I1
ssg9
(dp41
S'mixing_bowl.n.01'
p42
I2
ssg13
(dp43
g14
I1
ssg14
(dp44
g14
I0
ssg8
(dp45
S'add.v.01'
p46
I14
ssg15
(dp47
S'egg.n.02'
p48
I2
ssg10
(dp49
S'butter.n.01'
p50
I1
ssg17
(dp51
g18
I1
ssg23
(dp52
S'asparagus.n.02'
p53
I1
ssg30
(dp54
g31
I1
ssg19
(dp55
S'bean.n.01'
p56
I1
ssg25
(dp57
g26
I1
ssg32
(dp58
S'sauce.n.01'
p59
I1
ssg29
(dp60
S'salt.n.02'
p61
I1
ssg16
(dp62
S'rib.n.03'
p63
I1
ssg26
(dp64
g26
I0
ssg27
(dp65
g28
I2
ssg20
(dp66
S'ingredient.n.03'
p67
I2
ssg28
(dp68
g28
I0
ssg21
(dp69
S'vegetable.n.01'
p70
I1
ssg34
(dp71
g34
I0
ssg33
(dp72
g34
I1
ssg18
(dp73
g18
I0
ssg24
(dp74
S'salad.n.01'
p75
I2
ssg22
(dp76
S'onion.n.03'
p77
I1
ssg11
(dp78
S'sugar.n.01'
p79
I1
sssb.