ccopy_reg
_reconstructor
p0
(cutils.eval
ConfusionMatrix
p1
c__builtin__
object
p2
Ntp3
Rp4
(dp5
S'labels'
p6
(lp7
S'pot.n.01'
p8
aS'pot.n.04'
p9
aS'add.v.01'
p10
aS'bean.n.01'
p11
aS'ingredient.n.03'
p12
aS'vegetable.n.01'
p13
aS'onion.n.03'
p14
aS'egg.n.02'
p15
aS'asparagus.n.02'
p16
aS'asparagus.n.01'
p17
aS'salad.n.01'
p18
aS'concoction.n.01'
p19
aS'mix.n.03'
p20
aS'cream.n.02'
p21
aS'cream.n.03'
p22
aS'salt.n.02'
p23
aS'meat.n.01'
p24
aS'kernel.n.01'
p25
aS'sauce.n.01'
p26
aS'dressing.n.01'
p27
aS'dressing.n.04'
p28
aS'pan.n.03'
p29
aS'vanilla.n.02'
p30
aS'apple.n.01'
p31
aS'butter.n.01'
p32
aS'vanilla.n.03'
p33
aS'milk.n.01'
p34
aS'milk.n.04'
p35
aS'water.n.06'
p36
aS'water_system.n.02'
p37
asS'instanceCount'
p38
I39
sS'matrix'
p39
(dp40
g25
(dp41
g25
I0
ssg35
(dp42
g35
I0
ssg31
(dp43
S'apple.n.01'
p44
I1
ssg10
(dp45
S'add.v.01'
p46
I14
ssg34
(dp47
g35
I1
ssg29
(dp48
S'pan.n.03'
p49
I2
ssg9
(dp50
g9
I0
ssg32
(dp51
S'butter.n.01'
p52
I1
ssg8
(dp53
g9
I1
ssg16
(dp54
g17
I1
ssg17
(dp55
g17
I0
ssg24
(dp56
g25
I1
ssg33
(dp57
g33
I0
ssg30
(dp58
g33
I1
sS'vanilla.n.02'
p59
I1
ssg11
(dp60
S'bean.n.01'
p61
I1
ssg19
(dp62
g20
I1
ssg26
(dp63
S'sauce.n.01'
p64
I1
ssg23
(dp65
S'salt.n.02'
p66
I1
ssg15
(dp67
S'egg.n.02'
p68
I1
ssg21
(dp69
g22
I2
ssg12
(dp70
S'ingredient.n.03'
p71
I2
ssg22
(dp72
g22
I0
ssg13
(dp73
S'vegetable.n.01'
p74
I1
ssg28
(dp75
g28
I0
ssg37
(dp76
g37
I0
ssg36
(dp77
g37
I1
ssg27
(dp78
g28
I1
ssg20
(dp79
g20
I0
ssg18
(dp80
S'salad.n.01'
p81
I2
ssg14
(dp82
S'onion.n.03'
p83
I1
sssb.