ccopy_reg
_reconstructor
p0
(cutils.eval
ConfusionMatrix
p1
c__builtin__
object
p2
Ntp3
Rp4
(dp5
S'labels'
p6
(lp7
S'add.v.01'
p8
aS'egg.n.02'
p9
aS'mixing_bowl.n.01'
p10
aS'rib.n.03'
p11
aS'pot.n.01'
p12
aS'pot.n.04'
p13
aS'bean.n.01'
p14
aS'ingredient.n.03'
p15
aS'vegetable.n.01'
p16
aS'onion.n.03'
p17
aS'asparagus.n.02'
p18
aS'asparagus.n.01'
p19
aS'salad.n.01'
p20
aS'concoction.n.01'
p21
aS'mix.n.03'
p22
aS'cream.n.02'
p23
aS'cream.n.03'
p24
aS'salt.n.02'
p25
aS'meat.n.01'
p26
aS'kernel.n.01'
p27
aS'sauce.n.01'
p28
aS'dressing.n.01'
p29
aS'dressing.n.04'
p30
aS'pan.n.03'
p31
aS'vanilla.n.02'
p32
aS'apple.n.01'
p33
asS'instanceCount'
p34
I37
sS'matrix'
p35
(dp36
g27
(dp37
g27
I0
ssg10
(dp38
S'mixing_bowl.n.01'
p39
I1
ssg33
(dp40
S'apple.n.01'
p41
I1
ssg8
(dp42
S'add.v.01'
p43
I14
ssg13
(dp44
g13
I0
ssg31
(dp45
S'pan.n.03'
p46
I1
ssg9
(dp47
S'egg.n.02'
p48
I2
ssg12
(dp49
g13
I1
ssg18
(dp50
g19
I1
ssg19
(dp51
g19
I0
ssg26
(dp52
g27
I1
ssg32
(dp53
S'vanilla.n.02'
p54
I1
ssg14
(dp55
S'bean.n.01'
p56
I1
ssg21
(dp57
g22
I1
ssg28
(dp58
S'sauce.n.01'
p59
I1
ssg25
(dp60
S'salt.n.02'
p61
I1
ssg11
(dp62
S'rib.n.03'
p63
I1
ssg23
(dp64
g24
I2
ssg15
(dp65
S'ingredient.n.03'
p66
I2
ssg24
(dp67
g24
I0
ssg16
(dp68
S'vegetable.n.01'
p69
I1
ssg30
(dp70
g30
I0
ssg29
(dp71
g30
I1
ssg22
(dp72
g22
I0
ssg20
(dp73
S'salad.n.01'
p74
I2
ssg17
(dp75
S'onion.n.03'
p76
I1
sssb.