ccopy_reg
_reconstructor
p0
(cutils.eval
ConfusionMatrix
p1
c__builtin__
object
p2
Ntp3
Rp4
(dp5
S'labels'
p6
(lp7
S'saltcellar.n.01'
p8
aS'fill.v.01'
p9
aS'salt.n.02'
p10
aS'wok.n.01'
p11
aS'rice.n.01'
p12
aS'glass.n.02'
p13
aS'milk.n.01'
p14
aS'measuring_cup.n.01'
p15
aS'meal.n.03'
p16
aS'ice.n.01'
p17
aS'ice.n.05'
p18
aS'bowl.n.01'
p19
aS'opening.n.01'
p20
aS'gap.n.03'
p21
aS'fill.v.09'
p22
aS'batter.n.02'
p23
aS'kettle.n.01'
p24
aS'water.n.06'
p25
aS'opening.n.10'
p26
aS'curd.n.01'
p27
aS'foam.n.01'
p28
aS'mug.n.04'
p29
aS'whiskey.n.01'
p30
aS'carafe.n.01'
p31
aS'blender.n.01'
p32
aS'apple.n.01'
p33
aS'pan.n.01'
p34
aS'pan.n.03'
p35
aS'jar.n.01'
p36
aS'teapot.n.01'
p37
asS'instanceCount'
p38
I41
sS'matrix'
p39
(dp40
g19
(dp41
S'bowl.n.01'
p42
I1
ssg23
(dp43
S'batter.n.02'
p44
I1
ssg33
(dp45
S'apple.n.01'
p46
I1
ssg26
(dp47
g26
I0
ssg28
(dp48
S'foam.n.01'
p49
I1
ssg14
(dp50
S'milk.n.01'
p51
I1
ssg34
(dp52
g35
I1
ssg35
(dp53
g35
I0
ssg21
(dp54
g21
I0
ssg8
(dp55
S'saltcellar.n.01'
p56
I1
ssg9
(dp57
S'fill.v.01'
p58
I12
ssg22
(dp59
S'fill.v.01'
p60
I2
ssg15
(dp61
S'measuring_cup.n.01'
p62
I1
ssg13
(dp63
S'glass.n.02'
p64
I1
ssg10
(dp65
S'salt.n.02'
p66
I1
ssg11
(dp67
S'wok.n.01'
p68
I1
ssg30
(dp69
S'whiskey.n.01'
p70
I1
ssg20
(dp71
g26
I1
sg21
I1
ssg29
(dp72
S'mug.n.04'
p73
I1
ssg37
(dp74
S'teapot.n.01'
p75
I1
ssg32
(dp76
S'blender.n.01'
p77
I1
ssg12
(dp78
S'rice.n.01'
p79
I1
ssg25
(dp80
S'water.n.06'
p81
I3
ssg17
(dp82
g18
I1
ssg24
(dp83
S'kettle.n.01'
p84
I1
ssg18
(dp85
g18
I0
ssg27
(dp86
S'curd.n.01'
p87
I1
ssg36
(dp88
S'jar.n.01'
p89
I1
ssg31
(dp90
S'carafe.n.01'
p91
I1
ssg16
(dp92
S'meal.n.03'
p93
I1
sssb.