ccopy_reg
_reconstructor
p0
(cutils.eval
ConfusionMatrix
p1
c__builtin__
object
p2
Ntp3
Rp4
(dp5
S'labels'
p6
(lp7
S'ice.n.01'
p8
aS'ice.n.05'
p9
aS'fill.v.01'
p10
aS'bowl.n.01'
p11
aS'bowl.n.08'
p12
aS'opening.n.01'
p13
aS'gap.n.03'
p14
aS'fill.v.09'
p15
aS'batter.n.02'
p16
aS'kettle.n.01'
p17
aS'water.n.06'
p18
aS'opening.n.10'
p19
aS'curd.n.01'
p20
aS'foam.n.01'
p21
aS'mug.n.04'
p22
aS'whiskey.n.01'
p23
aS'carafe.n.01'
p24
aS'blender.n.01'
p25
aS'apple.n.01'
p26
aS'pan.n.01'
p27
aS'pan.n.03'
p28
aS'jar.n.01'
p29
aS'teapot.n.01'
p30
aS'gravy.n.01'
p31
aS'gravy.n.02'
p32
aS'pot.n.01'
p33
aS'thermos.n.01'
p34
aS'coffee.n.01'
p35
aS'pitcher.n.02'
p36
aS'milk.n.01'
p37
asS'instanceCount'
p38
I41
sS'matrix'
p39
(dp40
g11
(dp41
g12
I1
ssg16
(dp42
S'batter.n.02'
p43
I1
ssg19
(dp44
g19
I0
ssg26
(dp45
S'apple.n.01'
p46
I1
ssg21
(dp47
S'foam.n.01'
p48
I1
ssg37
(dp49
S'milk.n.01'
p50
I1
ssg27
(dp51
g28
I1
ssg28
(dp52
g28
I0
ssg12
(dp53
g12
I0
ssg14
(dp54
g14
I0
ssg15
(dp55
S'fill.v.01'
p56
I2
ssg33
(dp57
S'pot.n.01'
p58
I1
ssg10
(dp59
S'fill.v.01'
p60
I12
ssg36
(dp61
S'pitcher.n.02'
p62
I1
ssg31
(dp63
g32
I1
ssg32
(dp64
g32
I0
ssg35
(dp65
S'coffee.n.01'
p66
I1
ssg23
(dp67
S'whiskey.n.01'
p68
I1
ssg13
(dp69
g19
I1
sg14
I1
ssg22
(dp70
S'mug.n.04'
p71
I1
ssg30
(dp72
S'teapot.n.01'
p73
I1
ssg25
(dp74
S'blender.n.01'
p75
I1
ssg34
(dp76
S'thermos.n.01'
p77
I1
ssg18
(dp78
S'water.n.06'
p79
I4
ssg8
(dp80
g9
I1
ssg17
(dp81
S'kettle.n.01'
p82
I1
ssg9
(dp83
g9
I0
ssg20
(dp84
S'curd.n.01'
p85
I1
ssg29
(dp86
S'jar.n.01'
p87
I2
ssg24
(dp88
S'carafe.n.01'
p89
I1
sssb.