ccopy_reg
_reconstructor
p0
(cutils.eval
ConfusionMatrix
p1
c__builtin__
object
p2
Ntp3
Rp4
(dp5
S'labels'
p6
(lp7
S'fill.v.01'
p8
aS'bottle.n.01'
p9
aS'fruit_juice.n.01'
p10
aS'cup.n.01'
p11
aS'cola.n.02'
p12
aS'saltcellar.n.01'
p13
aS'salt.n.02'
p14
aS'wok.n.01'
p15
aS'rice.n.01'
p16
aS'glass.n.02'
p17
aS'milk.n.01'
p18
aS'measuring_cup.n.01'
p19
aS'meal.n.03'
p20
aS'ice.n.01'
p21
aS'ice.n.05'
p22
aS'bowl.n.01'
p23
aS'opening.n.01'
p24
aS'gap.n.03'
p25
aS'fill.v.09'
p26
aS'batter.n.02'
p27
aS'kettle.n.01'
p28
aS'water.n.06'
p29
aS'opening.n.10'
p30
aS'curd.n.01'
p31
aS'foam.n.01'
p32
aS'mug.n.04'
p33
aS'whiskey.n.01'
p34
aS'carafe.n.01'
p35
aS'blender.n.01'
p36
aS'apple.n.01'
p37
aS'pan.n.01'
p38
aS'pan.n.03'
p39
asS'instanceCount'
p40
I42
sS'matrix'
p41
(dp42
g23
(dp43
S'bowl.n.01'
p44
I1
ssg27
(dp45
S'batter.n.02'
p46
I1
ssg37
(dp47
S'apple.n.01'
p48
I1
ssg30
(dp49
g30
I0
ssg8
(dp50
S'fill.v.01'
p51
I12
ssg18
(dp52
S'milk.n.01'
p53
I1
ssg38
(dp54
g39
I1
ssg39
(dp55
g39
I0
ssg32
(dp56
S'foam.n.01'
p57
I1
ssg12
(dp58
S'cola.n.02'
p59
I1
ssg25
(dp60
g25
I0
ssg13
(dp61
S'saltcellar.n.01'
p62
I1
ssg9
(dp63
S'bottle.n.01'
p64
I1
ssg11
(dp65
S'cup.n.01'
p66
I1
ssg26
(dp67
S'fill.v.01'
p68
I2
ssg19
(dp69
S'measuring_cup.n.01'
p70
I1
ssg17
(dp71
S'glass.n.02'
p72
I1
ssg14
(dp73
S'salt.n.02'
p74
I1
ssg15
(dp75
S'wok.n.01'
p76
I1
ssg34
(dp77
S'whiskey.n.01'
p78
I1
ssg24
(dp79
g30
I1
sg25
I1
ssg33
(dp80
S'mug.n.04'
p81
I1
ssg10
(dp82
S'fruit_juice.n.01'
p83
I1
ssg36
(dp84
S'blender.n.01'
p85
I1
ssg16
(dp86
S'rice.n.01'
p87
I1
ssg29
(dp88
S'water.n.06'
p89
I2
ssg21
(dp90
g22
I1
ssg28
(dp91
S'kettle.n.01'
p92
I1
ssg22
(dp93
g22
I0
ssg31
(dp94
S'curd.n.01'
p95
I1
ssg35
(dp96
S'carafe.n.01'
p97
I1
ssg20
(dp98
S'meal.n.03'
p99
I1
sssb.