ccopy_reg
_reconstructor
p0
(cutils.eval
ConfusionMatrix
p1
c__builtin__
object
p2
Ntp3
Rp4
(dp5
S'labels'
p6
(lp7
S'fill.v.01'
p8
aS'blender.n.01'
p9
aS'apple.n.01'
p10
aS'pan.n.01'
p11
aS'pan.n.03'
p12
aS'water.n.06'
p13
aS'jar.n.01'
p14
aS'teapot.n.01'
p15
aS'gravy.n.01'
p16
aS'gravy.n.02'
p17
aS'pot.n.01'
p18
aS'thermos.n.01'
p19
aS'coffee.n.01'
p20
aS'pitcher.n.02'
p21
aS'milk.n.01'
p22
aS'bottle.n.01'
p23
aS'fruit_juice.n.01'
p24
aS'cup.n.01'
p25
aS'cola.n.02'
p26
aS'saltcellar.n.01'
p27
aS'salt.n.02'
p28
aS'wok.n.01'
p29
aS'rice.n.01'
p30
aS'glass.n.02'
p31
aS'measuring_cup.n.01'
p32
aS'meal.n.03'
p33
aS'meal.n.01'
p34
asS'instanceCount'
p35
I41
sS'matrix'
p36
(dp37
g30
(dp38
S'rice.n.01'
p39
I1
ssg10
(dp40
S'apple.n.01'
p41
I1
ssg25
(dp42
S'cup.n.01'
p43
I1
ssg22
(dp44
S'milk.n.01'
p45
I2
ssg11
(dp46
g12
I1
ssg12
(dp47
g12
I0
ssg26
(dp48
S'cola.n.02'
p49
I1
ssg27
(dp50
S'saltcellar.n.01'
p51
I1
ssg23
(dp52
S'bottle.n.01'
p53
I1
ssg18
(dp54
S'pot.n.01'
p55
I1
ssg8
(dp56
S'fill.v.01'
p57
I14
ssg21
(dp58
S'pitcher.n.02'
p59
I1
ssg32
(dp60
S'measuring_cup.n.01'
p61
I1
ssg31
(dp62
S'glass.n.02'
p63
I1
ssg16
(dp64
g17
I1
ssg28
(dp65
S'salt.n.02'
p66
I1
ssg17
(dp67
g17
I0
ssg29
(dp68
S'wok.n.01'
p69
I1
ssg20
(dp70
S'coffee.n.01'
p71
I1
ssg24
(dp72
S'fruit_juice.n.01'
p73
I1
ssg15
(dp74
S'teapot.n.01'
p75
I1
ssg9
(dp76
S'blender.n.01'
p77
I1
ssg19
(dp78
S'thermos.n.01'
p79
I1
ssg13
(dp80
S'water.n.06'
p81
I3
ssg14
(dp82
S'jar.n.01'
p83
I2
ssg34
(dp84
g34
I0
ssg33
(dp85
g34
I1
sssb.