ccopy_reg
_reconstructor
p0
(cutils.eval
ConfusionMatrix
p1
c__builtin__
object
p2
Ntp3
Rp4
(dp5
S'labels'
p6
(lp7
S'fill.v.01'
p8
aS'bottle.n.01'
p9
aS'fruit_juice.n.01'
p10
aS'cup.n.01'
p11
aS'cola.n.02'
p12
aS'saltcellar.n.01'
p13
aS'salt.n.02'
p14
aS'wok.n.01'
p15
aS'rice.n.01'
p16
aS'glass.n.02'
p17
aS'milk.n.01'
p18
aS'measuring_cup.n.01'
p19
aS'meal.n.03'
p20
aS'ice.n.01'
p21
aS'ice.n.05'
p22
aS'bowl.n.01'
p23
aS'opening.n.01'
p24
aS'gap.n.03'
p25
aS'fill.v.09'
p26
aS'batter.n.02'
p27
aS'kettle.n.01'
p28
aS'water.n.06'
p29
aS'opening.n.10'
p30
aS'curd.n.01'
p31
aS'foam.n.01'
p32
aS'mug.n.04'
p33
aS'whiskey.n.01'
p34
aS'carafe.n.01'
p35
aS'blender.n.01'
p36
aS'apple.n.01'
p37
aS'pan.n.01'
p38
aS'pan.n.03'
p39
aS'jar.n.01'
p40
aS'teapot.n.01'
p41
aS'gravy.n.01'
p42
aS'gravy.n.02'
p43
aS'pot.n.01'
p44
aS'thermos.n.01'
p45
aS'coffee.n.01'
p46
aS'pitcher.n.02'
p47
aS'juice.n.01'
p48
aS'bowl.n.08'
p49
aS'meal.n.01'
p50
aS'methamphetamine.n.01'
p51
asS'instanceCount'
p52
I413
sS'matrix'
p53
(dp54
g45
(dp55
S'rice.n.01'
p56
I0
sS'gap.n.03'
p57
I0
sS'bowl.n.01'
p58
I0
sS'batter.n.02'
p59
I0
sS'opening.n.10'
p60
I0
sS'apple.n.01'
p61
I0
sS'foam.n.01'
p62
I0
sS'milk.n.01'
p63
I0
sS'pan.n.01'
p64
I0
sS'pan.n.03'
p65
I0
sg49
I0
sS'cola.n.02'
p66
I0
sS'saltcellar.n.01'
p67
I0
sS'fill.v.09'
p68
I0
sS'bottle.n.01'
p69
I0
sg44
I0
sS'fill.v.01'
p70
I0
sg47
I0
sS'measuring_cup.n.01'
p71
I0
sS'glass.n.02'
p72
I0
sg42
I0
sS'salt.n.02'
p73
I0
sg43
I0
sS'wok.n.01'
p74
I0
sg51
I0
sg46
I0
sS'whiskey.n.01'
p75
I0
sS'opening.n.01'
p76
I0
sS'mug.n.04'
p77
I0
sS'fruit_juice.n.01'
p78
I0
sS'teapot.n.01'
p79
I0
sS'blender.n.01'
p80
I0
sg45
I7
sS'water.n.06'
p81
I0
sg50
I0
sS'ice.n.01'
p82
I0
sS'cup.n.01'
p83
I0
sS'kettle.n.01'
p84
I0
sS'ice.n.05'
p85
I0
sS'curd.n.01'
p86
I0
sS'jar.n.01'
p87
I0
sS'carafe.n.01'
p88
I0
sg48
I0
sS'meal.n.03'
p89
I0
ssg51
(dp90
S'rice.n.01'
p91
I0
sg51
I0
sS'bowl.n.01'
p92
I0
sS'batter.n.02'
p93
I0
sS'opening.n.10'
p94
I0
sS'cup.n.01'
p95
I0
sS'milk.n.01'
p96
I0
sS'cola.n.02'
p97
I0
sS'gap.n.03'
p98
I0
sS'saltcellar.n.01'
p99
I0
sS'bottle.n.01'
p100
I0
sS'pot.n.01'
p101
I0
sS'fill.v.01'
p102
I0
sS'pitcher.n.02'
p103
I0
sS'measuring_cup.n.01'
p104
I0
sS'glass.n.02'
p105
I0
sS'gravy.n.01'
p106
I0
sS'salt.n.02'
p107
I0
sS'gravy.n.02'
p108
I0
sS'wok.n.01'
p109
I0
sS'coffee.n.01'
p110
I0
sS'fill.v.09'
p111
I0
sS'opening.n.01'
p112
I0
sS'fruit_juice.n.01'
p113
I0
sS'teapot.n.01'
p114
I0
sS'thermos.n.01'
p115
I0
sS'water.n.06'
p116
I0
sS'ice.n.01'
p117
I0
sS'kettle.n.01'
p118
I0
sS'curd.n.01'
p119
I0
sS'jar.n.01'
p120
I0
sS'meal.n.01'
p121
I0
sS'meal.n.03'
p122
I0
ssg23
(dp123
S'thermos.n.01'
p124
I0
sg51
I0
sg23
I6
sg27
I0
sg37
I0
sg30
I0
sg8
I0
sg18
I0
sg38
I0
sg39
I0
sg32
I0
sg12
I0
sg25
I0
sg13
I0
sg9
I0
sS'pot.n.01'
p125
I0
sg11
I0
sg49
I1
sg26
I0
sg19
I0
sg17
I0
sS'gravy.n.01'
p126
I0
sg14
I0
sS'gravy.n.02'
p127
I0
sg15
I0
sS'coffee.n.01'
p128
I0
sg121
I0
sg34
I0
sg24
I0
sg33
I0
sg10
I0
sg41
I0
sg36
I0
sg16
I0
sg29
I0
sS'juice.n.01'
p129
I0
sg21
I0
sg28
I0
sg22
I0
sg31
I0
sg40
I0
sg35
I0
sS'pitcher.n.02'
p130
I0
sg20
I0
ssg27
(dp131
g124
I0
sg51
I0
sg23
I0
sg27
I7
sg37
I0
sg30
I0
sg8
I0
sg18
I0
sg38
I0
sg39
I0
sg32
I0
sg12
I0
sg25
I0
sg13
I0
sg9
I0
sg125
I0
sg11
I0
sg49
I0
sg26
I0
sg19
I0
sg17
I0
sg126
I0
sg14
I0
sg127
I0
sg15
I0
sg128
I0
sg121
I0
sg34
I0
sg24
I0
sg33
I0
sg10
I0
sg41
I0
sg36
I0
sg16
I0
sg29
I0
sg129
I0
sg21
I0
sg28
I0
sg22
I0
sg31
I0
sg40
I0
sg35
I0
sg130
I0
sg20
I0
ssg37
(dp132
g45
I0
sg23
I0
sg27
I0
sg30
I0
sg37
I7
sg8
I0
sg18
I0
sg38
I0
sg39
I0
sg32
I0
sg12
I0
sg25
I0
sg13
I0
sg9
I0
sg44
I0
sg11
I0
sg49
I0
sg26
I0
sg19
I0
sg17
I0
sg42
I0
sg14
I0
sg43
I0
sg15
I0
sg46
I0
sg50
I0
sg34
I0
sg24
I0
sg33
I0
sg10
I0
sg41
I0
sg36
I0
sg16
I0
sg29
I0
sg48
I0
sg21
I0
sg28
I0
sg22
I0
sg31
I0
sg40
I0
sg35
I0
sg47
I0
sg20
I0
ssg30
(dp133
g45
I0
sS'methamphetamine.n.01'
p134
I0
sg23
I0
sg27
I0
sg37
I0
sg30
I0
sg8
I0
sg18
I0
sg38
I0
sg39
I0
sg32
I0
sg12
I0
sg25
I0
sg13
I0
sg9
I0
sg44
I0
sg11
I0
sg49
I0
sg26
I0
sg19
I0
sg17
I0
sg42
I0
sg14
I0
sg43
I0
sg15
I0
sg46
I0
sS'meal.n.01'
p135
I0
sg34
I0
sg24
I0
sg33
I0
sg10
I0
sg41
I0
sg36
I0
sg16
I0
sg29
I0
sg48
I0
sg21
I0
sg28
I0
sg22
I0
sg31
I0
sg40
I0
sg35
I0
sg47
I0
sg20
I0
ssg8
(dp136
g45
I0
sg51
I0
sg23
I0
sg27
I0
sg37
I0
sg30
I0
sg8
I126
sg18
I0
sg38
I0
sg39
I0
sg32
I0
sg12
I0
sg25
I0
sg13
I0
sg9
I0
sg44
I0
sg11
I0
sg49
I0
sg26
I0
sg19
I0
sg17
I0
sg42
I0
sg14
I0
sg43
I0
sg15
I0
sg46
I0
sg50
I0
sg34
I0
sg24
I0
sg33
I0
sg10
I0
sg41
I0
sg36
I0
sg16
I0
sg29
I0
sg48
I0
sg21
I0
sg28
I0
sg22
I0
sg31
I0
sg40
I0
sg35
I0
sg47
I0
sg20
I0
ssg18
(dp137
g45
I0
sg51
I0
sg23
I0
sg27
I0
sg37
I0
sg30
I0
sg8
I0
sg18
I14
sg38
I0
sg39
I0
sg32
I0
sg12
I0
sg25
I0
sg13
I0
sg9
I0
sg44
I0
sg11
I0
sg49
I0
sg26
I0
sg19
I0
sg17
I0
sg42
I0
sg14
I0
sg43
I0
sg15
I0
sg46
I0
sg50
I0
sg34
I0
sg24
I0
sg33
I0
sg10
I0
sg41
I0
sg36
I0
sg16
I0
sg29
I0
sg48
I0
sg21
I0
sg28
I0
sg22
I0
sg31
I0
sg40
I0
sg35
I0
sg47
I0
sg20
I0
ssg38
(dp138
g45
I0
sg23
I0
sg27
I0
sg37
I0
sg30
I0
sg8
I0
sg18
I0
sg38
I0
sg39
I7
sg32
I0
sg12
I0
sg25
I0
sg13
I0
sg9
I0
sg44
I0
sg11
I0
sg49
I0
sg26
I0
sg19
I0
sg17
I0
sg42
I0
sg14
I0
sg43
I0
sg15
I0
sg46
I0
sg50
I0
sg34
I0
sg24
I0
sg33
I0
sg10
I0
sg41
I0
sg36
I0
sg16
I0
sg29
I0
sg48
I0
sg21
I0
sg28
I0
sg22
I0
sg31
I0
sg40
I0
sg35
I0
sg47
I0
sg20
I0
ssg39
(dp139
g45
I0
sg23
I0
sg27
I0
sg37
I0
sg30
I0
sg8
I0
sg18
I0
sg38
I0
sg39
I0
sg32
I0
sg12
I0
sg25
I0
sg13
I0
sg9
I0
sg44
I0
sg11
I0
sg49
I0
sg26
I0
sg19
I0
sg17
I0
sg42
I0
sg14
I0
sg43
I0
sg15
I0
sg46
I0
sg50
I0
sg34
I0
sg24
I0
sg33
I0
sg10
I0
sg41
I0
sg36
I0
sg16
I0
sg29
I0
sg48
I0
sg21
I0
sg28
I0
sg22
I0
sg31
I0
sg40
I0
sg35
I0
sg47
I0
sg20
I0
ssg32
(dp140
g45
I0
sg23
I0
sg27
I0
sg37
I0
sg30
I0
sg11
I0
sg18
I0
sg38
I0
sg39
I0
sg32
I7
sg12
I0
sg25
I0
sg13
I0
sg9
I0
sg44
I0
sg8
I0
sg49
I0
sg26
I0
sg19
I0
sg17
I0
sg42
I0
sg14
I0
sg43
I0
sg15
I0
sg46
I0
sg34
I0
sg24
I0
sg33
I0
sg10
I0
sg41
I0
sg36
I0
sg16
I0
sg29
I0
sg48
I0
sg21
I0
sg28
I0
sg22
I0
sg31
I0
sg40
I0
sg35
I0
sg47
I0
sg20
I0
ssg12
(dp141
g45
I0
sg51
I0
sg23
I0
sg27
I0
sg37
I0
sg30
I0
sg8
I0
sg18
I0
sg38
I0
sg39
I0
sg32
I0
sg12
I7
sg25
I0
sg13
I0
sg9
I0
sg44
I0
sg11
I0
sg26
I0
sg19
I0
sg17
I0
sg42
I0
sg14
I0
sg43
I0
sg15
I0
sg46
I0
sg50
I0
sg34
I0
sg24
I0
sg33
I0
sg10
I0
sg79
I0
sg36
I0
sg16
I0
sg29
I0
sg48
I0
sg21
I0
sg28
I0
sg22
I0
sg31
I0
sg87
I0
sg35
I0
sg47
I0
sg20
I0
ssg25
(dp142
g124
I0
sg51
I0
sg23
I0
sg27
I0
sg37
I0
sg30
I0
sg8
I0
sg18
I0
sg38
I0
sg39
I0
sg32
I0
sg12
I0
sg25
I0
sg13
I0
sg9
I0
sg125
I0
sg11
I0
sg49
I0
sg26
I0
sg19
I0
sg17
I0
sg126
I0
sg14
I0
sg127
I0
sg15
I0
sg128
I0
sg121
I0
sg34
I0
sg24
I0
sg33
I0
sg10
I0
sg41
I0
sg36
I0
sg16
I0
sg29
I0
sg129
I0
sg21
I0
sg28
I0
sg22
I0
sg31
I0
sg40
I0
sg35
I0
sg130
I0
sg20
I0
ssg13
(dp143
g124
I0
sg51
I0
sg23
I0
sg27
I0
sg37
I0
sg30
I0
sg11
I0
sg18
I0
sg38
I0
sg39
I0
sg32
I0
sg12
I0
sg25
I0
sg13
I7
sg9
I0
sS'pot.n.01'
p144
I0
sg8
I0
sg26
I0
sg19
I0
sg17
I0
sS'gravy.n.01'
p145
I0
sg14
I0
sS'gravy.n.02'
p146
I0
sg15
I0
sg128
I0
sg50
I0
sg34
I0
sg24
I0
sg33
I0
sg10
I0
sg41
I0
sg36
I0
sg16
I0
sg29
I0
sg129
I0
sg21
I0
sg28
I0
sg22
I0
sg31
I0
sg40
I0
sg35
I0
sg130
I0
sg20
I0
ssg9
(dp147
g45
I0
sg51
I0
sg23
I0
sg27
I0
sg37
I0
sg30
I0
sg8
I0
sg18
I0
sg38
I0
sg39
I0
sg32
I0
sg12
I0
sg25
I0
sg13
I0
sg9
I7
sg44
I0
sg11
I0
sg26
I0
sg19
I0
sg17
I0
sg42
I0
sg14
I0
sg43
I0
sg15
I0
sg46
I0
sg50
I0
sg34
I0
sg24
I0
sg33
I0
sg10
I0
sg79
I0
sg36
I0
sg16
I0
sg29
I0
sg48
I0
sg21
I0
sg28
I0
sg22
I0
sg31
I0
sg87
I0
sg35
I0
sg47
I0
sg20
I0
ssg44
(dp148
S'saltcellar.n.01'
p149
I0
sS'rice.n.01'
p150
I0
sg51
I0
sS'bowl.n.01'
p151
I0
sS'batter.n.02'
p152
I0
sg60
I0
sg61
I0
sg62
I0
sg63
I0
sg64
I0
sg65
I0
sg49
I0
sg66
I0
sS'gap.n.03'
p153
I0
sg68
I0
sg69
I0
sg44
I7
sg70
I0
sg47
I0
sS'measuring_cup.n.01'
p154
I0
sS'glass.n.02'
p155
I0
sg42
I0
sS'salt.n.02'
p156
I0
sg43
I0
sS'wok.n.01'
p157
I0
sg46
I0
sg75
I0
sg76
I0
sg77
I0
sg78
I0
sg79
I0
sg80
I0
sg45
I0
sg81
I0
sg50
I0
sS'ice.n.01'
p158
I0
sg83
I0
sg84
I0
sS'ice.n.05'
p159
I0
sg86
I0
sg87
I0
sg88
I0
sg48
I0
sS'meal.n.03'
p160
I0
ssg11
(dp161
g45
I0
sg51
I0
sg23
I0
sg27
I0
sg37
I0
sg30
I0
sg11
I7
sg18
I0
sg38
I0
sg39
I0
sg32
I0
sg12
I0
sg25
I0
sg13
I0
sg9
I0
sg44
I0
sg8
I0
sg26
I0
sg19
I0
sg17
I0
sg42
I0
sg14
I0
sg43
I0
sg15
I0
sg46
I0
sg50
I0
sg34
I0
sg24
I0
sg33
I0
sg10
I0
sg79
I0
sg36
I0
sg16
I0
sg29
I0
sg48
I0
sg21
I0
sg28
I0
sg22
I0
sg31
I0
sg87
I0
sg35
I0
sg47
I0
sg20
I0
ssg49
(dp162
g151
I0
sg152
I0
sS'opening.n.10'
p163
I0
sS'apple.n.01'
p164
I0
sS'foam.n.01'
p165
I0
sS'milk.n.01'
p166
I0
sS'pan.n.01'
p167
I0
sS'pan.n.03'
p168
I0
sg49
I0
sg153
I0
sS'fill.v.09'
p169
I0
sg125
I0
sS'fill.v.01'
p170
I0
sS'pitcher.n.02'
p171
I0
sg126
I0
sg127
I0
sS'coffee.n.01'
p172
I0
sS'whiskey.n.01'
p173
I0
sS'opening.n.01'
p174
I0
sS'mug.n.04'
p175
I0
sS'teapot.n.01'
p176
I0
sS'blender.n.01'
p177
I0
sS'thermos.n.01'
p178
I0
sS'water.n.06'
p179
I0
sg158
I0
sS'kettle.n.01'
p180
I0
sg159
I0
sS'curd.n.01'
p181
I0
sS'jar.n.01'
p182
I0
sS'carafe.n.01'
p183
I0
ssg26
(dp184
g13
I0
sg45
I0
sg51
I0
sg23
I0
sg27
I0
sg37
I0
sg30
I0
sg11
I0
sg18
I0
sg38
I0
sg39
I0
sg32
I0
sg12
I0
sg25
I0
sg26
I0
sg9
I0
sg44
I0
sg8
I14
sg49
I0
sg47
I0
sg19
I0
sg17
I0
sg42
I0
sg14
I0
sg43
I0
sg15
I0
sg46
I0
sg34
I0
sg24
I0
sg33
I0
sg10
I0
sg41
I0
sg36
I0
sg16
I0
sg29
I0
sg121
I0
sg21
I0
sg28
I0
sg22
I0
sg31
I0
sg40
I0
sg35
I0
sg48
I0
sg20
I0
ssg19
(dp185
g124
I0
sg51
I0
sg23
I0
sg27
I0
sg37
I0
sg30
I0
sg8
I0
sg18
I0
sg38
I0
sg39
I0
sg32
I0
sg12
I0
sg25
I0
sg13
I0
sg9
I0
sS'pot.n.01'
p186
I0
sg11
I0
sg26
I0
sg19
I7
sg17
I0
sS'gravy.n.01'
p187
I0
sg14
I0
sS'gravy.n.02'
p188
I0
sg15
I0
sg128
I0
sg50
I0
sg34
I0
sg24
I0
sg33
I0
sg10
I0
sg41
I0
sg36
I0
sg16
I0
sg29
I0
sg129
I0
sg21
I0
sg28
I0
sg22
I0
sg31
I0
sg40
I0
sg35
I0
sg130
I0
sg20
I0
ssg17
(dp189
g124
I0
sg51
I0
sg23
I0
sg27
I0
sg37
I0
sg30
I0
sg8
I0
sg18
I0
sg38
I0
sg39
I0
sg32
I0
sg12
I0
sg25
I0
sg13
I0
sg9
I0
sg186
I0
sg11
I0
sg26
I0
sg19
I0
sg17
I7
sg187
I0
sg14
I0
sg188
I0
sg15
I0
sg128
I0
sg50
I0
sg34
I0
sg24
I0
sg33
I0
sg10
I0
sg41
I0
sg36
I0
sg16
I0
sg29
I0
sg129
I0
sg21
I0
sg28
I0
sg22
I0
sg31
I0
sg40
I0
sg35
I0
sg130
I0
sg20
I0
ssg42
(dp190
g149
I0
sg150
I0
sg51
I0
sg151
I0
sg152
I0
sg60
I0
sg61
I0
sg62
I0
sg63
I0
sg64
I0
sg65
I0
sg49
I0
sg66
I0
sg153
I0
sg68
I0
sg69
I0
sg44
I0
sg70
I0
sg47
I0
sg154
I0
sg155
I0
sg42
I0
sg156
I0
sg43
I7
sg157
I0
sg46
I0
sg75
I0
sg76
I0
sg77
I0
sg78
I0
sg79
I0
sg80
I0
sg45
I0
sg81
I0
sg50
I0
sg158
I0
sg83
I0
sg84
I0
sg159
I0
sg86
I0
sg87
I0
sg88
I0
sg48
I0
sg160
I0
ssg14
(dp191
g124
I0
sg51
I0
sg23
I0
sg27
I0
sg37
I0
sg30
I0
sg8
I0
sg18
I0
sg38
I0
sg39
I0
sg32
I0
sg12
I0
sg25
I0
sg13
I0
sg9
I0
sg144
I0
sg11
I0
sg26
I0
sg19
I0
sg17
I0
sg145
I0
sg14
I7
sg146
I0
sg15
I0
sg128
I0
sg50
I0
sg34
I0
sg24
I0
sg33
I0
sg10
I0
sg41
I0
sg36
I0
sg16
I0
sg29
I0
sg129
I0
sg21
I0
sg28
I0
sg22
I0
sg31
I0
sg40
I0
sg35
I0
sg130
I0
sg20
I0
ssg43
(dp192
g149
I0
sg150
I0
sg51
I0
sg151
I0
sg152
I0
sg60
I0
sg61
I0
sg62
I0
sg63
I0
sg64
I0
sg65
I0
sg49
I0
sg66
I0
sg153
I0
sg68
I0
sg69
I0
sg44
I0
sg70
I0
sg47
I0
sg154
I0
sg155
I0
sg42
I0
sg156
I0
sg43
I0
sg157
I0
sg46
I0
sg75
I0
sg76
I0
sg77
I0
sg78
I0
sg79
I0
sg80
I0
sg45
I0
sg81
I0
sg50
I0
sg158
I0
sg83
I0
sg84
I0
sg159
I0
sg86
I0
sg87
I0
sg88
I0
sg48
I0
sg160
I0
ssg15
(dp193
g124
I0
sg51
I0
sg23
I0
sg27
I0
sg37
I0
sg30
I0
sg8
I0
sg18
I0
sg38
I0
sg39
I0
sg32
I0
sg12
I0
sg25
I0
sg13
I0
sg9
I0
sg144
I0
sg11
I0
sg26
I0
sg19
I0
sg17
I0
sg145
I0
sg14
I0
sg146
I0
sg15
I7
sg128
I0
sg50
I0
sg34
I0
sg24
I0
sg33
I0
sg10
I0
sg41
I0
sg36
I0
sg16
I0
sg29
I0
sg129
I0
sg21
I0
sg28
I0
sg22
I0
sg31
I0
sg40
I0
sg35
I0
sg130
I0
sg20
I0
ssg46
(dp194
g56
I0
sg57
I0
sg58
I0
sg59
I0
sg60
I0
sg61
I0
sg62
I0
sg63
I0
sg64
I0
sg65
I0
sg49
I0
sg66
I0
sg67
I0
sg68
I0
sg69
I0
sg44
I0
sg70
I0
sg47
I0
sg71
I0
sg72
I0
sg42
I0
sg73
I0
sg43
I0
sg74
I0
sg51
I0
sg46
I7
sg75
I0
sg76
I0
sg77
I0
sg78
I0
sg79
I0
sg80
I0
sg45
I0
sg81
I0
sg50
I0
sg82
I0
sg83
I0
sg84
I0
sg85
I0
sg86
I0
sg87
I0
sg88
I0
sg48
I0
sg89
I0
ssg50
(dp195
S'rice.n.01'
p196
I0
sg51
I0
sg92
I0
sg93
I0
sg94
I0
sS'apple.n.01'
p197
I0
sS'cup.n.01'
p198
I0
sS'milk.n.01'
p199
I0
sS'pan.n.01'
p200
I0
sS'pan.n.03'
p201
I0
sS'cola.n.02'
p202
I0
sg98
I0
sS'saltcellar.n.01'
p203
I0
sS'bottle.n.01'
p204
I0
sg186
I0
sS'fill.v.01'
p205
I0
sS'pitcher.n.02'
p206
I0
sg154
I0
sg155
I0
sg187
I0
sS'salt.n.02'
p207
I0
sg188
I0
sS'wok.n.01'
p208
I0
sS'coffee.n.01'
p209
I0
sg111
I0
sg112
I0
sS'fruit_juice.n.01'
p210
I0
sS'teapot.n.01'
p211
I0
sS'blender.n.01'
p212
I0
sS'thermos.n.01'
p213
I0
sS'water.n.06'
p214
I0
sg117
I0
sg118
I0
sg119
I0
sS'jar.n.01'
p215
I0
sg50
I0
sg160
I0
ssg34
(dp216
g45
I0
sg23
I0
sg27
I0
sg37
I0
sg30
I0
sg8
I0
sg18
I0
sg38
I0
sg39
I0
sg32
I0
sg12
I0
sg25
I0
sg13
I0
sg9
I0
sg44
I0
sg11
I0
sg49
I0
sg26
I0
sg19
I0
sg17
I0
sg42
I0
sg14
I0
sg43
I0
sg15
I0
sg46
I0
sg34
I7
sg24
I0
sg33
I0
sg10
I0
sg41
I0
sg36
I0
sg16
I0
sg29
I0
sg48
I0
sg21
I0
sg28
I0
sg22
I0
sg31
I0
sg40
I0
sg35
I0
sg47
I0
sg20
I0
ssg24
(dp217
g45
I0
sg51
I0
sg23
I0
sg27
I0
sg37
I0
sg30
I7
sg11
I0
sg18
I0
sg38
I0
sg39
I0
sg32
I0
sg12
I0
sg25
I7
sg13
I0
sg9
I0
sg44
I0
sg8
I0
sg49
I0
sg26
I0
sg19
I0
sg17
I0
sg42
I0
sg14
I0
sg43
I0
sg15
I0
sg46
I0
sg121
I0
sg34
I0
sg24
I0
sg33
I0
sg10
I0
sg41
I0
sg36
I0
sg16
I0
sg29
I0
sg48
I0
sg21
I0
sg28
I0
sg22
I0
sg31
I0
sg40
I0
sg35
I0
sg47
I0
sg20
I0
ssg33
(dp218
g45
I0
sg23
I0
sg27
I0
sg37
I0
sg30
I0
sg8
I0
sg18
I0
sg38
I0
sg39
I0
sg32
I0
sg12
I0
sg25
I0
sg13
I0
sg9
I0
sg44
I0
sg11
I0
sg49
I0
sg26
I0
sg19
I0
sg17
I0
sg42
I0
sg14
I0
sg43
I0
sg15
I0
sg46
I0
sg34
I0
sg24
I0
sg33
I7
sg10
I0
sg41
I0
sg36
I0
sg16
I0
sg29
I0
sg48
I0
sg21
I0
sg28
I0
sg22
I0
sg31
I0
sg40
I0
sg35
I0
sg47
I0
sg20
I0
ssg10
(dp219
g45
I0
sg51
I0
sg23
I0
sg27
I0
sg37
I0
sg30
I0
sg8
I0
sg18
I0
sg38
I0
sg39
I0
sg32
I0
sg12
I0
sg25
I0
sg13
I0
sg9
I0
sg44
I0
sg11
I0
sg26
I0
sg19
I0
sg17
I0
sg42
I0
sg14
I0
sg43
I0
sg15
I0
sg46
I0
sg50
I0
sg34
I0
sg24
I0
sg33
I0
sg10
I5
sg79
I0
sg36
I0
sg16
I0
sg29
I0
sg48
I2
sg21
I0
sg28
I0
sg22
I0
sg31
I0
sg87
I0
sg35
I0
sg47
I0
sg20
I0
ssg41
(dp220
g45
I0
sg51
I0
sS'bowl.n.01'
p221
I0
sS'batter.n.02'
p222
I0
sS'apple.n.01'
p223
I0
sS'opening.n.10'
p224
I0
sS'foam.n.01'
p225
I0
sS'milk.n.01'
p226
I0
sS'pan.n.01'
p227
I0
sS'pan.n.03'
p228
I0
sg49
I0
sg66
I0
sS'gap.n.03'
p229
I0
sS'saltcellar.n.01'
p230
I0
sg69
I0
sg44
I0
sS'fill.v.01'
p231
I0
sS'fill.v.09'
p232
I0
sS'measuring_cup.n.01'
p233
I0
sS'glass.n.02'
p234
I0
sg42
I0
sS'salt.n.02'
p235
I0
sg43
I0
sS'wok.n.01'
p236
I0
sg46
I0
sg50
I0
sS'whiskey.n.01'
p237
I0
sS'opening.n.01'
p238
I0
sS'mug.n.04'
p239
I0
sg78
I0
sg41
I7
sS'blender.n.01'
p240
I0
sS'rice.n.01'
p241
I0
sS'water.n.06'
p242
I0
sg48
I0
sS'ice.n.01'
p243
I0
sg83
I0
sS'kettle.n.01'
p244
I0
sS'ice.n.05'
p245
I0
sS'curd.n.01'
p246
I0
sg40
I0
sS'carafe.n.01'
p247
I0
sg47
I0
sS'meal.n.03'
p248
I0
ssg36
(dp249
g45
I0
sg23
I0
sg27
I0
sg37
I0
sg30
I0
sg11
I0
sg18
I0
sg38
I0
sg39
I0
sg32
I0
sg12
I0
sg25
I0
sg13
I0
sg9
I0
sg44
I0
sg8
I0
sg49
I0
sg26
I0
sg19
I0
sg17
I0
sg42
I0
sg14
I0
sg43
I0
sg15
I0
sg46
I0
sg50
I0
sg34
I0
sg24
I0
sg33
I0
sg10
I0
sg41
I0
sg36
I7
sg16
I0
sg29
I0
sg48
I0
sg21
I0
sg28
I0
sg22
I0
sg31
I0
sg40
I0
sg35
I0
sg47
I0
sg20
I0
ssg16
(dp250
g124
I0
sg51
I0
sg23
I0
sg27
I0
sg37
I0
sg30
I0
sg8
I0
sg18
I0
sg38
I0
sg39
I0
sg32
I0
sg12
I0
sg25
I0
sg13
I0
sg9
I0
sg144
I0
sg11
I0
sg26
I0
sg19
I0
sg17
I0
sg145
I0
sg14
I0
sg146
I0
sg15
I0
sg128
I0
sg50
I0
sg34
I0
sg24
I0
sg33
I0
sg10
I0
sg41
I0
sg36
I0
sg16
I7
sg29
I0
sg129
I0
sg21
I0
sg28
I0
sg22
I0
sg31
I0
sg40
I0
sg35
I0
sg130
I0
sg20
I0
ssg29
(dp251
g45
I0
sg51
I0
sg23
I0
sg27
I0
sg37
I0
sg30
I0
sg8
I0
sg18
I0
sg38
I0
sg39
I0
sg32
I0
sg12
I0
sg25
I0
sg13
I0
sg9
I0
sg44
I0
sg11
I0
sg49
I0
sg26
I0
sg19
I0
sg17
I0
sg42
I0
sg14
I0
sg43
I0
sg15
I0
sg46
I0
sg50
I0
sg34
I0
sg24
I0
sg33
I0
sg10
I0
sg41
I0
sg36
I0
sg16
I0
sg29
I28
sg48
I0
sg21
I0
sg28
I0
sg22
I0
sg31
I0
sg40
I0
sg35
I0
sg47
I0
sg20
I0
ssg48
(dp252
g56
I0
sg57
I0
sg58
I0
sg59
I0
sg60
I0
sg61
I0
sg62
I0
sg63
I0
sg64
I0
sg65
I0
sg66
I0
sg67
I0
sg68
I0
sg69
I0
sg44
I0
sg70
I0
sg47
I0
sg71
I0
sg72
I0
sg42
I0
sg73
I0
sg43
I0
sg74
I0
sg46
I0
sg75
I0
sg76
I0
sg77
I0
sg78
I0
sg79
I0
sg80
I0
sg45
I0
sg81
I0
sg82
I0
sg83
I0
sg84
I0
sg85
I0
sg86
I0
sg87
I0
sg88
I0
sg48
I0
sg89
I0
ssg21
(dp253
g124
I0
sg51
I2
sg23
I0
sg27
I0
sg37
I0
sg30
I0
sg8
I0
sg18
I0
sg38
I0
sg39
I0
sg32
I0
sg12
I0
sg25
I0
sg13
I0
sg9
I0
sg125
I0
sg11
I0
sg49
I0
sg26
I0
sg19
I0
sg17
I0
sg126
I0
sg14
I0
sg127
I0
sg15
I0
sg128
I0
sg121
I0
sg34
I0
sg24
I0
sg33
I0
sg10
I0
sg41
I0
sg36
I0
sg16
I0
sg29
I0
sg129
I0
sg21
I0
sg28
I0
sg22
I5
sg31
I0
sg40
I0
sg35
I0
sg130
I0
sg20
I0
ssg28
(dp254
g16
I0
sg134
I0
sg45
I0
sg23
I0
sg27
I0
sg37
I0
sg30
I0
sg8
I0
sg18
I0
sg38
I0
sg39
I0
sg32
I0
sg12
I0
sg25
I0
sg26
I0
sg9
I0
sg44
I0
sg11
I0
sg49
I0
sg47
I0
sg19
I0
sg17
I0
sg42
I0
sg14
I0
sg43
I0
sg15
I0
sg46
I0
sg34
I0
sg24
I0
sg33
I0
sg10
I0
sg41
I0
sg36
I0
sg13
I0
sg29
I0
sg135
I0
sg21
I0
sg28
I7
sg22
I0
sg31
I0
sg40
I0
sg35
I0
sg48
I0
sg20
I0
ssg22
(dp255
g124
I0
sg23
I0
sg27
I0
sg37
I0
sg30
I0
sg8
I0
sg18
I0
sg38
I0
sg39
I0
sg32
I0
sg12
I0
sg25
I0
sg13
I0
sg9
I0
sg125
I0
sg11
I0
sg49
I0
sg26
I0
sg19
I0
sg17
I0
sg126
I0
sg14
I0
sg127
I0
sg15
I0
sg128
I0
sg34
I0
sg24
I0
sg33
I0
sg10
I0
sg41
I0
sg36
I0
sg16
I0
sg29
I0
sg129
I0
sg21
I0
sg28
I0
sg22
I0
sg31
I0
sg40
I0
sg35
I0
sg130
I0
sg20
I0
ssg31
(dp256
g45
I0
sg134
I0
sg23
I0
sg27
I0
sg37
I0
sg30
I0
sg8
I0
sg18
I0
sg38
I0
sg39
I0
sg32
I0
sg12
I0
sg25
I0
sg13
I0
sg9
I0
sg44
I0
sg11
I0
sg49
I0
sg26
I0
sg19
I0
sg17
I0
sg42
I0
sg14
I0
sg43
I0
sg15
I0
sg46
I0
sg135
I0
sg34
I0
sg24
I0
sg33
I0
sg10
I0
sg41
I0
sg36
I0
sg16
I0
sg29
I0
sg48
I0
sg21
I0
sg28
I0
sg22
I0
sg31
I7
sg40
I0
sg35
I0
sg47
I0
sg20
I0
ssg40
(dp257
g45
I0
sg51
I0
sg221
I0
sg222
I0
sg223
I0
sg224
I0
sg225
I0
sg226
I0
sg227
I0
sg228
I0
sg49
I0
sg66
I0
sg229
I0
sg230
I0
sg69
I0
sg44
I0
sg231
I0
sg232
I0
sg233
I0
sg234
I0
sg42
I0
sg235
I0
sg43
I0
sg236
I0
sg46
I0
sg50
I0
sg237
I0
sg238
I0
sg239
I0
sg78
I0
sg41
I0
sg240
I0
sg241
I0
sg242
I0
sg48
I0
sg243
I0
sg83
I0
sg244
I0
sg245
I0
sg246
I0
sg40
I14
sg247
I0
sg47
I0
sg248
I0
ssg35
(dp258
g45
I0
sg23
I0
sg27
I0
sg37
I0
sg30
I0
sg8
I0
sg18
I0
sg38
I0
sg39
I0
sg32
I0
sg12
I0
sg25
I0
sg13
I0
sg9
I0
sg44
I0
sg11
I0
sg49
I0
sg26
I0
sg19
I0
sg17
I0
sg42
I0
sg14
I0
sg43
I0
sg15
I0
sg46
I0
sg34
I0
sg24
I0
sg33
I0
sg10
I0
sg41
I0
sg36
I0
sg16
I0
sg29
I0
sg48
I0
sg21
I0
sg28
I0
sg22
I0
sg31
I0
sg40
I0
sg35
I7
sg47
I0
sg20
I0
ssg47
(dp259
g56
I0
sg57
I0
sg58
I0
sg59
I0
sg60
I0
sg61
I0
sg62
I0
sg63
I0
sg64
I0
sg65
I0
sg49
I0
sg66
I0
sg67
I0
sg68
I0
sg69
I0
sg44
I0
sg70
I0
sg47
I7
sg71
I0
sg72
I0
sg42
I0
sg73
I0
sg43
I0
sg74
I0
sg51
I0
sg46
I0
sg75
I0
sg76
I0
sg77
I0
sg78
I0
sg79
I0
sg80
I0
sg45
I0
sg81
I0
sg50
I0
sg82
I0
sg83
I0
sg84
I0
sg85
I0
sg86
I0
sg87
I0
sg88
I0
sg48
I0
sg89
I0
ssg20
(dp260
g124
I0
sg51
I0
sg23
I0
sg27
I0
sg37
I0
sg30
I0
sg11
I0
sg18
I0
sg38
I0
sg39
I0
sg32
I0
sg12
I0
sg25
I0
sg13
I0
sg9
I0
sg186
I0
sg8
I0
sg26
I0
sg19
I0
sg17
I0
sg187
I0
sg14
I0
sg188
I0
sg15
I0
sg128
I0
sg50
I3
sg34
I0
sg24
I0
sg33
I0
sg10
I0
sg41
I0
sg36
I0
sg16
I0
sg29
I0
sg129
I0
sg21
I0
sg28
I0
sg22
I0
sg31
I0
sg40
I0
sg35
I0
sg130
I0
sg20
I4
sssb.