ccopy_reg
_reconstructor
p0
(cutils.eval
ConfusionMatrix
p1
c__builtin__
object
p2
Ntp3
Rp4
(dp5
S'labels'
p6
(lp7
S'jar.n.01'
p8
aS'fill.v.01'
p9
aS'teapot.n.01'
p10
aS'water.n.06'
p11
aS'gravy.n.01'
p12
aS'gravy.n.02'
p13
aS'pot.n.01'
p14
aS'thermos.n.01'
p15
aS'coffee.n.01'
p16
aS'pitcher.n.02'
p17
aS'milk.n.01'
p18
aS'bottle.n.01'
p19
aS'fruit_juice.n.01'
p20
aS'cup.n.01'
p21
aS'cola.n.02'
p22
aS'saltcellar.n.01'
p23
aS'salt.n.02'
p24
aS'wok.n.01'
p25
aS'rice.n.01'
p26
aS'glass.n.02'
p27
aS'measuring_cup.n.01'
p28
aS'meal.n.03'
p29
aS'meal.n.01'
p30
aS'ice.n.01'
p31
aS'methamphetamine.n.01'
p32
aS'bowl.n.01'
p33
aS'opening.n.01'
p34
aS'gap.n.03'
p35
aS'fill.v.09'
p36
aS'batter.n.02'
p37
asS'instanceCount'
p38
I41
sS'matrix'
p39
(dp40
g26
(dp41
S'rice.n.01'
p42
I1
ssg32
(dp43
g32
I0
ssg33
(dp44
S'bowl.n.01'
p45
I1
ssg37
(dp46
S'batter.n.02'
p47
I1
ssg21
(dp48
S'cup.n.01'
p49
I1
ssg18
(dp50
S'milk.n.01'
p51
I2
ssg22
(dp52
S'cola.n.02'
p53
I1
ssg35
(dp54
g35
I0
ssg23
(dp55
S'saltcellar.n.01'
p56
I1
ssg19
(dp57
S'bottle.n.01'
p58
I1
ssg14
(dp59
S'pot.n.01'
p60
I1
ssg9
(dp61
S'fill.v.01'
p62
I13
ssg17
(dp63
S'pitcher.n.02'
p64
I1
ssg28
(dp65
S'measuring_cup.n.01'
p66
I1
ssg27
(dp67
S'glass.n.02'
p68
I1
ssg12
(dp69
g13
I1
ssg24
(dp70
S'salt.n.02'
p71
I1
ssg13
(dp72
g13
I0
ssg25
(dp73
S'wok.n.01'
p74
I1
ssg16
(dp75
S'coffee.n.01'
p76
I1
ssg36
(dp77
S'fill.v.01'
p78
I1
ssg34
(dp79
g35
I1
ssg20
(dp80
S'fruit_juice.n.01'
p81
I1
ssg10
(dp82
S'teapot.n.01'
p83
I1
ssg15
(dp84
S'thermos.n.01'
p85
I1
ssg11
(dp86
S'water.n.06'
p87
I2
ssg31
(dp88
g32
I1
ssg8
(dp89
S'jar.n.01'
p90
I2
ssg30
(dp91
g30
I0
ssg29
(dp92
g30
I1
sssb.