ccopy_reg
_reconstructor
p0
(cutils.eval
ConfusionMatrix
p1
c__builtin__
object
p2
Ntp3
Rp4
(dp5
S'labels'
p6
(lp7
S'fill.v.01'
p8
aS'thermos.n.01'
p9
aS'coffee.n.01'
p10
aS'pitcher.n.02'
p11
aS'milk.n.01'
p12
aS'bottle.n.01'
p13
aS'fruit_juice.n.01'
p14
aS'juice.n.01'
p15
aS'cup.n.01'
p16
aS'cola.n.02'
p17
aS'saltcellar.n.01'
p18
aS'salt.n.02'
p19
aS'wok.n.01'
p20
aS'rice.n.01'
p21
aS'glass.n.02'
p22
aS'measuring_cup.n.01'
p23
aS'meal.n.03'
p24
aS'ice.n.01'
p25
aS'ice.n.05'
p26
aS'bowl.n.01'
p27
aS'opening.n.01'
p28
aS'gap.n.03'
p29
aS'fill.v.09'
p30
aS'batter.n.02'
p31
aS'kettle.n.01'
p32
aS'water.n.06'
p33
aS'opening.n.10'
p34
aS'curd.n.01'
p35
aS'foam.n.01'
p36
aS'mug.n.04'
p37
aS'whiskey.n.01'
p38
aS'carafe.n.01'
p39
asS'instanceCount'
p40
I42
sS'matrix'
p41
(dp42
g9
(dp43
S'thermos.n.01'
p44
I1
ssg27
(dp45
S'bowl.n.01'
p46
I1
ssg31
(dp47
S'batter.n.02'
p48
I1
ssg34
(dp49
g34
I0
ssg8
(dp50
S'fill.v.01'
p51
I12
ssg12
(dp52
S'milk.n.01'
p53
I2
ssg36
(dp54
S'foam.n.01'
p55
I1
ssg17
(dp56
S'cola.n.02'
p57
I1
ssg29
(dp58
g29
I0
ssg18
(dp59
S'saltcellar.n.01'
p60
I1
ssg13
(dp61
S'bottle.n.01'
p62
I1
ssg16
(dp63
S'cup.n.01'
p64
I1
ssg11
(dp65
S'pitcher.n.02'
p66
I1
ssg23
(dp67
S'measuring_cup.n.01'
p68
I1
ssg22
(dp69
S'glass.n.02'
p70
I1
ssg19
(dp71
S'salt.n.02'
p72
I1
ssg20
(dp73
S'wok.n.01'
p74
I1
ssg10
(dp75
S'coffee.n.01'
p76
I1
ssg30
(dp77
S'fill.v.01'
p78
I2
ssg38
(dp79
S'whiskey.n.01'
p80
I1
ssg28
(dp81
g34
I1
sg29
I1
ssg37
(dp82
S'mug.n.04'
p83
I1
ssg14
(dp84
g15
I1
ssg21
(dp85
S'rice.n.01'
p86
I1
ssg33
(dp87
S'water.n.06'
p88
I1
ssg25
(dp89
g26
I1
ssg32
(dp90
S'kettle.n.01'
p91
I1
ssg26
(dp92
g26
I0
ssg35
(dp93
S'curd.n.01'
p94
I1
ssg39
(dp95
S'carafe.n.01'
p96
I1
ssg15
(dp97
g15
I0
ssg24
(dp98
S'meal.n.03'
p99
I1
sssb.