ccopy_reg
_reconstructor
p0
(cutils.eval
ConfusionMatrix
p1
c__builtin__
object
p2
Ntp3
Rp4
(dp5
S'labels'
p6
(lp7
S'Goal'
p8
aS'ObjectToBePutted'
p9
aS'ActionCause'
p10
asS'instanceCount'
p11
I62
sS'matrix'
p12
(dp13
g10
(dp14
g10
I20
sg9
I0
sg8
I0
ssg9
(dp15
g10
I0
sg9
I22
sg8
I0
ssg8
(dp16
g10
I0
sg9
I0
sg8
I20
sssb.