ccopy_reg
_reconstructor
p0
(cutils.eval
ConfusionMatrix
p1
c__builtin__
object
p2
Ntp3
Rp4
(dp5
S'labels'
p6
(lp7
S'fill.v.01'
p8
aS'mug.n.04'
p9
aS'add.v.01'
p10
aS'lend.v.01'
p11
aS'butter.n.01'
p12
aS'sugar.n.01'
p13
aS'boodle.n.01'
p14
aS'water.n.06'
p15
aS'body_of_water.n.01'
p16
aS'rice.n.01'
p17
aS'rice.n.02'
p18
aS'pour.v.01'
p19
aS'concoction.n.01'
p20
aS'mix.n.03'
p21
aS'fill.v.09'
p22
aS'pitcher.n.02'
p23
aS'pitcher.n.03'
p24
aS'milk.n.01'
p25
aS'milk.n.04'
p26
aS'bread.n.01'
p27
aS'pan.n.01'
p28
aS'put.v.01'
p29
aS'onion.n.01'
p30
aS'onion.n.03'
p31
aS'beef.n.02'
p32
aS'beef.n.01'
p33
aS'plate.n.04'
p34
aS'plate.n.05'
p35
aS'chicken.n.01'
p36
aS'chicken.n.04'
p37
aS'corn.n.02'
p38
aS'corn.n.03'
p39
aS'chop.v.01'
p40
aS'chop.v.05'
p41
aS'salt.n.02'
p42
aS'salt.n.01'
p43
aS'egg.n.02'
p44
aS'egg.n.01'
p45
aS'dough.n.01'
p46
aS'mix.v.04'
p47
aS'mix.v.05'
p48
aS'jar.n.01'
p49
aS'gravy.n.01'
p50
aS'boom.n.03'
p51
aS'meal.n.03'
p52
aS'meal.n.01'
p53
aS'fork.n.01'
p54
aS'branching.n.01'
p55
aS'bowl.n.01'
p56
aS'bowl.n.08'
p57
aS'blend.v.03'
p58
aS'sauce.n.01'
p59
aS'put.v.02'
p60
aS'lodge.v.02'
p61
aS'stick.v.08'
p62
aS'pan.n.03'
p63
aS'knife.n.01'
p64
aS'tongue.n.03'
p65
aS'banana.n.02'
p66
aS'slice.v.03'
p67
aS'serve.v.05'
p68
aS'serve.v.11'
p69
aS'cut.v.01'
p70
aS'piece.n.08'
p71
aS'slice.n.05'
p72
aS'cover.v.01'
p73
aS'cover.v.16'
p74
aS'rib.n.03'
p75
aS'rib.n.01'
p76
aS'cut.n.16'
p77
aS'bag.n.01'
p78
aS'udder.n.01'
p79
aS'blend.v.01'
p80
aS'stadium.n.01'
p81
aS'pan.n.02'
p82
aS'water_system.n.02'
p83
aS'carve.v.03'
p84
aS'pepper.n.04'
p85
aS'pepper.n.03'
p86
aS'onion.n.02'
p87
aS'walnut.n.01'
p88
aS'walnut.n.03'
p89
aS'get.v.01'
p90
aS'make.v.02'
p91
aS'pear.n.01'
p92
aS'bowl.n.04'
p93
aS'bottle.n.01'
p94
aS'fruit_juice.n.01'
p95
aS'juice.n.02'
p96
aS'vanilla.n.02'
p97
aS'vanilla.n.03'
p98
aS'mixture.n.01'
p99
aS'burner.n.02'
p100
aS'burner.n.01'
p101
aS'opening.n.01'
p102
aS'gap.n.05'
p103
aS'batter.n.02'
p104
aS'carafe.n.01'
p105
aS'liquid.n.01'
p106
aS'liquid.n.04'
p107
aS'sink.n.01'
p108
aS'sink.n.02'
p109
aS'cup.n.01'
p110
aS'cola.n.02'
p111
aS'cola.n.01'
p112
aS'coffee.n.01'
p113
aS'rice.n.03'
p114
aS'apple.n.01'
p115
aS'kettle.n.01'
p116
aS'water.n.03'
p117
aS'strawberry.n.01'
p118
aS'avocado.n.01'
p119
aS'opening.n.12'
p120
aS'curd.n.01'
p121
aS'pot.n.01'
p122
aS'rum.n.01'
p123
aS'shaker.n.03'
p124
aS'take.v.04'
p125
aS'bring.v.01'
p126
aS'decant.v.01'
p127
aS'capsicum.n.01'
p128
aS'salt.n.04'
p129
aS'squash.n.02'
p130
aS'glass.n.02'
p131
aS'glass.n.03'
p132
asS'instanceCount'
p133
I133
sS'matrix'
p134
(dp135
g56
(dp136
g81
I1
sg57
I1
sg93
I1
ssg93
(dp137
g93
I0
ssg57
(dp138
g57
I0
ssg70
(dp139
S'cut.v.01'
p140
I3
ssg73
(dp141
g74
I1
ssg50
(dp142
g51
I1
ssg75
(dp143
g76
I1
ssg76
(dp144
g76
I0
ssg89
(dp145
g89
I0
ssg54
(dp146
g55
I1
ssg88
(dp147
g89
I1
ssg69
(dp148
g69
I0
ssg126
(dp149
g126
I0
ssg102
(dp150
g103
I1
sg120
I1
ssg51
(dp151
g51
I0
ssg117
(dp152
g117
I0
ssg60
(dp153
g60
I0
ssg29
(dp154
g60
I2
sS'put.v.01'
p155
I2
ssg19
(dp156
S'pour.v.01'
p157
I3
ssg79
(dp158
g79
I0
ssg65
(dp159
g65
I0
ssg49
(dp160
S'jar.n.01'
p161
I2
ssg105
(dp162
S'carafe.n.01'
p163
I1
ssg127
(dp164
S'pour.v.01'
p165
I1
ssg37
(dp166
g37
I0
ssg36
(dp167
g37
I1
ssg108
(dp168
g109
I1
ssg109
(dp169
g109
I0
ssg15
(dp170
g117
I2
sg83
I2
sg16
I1
ssg125
(dp171
g126
I1
ssg68
(dp172
g69
I1
ssg115
(dp173
S'apple.n.01'
p174
I1
ssg120
(dp175
g120
I0
ssg10
(dp176
g11
I6
ssg28
(dp177
S'pan.n.01'
p178
I1
sg63
I1
sg82
I2
ssg63
(dp179
g63
I0
ssg82
(dp180
g82
I0
ssg46
(dp181
S'boodle.n.01'
p182
I1
ssg110
(dp183
S'cup.n.01'
p184
I1
ssg128
(dp185
g128
I0
ssg98
(dp186
g98
I0
ssg97
(dp187
g98
I2
ssg67
(dp188
S'slice.v.03'
p189
I2
ssg66
(dp190
S'banana.n.02'
p191
I1
ssg90
(dp192
g91
I1
ssg85
(dp193
g86
I1
ssg86
(dp194
g128
I1
sg86
I0
ssg123
(dp195
S'rum.n.01'
p196
I1
ssg124
(dp197
S'shaker.n.03'
p198
I1
ssg81
(dp199
g81
I0
ssg95
(dp200
g96
I1
ssg116
(dp201
S'kettle.n.01'
p202
I1
ssg21
(dp203
g21
I1
ssg121
(dp204
S'curd.n.01'
p205
I1
ssg30
(dp206
g31
I1
sg87
I1
ssg53
(dp207
g53
I0
ssg31
(dp208
g31
I0
ssg87
(dp209
g87
I0
ssg118
(dp210
S'strawberry.n.01'
p211
I1
ssg39
(dp212
g39
I0
ssg38
(dp213
g39
I1
ssg33
(dp214
g33
I0
ssg32
(dp215
g33
I1
ssg84
(dp216
S'carve.v.03'
p217
I1
ssg61
(dp218
g62
I1
ssg91
(dp219
g91
I0
ssg62
(dp220
g62
I0
ssg22
(dp221
S'fill.v.01'
p222
I1
sg22
I1
ssg94
(dp223
S'bottle.n.01'
p224
I1
ssg122
(dp225
S'pot.n.01'
p226
I1
ssg8
(dp227
g22
I3
sS'fill.v.01'
p228
I14
ssg24
(dp229
g24
I0
ssg23
(dp230
g24
I1
ssg92
(dp231
S'pear.n.01'
p232
I1
ssg130
(dp233
S'squash.n.02'
p234
I1
ssg20
(dp235
g99
I1
sg21
I1
ssg42
(dp236
g43
I1
sg129
I1
ssg43
(dp237
g43
I0
ssg64
(dp238
g65
I1
ssg129
(dp239
g129
I0
ssg34
(dp240
g35
I1
ssg35
(dp241
g35
I0
ssg99
(dp242
g99
I0
ssg113
(dp243
S'coffee.n.01'
p244
I1
ssg55
(dp245
g55
I0
ssg9
(dp246
S'mug.n.04'
p247
I1
ssg83
(dp248
g83
I0
ssg119
(dp249
S'avocado.n.01'
p250
I1
ssg72
(dp251
g72
I0
ssg77
(dp252
S'cut.v.01'
p253
I1
ssg100
(dp254
g101
I1
ssg101
(dp255
g101
I0
ssg16
(dp256
g16
I0
ssg27
(dp257
S'bread.n.01'
p258
I2
ssg104
(dp259
S'batter.n.02'
p260
I1
ssg131
(dp261
g132
I1
ssg26
(dp262
g26
I0
ssg25
(dp263
g26
I2
ssg111
(dp264
g112
I1
ssg112
(dp265
g112
I0
ssg44
(dp266
S'egg.n.02'
p267
I1
sg45
I2
ssg12
(dp268
S'butter.n.01'
p269
I3
ssg41
(dp270
g41
I0
ssg78
(dp271
g79
I1
ssg40
(dp272
g41
I1
ssg47
(dp273
g48
I1
ssg48
(dp274
g48
I0
ssg59
(dp275
S'sauce.n.01'
p276
I1
ssg132
(dp277
g132
I0
ssg58
(dp278
S'mix.v.05'
p279
I4
ssg80
(dp280
S'blend.v.01'
p281
I1
ssg11
(dp282
g11
I0
ssg14
(dp283
g14
I0
ssg103
(dp284
g103
I0
ssg71
(dp285
S'piece.n.08'
p286
I1
sg72
I3
ssg18
(dp287
g18
I0
ssg114
(dp288
g114
I0
ssg17
(dp289
g18
I1
sg114
I1
ssg107
(dp290
g107
I0
ssg74
(dp291
g74
I0
ssg106
(dp292
g107
I1
ssg52
(dp293
g53
I1
ssg45
(dp294
g45
I0
ssg96
(dp295
g96
I0
ssg13
(dp296
g14
I1
sssb.