ccopy_reg
_reconstructor
p0
(cutils.eval
ConfusionMatrix
p1
c__builtin__
object
p2
Ntp3
Rp4
(dp5
S'labels'
p6
(lp7
S'olive.n.01'
p8
aS'olive.n.04'
p9
aS'slice.v.03'
p10
aS'slit.v.01'
p11
aS'tomato.n.01'
p12
aS'piece.n.08'
p13
aS'knife.n.01'
p14
asS'instanceCount'
p15
I6
sS'matrix'
p16
(dp17
g10
(dp18
g11
I1
sS'slice.v.03'
p19
I1
ssg8
(dp20
g9
I1
ssg14
(dp21
S'knife.n.01'
p22
I1
ssg9
(dp23
g9
I0
ssg12
(dp24
S'tomato.n.01'
p25
I1
ssg11
(dp26
g11
I0
ssg13
(dp27
S'piece.n.08'
p28
I1
sssb.