ccopy_reg
_reconstructor
p0
(cutils.eval
ConfusionMatrix
p1
c__builtin__
object
p2
Ntp3
Rp4
(dp5
S'labels'
p6
(lp7
S'flesh.n.01'
p8
aS'human_body.n.01'
p9
aS'slice.v.03'
p10
aS'cleaver.n.01'
p11
aS'cheese.n.01'
p12
asS'instanceCount'
p13
I5
sS'matrix'
p14
(dp15
g12
(dp16
S'cheese.n.01'
p17
I1
ssg10
(dp18
S'slice.v.03'
p19
I2
ssg9
(dp20
g9
I0
ssg11
(dp21
S'cleaver.n.01'
p22
I1
ssg8
(dp23
g9
I1
sssb.