ccopy_reg
_reconstructor
p0
(cutils.eval
ConfusionMatrix
p1
c__builtin__
object
p2
Ntp3
Rp4
(dp5
S'labels'
p6
(lp7
S'mushroom.n.05'
p8
aS'slice.v.03'
p9
aS'bread.n.01'
p10
aS'piece.n.08'
p11
aS'knife.n.01'
p12
asS'instanceCount'
p13
I6
sS'matrix'
p14
(dp15
g8
(dp16
S'mushroom.n.05'
p17
I1
ssg9
(dp18
S'slice.v.03'
p19
I2
ssg11
(dp20
S'piece.n.08'
p21
I1
ssg12
(dp22
S'knife.n.01'
p23
I1
ssg10
(dp24
S'bread.n.01'
p25
I1
sssb.