ccopy_reg
_reconstructor
p0
(cutils.eval
ConfusionMatrix
p1
c__builtin__
object
p2
Ntp3
Rp4
(dp5
S'labels'
p6
(lp7
S'piece.n.08'
p8
aS'slice.n.01'
p9
aS'pizza.n.01'
p10
aS'slice.v.03'
p11
aS'slice.v.02'
p12
aS'fill.v.01'
p13
aS'fill.v.09'
p14
aS'foam.n.01'
p15
aS'mug.n.04'
p16
aS'opening.n.01'
p17
aS'gap.n.05'
p18
aS'batter.n.02'
p19
aS'cut.v.01'
p20
aS'swerve.v.01'
p21
aS'bacon.n.01'
p22
aS'bacon.n.03'
p23
aS'cabbage.n.01'
p24
aS'put.v.01'
p25
aS'invest.v.01'
p26
aS'onion.n.01'
p27
aS'beef.n.02'
p28
aS'beef.n.01'
p29
aS'plate.n.04'
p30
aS'plate.n.12'
p31
aS'meet.v.04'
p32
aS'kettle.n.01'
p33
aS'kettle.n.02'
p34
aS'water.n.06'
p35
aS'water.n.03'
p36
aS'pan.n.03'
p37
aS'pan.n.01'
p38
aS'bread.n.01'
p39
aS'knife.n.01'
p40
aS'pitcher.n.02'
p41
aS'pitcher.n.03'
p42
aS'milk.n.01'
p43
aS'milk.n.04'
p44
aS'chicken.n.01'
p45
aS'meat.n.01'
p46
aS'kernel.n.01'
p47
aS'cleaver.n.01'
p48
aS'lemon.n.01'
p49
aS'lemon.n.04'
p50
aS'cake.n.03'
p51
aS'patty.n.01'
p52
aS'whipped_cream.n.01'
p53
aS'pepper.n.04'
p54
asS'instanceCount'
p55
I46
sS'matrix'
p56
(dp57
g31
(dp58
g31
I0
ssg26
(dp59
g26
I0
ssg21
(dp60
g21
I0
ssg28
(dp61
g29
I1
ssg39
(dp62
S'bread.n.01'
p63
I1
ssg19
(dp64
S'batter.n.02'
p65
I1
ssg44
(dp66
g44
I0
ssg29
(dp67
g29
I0
ssg15
(dp68
S'foam.n.01'
p69
I1
ssg43
(dp70
g44
I1
ssg38
(dp71
g38
I1
ssg37
(dp72
g38
I2
ssg20
(dp73
g21
I5
ssg14
(dp74
g14
I1
ssg53
(dp75
S'whipped_cream.n.01'
p76
I1
ssg23
(dp77
g23
I0
ssg22
(dp78
g23
I1
ssg13
(dp79
g32
I1
sg14
I3
ssg42
(dp80
g42
I0
ssg41
(dp81
g42
I1
ssg50
(dp82
g50
I0
ssg46
(dp83
g47
I1
ssg51
(dp84
g52
I1
ssg48
(dp85
S'cleaver.n.01'
p86
I1
ssg12
(dp87
g12
I0
ssg11
(dp88
g12
I2
ssg24
(dp89
S'cabbage.n.01'
p90
I1
ssg30
(dp91
g31
I1
ssg54
(dp92
S'pepper.n.04'
p93
I1
ssg32
(dp94
g32
I0
ssg40
(dp95
S'knife.n.01'
p96
I1
ssg45
(dp97
S'chicken.n.01'
p98
I1
ssg18
(dp99
g18
I0
ssg52
(dp100
g52
I0
ssg8
(dp101
g9
I1
ssg17
(dp102
g18
I1
ssg16
(dp103
S'mug.n.04'
p104
I1
ssg36
(dp105
g36
I0
ssg9
(dp106
g9
I0
ssg35
(dp107
g36
I2
ssg25
(dp108
g26
I4
ssg10
(dp109
S'pizza.n.01'
p110
I2
ssg34
(dp111
g34
I0
ssg33
(dp112
g34
I1
ssg47
(dp113
g47
I0
ssg49
(dp114
g50
I1
ssg27
(dp115
S'onion.n.01'
p116
I2
sssb.