ccopy_reg
_reconstructor
p0
(cutils.eval
ConfusionMatrix
p1
c__builtin__
object
p2
Ntp3
Rp4
(dp5
S'labels'
p6
(lp7
S'cabbage.n.01'
p8
aS'cut.v.01'
p9
aS'swerve.v.01'
p10
aS'put.v.01'
p11
aS'invest.v.01'
p12
aS'onion.n.01'
p13
aS'beef.n.02'
p14
aS'beef.n.01'
p15
aS'plate.n.04'
p16
aS'plate.n.12'
p17
aS'fill.v.01'
p18
aS'meet.v.04'
p19
aS'kettle.n.01'
p20
aS'kettle.n.02'
p21
aS'water.n.06'
p22
aS'water.n.03'
p23
aS'pan.n.03'
p24
aS'pan.n.01'
p25
aS'pizza.n.01'
p26
aS'bread.n.01'
p27
aS'knife.n.01'
p28
aS'fill.v.09'
p29
aS'pitcher.n.02'
p30
aS'pitcher.n.03'
p31
aS'milk.n.01'
p32
aS'milk.n.04'
p33
aS'chicken.n.01'
p34
aS'meat.n.01'
p35
aS'kernel.n.01'
p36
aS'cleaver.n.01'
p37
aS'lemon.n.01'
p38
aS'lemon.n.04'
p39
aS'cake.n.03'
p40
aS'patty.n.01'
p41
aS'whipped_cream.n.01'
p42
aS'slice.v.03'
p43
aS'slice.v.02'
p44
aS'pepper.n.04'
p45
aS'banana.n.02'
p46
aS'frame.v.04'
p47
aS'pepper.n.03'
p48
aS'salt.n.02'
p49
aS'egg.n.02'
p50
aS'testis.n.01'
p51
aS'cheese.n.01'
p52
aS'flesh.n.01'
p53
asS'instanceCount'
p54
I46
sS'matrix'
p55
(dp56
g17
(dp57
g17
I0
ssg10
(dp58
g10
I0
ssg12
(dp59
g12
I0
ssg27
(dp60
S'bread.n.01'
p61
I1
ssg52
(dp62
S'cheese.n.01'
p63
I1
ssg33
(dp64
g33
I0
ssg15
(dp65
g15
I0
ssg41
(dp66
g41
I0
ssg32
(dp67
g33
I1
ssg25
(dp68
g25
I1
ssg24
(dp69
g25
I2
ssg9
(dp70
g10
I4
ssg47
(dp71
g47
I0
ssg29
(dp72
g29
I0
ssg50
(dp73
g51
I1
ssg14
(dp74
g15
I1
ssg51
(dp75
g51
I0
ssg18
(dp76
g19
I1
sg29
I2
ssg31
(dp77
g31
I0
ssg30
(dp78
g31
I1
ssg39
(dp79
g39
I0
ssg35
(dp80
g36
I1
ssg40
(dp81
g41
I1
ssg49
(dp82
S'salt.n.02'
p83
I1
ssg37
(dp84
S'cleaver.n.01'
p85
I1
ssg44
(dp86
g44
I0
ssg43
(dp87
g44
I4
ssg8
(dp88
S'cabbage.n.01'
p89
I1
ssg46
(dp90
S'banana.n.02'
p91
I1
ssg16
(dp92
g17
I1
ssg45
(dp93
S'pepper.n.04'
p94
I1
ssg19
(dp95
g19
I0
ssg48
(dp96
S'pepper.n.04'
p97
I1
ssg28
(dp98
S'knife.n.01'
p99
I2
ssg34
(dp100
S'chicken.n.01'
p101
I1
ssg42
(dp102
S'whipped_cream.n.01'
p103
I1
ssg53
(dp104
S'flesh.n.01'
p105
I1
ssg23
(dp106
g23
I0
ssg22
(dp107
g23
I2
ssg11
(dp108
g12
I4
sg47
I1
ssg26
(dp109
S'pizza.n.01'
p110
I1
ssg21
(dp111
g21
I0
ssg20
(dp112
g21
I1
ssg36
(dp113
g36
I0
ssg38
(dp114
g39
I1
ssg13
(dp115
S'onion.n.01'
p116
I2
sssb.