ccopy_reg
_reconstructor
p0
(cutils.eval
ConfusionMatrix
p1
c__builtin__
object
p2
Ntp3
Rp4
(dp5
S'labels'
p6
(lp7
S'put.v.01'
p8
aS'invest.v.01'
p9
aS'pan.n.03'
p10
aS'pan.n.01'
p11
aS'chicken.n.01'
p12
aS'cut.v.01'
p13
aS'swerve.v.01'
p14
aS'meat.n.01'
p15
aS'kernel.n.01'
p16
aS'cleaver.n.01'
p17
aS'lemon.n.01'
p18
aS'lemon.n.04'
p19
aS'cake.n.03'
p20
aS'patty.n.01'
p21
aS'whipped_cream.n.01'
p22
aS'slice.v.03'
p23
aS'slice.v.02'
p24
aS'onion.n.01'
p25
aS'pepper.n.04'
p26
aS'fill.v.01'
p27
aS'fill.v.09'
p28
aS'water.n.06'
p29
aS'water.n.03'
p30
aS'knife.n.01'
p31
aS'banana.n.02'
p32
aS'frame.v.04'
p33
aS'pepper.n.03'
p34
aS'salt.n.02'
p35
aS'egg.n.02'
p36
aS'testis.n.01'
p37
aS'cheese.n.01'
p38
aS'flesh.n.01'
p39
aS'piece.n.08'
p40
aS'slice.n.01'
p41
aS'pizza.n.01'
p42
aS'foam.n.01'
p43
aS'mug.n.04'
p44
aS'opening.n.01'
p45
aS'gap.n.05'
p46
aS'batter.n.02'
p47
aS'bacon.n.01'
p48
aS'bacon.n.03'
p49
aS'cabbage.n.01'
p50
aS'beef.n.02'
p51
aS'beef.n.01'
p52
aS'plate.n.04'
p53
aS'plate.n.12'
p54
asS'instanceCount'
p55
I45
sS'matrix'
p56
(dp57
g54
(dp58
g54
I0
ssg9
(dp59
g9
I0
ssg12
(dp60
S'chicken.n.01'
p61
I1
ssg52
(dp62
g52
I0
ssg16
(dp63
g16
I0
ssg49
(dp64
g49
I0
ssg38
(dp65
S'cheese.n.01'
p66
I1
ssg47
(dp67
S'batter.n.02'
p68
I1
ssg14
(dp69
g14
I0
ssg27
(dp70
g28
I2
ssg11
(dp71
g11
I1
ssg10
(dp72
g11
I1
ssg13
(dp73
g14
I4
ssg33
(dp74
g33
I0
ssg28
(dp75
g28
I1
ssg50
(dp76
S'cabbage.n.01'
p77
I1
ssg36
(dp78
g37
I1
ssg51
(dp79
g52
I1
ssg37
(dp80
g37
I0
ssg48
(dp81
g49
I1
ssg21
(dp82
g21
I0
ssg15
(dp83
g16
I1
ssg35
(dp84
S'salt.n.02'
p85
I1
ssg17
(dp86
S'cleaver.n.01'
p87
I1
ssg24
(dp88
g24
I0
ssg23
(dp89
g24
I5
ssg31
(dp90
S'knife.n.01'
p91
I1
ssg32
(dp92
S'banana.n.02'
p93
I1
ssg53
(dp94
g54
I1
ssg26
(dp95
S'pepper.n.04'
p96
I1
ssg34
(dp97
S'pepper.n.04'
p98
I1
ssg43
(dp99
S'foam.n.01'
p100
I1
ssg22
(dp101
S'whipped_cream.n.01'
p102
I1
ssg40
(dp103
g41
I1
ssg45
(dp104
g46
I1
ssg44
(dp105
S'mug.n.04'
p106
I1
ssg39
(dp107
S'flesh.n.01'
p108
I1
ssg30
(dp109
g30
I0
ssg41
(dp110
g41
I0
ssg29
(dp111
g30
I1
ssg8
(dp112
g9
I3
sg33
I1
ssg42
(dp113
S'pizza.n.01'
p114
I1
ssg19
(dp115
g19
I0
ssg20
(dp116
g21
I1
ssg46
(dp117
g46
I0
ssg18
(dp118
g19
I1
ssg25
(dp119
S'onion.n.01'
p120
I2
sssb.