ccopy_reg
_reconstructor
p0
(cutils.eval
ConfusionMatrix
p1
c__builtin__
object
p2
Ntp3
Rp4
(dp5
S'labels'
p6
(lp7
S'cheese.n.01'
p8
aS'slice.v.03'
p9
aS'slice.v.02'
p10
aS'flesh.n.01'
p11
aS'piece.n.08'
p12
aS'slice.n.01'
p13
aS'pizza.n.01'
p14
aS'fill.v.01'
p15
aS'fill.v.09'
p16
aS'foam.n.01'
p17
aS'mug.n.04'
p18
aS'opening.n.01'
p19
aS'gap.n.05'
p20
aS'batter.n.02'
p21
aS'cut.v.01'
p22
aS'swerve.v.01'
p23
aS'bacon.n.01'
p24
aS'bacon.n.03'
p25
aS'cabbage.n.01'
p26
aS'put.v.01'
p27
aS'invest.v.01'
p28
aS'onion.n.01'
p29
aS'beef.n.02'
p30
aS'beef.n.01'
p31
aS'plate.n.04'
p32
aS'plate.n.12'
p33
aS'meet.v.04'
p34
aS'kettle.n.01'
p35
aS'kettle.n.02'
p36
aS'water.n.06'
p37
aS'water.n.03'
p38
aS'pan.n.03'
p39
aS'pan.n.01'
p40
aS'bread.n.01'
p41
aS'knife.n.01'
p42
aS'pitcher.n.02'
p43
aS'pitcher.n.03'
p44
aS'milk.n.01'
p45
aS'milk.n.04'
p46
aS'chicken.n.01'
p47
aS'meat.n.01'
p48
aS'kernel.n.01'
p49
aS'cleaver.n.01'
p50
aS'lemon.n.01'
p51
aS'lemon.n.04'
p52
aS'cake.n.03'
p53
aS'patty.n.01'
p54
aS'whipped_cream.n.01'
p55
asS'instanceCount'
p56
I44
sS'matrix'
p57
(dp58
g33
(dp59
g33
I0
ssg8
(dp60
S'cheese.n.01'
p61
I1
ssg23
(dp62
g23
I0
ssg28
(dp63
g28
I0
ssg41
(dp64
S'bread.n.01'
p65
I1
ssg21
(dp66
S'batter.n.02'
p67
I1
ssg46
(dp68
g46
I0
ssg31
(dp69
g31
I0
ssg17
(dp70
S'foam.n.01'
p71
I1
ssg45
(dp72
g46
I1
ssg40
(dp73
g40
I0
ssg39
(dp74
g40
I2
ssg22
(dp75
g23
I5
ssg16
(dp76
g16
I1
ssg55
(dp77
S'whipped_cream.n.01'
p78
I1
ssg30
(dp79
g31
I1
ssg25
(dp80
g25
I0
ssg24
(dp81
g25
I1
ssg15
(dp82
g34
I1
sg16
I2
ssg44
(dp83
g44
I0
ssg43
(dp84
g44
I1
ssg52
(dp85
g52
I0
ssg48
(dp86
g49
I1
ssg53
(dp87
g54
I1
ssg50
(dp88
S'cleaver.n.01'
p89
I1
ssg10
(dp90
g10
I0
ssg9
(dp91
g10
I3
ssg26
(dp92
S'cabbage.n.01'
p93
I1
ssg32
(dp94
g33
I1
ssg34
(dp95
g34
I0
ssg42
(dp96
S'knife.n.01'
p97
I1
ssg47
(dp98
S'chicken.n.01'
p99
I1
ssg20
(dp100
g20
I0
ssg54
(dp101
g54
I0
ssg12
(dp102
g13
I1
ssg19
(dp103
g20
I1
ssg18
(dp104
S'mug.n.04'
p105
I1
ssg11
(dp106
S'flesh.n.01'
p107
I1
ssg38
(dp108
g38
I0
ssg13
(dp109
g13
I0
ssg37
(dp110
g38
I1
ssg27
(dp111
g28
I4
ssg14
(dp112
S'pizza.n.01'
p113
I2
ssg36
(dp114
g36
I0
ssg35
(dp115
g36
I1
ssg49
(dp116
g49
I0
ssg51
(dp117
g52
I1
ssg29
(dp118
S'onion.n.01'
p119
I1
sssb.