ccopy_reg
_reconstructor
p0
(cutils.eval
ConfusionMatrix
p1
c__builtin__
object
p2
Ntp3
Rp4
(dp5
S'labels'
p6
(lp7
S'knife.n.01'
p8
aS'banana.n.02'
p9
aS'slice.v.03'
p10
aS'slice.v.02'
p11
aS'put.v.01'
p12
aS'frame.v.04'
p13
aS'pepper.n.03'
p14
aS'pepper.n.04'
p15
aS'salt.n.02'
p16
aS'egg.n.02'
p17
aS'testis.n.01'
p18
aS'cheese.n.01'
p19
aS'flesh.n.01'
p20
aS'piece.n.08'
p21
aS'slice.n.01'
p22
aS'pizza.n.01'
p23
aS'fill.v.01'
p24
aS'fill.v.09'
p25
aS'foam.n.01'
p26
aS'mug.n.04'
p27
aS'opening.n.01'
p28
aS'gap.n.05'
p29
aS'batter.n.02'
p30
aS'cut.v.01'
p31
aS'swerve.v.01'
p32
aS'bacon.n.01'
p33
aS'bacon.n.03'
p34
aS'cabbage.n.01'
p35
aS'invest.v.01'
p36
aS'onion.n.01'
p37
aS'beef.n.02'
p38
aS'beef.n.01'
p39
aS'plate.n.04'
p40
aS'plate.n.12'
p41
aS'meet.v.04'
p42
aS'kettle.n.01'
p43
aS'kettle.n.02'
p44
aS'water.n.06'
p45
aS'water.n.03'
p46
aS'pan.n.03'
p47
aS'pan.n.01'
p48
aS'bread.n.01'
p49
aS'pitcher.n.02'
p50
aS'pitcher.n.03'
p51
aS'milk.n.01'
p52
aS'milk.n.04'
p53
aS'chicken.n.01'
p54
aS'meat.n.01'
p55
aS'kernel.n.01'
p56
aS'cleaver.n.01'
p57
asS'instanceCount'
p58
I46
sS'matrix'
p59
(dp60
g41
(dp61
g41
I0
ssg19
(dp62
S'cheese.n.01'
p63
I1
ssg32
(dp64
g32
I0
ssg16
(dp65
S'salt.n.02'
p66
I1
ssg34
(dp67
g34
I0
ssg49
(dp68
S'bread.n.01'
p69
I1
ssg30
(dp70
S'batter.n.02'
p71
I1
ssg53
(dp72
g53
I0
ssg35
(dp73
S'cabbage.n.01'
p74
I1
ssg26
(dp75
S'foam.n.01'
p76
I1
ssg52
(dp77
g53
I1
ssg48
(dp78
g48
I0
ssg44
(dp79
g44
I0
ssg47
(dp80
g48
I2
ssg29
(dp81
g29
I0
ssg13
(dp82
g13
I0
ssg25
(dp83
g25
I1
ssg17
(dp84
g18
I1
ssg38
(dp85
g39
I1
ssg18
(dp86
g18
I0
ssg33
(dp87
g34
I1
ssg24
(dp88
g42
I1
sg25
I2
ssg51
(dp89
g51
I0
ssg50
(dp90
g51
I1
ssg55
(dp91
g56
I1
ssg57
(dp92
S'cleaver.n.01'
p93
I1
ssg11
(dp94
g11
I0
ssg10
(dp95
g11
I4
ssg8
(dp96
S'knife.n.01'
p97
I2
ssg9
(dp98
S'banana.n.02'
p99
I1
ssg40
(dp100
g41
I1
ssg15
(dp101
g15
I0
ssg42
(dp102
g42
I0
ssg14
(dp103
g15
I1
ssg54
(dp104
S'chicken.n.01'
p105
I1
ssg31
(dp106
g32
I4
ssg21
(dp107
g22
I1
ssg28
(dp108
g29
I1
ssg27
(dp109
S'mug.n.04'
p110
I1
ssg20
(dp111
S'flesh.n.01'
p112
I1
ssg46
(dp113
g46
I0
ssg22
(dp114
g22
I0
ssg45
(dp115
g46
I1
ssg12
(dp116
g36
I3
sg13
I1
ssg23
(dp117
S'pizza.n.01'
p118
I2
ssg36
(dp119
g36
I0
ssg43
(dp120
g44
I1
ssg56
(dp121
g56
I0
ssg39
(dp122
g39
I0
ssg37
(dp123
S'onion.n.01'
p124
I1
sssb.