ccopy_reg
_reconstructor
p0
(cutils.eval
ConfusionMatrix
p1
c__builtin__
object
p2
Ntp3
Rp4
(dp5
S'labels'
p6
(lp7
S'opening.n.01'
p8
aS'gap.n.05'
p9
aS'fill.v.09'
p10
aS'batter.n.02'
p11
aS'cut.v.01'
p12
aS'swerve.v.01'
p13
aS'bacon.n.01'
p14
aS'bacon.n.03'
p15
aS'cabbage.n.01'
p16
aS'put.v.01'
p17
aS'invest.v.01'
p18
aS'onion.n.01'
p19
aS'beef.n.02'
p20
aS'beef.n.01'
p21
aS'plate.n.04'
p22
aS'plate.n.12'
p23
aS'fill.v.01'
p24
aS'meet.v.04'
p25
aS'kettle.n.01'
p26
aS'kettle.n.02'
p27
aS'water.n.06'
p28
aS'water.n.03'
p29
aS'pan.n.03'
p30
aS'pan.n.01'
p31
aS'pizza.n.01'
p32
aS'bread.n.01'
p33
aS'knife.n.01'
p34
aS'pitcher.n.02'
p35
aS'pitcher.n.03'
p36
aS'milk.n.01'
p37
aS'milk.n.04'
p38
aS'chicken.n.01'
p39
aS'meat.n.01'
p40
aS'kernel.n.01'
p41
aS'cleaver.n.01'
p42
aS'lemon.n.01'
p43
aS'lemon.n.04'
p44
aS'cake.n.03'
p45
aS'patty.n.01'
p46
aS'whipped_cream.n.01'
p47
aS'slice.v.03'
p48
aS'slice.v.02'
p49
aS'pepper.n.04'
p50
aS'banana.n.02'
p51
aS'frame.v.04'
p52
aS'pepper.n.03'
p53
aS'salt.n.02'
p54
aS'egg.n.02'
p55
aS'testis.n.01'
p56
asS'instanceCount'
p57
I47
sS'matrix'
p58
(dp59
g23
(dp60
g23
I0
ssg13
(dp61
g13
I0
ssg18
(dp62
g18
I0
ssg56
(dp63
g56
I0
ssg33
(dp64
S'bread.n.01'
p65
I1
ssg11
(dp66
S'batter.n.02'
p67
I1
ssg38
(dp68
g38
I0
ssg21
(dp69
g21
I0
ssg46
(dp70
g46
I0
ssg37
(dp71
g38
I1
ssg31
(dp72
g31
I1
ssg30
(dp73
g31
I2
ssg9
(dp74
g9
I0
ssg52
(dp75
g52
I0
ssg10
(dp76
S'fill.v.09'
p77
I1
ssg55
(dp78
g56
I1
ssg47
(dp79
S'whipped_cream.n.01'
p80
I1
ssg20
(dp81
g21
I1
ssg15
(dp82
g15
I0
ssg14
(dp83
g15
I1
ssg24
(dp84
g25
I1
sS'fill.v.09'
p85
I2
ssg36
(dp86
g36
I0
ssg35
(dp87
g36
I1
ssg44
(dp88
g44
I0
ssg40
(dp89
g41
I1
ssg45
(dp90
g46
I1
ssg54
(dp91
S'salt.n.02'
p92
I1
ssg42
(dp93
S'cleaver.n.01'
p94
I1
ssg49
(dp95
g49
I0
ssg48
(dp96
g49
I2
ssg16
(dp97
S'cabbage.n.01'
p98
I1
ssg51
(dp99
S'banana.n.02'
p100
I1
ssg22
(dp101
g23
I1
ssg50
(dp102
S'pepper.n.04'
p103
I1
ssg25
(dp104
g25
I0
ssg53
(dp105
S'pepper.n.04'
p106
I1
ssg34
(dp107
S'knife.n.01'
p108
I2
ssg39
(dp109
S'chicken.n.01'
p110
I1
ssg12
(dp111
g13
I5
ssg8
(dp112
g9
I1
ssg29
(dp113
g29
I0
ssg28
(dp114
g29
I2
ssg17
(dp115
g18
I4
sg52
I1
ssg32
(dp116
S'pizza.n.01'
p117
I1
ssg27
(dp118
g27
I0
ssg26
(dp119
g27
I1
ssg41
(dp120
g41
I0
ssg43
(dp121
g44
I1
ssg19
(dp122
S'onion.n.01'
p123
I2
sssb.