ccopy_reg
_reconstructor
p0
(cutils.eval
ConfusionMatrix
p1
c__builtin__
object
p2
Ntp3
Rp4
(dp5
S'labels'
p6
(lp7
S'vegetable.n.01'
p8
aS'add.v.01'
p9
aS'corn.n.03'
p10
aS'dish.n.02'
p11
aS'dish.n.01'
p12
aS'asparagus.n.02'
p13
aS'asparagus.n.01'
p14
aS'salad.n.01'
p15
aS'rib.n.03'
p16
aS'mixing_bowl.n.01'
p17
aS'butter.n.01'
p18
aS'sugar.n.01'
p19
aS'pan.n.03'
p20
aS'egg.n.02'
p21
aS'onion.n.03'
p22
aS'sauce.n.01'
p23
aS'cream.n.02'
p24
aS'cream.n.03'
p25
aS'french_fries.n.01'
p26
aS'child.n.01'
p27
aS'steak.n.01'
p28
aS'ingredient.n.03'
p29
aS'dressing.n.01'
p30
aS'dressing.n.04'
p31
aS'pot.n.01'
p32
aS'pot.n.04'
p33
aS'bean.n.01'
p34
aS'vanilla.n.02'
p35
aS'milk.n.01'
p36
aS'milk.n.04'
p37
aS'water.n.06'
p38
aS'water_system.n.02'
p39
aS'apple.n.01'
p40
aS'concoction.n.01'
p41
aS'mix.n.03'
p42
asS'instanceCount'
p43
I50
sS'matrix'
p44
(dp45
g10
(dp46
S'corn.n.03'
p47
I1
ssg17
(dp48
S'mixing_bowl.n.01'
p49
I2
ssg11
(dp50
g12
I1
ssg12
(dp51
g12
I0
ssg27
(dp52
g27
I0
ssg37
(dp53
g37
I0
ssg40
(dp54
S'apple.n.01'
p55
I1
ssg9
(dp56
S'add.v.01'
p57
I18
ssg36
(dp58
g37
I1
ssg20
(dp59
S'pan.n.03'
p60
I2
ssg21
(dp61
S'egg.n.02'
p62
I2
ssg18
(dp63
S'butter.n.01'
p64
I2
ssg32
(dp65
g33
I1
ssg13
(dp66
g14
I1
ssg14
(dp67
g14
I0
ssg35
(dp68
S'vanilla.n.02'
p69
I1
ssg34
(dp70
S'bean.n.01'
p71
I1
ssg41
(dp72
g42
I1
ssg23
(dp73
S'sauce.n.01'
p74
I1
ssg16
(dp75
S'rib.n.03'
p76
I1
ssg42
(dp77
g42
I0
ssg24
(dp78
g25
I2
ssg29
(dp79
S'ingredient.n.03'
p80
I2
ssg25
(dp81
g25
I0
ssg28
(dp82
S'steak.n.01'
p83
I1
ssg8
(dp84
S'vegetable.n.01'
p85
I1
ssg31
(dp86
g31
I0
ssg39
(dp87
g39
I0
ssg38
(dp88
g39
I1
ssg30
(dp89
g31
I1
ssg26
(dp90
g27
I1
ssg33
(dp91
g33
I0
ssg15
(dp92
S'salad.n.01'
p93
I2
ssg22
(dp94
S'onion.n.03'
p95
I1
ssg19
(dp96
S'sugar.n.01'
p97
I1
sssb.