ccopy_reg
_reconstructor
p0
(cutils.eval
ConfusionMatrix
p1
c__builtin__
object
p2
Ntp3
Rp4
(dp5
S'labels'
p6
(lp7
S'add.v.01'
p8
aS'french_fries.n.01'
p9
aS'steak.n.01'
p10
aS'ingredient.n.03'
p11
aS'dressing.n.01'
p12
aS'salad.n.01'
p13
aS'pot.n.01'
p14
aS'pot.n.09'
p15
aS'bean.n.01'
p16
aS'pan.n.03'
p17
aS'vanilla.n.02'
p18
aS'milk.n.01'
p19
aS'milk.n.04'
p20
aS'water.n.06'
p21
aS'apple.n.01'
p22
aS'concoction.n.01'
p23
aS'mixture.n.01'
p24
aS'cream.n.02'
p25
aS'salt.n.02'
p26
aS'meat.n.01'
p27
aS'butter.n.01'
p28
aS'vegetable.n.01'
p29
aS'corn.n.03'
p30
aS'dish.n.02'
p31
aS'asparagus.n.02'
p32
aS'rib.n.03'
p33
aS'mixing_bowl.n.01'
p34
aS'sugar.n.01'
p35
aS'flour.n.01'
p36
aS'egg.n.02'
p37
aS'stuffing.n.01'
p38
aS'onion.n.03'
p39
aS'sauce.n.01'
p40
aS'kernel.n.01'
p41
aS'vanilla.n.01'
p42
aS'corn.n.02'
p43
aS'carbohydrate.n.01'
p44
aS'egg.n.01'
p45
aS'bean.n.02'
p46
aS'water_system.n.02'
p47
aS'cream.n.03'
p48
aS'dressing.n.04'
p49
aS'mix.n.03'
p50
aS'vanilla.n.03'
p51
aS'dish.n.01'
p52
aS'asparagus.n.01'
p53
aS'boodle.n.01'
p54
aS'rib.n.01'
p55
aS'pot.n.04'
p56
aS'child.n.01'
p57
aS'milk.n.02'
p58
aS'water.n.03'
p59
aS'pan.n.01'
p60
asS'instanceCount'
p61
I517
sS'matrix'
p62
(dp63
g41
(dp64
g41
I0
sS'corn.n.03'
p65
I0
sg43
I0
sS'mixing_bowl.n.01'
p66
I0
sg44
I0
sS'dish.n.02'
p67
I0
sg52
I0
sS'child.n.01'
p68
I0
sS'milk.n.04'
p69
I0
sS'apple.n.01'
p70
I0
sS'add.v.01'
p71
I0
sS'milk.n.01'
p72
I0
sS'pan.n.03'
p73
I0
sS'pot.n.09'
p74
I0
sS'flour.n.01'
p75
I0
sS'egg.n.02'
p76
I0
sS'butter.n.01'
p77
I0
sS'pot.n.01'
p78
I0
sS'asparagus.n.02'
p79
I0
sg53
I0
sg42
I0
sS'meat.n.01'
p80
I0
sg51
I0
sS'vanilla.n.02'
p81
I0
sS'bean.n.01'
p82
I0
sS'concoction.n.01'
p83
I0
sg46
I0
sS'sauce.n.01'
p84
I0
sS'salt.n.02'
p85
I0
sS'rib.n.03'
p86
I0
sg55
I0
sS'cream.n.02'
p87
I0
sS'ingredient.n.03'
p88
I0
sg48
I0
sS'steak.n.01'
p89
I0
sS'stuffing.n.01'
p90
I0
sg54
I0
sg56
I0
sS'vegetable.n.01'
p91
I0
sg49
I0
sg47
I0
sS'water.n.06'
p92
I0
sS'dressing.n.01'
p93
I0
sS'french_fries.n.01'
p94
I0
sg50
I0
sS'salad.n.01'
p95
I0
sg45
I0
sS'onion.n.03'
p96
I0
sS'sugar.n.01'
p97
I0
ssg30
(dp98
g41
I0
sg30
I8
sg43
I1
sg34
I0
sg44
I0
sg31
I0
sg52
I0
sg57
I0
sg20
I0
sg22
I0
sg8
I0
sg19
I0
sg58
I0
sg60
I0
sg17
I0
sg15
I0
sg36
I0
sg37
I0
sg28
I0
sg14
I0
sg32
I0
sg53
I0
sg42
I0
sg27
I0
sg51
I0
sg18
I0
sg16
I0
sg23
I0
sg46
I0
sg40
I0
sg26
I0
sg33
I0
sg55
I0
sg24
I0
sg25
I0
sg11
I0
sg48
I0
sg10
I0
sg38
I0
sg54
I0
sg56
I0
sg29
I0
sg59
I0
sg49
I0
sg47
I0
sg21
I0
sg12
I0
sg9
I0
sg50
I0
sg13
I0
sg45
I0
sg39
I0
sg35
I0
ssg43
(dp99
g41
I0
sg65
I0
sg43
I0
sg44
I0
sg67
I0
sg69
I0
sg71
I0
sg72
I0
sg73
I0
sg74
I0
sg75
I0
sg76
I0
sg77
I0
sg78
I0
sg79
I0
sg42
I0
sg80
I0
sg81
I0
sg82
I0
sg46
I0
sg84
I0
sg85
I0
sg86
I0
sg87
I0
sg88
I0
sg89
I0
sg90
I0
sg91
I0
sg47
I0
sg92
I0
sg93
I0
sg94
I0
sg95
I0
sg45
I0
sg96
I0
sg97
I0
ssg34
(dp100
S'kernel.n.01'
p101
I0
sg30
I0
sg34
I16
sg31
I0
sg52
I0
sg57
I0
sg20
I0
sg22
I0
sg8
I0
sg19
I0
sg58
I0
sg60
I0
sg17
I0
sg15
I0
sg36
I0
sg37
I0
sg28
I0
sg14
I0
sg32
I0
sg53
I0
sg56
I0
sg27
I0
sg51
I0
sg18
I0
sg16
I0
sg23
I0
sS'bean.n.02'
p102
I0
sg40
I0
sg26
I0
sg33
I0
sg55
I0
sg24
I0
sg25
I0
sg11
I0
sg48
I0
sg10
I0
sg38
I0
sg54
I0
sg29
I0
sg59
I0
sg49
I0
sS'water_system.n.02'
p103
I0
sg21
I0
sg12
I0
sg9
I0
sg50
I0
sg13
I0
sg39
I0
sg35
I0
ssg44
(dp104
g41
I0
sg65
I0
sg43
I0
sg44
I0
sg67
I0
sg69
I0
sg71
I0
sg72
I0
sg73
I0
sg74
I0
sg75
I0
sg76
I0
sg77
I0
sg78
I0
sg79
I0
sg42
I0
sg80
I0
sg81
I0
sg82
I0
sg46
I0
sg84
I0
sg85
I0
sg86
I0
sg87
I0
sg88
I0
sg89
I0
sg90
I0
sg91
I0
sg47
I0
sg92
I0
sg93
I0
sg94
I0
sg95
I0
sg45
I0
sg96
I0
sg97
I0
ssg31
(dp105
g41
I0
sg30
I0
sg43
I0
sg34
I0
sg44
I0
sg31
I4
sg52
I5
sg57
I0
sg20
I0
sg22
I0
sg8
I0
sg19
I0
sg58
I0
sg60
I0
sg17
I0
sg15
I0
sg36
I0
sg37
I0
sg28
I0
sg14
I0
sg32
I0
sg53
I0
sg42
I0
sg27
I0
sg51
I0
sg18
I0
sg16
I0
sg23
I0
sg46
I0
sg40
I0
sg26
I0
sg33
I0
sg55
I0
sg24
I0
sg25
I0
sg11
I0
sg48
I0
sg10
I0
sg38
I0
sg54
I0
sg56
I0
sg29
I0
sg59
I0
sg49
I0
sg47
I0
sg21
I0
sg12
I0
sg9
I0
sg50
I0
sg13
I0
sg45
I0
sg39
I0
sg35
I0
ssg52
(dp106
g101
I0
sS'corn.n.03'
p107
I0
sg66
I0
sS'dish.n.02'
p108
I0
sg52
I0
sg57
I0
sS'milk.n.04'
p109
I0
sg70
I0
sS'add.v.01'
p110
I0
sS'milk.n.01'
p111
I0
sS'milk.n.02'
p112
I0
sg60
I0
sS'pan.n.03'
p113
I0
sS'pot.n.09'
p114
I0
sS'flour.n.01'
p115
I0
sS'egg.n.02'
p116
I0
sS'butter.n.01'
p117
I0
sS'pot.n.01'
p118
I0
sS'asparagus.n.02'
p119
I0
sg53
I0
sg56
I0
sS'meat.n.01'
p120
I0
sg51
I0
sS'vanilla.n.02'
p121
I0
sS'bean.n.01'
p122
I0
sg83
I0
sg102
I0
sS'sauce.n.01'
p123
I0
sS'salt.n.02'
p124
I0
sS'rib.n.03'
p125
I0
sg55
I0
sS'cream.n.02'
p126
I0
sg48
I0
sS'ingredient.n.03'
p127
I0
sS'steak.n.01'
p128
I0
sg54
I0
sS'vegetable.n.01'
p129
I0
sg49
I0
sg103
I0
sS'water.n.06'
p130
I0
sS'dressing.n.01'
p131
I0
sS'french_fries.n.01'
p132
I0
sg50
I0
sS'salad.n.01'
p133
I0
sS'onion.n.03'
p134
I0
sS'sugar.n.01'
p135
I0
ssg57
(dp136
S'kernel.n.01'
p137
I0
sS'corn.n.03'
p138
I0
sS'mixing_bowl.n.01'
p139
I0
sS'dish.n.02'
p140
I0
sS'dish.n.01'
p141
I0
sg57
I0
sS'milk.n.04'
p142
I0
sS'apple.n.01'
p143
I0
sS'add.v.01'
p144
I0
sS'milk.n.01'
p145
I0
sg112
I0
sg60
I0
sS'pan.n.03'
p146
I0
sS'flour.n.01'
p147
I0
sS'egg.n.02'
p148
I0
sS'butter.n.01'
p149
I0
sS'pot.n.01'
p150
I0
sS'asparagus.n.02'
p151
I0
sS'asparagus.n.01'
p152
I0
sS'meat.n.01'
p153
I0
sS'vanilla.n.02'
p154
I0
sS'bean.n.01'
p155
I0
sS'concoction.n.01'
p156
I0
sS'sauce.n.01'
p157
I0
sS'salt.n.02'
p158
I0
sS'rib.n.03'
p159
I0
sS'mix.n.03'
p160
I0
sS'cream.n.02'
p161
I0
sS'ingredient.n.03'
p162
I0
sS'cream.n.03'
p163
I0
sS'steak.n.01'
p164
I0
sS'vegetable.n.01'
p165
I0
sS'dressing.n.04'
p166
I0
sS'water_system.n.02'
p167
I0
sS'water.n.06'
p168
I0
sS'dressing.n.01'
p169
I0
sS'french_fries.n.01'
p170
I0
sS'pot.n.04'
p171
I0
sS'salad.n.01'
p172
I0
sS'onion.n.03'
p173
I0
sS'sugar.n.01'
p174
I0
ssg20
(dp175
g41
I0
sg30
I0
sg43
I0
sg34
I0
sg44
I0
sg31
I0
sg52
I0
sg57
I0
sg20
I0
sg22
I0
sg8
I0
sg19
I0
sg17
I0
sg15
I0
sg36
I0
sg37
I0
sg28
I0
sg14
I0
sg32
I0
sg53
I0
sg42
I0
sg27
I0
sg51
I0
sg18
I0
sg16
I0
sg23
I0
sg46
I0
sg40
I0
sg26
I0
sg33
I0
sg24
I0
sg25
I0
sg11
I0
sg48
I0
sg10
I0
sg38
I0
sg54
I0
sg171
I0
sg29
I0
sg49
I0
sg47
I0
sg21
I0
sg12
I0
sg9
I0
sg50
I0
sg13
I0
sg45
I0
sg39
I0
sg35
I0
ssg22
(dp176
g101
I0
sg30
I0
sg34
I0
sg31
I0
sg52
I0
sg57
I0
sg20
I0
sg22
I9
sg8
I0
sg19
I0
sg58
I0
sg60
I0
sg17
I0
sg15
I0
sg36
I0
sg37
I0
sg28
I0
sg14
I0
sg32
I0
sg53
I0
sg56
I0
sg27
I0
sg51
I0
sg18
I0
sg16
I0
sg23
I0
sg102
I0
sg40
I0
sg26
I0
sg33
I0
sg55
I0
sg24
I0
sg25
I0
sg11
I0
sg48
I0
sg10
I0
sg38
I0
sg54
I0
sg29
I0
sg59
I0
sg49
I0
sg103
I0
sg21
I0
sg12
I0
sg9
I0
sg50
I0
sg13
I0
sg39
I0
sg35
I0
ssg8
(dp177
g41
I0
sg30
I0
sg43
I0
sg34
I0
sg44
I0
sg31
I0
sg52
I0
sg57
I0
sg20
I0
sg22
I0
sg8
I180
sg19
I0
sg58
I0
sg60
I0
sg17
I0
sg15
I0
sg36
I0
sg37
I0
sg28
I0
sg14
I0
sg32
I0
sg53
I0
sg42
I0
sg27
I0
sg51
I0
sg18
I0
sg16
I0
sg23
I0
sg46
I0
sg40
I0
sg26
I0
sg33
I0
sg55
I0
sg24
I0
sg25
I0
sg11
I0
sg48
I0
sg10
I0
sg38
I0
sg54
I0
sg56
I0
sg29
I0
sg59
I0
sg49
I0
sg47
I0
sg21
I0
sg12
I0
sg9
I0
sg50
I0
sg13
I0
sg45
I0
sg39
I0
sg35
I0
ssg19
(dp178
g41
I0
sg30
I0
sg43
I0
sg34
I0
sg44
I0
sg31
I0
sg52
I0
sg57
I0
sg20
I6
sg22
I0
sg8
I0
sg19
I1
sg58
I2
sg60
I0
sg17
I0
sg15
I0
sg36
I0
sg37
I0
sg28
I0
sg14
I0
sg32
I0
sg53
I0
sg42
I0
sg27
I0
sg51
I0
sg18
I0
sg16
I0
sg23
I0
sg46
I0
sg40
I0
sg26
I0
sg33
I0
sg24
I0
sg25
I0
sg11
I0
sg48
I0
sg10
I0
sg38
I0
sg54
I0
sg171
I0
sg29
I0
sg59
I0
sg49
I0
sg47
I0
sg21
I0
sg12
I0
sg9
I0
sg50
I0
sg13
I0
sg45
I0
sg39
I0
sg35
I0
ssg58
(dp179
S'corn.n.03'
p180
I0
sS'mixing_bowl.n.01'
p181
I0
sS'dish.n.02'
p182
I0
sS'dish.n.01'
p183
I0
sS'child.n.01'
p184
I0
sS'apple.n.01'
p185
I0
sS'add.v.01'
p186
I0
sS'milk.n.01'
p187
I0
sg58
I0
sg60
I0
sS'pan.n.03'
p188
I0
sS'pot.n.09'
p189
I0
sS'flour.n.01'
p190
I0
sS'egg.n.02'
p191
I0
sS'butter.n.01'
p192
I0
sS'pot.n.01'
p193
I0
sS'asparagus.n.02'
p194
I0
sS'meat.n.01'
p195
I0
sS'vanilla.n.02'
p196
I0
sS'bean.n.01'
p197
I0
sS'concoction.n.01'
p198
I0
sS'sauce.n.01'
p199
I0
sS'salt.n.02'
p200
I0
sS'rib.n.03'
p201
I0
sS'mixture.n.01'
p202
I0
sS'cream.n.02'
p203
I0
sS'ingredient.n.03'
p204
I0
sS'cream.n.03'
p205
I0
sS'steak.n.01'
p206
I0
sS'vegetable.n.01'
p207
I0
sg59
I0
sS'dressing.n.04'
p208
I0
sS'water_system.n.02'
p209
I0
sS'water.n.06'
p210
I0
sS'dressing.n.01'
p211
I0
sS'french_fries.n.01'
p212
I0
sS'salad.n.01'
p213
I0
sS'onion.n.03'
p214
I0
sS'sugar.n.01'
p215
I0
ssg60
(dp216
S'corn.n.03'
p217
I0
sS'mixing_bowl.n.01'
p218
I0
sS'dish.n.02'
p219
I0
sg183
I0
sg184
I0
sS'apple.n.01'
p220
I0
sS'add.v.01'
p221
I0
sS'milk.n.01'
p222
I0
sg112
I0
sg60
I0
sS'pan.n.03'
p223
I0
sg147
I0
sS'egg.n.02'
p224
I0
sS'butter.n.01'
p225
I0
sg194
I0
sS'meat.n.01'
p226
I0
sS'vanilla.n.02'
p227
I0
sS'concoction.n.01'
p228
I0
sS'sauce.n.01'
p229
I0
sS'salt.n.02'
p230
I0
sg201
I0
sS'cream.n.02'
p231
I0
sS'ingredient.n.03'
p232
I0
sS'cream.n.03'
p233
I0
sS'steak.n.01'
p234
I0
sS'vegetable.n.01'
p235
I0
sg209
I0
sS'water.n.06'
p236
I0
sS'french_fries.n.01'
p237
I0
sS'salad.n.01'
p238
I0
sS'onion.n.03'
p239
I0
sS'sugar.n.01'
p240
I0
ssg17
(dp241
g41
I0
sg30
I0
sg43
I0
sg34
I0
sg44
I0
sg31
I0
sg52
I0
sg57
I0
sg20
I0
sg22
I0
sg8
I0
sg19
I0
sg58
I0
sg60
I3
sg17
I24
sg15
I0
sg36
I0
sg37
I0
sg28
I0
sg14
I0
sg32
I0
sg53
I0
sg42
I0
sg27
I0
sg51
I0
sg18
I0
sg16
I0
sg23
I0
sg46
I0
sg40
I0
sg26
I0
sg33
I0
sg55
I0
sg24
I0
sg25
I0
sg11
I0
sg48
I0
sg10
I0
sg38
I0
sg54
I0
sg56
I0
sg29
I0
sg59
I0
sg49
I0
sg47
I0
sg21
I0
sg12
I0
sg9
I0
sg50
I0
sg13
I0
sg45
I0
sg39
I0
sg35
I0
ssg15
(dp242
g41
I0
sg30
I0
sg43
I0
sg34
I0
sg44
I0
sg31
I0
sg52
I0
sg20
I0
sg22
I0
sg8
I0
sg19
I0
sg58
I0
sg17
I0
sg15
I0
sg36
I0
sg37
I0
sg28
I0
sg14
I0
sg32
I0
sg53
I0
sg42
I0
sg27
I0
sg51
I0
sg18
I0
sg16
I0
sg23
I0
sg46
I0
sg40
I0
sg26
I0
sg33
I0
sg24
I0
sg25
I0
sg11
I0
sg48
I0
sg10
I0
sg38
I0
sg54
I0
sg29
I0
sg59
I0
sg49
I0
sg47
I0
sg21
I0
sg12
I0
sg9
I0
sg50
I0
sg13
I0
sg45
I0
sg39
I0
sg35
I0
ssg36
(dp243
g41
I0
sg30
I0
sg43
I0
sg34
I0
sg44
I0
sg31
I0
sS'dish.n.01'
p244
I0
sg184
I0
sg20
I0
sg22
I0
sg8
I0
sg19
I0
sg58
I0
sg60
I0
sg17
I0
sg15
I0
sg36
I7
sg37
I0
sg28
I0
sg14
I0
sg32
I0
sS'asparagus.n.01'
p245
I0
sg42
I0
sg27
I0
sg18
I0
sg16
I0
sg23
I0
sg46
I0
sg40
I0
sg26
I0
sg33
I0
sg55
I0
sg24
I0
sg25
I0
sg11
I0
sS'cream.n.03'
p246
I0
sg10
I0
sg38
I0
sg29
I0
sg59
I0
sS'dressing.n.04'
p247
I0
sg47
I0
sg21
I0
sg12
I0
sg9
I0
sg56
I0
sg13
I0
sg45
I0
sg39
I0
sg35
I0
ssg37
(dp248
g41
I0
sg30
I0
sg43
I0
sg34
I0
sg44
I0
sg160
I0
sg31
I0
sg244
I0
sg57
I0
sg20
I0
sg22
I0
sg8
I0
sg19
I0
sg58
I0
sg60
I0
sg17
I0
sg15
I0
sg36
I0
sg37
I17
sg28
I0
sg14
I0
sg32
I0
sg245
I0
sg42
I0
sg27
I0
sg18
I0
sg16
I0
sg23
I0
sg46
I0
sg40
I0
sg26
I0
sg33
I0
sg55
I0
sg24
I0
sg25
I0
sg11
I0
sg246
I0
sg10
I0
sg38
I0
sg29
I0
sg59
I0
sg247
I0
sg47
I0
sg21
I0
sg12
I0
sg9
I0
sg56
I0
sg13
I0
sg45
I1
sg39
I0
sg35
I0
ssg28
(dp249
g41
I0
sg30
I0
sg43
I0
sg34
I0
sg44
I0
sg31
I0
sg52
I0
sg57
I0
sg20
I0
sg22
I0
sg8
I0
sg19
I0
sg58
I0
sg60
I0
sg17
I0
sg15
I0
sg36
I0
sg37
I0
sg28
I27
sg14
I0
sg32
I0
sg53
I0
sg42
I0
sg27
I0
sg51
I0
sg18
I0
sg16
I0
sg23
I0
sg46
I0
sg40
I0
sg26
I0
sg33
I0
sg55
I0
sg24
I0
sg25
I0
sg11
I0
sg48
I0
sg10
I0
sg38
I0
sg54
I0
sg56
I0
sg29
I0
sg59
I0
sg49
I0
sg47
I0
sg21
I0
sg12
I0
sg9
I0
sg50
I0
sg13
I0
sg45
I0
sg39
I0
sg35
I0
ssg14
(dp250
g41
I0
sg30
I0
sg43
I0
sg34
I0
sg44
I0
sg31
I0
sg52
I0
sg57
I0
sg20
I0
sg22
I0
sg8
I0
sg19
I0
sg58
I0
sg17
I0
sg15
I6
sg36
I0
sg37
I0
sg28
I0
sg14
I0
sg32
I0
sg53
I0
sg42
I0
sg27
I0
sg51
I0
sg18
I0
sg16
I0
sg23
I0
sg46
I0
sg40
I0
sg26
I0
sg33
I0
sg55
I0
sg24
I0
sg25
I0
sg11
I0
sg48
I0
sg10
I0
sg38
I0
sg54
I0
sg56
I3
sg29
I0
sg59
I0
sg49
I0
sg47
I0
sg21
I0
sg12
I0
sg9
I0
sg50
I0
sg13
I0
sg45
I0
sg39
I0
sg35
I0
ssg32
(dp251
g41
I0
sg30
I0
sg43
I0
sg34
I0
sg44
I0
sg31
I0
sg52
I0
sg57
I0
sg20
I0
sg22
I0
sg8
I0
sg19
I0
sg112
I0
sg60
I0
sg17
I0
sg15
I0
sg36
I0
sg37
I0
sg28
I0
sg14
I0
sg32
I5
sg53
I4
sg42
I0
sg27
I0
sg51
I0
sg18
I0
sg16
I0
sg23
I0
sg46
I0
sg40
I0
sg26
I0
sg33
I0
sg55
I0
sg24
I0
sg25
I0
sg11
I0
sg48
I0
sg10
I0
sg38
I0
sg54
I0
sg56
I0
sg29
I0
sg49
I0
sg47
I0
sg21
I0
sg12
I0
sg9
I0
sg50
I0
sg13
I0
sg45
I0
sg39
I0
sg35
I0
ssg53
(dp252
g101
I0
sg107
I0
sg66
I0
sg108
I0
sg52
I0
sg57
I0
sg109
I0
sg70
I0
sg110
I0
sg111
I0
sg113
I0
sg114
I0
sg115
I0
sg116
I0
sg117
I0
sg118
I0
sg119
I0
sg53
I0
sg56
I0
sg120
I0
sg51
I0
sg121
I0
sg122
I0
sg83
I0
sg102
I0
sg123
I0
sg124
I0
sg125
I0
sg55
I0
sg126
I0
sg48
I0
sg127
I0
sg128
I0
sg54
I0
sg129
I0
sg49
I0
sg103
I0
sg130
I0
sg131
I0
sg132
I0
sg50
I0
sg133
I0
sg134
I0
sg135
I0
ssg42
(dp253
g41
I0
sg65
I0
sg43
I0
sg44
I0
sg67
I0
sg69
I0
sg71
I0
sg72
I0
sg73
I0
sg74
I0
sg75
I0
sg76
I0
sg77
I0
sg78
I0
sg79
I0
sg42
I0
sg80
I0
sg81
I0
sg82
I0
sg46
I0
sg84
I0
sg85
I0
sg86
I0
sg87
I0
sg88
I0
sg89
I0
sg90
I0
sg91
I0
sg47
I0
sg92
I0
sg93
I0
sg94
I0
sg95
I0
sg45
I0
sg96
I0
sg97
I0
ssg27
(dp254
g41
I4
sg30
I0
sg43
I0
sg34
I0
sg44
I0
sg31
I0
sg52
I0
sg68
I0
sg20
I0
sg22
I0
sg8
I0
sg19
I0
sg58
I0
sg60
I0
sg17
I0
sg15
I0
sg36
I0
sg37
I0
sg28
I0
sg14
I0
sg32
I0
sg53
I0
sg42
I0
sg27
I5
sg51
I0
sg18
I0
sg16
I0
sg23
I0
sg46
I0
sg40
I0
sg26
I0
sg33
I0
sg55
I0
sg24
I0
sg25
I0
sg11
I0
sg48
I0
sg10
I0
sg38
I0
sg54
I0
sg56
I0
sg29
I0
sg59
I0
sg49
I0
sg47
I0
sg21
I0
sg12
I0
sg9
I0
sg50
I0
sg13
I0
sg45
I0
sg39
I0
sg35
I0
ssg51
(dp255
g101
I0
sg107
I0
sg66
I0
sg108
I0
sg52
I0
sg109
I0
sg70
I0
sg110
I0
sg111
I0
sg113
I0
sg114
I0
sg117
I0
sg118
I0
sg119
I0
sg53
I0
sg120
I0
sg51
I0
sg121
I0
sg122
I0
sg83
I0
sg102
I0
sg123
I0
sg124
I0
sg125
I0
sg126
I0
sg48
I0
sg127
I0
sg54
I0
sg129
I0
sg49
I0
sg103
I0
sg130
I0
sg131
I0
sg132
I0
sg50
I0
sg133
I0
sg134
I0
sg135
I0
ssg18
(dp256
g41
I0
sg30
I0
sg43
I0
sg34
I0
sg44
I0
sg31
I0
sg52
I0
sg57
I0
sg20
I0
sg22
I0
sg8
I0
sg19
I0
sg58
I0
sg60
I0
sg17
I0
sg15
I0
sg36
I0
sg37
I0
sg28
I0
sg14
I0
sg32
I0
sg53
I0
sg42
I1
sg27
I0
sg51
I1
sg18
I16
sg16
I0
sg23
I0
sg46
I0
sg40
I0
sg26
I0
sg33
I0
sg55
I0
sg24
I0
sg25
I0
sg11
I0
sg48
I0
sg10
I0
sg38
I0
sg54
I0
sg56
I0
sg29
I0
sg59
I0
sg49
I0
sg47
I0
sg21
I0
sg12
I0
sg9
I0
sg50
I0
sg13
I0
sg45
I0
sg39
I0
sg35
I0
ssg16
(dp257
g41
I0
sg30
I0
sg43
I0
sg34
I0
sg44
I0
sg31
I0
sg52
I0
sg57
I0
sg20
I0
sg22
I0
sg8
I0
sg19
I0
sg58
I0
sg17
I0
sg15
I0
sg36
I0
sg37
I0
sg28
I0
sg14
I0
sg32
I0
sg53
I0
sg42
I0
sg27
I0
sg51
I0
sg18
I0
sg16
I7
sg23
I0
sg46
I2
sg40
I0
sg26
I0
sg33
I0
sg55
I0
sg24
I0
sg25
I0
sg11
I0
sg48
I0
sg10
I0
sg38
I0
sg54
I0
sg56
I0
sg29
I0
sg59
I0
sg49
I0
sg47
I0
sg21
I0
sg12
I0
sg9
I0
sg50
I0
sg13
I0
sg45
I0
sg39
I0
sg35
I0
ssg23
(dp258
g101
I0
sg30
I0
sg34
I0
sg31
I0
sg52
I0
sg57
I0
sg20
I0
sg22
I0
sg8
I0
sg19
I0
sg58
I0
sg60
I0
sg17
I0
sg15
I0
sg36
I0
sg37
I0
sg28
I0
sg14
I0
sg32
I0
sg53
I0
sg56
I0
sg27
I0
sg51
I0
sg18
I0
sg16
I0
sg23
I2
sg102
I0
sg40
I0
sg26
I0
sg33
I0
sg55
I0
sg24
I4
sg25
I0
sg11
I0
sg48
I0
sg10
I0
sg38
I0
sg54
I0
sg29
I0
sg59
I0
sg49
I0
sg103
I0
sg21
I0
sg12
I0
sg9
I0
sg50
I3
sg13
I0
sg39
I0
sg35
I0
ssg46
(dp259
g41
I0
sg65
I0
sg43
I0
sg66
I0
sg44
I0
sg67
I0
sg52
I0
sg69
I0
sg70
I0
sg71
I0
sg72
I0
sg73
I0
sg74
I0
sg75
I0
sg76
I0
sg77
I0
sg78
I0
sg79
I0
sg53
I0
sg42
I0
sg80
I0
sg51
I0
sg81
I0
sg82
I0
sg83
I0
sg46
I0
sg84
I0
sg85
I0
sg86
I0
sg87
I0
sg88
I0
sg48
I0
sg89
I0
sg90
I0
sg54
I0
sg91
I0
sg49
I0
sg47
I0
sg92
I0
sg93
I0
sg94
I0
sg50
I0
sg95
I0
sg45
I0
sg96
I0
sg97
I0
ssg40
(dp260
g41
I0
sS'corn.n.03'
p261
I0
sg43
I0
sS'mixing_bowl.n.01'
p262
I0
sg44
I0
sS'dish.n.02'
p263
I0
sg52
I0
sg57
I0
sS'milk.n.04'
p264
I0
sS'apple.n.01'
p265
I0
sS'add.v.01'
p266
I0
sS'milk.n.01'
p267
I0
sg58
I0
sg60
I0
sS'pan.n.03'
p268
I0
sS'pot.n.09'
p269
I0
sS'flour.n.01'
p270
I0
sS'egg.n.02'
p271
I0
sS'butter.n.01'
p272
I0
sS'pot.n.01'
p273
I0
sS'asparagus.n.02'
p274
I0
sg53
I0
sg42
I0
sS'meat.n.01'
p275
I0
sg51
I0
sS'vanilla.n.02'
p276
I0
sS'bean.n.01'
p277
I0
sS'concoction.n.01'
p278
I0
sg46
I0
sg40
I9
sS'salt.n.02'
p279
I0
sS'rib.n.03'
p280
I0
sg55
I0
sS'mixture.n.01'
p281
I0
sS'cream.n.02'
p282
I0
sS'ingredient.n.03'
p283
I0
sg48
I0
sg89
I0
sg38
I0
sg54
I0
sg56
I0
sS'vegetable.n.01'
p284
I0
sg59
I0
sg49
I0
sg47
I0
sS'water.n.06'
p285
I0
sS'dressing.n.01'
p286
I0
sg94
I0
sg50
I0
sS'salad.n.01'
p287
I0
sg45
I0
sg39
I0
sS'sugar.n.01'
p288
I0
ssg26
(dp289
g41
I0
sg30
I0
sg43
I0
sg34
I0
sg44
I0
sg31
I0
sg52
I0
sg68
I0
sg20
I0
sg22
I0
sg8
I0
sg19
I0
sg58
I0
sg60
I0
sg17
I0
sg15
I0
sg36
I0
sg37
I0
sg28
I0
sg14
I0
sg32
I0
sg53
I0
sg42
I0
sg27
I0
sg51
I0
sg18
I0
sg16
I0
sg23
I0
sg46
I0
sg40
I0
sg26
I9
sg33
I0
sg55
I0
sg24
I0
sg25
I0
sg11
I0
sg48
I0
sg10
I0
sg38
I0
sg54
I0
sg56
I0
sg29
I0
sg59
I0
sg49
I0
sg47
I0
sg21
I0
sg12
I0
sg9
I0
sg50
I0
sg13
I0
sg45
I0
sg39
I0
sg35
I0
ssg33
(dp290
g41
I0
sg30
I0
sg43
I0
sg34
I0
sg44
I0
sg31
I0
sg52
I0
sg57
I0
sg20
I0
sg22
I0
sg8
I0
sg19
I0
sg112
I0
sg60
I0
sg17
I0
sg15
I0
sg36
I0
sg37
I0
sg28
I0
sg14
I0
sg32
I0
sg53
I0
sg42
I0
sg27
I0
sg51
I0
sg18
I0
sg16
I0
sg23
I0
sg46
I0
sg40
I0
sg26
I0
sg33
I8
sg55
I1
sg24
I0
sg25
I0
sg11
I0
sg48
I0
sg10
I0
sg38
I0
sg54
I0
sg56
I0
sg29
I0
sg49
I0
sg47
I0
sg21
I0
sg12
I0
sg9
I0
sg50
I0
sg13
I0
sg45
I0
sg39
I0
sg35
I0
ssg55
(dp291
S'kernel.n.01'
p292
I0
sS'corn.n.03'
p293
I0
sS'mixing_bowl.n.01'
p294
I0
sS'dish.n.02'
p295
I0
sg244
I0
sS'apple.n.01'
p296
I0
sS'add.v.01'
p297
I0
sS'pan.n.03'
p298
I0
sg115
I0
sg116
I0
sS'butter.n.01'
p299
I0
sS'pot.n.01'
p300
I0
sS'asparagus.n.02'
p301
I0
sg245
I0
sS'meat.n.01'
p302
I0
sS'vanilla.n.02'
p303
I0
sS'bean.n.01'
p304
I0
sS'concoction.n.01'
p305
I0
sS'sauce.n.01'
p306
I0
sS'salt.n.02'
p307
I0
sS'rib.n.03'
p308
I0
sg55
I0
sS'cream.n.02'
p309
I0
sS'ingredient.n.03'
p310
I0
sg246
I0
sg128
I0
sS'vegetable.n.01'
p311
I0
sg247
I0
sS'dressing.n.01'
p312
I0
sS'french_fries.n.01'
p313
I0
sg56
I0
sS'salad.n.01'
p314
I0
sS'onion.n.03'
p315
I0
sS'sugar.n.01'
p316
I0
ssg24
(dp317
g30
I0
sg34
I0
sg31
I0
sg20
I0
sg22
I0
sg8
I0
sg19
I0
sg58
I0
sg17
I0
sg15
I0
sg36
I0
sg37
I0
sg28
I0
sg14
I0
sg32
I0
sg27
I0
sg18
I0
sg16
I0
sg23
I0
sg40
I0
sg26
I0
sg33
I0
sg24
I0
sg25
I0
sg11
I0
sg205
I0
sg10
I0
sg38
I0
sg29
I0
sg59
I0
sg208
I0
sg21
I0
sg12
I0
sg9
I0
sg13
I0
sg39
I0
sg35
I0
ssg25
(dp318
g41
I0
sg30
I0
sg43
I0
sg34
I0
sg44
I0
sg31
I0
sg52
I0
sg57
I0
sg20
I0
sg22
I0
sg8
I0
sg19
I0
sg58
I0
sg60
I0
sg17
I0
sg15
I0
sg36
I0
sg37
I0
sg28
I0
sg14
I0
sg32
I0
sg53
I0
sg42
I0
sg27
I0
sg51
I0
sg18
I0
sg16
I0
sg23
I0
sg46
I0
sg40
I0
sg26
I0
sg33
I0
sg55
I0
sg24
I0
sg25
I7
sg11
I0
sg48
I11
sg10
I0
sg38
I0
sg54
I0
sg56
I0
sg29
I0
sg59
I0
sg49
I0
sg47
I0
sg21
I0
sg12
I0
sg9
I0
sg50
I0
sg13
I0
sg45
I0
sg39
I0
sg35
I0
ssg11
(dp319
g41
I0
sg30
I0
sg43
I0
sg34
I0
sg44
I0
sg31
I0
sg52
I0
sg57
I0
sg20
I0
sg22
I0
sg8
I0
sg19
I0
sg58
I0
sg60
I0
sg17
I0
sg15
I0
sg36
I0
sg37
I0
sg28
I0
sg14
I0
sg32
I0
sg53
I0
sg42
I0
sg27
I0
sg51
I0
sg18
I0
sg16
I0
sg23
I0
sg46
I0
sg40
I0
sg26
I0
sg33
I0
sg55
I0
sg24
I0
sg25
I0
sg11
I18
sg48
I0
sg10
I0
sg38
I0
sg54
I0
sg56
I0
sg29
I0
sg59
I0
sg49
I0
sg47
I0
sg21
I0
sg12
I0
sg9
I0
sg50
I0
sg13
I0
sg45
I0
sg39
I0
sg35
I0
ssg48
(dp320
g101
I0
sg107
I0
sg66
I0
sg108
I0
sg52
I0
sg57
I0
sg109
I0
sg70
I0
sg110
I0
sg111
I0
sg58
I0
sg60
I0
sg113
I0
sg114
I0
sg115
I0
sg116
I0
sg117
I0
sg118
I0
sg119
I0
sg53
I0
sg56
I0
sg120
I0
sg51
I0
sg121
I0
sg122
I0
sg83
I0
sg102
I0
sg123
I0
sg124
I0
sg125
I0
sg55
I0
sg202
I0
sg126
I0
sg48
I0
sg127
I0
sg128
I0
sg54
I0
sg129
I0
sg59
I0
sg49
I0
sg103
I0
sg130
I0
sg131
I0
sg132
I0
sg50
I0
sg133
I0
sg134
I0
sg135
I0
ssg10
(dp321
g41
I0
sg30
I0
sg43
I0
sg34
I0
sg44
I0
sg160
I0
sg31
I0
sg244
I0
sg57
I0
sg20
I0
sg22
I0
sg8
I0
sg19
I0
sg58
I0
sg60
I0
sg17
I0
sg15
I0
sg36
I0
sg37
I0
sg28
I0
sg14
I0
sg32
I0
sg245
I0
sg42
I0
sg27
I0
sg18
I0
sg16
I0
sg23
I0
sg46
I0
sg84
I0
sg26
I0
sg33
I0
sg55
I0
sg24
I0
sg25
I0
sg11
I0
sg246
I0
sg10
I8
sg90
I0
sg29
I0
sg59
I0
sg247
I0
sg47
I0
sg21
I0
sg12
I0
sg9
I0
sg56
I0
sg13
I0
sg45
I0
sg96
I0
sg35
I0
ssg38
(dp322
g41
I0
sg261
I0
sg43
I0
sg262
I0
sg44
I0
sg263
I0
sg264
I0
sg265
I0
sg266
I0
sg267
I0
sg268
I0
sg269
I0
sg270
I0
sg271
I0
sg272
I0
sg273
I0
sg274
I0
sg42
I0
sg275
I0
sg276
I0
sg277
I0
sg278
I0
sg46
I0
sg40
I0
sg279
I0
sg280
I0
sg281
I0
sg282
I0
sg283
I0
sg89
I0
sg38
I0
sg284
I0
sg47
I0
sg285
I0
sg286
I0
sg94
I0
sg287
I0
sg45
I0
sg39
I0
sg288
I0
ssg54
(dp323
g101
I0
sg107
I0
sg66
I0
sg108
I0
sg52
I0
sg109
I0
sg70
I0
sg110
I0
sg111
I0
sg113
I0
sg114
I0
sg117
I0
sg118
I0
sg119
I0
sg53
I0
sg120
I0
sg51
I0
sg121
I0
sg122
I0
sg83
I0
sg102
I0
sg123
I0
sg124
I0
sg125
I0
sg126
I0
sg127
I0
sg48
I0
sg54
I0
sg129
I0
sg49
I0
sg103
I0
sg130
I0
sg131
I0
sg132
I0
sg50
I0
sg133
I0
sg134
I0
sg135
I0
ssg56
(dp324
g292
I0
sg293
I0
sg294
I0
sg295
I0
sg244
I0
sg57
I0
sg142
I0
sg296
I0
sg297
I0
sg145
I0
sg298
I0
sg115
I0
sg56
I0
sg299
I0
sg300
I0
sg301
I0
sg245
I0
sg302
I0
sg303
I0
sg304
I0
sg305
I0
sg306
I0
sg307
I0
sg308
I0
sg55
I0
sg160
I0
sg309
I0
sg310
I0
sg246
I0
sg128
I0
sg311
I0
sg247
I0
sg167
I0
sg168
I0
sg312
I0
sg313
I0
sg116
I0
sg314
I0
sg315
I0
sg316
I0
ssg29
(dp325
g41
I0
sg30
I0
sg43
I0
sg34
I0
sg44
I0
sg31
I0
sg52
I0
sg57
I0
sg20
I0
sg22
I0
sg8
I0
sg19
I0
sg58
I0
sg60
I0
sg17
I0
sg15
I0
sg36
I0
sg37
I0
sg28
I0
sg14
I0
sg32
I0
sg53
I0
sg42
I0
sg27
I0
sg51
I0
sg18
I0
sg16
I0
sg23
I0
sg46
I0
sg40
I0
sg26
I0
sg33
I0
sg55
I0
sg24
I0
sg25
I0
sg11
I0
sg48
I0
sg10
I0
sg38
I0
sg54
I0
sg56
I0
sg29
I9
sg59
I0
sg49
I0
sg47
I0
sg21
I0
sg12
I0
sg9
I0
sg50
I0
sg13
I0
sg45
I0
sg39
I0
sg35
I0
ssg59
(dp326
g180
I0
sg181
I0
sg182
I0
sg185
I0
sg186
I0
sg187
I0
sg58
I0
sg188
I0
sg189
I0
sg190
I0
sg191
I0
sg192
I0
sg193
I0
sg195
I0
sg196
I0
sg197
I0
sg198
I0
sg199
I0
sg200
I0
sg202
I0
sg203
I0
sg204
I0
sg205
I0
sg206
I0
sg207
I0
sg59
I0
sg208
I0
sg210
I0
sg211
I0
sg212
I0
sg213
I0
sg214
I0
sg215
I0
ssg49
(dp327
g101
I0
sg107
I0
sg66
I0
sg108
I0
sg52
I0
sg57
I0
sg109
I0
sg70
I0
sg110
I0
sg111
I0
sg58
I0
sg113
I0
sg114
I0
sg115
I0
sg116
I0
sg117
I0
sg118
I0
sg119
I0
sg53
I0
sg56
I0
sg120
I0
sg51
I0
sg121
I0
sg122
I0
sg83
I0
sg102
I0
sg123
I0
sg124
I0
sg125
I0
sg55
I0
sg202
I0
sg126
I0
sg48
I0
sg127
I0
sg128
I0
sg54
I0
sg129
I0
sg59
I0
sg49
I0
sg103
I0
sg130
I0
sg131
I0
sg132
I0
sg50
I0
sg133
I0
sg134
I0
sg135
I0
ssg47
(dp328
g41
I0
sg65
I0
sg43
I0
sg66
I0
sg44
I0
sg67
I0
sg52
I0
sg57
I0
sg69
I0
sg70
I0
sg71
I0
sg72
I0
sg112
I0
sg60
I0
sg73
I0
sg74
I0
sg75
I0
sg76
I0
sg77
I0
sg78
I0
sg79
I0
sg53
I0
sg42
I0
sg80
I0
sg51
I0
sg81
I0
sg82
I0
sg83
I0
sg46
I0
sg84
I0
sg85
I0
sg86
I0
sg87
I0
sg88
I0
sg48
I0
sg89
I0
sg90
I0
sg54
I0
sg171
I0
sg91
I0
sg49
I0
sg47
I0
sg92
I0
sg93
I0
sg94
I0
sg50
I0
sg95
I0
sg45
I0
sg96
I0
sg97
I0
ssg21
(dp329
g41
I0
sg30
I0
sg43
I0
sg34
I0
sg44
I0
sg31
I0
sg52
I0
sg57
I0
sg20
I0
sg22
I0
sg8
I0
sg19
I0
sg58
I0
sg60
I0
sg17
I0
sg15
I0
sg36
I0
sg37
I0
sg28
I0
sg14
I0
sg32
I0
sg53
I0
sg42
I0
sg27
I0
sg51
I0
sg18
I0
sg16
I0
sg23
I0
sg46
I0
sg40
I0
sg26
I0
sg33
I0
sg24
I0
sg25
I0
sg11
I0
sg48
I0
sg10
I0
sg38
I0
sg54
I0
sg171
I0
sg29
I0
sg59
I1
sg49
I0
sg47
I5
sg21
I3
sg12
I0
sg9
I0
sg50
I0
sg13
I0
sg45
I0
sg39
I0
sg35
I0
ssg12
(dp330
g41
I0
sg30
I0
sg43
I0
sg34
I0
sg44
I0
sg31
I0
sg52
I0
sg57
I0
sg20
I0
sg22
I0
sg8
I0
sg19
I0
sg58
I0
sg17
I0
sg15
I0
sg36
I0
sg37
I0
sg28
I0
sg14
I0
sg32
I0
sg53
I0
sg42
I0
sg27
I0
sg51
I0
sg18
I0
sg16
I0
sg23
I0
sg46
I0
sg40
I0
sg26
I0
sg33
I0
sg55
I0
sg24
I0
sg25
I0
sg11
I0
sg48
I0
sg10
I0
sg38
I3
sg54
I0
sg56
I0
sg29
I0
sg59
I0
sg49
I5
sg47
I0
sg21
I0
sg12
I1
sg9
I0
sg50
I0
sg13
I0
sg45
I0
sg39
I0
sg35
I0
ssg9
(dp331
g41
I0
sg30
I0
sg43
I0
sg34
I0
sg44
I0
sg31
I0
sg52
I0
sg57
I3
sg20
I0
sg22
I0
sg8
I0
sg19
I0
sg58
I0
sg60
I0
sg17
I0
sg15
I0
sg36
I0
sg37
I0
sg28
I0
sg14
I0
sg32
I0
sg53
I0
sg42
I0
sg27
I0
sg51
I0
sg18
I0
sg16
I0
sg23
I0
sg46
I0
sg84
I0
sg26
I0
sg33
I0
sg55
I0
sg24
I0
sg25
I0
sg11
I0
sg48
I0
sg10
I0
sg90
I0
sg54
I0
sg56
I0
sg29
I0
sg59
I0
sg49
I0
sg47
I0
sg21
I0
sg12
I0
sg9
I6
sg50
I0
sg13
I0
sg45
I0
sg96
I0
sg35
I0
ssg50
(dp332
g101
I0
sg107
I0
sg66
I0
sg108
I0
sg52
I0
sg57
I0
sg109
I0
sg70
I0
sg110
I0
sg111
I0
sg113
I0
sg114
I0
sg148
I0
sg117
I0
sg118
I0
sg119
I0
sg53
I0
sg171
I0
sg120
I0
sg51
I0
sg121
I0
sg122
I0
sg83
I0
sg102
I0
sg123
I0
sg124
I0
sg125
I0
sg126
I0
sg48
I0
sg127
I0
sg164
I0
sg54
I0
sg129
I0
sg49
I0
sg103
I0
sg130
I0
sg131
I0
sg132
I0
sg50
I0
sg133
I0
sg134
I0
sg135
I0
ssg13
(dp333
g41
I0
sg30
I0
sg43
I0
sg34
I0
sg44
I0
sg31
I0
sg52
I0
sg57
I0
sg20
I0
sg22
I0
sg8
I0
sg19
I0
sg58
I0
sg60
I0
sg17
I0
sg15
I0
sg36
I0
sg37
I0
sg28
I0
sg14
I0
sg32
I0
sg53
I0
sg42
I0
sg27
I0
sg51
I0
sg18
I0
sg16
I0
sg23
I0
sg46
I0
sg40
I0
sg26
I0
sg33
I0
sg55
I0
sg24
I0
sg25
I0
sg11
I0
sg48
I0
sg10
I0
sg38
I0
sg54
I0
sg56
I0
sg29
I0
sg59
I0
sg49
I0
sg47
I0
sg21
I0
sg12
I0
sg9
I0
sg50
I0
sg13
I18
sg45
I0
sg39
I0
sg35
I0
ssg45
(dp334
g41
I0
sg65
I0
sg43
I0
sg44
I0
sg67
I0
sg69
I0
sg71
I0
sg72
I0
sg73
I0
sg74
I0
sg75
I0
sg76
I0
sg45
I0
sg78
I0
sg79
I0
sg42
I0
sg80
I0
sg81
I0
sg82
I0
sg46
I0
sg84
I0
sg85
I0
sg86
I0
sg87
I0
sg88
I0
sg89
I0
sg90
I0
sg91
I0
sg47
I0
sg92
I0
sg93
I0
sg94
I0
sg95
I0
sg77
I0
sg96
I0
sg97
I0
ssg39
(dp335
g41
I0
sg261
I0
sg43
I0
sg262
I0
sg44
I0
sg263
I0
sg52
I0
sg57
I0
sg264
I0
sg265
I0
sg266
I0
sg267
I0
sg58
I0
sg60
I0
sg268
I0
sg269
I0
sg270
I0
sg271
I0
sg272
I0
sg273
I0
sg274
I0
sg53
I0
sg42
I0
sg275
I0
sg51
I0
sg276
I0
sg277
I0
sg278
I0
sg46
I0
sg40
I0
sg279
I0
sg280
I0
sg55
I0
sg281
I0
sg282
I0
sg283
I0
sg48
I0
sg89
I0
sg38
I0
sg54
I0
sg56
I0
sg284
I0
sg59
I0
sg49
I0
sg47
I0
sg285
I0
sg286
I0
sg94
I0
sg50
I0
sg287
I0
sg45
I0
sg39
I9
sg288
I0
ssg35
(dp336
g41
I0
sg30
I0
sg43
I0
sg34
I0
sg44
I1
sg31
I0
sg52
I0
sg57
I0
sg20
I0
sg22
I0
sg8
I0
sg19
I0
sg58
I0
sg60
I0
sg17
I0
sg15
I0
sg36
I0
sg37
I0
sg28
I0
sg14
I0
sg32
I0
sg53
I0
sg42
I0
sg27
I0
sg51
I0
sg18
I0
sg16
I0
sg23
I0
sg46
I0
sg40
I0
sg26
I0
sg33
I0
sg55
I0
sg24
I0
sg25
I0
sg11
I0
sg48
I0
sg10
I0
sg38
I0
sg54
I1
sg56
I0
sg29
I0
sg59
I0
sg49
I0
sg47
I0
sg21
I0
sg12
I0
sg9
I0
sg50
I0
sg13
I0
sg45
I0
sg39
I0
sg35
I7
sssb.