ccopy_reg
_reconstructor
p0
(cutils.eval
ConfusionMatrix
p1
c__builtin__
object
p2
Ntp3
Rp4
(dp5
S'labels'
p6
(lp7
S'opening.n.01'
p8
aS'gap.n.03'
p9
aS'fill.v.09'
p10
aS'fill.v.01'
p11
aS'batter.n.02'
p12
aS'teapot.n.01'
p13
aS'water.n.06'
p14
aS'kettle.n.01'
p15
aS'pan.n.03'
p16
aS'pan.n.01'
p17
aS'foam.n.01'
p18
aS'mug.n.04'
p19
aS'thermos.n.01'
p20
aS'coffee.n.01'
p21
aS'pitcher.n.02'
p22
aS'milk.n.01'
p23
aS'pot.n.01'
p24
aS'jar.n.01'
p25
aS'gravy.n.01'
p26
aS'gravy.n.02'
p27
aS'bottle.n.01'
p28
aS'fruit_juice.n.01'
p29
aS'whiskey.n.01'
p30
aS'carafe.n.01'
p31
aS'ice.n.01'
p32
aS'ice.n.05'
p33
aS'bowl.n.01'
p34
aS'bowl.n.08'
p35
aS'glass.n.02'
p36
aS'opening.n.10'
p37
aS'curd.n.01'
p38
aS'blender.n.01'
p39
aS'apple.n.01'
p40
aS'saltcellar.n.01'
p41
aS'salt.n.02'
p42
aS'measuring_cup.n.01'
p43
aS'meal.n.03'
p44
asS'instanceCount'
p45
I53
sS'matrix'
p46
(dp47
g41
(dp48
S'saltcellar.n.01'
p49
I1
ssg34
(dp50
g35
I1
ssg12
(dp51
S'batter.n.02'
p52
I1
ssg40
(dp53
S'apple.n.01'
p54
I1
ssg37
(dp55
g37
I0
ssg18
(dp56
S'foam.n.01'
p57
I1
ssg23
(dp58
S'milk.n.01'
p59
I2
ssg17
(dp60
g17
I0
ssg16
(dp61
g17
I1
ssg35
(dp62
g35
I0
ssg9
(dp63
g9
I0
ssg10
(dp64
g11
I2
ssg28
(dp65
S'bottle.n.01'
p66
I1
ssg24
(dp67
S'pot.n.01'
p68
I1
ssg11
(dp69
g11
I16
ssg22
(dp70
S'pitcher.n.02'
p71
I1
ssg43
(dp72
S'measuring_cup.n.01'
p73
I1
ssg36
(dp74
S'glass.n.02'
p75
I1
ssg26
(dp76
g27
I1
ssg42
(dp77
S'salt.n.02'
p78
I1
ssg27
(dp79
g27
I0
ssg21
(dp80
S'coffee.n.01'
p81
I1
ssg30
(dp82
S'whiskey.n.01'
p83
I1
ssg8
(dp84
g37
I1
sg9
I1
ssg19
(dp85
S'mug.n.04'
p86
I1
ssg29
(dp87
S'fruit_juice.n.01'
p88
I1
ssg13
(dp89
S'teapot.n.01'
p90
I1
ssg39
(dp91
S'blender.n.01'
p92
I1
ssg20
(dp93
S'thermos.n.01'
p94
I1
ssg14
(dp95
S'water.n.06'
p96
I4
ssg32
(dp97
g33
I1
ssg15
(dp98
S'kettle.n.01'
p99
I1
ssg33
(dp100
g33
I0
ssg38
(dp101
S'curd.n.01'
p102
I1
ssg25
(dp103
S'jar.n.01'
p104
I2
ssg31
(dp105
S'carafe.n.01'
p106
I1
ssg44
(dp107
S'meal.n.03'
p108
I1
sssb.