ccopy_reg
_reconstructor
p0
(cutils.eval
ConfusionMatrix
p1
c__builtin__
object
p2
Ntp3
Rp4
(dp5
S'labels'
p6
(lp7
S'jar.n.01'
p8
aS'fill.v.01'
p9
aS'gravy.n.01'
p10
aS'gravy.n.02'
p11
aS'bottle.n.01'
p12
aS'fruit_juice.n.01'
p13
aS'whiskey.n.01'
p14
aS'carafe.n.01'
p15
aS'ice.n.01'
p16
aS'ice.n.05'
p17
aS'bowl.n.01'
p18
aS'glass.n.02'
p19
aS'milk.n.01'
p20
aS'opening.n.01'
p21
aS'opening.n.10'
p22
aS'fill.v.09'
p23
aS'curd.n.01'
p24
aS'curd.n.02'
p25
aS'blender.n.01'
p26
aS'apple.n.01'
p27
aS'saltcellar.n.01'
p28
aS'salt.n.02'
p29
aS'measuring_cup.n.01'
p30
aS'meal.n.03'
p31
aS'wok.n.01'
p32
aS'rice.n.01'
p33
aS'cup.n.01'
p34
aS'cola.n.02'
p35
aS'gap.n.03'
p36
aS'batter.n.02'
p37
aS'teapot.n.01'
p38
aS'water.n.06'
p39
aS'kettle.n.01'
p40
aS'pan.n.03'
p41
aS'foam.n.01'
p42
aS'mug.n.04'
p43
aS'thermos.n.01'
p44
aS'coffee.n.01'
p45
asS'instanceCount'
p46
I53
sS'matrix'
p47
(dp48
g33
(dp49
S'rice.n.01'
p50
I1
ssg44
(dp51
S'thermos.n.01'
p52
I1
ssg18
(dp53
S'bowl.n.01'
p54
I1
ssg37
(dp55
S'batter.n.02'
p56
I1
ssg22
(dp57
g22
I0
ssg27
(dp58
S'apple.n.01'
p59
I1
ssg34
(dp60
S'cup.n.01'
p61
I1
ssg20
(dp62
S'milk.n.01'
p63
I1
ssg41
(dp64
S'pan.n.03'
p65
I1
ssg42
(dp66
S'foam.n.01'
p67
I1
ssg35
(dp68
S'cola.n.02'
p69
I1
ssg36
(dp70
g36
I0
ssg28
(dp71
S'saltcellar.n.01'
p72
I1
ssg12
(dp73
S'bottle.n.01'
p74
I1
ssg9
(dp75
S'fill.v.01'
p76
I16
ssg30
(dp77
S'measuring_cup.n.01'
p78
I1
ssg19
(dp79
S'glass.n.02'
p80
I1
ssg10
(dp81
g11
I1
ssg29
(dp82
S'salt.n.02'
p83
I1
ssg11
(dp84
g11
I0
ssg32
(dp85
S'wok.n.01'
p86
I1
ssg45
(dp87
S'coffee.n.01'
p88
I1
ssg14
(dp89
S'whiskey.n.01'
p90
I1
ssg21
(dp91
g22
I1
sg36
I1
ssg43
(dp92
S'mug.n.04'
p93
I1
ssg13
(dp94
S'fruit_juice.n.01'
p95
I1
ssg38
(dp96
S'teapot.n.01'
p97
I1
ssg26
(dp98
S'blender.n.01'
p99
I1
ssg23
(dp100
S'fill.v.01'
p101
I2
ssg39
(dp102
S'water.n.06'
p103
I3
ssg16
(dp104
g17
I1
ssg40
(dp105
S'kettle.n.01'
p106
I1
ssg17
(dp107
g17
I0
ssg24
(dp108
g25
I1
ssg8
(dp109
S'jar.n.01'
p110
I2
ssg25
(dp111
g25
I0
ssg15
(dp112
S'carafe.n.01'
p113
I1
ssg31
(dp114
S'meal.n.03'
p115
I1
sssb.