ccopy_reg
_reconstructor
p0
(cutils.eval
ConfusionMatrix
p1
c__builtin__
object
p2
Ntp3
Rp4
(dp5
S'labels'
p6
(lp7
S'fill.v.01'
p8
aS'foam.n.01'
p9
aS'mug.n.04'
p10
aS'thermos.n.01'
p11
aS'coffee.n.01'
p12
aS'pitcher.n.02'
p13
aS'milk.n.01'
p14
aS'pot.n.01'
p15
aS'water.n.06'
p16
aS'jar.n.01'
p17
aS'gravy.n.01'
p18
aS'gravy.n.02'
p19
aS'bottle.n.01'
p20
aS'fruit_juice.n.01'
p21
aS'whiskey.n.01'
p22
aS'carafe.n.01'
p23
aS'ice.n.01'
p24
aS'ice.n.05'
p25
aS'bowl.n.01'
p26
aS'glass.n.02'
p27
aS'opening.n.01'
p28
aS'opening.n.10'
p29
aS'fill.v.09'
p30
aS'curd.n.01'
p31
aS'blender.n.01'
p32
aS'apple.n.01'
p33
aS'saltcellar.n.01'
p34
aS'salt.n.02'
p35
aS'measuring_cup.n.01'
p36
aS'meal.n.03'
p37
aS'meal.n.01'
p38
aS'wok.n.01'
p39
aS'rice.n.01'
p40
aS'cup.n.01'
p41
aS'cola.n.02'
p42
aS'gap.n.03'
p43
aS'batter.n.02'
p44
aS'teapot.n.01'
p45
asS'instanceCount'
p46
I53
sS'matrix'
p47
(dp48
g40
(dp49
S'rice.n.01'
p50
I1
ssg43
(dp51
g43
I0
ssg26
(dp52
S'bowl.n.01'
p53
I1
ssg44
(dp54
S'batter.n.02'
p55
I1
ssg33
(dp56
S'apple.n.01'
p57
I1
ssg29
(dp58
g29
I0
ssg9
(dp59
S'foam.n.01'
p60
I1
ssg14
(dp61
S'milk.n.01'
p62
I2
ssg42
(dp63
S'cola.n.02'
p64
I1
ssg34
(dp65
S'saltcellar.n.01'
p66
I1
ssg30
(dp67
S'fill.v.01'
p68
I2
ssg20
(dp69
S'bottle.n.01'
p70
I1
ssg15
(dp71
S'pot.n.01'
p72
I1
ssg8
(dp73
S'fill.v.01'
p74
I16
ssg13
(dp75
S'pitcher.n.02'
p76
I1
ssg36
(dp77
S'measuring_cup.n.01'
p78
I1
ssg27
(dp79
S'glass.n.02'
p80
I1
ssg18
(dp81
g19
I1
ssg35
(dp82
S'salt.n.02'
p83
I1
ssg19
(dp84
g19
I0
ssg39
(dp85
S'wok.n.01'
p86
I1
ssg12
(dp87
S'coffee.n.01'
p88
I1
ssg22
(dp89
S'whiskey.n.01'
p90
I1
ssg28
(dp91
g29
I1
sg43
I1
ssg10
(dp92
S'mug.n.04'
p93
I1
ssg21
(dp94
S'fruit_juice.n.01'
p95
I1
ssg45
(dp96
S'teapot.n.01'
p97
I1
ssg32
(dp98
S'blender.n.01'
p99
I1
ssg11
(dp100
S'thermos.n.01'
p101
I1
ssg16
(dp102
S'water.n.06'
p103
I2
ssg24
(dp104
g25
I1
ssg41
(dp105
S'cup.n.01'
p106
I1
ssg25
(dp107
g25
I0
ssg31
(dp108
S'curd.n.01'
p109
I1
ssg17
(dp110
S'jar.n.01'
p111
I2
ssg23
(dp112
S'carafe.n.01'
p113
I1
ssg38
(dp114
g38
I0
ssg37
(dp115
g38
I1
sssb.