ccopy_reg
_reconstructor
p0
(cutils.eval
ConfusionMatrix
p1
c__builtin__
object
p2
Ntp3
Rp4
(dp5
S'labels'
p6
(lp7
S'fill.v.01'
p8
aS'pitcher.n.02'
p9
aS'milk.n.01'
p10
aS'pot.n.01'
p11
aS'water.n.06'
p12
aS'jar.n.01'
p13
aS'gravy.n.01'
p14
aS'gravy.n.02'
p15
aS'bottle.n.01'
p16
aS'fruit_juice.n.01'
p17
aS'whiskey.n.01'
p18
aS'carafe.n.01'
p19
aS'ice.n.01'
p20
aS'ice.n.05'
p21
aS'bowl.n.01'
p22
aS'glass.n.02'
p23
aS'opening.n.01'
p24
aS'opening.n.10'
p25
aS'fill.v.09'
p26
aS'curd.n.01'
p27
aS'blender.n.01'
p28
aS'apple.n.01'
p29
aS'saltcellar.n.01'
p30
aS'salt.n.02'
p31
aS'measuring_cup.n.01'
p32
aS'meal.n.03'
p33
aS'meal.n.01'
p34
aS'wok.n.01'
p35
aS'rice.n.01'
p36
aS'cup.n.01'
p37
aS'cola.n.02'
p38
aS'gap.n.03'
p39
aS'batter.n.02'
p40
aS'teapot.n.01'
p41
aS'kettle.n.01'
p42
aS'pan.n.03'
p43
asS'instanceCount'
p44
I53
sS'matrix'
p45
(dp46
g36
(dp47
S'rice.n.01'
p48
I1
ssg22
(dp49
S'bowl.n.01'
p50
I1
ssg40
(dp51
S'batter.n.02'
p52
I1
ssg25
(dp53
g25
I0
ssg29
(dp54
S'apple.n.01'
p55
I1
ssg37
(dp56
S'cup.n.01'
p57
I1
ssg10
(dp58
S'milk.n.01'
p59
I2
ssg43
(dp60
S'pan.n.03'
p61
I1
ssg38
(dp62
S'cola.n.02'
p63
I1
ssg39
(dp64
g39
I0
ssg26
(dp65
S'fill.v.01'
p66
I2
ssg16
(dp67
S'bottle.n.01'
p68
I1
ssg11
(dp69
S'pot.n.01'
p70
I1
ssg8
(dp71
S'fill.v.01'
p72
I16
ssg9
(dp73
S'pitcher.n.02'
p74
I1
ssg32
(dp75
S'measuring_cup.n.01'
p76
I1
ssg23
(dp77
S'glass.n.02'
p78
I1
ssg14
(dp79
g15
I1
ssg31
(dp80
S'salt.n.02'
p81
I1
ssg15
(dp82
g15
I0
ssg35
(dp83
S'wok.n.01'
p84
I1
ssg18
(dp85
S'whiskey.n.01'
p86
I1
ssg24
(dp87
g25
I1
sg39
I1
ssg17
(dp88
S'fruit_juice.n.01'
p89
I1
ssg41
(dp90
S'teapot.n.01'
p91
I1
ssg28
(dp92
S'blender.n.01'
p93
I1
ssg30
(dp94
S'saltcellar.n.01'
p95
I1
ssg12
(dp96
S'water.n.06'
p97
I4
ssg20
(dp98
g21
I1
ssg42
(dp99
S'kettle.n.01'
p100
I1
ssg21
(dp101
g21
I0
ssg27
(dp102
S'curd.n.01'
p103
I1
ssg13
(dp104
S'jar.n.01'
p105
I2
ssg19
(dp106
S'carafe.n.01'
p107
I1
ssg34
(dp108
g34
I0
ssg33
(dp109
g34
I1
sssb.