ccopy_reg
_reconstructor
p0
(cutils.eval
ConfusionMatrix
p1
c__builtin__
object
p2
Ntp3
Rp4
(dp5
S'labels'
p6
(lp7
S'fill.v.01'
p8
aS'kettle.n.01'
p9
aS'water.n.06'
p10
aS'pan.n.03'
p11
aS'pan.n.01'
p12
aS'foam.n.01'
p13
aS'mug.n.04'
p14
aS'thermos.n.01'
p15
aS'coffee.n.01'
p16
aS'pitcher.n.02'
p17
aS'milk.n.01'
p18
aS'pot.n.01'
p19
aS'jar.n.01'
p20
aS'gravy.n.01'
p21
aS'gravy.n.02'
p22
aS'bottle.n.01'
p23
aS'fruit_juice.n.01'
p24
aS'whiskey.n.01'
p25
aS'carafe.n.01'
p26
aS'ice.n.01'
p27
aS'ice.n.05'
p28
aS'bowl.n.01'
p29
aS'glass.n.02'
p30
aS'opening.n.01'
p31
aS'fill.v.09'
p32
aS'curd.n.01'
p33
aS'blender.n.01'
p34
aS'apple.n.01'
p35
aS'saltcellar.n.01'
p36
aS'salt.n.02'
p37
aS'measuring_cup.n.01'
p38
aS'meal.n.03'
p39
aS'wok.n.01'
p40
aS'rice.n.01'
p41
aS'cup.n.01'
p42
aS'cola.n.02'
p43
asS'instanceCount'
p44
I53
sS'matrix'
p45
(dp46
g41
(dp47
S'rice.n.01'
p48
I1
ssg29
(dp49
S'bowl.n.01'
p50
I1
ssg35
(dp51
S'apple.n.01'
p52
I1
ssg13
(dp53
S'foam.n.01'
p54
I1
ssg18
(dp55
S'milk.n.01'
p56
I2
ssg12
(dp57
g12
I0
ssg11
(dp58
g12
I1
ssg43
(dp59
S'cola.n.02'
p60
I1
ssg36
(dp61
S'saltcellar.n.01'
p62
I1
ssg32
(dp63
S'fill.v.09'
p64
I1
ssg23
(dp65
S'bottle.n.01'
p66
I1
ssg19
(dp67
S'pot.n.01'
p68
I1
ssg8
(dp69
S'fill.v.01'
p70
I17
ssg17
(dp71
S'pitcher.n.02'
p72
I1
ssg38
(dp73
S'measuring_cup.n.01'
p74
I1
ssg30
(dp75
S'glass.n.02'
p76
I1
ssg21
(dp77
g22
I1
ssg37
(dp78
S'salt.n.02'
p79
I1
ssg22
(dp80
g22
I0
ssg40
(dp81
S'wok.n.01'
p82
I1
ssg16
(dp83
S'coffee.n.01'
p84
I1
ssg25
(dp85
S'whiskey.n.01'
p86
I1
ssg31
(dp87
S'opening.n.01'
p88
I1
ssg14
(dp89
S'mug.n.04'
p90
I1
ssg24
(dp91
S'fruit_juice.n.01'
p92
I1
ssg34
(dp93
S'blender.n.01'
p94
I1
ssg15
(dp95
S'thermos.n.01'
p96
I1
ssg10
(dp97
S'water.n.06'
p98
I3
ssg27
(dp99
g28
I1
ssg42
(dp100
S'cup.n.01'
p101
I1
ssg9
(dp102
S'kettle.n.01'
p103
I1
ssg28
(dp104
g28
I0
ssg33
(dp105
S'curd.n.01'
p106
I1
ssg20
(dp107
S'jar.n.01'
p108
I2
ssg26
(dp109
S'carafe.n.01'
p110
I1
ssg39
(dp111
S'meal.n.03'
p112
I1
sssb.