ccopy_reg
_reconstructor
p0
(cutils.eval
ConfusionMatrix
p1
c__builtin__
object
p2
Ntp3
Rp4
(dp5
S'labels'
p6
(lp7
S'wok.n.01'
p8
aS'fill.v.01'
p9
aS'rice.n.01'
p10
aS'cup.n.01'
p11
aS'cola.n.02'
p12
aS'opening.n.01'
p13
aS'gap.n.03'
p14
aS'fill.v.09'
p15
aS'batter.n.02'
p16
aS'teapot.n.01'
p17
aS'water.n.06'
p18
aS'kettle.n.01'
p19
aS'pan.n.03'
p20
aS'foam.n.01'
p21
aS'mug.n.04'
p22
aS'thermos.n.01'
p23
aS'coffee.n.01'
p24
aS'pitcher.n.02'
p25
aS'milk.n.01'
p26
aS'milk.n.04'
p27
aS'pot.n.01'
p28
aS'pot.n.04'
p29
aS'jar.n.01'
p30
aS'gravy.n.01'
p31
aS'gravy.n.02'
p32
aS'bottle.n.01'
p33
aS'fruit_juice.n.01'
p34
aS'juice.n.01'
p35
aS'whiskey.n.01'
p36
aS'carafe.n.01'
p37
aS'ice.n.01'
p38
aS'ice.n.05'
p39
aS'bowl.n.01'
p40
aS'bowl.n.08'
p41
aS'glass.n.02'
p42
aS'opening.n.10'
p43
aS'curd.n.01'
p44
aS'blender.n.01'
p45
aS'apple.n.01'
p46
asS'instanceCount'
p47
I53
sS'matrix'
p48
(dp49
g23
(dp50
S'thermos.n.01'
p51
I1
ssg40
(dp52
g41
I1
ssg16
(dp53
S'batter.n.02'
p54
I1
ssg46
(dp55
S'apple.n.01'
p56
I1
ssg27
(dp57
g27
I0
ssg43
(dp58
g43
I0
ssg21
(dp59
S'foam.n.01'
p60
I1
ssg26
(dp61
g27
I2
ssg9
(dp62
S'fill.v.01'
p63
I16
ssg20
(dp64
S'pan.n.03'
p65
I1
ssg41
(dp66
g41
I0
ssg12
(dp67
S'cola.n.02'
p68
I1
ssg14
(dp69
g14
I0
ssg15
(dp70
S'fill.v.01'
p71
I2
ssg33
(dp72
S'bottle.n.01'
p73
I1
ssg29
(dp74
g29
I0
ssg28
(dp75
g29
I1
ssg11
(dp76
S'cup.n.01'
p77
I1
ssg25
(dp78
S'pitcher.n.02'
p79
I1
ssg42
(dp80
S'glass.n.02'
p81
I1
ssg31
(dp82
g32
I1
ssg32
(dp83
g32
I0
ssg8
(dp84
S'wok.n.01'
p85
I1
ssg24
(dp86
S'coffee.n.01'
p87
I1
ssg36
(dp88
S'whiskey.n.01'
p89
I1
ssg13
(dp90
g43
I1
sg14
I1
ssg22
(dp91
S'mug.n.04'
p92
I1
ssg34
(dp93
g35
I1
ssg17
(dp94
S'teapot.n.01'
p95
I1
ssg45
(dp96
S'blender.n.01'
p97
I1
ssg10
(dp98
S'rice.n.01'
p99
I1
ssg18
(dp100
S'water.n.06'
p101
I4
ssg38
(dp102
g39
I1
ssg19
(dp103
S'kettle.n.01'
p104
I1
ssg39
(dp105
g39
I0
ssg44
(dp106
S'curd.n.01'
p107
I1
ssg30
(dp108
S'jar.n.01'
p109
I2
ssg37
(dp110
S'carafe.n.01'
p111
I1
ssg35
(dp112
g35
I0
sssb.