ccopy_reg
_reconstructor
p0
(cutils.eval
ConfusionMatrix
p1
c__builtin__
object
p2
Ntp3
Rp4
(dp5
S'labels'
p6
(lp7
S'opening.n.01'
p8
aS'opening.n.10'
p9
aS'fill.v.09'
p10
aS'fill.v.01'
p11
aS'curd.n.01'
p12
aS'curd.n.02'
p13
aS'blender.n.01'
p14
aS'apple.n.01'
p15
aS'saltcellar.n.01'
p16
aS'salt.n.02'
p17
aS'measuring_cup.n.01'
p18
aS'meal.n.03'
p19
aS'wok.n.01'
p20
aS'rice.n.01'
p21
aS'cup.n.01'
p22
aS'cola.n.02'
p23
aS'gap.n.03'
p24
aS'batter.n.02'
p25
aS'teapot.n.01'
p26
aS'water.n.06'
p27
aS'kettle.n.01'
p28
aS'pan.n.03'
p29
aS'foam.n.01'
p30
aS'mug.n.04'
p31
aS'thermos.n.01'
p32
aS'coffee.n.01'
p33
aS'pitcher.n.02'
p34
aS'milk.n.01'
p35
aS'pot.n.01'
p36
aS'jar.n.01'
p37
aS'gravy.n.01'
p38
aS'gravy.n.02'
p39
aS'bottle.n.01'
p40
aS'fruit_juice.n.01'
p41
aS'whiskey.n.01'
p42
aS'carafe.n.01'
p43
aS'ice.n.01'
p44
aS'ice.n.05'
p45
aS'bowl.n.01'
p46
asS'instanceCount'
p47
I54
sS'matrix'
p48
(dp49
g32
(dp50
S'thermos.n.01'
p51
I1
ssg46
(dp52
S'bowl.n.01'
p53
I1
ssg25
(dp54
S'batter.n.02'
p55
I1
ssg9
(dp56
g9
I0
ssg15
(dp57
S'apple.n.01'
p58
I1
ssg11
(dp59
g11
I16
ssg35
(dp60
S'milk.n.01'
p61
I1
ssg29
(dp62
S'pan.n.03'
p63
I1
ssg30
(dp64
S'foam.n.01'
p65
I1
ssg23
(dp66
S'cola.n.02'
p67
I1
ssg24
(dp68
g24
I0
ssg16
(dp69
S'saltcellar.n.01'
p70
I1
ssg40
(dp71
S'bottle.n.01'
p72
I1
ssg36
(dp73
S'pot.n.01'
p74
I1
ssg22
(dp75
S'cup.n.01'
p76
I1
ssg10
(dp77
g11
I2
ssg18
(dp78
S'measuring_cup.n.01'
p79
I1
ssg38
(dp80
g39
I1
ssg17
(dp81
S'salt.n.02'
p82
I1
ssg39
(dp83
g39
I0
ssg20
(dp84
S'wok.n.01'
p85
I1
ssg33
(dp86
S'coffee.n.01'
p87
I1
ssg42
(dp88
S'whiskey.n.01'
p89
I1
ssg8
(dp90
g9
I1
sg24
I1
ssg31
(dp91
S'mug.n.04'
p92
I1
ssg41
(dp93
S'fruit_juice.n.01'
p94
I1
ssg26
(dp95
S'teapot.n.01'
p96
I1
ssg14
(dp97
S'blender.n.01'
p98
I1
ssg21
(dp99
S'rice.n.01'
p100
I1
ssg27
(dp101
S'water.n.06'
p102
I4
ssg44
(dp103
g45
I1
ssg28
(dp104
S'kettle.n.01'
p105
I1
ssg45
(dp106
g45
I0
ssg12
(dp107
g13
I1
ssg37
(dp108
S'jar.n.01'
p109
I1
ssg13
(dp110
g13
I0
ssg43
(dp111
S'carafe.n.01'
p112
I1
ssg34
(dp113
S'pitcher.n.02'
p114
I1
ssg19
(dp115
S'meal.n.03'
p116
I1
sssb.