ccopy_reg
_reconstructor
p0
(cutils.eval
ConfusionMatrix
p1
c__builtin__
object
p2
Ntp3
Rp4
(dp5
S'labels'
p6
(lp7
S'fill.v.01'
p8
aS'whiskey.n.01'
p9
aS'carafe.n.01'
p10
aS'ice.n.01'
p11
aS'ice.n.05'
p12
aS'bowl.n.01'
p13
aS'glass.n.02'
p14
aS'milk.n.01'
p15
aS'jar.n.01'
p16
aS'opening.n.01'
p17
aS'opening.n.10'
p18
aS'fill.v.09'
p19
aS'curd.n.01'
p20
aS'blender.n.01'
p21
aS'apple.n.01'
p22
aS'saltcellar.n.01'
p23
aS'salt.n.02'
p24
aS'measuring_cup.n.01'
p25
aS'meal.n.03'
p26
aS'wok.n.01'
p27
aS'rice.n.01'
p28
aS'cup.n.01'
p29
aS'cola.n.02'
p30
aS'gap.n.03'
p31
aS'batter.n.02'
p32
aS'teapot.n.01'
p33
aS'water.n.06'
p34
aS'kettle.n.01'
p35
aS'pan.n.03'
p36
aS'foam.n.01'
p37
aS'mug.n.04'
p38
aS'thermos.n.01'
p39
aS'coffee.n.01'
p40
aS'pitcher.n.02'
p41
aS'pot.n.01'
p42
asS'instanceCount'
p43
I53
sS'matrix'
p44
(dp45
g39
(dp46
S'thermos.n.01'
p47
I1
ssg13
(dp48
S'bowl.n.01'
p49
I1
ssg32
(dp50
S'batter.n.02'
p51
I1
ssg18
(dp52
g18
I0
ssg22
(dp53
S'apple.n.01'
p54
I1
ssg8
(dp55
S'fill.v.01'
p56
I16
ssg15
(dp57
S'milk.n.01'
p58
I2
ssg36
(dp59
S'pan.n.03'
p60
I1
ssg37
(dp61
S'foam.n.01'
p62
I1
ssg30
(dp63
S'cola.n.02'
p64
I1
ssg31
(dp65
g31
I0
ssg23
(dp66
S'saltcellar.n.01'
p67
I1
ssg42
(dp68
S'pot.n.01'
p69
I1
ssg29
(dp70
S'cup.n.01'
p71
I1
ssg19
(dp72
S'fill.v.01'
p73
I2
ssg25
(dp74
S'measuring_cup.n.01'
p75
I1
ssg14
(dp76
S'glass.n.02'
p77
I1
ssg24
(dp78
S'salt.n.02'
p79
I1
ssg27
(dp80
S'wok.n.01'
p81
I1
ssg40
(dp82
S'coffee.n.01'
p83
I1
ssg9
(dp84
S'whiskey.n.01'
p85
I1
ssg17
(dp86
g18
I1
sg31
I1
ssg38
(dp87
S'mug.n.04'
p88
I1
ssg33
(dp89
S'teapot.n.01'
p90
I1
ssg21
(dp91
S'blender.n.01'
p92
I1
ssg28
(dp93
S'rice.n.01'
p94
I1
ssg34
(dp95
S'water.n.06'
p96
I4
ssg11
(dp97
g12
I1
ssg35
(dp98
S'kettle.n.01'
p99
I1
ssg12
(dp100
g12
I0
ssg20
(dp101
S'curd.n.01'
p102
I1
ssg16
(dp103
S'jar.n.01'
p104
I1
ssg10
(dp105
S'carafe.n.01'
p106
I1
ssg41
(dp107
S'pitcher.n.02'
p108
I1
ssg26
(dp109
S'meal.n.03'
p110
I1
sssb.