ccopy_reg
_reconstructor
p0
(cutils.eval
ConfusionMatrix
p1
c__builtin__
object
p2
Ntp3
Rp4
(dp5
S'labels'
p6
(lp7
S'saltcellar.n.01'
p8
aS'fill.v.01'
p9
aS'fill.v.09'
p10
aS'salt.n.02'
p11
aS'measuring_cup.n.01'
p12
aS'meal.n.03'
p13
aS'wok.n.01'
p14
aS'rice.n.01'
p15
aS'cup.n.01'
p16
aS'cup.n.05'
p17
aS'cola.n.02'
p18
aS'opening.n.01'
p19
aS'batter.n.02'
p20
aS'teapot.n.01'
p21
aS'water.n.06'
p22
aS'kettle.n.01'
p23
aS'pan.n.03'
p24
aS'foam.n.01'
p25
aS'mug.n.04'
p26
aS'thermos.n.01'
p27
aS'coffee.n.01'
p28
aS'pitcher.n.02'
p29
aS'milk.n.01'
p30
aS'milk.n.04'
p31
aS'pot.n.01'
p32
aS'toilet.n.02'
p33
aS'jar.n.01'
p34
aS'gravy.n.01'
p35
aS'gravy.n.02'
p36
aS'bottle.n.01'
p37
aS'fruit_juice.n.01'
p38
aS'juice.n.01'
p39
aS'whiskey.n.01'
p40
aS'carafe.n.01'
p41
aS'ice.n.01'
p42
aS'bowl.n.01'
p43
aS'bowl.n.08'
p44
aS'glass.n.02'
p45
asS'instanceCount'
p46
I53
sS'matrix'
p47
(dp48
g33
(dp49
g33
I0
ssg27
(dp50
S'thermos.n.01'
p51
I1
ssg43
(dp52
g44
I1
ssg20
(dp53
S'batter.n.02'
p54
I1
ssg31
(dp55
g31
I0
ssg25
(dp56
S'foam.n.01'
p57
I1
ssg30
(dp58
g31
I2
ssg24
(dp59
S'pan.n.03'
p60
I1
ssg44
(dp61
g44
I0
ssg18
(dp62
S'cola.n.02'
p63
I1
ssg8
(dp64
S'saltcellar.n.01'
p65
I1
ssg10
(dp66
g10
I1
ssg37
(dp67
S'bottle.n.01'
p68
I1
ssg17
(dp69
g17
I0
ssg32
(dp70
g33
I1
ssg9
(dp71
S'fill.v.01'
p72
I6
sg10
I11
ssg29
(dp73
S'pitcher.n.02'
p74
I1
ssg12
(dp75
S'measuring_cup.n.01'
p76
I1
ssg45
(dp77
S'glass.n.02'
p78
I1
ssg35
(dp79
g36
I1
ssg11
(dp80
S'salt.n.02'
p81
I1
ssg36
(dp82
g36
I0
ssg14
(dp83
S'wok.n.01'
p84
I1
ssg28
(dp85
S'coffee.n.01'
p86
I1
ssg40
(dp87
S'whiskey.n.01'
p88
I1
ssg19
(dp89
S'opening.n.01'
p90
I1
ssg26
(dp91
S'mug.n.04'
p92
I1
ssg38
(dp93
g39
I1
ssg21
(dp94
S'teapot.n.01'
p95
I1
ssg15
(dp96
S'rice.n.01'
p97
I1
ssg22
(dp98
S'water.n.06'
p99
I4
ssg42
(dp100
S'ice.n.01'
p101
I1
ssg16
(dp102
g17
I1
ssg23
(dp103
S'kettle.n.01'
p104
I1
ssg34
(dp105
S'jar.n.01'
p106
I2
ssg41
(dp107
S'carafe.n.01'
p108
I1
ssg39
(dp109
g39
I0
ssg13
(dp110
S'meal.n.03'
p111
I1
sssb.