ccopy_reg
_reconstructor
p0
(cutils.eval
ConfusionMatrix
p1
c__builtin__
object
p2
Ntp3
Rp4
(dp5
S'labels'
p6
(lp7
S'piece.n.08'
p8
aS'slice.n.06'
p9
aS'potato.n.01'
p10
aS'cut.v.01'
p11
aS'cabbage.n.01'
p12
aS'egg.n.02'
p13
aS'olive.n.01'
p14
aS'olive.n.04'
p15
aS'zucchini.n.01'
p16
aS'zucchini.n.02'
p17
aS'vegetable.n.01'
p18
aS'knife.n.01'
p19
asS'instanceCount'
p20
I15
sS'matrix'
p21
(dp22
g14
(dp23
g15
I1
ssg11
(dp24
S'cut.v.01'
p25
I6
ssg12
(dp26
S'cabbage.n.01'
p27
I1
ssg15
(dp28
g15
I0
ssg13
(dp29
S'egg.n.02'
p30
I1
ssg16
(dp31
g17
I1
ssg9
(dp32
g9
I0
ssg18
(dp33
S'vegetable.n.01'
p34
I1
ssg17
(dp35
g17
I0
ssg10
(dp36
S'potato.n.01'
p37
I1
ssg19
(dp38
S'knife.n.01'
p39
I1
ssg8
(dp40
g9
I2
sssb.