ccopy_reg
_reconstructor
p0
(cutils.eval
ConfusionMatrix
p1
c__builtin__
object
p2
Ntp3
Rp4
(dp5
S'labels'
p6
(lp7
S'egg.n.02'
p8
aS'cut.v.01'
p9
aS'piece.n.08'
p10
aS'slice.n.06'
p11
aS'olive.n.01'
p12
aS'olive.n.04'
p13
aS'zucchini.n.01'
p14
aS'zucchini.n.02'
p15
aS'vegetable.n.01'
p16
aS'knife.n.01'
p17
aS'fork.n.01'
p18
aS'fork.n.04'
p19
aS'cake.n.03'
p20
aS'mushroom.n.05'
p21
asS'instanceCount'
p22
I15
sS'matrix'
p23
(dp24
g21
(dp25
S'mushroom.n.05'
p26
I1
ssg12
(dp27
g13
I1
ssg9
(dp28
S'cut.v.01'
p29
I6
ssg17
(dp30
S'knife.n.01'
p31
I1
ssg13
(dp32
g13
I0
ssg8
(dp33
S'egg.n.02'
p34
I1
ssg19
(dp35
g19
I0
ssg11
(dp36
g11
I0
ssg16
(dp37
S'vegetable.n.01'
p38
I1
ssg18
(dp39
g19
I1
ssg15
(dp40
g15
I0
ssg14
(dp41
g15
I1
ssg20
(dp42
S'cake.n.03'
p43
I1
ssg10
(dp44
g11
I1
sssb.