ccopy_reg
_reconstructor
p0
(cutils.eval
ConfusionMatrix
p1
c__builtin__
object
p2
Ntp3
Rp4
(dp5
S'labels'
p6
(lp7
S'piece.n.08'
p8
aS'slice.n.06'
p9
aS'cut.v.01'
p10
aS'pizza.n.01'
p11
aS'orange.n.01'
p12
aS'flesh.n.01'
p13
aS'human_body.n.01'
p14
aS'lemon.n.01'
p15
aS'potato.n.01'
p16
aS'cabbage.n.01'
p17
asS'instanceCount'
p18
I15
sS'matrix'
p19
(dp20
g10
(dp21
S'cut.v.01'
p22
I6
ssg17
(dp23
S'cabbage.n.01'
p24
I1
ssg13
(dp25
g14
I1
ssg9
(dp26
g9
I0
ssg14
(dp27
g14
I0
ssg11
(dp28
S'pizza.n.01'
p29
I1
ssg12
(dp30
S'orange.n.01'
p31
I1
ssg15
(dp32
S'lemon.n.01'
p33
I1
ssg16
(dp34
S'potato.n.01'
p35
I1
ssg8
(dp36
g9
I3
sssb.