ccopy_reg
_reconstructor
p0
(cutils.eval
ConfusionMatrix
p1
c__builtin__
object
p2
Ntp3
Rp4
(dp5
S'labels'
p6
(lp7
S'cheese.n.01'
p8
aS'cut.v.01'
p9
aS'bacon.n.01'
p10
aS'meat.n.01'
p11
aS'cleaver.n.01'
p12
aS'knife.n.01'
p13
aS'green_onion.n.01'
p14
aS'piece.n.08'
p15
aS'slice.n.06'
p16
aS'pizza.n.01'
p17
aS'orange.n.01'
p18
asS'instanceCount'
p19
I16
sS'matrix'
p20
(dp21
g8
(dp22
S'cheese.n.01'
p23
I1
ssg9
(dp24
S'cut.v.01'
p25
I6
ssg13
(dp26
S'knife.n.01'
p27
I1
ssg16
(dp28
g16
I0
ssg10
(dp29
S'bacon.n.01'
p30
I1
ssg17
(dp31
S'pizza.n.01'
p32
I1
ssg18
(dp33
S'orange.n.01'
p34
I1
ssg11
(dp35
S'meat.n.01'
p36
I1
ssg14
(dp37
S'green_onion.n.01'
p38
I1
ssg15
(dp39
g16
I2
ssg12
(dp40
S'cleaver.n.01'
p41
I1
sssb.