ccopy_reg
_reconstructor
p0
(cutils.eval
ConfusionMatrix
p1
c__builtin__
object
p2
Ntp3
Rp4
(dp5
S'labels'
p6
(lp7
S'cut.v.01'
p8
aS'tomato.n.01'
p9
aS'knife.n.01'
p10
aS'bread.n.01'
p11
aS'cheese.n.01'
p12
aS'bacon.n.01'
p13
aS'meat.n.01'
p14
aS'cleaver.n.01'
p15
aS'green_onion.n.01'
p16
asS'instanceCount'
p17
I16
sS'matrix'
p18
(dp19
g12
(dp20
S'cheese.n.01'
p21
I1
ssg8
(dp22
S'cut.v.01'
p23
I6
ssg10
(dp24
S'knife.n.01'
p25
I3
ssg9
(dp26
S'tomato.n.01'
p27
I1
ssg13
(dp28
S'bacon.n.01'
p29
I1
ssg11
(dp30
S'bread.n.01'
p31
I1
ssg14
(dp32
S'meat.n.01'
p33
I1
ssg16
(dp34
S'green_onion.n.01'
p35
I1
ssg15
(dp36
S'cleaver.n.01'
p37
I1
sssb.