ccopy_reg
_reconstructor
p0
(cutils.eval
ConfusionMatrix
p1
c__builtin__
object
p2
Ntp3
Rp4
(dp5
S'labels'
p6
(lp7
S'stir.v.01'
p8
aS'water.n.06'
p9
aS'vegetable.n.01'
p10
aS'stir.v.08'
p11
aS'coca_cola.n.01'
p12
aS'tea.n.01'
p13
aS'cappuccino.n.01'
p14
aS'butter.n.01'
p15
aS'tomato.n.01'
p16
aS'whiskey.n.01'
p17
aS'cream.n.02'
p18
aS'banana.n.02'
p19
asS'instanceCount'
p20
I20
sS'matrix'
p21
(dp22
g10
(dp23
S'vegetable.n.01'
p24
I1
ssg19
(dp25
S'banana.n.02'
p26
I1
ssg15
(dp27
S'butter.n.01'
p28
I1
ssg14
(dp29
S'cappuccino.n.01'
p30
I1
ssg18
(dp31
S'cream.n.02'
p32
I1
ssg9
(dp33
S'water.n.06'
p34
I1
ssg16
(dp35
S'tomato.n.01'
p36
I1
ssg11
(dp37
S'stir.v.01'
p38
I2
sS'stir.v.08'
p39
I3
ssg8
(dp40
S'stir.v.01'
p41
I5
ssg12
(dp42
S'coca_cola.n.01'
p43
I1
ssg13
(dp44
S'tea.n.01'
p45
I1
ssg17
(dp46
S'whiskey.n.01'
p47
I1
sssb.