ccopy_reg
_reconstructor
p0
(cutils.eval
ConfusionMatrix
p1
c__builtin__
object
p2
Ntp3
Rp4
(dp5
S'labels'
p6
(lp7
S'stir.v.01'
p8
aS'cappuccino.n.01'
p9
aS'stir.v.08'
p10
aS'butter.n.01'
p11
aS'tomato.n.01'
p12
aS'whiskey.n.01'
p13
aS'cream.n.02'
p14
aS'banana.n.02'
p15
aS'salt.n.02'
p16
aS'apple.n.01'
p17
aS'egg.n.02'
p18
aS'sugar.n.01'
p19
asS'instanceCount'
p20
I20
sS'matrix'
p21
(dp22
g16
(dp23
S'salt.n.02'
p24
I1
ssg15
(dp25
S'banana.n.02'
p26
I1
ssg18
(dp27
S'egg.n.02'
p28
I1
ssg11
(dp29
S'butter.n.01'
p30
I1
ssg9
(dp31
S'cappuccino.n.01'
p32
I1
ssg14
(dp33
S'cream.n.02'
p34
I1
ssg12
(dp35
S'tomato.n.01'
p36
I1
ssg10
(dp37
S'stir.v.01'
p38
I5
sS'stir.v.08'
p39
I3
ssg17
(dp40
S'apple.n.01'
p41
I1
ssg8
(dp42
S'stir.v.01'
p43
I2
ssg13
(dp44
S'whiskey.n.01'
p45
I1
ssg19
(dp46
S'sugar.n.01'
p47
I1
sssb.