ccopy_reg
_reconstructor
p0
(cutils.eval
ConfusionMatrix
p1
c__builtin__
object
p2
Ntp3
Rp4
(dp5
S'labels'
p6
(lp7
S'stir.v.08'
p8
aS'stir.v.01'
p9
aS'cream.n.02'
p10
aS'banana.n.02'
p11
aS'salt.n.02'
p12
aS'apple.n.01'
p13
aS'egg.n.02'
p14
aS'sugar.n.01'
p15
aS'wine.n.01'
p16
aS'champagne.n.01'
p17
aS'peanut.n.04'
p18
aS'peanut.n.03'
p19
aS'juice.n.01'
p20
aS'fruit_juice.n.01'
p21
asS'instanceCount'
p22
I20
sS'matrix'
p23
(dp24
g12
(dp25
S'salt.n.02'
p26
I1
ssg21
(dp27
g21
I0
ssg11
(dp28
S'banana.n.02'
p29
I1
ssg16
(dp30
S'wine.n.01'
p31
I1
ssg14
(dp32
S'egg.n.02'
p33
I1
ssg10
(dp34
S'cream.n.02'
p35
I1
ssg17
(dp36
S'champagne.n.01'
p37
I1
ssg8
(dp38
g9
I4
sS'stir.v.08'
p39
I3
ssg13
(dp40
S'apple.n.01'
p41
I1
ssg9
(dp42
g9
I3
ssg19
(dp43
g19
I0
ssg18
(dp44
g19
I1
ssg20
(dp45
g21
I1
ssg15
(dp46
S'sugar.n.01'
p47
I1
sssb.