ccopy_reg
_reconstructor
p0
(cutils.eval
ConfusionMatrix
p1
c__builtin__
object
p2
Ntp3
Rp4
(dp5
S'labels'
p6
(lp7
S'stir.v.08'
p8
aS'salt.n.02'
p9
aS'apple.n.01'
p10
aS'stir.v.01'
p11
aS'egg.n.02'
p12
aS'sugar.n.01'
p13
aS'wine.n.01'
p14
aS'champagne.n.01'
p15
aS'peanut.n.04'
p16
aS'peanut.n.03'
p17
aS'juice.n.01'
p18
aS'fruit_juice.n.01'
p19
aS'coffee.n.01'
p20
aS'milk.n.01'
p21
asS'instanceCount'
p22
I20
sS'matrix'
p23
(dp24
g9
(dp25
S'salt.n.02'
p26
I1
ssg19
(dp27
g19
I0
ssg14
(dp28
S'wine.n.01'
p29
I1
ssg21
(dp30
S'milk.n.01'
p31
I1
ssg12
(dp32
S'egg.n.02'
p33
I1
ssg20
(dp34
S'coffee.n.01'
p35
I1
ssg15
(dp36
S'champagne.n.01'
p37
I1
ssg8
(dp38
g11
I1
sS'stir.v.08'
p39
I4
ssg10
(dp40
S'apple.n.01'
p41
I1
ssg11
(dp42
g11
I5
ssg17
(dp43
g17
I0
ssg16
(dp44
g17
I1
ssg18
(dp45
g19
I1
ssg13
(dp46
S'sugar.n.01'
p47
I1
sssb.