ccopy_reg
_reconstructor
p0
(cutils.eval
ConfusionMatrix
p1
c__builtin__
object
p2
Ntp3
Rp4
(dp5
S'labels'
p6
(lp7
S'pot.n.01'
p8
aS'fill.v.01'
p9
aS'water.n.06'
p10
aS'pitcher.n.02'
p11
aS'milk.n.01'
p12
aS'pan.n.01'
p13
aS'pan.n.03'
p14
aS'kettle.n.01'
p15
aS'measuring_cup.n.01'
p16
aS'meal.n.03'
p17
aS'foam.n.01'
p18
aS'mug.n.04'
p19
aS'wok.n.01'
p20
aS'rice.n.01'
p21
aS'cup.n.01'
p22
aS'cola.n.02'
p23
aS'thermos.n.01'
p24
aS'coffee.n.01'
p25
aS'ice.n.01'
p26
aS'methamphetamine.n.01'
p27
aS'bowl.n.01'
p28
aS'jar.n.01'
p29
aS'gravy.n.01'
p30
aS'gravy.n.02'
p31
aS'opening.n.01'
p32
aS'gap.n.03'
p33
aS'fill.v.09'
p34
aS'batter.n.02'
p35
aS'blender.n.01'
p36
aS'apple.n.01'
p37
aS'opening.n.10'
p38
aS'curd.n.01'
p39
aS'bottle.n.01'
p40
aS'fruit_juice.n.01'
p41
asS'instanceCount'
p42
I47
sS'matrix'
p43
(dp44
g21
(dp45
S'rice.n.01'
p46
I1
ssg27
(dp47
g27
I0
ssg28
(dp48
S'bowl.n.01'
p49
I1
ssg35
(dp50
S'batter.n.02'
p51
I1
ssg38
(dp52
g38
I0
ssg37
(dp53
S'apple.n.01'
p54
I1
ssg22
(dp55
S'cup.n.01'
p56
I1
ssg12
(dp57
S'milk.n.01'
p58
I1
ssg13
(dp59
g14
I1
ssg14
(dp60
g14
I0
ssg18
(dp61
S'foam.n.01'
p62
I1
ssg23
(dp63
S'cola.n.02'
p64
I1
ssg33
(dp65
g33
I0
ssg34
(dp66
S'fill.v.01'
p67
I2
ssg40
(dp68
S'bottle.n.01'
p69
I1
ssg8
(dp70
S'pot.n.01'
p71
I1
ssg9
(dp72
S'fill.v.01'
p73
I14
ssg11
(dp74
S'pitcher.n.02'
p75
I1
ssg16
(dp76
S'measuring_cup.n.01'
p77
I1
ssg30
(dp78
g31
I1
ssg31
(dp79
g31
I0
ssg20
(dp80
S'wok.n.01'
p81
I1
ssg25
(dp82
S'coffee.n.01'
p83
I1
ssg32
(dp84
g38
I1
sg33
I1
ssg19
(dp85
S'mug.n.04'
p86
I1
ssg41
(dp87
S'fruit_juice.n.01'
p88
I1
ssg36
(dp89
S'blender.n.01'
p90
I1
ssg24
(dp91
S'thermos.n.01'
p92
I1
ssg10
(dp93
S'water.n.06'
p94
I3
ssg26
(dp95
g27
I1
ssg15
(dp96
S'kettle.n.01'
p97
I1
ssg39
(dp98
S'curd.n.01'
p99
I1
ssg29
(dp100
S'jar.n.01'
p101
I2
ssg17
(dp102
S'meal.n.03'
p103
I1
sssb.