ccopy_reg
_reconstructor
p0
(cutils.eval
ConfusionMatrix
p1
c__builtin__
object
p2
Ntp3
Rp4
(dp5
S'labels'
p6
(lp7
S'cheese.n.01'
p8
aS'tall_mallow.n.01'
p9
aS'slice.v.03'
p10
aS'slice.v.02'
p11
asS'instanceCount'
p12
I2
sS'matrix'
p13
(dp14
g11
(dp15
g11
I0
ssg8
(dp16
g9
I1
ssg9
(dp17
g9
I0
ssg10
(dp18
g11
I1
sssb.