ccopy_reg
_reconstructor
p0
(cutils.eval
ConfusionMatrix
p1
c__builtin__
object
p2
Ntp3
Rp4
(dp5
S'labels'
p6
(lp7
S'add.v.01'
p8
aS'ingredient.n.03'
p9
aS'concoction.n.01'
p10
aS'mixture.n.01'
p11
aS'cream.n.02'
p12
aS'cream.n.03'
p13
aS'pan.n.03'
p14
aS'vanilla.n.02'
p15
asS'instanceCount'
p16
I7
sS'matrix'
p17
(dp18
g14
(dp19
S'pan.n.03'
p20
I1
ssg11
(dp21
g11
I0
ssg12
(dp22
g13
I1
ssg9
(dp23
S'ingredient.n.03'
p24
I1
ssg13
(dp25
g13
I0
ssg15
(dp26
S'vanilla.n.02'
p27
I1
ssg10
(dp28
g11
I1
ssg8
(dp29
S'add.v.01'
p30
I2
sssb.