ccopy_reg
_reconstructor
p0
(cutils.eval
ConfusionMatrix
p1
c__builtin__
object
p2
Ntp3
Rp4
(dp5
S'labels'
p6
(lp7
S'fill.v.01'
p8
aS'measuring_cup.n.01'
p9
aS'meal.n.03'
p10
aS'fork.n.01'
p11
aS'branching.n.01'
p12
aS'bowl.n.01'
p13
aS'bowl.n.08'
p14
aS'blend.v.03'
p15
aS'mix.v.05'
p16
aS'put.v.01'
p17
aS'put.v.02'
p18
aS'sauce.n.01'
p19
aS'lodge.v.02'
p20
aS'stick.v.08'
p21
aS'pizza.n.01'
p22
aS'pan.n.01'
p23
aS'knife.n.01'
p24
aS'tongue.n.03'
p25
aS'banana.n.02'
p26
aS'slice.v.03'
p27
aS'serve.v.05'
p28
aS'serve.v.11'
p29
aS'cut.v.01'
p30
aS'edit.v.03'
p31
aS'piece.n.08'
p32
aS'slice.n.06'
p33
aS'add.v.01'
p34
aS'cover.v.01'
p35
aS'cover.v.23'
p36
aS'rib.n.03'
p37
aS'cut.n.16'
p38
aS'bag.n.01'
p39
aS'bag.n.04'
p40
aS'blend.v.01'
p41
aS'stadium.n.01'
p42
aS'pan.n.03'
p43
aS'water.n.06'
p44
aS'carve.v.03'
p45
aS'hack.v.07'
p46
aS'pepper.n.04'
p47
aS'pepper.n.03'
p48
aS'onion.n.01'
p49
aS'bread.n.01'
p50
aS'walnut.n.01'
p51
aS'walnut.n.02'
p52
aS'get.v.01'
p53
aS'bring.v.04'
p54
aS'pear.n.01'
p55
aS'mix.v.04'
p56
aS'bowl.n.03'
p57
aS'bottle.n.01'
p58
aS'fruit_juice.n.01'
p59
aS'juice.n.01'
p60
aS'vanilla.n.02'
p61
aS'vanilla.n.03'
p62
aS'egg.n.02'
p63
aS'egg.n.01'
p64
aS'concoction.n.01'
p65
aS'burner.n.02'
p66
aS'burner.n.01'
p67
aS'pan.n.02'
p68
aS'butter.n.01'
p69
aS'opening.n.01'
p70
aS'gap.n.03'
p71
aS'fill.v.09'
p72
aS'batter.n.02'
p73
aS'whiskey.n.01'
p74
aS'carafe.n.01'
p75
aS'liquid.n.01'
p76
aS'liquid.n.03'
p77
aS'pour.v.01'
p78
aS'decant.v.01'
p79
aS'sink.n.01'
p80
aS'cup.n.01'
p81
aS'cola.n.02'
p82
aS'thermos.n.01'
p83
aS'coffee.n.01'
p84
aS'wok.n.01'
p85
aS'rice.n.01'
p86
aS'jar.n.01'
p87
aS'fill.v.02'
p88
aS'apple.n.01'
p89
aS'slice.v.02'
p90
aS'kettle.n.01'
p91
aS'strawberry.n.01'
p92
aS'avocado.n.01'
p93
aS'teapot.n.01'
p94
aS'opening.n.10'
p95
aS'curd.n.01'
p96
aS'pot.n.01'
p97
aS'rum.n.01'
p98
aS'shaker.n.03'
p99
aS'take.v.04'
p100
aS'assume.v.03'
p101
aS'salt.n.02'
p102
aS'salt.n.04'
p103
aS'cut.v.40'
p104
aS'squash.n.02'
p105
aS'glass.n.02'
p106
aS'milk.n.01'
p107
aS'milk.n.04'
p108
aS'cheese.n.01'
p109
aS'flesh.n.01'
p110
aS'human_body.n.01'
p111
aS'ice.n.01'
p112
aS'ice.n.05'
p113
aS'lend.v.01'
p114
aS'tomato.n.01'
p115
aS'slice.n.04'
p116
aS'onion.n.03'
p117
aS'mustard.n.02'
p118
aS'mug.n.04'
p119
aS'sugar.n.01'
p120
aS'boodle.n.01'
p121
aS'water_system.n.02'
p122
aS'mix.n.03'
p123
aS'pitcher.n.02'
p124
asS'instanceCount'
p125
I135
sS'matrix'
p126
(dp127
g57
(dp128
g57
I0
ssg13
(dp129
g42
I1
sg57
I1
sS'bowl.n.01'
p130
I1
sg14
I1
ssg14
(dp131
g14
I0
ssg30
(dp132
g31
I2
sg104
I1
ssg35
(dp133
g36
I1
ssg9
(dp134
S'measuring_cup.n.01'
p135
I1
ssg106
(dp136
S'glass.n.02'
p137
I1
ssg37
(dp138
S'rib.n.03'
p139
I1
ssg52
(dp140
g52
I0
ssg11
(dp141
g12
I1
ssg51
(dp142
g52
I1
ssg54
(dp143
g54
I0
ssg29
(dp144
g29
I0
ssg111
(dp145
g111
I0
ssg74
(dp146
S'whiskey.n.01'
p147
I1
ssg70
(dp148
g95
I1
sg71
I1
ssg110
(dp149
g111
I1
ssg44
(dp150
g122
I1
sS'water.n.06'
p151
I4
ssg17
(dp152
g18
I3
ssg78
(dp153
S'pour.v.01'
p154
I2
sg79
I1
ssg36
(dp155
g36
I0
ssg25
(dp156
g25
I0
ssg97
(dp157
S'pot.n.01'
p158
I1
ssg87
(dp159
S'jar.n.01'
p160
I1
ssg75
(dp161
S'carafe.n.01'
p162
I1
ssg79
(dp163
S'pour.v.01'
p164
I1
sg79
I0
ssg80
(dp165
S'sink.n.01'
p166
I1
ssg122
(dp167
g122
I0
ssg18
(dp168
g18
I0
ssg100
(dp169
g101
I1
ssg93
(dp170
S'avocado.n.01'
p171
I1
ssg89
(dp172
S'apple.n.01'
p173
I1
ssg34
(dp174
S'add.v.01'
p175
I4
sg114
I1
ssg23
(dp176
S'pan.n.01'
p177
I1
sg43
I2
sg68
I1
ssg43
(dp178
g43
I0
ssg68
(dp179
g68
I0
ssg71
(dp180
g71
I0
ssg81
(dp181
S'cup.n.01'
p182
I1
ssg62
(dp183
g62
I0
ssg61
(dp184
g62
I2
ssg90
(dp185
g90
I0
ssg27
(dp186
g90
I1
sS'slice.v.03'
p187
I3
ssg26
(dp188
S'banana.n.02'
p189
I1
ssg53
(dp190
g54
I1
ssg85
(dp191
S'wok.n.01'
p192
I1
ssg47
(dp193
g48
I1
ssg48
(dp194
g48
I1
ssg98
(dp195
S'rum.n.01'
p196
I1
ssg99
(dp197
S'shaker.n.03'
p198
I1
ssg42
(dp199
g42
I0
ssg59
(dp200
g60
I1
ssg94
(dp201
S'teapot.n.01'
p202
I1
ssg112
(dp203
g113
I1
ssg91
(dp204
S'kettle.n.01'
p205
I1
ssg113
(dp206
g113
I0
ssg114
(dp207
g114
I0
ssg96
(dp208
S'curd.n.01'
p209
I1
ssg49
(dp210
S'onion.n.01'
p211
I1
ssg117
(dp212
S'onion.n.01'
p213
I1
ssg10
(dp214
S'meal.n.03'
p215
I1
ssg92
(dp216
S'strawberry.n.01'
p217
I1
ssg45
(dp218
g46
I1
ssg20
(dp219
g21
I1
ssg21
(dp220
g21
I0
ssg118
(dp221
S'mustard.n.02'
p222
I1
ssg72
(dp223
S'fill.v.01'
p224
I2
ssg58
(dp225
S'bottle.n.01'
p226
I1
ssg88
(dp227
g88
I0
ssg8
(dp228
g88
I1
sS'fill.v.01'
p229
I15
ssg124
(dp230
S'pitcher.n.02'
p231
I1
ssg55
(dp232
S'pear.n.01'
p233
I1
ssg104
(dp234
g104
I0
ssg65
(dp235
S'concoction.n.01'
p236
I1
sg123
I1
ssg46
(dp237
g46
I0
ssg24
(dp238
g25
I1
ssg105
(dp239
S'squash.n.02'
p240
I1
ssg103
(dp241
g103
I0
ssg101
(dp242
g101
I0
ssg84
(dp243
S'coffee.n.01'
p244
I1
ssg12
(dp245
g12
I0
ssg119
(dp246
S'mug.n.04'
p247
I1
ssg33
(dp248
g33
I0
ssg28
(dp249
g29
I1
ssg116
(dp250
g116
I0
ssg22
(dp251
S'pizza.n.01'
p252
I2
ssg38
(dp253
S'edit.v.03'
p254
I1
ssg66
(dp255
g67
I1
ssg67
(dp256
g67
I0
ssg109
(dp257
S'cheese.n.01'
p258
I1
ssg83
(dp259
S'thermos.n.01'
p260
I1
ssg102
(dp261
g103
I1
ssg50
(dp262
S'bread.n.01'
p263
I2
ssg73
(dp264
S'batter.n.02'
p265
I1
ssg95
(dp266
g95
I0
ssg108
(dp267
g108
I0
ssg107
(dp268
g108
I2
ssg82
(dp269
S'cola.n.02'
p270
I1
ssg63
(dp271
g64
I2
ssg69
(dp272
S'butter.n.01'
p273
I2
ssg40
(dp274
g40
I0
ssg39
(dp275
g40
I1
ssg56
(dp276
g56
I0
ssg16
(dp277
g16
I0
ssg19
(dp278
S'sauce.n.01'
p279
I1
ssg15
(dp280
g56
I2
sg16
I2
ssg41
(dp281
S'blend.v.01'
p282
I1
ssg123
(dp283
g123
I1
ssg31
(dp284
g31
I0
ssg115
(dp285
S'tomato.n.01'
p286
I1
ssg121
(dp287
g121
I0
ssg32
(dp288
g33
I5
sg116
I1
ssg86
(dp289
S'rice.n.01'
p290
I2
ssg60
(dp291
g60
I0
ssg76
(dp292
g77
I1
ssg77
(dp293
g77
I0
ssg64
(dp294
g64
I0
ssg120
(dp295
g121
I1
sssb.