ccopy_reg
_reconstructor
p0
(cutils.eval
ConfusionMatrix
p1
c__builtin__
object
p2
Ntp3
Rp4
(dp5
S'labels'
p6
(lp7
S'AddingIngredient'
p8
aS'Pouring'
p9
aS'OperatingATap'
p10
asS'instanceCount'
p11
I3
sS'matrix'
p12
(dp13
g9
(dp14
S'Pouring'
p15
I1
ssg8
(dp16
S'AddingIngredient'
p17
I1
ssg10
(dp18
S'OperatingATap'
p19
I1
sssb.