ccopy_reg
_reconstructor
p0
(cutils.eval
ConfusionMatrix
p1
c__builtin__
object
p2
Ntp3
Rp4
(dp5
S'labels'
p6
(lp7
S'Tapping'
p8
aS'AddingIngredient'
p9
asS'instanceCount'
p10
I2
sS'matrix'
p11
(dp12
g9
(dp13
S'AddingIngredient'
p14
I1
ssg8
(dp15
S'Tapping'
p16
I1
sssb.