ccopy_reg
_reconstructor
p0
(cutils.eval
ConfusionMatrix
p1
c__builtin__
object
p2
Ntp3
Rp4
(dp5
S'labels'
p6
(lp7
S'AddingIngredient'
p8
aS'Pouring'
p9
aS'Tapping'
p10
asS'instanceCount'
p11
I26
sS'matrix'
p12
(dp13
g9
(dp14
g9
I11
sS'AddingIngredient'
p15
I0
sg10
I1
ssg8
(dp16
g9
I0
sg8
I10
sg10
I0
ssg10
(dp17
g9
I0
sg15
I0
sg10
I4
sssb.