ccopy_reg
_reconstructor
p0
(cutils.eval
ConfusionMatrix
p1
c__builtin__
object
p2
Ntp3
Rp4
(dp5
S'labels'
p6
(lp7
S'Pouring'
p8
aS'Tapping'
p9
asS'instanceCount'
p10
I3
sS'matrix'
p11
(dp12
g8
(dp13
S'Pouring'
p14
I2
sg9
I1
ssg9
(dp15
g9
I0
sssb.