ccopy_reg
_reconstructor
p0
(cutils.eval
ConfusionMatrix
p1
c__builtin__
object
p2
Ntp3
Rp4
(dp5
S'labels'
p6
(lp7
S'Pouring'
p8
asS'instanceCount'
p9
I3
sS'matrix'
p10
(dp11
g8
(dp12
S'Pouring'
p13
I3
sssb.