ccopy_reg
_reconstructor
p0
(cutils.eval
ConfusionMatrix
p1
c__builtin__
object
p2
Ntp3
Rp4
(dp5
S'labels'
p6
(lp7
S'meat.n.01'
p8
aS'slice.v.03'
p9
aS'cleaver.n.01'
p10
aS'orange.n.01'
p11
aS'piece.n.08'
p12
aS'slice.n.06'
p13
aS'cabbage.n.01'
p14
aS'tomato.n.01'
p15
aS'tomato.n.02'
p16
aS'onion.n.03'
p17
aS'onion.n.02'
p18
aS'mustard.n.02'
p19
aS'bread.n.01'
p20
aS'knife.n.01'
p21
aS'green_onion.n.01'
p22
asS'instanceCount'
p23
I18
sS'matrix'
p24
(dp25
g9
(dp26
S'slice.v.03'
p27
I5
ssg19
(dp28
S'mustard.n.02'
p29
I1
ssg14
(dp30
S'cabbage.n.01'
p31
I1
ssg16
(dp32
g16
I0
ssg15
(dp33
g16
I1
ssg13
(dp34
g13
I0
ssg20
(dp35
S'bread.n.01'
p36
I1
ssg11
(dp37
S'orange.n.01'
p38
I1
ssg8
(dp39
S'meat.n.01'
p40
I1
ssg21
(dp41
S'knife.n.01'
p42
I2
ssg12
(dp43
S'piece.n.08'
p44
I1
sg13
I1
ssg18
(dp45
g18
I0
ssg22
(dp46
S'green_onion.n.01'
p47
I1
ssg17
(dp48
g18
I1
ssg10
(dp49
S'cleaver.n.01'
p50
I1
sssb.