ccopy_reg
_reconstructor
p0
(cutils.eval
ConfusionMatrix
p1
c__builtin__
object
p2
Ntp3
Rp4
(dp5
S'labels'
p6
(lp7
S'slice.v.03'
p8
aS'egg.n.02'
p9
aS'piece.n.08'
p10
aS'zucchini.n.01'
p11
aS'zucchini.n.02'
p12
aS'vegetable.n.01'
p13
aS'knife.n.01'
p14
aS'lemon.n.01'
p15
aS'meat.n.01'
p16
aS'cleaver.n.01'
p17
aS'orange.n.01'
p18
asS'instanceCount'
p19
I16
sS'matrix'
p20
(dp21
g8
(dp22
S'slice.v.03'
p23
I6
ssg13
(dp24
S'vegetable.n.01'
p25
I1
ssg14
(dp26
S'knife.n.01'
p27
I1
ssg9
(dp28
S'egg.n.02'
p29
I1
ssg18
(dp30
S'orange.n.01'
p31
I1
ssg12
(dp32
g12
I0
ssg16
(dp33
S'meat.n.01'
p34
I1
ssg15
(dp35
S'lemon.n.01'
p36
I1
ssg11
(dp37
g12
I1
ssg10
(dp38
S'piece.n.08'
p39
I2
ssg17
(dp40
S'cleaver.n.01'
p41
I1
sssb.