ccopy_reg
_reconstructor
p0
(cutils.eval
ConfusionMatrix
p1
c__builtin__
object
p2
Ntp3
Rp4
(dp5
S'labels'
p6
(lp7
S'vegetable.n.01'
p8
aS'knife.n.01'
p9
aS'slice.v.03'
p10
aS'lemon.n.01'
p11
aS'meat.n.01'
p12
aS'cleaver.n.01'
p13
aS'orange.n.01'
p14
aS'piece.n.08'
p15
aS'slice.n.06'
p16
aS'cabbage.n.01'
p17
aS'tomato.n.01'
p18
aS'tomato.n.02'
p19
aS'onion.n.03'
p20
aS'onion.n.02'
p21
aS'mustard.n.02'
p22
asS'instanceCount'
p23
I17
sS'matrix'
p24
(dp25
g10
(dp26
S'slice.v.03'
p27
I5
ssg8
(dp28
S'vegetable.n.01'
p29
I1
ssg9
(dp30
S'knife.n.01'
p31
I1
ssg19
(dp32
g19
I0
ssg18
(dp33
g19
I1
ssg16
(dp34
g16
I0
ssg22
(dp35
S'mustard.n.02'
p36
I1
ssg14
(dp37
S'orange.n.01'
p38
I1
ssg12
(dp39
S'meat.n.01'
p40
I1
ssg11
(dp41
S'lemon.n.01'
p42
I1
ssg17
(dp43
S'cabbage.n.01'
p44
I1
ssg15
(dp45
S'piece.n.08'
p46
I1
sg16
I1
ssg21
(dp47
g21
I0
ssg20
(dp48
g21
I1
ssg13
(dp49
S'cleaver.n.01'
p50
I1
sssb.