ccopy_reg
_reconstructor
p0
(cutils.eval
ConfusionMatrix
p1
c__builtin__
object
p2
Ntp3
Rp4
(dp5
S'labels'
p6
(lp7
S'bread.n.01'
p8
aS'knife.n.01'
p9
aS'slice.v.03'
p10
aS'green_onion.n.01'
p11
aS'banana.n.02'
p12
aS'olive.n.01'
p13
aS'olive.n.04'
p14
aS'flesh.n.01'
p15
aS'human_body.n.01'
p16
aS'potato.n.01'
p17
aS'piece.n.08'
p18
asS'instanceCount'
p19
I16
sS'matrix'
p20
(dp21
g10
(dp22
S'slice.v.03'
p23
I6
ssg13
(dp24
g14
I1
ssg9
(dp25
S'knife.n.01'
p26
I3
ssg12
(dp27
S'banana.n.02'
p28
I1
ssg14
(dp29
g14
I0
ssg15
(dp30
g16
I1
ssg8
(dp31
S'bread.n.01'
p32
I1
ssg16
(dp33
g16
I0
ssg17
(dp34
S'potato.n.01'
p35
I1
ssg11
(dp36
S'green_onion.n.01'
p37
I1
ssg18
(dp38
S'piece.n.08'
p39
I1
sssb.