ccopy_reg
_reconstructor
p0
(cutils.eval
ConfusionMatrix
p1
c__builtin__
object
p2
Ntp3
Rp4
(dp5
S'labels'
p6
(lp7
S'knife.n.01'
p8
aS'banana.n.02'
p9
aS'slice.v.03'
p10
aS'olive.n.01'
p11
aS'olive.n.04'
p12
aS'flesh.n.01'
p13
aS'human_body.n.01'
p14
aS'potato.n.01'
p15
aS'piece.n.08'
p16
aS'slice.n.06'
p17
aS'lemon.n.01'
p18
aS'pizza.n.01'
p19
asS'instanceCount'
p20
I15
sS'matrix'
p21
(dp22
g10
(dp23
S'slice.v.03'
p24
I6
ssg11
(dp25
g12
I1
ssg8
(dp26
S'knife.n.01'
p27
I1
ssg9
(dp28
S'banana.n.02'
p29
I1
ssg13
(dp30
g14
I1
ssg12
(dp31
g12
I0
ssg17
(dp32
g17
I0
ssg19
(dp33
S'pizza.n.01'
p34
I1
ssg14
(dp35
g14
I0
ssg18
(dp36
S'lemon.n.01'
p37
I1
ssg15
(dp38
S'potato.n.01'
p39
I1
ssg16
(dp40
S'piece.n.08'
p41
I1
sg17
I1
sssb.