ccopy_reg
_reconstructor
p0
(cutils.eval
ConfusionMatrix
p1
c__builtin__
object
p2
Ntp3
Rp4
(dp5
S'labels'
p6
(lp7
S'slice.v.03'
p8
aS'lemon.n.01'
p9
aS'piece.n.08'
p10
aS'pizza.n.01'
p11
aS'mushroom.n.05'
p12
aS'tomato.n.01'
p13
aS'knife.n.01'
p14
aS'cheese.n.01'
p15
aS'bacon.n.01'
p16
asS'instanceCount'
p17
I14
sS'matrix'
p18
(dp19
g12
(dp20
S'mushroom.n.05'
p21
I1
ssg8
(dp22
S'slice.v.03'
p23
I6
ssg14
(dp24
S'knife.n.01'
p25
I1
ssg15
(dp26
S'cheese.n.01'
p27
I1
ssg13
(dp28
S'tomato.n.01'
p29
I1
ssg16
(dp30
S'bacon.n.01'
p31
I1
ssg11
(dp32
S'pizza.n.01'
p33
I1
ssg9
(dp34
S'lemon.n.01'
p35
I1
ssg10
(dp36
S'piece.n.08'
p37
I1
sssb.