ccopy_reg
_reconstructor
p0
(cutils.eval
ConfusionMatrix
p1
c__builtin__
object
p2
Ntp3
Rp4
(dp5
S'labels'
p6
(lp7
S'slice.v.03'
p8
aS'mushroom.n.05'
p9
aS'tomato.n.01'
p10
aS'knife.n.01'
p11
aS'cheese.n.01'
p12
aS'bacon.n.01'
p13
aS'egg.n.02'
p14
aS'piece.n.08'
p15
aS'zucchini.n.01'
p16
aS'zucchini.n.02'
p17
asS'instanceCount'
p18
I14
sS'matrix'
p19
(dp20
g9
(dp21
S'mushroom.n.05'
p22
I1
ssg8
(dp23
S'slice.v.03'
p24
I6
ssg11
(dp25
S'knife.n.01'
p26
I1
ssg12
(dp27
S'cheese.n.01'
p28
I1
ssg14
(dp29
S'egg.n.02'
p30
I1
ssg10
(dp31
S'tomato.n.01'
p32
I1
ssg13
(dp33
S'bacon.n.01'
p34
I1
ssg17
(dp35
g17
I0
ssg16
(dp36
g17
I1
ssg15
(dp37
S'piece.n.08'
p38
I1
sssb.