ccopy_reg
_reconstructor
p0
(cutils.eval
ConfusionMatrix
p1
c__builtin__
object
p2
Ntp3
Rp4
(dp5
S'labels'
p6
(lp7
S'put.v.01'
p8
aS'pan.n.03'
p9
aS'pizza.n.01'
p10
aS'onion.n.01'
p11
aS'onion.n.03'
p12
aS'beef.n.02'
p13
aS'plate.n.04'
p14
aS'plate.n.08'
p15
aS'chicken.n.01'
p16
aS'cake.n.03'
p17
aS'patty.n.01'
p18
aS'whipped_cream.n.01'
p19
asS'instanceCount'
p20
I13
sS'matrix'
p21
(dp22
g9
(dp23
S'pan.n.03'
p24
I2
ssg15
(dp25
g15
I0
ssg13
(dp26
S'beef.n.02'
p27
I1
ssg14
(dp28
g15
I1
ssg8
(dp29
S'put.v.01'
p30
I4
ssg10
(dp31
S'pizza.n.01'
p32
I1
ssg19
(dp33
S'whipped_cream.n.01'
p34
I1
ssg17
(dp35
g18
I1
ssg16
(dp36
S'chicken.n.01'
p37
I1
ssg18
(dp38
g18
I0
ssg11
(dp39
g12
I1
ssg12
(dp40
g12
I0
sssb.