ccopy_reg
_reconstructor
p0
(cutils.eval
ConfusionMatrix
p1
c__builtin__
object
p2
Ntp3
Rp4
(dp5
S'labels'
p6
(lp7
S'put.v.01'
p8
aS'onion.n.01'
p9
aS'beef.n.02'
p10
aS'plate.n.04'
p11
aS'plate.n.08'
p12
aS'invest.v.01'
p13
aS'pan.n.03'
p14
aS'chicken.n.01'
p15
aS'cake.n.03'
p16
aS'patty.n.01'
p17
aS'whipped_cream.n.01'
p18
aS'pepper.n.03'
p19
aS'salt.n.02'
p20
aS'egg.n.02'
p21
aS'egg.n.01'
p22
asS'instanceCount'
p23
I14
sS'matrix'
p24
(dp25
g13
(dp26
g13
I0
ssg14
(dp27
S'pan.n.03'
p28
I1
ssg12
(dp29
g12
I0
ssg10
(dp30
S'beef.n.02'
p31
I1
ssg11
(dp32
g12
I1
ssg21
(dp33
g22
I1
ssg22
(dp34
g22
I0
ssg8
(dp35
g13
I1
sS'put.v.01'
p36
I3
ssg17
(dp37
g17
I0
ssg18
(dp38
S'whipped_cream.n.01'
p39
I1
ssg16
(dp40
g17
I1
ssg19
(dp41
S'pepper.n.03'
p42
I1
ssg15
(dp43
S'chicken.n.01'
p44
I1
ssg9
(dp45
S'onion.n.01'
p46
I1
ssg20
(dp47
S'salt.n.02'
p48
I1
sssb.