ccopy_reg
_reconstructor
p0
(cutils.eval
ConfusionMatrix
p1
c__builtin__
object
p2
Ntp3
Rp4
(dp5
S'labels'
p6
(lp7
S'put.v.01'
p8
aS'cake.n.03'
p9
aS'whipped_cream.n.01'
p10
aS'pepper.n.03'
p11
aS'pepper.n.04'
p12
aS'salt.n.02'
p13
aS'salt.n.04'
p14
aS'egg.n.02'
p15
aS'egg.n.01'
p16
aS'pan.n.03'
p17
aS'pizza.n.01'
p18
aS'onion.n.01'
p19
aS'onion.n.03'
p20
aS'beef.n.02'
p21
aS'plate.n.04'
p22
aS'plate.n.13'
p23
asS'instanceCount'
p24
I14
sS'matrix'
p25
(dp26
g23
(dp27
g23
I0
ssg13
(dp28
g14
I1
ssg17
(dp29
S'pan.n.03'
p30
I1
ssg14
(dp31
g14
I0
ssg22
(dp32
g23
I1
ssg12
(dp33
g12
I0
ssg16
(dp34
g16
I0
ssg21
(dp35
S'beef.n.02'
p36
I1
ssg11
(dp37
g12
I1
ssg18
(dp38
S'pizza.n.01'
p39
I1
ssg10
(dp40
S'whipped_cream.n.01'
p41
I1
ssg9
(dp42
S'cake.n.03'
p43
I1
ssg8
(dp44
S'put.v.01'
p45
I4
ssg15
(dp46
g16
I1
ssg19
(dp47
g20
I1
ssg20
(dp48
g20
I0
sssb.