ccopy_reg
_reconstructor
p0
(cutils.eval
ConfusionMatrix
p1
c__builtin__
object
p2
Ntp3
Rp4
(dp5
S'labels'
p6
(lp7
S'add.v.01'
p8
aS'salt.n.02'
p9
aS'meat.n.01'
p10
aS'egg.n.02'
p11
aS'pan.n.03'
p12
aS'butter.n.01'
p13
aS'vanilla.n.02'
p14
aS'vanilla.n.03'
p15
aS'dressing.n.01'
p16
aS'dressing.n.04'
p17
aS'salad.n.01'
p18
asS'instanceCount'
p19
I12
sS'matrix'
p20
(dp21
g9
(dp22
S'salt.n.02'
p23
I1
ssg12
(dp24
S'pan.n.03'
p25
I1
ssg11
(dp26
S'egg.n.02'
p27
I1
ssg13
(dp28
S'butter.n.01'
p29
I1
ssg16
(dp30
g17
I1
ssg10
(dp31
S'meat.n.01'
p32
I1
ssg15
(dp33
g15
I0
ssg14
(dp34
g15
I1
ssg18
(dp35
S'salad.n.01'
p36
I1
ssg8
(dp37
S'add.v.01'
p38
I4
ssg17
(dp39
g17
I0
sssb.