ccopy_reg
_reconstructor
p0
(cutils.eval
ConfusionMatrix
p1
c__builtin__
object
p2
Ntp3
Rp4
(dp5
S'labels'
p6
(lp7
S'pot.n.01'
p8
aS'pot.n.04'
p9
aS'add.v.01'
p10
aS'bean.n.01'
p11
aS'sauce.n.01'
p12
aS'cream.n.02'
p13
aS'cream.n.03'
p14
aS'salt.n.02'
p15
aS'meat.n.01'
p16
aS'egg.n.02'
p17
aS'pan.n.03'
p18
aS'butter.n.01'
p19
aS'vanilla.n.02'
p20
aS'vanilla.n.03'
p21
aS'dressing.n.01'
p22
aS'dressing.n.04'
p23
aS'salad.n.01'
p24
aS'ingredient.n.03'
p25
aS'concoction.n.01'
p26
aS'mixture.n.01'
p27
aS'mixing_bowl.n.01'
p28
aS'onion.n.03'
p29
aS'asparagus.n.02'
p30
aS'french_fries.n.01'
p31
aS'steak.n.01'
p32
aS'vegetable.n.01'
p33
aS'rib.n.03'
p34
aS'mix.n.03'
p35
aS'corn.n.03'
p36
aS'dish.n.02'
p37
aS'dish.n.01'
p38
aS'sugar.n.01'
p39
aS'apple.n.01'
p40
aS'milk.n.01'
p41
aS'milk.n.04'
p42
aS'water.n.06'
p43
aS'water_system.n.02'
p44
asS'instanceCount'
p45
I114
sS'matrix'
p46
(dp47
g36
(dp48
g36
I2
sS'egg.n.02'
p49
I0
sS'butter.n.01'
p50
I0
sS'mixing_bowl.n.01'
p51
I0
sS'pan.n.03'
p52
I0
sg37
I0
sg38
I0
sg40
I0
sS'add.v.01'
p53
I0
sS'onion.n.03'
p54
I0
sg39
I0
ssg28
(dp55
g36
I0
sg28
I4
sg50
I0
sg27
I0
sS'cream.n.02'
p56
I0
sg25
I0
sg52
I0
sS'cream.n.03'
p57
I0
sg37
I0
sg38
I0
sS'egg.n.02'
p58
I0
sg40
I0
sg26
I0
sS'add.v.01'
p59
I0
sg29
I0
sg39
I0
ssg35
(dp60
g33
I0
sg34
I0
sS'cream.n.02'
p61
I0
sS'ingredient.n.03'
p62
I0
sS'cream.n.03'
p63
I0
sg35
I0
sS'concoction.n.01'
p64
I0
sS'add.v.01'
p65
I0
ssg37
(dp66
g36
I0
sg49
I0
sg50
I0
sg51
I0
sg52
I0
sg37
I0
sg38
I2
sg40
I0
sg53
I0
sg54
I0
sg39
I0
ssg38
(dp67
g36
I0
sg49
I0
sg50
I0
sg51
I0
sg52
I0
sg37
I0
sg38
I0
sg40
I0
sg53
I0
sg54
I0
sg39
I0
ssg42
(dp68
S'pan.n.03'
p69
I0
sS'salad.n.01'
p70
I0
sS'butter.n.01'
p71
I0
sg44
I0
sg43
I0
sS'asparagus.n.02'
p72
I0
sS'steak.n.01'
p73
I0
sS'french_fries.n.01'
p74
I0
sS'vanilla.n.02'
p75
I0
sg42
I0
sS'apple.n.01'
p76
I0
sS'add.v.01'
p77
I0
sg41
I0
ssg40
(dp78
S'corn.n.03'
p79
I0
sg44
I0
sS'butter.n.01'
p80
I0
sS'mixing_bowl.n.01'
p81
I0
sg52
I0
sg43
I0
sS'dish.n.02'
p82
I0
sS'dish.n.01'
p83
I0
sg75
I0
sg42
I0
sg40
I2
sS'add.v.01'
p84
I0
sg41
I0
sS'sugar.n.01'
p85
I0
ssg10
(dp86
g36
I0
sg28
I0
sg35
I0
sg37
I0
sg38
I0
sg42
I0
sg40
I0
sg10
I40
sg41
I0
sg18
I0
sg17
I0
sg19
I0
sg8
I0
sg30
I0
sg16
I0
sg21
I0
sg20
I0
sg11
I0
sg26
I0
sg12
I0
sg15
I0
sg34
I0
sg27
I0
sg13
I0
sg25
I0
sg14
I0
sg32
I0
sg33
I0
sg23
I0
sg44
I0
sg43
I0
sg22
I0
sg31
I0
sg9
I0
sg24
I0
sg29
I0
sg39
I0
ssg41
(dp87
g69
I0
sg70
I0
sg71
I0
sg44
I0
sg43
I0
sg72
I0
sg73
I0
sg74
I0
sg75
I0
sg42
I2
sg76
I0
sg77
I0
sg41
I0
ssg18
(dp88
g79
I0
sg81
I0
sg82
I0
sg83
I0
sg42
I0
sg40
I0
sS'add.v.01'
p89
I0
sg41
I0
sg18
I6
sS'egg.n.02'
p90
I0
sg19
I0
sg72
I0
sS'meat.n.01'
p91
I0
sg21
I0
sg20
I0
sS'salt.n.02'
p92
I0
sS'rib.n.03'
p93
I0
sg73
I0
sS'vegetable.n.01'
p94
I0
sg23
I0
sg44
I0
sg43
I0
sg22
I0
sg74
I0
sg24
I0
sg85
I0
ssg9
(dp95
g15
I0
sg9
I0
sg8
I0
sg14
I0
sg30
I0
sg32
I0
sg13
I0
sg16
I0
sg31
I0
sg17
I0
sg11
I0
sg10
I0
sS'salad.n.01'
p96
I0
sg12
I0
ssg19
(dp97
g36
I0
sg51
I0
sg37
I0
sg38
I0
sg42
I0
sg40
I0
sg89
I0
sg41
I0
sg18
I0
sg90
I0
sg19
I6
sg91
I0
sg21
I0
sg20
I0
sg92
I0
sg93
I0
sg94
I0
sg23
I0
sg44
I0
sg43
I0
sg22
I0
sg24
I0
sg54
I0
sg39
I0
ssg8
(dp98
g15
I0
sg9
I2
sg8
I0
sg14
I0
sg30
I0
sg32
I0
sg13
I0
sg16
I0
sg31
I0
sg17
I0
sg11
I0
sg10
I0
sg96
I0
sg12
I0
ssg30
(dp99
S'pan.n.03'
p100
I0
sS'water_system.n.02'
p101
I0
sg96
I0
sS'vanilla.n.02'
p102
I0
sS'pot.n.01'
p103
I0
sS'cream.n.03'
p104
I0
sS'water.n.06'
p105
I0
sg30
I2
sS'milk.n.04'
p106
I0
sg32
I0
sS'cream.n.02'
p107
I0
sg31
I0
sS'pot.n.04'
p108
I0
sS'bean.n.01'
p109
I0
sS'add.v.01'
p110
I0
sS'milk.n.01'
p111
I0
sS'sauce.n.01'
p112
I0
ssg16
(dp113
g15
I0
sg18
I0
sg9
I0
sg19
I0
sg20
I0
sg8
I0
sg14
I0
sg22
I0
sg13
I0
sg16
I2
sg21
I0
sg17
I0
sg11
I0
sg24
I0
sg10
I0
sg23
I0
sg12
I0
ssg21
(dp114
g92
I0
sg18
I0
sg93
I0
sg90
I0
sg19
I0
sg94
I0
sg22
I0
sg91
I0
sg21
I0
sg20
I0
sg24
I0
sg89
I0
sg23
I0
ssg20
(dp115
g93
I0
sg92
I0
sg18
I0
sg74
I0
sg72
I0
sg41
I0
sg90
I0
sg19
I0
sg44
I0
sg43
I0
sg22
I0
sg94
I0
sg42
I0
sg73
I0
sg91
I0
sg21
I2
sg20
I2
sg76
I0
sg24
I0
sg89
I0
sg23
I0
ssg11
(dp116
g15
I0
sg9
I0
sg8
I0
sg14
I0
sg30
I0
sg32
I0
sg13
I0
sg16
I0
sg31
I0
sg17
I0
sg11
I2
sg10
I0
sg96
I0
sg12
I0
ssg26
(dp117
g33
I0
sg28
I0
sg34
I0
sg58
I0
sg27
I1
sg56
I0
sg25
I0
sg57
I0
sg35
I1
sg26
I0
sg59
I0
sg29
I0
ssg12
(dp118
g15
I0
sg9
I0
sg8
I0
sg14
I0
sg30
I0
sg32
I0
sg13
I0
sg16
I0
sg31
I0
sg17
I0
sg11
I0
sg10
I0
sg96
I0
sg12
I2
ssg15
(dp119
g15
I2
sg18
I0
sg9
I0
sg19
I0
sg20
I0
sg8
I0
sg14
I0
sg22
I0
sg13
I0
sg16
I0
sg21
I0
sg17
I0
sg11
I0
sg24
I0
sg10
I0
sg23
I0
sg12
I0
ssg34
(dp120
S'dressing.n.04'
p121
I0
sg33
I0
sg34
I2
sS'salad.n.01'
p122
I0
sS'butter.n.01'
p123
I0
sS'pan.n.03'
p124
I0
sg61
I0
sg62
I0
sg63
I0
sS'vanilla.n.03'
p125
I0
sg35
I0
sg64
I0
sS'dressing.n.01'
p126
I0
sg65
I0
sS'vanilla.n.02'
p127
I0
ssg27
(dp128
g28
I0
sg58
I0
sg27
I0
sg56
I0
sg25
I0
sg57
I0
sg26
I0
sg59
I0
sg29
I0
ssg13
(dp129
g28
I0
sg10
I0
sg9
I0
sg17
I0
sg8
I0
sg30
I0
sg16
I0
sg11
I0
sg26
I0
sg12
I0
sg15
I0
sg34
I0
sg27
I0
sg13
I0
sg14
I4
sg25
I0
sg32
I0
sg33
I0
sg31
I0
sg35
I0
sg96
I0
sg29
I0
ssg25
(dp130
g33
I0
sg28
I0
sg34
I0
sg58
I0
sg27
I0
sg56
I0
sg25
I4
sg57
I0
sg35
I0
sg26
I0
sg59
I0
sg29
I0
ssg14
(dp131
g28
I0
sg35
I0
sg10
I0
sg9
I0
sg8
I0
sg30
I0
sg16
I0
sg11
I0
sg26
I0
sg12
I0
sg15
I0
sg34
I0
sg27
I0
sg13
I0
sg14
I0
sg25
I0
sg32
I0
sg33
I0
sg31
I0
sg17
I0
sg96
I0
sg29
I0
ssg32
(dp132
g100
I0
sg101
I0
sg96
I0
sg102
I0
sg103
I0
sg104
I0
sg105
I0
sg30
I0
sg106
I0
sg32
I2
sg107
I0
sg31
I0
sg108
I0
sg109
I0
sg110
I0
sg111
I0
sg112
I0
ssg33
(dp133
g121
I0
sg33
I2
sg34
I0
sg122
I0
sg123
I0
sg124
I0
sg61
I0
sg62
I0
sg63
I0
sg125
I0
sg35
I0
sg64
I0
sg126
I0
sg65
I0
sg127
I0
ssg23
(dp134
g92
I0
sg18
I0
sg93
I0
sg90
I0
sg23
I0
sg94
I0
sg22
I0
sg91
I0
sg21
I0
sg20
I0
sg24
I0
sg89
I0
sg19
I0
ssg44
(dp135
g69
I0
sg70
I0
sg71
I0
sg44
I0
sg43
I0
sg72
I0
sg73
I0
sg74
I0
sg75
I0
sg42
I0
sg76
I0
sg77
I0
sg41
I0
ssg43
(dp136
g69
I0
sg70
I0
sg71
I0
sg44
I2
sg43
I0
sg72
I0
sg73
I0
sg74
I0
sg75
I0
sg42
I0
sg76
I0
sg77
I0
sg41
I0
ssg22
(dp137
g92
I0
sg18
I0
sg93
I0
sg90
I0
sg19
I0
sg94
I0
sg22
I0
sg91
I0
sg21
I0
sg20
I0
sg24
I0
sg89
I0
sg23
I2
ssg31
(dp138
g100
I0
sg101
I0
sg96
I0
sg102
I0
sg103
I0
sg104
I0
sg105
I0
sg30
I0
sg106
I0
sg32
I0
sg107
I0
sg31
I2
sg108
I0
sg109
I0
sg110
I0
sg111
I0
sg112
I0
ssg17
(dp139
g36
I0
sg28
I0
sg37
I0
sg38
I0
sg10
I0
sg18
I0
sg17
I4
sg19
I0
sg8
I0
sg16
I0
sg21
I0
sg20
I0
sg11
I0
sg26
I0
sg12
I0
sg15
I0
sg27
I0
sg13
I0
sg25
I0
sg14
I0
sg23
I0
sg22
I0
sg9
I0
sg24
I0
sg29
I0
sg39
I0
ssg24
(dp140
g106
I0
sg89
I0
sg111
I0
sg18
I0
sg90
I0
sg19
I0
sg103
I0
sg30
I0
sg91
I0
sg21
I0
sg20
I0
sg109
I0
sg112
I0
sg92
I0
sg93
I0
sg107
I0
sg104
I0
sg32
I0
sg94
I0
sg23
I0
sg101
I0
sg105
I0
sg22
I0
sg31
I0
sg108
I0
sg24
I4
ssg29
(dp141
g36
I0
sg28
I0
sg58
I0
sg50
I0
sg27
I0
sg56
I0
sg25
I0
sg57
I0
sg37
I0
sg38
I0
sg26
I0
sg59
I0
sg29
I2
sg39
I0
ssg39
(dp142
g36
I0
sg49
I0
sg50
I0
sg51
I0
sg52
I0
sg37
I0
sg38
I0
sg40
I0
sg53
I0
sg54
I0
sg39
I2
sssb.