ccopy_reg
_reconstructor
p0
(cutils.eval
ConfusionMatrix
p1
c__builtin__
object
p2
Ntp3
Rp4
(dp5
S'labels'
p6
(lp7
S'ObjectToBeCutted'
p8
aS'Piece'
p9
aS'ActionCause'
p10
aS'CuttingTool'
p11
asS'instanceCount'
p12
I7
sS'matrix'
p13
(dp14
g10
(dp15
S'ActionCause'
p16
I2
ssg11
(dp17
S'CuttingTool'
p18
I1
ssg9
(dp19
S'Piece'
p20
I2
ssg8
(dp21
S'ObjectToBeCutted'
p22
I2
sssb.