ccopy_reg
_reconstructor
p0
(cutils.eval
ConfusionMatrix
p1
c__builtin__
object
p2
Ntp3
Rp4
(dp5
S'labels'
p6
(lp7
S'ObjectToBeCutted'
p8
aS'ActionCause'
p9
aS'Piece'
p10
aS'CuttingTool'
p11
asS'instanceCount'
p12
I65
sS'matrix'
p13
(dp14
g9
(dp15
g9
I25
sg11
I0
sg10
I0
sg8
I0
ssg11
(dp16
g9
I0
sg11
I8
sg10
I0
sg8
I1
ssg10
(dp17
g9
I0
sg11
I0
sg10
I6
sg8
I0
ssg8
(dp18
g9
I0
sg11
I0
sg10
I0
sg8
I25
sssb.