(dp0
S'engine'
p1
S'internal'
p2
sS'params1'
p3
S'optimizer="bfgs",bounds=(0,100)'
p4
sS'run'
p5
I00
sS'method1'
p6
S'pseudo-log-likelihood with blocking, memory-efficient'
p7
sS'geometry'
p8
S'982x1025+673+89'
p9
sS'db'
p10
S''
p11
sS'priorStdDev'
p12
S'100'
p13
sS'mln'
p14
S'senses.mln'
p15
sS'output_filename'
p16
S'mln-old.bfgs.learned.mln'
p17
sS'pattern'
p18
S'db-old/*.db'
p19
sS'addUnitClauses'
p20
I0
sS'nePreds'
p21
g11
sS'usePrior'
p22
I1
s.