ccopy_reg
_reconstructor
p0
(cutils.eval
ConfusionMatrix
p1
c__builtin__
object
p2
Ntp3
Rp4
(dp5
S'labels'
p6
(lp7
S'add.v.01'
p8
aS'corn.n.03'
p9
aS'dish.n.02'
p10
aS'dish.n.01'
p11
aS'egg.n.02'
p12
aS'apple.n.01'
p13
aS'mixing_bowl.n.01'
p14
aS'butter.n.01'
p15
aS'sugar.n.01'
p16
aS'milk.n.01'
p17
aS'milk.n.04'
p18
aS'water.n.06'
p19
aS'dressing.n.01'
p20
aS'stuffing.n.01'
p21
aS'salad.n.01'
p22
asS'instanceCount'
p23
I17
sS'matrix'
p24
(dp25
g9
(dp26
S'corn.n.03'
p27
I1
ssg12
(dp28
S'egg.n.02'
p29
I1
ssg15
(dp30
S'butter.n.01'
p31
I1
ssg14
(dp32
S'mixing_bowl.n.01'
p33
I1
ssg19
(dp34
S'water.n.06'
p35
I1
ssg22
(dp36
S'salad.n.01'
p37
I1
ssg20
(dp38
g21
I1
ssg21
(dp39
g21
I0
ssg10
(dp40
g11
I1
ssg11
(dp41
g11
I0
ssg18
(dp42
g18
I0
ssg13
(dp43
S'apple.n.01'
p44
I1
ssg8
(dp45
S'add.v.01'
p46
I6
ssg17
(dp47
g18
I1
ssg16
(dp48
S'sugar.n.01'
p49
I1
sssb.