ccopy_reg
_reconstructor
p0
(cutils.eval
ConfusionMatrix
p1
c__builtin__
object
p2
Ntp3
Rp4
(dp5
S'labels'
p6
(lp7
S'pan.n.03'
p8
aS'add.v.01'
p9
aS'vanilla.n.02'
p10
aS'pot.n.01'
p11
aS'pot.n.09'
p12
aS'bean.n.01'
p13
aS'corn.n.03'
p14
aS'dish.n.02'
p15
aS'egg.n.02'
p16
aS'apple.n.01'
p17
aS'mixing_bowl.n.01'
p18
aS'butter.n.01'
p19
aS'sugar.n.01'
p20
asS'instanceCount'
p21
I17
sS'matrix'
p22
(dp23
g8
(dp24
S'pan.n.03'
p25
I1
ssg12
(dp26
g12
I0
ssg18
(dp27
S'mixing_bowl.n.01'
p28
I1
ssg16
(dp29
S'egg.n.02'
p30
I1
ssg19
(dp31
S'butter.n.01'
p32
I1
ssg11
(dp33
g12
I1
ssg14
(dp34
S'corn.n.03'
p35
I1
ssg15
(dp36
S'dish.n.02'
p37
I1
ssg10
(dp38
S'vanilla.n.02'
p39
I1
ssg13
(dp40
S'bean.n.01'
p41
I1
ssg17
(dp42
S'apple.n.01'
p43
I1
ssg9
(dp44
S'add.v.01'
p45
I6
ssg20
(dp46
S'sugar.n.01'
p47
I1
sssb.