ccopy_reg
_reconstructor
p0
(cutils.eval
ConfusionMatrix
p1
c__builtin__
object
p2
Ntp3
Rp4
(dp5
S'labels'
p6
(lp7
S'add.v.01'
p8
aS'apple.n.01'
p9
aS'mixing_bowl.n.01'
p10
aS'butter.n.01'
p11
aS'sugar.n.01'
p12
aS'milk.n.01'
p13
aS'milk.n.04'
p14
aS'water.n.06'
p15
aS'dressing.n.01'
p16
aS'stuffing.n.01'
p17
aS'salad.n.01'
p18
aS'vegetable.n.01'
p19
aS'sauce.n.01'
p20
aS'cream.n.02'
p21
aS'water_system.n.02'
p22
aS'cream.n.03'
p23
aS'ingredient.n.03'
p24
aS'concoction.n.01'
p25
aS'onion.n.03'
p26
aS'asparagus.n.02'
p27
aS'french_fries.n.01'
p28
aS'steak.n.01'
p29
aS'pan.n.03'
p30
aS'vanilla.n.02'
p31
aS'flour.n.01'
p32
aS'egg.n.02'
p33
aS'corn.n.03'
p34
aS'dish.n.02'
p35
aS'dish.n.01'
p36
aS'salt.n.02'
p37
aS'meat.n.01'
p38
aS'rib.n.03'
p39
aS'pot.n.01'
p40
aS'pot.n.09'
p41
aS'bean.n.01'
p42
asS'instanceCount'
p43
I174
sS'matrix'
p44
(dp45
g34
(dp46
g34
I3
sS'mixing_bowl.n.01'
p47
I0
sg35
I0
sg36
I0
sS'milk.n.04'
p48
I0
sS'apple.n.01'
p49
I0
sS'add.v.01'
p50
I0
sS'milk.n.01'
p51
I0
sS'pan.n.03'
p52
I0
sS'pot.n.09'
p53
I0
sS'egg.n.02'
p54
I0
sS'butter.n.01'
p55
I0
sS'pot.n.01'
p56
I0
sS'meat.n.01'
p57
I0
sS'vanilla.n.02'
p58
I0
sS'bean.n.01'
p59
I0
sS'salt.n.02'
p60
I0
sS'rib.n.03'
p61
I0
sS'stuffing.n.01'
p62
I0
sS'water.n.06'
p63
I0
sS'dressing.n.01'
p64
I0
sS'salad.n.01'
p65
I0
sS'sugar.n.01'
p66
I0
ssg10
(dp67
g34
I0
sg10
I6
sg35
I0
sg36
I0
sg14
I0
sg9
I0
sg8
I0
sg13
I0
sg30
I0
sg41
I0
sg32
I0
sg33
I0
sg11
I0
sg40
I0
sg27
I0
sg38
I0
sg31
I0
sg42
I0
sg20
I0
sg37
I0
sg39
I0
sg21
I0
sS'ingredient.n.03'
p68
I0
sg29
I0
sg17
I0
sg19
I0
sg15
I0
sg16
I0
sg28
I0
sg18
I0
sg12
I0
ssg35
(dp69
g34
I0
sg47
I0
sg35
I1
sg36
I2
sg48
I0
sg49
I0
sg50
I0
sg51
I0
sg52
I0
sg53
I0
sg54
I0
sg55
I0
sg56
I0
sg57
I0
sg58
I0
sg59
I0
sg60
I0
sg61
I0
sg62
I0
sg63
I0
sg64
I0
sg65
I0
sg66
I0
ssg36
(dp70
g34
I0
sg47
I0
sg35
I0
sg36
I0
sg48
I0
sg49
I0
sg50
I0
sg51
I0
sg52
I0
sg53
I0
sg54
I0
sg55
I0
sg56
I0
sg57
I0
sg58
I0
sg59
I0
sg60
I0
sg61
I0
sg62
I0
sg63
I0
sg64
I0
sg65
I0
sg66
I0
ssg14
(dp71
g34
I0
sg10
I0
sg35
I0
sg36
I0
sg14
I0
sg9
I0
sg8
I0
sg13
I0
sg54
I0
sg11
I0
sg25
I0
sg20
I0
sg21
I0
sg24
I0
sg23
I0
sg17
I0
sg19
I0
sg22
I0
sg15
I0
sg16
I0
sg18
I0
sg26
I0
sg12
I0
ssg9
(dp72
g34
I0
sg10
I0
sg35
I0
sg36
I0
sg14
I0
sg9
I3
sg8
I0
sg13
I0
sS'pan.n.03'
p73
I0
sS'pot.n.09'
p74
I0
sg54
I0
sg11
I0
sS'pot.n.01'
p75
I0
sS'vanilla.n.02'
p76
I0
sS'bean.n.01'
p77
I0
sg20
I0
sg21
I0
sg17
I0
sg19
I0
sg15
I0
sg16
I0
sg18
I0
sg12
I0
ssg8
(dp78
g34
I0
sg10
I0
sg35
I0
sg36
I0
sg14
I0
sg9
I0
sg8
I60
sg13
I0
sg30
I0
sg41
I0
sg32
I0
sg33
I0
sg11
I0
sg40
I0
sg27
I0
sg38
I0
sg31
I0
sg42
I0
sg25
I0
sg20
I0
sg37
I0
sg39
I0
sg21
I0
sg24
I0
sg23
I0
sg29
I0
sg17
I0
sg19
I0
sg22
I0
sg15
I0
sg16
I0
sg28
I0
sg18
I0
sg26
I0
sg12
I0
ssg13
(dp79
g34
I0
sg10
I0
sg35
I0
sg36
I0
sg14
I3
sg9
I0
sg8
I0
sg13
I0
sg54
I0
sg11
I0
sg25
I0
sg20
I0
sg21
I0
sg24
I0
sg23
I0
sg17
I0
sg19
I0
sg22
I0
sg15
I0
sg16
I0
sg18
I0
sg26
I0
sg12
I0
ssg30
(dp80
S'corn.n.03'
p81
I0
sS'mixing_bowl.n.01'
p82
I0
sS'dish.n.02'
p83
I0
sS'dish.n.01'
p84
I0
sS'apple.n.01'
p85
I0
sS'add.v.01'
p86
I0
sg30
I9
sg41
I0
sg32
I0
sg33
I0
sS'butter.n.01'
p87
I0
sg40
I0
sg27
I0
sg38
I0
sg31
I0
sg42
I0
sS'concoction.n.01'
p88
I0
sg37
I0
sg39
I0
sS'cream.n.02'
p89
I0
sg68
I0
sS'cream.n.03'
p90
I0
sg29
I0
sg28
I0
sS'salad.n.01'
p91
I0
sS'onion.n.03'
p92
I0
sS'sugar.n.01'
p93
I0
ssg41
(dp94
S'salt.n.02'
p95
I0
sS'pan.n.03'
p96
I0
sg41
I0
sS'flour.n.01'
p97
I0
sS'rib.n.03'
p98
I0
sS'egg.n.02'
p99
I0
sS'butter.n.01'
p100
I0
sS'mixing_bowl.n.01'
p101
I0
sg81
I0
sg40
I0
sS'meat.n.01'
p102
I0
sg84
I0
sS'vanilla.n.02'
p103
I0
sg42
I0
sg85
I0
sg93
I0
sS'add.v.01'
p104
I0
sg83
I0
ssg32
(dp105
g33
I0
sg30
I0
sg41
I0
sg32
I3
sg37
I0
sg39
I0
sg91
I0
sg87
I0
sg82
I0
sg68
I0
sg40
I0
sg27
I0
sg29
I0
sg38
I0
sg28
I0
sg31
I0
sg42
I0
sg86
I0
ssg33
(dp106
g34
I0
sg82
I0
sg35
I0
sg36
I0
sg48
I0
sg49
I0
sg86
I0
sg51
I0
sg30
I0
sg41
I0
sg32
I0
sg33
I6
sg87
I0
sg40
I0
sg27
I0
sg38
I0
sg31
I0
sg42
I0
sg37
I0
sg39
I0
sg68
I0
sg29
I0
sg62
I0
sg63
I0
sg64
I0
sg28
I0
sg91
I0
sg66
I0
ssg11
(dp107
g34
I0
sg10
I0
sg35
I0
sg36
I0
sg14
I0
sg9
I0
sg8
I0
sg13
I0
sg30
I0
sg41
I0
sg32
I0
sg33
I0
sg11
I9
sg40
I0
sg27
I0
sg38
I0
sg31
I0
sg42
I0
sg88
I0
sg20
I0
sg37
I0
sg39
I0
sg21
I0
sg68
I0
sg90
I0
sg29
I0
sg17
I0
sg19
I0
sg15
I0
sg16
I0
sg28
I0
sg18
I0
sg92
I0
sg12
I0
ssg40
(dp108
g95
I0
sg96
I0
sg41
I3
sg97
I0
sg98
I0
sg101
I0
sg100
I0
sg103
I0
sg40
I0
sg81
I0
sg102
I0
sg84
I0
sg99
I0
sg42
I0
sg85
I0
sg93
I0
sg104
I0
sg83
I0
ssg27
(dp109
g33
I0
sg30
I0
sg32
I0
sS'sauce.n.01'
p110
I0
sg91
I0
sg87
I0
sg82
I0
sg68
I0
sg90
I0
sg27
I3
sg29
I0
sg89
I0
sS'vegetable.n.01'
p111
I0
sg28
I0
sg31
I0
sg88
I0
sg86
I0
sg92
I0
ssg38
(dp112
g37
I0
sS'pan.n.03'
p113
I0
sg41
I0
sS'flour.n.01'
p114
I0
sg39
I0
sS'egg.n.02'
p115
I0
sS'butter.n.01'
p116
I0
sS'mixing_bowl.n.01'
p117
I0
sS'ingredient.n.03'
p118
I0
sg40
I0
sg38
I3
sg84
I0
sS'vanilla.n.02'
p119
I0
sg42
I0
sg81
I0
sS'add.v.01'
p120
I0
sg83
I0
ssg31
(dp121
g81
I0
sg82
I0
sg83
I0
sg84
I0
sg85
I0
sg86
I0
sg30
I0
sg41
I0
sg32
I0
sg33
I0
sg87
I0
sg40
I0
sg27
I0
sg38
I0
sg31
I6
sg42
I0
sg88
I0
sg37
I0
sg39
I0
sg89
I0
sg68
I0
sg90
I0
sg29
I0
sg28
I0
sg91
I0
sg92
I0
sg93
I0
ssg42
(dp122
g95
I0
sg96
I0
sg41
I0
sg97
I0
sg98
I0
sg99
I0
sg100
I0
sg101
I0
sg81
I0
sg40
I0
sg102
I0
sg84
I0
sg103
I0
sg42
I3
sg85
I0
sg93
I0
sg104
I0
sg83
I0
ssg25
(dp123
S'vegetable.n.01'
p124
I0
sg24
I0
sS'asparagus.n.02'
p125
I0
sS'salad.n.01'
p126
I0
sS'butter.n.01'
p127
I0
sS'vanilla.n.02'
p128
I0
sg22
I0
sS'water.n.06'
p129
I0
sS'dressing.n.01'
p130
I0
sS'stuffing.n.01'
p131
I0
sg23
I0
sS'steak.n.01'
p132
I0
sS'cream.n.02'
p133
I0
sg26
I0
sS'french_fries.n.01'
p134
I0
sS'pan.n.03'
p135
I0
sS'milk.n.04'
p136
I0
sg25
I3
sS'add.v.01'
p137
I0
sS'milk.n.01'
p138
I0
sS'sauce.n.01'
p139
I0
ssg20
(dp140
g10
I0
sg14
I0
sg9
I0
sg8
I0
sg13
I0
sg11
I0
sS'asparagus.n.02'
p141
I0
sg25
I0
sg20
I3
sg21
I0
sg24
I0
sg23
I0
sS'steak.n.01'
p142
I0
sg17
I0
sg19
I0
sg22
I0
sg15
I0
sg16
I0
sS'french_fries.n.01'
p143
I0
sg18
I0
sg26
I0
sg12
I0
ssg37
(dp144
g37
I3
sg113
I0
sg41
I0
sg114
I0
sg39
I0
sg115
I0
sg116
I0
sg117
I0
sg118
I0
sg40
I0
sg38
I0
sg84
I0
sg119
I0
sg42
I0
sg81
I0
sg120
I0
sg83
I0
ssg39
(dp145
g37
I0
sg113
I0
sg41
I0
sg114
I0
sg39
I3
sg115
I0
sg116
I0
sg117
I0
sg118
I0
sg40
I0
sg38
I0
sg84
I0
sg119
I0
sg42
I0
sg81
I0
sg120
I0
sg83
I0
ssg21
(dp146
g10
I0
sg14
I0
sg9
I0
sg8
I0
sg13
I0
sg135
I0
sg11
I0
sg125
I0
sg128
I0
sg25
I0
sg20
I0
sg21
I2
sg24
I0
sg23
I4
sg132
I0
sg17
I0
sg19
I0
sg22
I0
sg15
I0
sg16
I0
sg134
I0
sg18
I0
sg26
I0
sg12
I0
ssg24
(dp147
g82
I0
sg136
I0
sg137
I0
sg138
I0
sg30
I0
sg32
I0
sg33
I0
sg87
I0
sg27
I0
sg38
I0
sg31
I0
sg25
I0
sg139
I0
sg37
I0
sg39
I0
sg133
I0
sg24
I6
sg23
I0
sg29
I0
sg131
I0
sg124
I0
sg22
I0
sg129
I0
sg130
I0
sg28
I0
sg126
I0
sg26
I0
ssg23
(dp148
g124
I0
sg24
I0
sg125
I0
sg126
I0
sg127
I0
sg128
I0
sg22
I0
sg129
I0
sg23
I0
sg131
I0
sg132
I0
sg133
I0
sg26
I0
sg134
I0
sg135
I0
sg136
I0
sg25
I0
sg130
I0
sg137
I0
sg138
I0
sg139
I0
ssg29
(dp149
g33
I0
sg30
I0
sg32
I0
sg110
I0
sg91
I0
sg87
I0
sg82
I0
sg68
I0
sg90
I0
sg27
I0
sg29
I3
sg89
I0
sg111
I0
sg28
I0
sg31
I0
sg88
I0
sg86
I0
sg92
I0
ssg17
(dp150
g34
I0
sg10
I0
sg35
I0
sg36
I0
sg14
I0
sg9
I0
sg8
I0
sg13
I0
sg54
I0
sg11
I0
sg25
I0
sg20
I0
sg21
I0
sg24
I0
sg23
I0
sg17
I0
sg19
I0
sg22
I0
sg15
I0
sg16
I0
sg18
I0
sg26
I0
sg12
I0
ssg19
(dp151
g10
I0
sg14
I0
sg9
I0
sg8
I0
sg13
I0
sg11
I0
sg141
I0
sg25
I0
sg20
I0
sg21
I0
sg24
I0
sg23
I0
sg142
I0
sg17
I0
sg19
I3
sg22
I0
sg15
I0
sg16
I0
sg143
I0
sg18
I0
sg26
I0
sg12
I0
ssg22
(dp152
g124
I0
sg24
I0
sg126
I0
sg22
I0
sg129
I0
sg130
I0
sg131
I0
sg23
I0
sg133
I0
sg26
I0
sg136
I0
sg25
I0
sg137
I0
sg138
I0
sg139
I0
ssg15
(dp153
g34
I0
sg10
I0
sg35
I0
sg36
I0
sg14
I0
sg9
I0
sg8
I0
sg13
I0
sg54
I0
sg11
I0
sg25
I0
sg20
I0
sg21
I0
sg24
I0
sg23
I0
sg17
I0
sg19
I0
sg22
I1
sg15
I2
sg16
I0
sg18
I0
sg26
I0
sg12
I0
ssg16
(dp154
g34
I0
sg10
I0
sg35
I0
sg36
I0
sg14
I0
sg9
I0
sg8
I0
sg13
I0
sg54
I0
sg11
I0
sg25
I0
sg20
I0
sg21
I0
sg24
I0
sg23
I0
sg17
I3
sg19
I0
sg22
I0
sg15
I0
sg16
I0
sg18
I0
sg26
I0
sg12
I0
ssg28
(dp155
g33
I0
sg30
I0
sg32
I0
sg110
I0
sg91
I0
sg87
I0
sg82
I0
sg68
I0
sg90
I0
sg27
I0
sg29
I0
sg89
I0
sg111
I0
sg28
I3
sg31
I0
sg88
I0
sg86
I0
sg92
I0
ssg18
(dp156
g34
I0
sg10
I0
sg35
I0
sg36
I0
sg14
I0
sg9
I0
sg8
I0
sg13
I0
sg30
I0
sg32
I0
sg33
I0
sg11
I0
sg27
I0
sg31
I0
sg25
I0
sg20
I0
sg21
I0
sg24
I0
sg23
I0
sg29
I0
sg17
I0
sg19
I0
sg22
I0
sg15
I0
sg16
I0
sg28
I0
sg18
I6
sg26
I0
sg12
I0
ssg26
(dp157
g124
I0
sg24
I0
sg125
I0
sg126
I0
sg127
I0
sg128
I0
sg22
I0
sg129
I0
sg130
I0
sg131
I0
sg23
I0
sg132
I0
sg133
I0
sg139
I0
sg134
I0
sg135
I0
sg136
I0
sg25
I0
sg137
I0
sg138
I0
sg26
I3
ssg12
(dp158
g34
I0
sg10
I0
sg35
I0
sg36
I0
sg14
I0
sg9
I0
sg8
I0
sg13
I0
sg73
I0
sg74
I0
sg54
I0
sg11
I0
sg75
I0
sg76
I0
sg77
I0
sg20
I0
sg21
I0
sg17
I0
sg19
I0
sg15
I0
sg16
I0
sg18
I0
sg12
I3
sssb.