ccopy_reg
_reconstructor
p0
(cutils.eval
ConfusionMatrix
p1
c__builtin__
object
p2
Ntp3
Rp4
(dp5
S'labels'
p6
(lp7
S'add.v.01'
p8
aS'ingredient.n.03'
p9
aS'concoction.n.01'
p10
aS'cream.n.02'
p11
aS'cream.n.03'
p12
aS'onion.n.03'
p13
aS'asparagus.n.02'
p14
aS'salad.n.01'
p15
aS'french_fries.n.01'
p16
aS'steak.n.01'
p17
aS'pan.n.03'
p18
aS'butter.n.01'
p19
aS'vanilla.n.02'
p20
asS'instanceCount'
p21
I18
sS'matrix'
p22
(dp23
g18
(dp24
S'pan.n.03'
p25
I1
ssg15
(dp26
S'salad.n.01'
p27
I1
ssg19
(dp28
S'butter.n.01'
p29
I1
ssg11
(dp30
g12
I1
ssg9
(dp31
S'ingredient.n.03'
p32
I2
ssg12
(dp33
g12
I0
ssg14
(dp34
S'asparagus.n.02'
p35
I1
ssg17
(dp36
S'steak.n.01'
p37
I1
ssg16
(dp38
S'french_fries.n.01'
p39
I1
ssg20
(dp40
S'vanilla.n.02'
p41
I1
ssg10
(dp42
S'concoction.n.01'
p43
I1
ssg8
(dp44
S'add.v.01'
p45
I6
ssg13
(dp46
S'onion.n.03'
p47
I1
sssb.