ccopy_reg
_reconstructor
p0
(cutils.eval
ConfusionMatrix
p1
c__builtin__
object
p2
Ntp3
Rp4
(dp5
S'labels'
p6
(lp7
S'vegetable.n.01'
p8
aS'add.v.01'
p9
aS'sauce.n.01'
p10
aS'cream.n.02'
p11
aS'ingredient.n.03'
p12
aS'concoction.n.01'
p13
aS'cream.n.03'
p14
aS'onion.n.03'
p15
aS'asparagus.n.02'
p16
aS'salad.n.01'
p17
aS'french_fries.n.01'
p18
aS'steak.n.01'
p19
asS'instanceCount'
p20
I17
sS'matrix'
p21
(dp22
g8
(dp23
S'vegetable.n.01'
p24
I1
ssg17
(dp25
S'salad.n.01'
p26
I1
ssg11
(dp27
S'cream.n.02'
p28
I1
sg14
I1
ssg12
(dp29
S'ingredient.n.03'
p30
I1
ssg14
(dp31
g14
I0
ssg16
(dp32
S'asparagus.n.02'
p33
I1
ssg19
(dp34
S'steak.n.01'
p35
I1
ssg15
(dp36
S'onion.n.03'
p37
I1
ssg18
(dp38
S'french_fries.n.01'
p39
I1
ssg13
(dp40
S'concoction.n.01'
p41
I1
ssg9
(dp42
S'add.v.01'
p43
I6
ssg10
(dp44
S'sauce.n.01'
p45
I1
sssb.