ccopy_reg
_reconstructor
p0
(cutils.eval
ConfusionMatrix
p1
c__builtin__
object
p2
Ntp3
Rp4
(dp5
S'labels'
p6
(lp7
S'add.v.01'
p8
aS'flour.n.01'
p9
aS'egg.n.02'
p10
aS'mixing_bowl.n.01'
p11
aS'pan.n.03'
p12
aS'butter.n.01'
p13
aS'salt.n.02'
p14
aS'meat.n.01'
p15
aS'rib.n.03'
p16
aS'vanilla.n.02'
p17
aS'pot.n.01'
p18
aS'pot.n.09'
p19
aS'bean.n.01'
p20
asS'instanceCount'
p21
I18
sS'matrix'
p22
(dp23
g14
(dp24
S'salt.n.02'
p25
I1
ssg12
(dp26
S'pan.n.03'
p27
I2
ssg19
(dp28
g19
I0
ssg9
(dp29
S'flour.n.01'
p30
I1
ssg16
(dp31
S'rib.n.03'
p32
I1
ssg10
(dp33
S'egg.n.02'
p34
I1
ssg13
(dp35
S'butter.n.01'
p36
I1
ssg11
(dp37
S'mixing_bowl.n.01'
p38
I1
ssg18
(dp39
g19
I1
ssg15
(dp40
S'meat.n.01'
p41
I1
ssg17
(dp42
S'vanilla.n.02'
p43
I1
ssg20
(dp44
S'bean.n.01'
p45
I1
ssg8
(dp46
S'add.v.01'
p47
I6
sssb.