ccopy_reg
_reconstructor
p0
(cutils.eval
ConfusionMatrix
p1
c__builtin__
object
p2
Ntp3
Rp4
(dp5
S'labels'
p6
(lp7
S'add.v.01'
p8
aS'apple.n.01'
p9
aS'mixing_bowl.n.01'
p10
aS'butter.n.01'
p11
aS'sugar.n.01'
p12
aS'milk.n.01'
p13
aS'milk.n.04'
p14
aS'water.n.06'
p15
aS'dressing.n.01'
p16
aS'stuffing.n.01'
p17
aS'salad.n.01'
p18
aS'vegetable.n.01'
p19
aS'sauce.n.01'
p20
aS'cream.n.02'
p21
asS'instanceCount'
p22
I17
sS'matrix'
p23
(dp24
g19
(dp25
S'vegetable.n.01'
p26
I1
ssg18
(dp27
S'salad.n.01'
p28
I1
ssg11
(dp29
S'butter.n.01'
p30
I1
ssg10
(dp31
S'mixing_bowl.n.01'
p32
I1
ssg15
(dp33
S'water.n.06'
p34
I1
ssg16
(dp35
g17
I1
ssg17
(dp36
g17
I0
ssg21
(dp37
S'cream.n.02'
p38
I1
ssg14
(dp39
g14
I0
ssg9
(dp40
S'apple.n.01'
p41
I1
ssg8
(dp42
S'add.v.01'
p43
I6
ssg13
(dp44
g14
I1
ssg20
(dp45
S'sauce.n.01'
p46
I1
ssg12
(dp47
S'sugar.n.01'
p48
I1
sssb.