ccopy_reg
_reconstructor
p0
(cutils.eval
ConfusionMatrix
p1
c__builtin__
object
p2
Ntp3
Rp4
(dp5
S'labels'
p6
(lp7
S'put.v.01'
p8
aS'onion.n.01'
p9
aS'onion.n.03'
p10
aS'beef.n.02'
p11
aS'gripe.n.01'
p12
aS'plate.n.04'
p13
aS'plate.n.13'
p14
aS'blender.n.01'
p15
aS'banana.n.02'
p16
aS'spoon.n.01'
p17
aS'batter.n.02'
p18
aS'bowl.n.01'
p19
aS'bowl.n.08'
p20
aS'cherry.n.03'
p21
aS'rib.n.03'
p22
aS'rib.n.01'
p23
aS'salt.n.02'
p24
aS'french_fries.n.01'
p25
asS'instanceCount'
p26
I18
sS'matrix'
p27
(dp28
g14
(dp29
g14
I0
ssg24
(dp30
S'salt.n.02'
p31
I1
ssg21
(dp32
S'cherry.n.03'
p33
I1
ssg16
(dp34
S'banana.n.02'
p35
I1
ssg11
(dp36
g12
I1
ssg13
(dp37
g14
I1
ssg23
(dp38
g23
I0
ssg15
(dp39
S'blender.n.01'
p40
I1
ssg12
(dp41
g12
I0
ssg17
(dp42
S'spoon.n.01'
p43
I1
ssg22
(dp44
g23
I1
ssg19
(dp45
g20
I1
ssg8
(dp46
S'put.v.01'
p47
I6
ssg25
(dp48
S'french_fries.n.01'
p49
I1
ssg20
(dp50
g20
I0
ssg9
(dp51
g10
I1
ssg10
(dp52
g10
I0
ssg18
(dp53
S'batter.n.02'
p54
I1
sssb.