ccopy_reg
_reconstructor
p0
(cutils.eval
ConfusionMatrix
p1
c__builtin__
object
p2
Ntp3
Rp4
(dp5
S'labels'
p6
(lp7
S'put.v.01'
p8
aS'pan.n.03'
p9
aS'pizza.n.01'
p10
aS'chicken.n.01'
p11
aS'pepper.n.03'
p12
aS'pepper.n.04'
p13
aS'salt.n.02'
p14
aS'egg.n.02'
p15
aS'egg.n.01'
p16
aS'bowl.n.01'
p17
aS'bowl.n.08'
p18
aS'rice.n.01'
p19
aS'onion.n.01'
p20
aS'onion.n.03'
p21
aS'beef.n.02'
p22
aS'gripe.n.01'
p23
aS'plate.n.04'
p24
aS'plate.n.13'
p25
aS'blender.n.01'
p26
aS'banana.n.02'
p27
aS'spoon.n.01'
p28
aS'batter.n.02'
p29
aS'cherry.n.03'
p30
aS'rib.n.03'
p31
aS'rib.n.01'
p32
aS'french_fries.n.01'
p33
aS'steak.n.01'
p34
aS'oven.n.01'
p35
aS'dish.n.02'
p36
aS'mug.n.04'
p37
aS'microwave.n.02'
p38
aS'microwave.n.01'
p39
aS'soup.n.01'
p40
aS'salmon.n.03'
p41
aS'dressing.n.01'
p42
aS'dressing.n.04'
p43
aS'salad.n.01'
p44
aS'bowl.n.03'
p45
aS'countenance.n.03'
p46
aS'cake.n.03'
p47
aS'patty.n.01'
p48
aS'whipped_cream.n.01'
p49
aS'jam.n.01'
p50
aS'refrigerator.n.01'
p51
aS'coca_cola.n.01'
p52
aS'coke.n.01'
p53
aS'electric_refrigerator.n.01'
p54
aS'spread.n.05'
p55
aS'bread.n.01'
p56
aS'plate.n.11'
p57
asS'instanceCount'
p58
I183
sS'matrix'
p59
(dp60
g25
(dp61
g25
I0
sg53
I0
sg50
I0
sg11
I0
sg22
I0
sg40
I0
sg51
I0
sg56
I0
sg17
I0
sg29
I0
sg42
I0
sg18
I0
sg41
I0
sg9
I0
sg52
I0
sg39
I0
sg46
I0
sg38
I0
sg15
I0
sg16
I0
sg48
I0
sg28
I0
sg31
I0
sg14
I0
sg27
I0
sg24
I0
sg13
I0
sg32
I0
sg12
I0
sg55
I0
sg34
I0
sg35
I0
sg23
I0
sg37
I0
sg26
I0
sg44
I0
sg43
I0
sg19
I0
sg8
I0
sg10
I0
sg54
I0
sg49
I0
sg47
I0
sg33
I0
sg30
I0
sg20
I0
sg21
I0
sg36
I0
ssg53
(dp62
g53
I0
sS'plate.n.13'
p63
I0
sS'rice.n.01'
p64
I0
sS'chicken.n.01'
p65
I0
sS'refrigerator.n.01'
p66
I0
sg56
I0
sS'bowl.n.01'
p67
I0
sS'pizza.n.01'
p68
I0
sg52
I0
sS'salmon.n.03'
p69
I0
sS'pan.n.03'
p70
I0
sS'bowl.n.08'
p71
I0
sS'egg.n.02'
p72
I0
sS'egg.n.01'
p73
I0
sg54
I0
sS'salt.n.02'
p74
I0
sS'plate.n.04'
p75
I0
sS'pepper.n.04'
p76
I0
sS'pepper.n.03'
p77
I0
sg55
I0
sS'whipped_cream.n.01'
p78
I0
sS'patty.n.01'
p79
I0
sS'dressing.n.04'
p80
I0
sS'jam.n.01'
p81
I0
sS'put.v.01'
p82
I0
sS'dressing.n.01'
p83
I0
sS'cake.n.03'
p84
I0
sS'salad.n.01'
p85
I0
ssg57
(dp86
S'spoon.n.01'
p87
I0
sS'salt.n.02'
p88
I0
sg57
I0
sS'cherry.n.03'
p89
I0
sS'banana.n.02'
p90
I0
sS'beef.n.02'
p91
I0
sS'plate.n.04'
p92
I0
sS'egg.n.02'
p93
I0
sS'egg.n.01'
p94
I0
sS'rice.n.01'
p95
I0
sS'pepper.n.03'
p96
I0
sS'gripe.n.01'
p97
I0
sS'bowl.n.01'
p98
I0
sS'put.v.01'
p99
I0
sS'pepper.n.04'
p100
I0
sS'batter.n.02'
p101
I0
sS'bowl.n.08'
p102
I0
sS'onion.n.01'
p103
I0
sS'onion.n.03'
p104
I0
sS'blender.n.01'
p105
I0
ssg50
(dp106
S'plate.n.13'
p107
I0
sg53
I0
sS'chicken.n.01'
p108
I0
sS'soup.n.01'
p109
I0
sg51
I0
sg56
I0
sS'pizza.n.01'
p110
I0
sg52
I0
sS'salmon.n.03'
p111
I0
sS'pan.n.03'
p112
I0
sS'microwave.n.02'
p113
I0
sg54
I0
sg46
I0
sS'plate.n.04'
p114
I0
sg55
I0
sg49
I0
sg48
I0
sS'mug.n.04'
p115
I0
sS'dressing.n.04'
p116
I0
sg50
I3
sS'put.v.01'
p117
I0
sS'dressing.n.01'
p118
I0
sg47
I0
sS'salad.n.01'
p119
I0
ssg11
(dp120
g25
I0
sS'coke.n.01'
p121
I0
sS'jam.n.01'
p122
I0
sg11
I3
sg22
I0
sS'patty.n.01'
p123
I0
sS'bread.n.01'
p124
I0
sg17
I0
sS'coca_cola.n.01'
p125
I0
sg9
I0
sg18
I0
sg15
I0
sg16
I0
sS'electric_refrigerator.n.01'
p126
I0
sg14
I0
sg27
I0
sg24
I0
sg13
I0
sg12
I0
sS'spread.n.05'
p127
I0
sS'whipped_cream.n.01'
p128
I0
sg23
I0
sg26
I0
sg19
I0
sg8
I0
sg10
I0
sS'cake.n.03'
p129
I0
sg20
I0
sg21
I0
sS'refrigerator.n.01'
p130
I0
ssg22
(dp131
g25
I0
sg57
I0
sg11
I0
sg22
I0
sg17
I0
sg29
I0
sg18
I0
sg9
I0
sg15
I0
sg16
I0
sg28
I0
sg31
I0
sg14
I0
sg27
I0
sg24
I0
sg13
I0
sg32
I0
sg12
I0
sg23
I3
sg26
I0
sg19
I0
sg8
I0
sg10
I0
sg33
I0
sg30
I0
sg20
I0
sg21
I0
ssg40
(dp132
S'plate.n.13'
p133
I0
sg40
I3
sg51
I0
sg36
I0
sg41
I0
sg39
I0
sg38
I0
sg48
I0
sS'rib.n.03'
p134
I0
sS'salt.n.02'
p135
I0
sg46
I0
sS'plate.n.04'
p136
I0
sS'rib.n.01'
p137
I0
sg34
I0
sg35
I0
sg37
I0
sg43
I0
sg50
I0
sS'put.v.01'
p138
I0
sg42
I0
sg49
I0
sg47
I0
sS'french_fries.n.01'
p139
I0
sg44
I0
ssg51
(dp140
g107
I0
sg53
I0
sg108
I0
sg109
I0
sg51
I3
sg56
I0
sg110
I0
sg52
I0
sg111
I0
sg112
I0
sg113
I0
sg54
I0
sg46
I0
sg114
I0
sg55
I0
sg49
I0
sg48
I0
sg115
I0
sg116
I0
sg50
I0
sg117
I0
sg118
I0
sg47
I0
sg119
I0
ssg56
(dp141
g63
I0
sg53
I0
sg64
I0
sg65
I0
sg66
I0
sg56
I3
sg67
I0
sg68
I0
sg52
I0
sg69
I0
sg70
I0
sg71
I0
sg72
I0
sg73
I0
sg54
I0
sg74
I0
sg75
I0
sg76
I0
sg77
I0
sg55
I0
sg78
I0
sg79
I0
sg80
I0
sg81
I0
sg82
I0
sg83
I0
sg84
I0
sg85
I0
ssg45
(dp142
S'spoon.n.01'
p143
I0
sS'salt.n.02'
p144
I0
sS'rib.n.03'
p145
I0
sS'rib.n.01'
p146
I0
sS'put.v.01'
p147
I0
sg45
I0
sS'bowl.n.01'
p148
I0
sS'steak.n.01'
p149
I0
sS'oven.n.01'
p150
I0
sS'batter.n.02'
p151
I0
sS'french_fries.n.01'
p152
I0
sS'cherry.n.03'
p153
I0
sS'dish.n.02'
p154
I0
ssg17
(dp155
g25
I0
sg121
I0
sg57
I0
sg11
I0
sg22
I0
sg124
I0
sg45
I1
sg17
I0
sg29
I0
sg18
I5
sg9
I0
sg125
I0
sg15
I0
sg16
I0
sg126
I0
sg28
I0
sg31
I0
sg14
I0
sg27
I0
sg24
I0
sg13
I0
sg32
I0
sg12
I0
sg127
I0
sg149
I0
sg150
I0
sg23
I0
sg26
I0
sg19
I0
sg8
I0
sg10
I0
sg33
I0
sg30
I0
sg20
I0
sg21
I0
sg154
I0
ssg29
(dp156
S'plate.n.13'
p157
I0
sg57
I0
sS'beef.n.02'
p158
I0
sg45
I0
sS'bowl.n.01'
p159
I0
sg29
I3
sS'bowl.n.08'
p160
I0
sg93
I0
sg94
I0
sg28
I0
sg31
I0
sS'salt.n.02'
p161
I0
sS'banana.n.02'
p162
I0
sS'plate.n.04'
p163
I0
sg100
I0
sg32
I0
sS'gripe.n.01'
p164
I0
sg149
I0
sg150
I0
sg96
I0
sS'blender.n.01'
p165
I0
sg95
I0
sS'put.v.01'
p166
I0
sg33
I0
sg30
I0
sS'onion.n.01'
p167
I0
sS'onion.n.03'
p168
I0
sg154
I0
ssg42
(dp169
g133
I0
sg53
I0
sg40
I0
sg51
I0
sg56
I0
sg36
I0
sg52
I0
sg41
I0
sg39
I0
sg38
I0
sg48
I0
sg46
I0
sg136
I0
sg55
I0
sg34
I0
sg35
I0
sg37
I0
sg43
I3
sg50
I0
sg138
I0
sg42
I0
sg54
I0
sg49
I0
sg47
I0
sg44
I0
ssg18
(dp170
g25
I0
sg121
I0
sg57
I0
sg11
I0
sg22
I0
sg124
I0
sg17
I0
sg29
I0
sg18
I0
sg9
I0
sg125
I0
sg15
I0
sg16
I0
sg126
I0
sg28
I0
sg31
I0
sg14
I0
sg27
I0
sg24
I0
sg13
I0
sg32
I0
sg12
I0
sg127
I0
sg23
I0
sg26
I0
sg19
I0
sg8
I0
sg10
I0
sg33
I0
sg30
I0
sg20
I0
sg21
I0
ssg41
(dp171
g133
I0
sg53
I0
sg40
I0
sg51
I0
sg56
I0
sg36
I0
sg52
I0
sg41
I3
sg39
I0
sg38
I0
sg48
I0
sg46
I0
sg136
I0
sg55
I0
sg34
I0
sg35
I0
sg37
I0
sg43
I0
sg50
I0
sg138
I0
sg42
I0
sg54
I0
sg49
I0
sg47
I0
sg44
I0
ssg9
(dp172
g25
I0
sg121
I0
sg122
I0
sg11
I0
sg22
I0
sg123
I0
sg124
I0
sg17
I0
sg125
I0
sg9
I6
sg18
I0
sg15
I0
sg16
I0
sg126
I0
sg14
I0
sg27
I0
sg24
I0
sg13
I0
sg12
I0
sg127
I0
sg128
I0
sg23
I0
sg26
I0
sg19
I0
sg8
I0
sg10
I0
sg129
I0
sg20
I0
sg21
I0
sg130
I0
ssg52
(dp173
g63
I0
sg53
I3
sg64
I0
sg65
I0
sg66
I0
sg56
I0
sg67
I0
sg68
I0
sg79
I0
sg69
I0
sg70
I0
sg52
I0
sg72
I0
sg73
I0
sg54
I0
sg71
I0
sg74
I0
sg75
I0
sg76
I0
sg77
I0
sg55
I0
sg78
I0
sg80
I0
sg81
I0
sg82
I0
sg83
I0
sg84
I0
sg85
I0
ssg39
(dp174
g133
I0
sg37
I0
sg39
I0
sg38
I0
sg136
I0
sg40
I0
sg43
I0
sg138
I0
sg42
I0
sg134
I0
sg34
I0
sg35
I0
sg36
I0
sg139
I0
sg137
I0
sg41
I0
sg44
I0
sg135
I0
ssg46
(dp175
g107
I0
sg115
I0
sg46
I0
sg113
I0
sg114
I0
sg109
I0
sg116
I0
sg50
I0
sg51
I0
sg117
I0
sg118
I0
sg49
I0
sg47
I0
sg48
I0
sg111
I0
sg119
I0
ssg38
(dp176
g133
I0
sg40
I0
sg51
I0
sg36
I0
sg41
I0
sg39
I2
sg38
I4
sg48
I0
sg134
I0
sg135
I0
sg46
I0
sg136
I0
sg137
I0
sg34
I0
sg35
I0
sg37
I0
sg43
I0
sg50
I0
sg138
I0
sg42
I0
sg49
I0
sg47
I0
sg139
I0
sg44
I0
ssg15
(dp177
g25
I0
sg121
I0
sg57
I0
sg11
I0
sg22
I0
sg124
I0
sg17
I0
sg101
I0
sg18
I0
sg9
I0
sg125
I0
sg15
I0
sg16
I3
sg126
I0
sg87
I0
sg14
I0
sg27
I0
sg24
I0
sg13
I0
sg12
I0
sg127
I0
sg23
I0
sg26
I0
sg19
I0
sg8
I0
sg10
I0
sg89
I0
sg20
I0
sg21
I0
ssg16
(dp178
g25
I0
sg121
I0
sg57
I0
sg11
I0
sg22
I0
sg124
I0
sg17
I0
sg101
I0
sg18
I0
sg9
I0
sg125
I0
sg15
I0
sg16
I0
sg126
I0
sg87
I0
sg14
I0
sg27
I0
sg24
I0
sg13
I0
sg12
I0
sg127
I0
sg23
I0
sg26
I0
sg19
I0
sg8
I0
sg10
I0
sg89
I0
sg20
I0
sg21
I0
ssg48
(dp179
g107
I0
sg53
I0
sg108
I0
sg109
I0
sg51
I0
sg56
I0
sg110
I0
sg52
I0
sg111
I0
sg112
I0
sg113
I0
sg48
I0
sg46
I0
sg114
I0
sg55
I0
sg49
I0
sg115
I0
sg116
I0
sg50
I0
sg117
I0
sg118
I0
sg54
I0
sg47
I0
sg119
I0
ssg28
(dp180
g157
I0
sg57
I0
sg158
I0
sg45
I0
sg159
I0
sg154
I0
sg160
I0
sg93
I0
sg94
I0
sg28
I3
sg31
I0
sg161
I0
sg162
I0
sg163
I0
sg100
I0
sg32
I0
sg164
I0
sg149
I0
sg150
I0
sg96
I0
sg165
I0
sg95
I0
sg166
I0
sg33
I0
sg30
I0
sg167
I0
sg168
I0
sg29
I0
ssg31
(dp181
g157
I0
sg158
I0
sS'soup.n.01'
p182
I0
sg45
I0
sg159
I0
sg154
I0
sg160
I0
sS'microwave.n.01'
p183
I0
sS'microwave.n.02'
p184
I0
sg28
I0
sg163
I0
sg161
I0
sg162
I0
sg31
I0
sg32
I3
sg164
I0
sg149
I0
sg150
I0
sS'mug.n.04'
p185
I0
sg165
I0
sg166
I0
sg33
I0
sg30
I0
sg167
I0
sg168
I0
sg29
I0
ssg14
(dp186
g25
I0
sg121
I0
sg57
I0
sg11
I0
sg22
I0
sg182
I0
sg124
I0
sg45
I0
sg17
I0
sg29
I0
sg18
I0
sg9
I0
sg125
I0
sg183
I0
sg184
I0
sg15
I0
sg16
I0
sg126
I0
sg28
I0
sg31
I0
sg14
I6
sg27
I0
sg24
I0
sg13
I0
sg32
I0
sg12
I0
sg127
I0
sg149
I0
sg150
I0
sg23
I0
sg185
I0
sg26
I0
sg19
I0
sg8
I0
sg10
I0
sg33
I0
sg30
I0
sg20
I0
sg21
I0
sg154
I0
ssg27
(dp187
g25
I0
sg57
I0
sg11
I0
sg22
I0
sg17
I0
sg29
I0
sg18
I0
sg9
I0
sg15
I0
sg16
I0
sg28
I0
sg31
I0
sg14
I0
sg27
I3
sg24
I0
sg13
I0
sg32
I0
sg12
I0
sg23
I0
sg26
I0
sg19
I0
sg8
I0
sg10
I0
sg33
I0
sg30
I0
sg20
I0
sg21
I0
ssg24
(dp188
g25
I5
sg53
I0
sg57
I1
sg50
I0
sg11
I0
sg22
I0
sg40
I0
sg51
I0
sg56
I0
sg17
I0
sg29
I0
sg42
I0
sg18
I0
sg41
I0
sg9
I0
sg52
I0
sg39
I0
sg46
I0
sg38
I0
sg15
I0
sg16
I0
sg48
I0
sg28
I0
sg31
I0
sg14
I0
sg27
I0
sg24
I0
sg13
I0
sg32
I0
sg12
I0
sg55
I0
sg34
I0
sg35
I0
sg23
I0
sg37
I0
sg26
I0
sg44
I0
sg43
I0
sg19
I0
sg8
I0
sg10
I0
sg54
I0
sg49
I0
sg47
I0
sg33
I0
sg30
I0
sg20
I0
sg21
I0
sg36
I0
ssg13
(dp189
g25
I0
sg121
I0
sg57
I0
sg11
I0
sg22
I0
sg124
I0
sg17
I0
sg101
I0
sg18
I0
sg9
I0
sg125
I0
sg15
I0
sg16
I0
sg126
I0
sg87
I0
sg14
I0
sg27
I0
sg24
I0
sg13
I0
sg12
I0
sg127
I0
sg23
I0
sg26
I0
sg19
I0
sg8
I0
sg10
I0
sg89
I0
sg20
I0
sg21
I0
ssg32
(dp190
g157
I0
sg158
I0
sg182
I0
sg45
I0
sg159
I0
sg154
I0
sg160
I0
sg183
I0
sg184
I0
sg28
I0
sg31
I0
sg161
I0
sg162
I0
sg163
I0
sg32
I0
sg164
I0
sg149
I0
sg150
I0
sg185
I0
sg165
I0
sg166
I0
sg33
I0
sg30
I0
sg167
I0
sg168
I0
sg29
I0
ssg12
(dp191
g25
I0
sg121
I0
sg57
I0
sg11
I0
sg22
I0
sg124
I0
sg17
I0
sg101
I0
sg18
I0
sg9
I0
sg125
I0
sg15
I0
sg16
I0
sg126
I0
sg87
I0
sg14
I0
sg27
I0
sg24
I0
sg13
I3
sg23
I0
sg127
I0
sg12
I0
sg26
I0
sg19
I0
sg8
I0
sg10
I0
sg89
I0
sg20
I0
sg21
I0
ssg55
(dp192
g63
I0
sg53
I0
sg64
I0
sg65
I0
sg66
I0
sg56
I0
sg67
I0
sg68
I0
sg52
I0
sg69
I0
sg70
I0
sg71
I0
sg72
I0
sg73
I0
sg54
I0
sg74
I0
sg75
I0
sg76
I0
sg77
I0
sg55
I3
sg78
I0
sg79
I0
sg80
I0
sg81
I0
sg82
I0
sg83
I0
sg84
I0
sg85
I0
ssg34
(dp193
g133
I0
sg40
I0
sg45
I0
sg148
I0
sg36
I0
sg41
I0
sg39
I0
sg38
I0
sg143
I0
sg145
I0
sg144
I0
sg136
I0
sg146
I0
sg34
I3
sg35
I0
sg37
I0
sg43
I0
sg138
I0
sg42
I0
sg152
I0
sg153
I0
sg44
I0
sg151
I0
ssg35
(dp194
g133
I0
sg40
I0
sg45
I0
sg148
I0
sg36
I0
sg41
I0
sg39
I0
sg38
I0
sg143
I0
sg145
I0
sg144
I0
sg136
I0
sg146
I0
sg34
I0
sg35
I6
sg37
I0
sg43
I0
sg138
I0
sg42
I0
sg152
I0
sg153
I0
sg44
I0
sg151
I0
ssg23
(dp195
g25
I0
sg57
I0
sg11
I0
sg22
I0
sg17
I0
sg29
I0
sg18
I0
sg9
I0
sg15
I0
sg16
I0
sg28
I0
sg31
I0
sg14
I0
sg27
I0
sg24
I0
sg13
I0
sg32
I0
sg12
I0
sg23
I0
sg26
I0
sg19
I0
sg8
I0
sg10
I0
sg33
I0
sg30
I0
sg20
I0
sg21
I0
ssg37
(dp196
g133
I0
sg40
I0
sg51
I0
sg36
I0
sg41
I0
sg39
I0
sg38
I0
sg48
I0
sg134
I0
sg135
I0
sg46
I1
sg136
I0
sg137
I0
sg34
I0
sg35
I0
sg37
I2
sg43
I0
sg50
I0
sg138
I0
sg42
I0
sg49
I0
sg47
I0
sg139
I0
sg44
I0
ssg26
(dp197
g25
I0
sg57
I0
sg11
I0
sg22
I0
sg17
I0
sg29
I0
sg18
I0
sg9
I0
sg15
I0
sg16
I0
sg28
I0
sg31
I0
sg14
I0
sg27
I0
sg24
I0
sg13
I0
sg32
I0
sg12
I0
sg23
I0
sg26
I3
sg19
I0
sg8
I0
sg10
I0
sg33
I0
sg30
I0
sg20
I0
sg21
I0
ssg44
(dp198
g133
I0
sg53
I0
sg40
I0
sg51
I0
sg56
I0
sg36
I0
sg52
I0
sg41
I0
sg39
I0
sg38
I0
sg48
I0
sg46
I0
sg136
I0
sg55
I0
sg34
I0
sg35
I0
sg37
I0
sg43
I0
sg50
I0
sg138
I0
sg42
I0
sg54
I0
sg49
I0
sg47
I0
sg44
I3
ssg43
(dp199
g133
I0
sg53
I0
sg40
I0
sg51
I0
sg56
I0
sg36
I0
sg52
I0
sg41
I0
sg39
I0
sg38
I0
sg48
I0
sg46
I0
sg136
I0
sg55
I0
sg34
I0
sg35
I0
sg37
I0
sg43
I0
sg50
I0
sg138
I0
sg42
I0
sg54
I0
sg49
I0
sg47
I0
sg44
I0
ssg19
(dp200
g25
I0
sg121
I0
sg57
I0
sg11
I0
sg22
I0
sg124
I0
sg17
I0
sg101
I0
sg18
I0
sg9
I0
sg125
I0
sg15
I0
sg16
I0
sg126
I0
sg87
I0
sg14
I0
sg27
I0
sg24
I0
sg13
I0
sg12
I0
sg127
I0
sg23
I0
sg26
I0
sg19
I3
sg8
I0
sg10
I0
sg89
I0
sg20
I0
sg21
I0
ssg8
(dp201
g25
I0
sg53
I0
sg57
I0
sg50
I0
sg11
I0
sg22
I0
sg40
I0
sg51
I0
sg56
I0
sg45
I0
sg17
I0
sg29
I0
sg42
I0
sg18
I0
sg41
I0
sg9
I0
sg52
I0
sg39
I0
sg46
I0
sg38
I0
sg15
I0
sg16
I0
sg48
I0
sg28
I0
sg31
I0
sg14
I0
sg27
I0
sg24
I0
sg13
I0
sg32
I0
sg12
I0
sg55
I0
sg34
I0
sg35
I0
sg23
I0
sg37
I0
sg26
I0
sg44
I0
sg43
I0
sg19
I0
sg8
I60
sg10
I0
sg54
I0
sg49
I0
sg47
I0
sg33
I0
sg30
I0
sg20
I0
sg21
I0
sg36
I0
ssg10
(dp202
g25
I0
sg121
I0
sg122
I0
sg11
I0
sg22
I0
sg123
I0
sg124
I0
sg17
I0
sg125
I0
sg9
I0
sg18
I0
sg15
I0
sg16
I0
sg126
I0
sg14
I0
sg27
I0
sg24
I0
sg13
I0
sg12
I0
sg127
I0
sg128
I0
sg23
I0
sg26
I0
sg19
I0
sg8
I0
sg10
I3
sg129
I0
sg20
I0
sg21
I0
sg130
I0
ssg54
(dp203
g63
I0
sg53
I0
sg64
I0
sg65
I0
sg66
I0
sg56
I0
sg67
I0
sg68
I0
sg52
I0
sg69
I0
sg70
I0
sg71
I0
sg72
I0
sg73
I0
sg79
I0
sg74
I0
sg75
I0
sg76
I0
sg77
I0
sg55
I0
sg78
I0
sg80
I0
sg81
I0
sg82
I0
sg83
I0
sg54
I3
sg84
I0
sg85
I0
ssg49
(dp204
g107
I0
sg53
I0
sg108
I0
sg109
I0
sg51
I0
sg56
I0
sg110
I0
sg52
I0
sg111
I0
sg112
I0
sg113
I0
sg54
I0
sg46
I0
sg114
I0
sg55
I0
sg49
I3
sg48
I0
sg115
I0
sg116
I0
sg50
I0
sg117
I0
sg118
I0
sg47
I0
sg119
I0
ssg47
(dp205
g107
I0
sg53
I0
sg108
I0
sg109
I0
sg51
I0
sg56
I0
sg110
I0
sg52
I0
sg111
I0
sg112
I0
sg113
I0
sg54
I0
sg46
I0
sg114
I0
sg55
I0
sg49
I0
sg48
I3
sg115
I0
sg116
I0
sg50
I0
sg117
I0
sg118
I0
sg47
I0
sg119
I0
ssg33
(dp206
g157
I0
sg158
I0
sg182
I0
sg45
I0
sg159
I0
sg154
I0
sg160
I0
sg183
I0
sg184
I0
sg28
I0
sg31
I0
sg161
I0
sg162
I0
sg163
I0
sg32
I0
sg164
I0
sg149
I0
sg150
I0
sg185
I0
sg165
I0
sg166
I0
sg33
I3
sg30
I0
sg167
I0
sg168
I0
sg29
I0
ssg30
(dp207
g157
I0
sg57
I0
sg158
I0
sg45
I0
sg159
I0
sg154
I0
sg160
I0
sg93
I0
sg94
I0
sg28
I0
sg31
I0
sg161
I0
sg162
I0
sg163
I0
sg100
I0
sg32
I0
sg164
I0
sg149
I0
sg150
I0
sg96
I0
sg165
I0
sg95
I0
sg166
I0
sg33
I0
sg30
I3
sg167
I0
sg168
I0
sg29
I0
ssg20
(dp208
g25
I0
sg57
I0
sg11
I0
sg22
I0
sg17
I0
sg29
I0
sg18
I0
sg9
I0
sg15
I0
sg16
I0
sg28
I0
sg31
I0
sg14
I0
sg27
I0
sg24
I0
sg13
I0
sg32
I0
sg12
I0
sg23
I0
sg26
I0
sg19
I0
sg8
I0
sg10
I0
sg33
I0
sg30
I0
sg20
I0
sg21
I3
ssg21
(dp209
g25
I0
sg57
I0
sg11
I0
sg22
I0
sg17
I0
sg29
I0
sg18
I0
sg9
I0
sg15
I0
sg16
I0
sg28
I0
sg31
I0
sg14
I0
sg27
I0
sg24
I0
sg13
I0
sg32
I0
sg12
I0
sg23
I0
sg26
I0
sg19
I0
sg8
I0
sg10
I0
sg33
I0
sg30
I0
sg20
I0
sg21
I0
ssg36
(dp210
g133
I0
sg40
I0
sg45
I0
sg148
I0
sg36
I3
sg41
I0
sg39
I0
sg38
I0
sg143
I0
sg145
I0
sg144
I0
sg136
I0
sg146
I0
sg34
I0
sg35
I0
sg37
I0
sg43
I0
sg138
I0
sg42
I0
sg152
I0
sg153
I0
sg44
I0
sg151
I0
sssb.