ccopy_reg
_reconstructor
p0
(cutils.eval
ConfusionMatrix
p1
c__builtin__
object
p2
Ntp3
Rp4
(dp5
S'labels'
p6
(lp7
S'put.v.01'
p8
aS'rib.n.03'
p9
aS'rib.n.01'
p10
aS'salt.n.02'
p11
aS'french_fries.n.01'
p12
aS'steak.n.01'
p13
aS'oven.n.01'
p14
aS'dish.n.02'
p15
aS'mug.n.04'
p16
aS'microwave.n.02'
p17
aS'microwave.n.01'
p18
aS'soup.n.01'
p19
asS'instanceCount'
p20
I17
sS'matrix'
p21
(dp22
g11
(dp23
S'salt.n.02'
p24
I1
ssg18
(dp25
g18
I0
ssg16
(dp26
S'mug.n.04'
p27
I1
ssg9
(dp28
g10
I1
ssg19
(dp29
S'soup.n.01'
p30
I1
ssg10
(dp31
g10
I0
ssg17
(dp32
g18
I1
sS'microwave.n.02'
p33
I1
ssg8
(dp34
S'put.v.01'
p35
I6
ssg13
(dp36
S'steak.n.01'
p37
I1
ssg14
(dp38
S'oven.n.01'
p39
I2
ssg15
(dp40
S'dish.n.02'
p41
I1
ssg12
(dp42
S'french_fries.n.01'
p43
I1
sssb.