ccopy_reg
_reconstructor
p0
(cutils.eval
ConfusionMatrix
p1
c__builtin__
object
p2
Ntp3
Rp4
(dp5
S'labels'
p6
(lp7
S'coca_cola.n.01'
p8
aS'coke.n.01'
p9
aS'put.v.01'
p10
aS'electric_refrigerator.n.01'
p11
aS'spread.n.05'
p12
aS'bread.n.01'
p13
aS'pan.n.03'
p14
aS'pizza.n.01'
p15
aS'chicken.n.01'
p16
aS'pepper.n.03'
p17
aS'pepper.n.04'
p18
aS'salt.n.02'
p19
aS'egg.n.02'
p20
aS'egg.n.01'
p21
aS'bowl.n.01'
p22
aS'bowl.n.08'
p23
aS'rice.n.01'
p24
asS'instanceCount'
p25
I19
sS'matrix'
p26
(dp27
g9
(dp28
g9
I0
ssg19
(dp29
S'salt.n.02'
p30
I1
ssg14
(dp31
S'pan.n.03'
p32
I2
ssg23
(dp33
g23
I0
ssg13
(dp34
S'bread.n.01'
p35
I1
ssg18
(dp36
g18
I0
ssg21
(dp37
g21
I0
ssg24
(dp38
S'rice.n.01'
p39
I1
ssg10
(dp40
S'put.v.01'
p41
I6
ssg12
(dp42
S'spread.n.05'
p43
I1
ssg11
(dp44
S'electric_refrigerator.n.01'
p45
I1
ssg22
(dp46
g23
I1
ssg15
(dp47
S'pizza.n.01'
p48
I1
ssg17
(dp49
g18
I1
ssg20
(dp50
g21
I1
ssg16
(dp51
S'chicken.n.01'
p52
I1
ssg8
(dp53
g9
I1
sssb.