ccopy_reg
_reconstructor
p0
(cutils.eval
ConfusionMatrix
p1
c__builtin__
object
p2
Ntp3
Rp4
(dp5
S'labels'
p6
(lp7
S'put.v.01'
p8
aS'salmon.n.03'
p9
aS'plate.n.04'
p10
aS'plate.n.13'
p11
aS'dressing.n.01'
p12
aS'dressing.n.04'
p13
aS'salad.n.01'
p14
aS'cake.n.03'
p15
aS'patty.n.01'
p16
aS'whipped_cream.n.01'
p17
aS'jam.n.01'
p18
aS'refrigerator.n.01'
p19
aS'coca_cola.n.01'
p20
aS'coke.n.01'
p21
aS'electric_refrigerator.n.01'
p22
aS'spread.n.05'
p23
aS'bread.n.01'
p24
asS'instanceCount'
p25
I18
sS'matrix'
p26
(dp27
g11
(dp28
g11
I0
ssg21
(dp29
g21
I0
ssg20
(dp30
g21
I1
ssg24
(dp31
S'bread.n.01'
p32
I1
ssg10
(dp33
g11
I1
ssg14
(dp34
S'salad.n.01'
p35
I1
ssg13
(dp36
g13
I0
ssg18
(dp37
S'jam.n.01'
p38
I1
ssg19
(dp39
S'refrigerator.n.01'
p40
I1
ssg8
(dp41
S'put.v.01'
p42
I6
ssg12
(dp43
g13
I1
ssg22
(dp44
S'electric_refrigerator.n.01'
p45
I1
ssg23
(dp46
S'spread.n.05'
p47
I1
ssg17
(dp48
S'whipped_cream.n.01'
p49
I1
ssg15
(dp50
g16
I1
ssg16
(dp51
g16
I0
ssg9
(dp52
S'salmon.n.03'
p53
I1
sssb.