ccopy_reg
_reconstructor
p0
(cutils.eval
ConfusionMatrix
p1
c__builtin__
object
p2
Ntp3
Rp4
(dp5
S'labels'
p6
(lp7
S'cabbage.n.01'
p8
aS'cut.v.01'
p9
aS'lemon.n.01'
p10
aS'lemon.n.05'
p11
aS'bread.n.01'
p12
aS'knife.n.01'
p13
aS'cut.v.29'
p14
aS'meat.n.01'
p15
aS'cleaver.n.01'
p16
aS'bacon.n.01'
p17
aS'bacon.n.02'
p18
asS'instanceCount'
p19
I12
sS'matrix'
p20
(dp21
g9
(dp22
g9
I4
sg13
I0
sg14
I1
sg18
I0
sg17
I0
sg12
I0
sg11
I0
sg15
I0
sg10
I0
sg8
I0
sg16
I0
ssg13
(dp23
S'cut.v.01'
p24
I0
sg13
I1
sg12
I0
ssg14
(dp25
g16
I0
sS'cut.v.01'
p26
I0
sg14
I0
sg15
I0
ssg18
(dp27
S'cut.v.01'
p28
I0
sg18
I0
sg17
I0
ssg17
(dp29
g28
I0
sg18
I1
sg17
I0
ssg12
(dp30
g24
I0
sg13
I0
sg12
I1
ssg11
(dp31
g11
I0
sS'cut.v.01'
p32
I0
sg10
I0
ssg15
(dp33
g16
I0
sg26
I0
sg15
I1
sg14
I0
ssg10
(dp34
g11
I1
sg32
I0
sg10
I0
ssg8
(dp35
g9
I0
sg8
I1
ssg16
(dp36
g15
I0
sg26
I0
sg16
I1
sg14
I0
sssb.