ccopy_reg
_reconstructor
p0
(cutils.eval
ConfusionMatrix
p1
c__builtin__
object
p2
Ntp3
Rp4
(dp5
S'labels'
p6
(lp7
S'cabbage.n.01'
p8
aS'cut.v.01'
p9
aS'fork.n.01'
p10
aS'fork.n.04'
p11
aS'cake.n.03'
p12
aS'vegetable.n.01'
p13
aS'knife.n.01'
p14
aS'banana.n.02'
p15
aS'piece.n.08'
p16
aS'orange.n.01'
p17
aS'meat.n.01'
p18
aS'cleaver.n.01'
p19
aS'flesh.n.01'
p20
aS'human_body.n.01'
p21
aS'lemon.n.01'
p22
aS'potato.n.01'
p23
aS'cheese.n.01'
p24
aS'olive.n.01'
p25
aS'olive.n.04'
p26
aS'mushroom.n.05'
p27
aS'egg.n.02'
p28
aS'zucchini.n.01'
p29
aS'zucchini.n.02'
p30
aS'tomato.n.01'
p31
aS'bread.n.01'
p32
aS'bacon.n.01'
p33
asS'instanceCount'
p34
I45
sS'matrix'
p35
(dp36
g27
(dp37
S'mushroom.n.05'
p38
I1
ssg24
(dp39
S'cheese.n.01'
p40
I1
ssg32
(dp41
S'bread.n.01'
p42
I1
ssg17
(dp43
S'orange.n.01'
p44
I1
ssg30
(dp45
g30
I0
ssg29
(dp46
g30
I1
ssg14
(dp47
S'knife.n.01'
p48
I4
ssg9
(dp49
S'cut.v.01'
p50
I18
ssg28
(dp51
S'egg.n.02'
p52
I1
ssg31
(dp53
S'tomato.n.01'
p54
I1
ssg33
(dp55
S'bacon.n.01'
p56
I1
ssg18
(dp57
S'meat.n.01'
p58
I1
ssg23
(dp59
S'potato.n.01'
p60
I1
ssg19
(dp61
S'cleaver.n.01'
p62
I1
ssg25
(dp63
g26
I1
ssg8
(dp64
S'cabbage.n.01'
p65
I1
ssg15
(dp66
S'banana.n.02'
p67
I1
ssg26
(dp68
g26
I0
ssg11
(dp69
g11
I0
ssg10
(dp70
g11
I1
ssg21
(dp71
g21
I0
ssg16
(dp72
S'piece.n.08'
p73
I3
ssg13
(dp74
S'vegetable.n.01'
p75
I1
ssg20
(dp76
g21
I1
ssg12
(dp77
S'cake.n.03'
p78
I1
ssg22
(dp79
S'lemon.n.01'
p80
I2
sssb.