ccopy_reg
_reconstructor
p0
(cutils.eval
ConfusionMatrix
p1
c__builtin__
object
p2
Ntp3
Rp4
(dp5
S'labels'
p6
(lp7
S'zucchini.n.01'
p8
aS'zucchini.n.02'
p9
aS'cut.v.01'
p10
aS'tomato.n.01'
p11
aS'knife.n.01'
p12
aS'tongue.n.03'
p13
aS'bread.n.01'
p14
aS'bacon.n.01'
p15
aS'green_onion.n.01'
p16
aS'piece.n.08'
p17
aS'pizza.n.01'
p18
aS'cabbage.n.01'
p19
aS'fork.n.01'
p20
aS'crotch.n.02'
p21
aS'cake.n.03'
p22
aS'vegetable.n.01'
p23
aS'banana.n.02'
p24
aS'orange.n.01'
p25
aS'meat.n.01'
p26
aS'cleaver.n.01'
p27
aS'chop.n.05'
p28
aS'flesh.n.01'
p29
aS'human_body.n.01'
p30
aS'lemon.n.01'
p31
aS'potato.n.01'
p32
aS'cheese.n.01'
p33
aS'olive.n.01'
p34
aS'olive.n.04'
p35
asS'instanceCount'
p36
I46
sS'matrix'
p37
(dp38
g33
(dp39
S'cheese.n.01'
p40
I1
ssg14
(dp41
S'bread.n.01'
p42
I1
ssg25
(dp43
S'orange.n.01'
p44
I1
ssg9
(dp45
g9
I0
ssg21
(dp46
g21
I0
ssg8
(dp47
g9
I1
ssg19
(dp48
S'cabbage.n.01'
p49
I1
ssg16
(dp50
S'green_onion.n.01'
p51
I1
ssg17
(dp52
S'piece.n.08'
p53
I3
ssg10
(dp54
S'cut.v.01'
p55
I18
ssg11
(dp56
S'tomato.n.01'
p57
I1
ssg15
(dp58
S'bacon.n.01'
p59
I1
ssg27
(dp60
g28
I1
ssg32
(dp61
S'potato.n.01'
p62
I1
ssg26
(dp63
S'meat.n.01'
p64
I1
ssg34
(dp65
g35
I1
ssg12
(dp66
g13
I5
ssg31
(dp67
S'lemon.n.01'
p68
I2
ssg24
(dp69
S'banana.n.02'
p70
I1
ssg35
(dp71
g35
I0
ssg20
(dp72
g21
I1
ssg30
(dp73
g30
I0
ssg28
(dp74
g28
I0
ssg23
(dp75
S'vegetable.n.01'
p76
I1
ssg29
(dp77
g30
I1
ssg18
(dp78
S'pizza.n.01'
p79
I1
ssg22
(dp80
S'cake.n.03'
p81
I1
ssg13
(dp82
g13
I0
sssb.