ccopy_reg
_reconstructor
p0
(cutils.eval
ConfusionMatrix
p1
c__builtin__
object
p2
Ntp3
Rp4
(dp5
S'labels'
p6
(lp7
S'cut.v.01'
p8
aS'bread.n.01'
p9
aS'knife.n.01'
p10
aS'bacon.n.01'
p11
aS'bacon.n.02'
p12
aS'green_onion.n.01'
p13
aS'piece.n.08'
p14
aS'slice.n.06'
p15
aS'pizza.n.01'
p16
aS'cabbage.n.01'
p17
aS'cabbage.n.03'
p18
aS'fork.n.01'
p19
aS'fork.n.04'
p20
aS'cake.n.03'
p21
aS'vegetable.n.01'
p22
aS'banana.n.02'
p23
aS'orange.n.01'
p24
aS'meat.n.01'
p25
aS'cleaver.n.01'
p26
aS'flesh.n.01'
p27
aS'human_body.n.01'
p28
aS'lemon.n.01'
p29
aS'potato.n.01'
p30
aS'cheese.n.01'
p31
aS'tall_mallow.n.01'
p32
aS'olive.n.01'
p33
aS'olive.n.02'
p34
aS'mushroom.n.05'
p35
aS'mushroom.n.03'
p36
aS'egg.n.02'
p37
asS'instanceCount'
p38
I46
sS'matrix'
p39
(dp40
g35
(dp41
g36
I1
ssg31
(dp42
g32
I1
ssg36
(dp43
g36
I0
ssg9
(dp44
S'bread.n.01'
p45
I1
ssg24
(dp46
S'orange.n.01'
p47
I1
ssg17
(dp48
g18
I1
ssg13
(dp49
S'green_onion.n.01'
p50
I1
ssg8
(dp51
S'cut.v.01'
p52
I18
ssg18
(dp53
g18
I0
ssg37
(dp54
S'egg.n.02'
p55
I1
ssg12
(dp56
g12
I0
ssg11
(dp57
g12
I1
ssg26
(dp58
S'cleaver.n.01'
p59
I1
ssg30
(dp60
S'potato.n.01'
p61
I1
ssg25
(dp62
S'meat.n.01'
p63
I1
ssg34
(dp64
g34
I0
ssg33
(dp65
g34
I1
ssg10
(dp66
S'knife.n.01'
p67
I4
ssg23
(dp68
S'banana.n.02'
p69
I1
ssg20
(dp70
g20
I0
ssg19
(dp71
g20
I1
ssg28
(dp72
g28
I0
ssg14
(dp73
g15
I4
ssg32
(dp74
g32
I0
ssg22
(dp75
S'vegetable.n.01'
p76
I1
ssg27
(dp77
g28
I1
ssg15
(dp78
g15
I0
ssg16
(dp79
S'pizza.n.01'
p80
I1
ssg21
(dp81
S'cake.n.03'
p82
I1
ssg29
(dp83
S'lemon.n.01'
p84
I2
sssb.