ccopy_reg
_reconstructor
p0
(cutils.eval
ConfusionMatrix
p1
c__builtin__
object
p2
Ntp3
Rp4
(dp5
S'labels'
p6
(lp7
S'vegetable.n.01'
p8
aS'cut.v.01'
p9
aS'knife.n.01'
p10
aS'knife.n.02'
p11
aS'banana.n.02'
p12
aS'piece.n.08'
p13
aS'slice.n.06'
p14
aS'orange.n.01'
p15
aS'meat.n.01'
p16
aS'cleaver.n.01'
p17
aS'helicopter.n.01'
p18
aS'flesh.n.01'
p19
aS'human_body.n.01'
p20
aS'lemon.n.01'
p21
aS'potato.n.01'
p22
aS'cheese.n.01'
p23
aS'olive.n.01'
p24
aS'olive.n.04'
p25
aS'mushroom.n.05'
p26
aS'egg.n.02'
p27
aS'zucchini.n.01'
p28
aS'zucchini.n.02'
p29
aS'tomato.n.01'
p30
aS'bread.n.01'
p31
aS'bacon.n.01'
p32
aS'green_onion.n.01'
p33
aS'pizza.n.01'
p34
asS'instanceCount'
p35
I46
sS'matrix'
p36
(dp37
g26
(dp38
S'mushroom.n.05'
p39
I1
ssg23
(dp40
S'cheese.n.01'
p41
I1
ssg31
(dp42
S'bread.n.01'
p43
I1
ssg15
(dp44
S'orange.n.01'
p45
I1
ssg29
(dp46
g29
I0
ssg28
(dp47
g29
I1
ssg33
(dp48
S'green_onion.n.01'
p49
I1
ssg9
(dp50
S'cut.v.01'
p51
I18
ssg27
(dp52
S'egg.n.02'
p53
I1
ssg30
(dp54
S'tomato.n.01'
p55
I1
ssg11
(dp56
g11
I0
ssg32
(dp57
S'bacon.n.01'
p58
I1
ssg16
(dp59
S'meat.n.01'
p60
I1
ssg22
(dp61
S'potato.n.01'
p62
I1
ssg17
(dp63
g18
I1
ssg24
(dp64
g25
I1
ssg10
(dp65
g11
I5
ssg12
(dp66
S'banana.n.02'
p67
I1
ssg25
(dp68
g25
I0
ssg20
(dp69
g20
I0
ssg13
(dp70
g14
I4
ssg8
(dp71
S'vegetable.n.01'
p72
I1
ssg19
(dp73
g20
I1
ssg18
(dp74
g18
I0
ssg14
(dp75
g14
I0
ssg34
(dp76
S'pizza.n.01'
p77
I1
ssg21
(dp78
S'lemon.n.01'
p79
I2
sssb.