ccopy_reg
_reconstructor
p0
(cutils.eval
ConfusionMatrix
p1
c__builtin__
object
p2
Ntp3
Rp4
(dp5
S'labels'
p6
(lp7
S'piece.n.08'
p8
aS'slice.n.06'
p9
aS'cut.v.01'
p10
aS'orange.n.01'
p11
aS'meat.n.01'
p12
aS'cleaver.n.01'
p13
aS'flesh.n.01'
p14
aS'pulp.n.02'
p15
aS'lemon.n.01'
p16
aS'potato.n.01'
p17
aS'cheese.n.01'
p18
aS'olive.n.01'
p19
aS'olive.n.04'
p20
aS'mushroom.n.05'
p21
aS'egg.n.02'
p22
aS'zucchini.n.01'
p23
aS'zucchini.n.02'
p24
aS'tomato.n.01'
p25
aS'knife.n.01'
p26
aS'bread.n.01'
p27
aS'bacon.n.01'
p28
aS'green_onion.n.01'
p29
aS'pizza.n.01'
p30
aS'cabbage.n.01'
p31
aS'fork.n.01'
p32
aS'fork.n.04'
p33
aS'cake.n.03'
p34
asS'instanceCount'
p35
I45
sS'matrix'
p36
(dp37
g21
(dp38
S'mushroom.n.05'
p39
I1
ssg18
(dp40
S'cheese.n.01'
p41
I1
ssg27
(dp42
S'bread.n.01'
p43
I1
ssg11
(dp44
S'orange.n.01'
p45
I1
ssg24
(dp46
g24
I0
ssg23
(dp47
g24
I1
ssg31
(dp48
S'cabbage.n.01'
p49
I1
ssg29
(dp50
S'green_onion.n.01'
p51
I1
ssg10
(dp52
S'cut.v.01'
p53
I18
ssg22
(dp54
S'egg.n.02'
p55
I1
ssg25
(dp56
S'tomato.n.01'
p57
I1
ssg28
(dp58
S'bacon.n.01'
p59
I1
ssg13
(dp60
S'cleaver.n.01'
p61
I1
ssg17
(dp62
S'potato.n.01'
p63
I1
ssg12
(dp64
S'meat.n.01'
p65
I1
ssg19
(dp66
g20
I1
ssg26
(dp67
S'knife.n.01'
p68
I3
ssg20
(dp69
g20
I0
ssg33
(dp70
g33
I0
ssg32
(dp71
g33
I1
ssg8
(dp72
g9
I4
ssg14
(dp73
g15
I1
ssg9
(dp74
g9
I0
ssg30
(dp75
S'pizza.n.01'
p76
I1
ssg34
(dp77
S'cake.n.03'
p78
I1
ssg16
(dp79
S'lemon.n.01'
p80
I2
ssg15
(dp81
g15
I0
sssb.