ccopy_reg
_reconstructor
p0
(cutils.eval
ConfusionMatrix
p1
c__builtin__
object
p2
Ntp3
Rp4
(dp5
S'labels'
p6
(lp7
S'olive.n.01'
p8
aS'olive.n.04'
p9
aS'cut.v.01'
p10
aS'lemon.n.01'
p11
aS'mushroom.n.05'
p12
aS'egg.n.02'
p13
aS'piece.n.08'
p14
aS'zucchini.n.01'
p15
aS'zucchini.n.02'
p16
aS'tomato.n.01'
p17
aS'knife.n.01'
p18
aS'tongue.n.03'
p19
aS'bread.n.01'
p20
aS'bacon.n.01'
p21
aS'green_onion.n.01'
p22
aS'pizza.n.01'
p23
aS'cabbage.n.01'
p24
aS'fork.n.01'
p25
aS'crotch.n.02'
p26
aS'cake.n.03'
p27
aS'vegetable.n.01'
p28
aS'banana.n.02'
p29
aS'orange.n.01'
p30
aS'meat.n.01'
p31
aS'cleaver.n.01'
p32
aS'chop.n.05'
p33
aS'flesh.n.01'
p34
aS'human_body.n.01'
p35
asS'instanceCount'
p36
I46
sS'matrix'
p37
(dp38
g12
(dp39
S'mushroom.n.05'
p40
I1
ssg20
(dp41
S'bread.n.01'
p42
I1
ssg30
(dp43
S'orange.n.01'
p44
I1
ssg16
(dp45
g16
I0
ssg26
(dp46
g26
I0
ssg15
(dp47
g16
I1
ssg24
(dp48
S'cabbage.n.01'
p49
I1
ssg22
(dp50
S'green_onion.n.01'
p51
I1
ssg33
(dp52
g33
I0
ssg10
(dp53
S'cut.v.01'
p54
I18
ssg13
(dp55
S'egg.n.02'
p56
I1
ssg17
(dp57
S'tomato.n.01'
p58
I1
ssg21
(dp59
S'bacon.n.01'
p60
I1
ssg31
(dp61
S'meat.n.01'
p62
I1
ssg32
(dp63
g33
I1
ssg8
(dp64
g9
I1
ssg18
(dp65
g19
I5
ssg11
(dp66
S'lemon.n.01'
p67
I2
ssg29
(dp68
S'banana.n.02'
p69
I1
ssg9
(dp70
g9
I0
ssg25
(dp71
g26
I1
ssg35
(dp72
g35
I0
ssg14
(dp73
S'piece.n.08'
p74
I3
ssg28
(dp75
S'vegetable.n.01'
p76
I1
ssg34
(dp77
g35
I1
ssg23
(dp78
S'pizza.n.01'
p79
I1
ssg27
(dp80
S'cake.n.03'
p81
I1
ssg19
(dp82
g19
I0
sssb.