ccopy_reg
_reconstructor
p0
(cutils.eval
ConfusionMatrix
p1
c__builtin__
object
p2
Ntp3
Rp4
(dp5
S'labels'
p6
(lp7
S'opening.n.01'
p8
aS'gap.n.03'
p9
aS'fill.v.09'
p10
aS'fill.v.06'
p11
aS'batter.n.02'
p12
aS'fill.v.01'
p13
aS'meet.v.04'
p14
aS'kettle.n.01'
p15
aS'water.n.06'
p16
aS'fill.v.02'
p17
aS'pan.n.01'
p18
aS'pan.n.03'
p19
aS'foam.n.01'
p20
aS'mug.n.04'
p21
aS'countenance.n.03'
p22
asS'instanceCount'
p23
I12
sS'matrix'
p24
(dp25
g18
(dp26
g19
I1
ssg21
(dp27
g22
I1
ssg19
(dp28
g19
I0
ssg9
(dp29
g9
I0
ssg22
(dp30
g22
I0
ssg10
(dp31
g11
I1
ssg11
(dp32
g11
I0
ssg17
(dp33
g17
I0
ssg14
(dp34
g14
I0
ssg16
(dp35
S'water.n.06'
p36
I2
ssg13
(dp37
S'fill.v.06'
p38
I1
sg17
I1
sg14
I1
ssg15
(dp39
S'kettle.n.01'
p40
I1
ssg12
(dp41
S'batter.n.02'
p42
I1
ssg20
(dp43
S'foam.n.01'
p44
I1
ssg8
(dp45
g9
I1
sssb.