ccopy_reg
_reconstructor
p0
(cutils.eval
ConfusionMatrix
p1
c__builtin__
object
p2
Ntp3
Rp4
(dp5
S'labels'
p6
(lp7
S'fill.v.01'
p8
aS'fill.v.09'
p9
aS'foam.n.01'
p10
aS'mug.n.04'
p11
aS'chump.n.01'
p12
aS'pitcher.n.02'
p13
aS'pitcher.n.01'
p14
aS'milk.n.01'
p15
aS'opening.n.01'
p16
aS'gap.n.03'
p17
aS'batter.n.02'
p18
aS'kettle.n.01'
p19
aS'water.n.06'
p20
aS'milk.n.02'
p21
aS'batter.n.01'
p22
aS'water_system.n.02'
p23
aS'pan.n.01'
p24
aS'pan.n.03'
p25
aS'fill.v.06'
p26
aS'meet.v.04'
p27
aS'fill.v.02'
p28
aS'countenance.n.03'
p29
aS'kettle_hole.n.01'
p30
aS'milk.n.04'
p31
asS'instanceCount'
p32
I59
sS'matrix'
p33
(dp34
g18
(dp35
g18
I3
sg22
I1
sg10
I0
sg15
I0
sg21
I0
sg24
I0
sg25
I0
sg17
I0
sg9
I0
sg26
I0
sg28
I0
sg8
I0
sg13
I0
sg14
I0
sg12
I0
sg29
I0
sg27
I0
sg16
I0
sg11
I0
sg23
I0
sg20
I0
sg19
I0
ssg22
(dp36
g24
I0
sg25
I0
sS'gap.n.03'
p37
I0
sS'fill.v.09'
p38
I0
sg23
I0
sS'water.n.06'
p39
I0
sS'fill.v.01'
p40
I0
sS'pitcher.n.02'
p41
I0
sS'kettle.n.01'
p42
I0
sS'batter.n.02'
p43
I0
sg22
I0
sS'milk.n.01'
p44
I0
sg21
I0
sS'opening.n.01'
p45
I0
ssg31
(dp46
S'pan.n.01'
p47
I0
sS'mug.n.04'
p48
I0
sS'pan.n.03'
p49
I0
sS'fill.v.09'
p50
I0
sS'milk.n.01'
p51
I0
sS'chump.n.01'
p52
I0
sS'water.n.06'
p53
I0
sS'fill.v.01'
p54
I0
sg30
I0
sS'pitcher.n.01'
p55
I0
sS'kettle.n.01'
p56
I0
sg31
I0
sS'pitcher.n.02'
p57
I0
ssg10
(dp58
S'pan.n.01'
p59
I0
sg11
I0
sg12
I0
sg17
I0
sg29
I0
sg9
I0
sg26
I0
sg28
I0
sg27
I0
sg20
I0
sg8
I0
sg13
I0
sg14
I0
sg19
I0
sg18
I0
sS'pan.n.03'
p60
I0
sg10
I3
sg15
I0
sg16
I0
ssg15
(dp61
g24
I0
sg11
I0
sg12
I0
sg17
I0
sS'countenance.n.03'
p62
I0
sg9
I0
sg23
I0
sg20
I0
sg30
I0
sg8
I0
sg13
I0
sg14
I0
sg19
I0
sg18
I0
sg22
I0
sg25
I0
sg31
I1
sg10
I0
sg15
I2
sg21
I1
sg16
I0
ssg21
(dp63
g24
I0
sg25
I0
sg37
I0
sg38
I0
sg23
I0
sg39
I0
sg40
I0
sg41
I0
sg42
I0
sg43
I0
sg22
I0
sg44
I0
sg21
I0
sg45
I0
ssg24
(dp64
g43
I0
sg22
I0
sg31
I0
sS'foam.n.01'
p65
I0
sg44
I0
sg21
I0
sg24
I0
sg25
I4
sg37
I0
sg38
I0
sg26
I0
sg28
I0
sg40
I0
sg41
I0
sg55
I0
sg52
I0
sg29
I0
sg27
I0
sg45
I0
sS'mug.n.04'
p66
I0
sg23
I0
sg39
I0
sg30
I0
sg42
I0
ssg25
(dp67
g43
I0
sg22
I0
sg31
I0
sg65
I0
sg44
I0
sg21
I0
sg24
I0
sg25
I0
sg37
I0
sg38
I0
sg26
I0
sg28
I0
sg40
I0
sg41
I0
sg55
I0
sg52
I0
sg29
I0
sg27
I0
sg45
I0
sg66
I0
sg23
I0
sg39
I0
sg30
I0
sg42
I0
ssg17
(dp68
g18
I0
sg22
I0
sg10
I0
sg15
I0
sg21
I0
sg24
I0
sg25
I0
sg17
I0
sg9
I0
sg26
I0
sg28
I0
sg8
I0
sg13
I0
sg14
I0
sg12
I0
sg29
I0
sg27
I0
sg16
I0
sg11
I0
sg23
I0
sg20
I0
sg19
I0
ssg9
(dp69
g18
I0
sg22
I0
sg31
I0
sg10
I0
sg15
I0
sg21
I0
sg24
I0
sg25
I0
sg17
I0
sg9
I0
sg26
I1
sg28
I0
sg8
I3
sg13
I0
sg14
I0
sg12
I0
sg29
I0
sg27
I0
sg16
I0
sg11
I0
sg23
I0
sg20
I0
sg30
I0
sg19
I0
ssg26
(dp70
g59
I0
sg66
I0
sg60
I0
sS'gap.n.03'
p71
I0
sg29
I0
sS'fill.v.09'
p72
I0
sg26
I0
sg28
I0
sg27
I0
sS'water.n.06'
p73
I0
sS'fill.v.01'
p74
I0
sS'kettle.n.01'
p75
I0
sS'batter.n.02'
p76
I0
sg65
I0
sS'opening.n.01'
p77
I0
ssg28
(dp78
g59
I0
sg66
I0
sg60
I0
sg71
I0
sg29
I0
sg72
I0
sg26
I0
sg27
I0
sg28
I0
sg73
I0
sg74
I0
sg75
I0
sg76
I0
sg65
I0
sg77
I0
ssg8
(dp79
g18
I0
sg22
I0
sg31
I0
sg10
I0
sg15
I0
sg21
I0
sg24
I0
sg25
I0
sg17
I0
sg9
I6
sg26
I1
sg28
I1
sg8
I7
sg13
I0
sg14
I0
sg12
I0
sg29
I0
sg27
I1
sg16
I0
sg11
I0
sg23
I0
sg20
I0
sg30
I0
sg19
I0
ssg13
(dp80
g24
I0
sg11
I0
sg12
I0
sg17
I0
sg62
I0
sg9
I0
sg23
I0
sg20
I0
sg30
I0
sg8
I0
sg13
I2
sg14
I2
sg19
I0
sg18
I0
sg22
I0
sg25
I0
sg31
I0
sg10
I0
sg15
I0
sg21
I0
sg16
I0
ssg14
(dp81
g47
I0
sg11
I0
sg12
I0
sg17
I0
sg9
I0
sg20
I0
sg8
I0
sg13
I0
sg14
I0
sg19
I0
sg18
I0
sg30
I0
sg49
I0
sg31
I0
sg10
I0
sg15
I0
sg16
I0
ssg12
(dp82
g47
I0
sg11
I0
sg12
I0
sg17
I0
sg9
I0
sg20
I0
sg8
I0
sg13
I0
sg14
I0
sg19
I0
sg18
I0
sg30
I0
sg49
I0
sg31
I0
sg10
I0
sg15
I0
sg16
I0
ssg29
(dp83
g59
I0
sg66
I0
sg60
I0
sg71
I0
sg29
I0
sg72
I0
sg26
I0
sg28
I0
sg27
I0
sg73
I0
sg74
I0
sS'pitcher.n.02'
p84
I0
sg75
I0
sg76
I0
sg65
I0
sS'milk.n.01'
p85
I0
sg77
I0
ssg27
(dp86
g59
I0
sg66
I0
sg60
I0
sg71
I0
sg29
I0
sg72
I0
sg26
I0
sg28
I0
sg27
I0
sg73
I0
sg74
I0
sg75
I0
sg76
I0
sg65
I0
sg77
I0
ssg16
(dp87
g18
I0
sg22
I0
sg10
I0
sg15
I0
sg21
I0
sg24
I0
sg25
I0
sg17
I4
sg9
I0
sg26
I0
sg28
I0
sg8
I0
sg13
I0
sg14
I0
sg12
I0
sg29
I0
sg27
I0
sg16
I0
sg11
I0
sg23
I0
sg20
I0
sg19
I0
ssg11
(dp88
g59
I0
sg11
I0
sg12
I2
sg17
I0
sg29
I2
sg9
I0
sg26
I0
sg28
I0
sg27
I0
sg20
I0
sg8
I0
sg13
I0
sg14
I0
sg19
I0
sg18
I0
sg30
I0
sg60
I0
sg31
I0
sg10
I0
sg15
I0
sg16
I0
ssg23
(dp89
g24
I0
sg25
I0
sg37
I0
sg38
I0
sg23
I0
sg39
I0
sg40
I0
sg41
I0
sg42
I0
sg43
I0
sg22
I0
sg44
I0
sg21
I0
sg45
I0
ssg20
(dp90
g18
I0
sg22
I0
sg31
I0
sg10
I0
sg15
I0
sg21
I0
sg24
I0
sg25
I0
sg17
I0
sg9
I0
sg26
I0
sg28
I0
sg8
I0
sg13
I0
sg14
I0
sg12
I0
sg29
I0
sg27
I0
sg16
I0
sg11
I0
sg23
I2
sg20
I6
sg30
I0
sg19
I0
ssg30
(dp91
g47
I0
sg48
I0
sg49
I0
sg50
I0
sg51
I0
sg52
I0
sg53
I0
sg54
I0
sg30
I0
sg55
I0
sg56
I0
sg31
I0
sg57
I0
ssg19
(dp92
g18
I0
sg22
I0
sg31
I0
sg10
I0
sg15
I0
sg21
I0
sg24
I0
sg25
I0
sg17
I0
sg9
I0
sg26
I0
sg28
I0
sg8
I0
sg13
I0
sg14
I0
sg12
I0
sg29
I0
sg27
I0
sg16
I0
sg11
I0
sg23
I0
sg20
I0
sg30
I1
sg19
I3
sssb.