ccopy_reg
_reconstructor
p0
(cutils.eval
ConfusionMatrix
p1
c__builtin__
object
p2
Ntp3
Rp4
(dp5
S'labels'
p6
(lp7
S'fill.v.01'
p8
aS'pan.n.01'
p9
aS'pan.n.03'
p10
aS'water.n.06'
p11
aS'fill.v.09'
p12
aS'foam.n.01'
p13
aS'mug.n.04'
p14
aS'countenance.n.03'
p15
aS'pitcher.n.02'
p16
aS'milk.n.01'
p17
aS'opening.n.01'
p18
aS'gap.n.03'
p19
aS'batter.n.02'
p20
asS'instanceCount'
p21
I12
sS'matrix'
p22
(dp23
g9
(dp24
g10
I1
ssg14
(dp25
g15
I1
ssg10
(dp26
g10
I0
ssg19
(dp27
g19
I0
ssg15
(dp28
g15
I0
ssg12
(dp29
S'fill.v.01'
p30
I1
sg12
I0
ssg11
(dp31
S'water.n.06'
p32
I1
ssg8
(dp33
g12
I1
sS'fill.v.01'
p34
I2
ssg16
(dp35
S'pitcher.n.02'
p36
I1
ssg20
(dp37
S'batter.n.02'
p38
I1
ssg13
(dp39
S'foam.n.01'
p40
I1
ssg17
(dp41
S'milk.n.01'
p42
I1
ssg18
(dp43
g19
I1
sssb.