ccopy_reg
_reconstructor
p0
(cutils.eval
ConfusionMatrix
p1
c__builtin__
object
p2
Ntp3
Rp4
(dp5
S'labels'
p6
(lp7
S'meat.n.01'
p8
aS'slice.v.03'
p9
aS'cleaver.n.01'
p10
aS'tomato.n.01'
p11
aS'knife.n.01'
p12
aS'egg.n.02'
p13
aS'piece.n.08'
p14
aS'vegetable.n.01'
p15
aS'orange.n.01'
p16
aS'bread.n.01'
p17
aS'cheese.n.01'
p18
aS'zucchini.n.01'
p19
aS'zucchini.n.02'
p20
aS'flesh.n.01'
p21
aS'pulp.n.02'
p22
aS'cabbage.n.01'
p23
aS'lemon.n.01'
p24
aS'green_onion.n.01'
p25
aS'pizza.n.01'
p26
aS'mushroom.n.05'
p27
asS'instanceCount'
p28
I36
sS'matrix'
p29
(dp30
g27
(dp31
S'mushroom.n.05'
p32
I1
ssg9
(dp33
S'slice.v.03'
p34
I14
ssg15
(dp35
S'vegetable.n.01'
p36
I1
ssg12
(dp37
S'knife.n.01'
p38
I4
ssg18
(dp39
S'cheese.n.01'
p40
I1
ssg13
(dp41
S'egg.n.02'
p42
I1
ssg11
(dp43
S'tomato.n.01'
p44
I1
ssg21
(dp45
g22
I1
ssg17
(dp46
S'bread.n.01'
p47
I1
ssg16
(dp48
S'orange.n.01'
p49
I1
ssg20
(dp50
g20
I0
ssg8
(dp51
S'meat.n.01'
p52
I1
ssg24
(dp53
S'lemon.n.01'
p54
I1
ssg19
(dp55
g20
I1
ssg23
(dp56
S'cabbage.n.01'
p57
I1
ssg14
(dp58
S'piece.n.08'
p59
I3
ssg26
(dp60
S'pizza.n.01'
p61
I1
ssg25
(dp62
S'green_onion.n.01'
p63
I1
ssg22
(dp64
g22
I0
ssg10
(dp65
S'cleaver.n.01'
p66
I1
sssb.