ccopy_reg
_reconstructor
p0
(cutils.eval
ConfusionMatrix
p1
c__builtin__
object
p2
Ntp3
Rp4
(dp5
S'labels'
p6
(lp7
S'slice.v.03'
p8
aS'orange.n.01'
p9
aS'piece.n.08'
p10
aS'slice.n.06'
p11
aS'bread.n.01'
p12
aS'knife.n.01'
p13
aS'cheese.n.01'
p14
aS'zucchini.n.01'
p15
aS'zucchini.n.02'
p16
aS'flesh.n.01'
p17
aS'pulp.n.02'
p18
aS'cabbage.n.01'
p19
aS'lemon.n.01'
p20
aS'green_onion.n.01'
p21
aS'pizza.n.01'
p22
aS'mushroom.n.05'
p23
aS'bacon.n.01'
p24
aS'potato.n.01'
p25
aS'olive.n.01'
p26
aS'olive.n.04'
p27
asS'instanceCount'
p28
I33
sS'matrix'
p29
(dp30
g23
(dp31
S'mushroom.n.05'
p32
I1
ssg8
(dp33
S'slice.v.03'
p34
I14
ssg26
(dp35
g27
I1
ssg13
(dp36
S'knife.n.01'
p37
I2
ssg27
(dp38
g27
I0
ssg14
(dp39
S'cheese.n.01'
p40
I1
ssg25
(dp41
S'potato.n.01'
p42
I1
ssg17
(dp43
g18
I1
ssg11
(dp44
g11
I0
ssg24
(dp45
S'bacon.n.01'
p46
I1
ssg12
(dp47
S'bread.n.01'
p48
I1
ssg9
(dp49
S'orange.n.01'
p50
I1
ssg16
(dp51
g16
I0
ssg20
(dp52
S'lemon.n.01'
p53
I2
ssg15
(dp54
g16
I1
ssg19
(dp55
S'cabbage.n.01'
p56
I1
ssg10
(dp57
S'piece.n.08'
p58
I1
sg11
I2
ssg22
(dp59
S'pizza.n.01'
p60
I1
ssg21
(dp61
S'green_onion.n.01'
p62
I1
ssg18
(dp63
g18
I0
sssb.