ccopy_reg
_reconstructor
p0
(cutils.eval
ConfusionMatrix
p1
c__builtin__
object
p2
Ntp3
Rp4
(dp5
S'labels'
p6
(lp7
S'wok.n.01'
p8
aS'fill.v.01'
p9
aS'rice.n.01'
p10
aS'pot.n.01'
p11
aS'water.n.06'
p12
aS'whiskey.n.01'
p13
aS'carafe.n.01'
p14
aS'jar.n.01'
p15
aS'teapot.n.01'
p16
aS'kettle.n.01'
p17
aS'thermos.n.01'
p18
aS'coffee.n.01'
p19
aS'cup.n.01'
p20
aS'cola.n.02'
p21
aS'ice.n.01'
p22
aS'ice.n.05'
p23
aS'bowl.n.01'
p24
aS'pan.n.01'
p25
aS'pan.n.03'
p26
asS'instanceCount'
p27
I29
sS'matrix'
p28
(dp29
g25
(dp30
g26
I1
ssg26
(dp31
g26
I0
ssg18
(dp32
S'thermos.n.01'
p33
I1
ssg21
(dp34
S'cola.n.02'
p35
I1
ssg16
(dp36
S'teapot.n.01'
p37
I1
ssg8
(dp38
S'wok.n.01'
p39
I1
ssg19
(dp40
S'coffee.n.01'
p41
I1
ssg10
(dp42
S'rice.n.01'
p43
I1
ssg11
(dp44
S'pot.n.01'
p45
I1
ssg12
(dp46
S'water.n.06'
p47
I4
ssg9
(dp48
S'fill.v.01'
p49
I10
ssg22
(dp50
g23
I1
ssg24
(dp51
S'bowl.n.01'
p52
I1
ssg17
(dp53
S'kettle.n.01'
p54
I1
ssg23
(dp55
g23
I0
ssg15
(dp56
S'jar.n.01'
p57
I1
ssg20
(dp58
S'cup.n.01'
p59
I1
ssg14
(dp60
S'carafe.n.01'
p61
I1
ssg13
(dp62
S'whiskey.n.01'
p63
I1
sssb.