ccopy_reg
_reconstructor
p0
(cutils.eval
ConfusionMatrix
p1
c__builtin__
object
p2
Ntp3
Rp4
(dp5
S'labels'
p6
(lp7
S'ice.n.01'
p8
aS'ice.n.05'
p9
aS'fill.v.01'
p10
aS'bowl.n.01'
p11
aS'pan.n.01'
p12
aS'pan.n.03'
p13
aS'water.n.06'
p14
aS'bottle.n.01'
p15
aS'fruit_juice.n.01'
p16
aS'saltcellar.n.01'
p17
aS'salt.n.02'
p18
aS'measuring_cup.n.01'
p19
aS'meal.n.03'
p20
aS'opening.n.01'
p21
aS'opening.n.10'
p22
aS'fill.v.09'
p23
aS'curd.n.01'
p24
aS'jar.n.01'
p25
aS'gravy.n.01'
p26
aS'gravy.n.02'
p27
aS'glass.n.02'
p28
aS'milk.n.01'
p29
aS'gap.n.03'
p30
aS'batter.n.02'
p31
aS'blender.n.01'
p32
aS'apple.n.01'
p33
asS'instanceCount'
p34
I30
sS'matrix'
p35
(dp36
g11
(dp37
S'bowl.n.01'
p38
I1
ssg31
(dp39
S'batter.n.02'
p40
I1
ssg33
(dp41
S'apple.n.01'
p42
I1
ssg22
(dp43
g22
I0
ssg29
(dp44
S'milk.n.01'
p45
I1
ssg12
(dp46
g13
I1
ssg13
(dp47
g13
I0
ssg30
(dp48
g30
I0
ssg17
(dp49
S'saltcellar.n.01'
p50
I1
ssg15
(dp51
S'bottle.n.01'
p52
I1
ssg10
(dp53
S'fill.v.01'
p54
I8
ssg19
(dp55
S'measuring_cup.n.01'
p56
I1
ssg28
(dp57
S'glass.n.02'
p58
I1
ssg26
(dp59
g27
I1
ssg18
(dp60
S'salt.n.02'
p61
I1
ssg27
(dp62
g27
I0
ssg21
(dp63
g22
I1
sg30
I1
ssg16
(dp64
S'fruit_juice.n.01'
p65
I1
ssg32
(dp66
S'blender.n.01'
p67
I1
ssg23
(dp68
S'fill.v.01'
p69
I2
ssg14
(dp70
S'water.n.06'
p71
I1
ssg8
(dp72
g9
I1
ssg9
(dp73
g9
I0
ssg24
(dp74
S'curd.n.01'
p75
I1
ssg25
(dp76
S'jar.n.01'
p77
I1
ssg20
(dp78
S'meal.n.03'
p79
I1
sssb.