ccopy_reg
_reconstructor
p0
(cutils.eval
ConfusionMatrix
p1
c__builtin__
object
p2
Ntp3
Rp4
(dp5
S'labels'
p6
(lp7
S'fill.v.01'
p8
aS'teapot.n.01'
p9
aS'water.n.06'
p10
aS'kettle.n.01'
p11
aS'thermos.n.01'
p12
aS'coffee.n.01'
p13
aS'cup.n.01'
p14
aS'cola.n.02'
p15
aS'ice.n.01'
p16
aS'ice.n.05'
p17
aS'bowl.n.01'
p18
aS'pan.n.01'
p19
aS'pan.n.03'
p20
aS'bottle.n.01'
p21
aS'fruit_juice.n.01'
p22
aS'saltcellar.n.01'
p23
aS'salt.n.02'
p24
aS'measuring_cup.n.01'
p25
aS'meal.n.03'
p26
aS'opening.n.01'
p27
aS'opening.n.10'
p28
aS'fill.v.09'
p29
aS'curd.n.01'
p30
asS'instanceCount'
p31
I30
sS'matrix'
p32
(dp33
g18
(dp34
S'bowl.n.01'
p35
I1
ssg28
(dp36
g28
I0
ssg14
(dp37
S'cup.n.01'
p38
I1
ssg19
(dp39
g20
I1
ssg20
(dp40
g20
I0
ssg15
(dp41
S'cola.n.02'
p42
I1
ssg23
(dp43
S'saltcellar.n.01'
p44
I1
ssg21
(dp45
S'bottle.n.01'
p46
I1
ssg8
(dp47
S'fill.v.01'
p48
I9
ssg29
(dp49
S'fill.v.01'
p50
I1
ssg25
(dp51
S'measuring_cup.n.01'
p52
I1
ssg24
(dp53
S'salt.n.02'
p54
I1
ssg13
(dp55
S'coffee.n.01'
p56
I1
ssg27
(dp57
g28
I1
ssg22
(dp58
S'fruit_juice.n.01'
p59
I1
ssg9
(dp60
S'teapot.n.01'
p61
I1
ssg12
(dp62
S'thermos.n.01'
p63
I1
ssg10
(dp64
S'water.n.06'
p65
I3
ssg16
(dp66
g17
I1
ssg11
(dp67
S'kettle.n.01'
p68
I1
ssg17
(dp69
g17
I0
ssg30
(dp70
S'curd.n.01'
p71
I1
ssg26
(dp72
S'meal.n.03'
p73
I1
sssb.