ccopy_reg
_reconstructor
p0
(cutils.eval
ConfusionMatrix
p1
c__builtin__
object
p2
Ntp3
Rp4
(dp5
S'labels'
p6
(lp7
S'opening.n.01'
p8
aS'gap.n.03'
p9
aS'fill.v.09'
p10
aS'fill.v.01'
p11
aS'batter.n.02'
p12
aS'blender.n.01'
p13
aS'apple.n.01'
p14
aS'foam.n.01'
p15
aS'mug.n.04'
p16
aS'pitcher.n.02'
p17
aS'milk.n.01'
p18
aS'wok.n.01'
p19
aS'rice.n.01'
p20
aS'pot.n.01'
p21
aS'water.n.06'
p22
aS'whiskey.n.01'
p23
aS'carafe.n.01'
p24
aS'jar.n.01'
p25
aS'teapot.n.01'
p26
aS'kettle.n.01'
p27
asS'instanceCount'
p28
I29
sS'matrix'
p29
(dp30
g16
(dp31
S'mug.n.04'
p32
I1
ssg20
(dp33
S'rice.n.01'
p34
I1
ssg9
(dp35
g9
I0
ssg10
(dp36
g11
I1
ssg19
(dp37
S'wok.n.01'
p38
I1
ssg13
(dp39
S'blender.n.01'
p40
I1
ssg21
(dp41
S'pot.n.01'
p42
I1
ssg22
(dp43
S'water.n.06'
p44
I3
ssg11
(dp45
g11
I9
ssg17
(dp46
S'pitcher.n.02'
p47
I1
ssg27
(dp48
S'kettle.n.01'
p49
I1
ssg12
(dp50
S'batter.n.02'
p51
I1
ssg26
(dp52
S'teapot.n.01'
p53
I1
ssg14
(dp54
S'apple.n.01'
p55
I1
ssg25
(dp56
S'jar.n.01'
p57
I1
ssg15
(dp58
S'foam.n.01'
p59
I1
ssg24
(dp60
S'carafe.n.01'
p61
I1
ssg18
(dp62
S'milk.n.01'
p63
I1
ssg23
(dp64
S'whiskey.n.01'
p65
I1
ssg8
(dp66
g9
I1
sssb.