ccopy_reg
_reconstructor
p0
(cutils.eval
ConfusionMatrix
p1
c__builtin__
object
p2
Ntp3
Rp4
(dp5
S'labels'
p6
(lp7
S'fill.v.01'
p8
aS'whiskey.n.01'
p9
aS'carafe.n.01'
p10
aS'jar.n.01'
p11
aS'teapot.n.01'
p12
aS'water.n.06'
p13
aS'kettle.n.01'
p14
aS'thermos.n.01'
p15
aS'coffee.n.01'
p16
aS'cup.n.01'
p17
aS'cola.n.02'
p18
aS'ice.n.01'
p19
aS'ice.n.05'
p20
aS'bowl.n.01'
p21
aS'pan.n.01'
p22
aS'pan.n.03'
p23
aS'bottle.n.01'
p24
aS'fruit_juice.n.01'
p25
aS'saltcellar.n.01'
p26
aS'salt.n.02'
p27
asS'instanceCount'
p28
I29
sS'matrix'
p29
(dp30
g22
(dp31
g23
I1
ssg27
(dp32
S'salt.n.02'
p33
I1
ssg23
(dp34
g23
I0
ssg18
(dp35
S'cola.n.02'
p36
I1
ssg12
(dp37
S'teapot.n.01'
p38
I1
ssg26
(dp39
S'saltcellar.n.01'
p40
I1
ssg24
(dp41
S'bottle.n.01'
p42
I1
ssg25
(dp43
S'fruit_juice.n.01'
p44
I1
ssg15
(dp45
S'thermos.n.01'
p46
I1
ssg16
(dp47
S'coffee.n.01'
p48
I1
ssg13
(dp49
S'water.n.06'
p50
I3
ssg8
(dp51
S'fill.v.01'
p52
I10
ssg19
(dp53
g20
I1
ssg21
(dp54
S'bowl.n.01'
p55
I1
ssg14
(dp56
S'kettle.n.01'
p57
I1
ssg20
(dp58
g20
I0
ssg11
(dp59
S'jar.n.01'
p60
I1
ssg17
(dp61
S'cup.n.01'
p62
I1
ssg10
(dp63
S'carafe.n.01'
p64
I1
ssg9
(dp65
S'whiskey.n.01'
p66
I1
sssb.