ccopy_reg
_reconstructor
p0
(cutils.eval
ConfusionMatrix
p1
c__builtin__
object
p2
Ntp3
Rp4
(dp5
S'labels'
p6
(lp7
S'jar.n.01'
p8
aS'fill.v.01'
p9
aS'gravy.n.01'
p10
aS'gravy.n.02'
p11
aS'glass.n.02'
p12
aS'milk.n.01'
p13
aS'opening.n.01'
p14
aS'gap.n.03'
p15
aS'fill.v.09'
p16
aS'batter.n.02'
p17
aS'blender.n.01'
p18
aS'apple.n.01'
p19
aS'foam.n.01'
p20
aS'mug.n.04'
p21
aS'pitcher.n.02'
p22
aS'wok.n.01'
p23
aS'rice.n.01'
p24
aS'pot.n.01'
p25
aS'water.n.06'
p26
aS'whiskey.n.01'
p27
aS'carafe.n.01'
p28
asS'instanceCount'
p29
I29
sS'matrix'
p30
(dp31
g10
(dp32
g11
I1
ssg21
(dp33
S'mug.n.04'
p34
I1
ssg11
(dp35
g11
I0
ssg15
(dp36
g15
I0
ssg24
(dp37
S'rice.n.01'
p38
I1
ssg16
(dp39
S'fill.v.01'
p40
I1
ssg23
(dp41
S'wok.n.01'
p42
I1
ssg18
(dp43
S'blender.n.01'
p44
I1
ssg25
(dp45
S'pot.n.01'
p46
I1
ssg26
(dp47
S'water.n.06'
p48
I1
ssg9
(dp49
S'fill.v.01'
p50
I9
ssg27
(dp51
S'whiskey.n.01'
p52
I1
ssg22
(dp53
S'pitcher.n.02'
p54
I1
ssg17
(dp55
S'batter.n.02'
p56
I1
ssg19
(dp57
S'apple.n.01'
p58
I1
ssg8
(dp59
S'jar.n.01'
p60
I2
ssg20
(dp61
S'foam.n.01'
p62
I1
ssg28
(dp63
S'carafe.n.01'
p64
I1
ssg13
(dp65
S'milk.n.01'
p66
I2
ssg12
(dp67
S'glass.n.02'
p68
I1
ssg14
(dp69
g15
I1
sssb.