ccopy_reg
_reconstructor
p0
(cutils.eval
ConfusionMatrix
p1
c__builtin__
object
p2
Ntp3
Rp4
(dp5
S'labels'
p6
(lp7
S'pan.n.03'
p8
aS'add.v.01'
p9
aS'butter.n.01'
p10
aS'rib.n.03'
p11
aS'egg.n.02'
p12
aS'mixing_bowl.n.01'
p13
aS'sugar.n.01'
p14
aS'vanilla.n.02'
p15
asS'instanceCount'
p16
I48
sS'matrix'
p17
(dp18
g8
(dp19
S'pan.n.03'
p20
I6
ssg11
(dp21
S'rib.n.03'
p22
I4
ssg12
(dp23
S'egg.n.02'
p24
I2
ssg10
(dp25
S'butter.n.01'
p26
I10
ssg13
(dp27
S'mixing_bowl.n.01'
p28
I4
ssg15
(dp29
S'vanilla.n.02'
p30
I2
ssg9
(dp31
S'add.v.01'
p32
I16
ssg14
(dp33
S'sugar.n.01'
p34
I4
sssb.