ccopy_reg
_reconstructor
p0
(cutils.eval
ConfusionMatrix
p1
c__builtin__
object
p2
Ntp3
Rp4
(dp5
S'labels'
p6
(lp7
S'jar.n.01'
p8
aS'fill.v.01'
p9
aS'gravy.n.01'
p10
aS'gravy.n.02'
p11
aS'kettle.n.01'
p12
aS'water.n.06'
p13
aS'wok.n.01'
p14
aS'rice.n.01'
p15
aS'opening.n.01'
p16
aS'opening.n.10'
p17
aS'fill.v.09'
p18
aS'curd.n.01'
p19
aS'teapot.n.01'
p20
aS'thermos.n.01'
p21
aS'coffee.n.01'
p22
aS'cup.n.01'
p23
aS'cola.n.02'
p24
aS'pitcher.n.02'
p25
aS'milk.n.01'
p26
aS'pot.n.01'
p27
aS'pan.n.03'
p28
aS'ice.n.01'
p29
aS'methamphetamine.n.01'
p30
aS'bowl.n.01'
p31
aS'bowl.n.08'
p32
asS'instanceCount'
p33
I35
sS'matrix'
p34
(dp35
g21
(dp36
S'thermos.n.01'
p37
I1
ssg30
(dp38
g30
I0
ssg31
(dp39
g32
I1
ssg17
(dp40
g17
I0
ssg23
(dp41
S'cup.n.01'
p42
I1
ssg26
(dp43
S'milk.n.01'
p44
I1
ssg28
(dp45
S'pan.n.03'
p46
I1
ssg32
(dp47
g32
I0
ssg24
(dp48
S'cola.n.02'
p49
I1
ssg18
(dp50
S'fill.v.01'
p51
I1
ssg27
(dp52
S'pot.n.01'
p53
I1
ssg9
(dp54
S'fill.v.01'
p55
I11
ssg25
(dp56
S'pitcher.n.02'
p57
I1
ssg10
(dp58
g11
I1
ssg11
(dp59
g11
I0
ssg14
(dp60
S'wok.n.01'
p61
I1
ssg22
(dp62
S'coffee.n.01'
p63
I1
ssg16
(dp64
g17
I1
ssg20
(dp65
S'teapot.n.01'
p66
I1
ssg15
(dp67
S'rice.n.01'
p68
I1
ssg13
(dp69
S'water.n.06'
p70
I4
ssg29
(dp71
g30
I1
ssg12
(dp72
S'kettle.n.01'
p73
I1
ssg19
(dp74
S'curd.n.01'
p75
I1
ssg8
(dp76
S'jar.n.01'
p77
I2
sssb.