ccopy_reg
_reconstructor
p0
(cutils.eval
ConfusionMatrix
p1
c__builtin__
object
p2
Ntp3
Rp4
(dp5
S'labels'
p6
(lp7
S'opening.n.01'
p8
aS'gap.n.03'
p9
aS'fill.v.09'
p10
aS'fill.v.01'
p11
aS'batter.n.02'
p12
aS'whiskey.n.01'
p13
aS'carafe.n.01'
p14
aS'blender.n.01'
p15
aS'apple.n.01'
p16
aS'glass.n.02'
p17
aS'milk.n.01'
p18
aS'foam.n.01'
p19
aS'mug.n.04'
p20
aS'measuring_cup.n.01'
p21
aS'meal.n.03'
p22
aS'bottle.n.01'
p23
aS'fruit_juice.n.01'
p24
aS'saltcellar.n.01'
p25
aS'salt.n.02'
p26
aS'jar.n.01'
p27
aS'gravy.n.01'
p28
aS'gravy.n.02'
p29
aS'kettle.n.01'
p30
aS'water.n.06'
p31
aS'wok.n.01'
p32
aS'rice.n.01'
p33
aS'opening.n.10'
p34
aS'curd.n.01'
p35
asS'instanceCount'
p36
I36
sS'matrix'
p37
(dp38
g33
(dp39
S'rice.n.01'
p40
I1
ssg12
(dp41
S'batter.n.02'
p42
I1
ssg34
(dp43
g34
I0
ssg16
(dp44
S'apple.n.01'
p45
I1
ssg19
(dp46
S'foam.n.01'
p47
I1
ssg18
(dp48
S'milk.n.01'
p49
I1
ssg9
(dp50
g9
I0
ssg10
(dp51
g11
I2
ssg23
(dp52
S'bottle.n.01'
p53
I1
ssg11
(dp54
g11
I10
ssg21
(dp55
S'measuring_cup.n.01'
p56
I1
ssg17
(dp57
S'glass.n.02'
p58
I1
ssg28
(dp59
g29
I1
ssg26
(dp60
S'salt.n.02'
p61
I1
ssg29
(dp62
g29
I0
ssg32
(dp63
S'wok.n.01'
p64
I1
ssg13
(dp65
S'whiskey.n.01'
p66
I1
ssg8
(dp67
g34
I1
sg9
I1
ssg20
(dp68
S'mug.n.04'
p69
I1
ssg24
(dp70
S'fruit_juice.n.01'
p71
I1
ssg15
(dp72
S'blender.n.01'
p73
I1
ssg25
(dp74
S'saltcellar.n.01'
p75
I1
ssg31
(dp76
S'water.n.06'
p77
I1
ssg30
(dp78
S'kettle.n.01'
p79
I1
ssg35
(dp80
S'curd.n.01'
p81
I1
ssg27
(dp82
S'jar.n.01'
p83
I1
ssg14
(dp84
S'carafe.n.01'
p85
I1
ssg22
(dp86
S'meal.n.03'
p87
I1
sssb.