ccopy_reg
_reconstructor
p0
(cutils.eval
ConfusionMatrix
p1
c__builtin__
object
p2
Ntp3
Rp4
(dp5
S'labels'
p6
(lp7
S'wok.n.01'
p8
aS'fill.v.01'
p9
aS'rice.n.01'
p10
aS'opening.n.01'
p11
aS'opening.n.10'
p12
aS'fill.v.09'
p13
aS'curd.n.01'
p14
aS'teapot.n.01'
p15
aS'water.n.06'
p16
aS'thermos.n.01'
p17
aS'coffee.n.01'
p18
aS'cup.n.01'
p19
aS'cola.n.02'
p20
aS'pitcher.n.02'
p21
aS'milk.n.01'
p22
aS'pot.n.01'
p23
aS'pan.n.03'
p24
aS'jar.n.01'
p25
aS'ice.n.01'
p26
aS'ice.n.05'
p27
aS'bowl.n.01'
p28
aS'gap.n.03'
p29
aS'batter.n.02'
p30
aS'whiskey.n.01'
p31
aS'carafe.n.01'
p32
asS'instanceCount'
p33
I35
sS'matrix'
p34
(dp35
g10
(dp36
S'rice.n.01'
p37
I1
ssg28
(dp38
S'bowl.n.01'
p39
I1
ssg30
(dp40
S'batter.n.02'
p41
I1
ssg12
(dp42
g12
I0
ssg19
(dp43
S'cup.n.01'
p44
I1
ssg22
(dp45
S'milk.n.01'
p46
I1
ssg24
(dp47
S'pan.n.03'
p48
I1
ssg20
(dp49
S'cola.n.02'
p50
I1
ssg29
(dp51
g29
I0
ssg13
(dp52
S'fill.v.01'
p53
I2
ssg23
(dp54
S'pot.n.01'
p55
I1
ssg9
(dp56
S'fill.v.01'
p57
I10
ssg21
(dp58
S'pitcher.n.02'
p59
I1
ssg8
(dp60
S'wok.n.01'
p61
I1
ssg18
(dp62
S'coffee.n.01'
p63
I1
ssg31
(dp64
S'whiskey.n.01'
p65
I1
ssg11
(dp66
g12
I1
sg29
I1
ssg15
(dp67
S'teapot.n.01'
p68
I1
ssg17
(dp69
S'thermos.n.01'
p70
I1
ssg16
(dp71
S'water.n.06'
p72
I3
ssg26
(dp73
g27
I1
ssg27
(dp74
g27
I0
ssg14
(dp75
S'curd.n.01'
p76
I1
ssg25
(dp77
S'jar.n.01'
p78
I1
ssg32
(dp79
S'carafe.n.01'
p80
I1
sssb.