ccopy_reg
_reconstructor
p0
(cutils.eval
ConfusionMatrix
p1
c__builtin__
object
p2
Ntp3
Rp4
(dp5
S'labels'
p6
(lp7
S'jar.n.01'
p8
aS'fill.v.01'
p9
aS'ice.n.01'
p10
aS'ice.n.05'
p11
aS'bowl.n.01'
p12
aS'opening.n.01'
p13
aS'gap.n.03'
p14
aS'fill.v.09'
p15
aS'batter.n.02'
p16
aS'whiskey.n.01'
p17
aS'carafe.n.01'
p18
aS'blender.n.01'
p19
aS'apple.n.01'
p20
aS'glass.n.02'
p21
aS'milk.n.01'
p22
aS'foam.n.01'
p23
aS'mug.n.04'
p24
aS'measuring_cup.n.01'
p25
aS'meal.n.03'
p26
aS'bottle.n.01'
p27
aS'fruit_juice.n.01'
p28
aS'saltcellar.n.01'
p29
aS'salt.n.02'
p30
aS'gravy.n.01'
p31
aS'gravy.n.02'
p32
aS'kettle.n.01'
p33
aS'water.n.06'
p34
asS'instanceCount'
p35
I35
sS'matrix'
p36
(dp37
g12
(dp38
S'bowl.n.01'
p39
I1
ssg16
(dp40
S'batter.n.02'
p41
I1
ssg20
(dp42
S'apple.n.01'
p43
I1
ssg23
(dp44
S'foam.n.01'
p45
I1
ssg22
(dp46
S'milk.n.01'
p47
I1
ssg14
(dp48
g14
I0
ssg15
(dp49
S'fill.v.01'
p50
I1
ssg27
(dp51
S'bottle.n.01'
p52
I1
ssg9
(dp53
S'fill.v.01'
p54
I11
ssg25
(dp55
S'measuring_cup.n.01'
p56
I1
ssg21
(dp57
S'glass.n.02'
p58
I1
ssg31
(dp59
g32
I1
ssg30
(dp60
S'salt.n.02'
p61
I1
ssg32
(dp62
g32
I0
ssg17
(dp63
S'whiskey.n.01'
p64
I1
ssg13
(dp65
g14
I1
ssg24
(dp66
S'mug.n.04'
p67
I1
ssg28
(dp68
S'fruit_juice.n.01'
p69
I1
ssg19
(dp70
S'blender.n.01'
p71
I1
ssg29
(dp72
S'saltcellar.n.01'
p73
I1
ssg34
(dp74
S'water.n.06'
p75
I1
ssg10
(dp76
g11
I1
ssg33
(dp77
S'kettle.n.01'
p78
I1
ssg11
(dp79
g11
I0
ssg8
(dp80
S'jar.n.01'
p81
I2
ssg18
(dp82
S'carafe.n.01'
p83
I1
ssg26
(dp84
S'meal.n.03'
p85
I1
sssb.