ccopy_reg
_reconstructor
p0
(cutils.eval
ConfusionMatrix
p1
c__builtin__
object
p2
Ntp3
Rp4
(dp5
S'labels'
p6
(lp7
S'fill.v.01'
p8
aS'foam.n.01'
p9
aS'mug.n.04'
p10
aS'measuring_cup.n.01'
p11
aS'meal.n.03'
p12
aS'bottle.n.01'
p13
aS'fruit_juice.n.01'
p14
aS'saltcellar.n.01'
p15
aS'salt.n.02'
p16
aS'jar.n.01'
p17
aS'gravy.n.01'
p18
aS'gravy.n.02'
p19
aS'kettle.n.01'
p20
aS'water.n.06'
p21
aS'wok.n.01'
p22
aS'rice.n.01'
p23
aS'opening.n.01'
p24
aS'opening.n.10'
p25
aS'fill.v.09'
p26
aS'curd.n.01'
p27
aS'teapot.n.01'
p28
aS'thermos.n.01'
p29
aS'coffee.n.01'
p30
aS'cup.n.01'
p31
aS'cola.n.02'
p32
aS'pitcher.n.02'
p33
aS'milk.n.01'
p34
aS'pot.n.01'
p35
aS'pan.n.03'
p36
aS'ice.n.01'
p37
aS'ice.n.05'
p38
aS'bowl.n.01'
p39
aS'bowl.n.08'
p40
aS'gap.n.03'
p41
aS'batter.n.02'
p42
aS'whiskey.n.01'
p43
aS'carafe.n.01'
p44
aS'blender.n.01'
p45
aS'apple.n.01'
p46
aS'glass.n.02'
p47
aS'methamphetamine.n.01'
p48
asS'instanceCount'
p49
I354
sS'matrix'
p50
(dp51
g29
(dp52
g23
I0
sg48
I0
sg39
I0
sg42
I0
sg46
I0
sg25
I0
sg9
I0
sg34
I0
sg36
I0
sg40
I0
sg32
I0
sg41
I0
sg15
I0
sg13
I0
sg35
I0
sg8
I0
sg26
I0
sg11
I0
sg47
I0
sg18
I0
sg16
I0
sg19
I0
sg22
I0
sg30
I0
sg43
I0
sg24
I0
sg10
I0
sg14
I0
sg28
I0
sg45
I0
sg29
I6
sg21
I0
sg37
I0
sg31
I0
sg20
I0
sg38
I0
sg27
I0
sg17
I0
sg44
I0
sg33
I0
sg12
I0
ssg48
(dp53
S'thermos.n.01'
p54
I0
sg48
I0
sS'bowl.n.01'
p55
I0
sS'opening.n.10'
p56
I0
sS'cup.n.01'
p57
I0
sS'milk.n.01'
p58
I0
sS'pan.n.03'
p59
I0
sS'bowl.n.08'
p60
I0
sS'cola.n.02'
p61
I0
sS'fill.v.09'
p62
I0
sS'pot.n.01'
p63
I0
sS'fill.v.01'
p64
I0
sS'pitcher.n.02'
p65
I0
sS'gravy.n.01'
p66
I0
sS'gravy.n.02'
p67
I0
sS'wok.n.01'
p68
I0
sS'coffee.n.01'
p69
I0
sS'opening.n.01'
p70
I0
sS'teapot.n.01'
p71
I0
sS'rice.n.01'
p72
I0
sS'water.n.06'
p73
I0
sS'ice.n.01'
p74
I0
sS'kettle.n.01'
p75
I0
sS'curd.n.01'
p76
I0
sS'jar.n.01'
p77
I0
ssg39
(dp78
S'saltcellar.n.01'
p79
I0
sg72
I0
sg48
I0
sg39
I4
sg42
I0
sg56
I0
sg46
I0
sg40
I2
sS'milk.n.01'
p80
I0
sg36
I0
sS'foam.n.01'
p81
I0
sS'cola.n.02'
p82
I0
sg41
I0
sS'fill.v.09'
p83
I0
sS'bottle.n.01'
p84
I0
sg35
I0
sS'fill.v.01'
p85
I0
sS'pitcher.n.02'
p86
I0
sS'measuring_cup.n.01'
p87
I0
sg47
I0
sg66
I0
sS'salt.n.02'
p88
I0
sg67
I0
sg68
I0
sS'coffee.n.01'
p89
I0
sg43
I0
sS'opening.n.01'
p90
I0
sS'mug.n.04'
p91
I0
sS'fruit_juice.n.01'
p92
I0
sS'teapot.n.01'
p93
I0
sg45
I0
sS'thermos.n.01'
p94
I0
sS'water.n.06'
p95
I0
sg37
I0
sS'cup.n.01'
p96
I0
sg75
I0
sg38
I0
sg76
I0
sS'jar.n.01'
p97
I0
sg44
I0
sS'meal.n.03'
p98
I0
ssg42
(dp99
S'saltcellar.n.01'
p100
I0
sS'rice.n.01'
p101
I0
sg39
I0
sg42
I6
sS'opening.n.10'
p102
I0
sg46
I0
sg40
I0
sg80
I0
sg36
I0
sS'foam.n.01'
p103
I0
sg82
I0
sg41
I0
sg83
I0
sS'bottle.n.01'
p104
I0
sg35
I0
sg85
I0
sg86
I0
sS'measuring_cup.n.01'
p105
I0
sg47
I0
sS'gravy.n.01'
p106
I0
sS'salt.n.02'
p107
I0
sS'gravy.n.02'
p108
I0
sS'wok.n.01'
p109
I0
sg89
I0
sg43
I0
sg90
I0
sS'mug.n.04'
p110
I0
sS'fruit_juice.n.01'
p111
I0
sg93
I0
sg45
I0
sg94
I0
sg95
I0
sg37
I0
sg96
I0
sS'kettle.n.01'
p112
I0
sg38
I0
sS'curd.n.01'
p113
I0
sg97
I0
sg44
I0
sS'meal.n.03'
p114
I0
ssg46
(dp115
g100
I0
sS'rice.n.01'
p116
I0
sg39
I0
sg42
I0
sS'opening.n.10'
p117
I0
sg46
I6
sg40
I0
sg80
I0
sg36
I0
sg103
I0
sg82
I0
sg41
I0
sg83
I0
sg104
I0
sg35
I0
sg85
I0
sg86
I0
sg105
I0
sg47
I0
sg106
I0
sg107
I0
sg108
I0
sS'wok.n.01'
p118
I0
sg89
I0
sg43
I0
sg90
I0
sg110
I0
sg111
I0
sg93
I0
sg45
I0
sg94
I0
sg95
I0
sg37
I0
sg96
I0
sg112
I0
sg38
I0
sS'curd.n.01'
p119
I0
sg97
I0
sg44
I0
sg114
I0
ssg25
(dp120
g29
I0
sg48
I0
sg55
I0
sS'batter.n.02'
p121
I0
sS'apple.n.01'
p122
I0
sg25
I0
sg9
I0
sg34
I0
sg59
I0
sg60
I0
sg32
I0
sS'gap.n.03'
p123
I0
sg15
I0
sg13
I0
sg63
I0
sg8
I0
sg26
I0
sg11
I0
sS'glass.n.02'
p124
I0
sg18
I0
sg16
I0
sg19
I0
sg22
I0
sg30
I0
sS'whiskey.n.01'
p125
I0
sg24
I0
sg10
I0
sg14
I0
sg28
I0
sS'blender.n.01'
p126
I0
sg23
I0
sg21
I0
sg74
I0
sg31
I0
sg20
I0
sS'ice.n.05'
p127
I0
sg27
I0
sg17
I0
sS'carafe.n.01'
p128
I0
sg33
I0
sg12
I0
ssg9
(dp129
g29
I0
sS'bowl.n.01'
p130
I0
sS'batter.n.02'
p131
I0
sg122
I0
sg25
I0
sg9
I6
sg34
I0
sS'pan.n.03'
p132
I0
sg32
I0
sS'gap.n.03'
p133
I0
sg15
I0
sg13
I0
sS'pot.n.01'
p134
I0
sg8
I0
sg26
I0
sg11
I0
sg124
I0
sg18
I0
sg16
I0
sg19
I0
sg22
I0
sg30
I0
sS'whiskey.n.01'
p135
I0
sg24
I0
sg10
I0
sg14
I0
sg28
I0
sg126
I0
sg23
I0
sg21
I0
sS'ice.n.01'
p136
I0
sg31
I0
sg20
I0
sS'ice.n.05'
p137
I0
sg27
I0
sg17
I0
sS'carafe.n.01'
p138
I0
sg33
I0
sg12
I0
ssg34
(dp139
g29
I0
sg48
I0
sg39
I0
sg42
I0
sg46
I0
sg25
I0
sg9
I0
sg34
I12
sg36
I0
sg40
I0
sg32
I0
sg41
I0
sg15
I0
sg13
I0
sg35
I0
sg8
I0
sg26
I0
sg11
I0
sg47
I0
sg18
I0
sg16
I0
sg19
I0
sg22
I0
sg30
I0
sg43
I0
sg24
I0
sg10
I0
sg14
I0
sg28
I0
sg45
I0
sg23
I0
sg21
I0
sg37
I0
sg31
I0
sg20
I0
sg38
I0
sg27
I0
sg17
I0
sg44
I0
sg33
I0
sg12
I0
ssg36
(dp140
S'saltcellar.n.01'
p141
I0
sg72
I0
sg48
I0
sg39
I0
sg42
I0
sg56
I0
sg46
I0
sg40
I0
sg80
I0
sg36
I6
sg81
I0
sg82
I0
sg41
I0
sg83
I0
sS'bottle.n.01'
p142
I0
sg35
I0
sg85
I0
sg86
I0
sg87
I0
sg47
I0
sg66
I0
sS'salt.n.02'
p143
I0
sg67
I0
sg68
I0
sg89
I0
sg43
I0
sg90
I0
sg91
I0
sS'fruit_juice.n.01'
p144
I0
sg93
I0
sg45
I0
sg94
I0
sg95
I0
sg37
I0
sg96
I0
sg75
I0
sg38
I0
sg76
I0
sg97
I0
sg44
I0
sg98
I0
ssg40
(dp145
g72
I0
sg48
I0
sg39
I0
sg42
I0
sg56
I0
sg46
I0
sg96
I0
sg80
I0
sg36
I0
sg40
I0
sg82
I0
sg41
I0
sg83
I0
sg35
I0
sg85
I0
sg86
I0
sg47
I0
sg66
I0
sg67
I0
sg68
I0
sg89
I0
sg43
I0
sg90
I0
sg93
I0
sg45
I0
sg94
I0
sg95
I0
sg37
I0
sg75
I0
sg38
I0
sg76
I0
sg97
I0
sg44
I0
ssg32
(dp146
g29
I0
sg48
I0
sg39
I0
sg42
I0
sg46
I0
sg25
I0
sg9
I0
sg34
I0
sg36
I0
sg40
I0
sg32
I6
sg41
I0
sg15
I0
sg13
I0
sg35
I0
sg8
I0
sg26
I0
sg11
I0
sg47
I0
sg18
I0
sg16
I0
sg19
I0
sg22
I0
sg30
I0
sg43
I0
sg24
I0
sg10
I0
sg14
I0
sg28
I0
sg45
I0
sg23
I0
sg21
I0
sg37
I0
sg31
I0
sg20
I0
sg38
I0
sg27
I0
sg17
I0
sg44
I0
sg33
I0
sg12
I0
ssg41
(dp147
g100
I0
sg101
I0
sg39
I0
sg42
I0
sg102
I0
sg46
I0
sg40
I0
sg80
I0
sg36
I0
sg103
I0
sg82
I0
sg41
I0
sg83
I0
sg104
I0
sg35
I0
sg85
I0
sg86
I0
sg105
I0
sg47
I0
sg106
I0
sg107
I0
sg108
I0
sg109
I0
sg89
I0
sg43
I0
sg90
I0
sg110
I0
sg111
I0
sg93
I0
sg45
I0
sg94
I0
sg95
I0
sg37
I0
sg96
I0
sg112
I0
sg38
I0
sg113
I0
sg97
I0
sg44
I0
sg114
I0
ssg15
(dp148
g29
I0
sg130
I0
sg131
I0
sg122
I0
sg25
I0
sg9
I0
sg34
I0
sS'pan.n.03'
p149
I0
sg32
I0
sg133
I0
sg15
I6
sg13
I0
sS'pot.n.01'
p150
I0
sg8
I0
sg26
I0
sg11
I0
sg124
I0
sg18
I0
sg16
I0
sg19
I0
sg22
I0
sg30
I0
sg135
I0
sg24
I0
sg10
I0
sg14
I0
sg28
I0
sg126
I0
sg23
I0
sg21
I0
sg136
I0
sg31
I0
sg20
I0
sg137
I0
sg27
I0
sg17
I0
sg138
I0
sg33
I0
sg12
I0
ssg13
(dp151
g29
I0
sg130
I0
sg131
I0
sg122
I0
sg25
I0
sg9
I0
sg34
I0
sg149
I0
sg32
I0
sg133
I0
sg15
I0
sg13
I6
sg150
I0
sg8
I0
sg26
I0
sg11
I0
sg124
I0
sg18
I0
sg16
I0
sg19
I0
sg22
I0
sg30
I0
sg135
I0
sg24
I0
sg10
I0
sg14
I0
sg28
I0
sg126
I0
sg23
I0
sg21
I0
sg136
I0
sg31
I0
sg20
I0
sg137
I0
sg27
I0
sg17
I0
sg138
I0
sg33
I0
sg12
I0
ssg35
(dp152
g141
I0
sg72
I0
sg48
I0
sg39
I0
sg42
I0
sg56
I0
sg46
I0
sg40
I0
sg80
I0
sg36
I0
sg81
I0
sg82
I0
sg41
I0
sg83
I0
sg142
I0
sg35
I6
sg85
I0
sg86
I0
sg87
I0
sg47
I0
sg66
I0
sg143
I0
sg67
I0
sg68
I0
sg89
I0
sg43
I0
sg90
I0
sg91
I0
sg144
I0
sg93
I0
sg45
I0
sg94
I0
sg95
I0
sg37
I0
sg96
I0
sg75
I0
sg38
I0
sg76
I0
sg97
I0
sg44
I0
sg98
I0
ssg8
(dp153
g29
I0
sg48
I0
sg39
I0
sg42
I0
sg46
I0
sg25
I0
sg9
I0
sg34
I0
sg36
I0
sg40
I0
sg32
I0
sg41
I0
sg15
I0
sg13
I0
sg35
I0
sg8
I108
sg26
I0
sg11
I0
sg47
I0
sg18
I0
sg16
I0
sg19
I0
sg22
I0
sg30
I0
sg43
I0
sg24
I0
sg10
I0
sg14
I0
sg28
I0
sg45
I0
sg23
I0
sg21
I0
sg37
I0
sg31
I0
sg20
I0
sg38
I0
sg27
I0
sg17
I0
sg44
I0
sg33
I0
sg12
I0
ssg26
(dp154
g29
I0
sg48
I0
sg39
I0
sg42
I0
sg46
I0
sg25
I0
sg9
I0
sg34
I0
sg36
I0
sg40
I0
sg32
I0
sg41
I0
sg26
I0
sg13
I0
sg35
I0
sg8
I12
sg33
I0
sg11
I0
sg47
I0
sg18
I0
sg16
I0
sg19
I0
sg22
I0
sg30
I0
sg43
I0
sg24
I0
sg10
I0
sg14
I0
sg28
I0
sg45
I0
sg15
I0
sg21
I0
sg37
I0
sg31
I0
sg20
I0
sg38
I0
sg27
I0
sg17
I0
sg12
I0
sg44
I0
sg23
I0
ssg11
(dp155
g29
I0
sg130
I0
sg131
I0
sg122
I0
sg25
I0
sg9
I0
sg34
I0
sg132
I0
sg32
I0
sg133
I0
sg15
I0
sg13
I0
sg134
I0
sg8
I0
sg26
I0
sg11
I6
sg124
I0
sg18
I0
sg16
I0
sg19
I0
sg22
I0
sg30
I0
sg135
I0
sg24
I0
sg10
I0
sg14
I0
sg28
I0
sg126
I0
sg23
I0
sg21
I0
sg136
I0
sg31
I0
sg20
I0
sg137
I0
sg27
I0
sg17
I0
sg138
I0
sg33
I0
sg12
I0
ssg47
(dp156
g100
I0
sg116
I0
sg39
I0
sg42
I0
sg117
I0
sg46
I0
sg40
I0
sg80
I0
sg36
I0
sg103
I0
sg82
I0
sg41
I0
sg83
I0
sg104
I0
sg35
I0
sg85
I0
sg86
I0
sg105
I0
sg47
I6
sg106
I0
sg107
I0
sg108
I0
sg118
I0
sg89
I0
sg43
I0
sg90
I0
sg110
I0
sg111
I0
sg93
I0
sg45
I0
sg94
I0
sg95
I0
sg37
I0
sg96
I0
sg112
I0
sg38
I0
sg119
I0
sg97
I0
sg44
I0
sg114
I0
ssg18
(dp157
g29
I0
sg48
I0
sg55
I0
sg131
I0
sg122
I0
sg25
I0
sg9
I0
sg34
I0
sg59
I0
sg60
I0
sg32
I0
sg133
I0
sg15
I0
sg13
I0
sg63
I0
sg8
I0
sg26
I0
sg11
I0
sg124
I0
sg18
I0
sg16
I0
sg19
I6
sg22
I0
sg30
I0
sg135
I0
sg24
I0
sg10
I0
sg14
I0
sg28
I0
sg126
I0
sg23
I0
sg21
I0
sg74
I0
sg31
I0
sg20
I0
sS'ice.n.05'
p158
I0
sg27
I0
sg17
I0
sg138
I0
sg33
I0
sg12
I0
ssg16
(dp159
g29
I0
sg130
I0
sg131
I0
sg122
I0
sg25
I0
sg9
I0
sg34
I0
sg149
I0
sg32
I0
sg133
I0
sg15
I0
sg13
I0
sg150
I0
sg8
I0
sg33
I0
sg11
I0
sg124
I0
sg18
I0
sg16
I6
sg19
I0
sg22
I0
sg30
I0
sg135
I0
sg24
I0
sg10
I0
sg14
I0
sg28
I0
sg126
I0
sg26
I0
sg21
I0
sg136
I0
sg31
I0
sg20
I0
sg137
I0
sg27
I0
sg17
I0
sg12
I0
sg138
I0
sg23
I0
ssg19
(dp160
g29
I0
sg48
I0
sg55
I0
sg131
I0
sg122
I0
sg25
I0
sg9
I0
sg34
I0
sg59
I0
sg60
I0
sg32
I0
sg133
I0
sg15
I0
sg13
I0
sg63
I0
sg8
I0
sg26
I0
sg11
I0
sg124
I0
sg18
I0
sg16
I0
sg19
I0
sg22
I0
sg30
I0
sg135
I0
sg24
I0
sg10
I0
sg14
I0
sg28
I0
sg126
I0
sg23
I0
sg21
I0
sg74
I0
sg31
I0
sg20
I0
sg158
I0
sg27
I0
sg17
I0
sg138
I0
sg33
I0
sg12
I0
ssg22
(dp161
g29
I0
sg48
I0
sg55
I0
sg121
I0
sg122
I0
sg25
I0
sg9
I0
sg34
I0
sg59
I0
sg60
I0
sg32
I0
sg123
I0
sg15
I0
sg13
I0
sg63
I0
sg8
I0
sg26
I0
sg11
I0
sg124
I0
sg18
I0
sg16
I0
sg19
I0
sg22
I6
sg30
I0
sg125
I0
sg24
I0
sg10
I0
sg14
I0
sg28
I0
sg126
I0
sg23
I0
sg21
I0
sg74
I0
sg31
I0
sg20
I0
sg127
I0
sg27
I0
sg17
I0
sg128
I0
sg33
I0
sg12
I0
ssg30
(dp162
g29
I0
sg48
I0
sg39
I0
sg42
I0
sg46
I0
sg25
I0
sg9
I0
sg34
I0
sg36
I0
sg40
I0
sg32
I0
sg41
I0
sg15
I0
sg13
I0
sg35
I0
sg8
I0
sg26
I0
sg11
I0
sg47
I0
sg18
I0
sg16
I0
sg19
I0
sg22
I0
sg30
I6
sg43
I0
sg24
I0
sg10
I0
sg14
I0
sg28
I0
sg45
I0
sg23
I0
sg21
I0
sg37
I0
sg31
I0
sg20
I0
sg38
I0
sg27
I0
sg17
I0
sg44
I0
sg33
I0
sg12
I0
ssg43
(dp163
g100
I0
sg101
I0
sg39
I0
sg42
I0
sg102
I0
sg46
I0
sg40
I0
sg80
I0
sg36
I0
sg103
I0
sg82
I0
sg41
I0
sg83
I0
sg104
I0
sg35
I0
sg85
I0
sg86
I0
sg105
I0
sg47
I0
sg106
I0
sg107
I0
sg108
I0
sg109
I0
sg89
I0
sg43
I6
sg90
I0
sg110
I0
sg111
I0
sg93
I0
sg45
I0
sg94
I0
sg95
I0
sg37
I0
sg96
I0
sg112
I0
sg38
I0
sg113
I0
sg97
I0
sg44
I0
sg114
I0
ssg24
(dp164
g29
I0
sg48
I0
sg39
I0
sg42
I0
sg46
I0
sg25
I6
sg9
I0
sg34
I0
sg36
I0
sg40
I0
sg32
I0
sg41
I6
sg15
I0
sg13
I0
sg35
I0
sg8
I0
sg26
I0
sg11
I0
sg47
I0
sg18
I0
sg16
I0
sg19
I0
sg22
I0
sg30
I0
sg43
I0
sg24
I0
sg10
I0
sg14
I0
sg28
I0
sg45
I0
sg23
I0
sg21
I0
sg37
I0
sg31
I0
sg20
I0
sg38
I0
sg27
I0
sg17
I0
sg44
I0
sg33
I0
sg12
I0
ssg10
(dp165
g29
I0
sg130
I0
sg131
I0
sg122
I0
sg25
I0
sg9
I0
sg34
I0
sg132
I0
sg32
I0
sg133
I0
sg15
I0
sg13
I0
sg134
I0
sg8
I0
sg26
I0
sg11
I0
sg124
I0
sg18
I0
sg16
I0
sg19
I0
sg22
I0
sg30
I0
sg135
I0
sg24
I0
sg10
I6
sg14
I0
sg28
I0
sg126
I0
sg23
I0
sg21
I0
sg136
I0
sg31
I0
sg20
I0
sg137
I0
sg27
I0
sg17
I0
sg138
I0
sg33
I0
sg12
I0
ssg14
(dp166
g29
I0
sg130
I0
sg131
I0
sg122
I0
sg25
I0
sg9
I0
sg34
I0
sg149
I0
sg32
I0
sg133
I0
sg15
I0
sg13
I0
sg150
I0
sg8
I0
sg26
I0
sg11
I0
sg124
I0
sg18
I0
sg16
I0
sg19
I0
sg22
I0
sg30
I0
sg135
I0
sg24
I0
sg10
I0
sg14
I6
sg28
I0
sg126
I0
sg23
I0
sg21
I0
sg136
I0
sg31
I0
sg20
I0
sg137
I0
sg27
I0
sg17
I0
sg138
I0
sg33
I0
sg12
I0
ssg28
(dp167
g29
I0
sg48
I0
sg39
I0
sg42
I0
sg46
I0
sg25
I0
sg9
I0
sg34
I0
sg36
I0
sg40
I0
sg32
I0
sg41
I0
sg15
I0
sg13
I0
sg35
I0
sg8
I0
sg26
I0
sg11
I0
sg47
I0
sg18
I0
sg16
I0
sg19
I0
sg22
I0
sg30
I0
sg43
I0
sg24
I0
sg10
I0
sg14
I0
sg28
I6
sg45
I0
sg23
I0
sg21
I0
sg37
I0
sg31
I0
sg20
I0
sg38
I0
sg27
I0
sg17
I0
sg44
I0
sg33
I0
sg12
I0
ssg45
(dp168
g100
I0
sg116
I0
sg39
I0
sg42
I0
sg117
I0
sg46
I0
sg40
I0
sg80
I0
sg36
I0
sg103
I0
sg82
I0
sg41
I0
sg83
I0
sg104
I0
sg35
I0
sg85
I0
sg86
I0
sg105
I0
sg47
I0
sg106
I0
sg107
I0
sg108
I0
sg118
I0
sg89
I0
sg43
I0
sg90
I0
sg110
I0
sg111
I0
sg93
I0
sg45
I6
sg94
I0
sg95
I0
sg37
I0
sg96
I0
sg112
I0
sg38
I0
sg119
I0
sg97
I0
sg44
I0
sg114
I0
ssg23
(dp169
g29
I0
sg48
I0
sg55
I0
sg121
I0
sg122
I0
sg25
I0
sg9
I0
sg34
I0
sg59
I0
sg60
I0
sg32
I0
sg123
I0
sg15
I0
sg13
I0
sg63
I0
sg8
I0
sg26
I0
sg11
I0
sg124
I0
sg18
I0
sg16
I0
sg19
I0
sg22
I0
sg30
I0
sg125
I0
sg24
I0
sg10
I0
sg14
I0
sg28
I0
sg126
I0
sg23
I6
sg21
I0
sg74
I0
sg31
I0
sg20
I0
sg127
I0
sg27
I0
sg17
I0
sg128
I0
sg33
I0
sg12
I0
ssg21
(dp170
g29
I0
sg48
I0
sg39
I0
sg42
I0
sg46
I0
sg25
I0
sg9
I0
sg34
I0
sg36
I0
sg40
I0
sg32
I0
sg41
I0
sg15
I0
sg13
I0
sg35
I0
sg8
I0
sg26
I0
sg11
I0
sg47
I0
sg18
I0
sg16
I0
sg19
I0
sg22
I0
sg30
I0
sg43
I0
sg24
I0
sg10
I0
sg14
I0
sg28
I0
sg45
I0
sg23
I0
sg21
I24
sg37
I0
sg31
I0
sg20
I0
sg38
I0
sg27
I0
sg17
I0
sg44
I0
sg33
I0
sg12
I0
ssg37
(dp171
g79
I0
sg72
I0
sg48
I1
sg39
I0
sg42
I0
sg56
I0
sg46
I0
sg40
I0
sg80
I0
sg36
I0
sg81
I0
sg82
I0
sg41
I0
sg83
I0
sg84
I0
sg35
I0
sg85
I0
sg86
I0
sg87
I0
sg47
I0
sg66
I0
sg88
I0
sg67
I0
sg68
I0
sg89
I0
sg43
I0
sg90
I0
sg91
I0
sg92
I0
sg93
I0
sg45
I0
sg94
I0
sg95
I0
sg37
I0
sg96
I0
sg75
I0
sg38
I5
sg76
I0
sg97
I0
sg44
I0
sg98
I0
ssg31
(dp172
g29
I0
sg48
I0
sg39
I0
sg42
I0
sg46
I0
sg25
I0
sg8
I0
sg34
I0
sg36
I0
sg9
I0
sg32
I0
sg41
I0
sg15
I0
sg13
I0
sg35
I0
sg31
I6
sg40
I0
sg26
I0
sg11
I0
sg47
I0
sg18
I0
sg16
I0
sg19
I0
sg22
I0
sg30
I0
sg43
I0
sg24
I0
sg10
I0
sg14
I0
sg28
I0
sg45
I0
sg23
I0
sg21
I0
sg37
I0
sg20
I0
sg38
I0
sg27
I0
sg17
I0
sg44
I0
sg33
I0
sg12
I0
ssg20
(dp173
g29
I0
sg48
I0
sg55
I0
sg131
I0
sg122
I0
sg25
I0
sg9
I0
sg34
I0
sg59
I0
sg60
I0
sg32
I0
sg133
I0
sg15
I0
sg13
I0
sg63
I0
sg8
I0
sg26
I0
sg11
I0
sg124
I0
sg18
I0
sg16
I0
sg19
I0
sg22
I0
sg30
I0
sg135
I0
sg24
I0
sg10
I0
sg14
I0
sg28
I0
sg126
I0
sg23
I0
sg21
I0
sg74
I0
sg31
I0
sg20
I6
sg158
I0
sg27
I0
sg17
I0
sg138
I0
sg33
I0
sg12
I0
ssg38
(dp174
g79
I0
sg101
I0
sg39
I0
sg42
I0
sg102
I0
sg46
I0
sg40
I0
sg80
I0
sg36
I0
sg81
I0
sg82
I0
sg41
I0
sg83
I0
sg84
I0
sg35
I0
sg85
I0
sg86
I0
sg87
I0
sg47
I0
sS'gravy.n.01'
p175
I0
sg88
I0
sS'gravy.n.02'
p176
I0
sg109
I0
sg89
I0
sg43
I0
sg90
I0
sg91
I0
sg92
I0
sg93
I0
sg45
I0
sg94
I0
sg95
I0
sg37
I0
sg96
I0
sS'kettle.n.01'
p177
I0
sg38
I0
sg113
I0
sg97
I0
sg44
I0
sg98
I0
ssg27
(dp178
g29
I0
sg48
I0
sg55
I0
sg121
I0
sg122
I0
sg25
I0
sg9
I0
sg34
I0
sg59
I0
sg60
I0
sg32
I0
sg123
I0
sg15
I0
sg13
I0
sg63
I0
sg8
I0
sg26
I0
sg11
I0
sg124
I0
sg18
I0
sg16
I0
sg19
I0
sg22
I0
sg30
I0
sg125
I0
sg24
I0
sg10
I0
sg14
I0
sg28
I0
sg126
I0
sg23
I0
sg21
I0
sg74
I0
sg31
I0
sg20
I0
sg127
I0
sg27
I6
sg17
I0
sg128
I0
sg33
I0
sg12
I0
ssg17
(dp179
g29
I0
sg48
I0
sg39
I0
sg42
I0
sg46
I0
sg25
I0
sg9
I0
sg34
I0
sg36
I0
sg40
I0
sg32
I0
sg41
I0
sg15
I0
sg13
I0
sg35
I0
sg8
I0
sg26
I0
sg11
I0
sg47
I0
sg18
I0
sg16
I0
sg19
I0
sg22
I0
sg30
I0
sg43
I0
sg24
I0
sg10
I0
sg14
I0
sg28
I0
sg45
I0
sg23
I0
sg21
I0
sg37
I0
sg31
I0
sg20
I0
sg38
I0
sg27
I0
sg17
I12
sg44
I0
sg33
I0
sg12
I0
ssg44
(dp180
g100
I0
sg101
I0
sg39
I0
sg42
I0
sg102
I0
sg46
I0
sg40
I0
sg80
I0
sg36
I0
sg103
I0
sg82
I0
sg41
I0
sg83
I0
sg104
I0
sg35
I0
sg85
I0
sg86
I0
sg105
I0
sg47
I0
sg106
I0
sg107
I0
sg108
I0
sg109
I0
sg89
I0
sg43
I0
sg90
I0
sg110
I0
sg111
I0
sg93
I0
sg45
I0
sg94
I0
sg95
I0
sg37
I0
sg96
I0
sg112
I0
sg38
I0
sg113
I0
sg97
I0
sg44
I6
sg114
I0
ssg33
(dp181
g29
I0
sg48
I0
sg26
I0
sg42
I0
sg46
I0
sg25
I0
sg9
I0
sg34
I0
sg36
I0
sg40
I0
sg32
I0
sg41
I0
sg15
I0
sg13
I0
sg35
I0
sg8
I0
sg33
I6
sg39
I0
sg11
I0
sg47
I0
sg18
I0
sg16
I0
sg19
I0
sg22
I0
sg30
I0
sg43
I0
sg24
I0
sg10
I0
sg14
I0
sg28
I0
sg45
I0
sg23
I0
sg21
I0
sg37
I0
sg31
I0
sg20
I0
sg38
I0
sg27
I0
sg17
I0
sg44
I0
sg12
I0
ssg12
(dp182
g29
I0
sg130
I0
sg131
I0
sg122
I0
sg25
I0
sg9
I0
sg34
I0
sg132
I0
sg32
I0
sg133
I0
sg15
I0
sg13
I0
sg134
I0
sg8
I0
sg26
I0
sg11
I0
sg124
I0
sg18
I0
sg16
I0
sg19
I0
sg22
I0
sg30
I0
sg135
I0
sg24
I0
sg10
I0
sg14
I0
sg28
I0
sg126
I0
sg23
I0
sg21
I0
sg136
I0
sg31
I0
sg20
I0
sg137
I0
sg27
I0
sg17
I0
sg138
I0
sg33
I0
sg12
I6
sssb.