ccopy_reg
_reconstructor
p0
(cutils.eval
ConfusionMatrix
p1
c__builtin__
object
p2
Ntp3
Rp4
(dp5
S'labels'
p6
(lp7
S'fill.v.01'
p8
aS'bottle.n.01'
p9
aS'fruit_juice.n.01'
p10
aS'saltcellar.n.01'
p11
aS'salt.n.02'
p12
aS'jar.n.01'
p13
aS'gravy.n.01'
p14
aS'gravy.n.02'
p15
aS'kettle.n.01'
p16
aS'water.n.06'
p17
aS'wok.n.01'
p18
aS'rice.n.01'
p19
aS'opening.n.01'
p20
aS'opening.n.10'
p21
aS'fill.v.09'
p22
aS'curd.n.01'
p23
aS'teapot.n.01'
p24
aS'thermos.n.01'
p25
aS'coffee.n.01'
p26
aS'cup.n.01'
p27
aS'cola.n.02'
p28
aS'pitcher.n.02'
p29
aS'milk.n.01'
p30
aS'pot.n.01'
p31
aS'pan.n.03'
p32
asS'instanceCount'
p33
I36
sS'matrix'
p34
(dp35
g25
(dp36
S'thermos.n.01'
p37
I1
ssg21
(dp38
g21
I0
ssg27
(dp39
S'cup.n.01'
p40
I1
ssg30
(dp41
S'milk.n.01'
p42
I1
ssg32
(dp43
S'pan.n.03'
p44
I1
ssg28
(dp45
S'cola.n.02'
p46
I1
ssg11
(dp47
S'saltcellar.n.01'
p48
I1
ssg9
(dp49
S'bottle.n.01'
p50
I1
ssg31
(dp51
S'pot.n.01'
p52
I1
ssg8
(dp53
S'fill.v.01'
p54
I11
ssg22
(dp55
S'fill.v.01'
p56
I1
ssg14
(dp57
g15
I1
ssg12
(dp58
S'salt.n.02'
p59
I1
ssg15
(dp60
g15
I0
ssg18
(dp61
S'wok.n.01'
p62
I1
ssg26
(dp63
S'coffee.n.01'
p64
I1
ssg20
(dp65
g21
I1
ssg10
(dp66
S'fruit_juice.n.01'
p67
I1
ssg24
(dp68
S'teapot.n.01'
p69
I1
ssg19
(dp70
S'rice.n.01'
p71
I1
ssg17
(dp72
S'water.n.06'
p73
I4
ssg16
(dp74
S'kettle.n.01'
p75
I1
ssg23
(dp76
S'curd.n.01'
p77
I1
ssg13
(dp78
S'jar.n.01'
p79
I1
ssg29
(dp80
S'pitcher.n.02'
p81
I1
sssb.