ccopy_reg
_reconstructor
p0
(cutils.eval
ConfusionMatrix
p1
c__builtin__
object
p2
Ntp3
Rp4
(dp5
S'labels'
p6
(lp7
S'pot.n.01'
p8
aS'fill.v.01'
p9
aS'water.n.06'
p10
aS'pan.n.03'
p11
aS'jar.n.01'
p12
aS'ice.n.01'
p13
aS'ice.n.05'
p14
aS'bowl.n.01'
p15
aS'opening.n.01'
p16
aS'gap.n.03'
p17
aS'fill.v.09'
p18
aS'batter.n.02'
p19
aS'whiskey.n.01'
p20
aS'carafe.n.01'
p21
aS'blender.n.01'
p22
aS'apple.n.01'
p23
aS'glass.n.02'
p24
aS'milk.n.01'
p25
aS'foam.n.01'
p26
aS'mug.n.04'
p27
aS'measuring_cup.n.01'
p28
aS'meal.n.03'
p29
aS'bottle.n.01'
p30
aS'fruit_juice.n.01'
p31
aS'saltcellar.n.01'
p32
aS'salt.n.02'
p33
asS'instanceCount'
p34
I35
sS'matrix'
p35
(dp36
g15
(dp37
S'bowl.n.01'
p38
I1
ssg19
(dp39
S'batter.n.02'
p40
I1
ssg23
(dp41
S'apple.n.01'
p42
I1
ssg26
(dp43
S'foam.n.01'
p44
I1
ssg25
(dp45
S'milk.n.01'
p46
I1
ssg11
(dp47
S'pan.n.03'
p48
I1
ssg17
(dp49
g17
I0
ssg18
(dp50
S'fill.v.01'
p51
I1
ssg30
(dp52
S'bottle.n.01'
p53
I1
ssg8
(dp54
S'pot.n.01'
p55
I1
ssg9
(dp56
S'fill.v.01'
p57
I11
ssg28
(dp58
S'measuring_cup.n.01'
p59
I1
ssg24
(dp60
S'glass.n.02'
p61
I1
ssg33
(dp62
S'salt.n.02'
p63
I1
ssg20
(dp64
S'whiskey.n.01'
p65
I1
ssg16
(dp66
g17
I1
ssg27
(dp67
S'mug.n.04'
p68
I1
ssg31
(dp69
S'fruit_juice.n.01'
p70
I1
ssg22
(dp71
S'blender.n.01'
p72
I1
ssg32
(dp73
S'saltcellar.n.01'
p74
I1
ssg10
(dp75
S'water.n.06'
p76
I2
ssg13
(dp77
g14
I1
ssg14
(dp78
g14
I0
ssg12
(dp79
S'jar.n.01'
p80
I1
ssg21
(dp81
S'carafe.n.01'
p82
I1
ssg29
(dp83
S'meal.n.03'
p84
I1
sssb.