ccopy_reg
_reconstructor
p0
(cutils.eval
ConfusionMatrix
p1
c__builtin__
object
p2
Ntp3
Rp4
(dp5
S'labels'
p6
(lp7
S'cup.n.01'
p8
aS'fill.v.01'
p9
aS'cola.n.02'
p10
aS'pitcher.n.02'
p11
aS'milk.n.01'
p12
aS'pot.n.01'
p13
aS'water.n.06'
p14
aS'pan.n.03'
p15
aS'jar.n.01'
p16
aS'ice.n.01'
p17
aS'ice.n.05'
p18
aS'bowl.n.01'
p19
aS'opening.n.01'
p20
aS'gap.n.03'
p21
aS'fill.v.09'
p22
aS'batter.n.02'
p23
aS'whiskey.n.01'
p24
aS'carafe.n.01'
p25
aS'blender.n.01'
p26
aS'apple.n.01'
p27
aS'glass.n.02'
p28
aS'foam.n.01'
p29
aS'mug.n.04'
p30
aS'measuring_cup.n.01'
p31
aS'meal.n.03'
p32
asS'instanceCount'
p33
I35
sS'matrix'
p34
(dp35
g19
(dp36
S'bowl.n.01'
p37
I1
ssg23
(dp38
S'batter.n.02'
p39
I1
ssg27
(dp40
S'apple.n.01'
p41
I1
ssg29
(dp42
S'foam.n.01'
p43
I1
ssg12
(dp44
S'milk.n.01'
p45
I2
ssg15
(dp46
S'pan.n.03'
p47
I1
ssg10
(dp48
S'cola.n.02'
p49
I1
ssg21
(dp50
g21
I0
ssg22
(dp51
S'fill.v.01'
p52
I1
ssg13
(dp53
S'pot.n.01'
p54
I1
ssg9
(dp55
S'fill.v.01'
p56
I11
ssg11
(dp57
S'pitcher.n.02'
p58
I1
ssg31
(dp59
S'measuring_cup.n.01'
p60
I1
ssg28
(dp61
S'glass.n.02'
p62
I1
ssg24
(dp63
S'whiskey.n.01'
p64
I1
ssg20
(dp65
g21
I1
ssg30
(dp66
S'mug.n.04'
p67
I1
ssg26
(dp68
S'blender.n.01'
p69
I1
ssg14
(dp70
S'water.n.06'
p71
I2
ssg17
(dp72
g18
I1
ssg8
(dp73
S'cup.n.01'
p74
I1
ssg18
(dp75
g18
I0
ssg16
(dp76
S'jar.n.01'
p77
I1
ssg25
(dp78
S'carafe.n.01'
p79
I1
ssg32
(dp80
S'meal.n.03'
p81
I1
sssb.