ccopy_reg
_reconstructor
p0
(cutils.eval
ConfusionMatrix
p1
c__builtin__
object
p2
Ntp3
Rp4
(dp5
S'labels'
p6
(lp7
S'put.v.01'
p8
aS'pepper.n.03'
p9
aS'capsicum.n.01'
p10
aS'salt.n.02'
p11
aS'salt.n.01'
p12
aS'egg.n.02'
p13
aS'egg.n.01'
p14
aS'cut.v.01'
p15
aS'meat.n.01'
p16
aS'kernel.n.01'
p17
aS'cleaver.n.01'
p18
aS'bacon.n.01'
p19
aS'bacon.n.02'
p20
aS'onion.n.01'
p21
aS'beef.n.02'
p22
aS'beef.n.01'
p23
aS'plate.n.04'
p24
aS'denture.n.01'
p25
aS'opening.n.01'
p26
aS'gap.n.03'
p27
aS'fill.v.09'
p28
aS'batter.n.02'
p29
aS'batter.n.01'
p30
aS'cake.n.03'
p31
aS'cake.n.01'
p32
aS'whipped_cream.n.01'
p33
aS'fill.v.01'
p34
aS'pitcher.n.02'
p35
aS'milk.n.01'
p36
aS'milk.n.04'
p37
aS'foam.n.01'
p38
aS'mug.n.04'
p39
aS'cabbage.n.01'
p40
aS'cabbage.n.03'
p41
aS'pan.n.03'
p42
aS'pan.n.01'
p43
aS'chicken.n.01'
p44
aS'wimp.n.01'
p45
aS'pizza.n.01'
p46
aS'meet.v.04'
p47
aS'kettle.n.01'
p48
aS'water.n.06'
p49
aS'slice.v.03'
p50
aS'pepper.n.04'
p51
aS'pepper.n.01'
p52
aS'flesh.n.01'
p53
aS'human_body.n.01'
p54
aS'piece.n.08'
p55
aS'slice.n.06'
p56
aS'lemon.n.01'
p57
aS'lemon.n.05'
p58
aS'cheese.n.01'
p59
aS'tall_mallow.n.01'
p60
aS'slice.v.02'
p61
asS'instanceCount'
p62
I51
sS'matrix'
p63
(dp64
g17
(dp65
g17
I0
ssg23
(dp66
g23
I0
ssg22
(dp67
g23
I1
ssg59
(dp68
g60
I1
ssg29
(dp69
g30
I1
ssg30
(dp70
g30
I0
ssg45
(dp71
g45
I0
ssg37
(dp72
g37
I0
ssg44
(dp73
g45
I1
ssg38
(dp74
S'foam.n.01'
p75
I1
ssg36
(dp76
g37
I1
ssg43
(dp77
g43
I1
ssg42
(dp78
g43
I2
ssg15
(dp79
S'cut.v.01'
p80
I4
ssg27
(dp81
g27
I0
ssg28
(dp82
S'fill.v.09'
p83
I1
ssg13
(dp84
g14
I1
ssg14
(dp85
g14
I0
ssg20
(dp86
g20
I0
ssg19
(dp87
g20
I1
ssg34
(dp88
g47
I1
sS'fill.v.09'
p89
I3
ssg10
(dp90
g10
I0
ssg18
(dp91
S'cleaver.n.01'
p92
I1
ssg25
(dp93
g25
I0
ssg16
(dp94
g17
I1
ssg61
(dp95
g61
I0
ssg11
(dp96
g12
I1
ssg12
(dp97
g12
I0
ssg40
(dp98
g41
I1
ssg57
(dp99
g58
I1
ssg41
(dp100
g41
I0
ssg24
(dp101
g25
I1
ssg51
(dp102
g52
I1
ssg47
(dp103
g47
I0
ssg9
(dp104
g10
I1
ssg54
(dp105
g54
I0
ssg33
(dp106
S'whipped_cream.n.01'
p107
I1
ssg55
(dp108
g56
I1
ssg60
(dp109
g60
I0
ssg26
(dp110
g27
I1
ssg39
(dp111
S'mug.n.04'
p112
I1
ssg53
(dp113
g54
I1
ssg56
(dp114
g56
I0
ssg49
(dp115
S'water.n.06'
p116
I2
ssg8
(dp117
S'put.v.01'
p118
I5
ssg46
(dp119
S'pizza.n.01'
p120
I2
ssg58
(dp121
g58
I0
ssg48
(dp122
S'kettle.n.01'
p123
I1
ssg31
(dp124
g32
I1
ssg32
(dp125
g32
I0
ssg52
(dp126
g52
I0
ssg50
(dp127
g61
I1
sS'slice.v.03'
p128
I3
ssg21
(dp129
S'onion.n.01'
p130
I2
ssg35
(dp131
S'pitcher.n.02'
p132
I1
sssb.