ccopy_reg
_reconstructor
p0
(cutils.eval
ConfusionMatrix
p1
c__builtin__
object
p2
Ntp3
Rp4
(dp5
S'labels'
p6
(lp7
S'flesh.n.01'
p8
aS'human_body.n.01'
p9
aS'slice.v.03'
p10
aS'piece.n.08'
p11
aS'slice.n.06'
p12
aS'pizza.n.01'
p13
aS'slice.v.02'
p14
aS'cut.v.01'
p15
aS'lemon.n.01'
p16
aS'cheese.n.01'
p17
aS'knife.n.01'
p18
aS'knife.n.02'
p19
aS'banana.n.02'
p20
aS'edit.v.03'
p21
aS'bread.n.01'
p22
aS'put.v.01'
p23
aS'pepper.n.03'
p24
aS'pepper.n.04'
p25
aS'salt.n.02'
p26
aS'salt.n.01'
p27
aS'egg.n.02'
p28
aS'egg.n.01'
p29
aS'meat.n.01'
p30
aS'kernel.n.01'
p31
aS'cleaver.n.01'
p32
aS'bacon.n.01'
p33
aS'onion.n.01'
p34
aS'beef.n.02'
p35
aS'plate.n.04'
p36
aS'plate.n.07'
p37
aS'opening.n.01'
p38
aS'gap.n.03'
p39
aS'fill.v.09'
p40
aS'fill.v.01'
p41
aS'batter.n.02'
p42
aS'put.v.02'
p43
aS'cake.n.03'
p44
aS'cake.n.01'
p45
aS'whipped_cream.n.01'
p46
aS'pitcher.n.02'
p47
aS'milk.n.01'
p48
aS'foam.n.01'
p49
aS'mug.n.04'
p50
aS'cabbage.n.01'
p51
aS'pan.n.03'
p52
aS'pan.n.01'
p53
aS'chicken.n.01'
p54
aS'wimp.n.01'
p55
aS'kettle.n.01'
p56
aS'water.n.06'
p57
aS'tongue.n.03'
p58
aS'strategic_arms_limitation_talks.n.01'
p59
aS'chopper.n.02'
p60
aS'onion.n.03'
p61
aS'plate.n.05'
p62
aS'gap.n.01'
p63
aS'patty.n.01'
p64
aS'pitcher.n.03'
p65
aS'milk.n.04'
p66
aS'pan.n.04'
p67
aS'meet.v.04'
p68
aS'kettle.n.02'
p69
aS'water_system.n.02'
p70
aS'bacon.n.02'
p71
aS'onion.n.02'
p72
aS'beef.n.01'
p73
aS'denture.n.01'
p74
aS'gap.n.05'
p75
aS'pitcher.n.05'
p76
aS'cabbage.n.03'
p77
aS'water.n.03'
p78
aS'pepper.n.01'
p79
aS'lemon.n.05'
p80
aS'tall_mallow.n.01'
p81
aS'capsicum.n.01'
p82
aS'cut.v.32'
p83
aS'plate.n.08'
p84
aS'batter.n.01'
p85
aS'pan.n.02'
p86
aS'urine.n.01'
p87
aS'salt.n.04'
p88
aS'helicopter.n.01'
p89
aS'chump.n.01'
p90
aS'slice.n.05'
p91
aS'chop.n.05'
p92
aS'gripe.n.01'
p93
aS'plate.n.11'
p94
aS'boodle.n.01'
p95
aS'chicken.n.04'
p96
aS'gamboge.n.02'
p97
aS'banana.n.01'
p98
aS'kernel.n.03'
p99
aS'plate.n.13'
p100
aS'testis.n.01'
p101
aS'pulp.n.02'
p102
aS'slice.n.04'
p103
asS'instanceCount'
p104
I504
sS'matrix'
p105
(dp106
g31
(dp107
g31
I0
sg54
I0
sS'beef.n.01'
p108
I0
sg17
I0
sg22
I0
sg42
I0
sg85
I0
sg55
I0
sS'milk.n.04'
p109
I0
sg51
I0
sg49
I0
sg48
I0
sg53
I0
sg52
I0
sg15
I0
sg39
I0
sg40
I0
sg28
I0
sg29
I0
sg35
I0
sS'bacon.n.02'
p110
I0
sg33
I0
sg41
I0
sg47
I0
sg30
I0
sg83
I0
sg26
I0
sg32
I0
sg14
I0
sg10
I0
sg27
I0
sg18
I0
sg45
I0
sg20
I0
sg19
I0
sg36
I0
sg25
I0
sg37
I0
sg21
I0
sg24
I0
sg57
I0
sS'tall_mallow.n.01'
p111
I0
sg9
I0
sg46
I0
sS'patty.n.01'
p112
I0
sg82
I0
sg11
I0
sg84
I0
sg38
I0
sg50
I0
sS'cabbage.n.03'
p113
I0
sg8
I0
sg12
I0
sg43
I0
sg23
I0
sg13
I0
sS'meet.v.04'
p114
I0
sS'lemon.n.05'
p115
I0
sg56
I0
sg44
I0
sS'denture.n.01'
p116
I0
sg16
I0
sS'pepper.n.01'
p117
I0
sg34
I0
ssg99
(dp118
g96
I0
sg99
I0
sS'chicken.n.01'
p119
I0
sS'cheese.n.01'
p120
I0
sS'cut.v.32'
p121
I0
sS'batter.n.02'
p122
I0
sS'knife.n.01'
p123
I0
sS'patty.n.01'
p124
I0
sS'strategic_arms_limitation_talks.n.01'
p125
I0
sg98
I0
sS'pan.n.01'
p126
I0
sS'pan.n.03'
p127
I0
sS'cut.v.01'
p128
I0
sS'fill.v.09'
p129
I0
sS'egg.n.02'
p130
I0
sS'egg.n.01'
p131
I0
sS'beef.n.02'
p132
I0
sS'bacon.n.02'
p133
I0
sS'bacon.n.01'
p134
I0
sS'fill.v.01'
p135
I0
sS'meat.n.01'
p136
I0
sS'plate.n.08'
p137
I0
sS'salt.n.02'
p138
I0
sS'cleaver.n.01'
p139
I0
sS'slice.v.02'
p140
I0
sS'slice.v.03'
p141
I0
sS'cabbage.n.01'
p142
I0
sS'tongue.n.03'
p143
I0
sS'banana.n.02'
p144
I0
sS'plate.n.04'
p145
I0
sS'pepper.n.04'
p146
I0
sS'edit.v.03'
p147
I0
sS'pepper.n.03'
p148
I0
sg95
I0
sS'whipped_cream.n.01'
p149
I0
sS'gripe.n.01'
p150
I0
sS'piece.n.08'
p151
I0
sS'bread.n.01'
p152
I0
sS'opening.n.01'
p153
I0
sS'flesh.n.01'
p154
I0
sS'helicopter.n.01'
p155
I0
sS'slice.n.06'
p156
I0
sS'water.n.06'
p157
I0
sS'put.v.01'
p158
I0
sS'pizza.n.01'
p159
I0
sg97
I0
sS'kettle.n.01'
p160
I0
sS'cake.n.03'
p161
I0
sS'lemon.n.01'
p162
I0
sS'onion.n.01'
p163
I0
sS'put.v.02'
p164
I0
ssg49
(dp165
g17
I0
sg54
I0
sg108
I0
sg26
I0
sg22
I0
sg42
I0
sg85
I0
sg55
I0
sg109
I0
sg51
I0
sg49
I3
sg48
I0
sg53
I0
sg52
I0
sg15
I0
sg39
I0
sg40
I0
sg28
I0
sg29
I0
sg35
I0
sg110
I0
sg33
I0
sg41
I0
sg47
I0
sg30
I0
sg44
I0
sg83
I0
sg116
I0
sg32
I0
sg14
I0
sg10
I0
sg27
I0
sg18
I0
sg45
I0
sg20
I0
sg19
I0
sg36
I0
sg25
I0
sg37
I0
sg21
I0
sg24
I0
sg57
I0
sg111
I0
sg9
I0
sg46
I0
sg112
I0
sg82
I0
sg11
I0
sg84
I0
sg38
I0
sg50
I0
sg113
I0
sg8
I0
sg12
I0
sg43
I0
sg23
I0
sg13
I0
sg114
I0
sg115
I0
sg56
I0
sg31
I0
sg16
I0
sg117
I0
sg34
I0
ssg15
(dp166
g31
I0
sg99
I0
sg49
I0
sg15
I33
sg87
I0
sg74
I0
sg84
I0
sg68
I0
sg9
I0
sg59
I0
sg81
I0
sg38
I0
sg8
I0
sg78
I0
sg57
I0
sg23
I0
sg58
I0
sg96
I0
sg54
I0
sg12
I0
sg43
I0
sg13
I0
sg53
I0
sg52
I0
sg86
I0
sg39
I0
sg63
I0
sg101
I0
sg82
I0
sg14
I0
sg10
I0
sg98
I0
sg20
I0
sg25
I0
sg79
I0
sg93
I0
sg24
I0
sg69
I0
sg56
I0
sg34
I0
sg61
I0
sg72
I0
sg73
I0
sg35
I0
sg92
I0
sg40
I0
sg41
I0
sg65
I0
sg47
I0
sg32
I0
sg76
I0
sg26
I0
sg90
I0
sg51
I0
sg77
I0
sg19
I0
sg36
I0
sg62
I0
sg37
I0
sg46
I0
sg50
I0
sg89
I0
sg70
I0
sg103
I0
sg91
I0
sg100
I0
sg17
I0
sg94
I0
sg27
I0
sg22
I0
sg42
I0
sg85
I0
sg55
I0
sg66
I0
sg18
I0
sg48
I0
sg28
I0
sg29
I0
sg88
I0
sg71
I0
sg33
I0
sg64
I0
sg30
I0
sg60
I0
sg16
I0
sg21
I5
sg95
I0
sg75
I0
sg11
I0
sg67
I0
sg83
I7
sg97
I0
sg80
I0
sg44
I0
sg45
I0
sg102
I0
ssg87
(dp167
S'cheese.n.01'
p168
I0
sS'chicken.n.01'
p169
I0
sS'slice.v.03'
p170
I0
sS'bread.n.01'
p171
I0
sS'batter.n.02'
p172
I0
sS'milk.n.04'
p173
I0
sS'knife.n.01'
p174
I0
sS'milk.n.01'
p175
I0
sS'pan.n.01'
p176
I0
sS'pan.n.03'
p177
I0
sS'gap.n.05'
p178
I0
sS'fill.v.09'
p179
I0
sS'egg.n.02'
p180
I0
sS'egg.n.01'
p181
I0
sg88
I0
sg87
I0
sS'fill.v.01'
p182
I0
sS'pitcher.n.02'
p183
I0
sS'kettle.n.01'
p184
I0
sS'meat.n.01'
p185
I0
sS'pitcher.n.05'
p186
I0
sS'salt.n.02'
p187
I0
sS'cleaver.n.01'
p188
I0
sS'slice.v.02'
p189
I0
sg86
I0
sS'cabbage.n.01'
p190
I0
sS'tongue.n.03'
p191
I0
sS'banana.n.02'
p192
I0
sS'knife.n.02'
p193
I0
sS'pepper.n.04'
p194
I0
sS'meet.v.04'
p195
I0
sS'pepper.n.03'
p196
I0
sS'human_body.n.01'
p197
I0
sS'cut.v.01'
p198
I0
sS'piece.n.08'
p199
I0
sS'opening.n.01'
p200
I0
sS'mug.n.04'
p201
I0
sS'flesh.n.01'
p202
I0
sS'water.n.03'
p203
I0
sg89
I0
sS'slice.n.06'
p204
I0
sS'water.n.06'
p205
I0
sS'put.v.01'
p206
I0
sS'pizza.n.01'
p207
I0
sS'kettle.n.02'
p208
I0
sS'whipped_cream.n.01'
p209
I0
sS'cake.n.03'
p210
I0
sS'lemon.n.01'
p211
I0
sS'pepper.n.01'
p212
I0
sS'onion.n.01'
p213
I0
sS'onion.n.03'
p214
I0
ssg74
(dp215
S'cheese.n.01'
p216
I0
sg73
I0
sS'beef.n.02'
p217
I0
sS'gap.n.03'
p218
I0
sS'bread.n.01'
p219
I0
sS'batter.n.02'
p220
I0
sg85
I0
sS'wimp.n.01'
p221
I0
sS'milk.n.04'
p222
I0
sS'chicken.n.01'
p223
I0
sS'foam.n.01'
p224
I0
sS'milk.n.01'
p225
I0
sS'pan.n.01'
p226
I0
sS'pan.n.03'
p227
I0
sS'cut.v.01'
p228
I0
sS'banana.n.02'
p229
I0
sS'fill.v.09'
p230
I0
sS'salt.n.02'
p231
I0
sS'egg.n.01'
p232
I0
sg71
I0
sS'bacon.n.01'
p233
I0
sS'fill.v.01'
p234
I0
sS'pitcher.n.02'
p235
I0
sS'meat.n.01'
p236
I0
sg76
I0
sg74
I0
sS'cleaver.n.01'
p237
I0
sS'slice.v.02'
p238
I0
sS'slice.v.03'
p239
I0
sS'salt.n.01'
p240
I0
sS'cabbage.n.01'
p241
I0
sS'lemon.n.01'
p242
I0
sg77
I0
sS'plate.n.04'
p243
I0
sS'pepper.n.04'
p244
I0
sS'meet.v.04'
p245
I0
sS'pepper.n.03'
p246
I0
sS'knife.n.01'
p247
I0
sS'human_body.n.01'
p248
I0
sS'whipped_cream.n.01'
p249
I0
sS'capsicum.n.01'
p250
I0
sS'piece.n.08'
p251
I0
sg81
I0
sS'opening.n.01'
p252
I0
sS'mug.n.04'
p253
I0
sS'flesh.n.01'
p254
I0
sg78
I0
sS'slice.n.06'
p255
I0
sS'water.n.06'
p256
I0
sS'put.v.01'
p257
I0
sS'pizza.n.01'
p258
I0
sS'kernel.n.01'
p259
I0
sg80
I0
sS'kettle.n.01'
p260
I0
sS'cake.n.03'
p261
I0
sg75
I0
sS'cake.n.01'
p262
I0
sS'egg.n.02'
p263
I0
sg79
I0
sS'onion.n.01'
p264
I0
sg72
I0
ssg84
(dp265
S'cheese.n.01'
p266
I0
sg99
I0
sS'chicken.n.01'
p267
I0
sS'salt.n.02'
p268
I0
sS'bread.n.01'
p269
I0
sS'milk.n.04'
p270
I0
sS'batter.n.02'
p271
I0
sS'wimp.n.01'
p272
I0
sg125
I0
sS'knife.n.01'
p273
I0
sg112
I0
sS'pan.n.02'
p274
I0
sS'milk.n.01'
p275
I0
sg98
I0
sS'pan.n.01'
p276
I0
sS'kettle.n.02'
p277
I0
sS'pan.n.03'
p278
I0
sS'cut.v.01'
p279
I0
sS'gap.n.03'
p280
I0
sS'fill.v.09'
p281
I0
sS'cabbage.n.01'
p282
I0
sS'egg.n.02'
p283
I0
sg131
I0
sS'beef.n.02'
p284
I0
sg101
I0
sg110
I0
sS'bacon.n.01'
p285
I0
sS'fill.v.01'
p286
I0
sg82
I0
sS'meat.n.01'
p287
I0
sS'pitcher.n.05'
p288
I0
sg102
I0
sS'cake.n.03'
p289
I0
sg83
I0
sS'cleaver.n.01'
p290
I0
sS'slice.v.02'
p291
I0
sS'slice.v.03'
p292
I0
sg84
I0
sg143
I0
sS'banana.n.02'
p293
I0
sS'knife.n.02'
p294
I0
sS'plate.n.04'
p295
I0
sS'pepper.n.04'
p296
I0
sS'edit.v.03'
p297
I0
sS'pepper.n.03'
p298
I0
sg95
I0
sS'foam.n.01'
p299
I0
sS'human_body.n.01'
p300
I0
sS'whipped_cream.n.01'
p301
I0
sg150
I0
sg103
I0
sS'piece.n.08'
p302
I0
sS'opening.n.01'
p303
I0
sS'mug.n.04'
p304
I0
sS'salt.n.04'
p305
I0
sg113
I0
sS'onion.n.03'
p306
I0
sS'flesh.n.01'
p307
I0
sS'water.n.03'
p308
I0
sg155
I0
sS'slice.n.06'
p309
I0
sS'water.n.06'
p310
I0
sS'put.v.01'
p311
I0
sS'pizza.n.01'
p312
I0
sg97
I0
sg115
I0
sg160
I0
sS'kernel.n.01'
p313
I0
sS'gap.n.05'
p314
I0
sS'lemon.n.01'
p315
I0
sg96
I0
sS'onion.n.01'
p316
I0
sS'pitcher.n.02'
p317
I0
sS'meet.v.04'
p318
I0
sS'put.v.02'
p319
I0
ssg68
(dp320
g100
I0
sS'cheese.n.01'
p321
I0
sS'chicken.n.01'
p322
I0
sg73
I0
sS'beef.n.02'
p323
I0
sg262
I0
sg218
I0
sS'bread.n.01'
p324
I0
sS'batter.n.02'
p325
I0
sg85
I0
sg221
I0
sg66
I0
sS'cabbage.n.01'
p326
I0
sS'fill.v.01'
p327
I0
sg86
I0
sS'milk.n.01'
p328
I0
sS'pan.n.01'
p329
I0
sS'pan.n.03'
p330
I0
sS'cut.v.01'
p331
I0
sg67
I0
sg63
I0
sS'egg.n.02'
p332
I0
sg232
I0
sg87
I0
sg101
I0
sg71
I0
sS'bacon.n.01'
p333
I0
sg64
I0
sg65
I0
sS'pitcher.n.02'
p334
I0
sS'cleaver.n.01'
p335
I0
sg76
I0
sS'pepper.n.04'
p336
I0
sg102
I0
sS'plate.n.08'
p337
I0
sg255
I0
sS'salt.n.02'
p338
I0
sS'meat.n.01'
p339
I0
sS'slice.v.02'
p340
I0
sS'slice.v.03'
p341
I0
sg240
I0
sg60
I0
sS'knife.n.01'
p342
I0
sS'lemon.n.01'
p343
I0
sS'banana.n.02'
p344
I0
sg193
I0
sS'plate.n.04'
p345
I0
sg62
I0
sg68
I0
sS'pepper.n.03'
p346
I0
sg224
I0
sg248
I0
sS'whipped_cream.n.01'
p347
I0
sS'gripe.n.01'
p348
I0
sg250
I0
sg59
I0
sg81
I0
sg251
I0
sS'opening.n.01'
p349
I0
sg75
I0
sS'mug.n.04'
p350
I0
sg88
I0
sg77
I0
sg103
I0
sg254
I0
sg78
I0
sg89
I0
sS'fill.v.09'
p351
I0
sg70
I0
sS'water.n.06'
p352
I0
sS'put.v.01'
p353
I0
sS'pizza.n.01'
p354
I0
sg69
I0
sg259
I0
sg80
I0
sS'kettle.n.01'
p355
I0
sS'cake.n.03'
p356
I0
sg74
I0
sg58
I0
sg79
I0
sS'onion.n.01'
p357
I0
sg61
I0
sg72
I0
ssg9
(dp358
g100
I0
sg17
I0
sg54
I0
sg73
I0
sg26
I0
sg22
I0
sg42
I0
sg85
I0
sg55
I0
sg222
I0
sg51
I0
sg49
I0
sg86
I0
sg48
I0
sg53
I0
sg208
I0
sg52
I0
sg15
I0
sg39
I0
sg40
I0
sg28
I0
sg29
I0
sg35
I0
sg71
I0
sg33
I0
sg41
I0
sg47
I0
sg30
I0
sg76
I0
sg44
I0
sg83
I0
sg191
I0
sg74
I0
sg32
I0
sg14
I0
sg10
I0
sg27
I0
sg18
I0
sg45
I0
sg20
I0
sg19
I0
sg36
I0
sg25
I0
sg37
I0
sg21
I0
sg24
I0
sg57
I0
sg84
I0
sg9
I0
sg46
I0
sg112
I0
sg82
I0
sg11
I0
sg81
I0
sg38
I0
sg50
I0
sg87
I0
sg88
I0
sg77
I0
sg8
I0
sg78
I0
sg89
I0
sg12
I0
sg43
I0
sg23
I0
sg13
I0
sg245
I0
sg80
I0
sg56
I0
sg31
I0
sg75
I0
sg16
I0
sg79
I0
sg34
I0
sg214
I0
sg72
I0
ssg59
(dp359
g321
I0
sg99
I0
sg322
I0
sg323
I0
sg156
I0
sg147
I0
sg324
I0
sg325
I0
sg66
I0
sg326
I0
sg327
I0
sg328
I0
sg98
I0
sg329
I0
sg97
I0
sg330
I0
sg331
I0
sg67
I0
sg63
I0
sg332
I0
sg131
I0
sg133
I0
sg333
I0
sg64
I0
sg65
I0
sg334
I0
sg335
I0
sg336
I0
sg121
I0
sg338
I0
sg339
I0
sg340
I0
sg341
I0
sg60
I0
sg342
I0
sg343
I0
sg344
I0
sg345
I0
sg62
I0
sg68
I0
sg346
I0
sg95
I0
sg151
I0
sg347
I0
sg150
I0
sg59
I0
sg137
I0
sg349
I0
sg350
I0
sg154
I0
sg155
I0
sg351
I0
sg70
I0
sg352
I0
sg353
I0
sg354
I0
sg69
I0
sg355
I0
sg356
I0
sg58
I0
sg96
I0
sg357
I0
sg61
I0
sg164
I0
ssg81
(dp360
g216
I0
sg73
I0
sg217
I0
sg218
I0
sg219
I0
sg220
I0
sg85
I0
sg221
I0
sg222
I0
sg223
I0
sg224
I0
sg225
I0
sg226
I0
sg227
I0
sg228
I0
sg229
I0
sg230
I0
sg231
I0
sg232
I0
sg71
I0
sg233
I0
sg234
I0
sg235
I0
sg236
I0
sg76
I0
sg74
I0
sg237
I0
sg238
I0
sg239
I0
sg240
I0
sg241
I0
sg242
I0
sg77
I0
sg243
I0
sg244
I0
sg245
I0
sg246
I0
sg247
I0
sg248
I0
sg249
I0
sg250
I0
sg251
I0
sg81
I0
sg252
I0
sg253
I0
sg254
I0
sg78
I0
sg255
I0
sg256
I0
sg257
I0
sg258
I0
sg259
I0
sg80
I0
sg260
I0
sg261
I0
sg75
I0
sg262
I0
sg263
I0
sg79
I0
sg264
I0
sg72
I0
ssg38
(dp361
g31
I0
sg99
I0
sg49
I0
sg15
I0
sg87
I0
sg74
I0
sg84
I0
sg68
I0
sg9
I0
sg59
I0
sg81
I0
sg38
I1
sg8
I0
sg78
I0
sg57
I0
sg23
I0
sg58
I0
sg96
I0
sg54
I0
sg12
I0
sg43
I0
sg53
I0
sg52
I0
sg86
I0
sg39
I3
sg63
I1
sg101
I0
sg82
I0
sg14
I0
sg10
I0
sg98
I0
sg20
I0
sg25
I0
sg79
I0
sg24
I0
sg150
I0
sg69
I0
sg56
I0
sg34
I0
sg61
I0
sg72
I0
sg73
I0
sg35
I0
sg40
I0
sg41
I0
sg65
I0
sg47
I0
sg32
I0
sg76
I0
sg26
I0
sg27
I0
sg51
I0
sg77
I0
sg19
I0
sg36
I0
sg62
I0
sg37
I0
sg46
I0
sg50
I0
sg89
I0
sg70
I0
sg103
I0
sg13
I0
sg100
I0
sg17
I0
sg22
I0
sg42
I0
sg85
I0
sg55
I0
sg66
I0
sg18
I0
sg48
I0
sg28
I0
sg29
I0
sg88
I0
sg71
I0
sg33
I0
sg64
I0
sg30
I0
sg60
I0
sg16
I0
sg21
I0
sg95
I0
sg75
I4
sg11
I0
sg67
I0
sg83
I0
sg97
I0
sg80
I0
sg44
I0
sg45
I0
sg102
I0
ssg8
(dp362
g31
I0
sg99
I0
sg49
I0
sg15
I0
sg87
I0
sg74
I0
sg84
I0
sg245
I0
sg9
I6
sg125
I0
sg81
I0
sg38
I0
sg8
I2
sg78
I0
sg57
I0
sg23
I0
sg191
I0
sg96
I0
sg54
I0
sg43
I0
sg13
I0
sg53
I0
sg52
I0
sg86
I0
sg39
I0
sg101
I0
sg82
I0
sg14
I0
sg10
I0
sg98
I0
sg20
I0
sg25
I0
sg79
I0
sg93
I0
sg24
I0
sg208
I0
sg56
I0
sg34
I0
sg214
I0
sg72
I0
sg73
I0
sg35
I0
sg92
I0
sg40
I0
sg41
I0
sg47
I0
sg32
I0
sg76
I0
sg26
I0
sg90
I0
sg51
I0
sg77
I0
sg19
I0
sg36
I0
sg37
I0
sg46
I0
sg50
I0
sg89
I0
sg12
I0
sg103
I0
sg91
I0
sg100
I0
sg17
I0
sg94
I0
sg27
I0
sg22
I0
sg42
I0
sg85
I0
sg55
I0
sg222
I0
sg18
I0
sg48
I0
sg28
I0
sg29
I0
sg88
I0
sg71
I0
sg33
I0
sg112
I0
sg30
I0
sg16
I0
sg21
I0
sg95
I0
sg75
I0
sg11
I0
sg83
I0
sg97
I0
sg80
I0
sg44
I0
sg45
I0
sg102
I1
ssg78
(dp363
g100
I0
sg216
I0
sg73
I0
sg217
I0
sg219
I0
sg220
I0
sg221
I0
sg222
I0
sg223
I0
sg86
I0
sg225
I0
sg226
I0
sg227
I0
sg228
I0
sg229
I0
sg230
I0
sg180
I0
sg181
I0
sg87
I0
sg101
I0
sg71
I0
sg233
I0
sg234
I0
sg235
I0
sg185
I0
sg76
I0
sg102
I0
sg337
I0
sg191
I0
sg74
I0
sg188
I0
sg238
I0
sg239
I0
sS'salt.n.01'
p364
I0
sg241
I0
sg242
I0
sg77
I0
sg193
I0
sg243
I0
sg244
I0
sg245
I0
sg196
I0
sg247
I0
sg248
I0
sg249
I0
sg348
I0
sS'capsicum.n.01'
p365
I0
sg187
I0
sg251
I0
sg81
I0
sg252
I0
sg253
I0
sg88
I0
sg103
I0
sg254
I0
sg78
I0
sg89
I0
sg255
I0
sg256
I0
sg257
I0
sg258
I0
sg208
I0
sg80
I0
sg260
I0
sg261
I0
sg75
I0
sg262
I0
sg79
I0
sg264
I0
sg214
I0
sg72
I0
ssg57
(dp366
g31
I0
sg99
I0
sg49
I0
sg15
I0
sg87
I1
sg74
I0
sg84
I0
sg68
I0
sg9
I0
sg59
I0
sg81
I0
sg38
I0
sg8
I0
sg78
I7
sg57
I9
sg23
I0
sg58
I0
sg96
I0
sg54
I0
sg12
I0
sg43
I0
sg13
I0
sg53
I0
sg52
I0
sg86
I0
sg39
I0
sg63
I0
sg101
I0
sg82
I0
sg14
I0
sg10
I0
sg98
I0
sg20
I0
sg25
I0
sg79
I0
sg93
I0
sg24
I0
sg69
I0
sg56
I0
sg34
I0
sg61
I0
sg72
I0
sg73
I0
sg35
I0
sg92
I0
sg40
I0
sg41
I0
sg65
I0
sg47
I0
sg32
I0
sg76
I0
sg26
I0
sg90
I0
sg51
I0
sg77
I0
sg19
I0
sg36
I0
sg62
I0
sg37
I0
sg46
I0
sg50
I0
sg89
I0
sg70
I1
sg103
I0
sg91
I0
sg100
I0
sg17
I0
sg94
I0
sg27
I0
sg22
I0
sg42
I0
sg85
I0
sg55
I0
sg66
I0
sg18
I0
sg48
I0
sg28
I0
sg29
I0
sg88
I0
sg71
I0
sg33
I0
sg64
I0
sg30
I0
sg60
I0
sg16
I0
sg21
I0
sg95
I0
sg75
I0
sg11
I0
sg67
I0
sg83
I0
sg97
I0
sg80
I0
sg44
I0
sg45
I0
sg102
I0
ssg23
(dp367
g31
I0
sg99
I0
sg49
I0
sg15
I0
sg87
I0
sg74
I0
sg84
I0
sg68
I0
sg9
I0
sg59
I0
sg81
I0
sg38
I0
sg8
I0
sg78
I0
sg57
I0
sg23
I35
sg58
I0
sg96
I0
sg54
I0
sg12
I0
sg43
I10
sg13
I0
sg53
I0
sg52
I0
sg86
I0
sg39
I0
sg63
I0
sg101
I0
sg82
I0
sg14
I0
sg10
I0
sg98
I0
sg20
I0
sg25
I0
sg79
I0
sg93
I0
sg24
I0
sg69
I0
sg56
I0
sg34
I0
sg61
I0
sg72
I0
sg73
I0
sg35
I0
sg92
I0
sg40
I0
sg41
I0
sg65
I0
sg47
I0
sg32
I0
sg76
I0
sg26
I0
sg90
I0
sg51
I0
sg77
I0
sg19
I0
sg36
I0
sg62
I0
sg37
I0
sg46
I0
sg50
I0
sg89
I0
sg70
I0
sg103
I0
sg91
I0
sg100
I0
sg17
I0
sg94
I0
sg27
I0
sg22
I0
sg42
I0
sg85
I0
sg55
I0
sg66
I0
sg18
I0
sg48
I0
sg28
I0
sg29
I0
sg88
I0
sg71
I0
sg33
I0
sg64
I0
sg30
I0
sg60
I0
sg16
I0
sg21
I0
sg95
I0
sg75
I0
sg11
I0
sg67
I0
sg83
I0
sg97
I0
sg80
I0
sg44
I0
sg45
I0
sg102
I0
ssg58
(dp368
g321
I0
sg94
I0
sg91
I0
sg322
I0
sg323
I0
sg204
I0
sg147
I0
sg324
I0
sg99
I0
sg325
I0
sg66
I0
sg326
I0
sg327
I0
sg86
I0
sg328
I0
sg98
I0
sg329
I0
sg97
I0
sg330
I0
sg331
I0
sg67
I0
sg63
I0
sg332
I0
sg181
I0
sg87
I0
sg101
I0
sg133
I0
sg333
I0
sg64
I0
sg65
I0
sg334
I0
sg335
I0
sg186
I0
sg336
I0
sg102
I0
sg121
I0
sg338
I0
sg339
I0
sg340
I0
sg341
I0
sg90
I0
sg60
I0
sg342
I0
sg343
I0
sg344
I0
sg193
I0
sg345
I0
sg62
I0
sg68
I0
sg346
I0
sg95
I0
sg197
I0
sg347
I0
sg93
I0
sg59
I0
sg137
I0
sg199
I0
sg349
I0
sg92
I0
sg350
I0
sg103
I0
sg202
I0
sg203
I0
sg89
I0
sg351
I0
sg70
I0
sg352
I0
sg353
I0
sg354
I0
sg69
I0
sg88
I0
sg355
I0
sg356
I0
sg178
I0
sg58
I0
sg96
I0
sg212
I0
sg357
I0
sg61
I0
sS'put.v.02'
p369
I0
ssg96
(dp370
g96
I0
sg99
I0
sg119
I0
sg120
I0
sg121
I0
sg122
I0
sg123
I0
sg124
I0
sg125
I0
sg98
I0
sg126
I0
sg127
I0
sg128
I0
sg129
I0
sg130
I0
sg131
I0
sg132
I0
sg133
I0
sg134
I0
sg135
I0
sg136
I0
sg137
I0
sg138
I0
sg139
I0
sg140
I0
sg141
I0
sg142
I0
sg143
I0
sg144
I0
sg145
I0
sg146
I0
sg147
I0
sg148
I0
sg95
I0
sg149
I0
sg150
I0
sg151
I0
sg152
I0
sg153
I0
sg154
I0
sg155
I0
sg156
I0
sg157
I0
sg158
I0
sg159
I0
sg97
I0
sg160
I0
sg161
I0
sg162
I0
sg163
I0
sg164
I0
ssg54
(dp371
g31
I0
sg99
I0
sg49
I0
sg15
I0
sg87
I0
sg74
I0
sg84
I0
sg68
I0
sg9
I0
sg59
I0
sg81
I0
sg38
I0
sg8
I0
sg78
I0
sg57
I0
sg23
I0
sg58
I0
sg96
I1
sg54
I4
sg12
I0
sg43
I0
sg13
I0
sg53
I0
sg52
I0
sg86
I0
sg39
I0
sg63
I0
sg101
I0
sg82
I0
sg14
I0
sg10
I0
sg98
I0
sg20
I0
sg25
I0
sg79
I0
sg93
I0
sg24
I0
sg69
I0
sg56
I0
sg34
I0
sg61
I0
sg72
I0
sg73
I0
sg35
I0
sg92
I0
sg40
I0
sg41
I0
sg65
I0
sg47
I0
sg32
I0
sg76
I0
sg26
I0
sg90
I0
sg51
I0
sg77
I0
sg19
I0
sg36
I0
sg62
I0
sg37
I0
sg46
I0
sg50
I0
sg89
I0
sg70
I0
sg103
I0
sg91
I0
sg17
I0
sg94
I0
sg27
I0
sg22
I0
sg42
I0
sg85
I0
sg55
I4
sg66
I0
sg18
I0
sg48
I0
sg28
I0
sg29
I0
sg88
I0
sg71
I0
sg33
I0
sg64
I0
sg30
I0
sg60
I0
sg16
I0
sg21
I0
sg95
I0
sg75
I0
sg11
I0
sg67
I0
sg83
I0
sg97
I0
sg80
I0
sg44
I0
sg45
I0
sg102
I0
ssg12
(dp372
g100
I0
sg17
I0
sg99
I0
sg54
I0
sg73
I0
sg26
I0
sg22
I0
sg95
I0
sg42
I0
sg85
I0
sg55
I0
sg222
I0
sg51
I0
sg49
I0
sg86
I0
sg48
I0
sg98
I0
sg53
I0
sg208
I0
sg52
I0
sg15
I0
sg39
I0
sg40
I0
sg28
I0
sg29
I0
sg35
I0
sg71
I0
sg33
I0
sg41
I0
sg150
I0
sg47
I0
sg30
I0
sg76
I0
sg125
I0
sg44
I0
sg83
I0
sg191
I0
sg74
I0
sg32
I0
sg14
I0
sg10
I0
sg27
I0
sg18
I0
sg45
I0
sg20
I0
sg19
I0
sg36
I0
sg25
I0
sg37
I0
sg21
I0
sg24
I0
sg57
I0
sg84
I0
sg9
I0
sg46
I0
sg112
I0
sg82
I0
sg11
I0
sg81
I0
sg38
I0
sg50
I0
sg87
I0
sg88
I0
sg77
I0
sg97
I0
sg8
I0
sg78
I0
sg89
I0
sg12
I0
sg43
I0
sg23
I0
sg13
I0
sg245
I0
sg80
I0
sg56
I0
sg31
I0
sg75
I0
sg16
I0
sg96
I0
sg79
I0
sg34
I0
sg214
I0
sg72
I0
ssg43
(dp373
g17
I0
sg94
I0
sg91
I0
sg54
I0
sg95
I0
sg26
I0
sg90
I0
sg22
I0
sg99
I0
sg42
I0
sg55
I0
sg125
I0
sg51
I0
sg49
I0
sg48
I0
sg98
I0
sg53
I0
sg52
I0
sg15
I0
sg39
I0
sg40
I0
sg28
I0
sg29
I0
sg35
I0
sg110
I0
sg33
I0
sg41
I0
sg93
I0
sg47
I0
sg30
I0
sg44
I0
sg83
I0
sS'tongue.n.03'
p374
I0
sg32
I0
sg14
I0
sg10
I0
sg27
I0
sg18
I0
sg45
I0
sg20
I0
sg19
I0
sg36
I0
sg25
I0
sg37
I0
sg21
I0
sg24
I0
sg57
I0
sg9
I0
sg46
I0
sg112
I0
sg82
I0
sg11
I0
sg84
I0
sg38
I0
sg92
I0
sg50
I0
sS'salt.n.04'
p375
I0
sg113
I0
sg8
I0
sg155
I0
sg12
I0
sg43
I0
sg23
I0
sg13
I0
sg97
I0
sg115
I0
sg56
I0
sg31
I0
sg16
I0
sg96
I0
sg34
I0
sS'onion.n.03'
p376
I0
ssg13
(dp377
g31
I0
sg99
I0
sg49
I0
sg15
I0
sg87
I0
sg74
I0
sg84
I0
sg68
I0
sg9
I0
sg59
I0
sg81
I0
sg38
I0
sg8
I0
sg78
I0
sg57
I0
sg23
I0
sg58
I0
sg96
I0
sg54
I0
sg12
I0
sg43
I0
sg53
I0
sg52
I0
sg86
I0
sg39
I0
sg63
I0
sg101
I0
sg82
I0
sg14
I0
sg10
I0
sg98
I0
sg20
I0
sg25
I0
sg79
I0
sg24
I0
sg150
I0
sg69
I0
sg56
I0
sg34
I0
sg61
I0
sg72
I0
sg73
I0
sg35
I0
sg40
I0
sg41
I0
sg65
I0
sg47
I0
sg32
I0
sg76
I0
sg26
I0
sg27
I0
sg51
I0
sg77
I0
sg19
I0
sg36
I0
sg62
I0
sg37
I0
sg46
I0
sg50
I0
sg89
I0
sg70
I0
sg103
I0
sg13
I15
sg100
I0
sg17
I0
sg22
I0
sg42
I0
sg85
I0
sg55
I0
sg66
I0
sg18
I0
sg48
I0
sg28
I0
sg29
I0
sg88
I0
sg71
I0
sg33
I0
sg64
I0
sg30
I0
sg60
I0
sg16
I0
sg21
I0
sg95
I0
sg75
I0
sg11
I0
sg67
I0
sg83
I0
sg97
I0
sg80
I0
sg44
I0
sg45
I0
sg102
I0
ssg53
(dp378
g31
I0
sg99
I0
sg49
I0
sg15
I0
sg87
I0
sg74
I0
sg84
I0
sg68
I0
sg9
I0
sg59
I0
sg81
I0
sg38
I0
sg8
I0
sg78
I0
sg57
I0
sg23
I0
sg58
I0
sg96
I0
sg54
I0
sg12
I0
sg43
I0
sg13
I0
sg53
I4
sg52
I2
sg86
I2
sg39
I0
sg63
I0
sg101
I0
sg82
I0
sg14
I0
sg10
I0
sg98
I0
sg20
I0
sg25
I0
sg79
I0
sg93
I0
sg24
I0
sg69
I0
sg56
I0
sg34
I0
sg61
I0
sg72
I0
sg73
I0
sg35
I0
sg92
I0
sg40
I0
sg41
I0
sg65
I0
sg47
I0
sg32
I0
sg76
I0
sg26
I0
sg90
I0
sg51
I0
sg77
I0
sg19
I0
sg36
I0
sg62
I0
sg37
I0
sg46
I0
sg50
I0
sg89
I0
sg70
I0
sg103
I0
sg91
I0
sg100
I0
sg17
I0
sg94
I0
sg27
I0
sg22
I0
sg42
I0
sg85
I0
sg55
I0
sg66
I0
sg18
I0
sg48
I0
sg28
I0
sg29
I0
sg88
I0
sg71
I0
sg33
I0
sg64
I0
sg30
I0
sg60
I0
sg16
I0
sg21
I0
sg95
I0
sg75
I0
sg11
I0
sg67
I1
sg83
I0
sg97
I0
sg80
I0
sg44
I0
sg45
I0
sg102
I0
ssg52
(dp379
g31
I0
sg99
I0
sg49
I0
sg15
I0
sg87
I0
sg74
I0
sg84
I0
sg68
I0
sg9
I0
sg59
I0
sg81
I0
sg38
I0
sg8
I0
sg78
I0
sg57
I0
sg23
I0
sg58
I0
sg96
I0
sg54
I0
sg12
I0
sg43
I0
sg13
I0
sg53
I7
sg52
I9
sg86
I0
sg39
I0
sg63
I0
sg101
I0
sg82
I0
sg14
I0
sg10
I0
sg98
I0
sg20
I0
sg25
I0
sg79
I0
sg93
I0
sg24
I0
sg69
I0
sg56
I0
sg34
I0
sg61
I0
sg72
I0
sg73
I0
sg35
I0
sg92
I0
sg40
I0
sg41
I0
sg65
I0
sg47
I0
sg32
I0
sg76
I0
sg26
I0
sg90
I0
sg51
I0
sg77
I0
sg19
I0
sg36
I0
sg62
I0
sg37
I0
sg46
I0
sg50
I0
sg89
I0
sg70
I0
sg103
I0
sg91
I0
sg100
I0
sg17
I0
sg94
I0
sg27
I0
sg22
I0
sg42
I0
sg85
I0
sg55
I0
sg66
I0
sg18
I0
sg48
I0
sg28
I0
sg29
I0
sg88
I0
sg71
I0
sg33
I0
sg64
I0
sg30
I0
sg60
I0
sg16
I0
sg21
I0
sg95
I0
sg75
I0
sg11
I0
sg67
I2
sg83
I0
sg97
I0
sg80
I0
sg44
I0
sg45
I0
sg102
I0
ssg86
(dp380
g168
I0
sg169
I0
sg187
I0
sg171
I0
sg172
I0
sg173
I0
sg174
I0
sg175
I0
sg176
I0
sg177
I0
sg86
I0
sg179
I0
sg180
I0
sg181
I0
sg88
I0
sg101
I0
sg87
I0
sg182
I0
sg183
I0
sg184
I0
sg185
I0
sg186
I0
sg102
I0
sg188
I0
sg189
I0
sg170
I0
sg190
I0
sg191
I0
sg192
I0
sg193
I0
sS'plate.n.04'
p381
I0
sg194
I0
sg195
I0
sg196
I0
sS'beef.n.02'
p382
I0
sg197
I0
sg198
I0
sg348
I0
sS'bacon.n.01'
p383
I0
sg199
I0
sg337
I0
sg200
I0
sg201
I0
sg103
I0
sg202
I0
sg203
I0
sg89
I0
sg204
I0
sg205
I0
sg206
I0
sg207
I0
sg208
I0
sg209
I0
sg210
I0
sg178
I0
sg211
I0
sg212
I0
sg213
I0
sg214
I0
ssg39
(dp384
g17
I0
sg54
I0
sg108
I0
sg26
I0
sg22
I0
sg42
I0
sg85
I0
sg55
I0
sg109
I0
sg51
I0
sg49
I0
sg48
I0
sg53
I0
sg52
I0
sg15
I0
sg39
I0
sg40
I0
sg28
I0
sg29
I0
sg35
I0
sg110
I0
sg33
I0
sg41
I0
sg47
I0
sg30
I0
sg44
I0
sg83
I0
sg116
I0
sg32
I0
sg14
I0
sg10
I0
sg27
I0
sg18
I0
sg45
I0
sg20
I0
sg19
I0
sg36
I0
sg25
I0
sg37
I0
sg21
I0
sg24
I0
sg57
I0
sg111
I0
sg9
I0
sg46
I0
sg112
I0
sg82
I0
sg11
I0
sg84
I0
sg38
I0
sg50
I0
sg113
I0
sg8
I0
sg12
I0
sg43
I0
sg23
I0
sg13
I0
sg114
I0
sg115
I0
sg56
I0
sg31
I0
sg16
I0
sg117
I0
sg34
I0
ssg63
(dp385
g321
I0
sg322
I0
sg323
I0
sg324
I0
sg325
I0
sg66
I0
sg326
I0
sg327
I0
sg328
I0
sg329
I0
sg330
I0
sg331
I0
sg67
I0
sg63
I0
sg332
I0
sg333
I0
sg64
I0
sg65
I0
sg334
I0
sg335
I0
sg336
I0
sg338
I0
sg339
I0
sg340
I0
sg341
I0
sg60
I0
sg342
I0
sg343
I0
sg344
I0
sg345
I0
sg62
I0
sg68
I0
sg346
I0
sg347
I0
sg59
I0
sg349
I0
sg350
I0
sg351
I0
sg70
I0
sg352
I0
sg353
I0
sg354
I0
sg69
I0
sg355
I0
sg356
I0
sg58
I0
sg357
I0
sg61
I0
ssg101
(dp386
S'chicken.n.01'
p387
I0
sg382
I0
sS'bread.n.01'
p388
I0
sS'batter.n.02'
p389
I0
sg270
I0
sg337
I0
sg274
I0
sS'milk.n.01'
p390
I0
sS'pan.n.01'
p391
I0
sS'pan.n.03'
p392
I0
sS'cut.v.01'
p393
I0
sS'fill.v.09'
p394
I0
sS'cabbage.n.01'
p395
I0
sS'egg.n.02'
p396
I0
sg305
I0
sg101
I0
sg383
I0
sS'fill.v.01'
p397
I0
sS'pitcher.n.02'
p398
I0
sS'kettle.n.01'
p399
I0
sS'cleaver.n.01'
p400
I0
sg288
I0
sS'salt.n.02'
p401
I0
sS'meat.n.01'
p402
I0
sS'slice.v.03'
p403
I0
sS'knife.n.01'
p404
I0
sS'banana.n.02'
p405
I0
sS'knife.n.02'
p406
I0
sg381
I0
sS'pepper.n.04'
p407
I0
sg318
I0
sS'pepper.n.03'
p408
I0
sg314
I0
sg348
I0
sS'piece.n.08'
p409
I0
sS'opening.n.01'
p410
I0
sS'mug.n.04'
p411
I0
sg103
I0
sS'flesh.n.01'
p412
I0
sg308
I0
sS'helicopter.n.01'
p413
I0
sS'water.n.06'
p414
I0
sS'put.v.01'
p415
I0
sS'pizza.n.01'
p416
I0
sg277
I0
sS'whipped_cream.n.01'
p417
I0
sS'cake.n.03'
p418
I0
sg102
I0
sS'tongue.n.03'
p419
I0
sS'onion.n.01'
p420
I0
sg306
I0
ssg82
(dp421
g100
I0
sg266
I0
sg267
I0
sg108
I0
sg268
I0
sg269
I0
sg271
I0
sg85
I0
sg272
I0
sg109
I0
sg84
I0
sg112
I0
sg275
I0
sg276
I0
sg278
I0
sg279
I0
sg280
I0
sg281
I0
sg282
I0
sg283
I0
sg232
I0
sg284
I0
sg110
I0
sg285
I0
sg286
I0
sg82
I0
sg287
I0
sg289
I0
sg83
I0
sg116
I0
sg290
I0
sg291
I0
sg292
I0
sg240
I0
sg273
I0
sS'cake.n.01'
p422
I0
sg293
I0
sg294
I0
sg295
I0
sg296
I0
sg297
I0
sg298
I0
sg299
I0
sg300
I0
sg301
I0
sg302
I0
sg111
I0
sg303
I0
sg304
I0
sg113
I0
sg307
I0
sS'water.n.03'
p423
I0
sS'helicopter.n.01'
p424
I0
sg309
I0
sg310
I0
sg311
I0
sg312
I0
sg114
I0
sg115
I0
sS'kettle.n.01'
p425
I0
sg313
I0
sS'gap.n.05'
p426
I0
sg315
I0
sg117
I0
sg316
I0
sg317
I0
sg319
I0
ssg14
(dp427
g31
I0
sg99
I0
sg49
I0
sg15
I0
sg87
I0
sg74
I0
sg84
I0
sg68
I0
sg9
I0
sg59
I0
sg81
I0
sg38
I0
sg8
I0
sg78
I0
sg57
I0
sg23
I0
sg58
I0
sg96
I0
sg54
I0
sg12
I0
sg43
I0
sg13
I0
sg53
I0
sg52
I0
sg86
I0
sg39
I0
sg63
I0
sg82
I0
sg14
I0
sg10
I0
sg98
I0
sg20
I0
sg25
I0
sg79
I0
sg93
I0
sg24
I0
sg69
I0
sg56
I0
sg34
I0
sg61
I0
sg72
I0
sg73
I0
sg35
I0
sg92
I0
sg40
I0
sg41
I0
sg65
I0
sg47
I0
sg32
I0
sg76
I0
sg26
I0
sg90
I0
sg51
I0
sg77
I0
sg19
I0
sg36
I0
sg62
I0
sg37
I0
sg46
I0
sg50
I0
sg89
I0
sg70
I0
sg91
I0
sg100
I0
sg17
I0
sg94
I0
sg27
I0
sg22
I0
sg42
I0
sg85
I0
sg55
I0
sg66
I0
sg18
I0
sg48
I0
sg28
I0
sg29
I0
sg88
I0
sg71
I0
sg33
I0
sg64
I0
sg30
I0
sg60
I0
sg16
I0
sg21
I0
sg95
I0
sg75
I0
sg11
I0
sg67
I0
sg83
I0
sg97
I0
sg80
I0
sg44
I0
sg45
I0
ssg10
(dp428
g31
I0
sg99
I0
sg49
I0
sg15
I0
sg87
I0
sg74
I0
sg84
I0
sg68
I0
sg9
I0
sg59
I0
sg81
I0
sg38
I0
sg8
I0
sg78
I0
sg57
I0
sg23
I0
sg58
I0
sg96
I0
sg54
I0
sg12
I0
sg43
I0
sg13
I0
sg53
I0
sg52
I0
sg86
I0
sg39
I0
sg63
I0
sg101
I0
sg82
I0
sg14
I25
sg10
I20
sg98
I0
sg20
I0
sg25
I0
sg79
I0
sg93
I0
sg24
I0
sg69
I0
sg56
I0
sg34
I0
sg61
I0
sg72
I0
sg73
I0
sg35
I0
sg92
I0
sg40
I0
sg41
I0
sg65
I0
sg47
I0
sg32
I0
sg76
I0
sg26
I0
sg90
I0
sg51
I0
sg77
I0
sg19
I0
sg36
I0
sg62
I0
sg37
I0
sg46
I0
sg50
I0
sg89
I0
sg70
I0
sg103
I0
sg91
I0
sg100
I0
sg17
I0
sg94
I0
sg27
I0
sg22
I0
sg42
I0
sg85
I0
sg55
I0
sg66
I0
sg18
I0
sg48
I0
sg28
I0
sg29
I0
sg88
I0
sg71
I0
sg33
I0
sg64
I0
sg30
I0
sg60
I0
sg16
I0
sg21
I0
sg95
I0
sg75
I0
sg11
I0
sg67
I0
sg83
I0
sg97
I0
sg80
I0
sg44
I0
sg45
I0
sg102
I0
ssg98
(dp429
g96
I0
sg99
I0
sg119
I0
sg120
I0
sg121
I0
sg122
I0
sg123
I0
sg124
I0
sg125
I0
sg126
I0
sg127
I0
sg128
I0
sg129
I0
sg130
I0
sg131
I0
sg132
I0
sg133
I0
sg134
I0
sg135
I0
sg136
I0
sg137
I0
sg143
I0
sg138
I0
sg139
I0
sg140
I0
sg141
I0
sg142
I0
sg98
I0
sg144
I0
sg145
I0
sg146
I0
sg147
I0
sg148
I0
sg95
I0
sg149
I0
sg150
I0
sg151
I0
sg152
I0
sg153
I0
sg154
I0
sg155
I0
sg156
I0
sg157
I0
sg158
I0
sg159
I0
sg97
I0
sg160
I0
sg161
I0
sg162
I0
sg163
I0
sg164
I0
ssg20
(dp430
g31
I0
sg99
I0
sg49
I0
sg15
I0
sg87
I0
sg74
I0
sg84
I0
sg68
I0
sg9
I0
sg59
I0
sg81
I0
sg38
I0
sg8
I0
sg78
I0
sg57
I0
sg23
I0
sg58
I0
sg96
I0
sg54
I0
sg12
I0
sg43
I0
sg13
I0
sg53
I0
sg52
I0
sg86
I0
sg39
I0
sg63
I0
sg101
I0
sg82
I0
sg14
I0
sg10
I0
sg98
I1
sg20
I8
sg25
I0
sg79
I0
sg93
I0
sg24
I0
sg69
I0
sg56
I0
sg34
I0
sg61
I0
sg72
I0
sg73
I0
sg35
I0
sg92
I0
sg40
I0
sg41
I0
sg65
I0
sg47
I0
sg32
I0
sg76
I0
sg26
I0
sg90
I0
sg51
I0
sg77
I0
sg19
I0
sg36
I0
sg62
I0
sg37
I0
sg46
I0
sg50
I0
sg89
I0
sg70
I0
sg103
I0
sg91
I0
sg100
I0
sg17
I0
sg94
I0
sg27
I0
sg22
I0
sg42
I0
sg55
I0
sg66
I0
sg18
I0
sg48
I0
sg28
I0
sg29
I0
sg88
I0
sg71
I0
sg33
I0
sg64
I0
sg30
I0
sg60
I0
sg16
I0
sg21
I0
sg95
I0
sg75
I0
sg11
I0
sg67
I0
sg83
I0
sg97
I0
sg80
I0
sg44
I0
sg45
I0
sg102
I0
ssg25
(dp431
g31
I0
sg99
I0
sg49
I0
sg15
I0
sg87
I0
sg74
I0
sg84
I0
sg68
I0
sg9
I0
sg59
I0
sg81
I0
sg38
I0
sg8
I0
sg78
I0
sg57
I0
sg23
I0
sg58
I0
sg96
I0
sg54
I0
sg12
I0
sg43
I0
sg13
I0
sg53
I0
sg52
I0
sg86
I0
sg39
I0
sg63
I0
sg101
I0
sg82
I0
sg14
I0
sg10
I0
sg98
I0
sg20
I0
sg25
I3
sg79
I3
sg93
I0
sg24
I3
sg69
I0
sg56
I0
sg34
I0
sg61
I0
sg72
I0
sg73
I0
sg35
I0
sg92
I0
sg40
I0
sg41
I0
sg65
I0
sg47
I0
sg32
I0
sg76
I0
sg26
I0
sg90
I0
sg51
I0
sg77
I0
sg19
I0
sg36
I0
sg62
I0
sg37
I0
sg46
I0
sg50
I0
sg89
I0
sg70
I0
sg103
I0
sg91
I0
sg100
I0
sg17
I0
sg94
I0
sg27
I0
sg22
I0
sg42
I0
sg85
I0
sg55
I0
sg66
I0
sg18
I0
sg48
I0
sg28
I0
sg29
I0
sg88
I0
sg71
I0
sg33
I0
sg64
I0
sg30
I0
sg60
I0
sg16
I0
sg21
I0
sg95
I0
sg75
I0
sg11
I0
sg67
I0
sg83
I0
sg97
I0
sg80
I0
sg44
I0
sg45
I0
sg102
I0
ssg79
(dp432
g216
I0
sg73
I0
sg217
I0
sg218
I0
sg219
I0
sg220
I0
sg85
I0
sg221
I0
sg222
I0
sg223
I0
sg224
I0
sg86
I0
sg225
I0
sg226
I0
sg227
I0
sg228
I0
sg229
I0
sg230
I0
sg231
I0
sg232
I0
sg87
I0
sg71
I0
sg233
I0
sg234
I0
sg235
I0
sg236
I0
sg76
I0
sg244
I0
sg191
I0
sg74
I0
sg237
I0
sg238
I0
sg239
I0
sg240
I0
sg241
I0
sg242
I0
sg77
I0
sg193
I0
sg243
I0
sg245
I0
sg79
I0
sg246
I0
sg247
I0
sg248
I0
sg249
I0
sg250
I0
sg251
I0
sg81
I0
sg252
I0
sg253
I0
sg88
I0
sg254
I0
sg78
I0
sg89
I0
sg255
I0
sg256
I0
sg257
I0
sg258
I0
sg208
I0
sg259
I0
sg80
I0
sg260
I0
sg261
I0
sg75
I0
sg262
I0
sg263
I0
sg264
I0
sg214
I0
sg72
I0
ssg93
(dp433
S'cheese.n.01'
p434
I0
sg94
I0
sg99
I0
sS'chicken.n.01'
p435
I0
sS'salt.n.02'
p436
I0
sg124
I0
sg369
I0
sg270
I0
sg406
I0
sg122
I0
sg125
I0
sS'knife.n.01'
p437
I0
sg159
I0
sg274
I0
sS'milk.n.01'
p438
I0
sg98
I0
sS'pan.n.01'
p439
I0
sg277
I0
sS'pan.n.03'
p440
I0
sS'cut.v.01'
p441
I0
sS'fill.v.09'
p442
I0
sS'egg.n.02'
p443
I0
sS'egg.n.01'
p444
I0
sS'beef.n.02'
p445
I0
sg101
I0
sg133
I0
sS'bacon.n.01'
p446
I0
sS'fill.v.01'
p447
I0
sS'pitcher.n.02'
p448
I0
sS'meat.n.01'
p449
I0
sg288
I0
sg102
I0
sg121
I0
sS'cleaver.n.01'
p450
I0
sS'slice.v.02'
p451
I0
sS'slice.v.03'
p452
I0
sg90
I0
sS'cabbage.n.01'
p453
I0
sg374
I0
sS'banana.n.02'
p454
I0
sg375
I0
sS'plate.n.04'
p455
I0
sS'pepper.n.04'
p456
I0
sg147
I0
sg93
I0
sg95
I0
sg137
I0
sg149
I0
sS'pepper.n.03'
p457
I0
sS'piece.n.08'
p458
I0
sS'bread.n.01'
p459
I0
sg153
I0
sg92
I0
sS'mug.n.04'
p460
I0
sg103
I0
sS'flesh.n.01'
p461
I0
sg308
I0
sg155
I0
sg318
I0
sg156
I0
sS'water.n.06'
p462
I0
sS'put.v.01'
p463
I0
sg91
I0
sg97
I0
sS'kettle.n.01'
p464
I0
sg161
I0
sg314
I0
sS'lemon.n.01'
p465
I0
sg96
I0
sS'onion.n.01'
p466
I0
sg376
I0
ssg24
(dp467
g31
I0
sg99
I0
sg49
I0
sg15
I0
sg87
I0
sg116
I0
sg84
I0
sg68
I0
sg9
I0
sg59
I0
sg111
I0
sg38
I0
sg8
I0
sg203
I0
sg57
I0
sg23
I0
sg58
I0
sg96
I0
sg54
I0
sg12
I0
sg43
I0
sg13
I0
sg53
I0
sg52
I0
sg86
I0
sg39
I0
sg63
I0
sg101
I0
sg82
I3
sg14
I0
sg10
I0
sg98
I0
sg20
I0
sg25
I4
sg117
I0
sg93
I0
sg24
I2
sg69
I0
sg56
I0
sg34
I0
sg61
I0
sg108
I0
sg35
I0
sg92
I0
sg40
I0
sg41
I0
sg65
I0
sg47
I0
sg32
I0
sg186
I0
sg26
I0
sg90
I0
sg51
I0
sg113
I0
sg19
I0
sg36
I0
sg62
I0
sg37
I0
sg46
I0
sg50
I0
sg89
I0
sg70
I0
sg103
I0
sg91
I0
sg100
I0
sg17
I0
sg94
I0
sg27
I0
sg22
I0
sg42
I0
sg85
I0
sg55
I0
sg66
I0
sg18
I0
sg48
I0
sg28
I0
sg29
I0
sg88
I0
sg110
I0
sg33
I0
sg64
I0
sg30
I0
sg60
I0
sg16
I0
sg21
I0
sg95
I0
sg178
I0
sg11
I0
sg67
I0
sg83
I0
sg97
I0
sg115
I0
sg44
I0
sg45
I0
sg102
I0
ssg69
(dp468
g321
I0
sg322
I0
sg323
I0
sg204
I0
sg324
I0
sg325
I0
sg66
I0
sg326
I0
sg327
I0
sg86
I0
sg328
I0
sg329
I0
sg330
I0
sg331
I0
sg67
I0
sg63
I0
sg332
I0
sg181
I0
sg87
I0
sg101
I0
sg333
I0
sg64
I0
sg65
I0
sg334
I0
sg335
I0
sg186
I0
sg336
I0
sg102
I0
sg338
I0
sg339
I0
sg340
I0
sg341
I0
sg60
I0
sg342
I0
sg343
I0
sg344
I0
sg193
I0
sg345
I0
sg62
I0
sg68
I0
sg346
I0
sg197
I0
sg347
I0
sg348
I0
sg59
I0
sg337
I0
sg199
I0
sg349
I0
sg350
I0
sg103
I0
sg202
I0
sg203
I0
sg89
I0
sg351
I0
sg70
I0
sg352
I0
sg353
I0
sg354
I0
sg69
I0
sg88
I0
sg355
I0
sg356
I0
sg178
I0
sg58
I0
sg212
I0
sg357
I0
sg61
I0
ssg56
(dp469
g31
I0
sg99
I0
sg49
I0
sg15
I0
sg87
I0
sg74
I0
sg137
I0
sg68
I0
sg9
I0
sg59
I0
sg81
I0
sg38
I0
sg8
I0
sg78
I0
sg57
I0
sg23
I0
sg58
I0
sg96
I0
sg54
I0
sg12
I0
sg43
I0
sg13
I0
sg53
I0
sg52
I0
sg86
I0
sg39
I0
sg63
I0
sg101
I0
sg250
I0
sg14
I0
sg10
I0
sg98
I0
sg20
I0
sg25
I0
sg79
I0
sg93
I0
sg24
I0
sg69
I3
sg56
I6
sg34
I0
sg61
I0
sg72
I0
sg73
I0
sg35
I0
sg92
I0
sg40
I0
sg41
I0
sg65
I0
sg47
I0
sg32
I0
sg76
I0
sg26
I0
sg90
I0
sg51
I0
sg77
I0
sg19
I0
sg36
I0
sg62
I0
sg37
I0
sg46
I0
sg50
I0
sg89
I0
sg70
I0
sg103
I0
sg91
I0
sg100
I0
sg17
I0
sg94
I0
sg27
I0
sg22
I0
sg42
I0
sg85
I0
sg55
I0
sg66
I0
sg18
I0
sg48
I0
sg28
I0
sg29
I0
sg88
I0
sg71
I0
sg33
I0
sg64
I0
sg30
I0
sg60
I0
sg16
I0
sg21
I0
sg95
I0
sg75
I0
sg11
I0
sg67
I0
sg121
I0
sg97
I0
sg80
I0
sg44
I0
sg45
I0
sg102
I0
ssg34
(dp470
g31
I0
sg99
I0
sg49
I0
sg15
I0
sg87
I0
sg74
I0
sg84
I0
sg68
I0
sg9
I0
sg59
I0
sg81
I0
sg38
I0
sg8
I0
sg78
I0
sg57
I0
sg23
I0
sg58
I0
sg96
I0
sg54
I0
sg12
I0
sg43
I0
sg13
I0
sg53
I0
sg52
I0
sg86
I0
sg39
I0
sg63
I0
sg101
I0
sg82
I0
sg14
I0
sg10
I0
sg98
I0
sg20
I0
sg25
I0
sg79
I0
sg93
I0
sg24
I0
sg69
I0
sg56
I0
sg34
I12
sg61
I5
sg72
I1
sg73
I0
sg35
I0
sg92
I0
sg40
I0
sg41
I0
sg65
I0
sg47
I0
sg32
I0
sg76
I0
sg26
I0
sg90
I0
sg51
I0
sg77
I0
sg19
I0
sg36
I0
sg62
I0
sg37
I0
sg46
I0
sg50
I0
sg89
I0
sg70
I0
sg103
I0
sg91
I0
sg100
I0
sg17
I0
sg94
I0
sg27
I0
sg22
I0
sg42
I0
sg85
I0
sg55
I0
sg66
I0
sg18
I0
sg48
I0
sg28
I0
sg29
I0
sg88
I0
sg71
I0
sg33
I0
sg64
I0
sg30
I0
sg60
I0
sg16
I0
sg21
I0
sg95
I0
sg75
I0
sg11
I0
sg67
I0
sg83
I0
sg97
I0
sg80
I0
sg44
I0
sg45
I0
sg102
I0
ssg61
(dp471
g321
I0
sg94
I0
sg91
I0
sg322
I0
sg323
I0
sg204
I0
sg324
I0
sg325
I0
sg66
I0
sg326
I0
sg327
I0
sg86
I0
sg328
I0
sg329
I0
sg330
I0
sg331
I0
sg67
I0
sg63
I0
sg332
I0
sg181
I0
sg87
I0
sg101
I0
sg333
I0
sg64
I0
sg65
I0
sg334
I0
sg335
I0
sg186
I0
sg336
I0
sg102
I0
sg338
I0
sg339
I0
sg340
I0
sg341
I0
sg90
I0
sg60
I0
sg342
I0
sg343
I0
sg344
I0
sg193
I0
sg345
I0
sg62
I0
sg68
I0
sg346
I0
sg197
I0
sg347
I0
sg93
I0
sg59
I0
sg337
I0
sg199
I0
sg349
I0
sg92
I0
sg350
I0
sg103
I0
sg202
I0
sg203
I0
sg89
I0
sg351
I0
sg70
I0
sg352
I0
sg353
I0
sg354
I0
sg69
I0
sg88
I0
sg355
I0
sg356
I0
sg178
I0
sg58
I0
sg212
I0
sg357
I0
sg61
I0
sg369
I0
ssg72
(dp472
g216
I0
sg73
I0
sg217
I0
sg219
I0
sg220
I0
sg221
I0
sg222
I0
sg223
I0
sg225
I0
sg226
I0
sg227
I0
sg228
I0
sg229
I0
sg230
I0
sg71
I0
sg233
I0
sg234
I0
sg235
I0
sg76
I0
sg74
I0
sg238
I0
sg239
I0
sg241
I0
sg242
I0
sg77
I0
sg243
I0
sg244
I0
sg245
I0
sg247
I0
sg248
I0
sg249
I0
sg251
I0
sg81
I0
sg252
I0
sg253
I0
sg254
I0
sg78
I0
sg255
I0
sg256
I0
sg257
I0
sg258
I0
sg80
I0
sg260
I0
sg261
I0
sg75
I0
sg262
I0
sg79
I0
sg264
I0
sg72
I0
ssg73
(dp473
g216
I0
sg73
I0
sg217
I0
sg218
I0
sg219
I0
sg220
I0
sg85
I0
sg221
I0
sg222
I0
sg223
I0
sg224
I0
sg225
I0
sg226
I0
sg227
I0
sg228
I0
sg229
I0
sg230
I0
sg231
I0
sg232
I0
sg71
I0
sg233
I0
sg234
I0
sg235
I0
sg236
I0
sg76
I0
sg74
I0
sg237
I0
sg238
I0
sg239
I0
sg240
I0
sg241
I0
sg242
I0
sg77
I0
sg243
I0
sg244
I0
sg245
I0
sg246
I0
sg247
I0
sg248
I0
sg249
I0
sg250
I0
sg251
I0
sg81
I0
sg252
I0
sg253
I0
sg254
I0
sg78
I0
sg255
I0
sg256
I0
sg257
I0
sg258
I0
sg259
I0
sg80
I0
sg260
I0
sg261
I0
sg75
I0
sg262
I0
sg263
I0
sg79
I0
sg264
I0
sg72
I0
ssg35
(dp474
g31
I0
sg99
I0
sg49
I0
sg15
I0
sg74
I0
sg84
I0
sg68
I0
sg9
I0
sg59
I0
sg81
I0
sg38
I0
sg8
I0
sg78
I0
sg57
I0
sg23
I0
sg58
I0
sg96
I0
sg54
I0
sg12
I0
sg43
I0
sg13
I0
sg53
I0
sg52
I0
sg75
I0
sg39
I0
sg63
I0
sg101
I0
sg82
I0
sg14
I0
sg10
I0
sg98
I0
sg20
I0
sg25
I0
sg79
I0
sg93
I3
sg24
I0
sg69
I0
sg56
I0
sg34
I0
sg61
I0
sg72
I0
sg73
I2
sg35
I4
sg11
I0
sg40
I0
sg41
I0
sg65
I0
sg47
I0
sg32
I0
sg76
I0
sg26
I0
sg90
I0
sg51
I0
sg77
I0
sg375
I0
sg36
I0
sg62
I0
sg37
I0
sg46
I0
sg50
I0
sg155
I0
sg70
I0
sg103
I0
sg91
I0
sg100
I0
sg17
I0
sg94
I0
sg27
I0
sg22
I0
sg42
I0
sg85
I0
sg55
I0
sg66
I0
sg18
I0
sg48
I0
sg28
I0
sg29
I0
sg19
I0
sg71
I0
sg33
I0
sg64
I0
sg30
I0
sg60
I0
sg16
I0
sg21
I0
sg95
I0
sg274
I0
sg92
I0
sg67
I0
sg83
I0
sg97
I0
sg80
I0
sg44
I0
sg45
I0
sg102
I0
ssg92
(dp475
g434
I0
sg94
I0
sg435
I0
sg436
I0
sg369
I0
sg437
I0
sg92
I0
sg439
I0
sg440
I0
sg441
I0
sg442
I0
sg443
I0
sg444
I0
sg445
I0
sg446
I0
sg447
I0
sg448
I0
sg449
I0
sg450
I0
sg451
I0
sg452
I0
sg90
I0
sg453
I0
sg374
I0
sg454
I0
sg375
I0
sg455
I0
sg456
I0
sg457
I0
sg93
I0
sg458
I0
sg459
I0
sg460
I0
sg461
I0
sg438
I0
sg462
I0
sg463
I0
sg91
I0
sg464
I0
sg465
I0
sg466
I0
sg376
I0
ssg40
(dp476
g31
I0
sg99
I0
sg49
I0
sg15
I0
sg87
I0
sg74
I0
sg84
I0
sg68
I0
sg9
I0
sg59
I0
sg81
I0
sg38
I0
sg8
I0
sg78
I0
sg57
I0
sg23
I0
sg58
I0
sg96
I0
sg54
I0
sg12
I0
sg43
I0
sg13
I0
sg53
I0
sg52
I0
sg86
I0
sg39
I0
sg63
I0
sg101
I0
sg82
I0
sg14
I0
sg10
I0
sg98
I0
sg20
I0
sg25
I0
sg79
I0
sg93
I0
sg24
I0
sg69
I0
sg56
I0
sg34
I0
sg61
I0
sg72
I0
sg73
I0
sg35
I0
sg92
I0
sg40
I6
sg41
I3
sg65
I0
sg47
I0
sg32
I0
sg76
I0
sg26
I0
sg90
I0
sg51
I0
sg77
I0
sg19
I0
sg36
I0
sg62
I0
sg37
I0
sg46
I0
sg50
I0
sg89
I0
sg70
I0
sg103
I0
sg91
I0
sg100
I0
sg17
I0
sg94
I0
sg27
I0
sg22
I0
sg42
I0
sg85
I0
sg55
I0
sg66
I0
sg18
I0
sg48
I0
sg28
I0
sg29
I0
sg88
I0
sg71
I0
sg33
I0
sg64
I0
sg30
I0
sg60
I0
sg16
I0
sg21
I0
sg95
I0
sg75
I0
sg11
I0
sg67
I0
sg83
I0
sg97
I0
sg80
I0
sg44
I0
sg45
I0
sg102
I0
ssg41
(dp477
g31
I0
sg99
I0
sg49
I0
sg15
I0
sg87
I0
sg74
I0
sg84
I0
sg68
I6
sg9
I0
sg59
I0
sg81
I0
sg38
I0
sg8
I0
sg78
I0
sg57
I0
sg23
I0
sg58
I0
sg96
I0
sg54
I0
sg12
I0
sg43
I0
sg13
I0
sg53
I0
sg52
I0
sg86
I0
sg39
I0
sg63
I0
sg101
I0
sg82
I0
sg14
I0
sg10
I0
sg98
I0
sg20
I0
sg25
I0
sg79
I0
sg93
I0
sg24
I0
sg69
I0
sg56
I0
sg34
I0
sg61
I0
sg72
I0
sg73
I0
sg35
I0
sg92
I0
sg40
I22
sg41
I8
sg65
I0
sg47
I0
sg32
I0
sg76
I0
sg26
I0
sg90
I0
sg51
I0
sg77
I0
sg19
I0
sg36
I0
sg62
I0
sg37
I0
sg46
I0
sg50
I0
sg89
I0
sg70
I0
sg103
I0
sg91
I0
sg100
I0
sg17
I0
sg94
I0
sg27
I0
sg22
I0
sg42
I0
sg85
I0
sg55
I0
sg66
I0
sg18
I0
sg48
I0
sg28
I0
sg29
I0
sg88
I0
sg71
I0
sg33
I0
sg64
I0
sg30
I0
sg60
I0
sg16
I0
sg21
I0
sg95
I0
sg75
I0
sg11
I0
sg67
I0
sg83
I0
sg97
I0
sg80
I0
sg44
I0
sg45
I0
sg102
I0
ssg65
(dp478
g321
I0
sg322
I0
sg323
I0
sg324
I0
sg325
I0
sg66
I0
sg326
I0
sg327
I0
sg328
I0
sg329
I0
sg330
I0
sg331
I0
sg67
I0
sg63
I0
sg332
I0
sg333
I0
sg64
I0
sg65
I0
sg334
I0
sg335
I0
sg336
I0
sg338
I0
sg339
I0
sg340
I0
sg341
I0
sg60
I0
sg342
I0
sg343
I0
sg344
I0
sg345
I0
sg62
I0
sg68
I0
sg346
I0
sg347
I0
sg59
I0
sg349
I0
sg350
I0
sg351
I0
sg70
I0
sg352
I0
sg353
I0
sg354
I0
sg69
I0
sg355
I0
sg356
I0
sg58
I0
sg357
I0
sg61
I0
ssg47
(dp479
g31
I0
sg49
I0
sg15
I0
sg87
I0
sg74
I0
sg84
I0
sg68
I0
sg9
I0
sg59
I0
sg81
I0
sg38
I0
sg8
I0
sg78
I0
sg57
I0
sg23
I0
sg58
I0
sg54
I0
sg12
I0
sg43
I0
sg13
I0
sg53
I0
sg52
I0
sg86
I0
sg39
I0
sg63
I0
sg101
I0
sg82
I0
sg14
I0
sg10
I0
sg20
I0
sg25
I0
sg79
I0
sg93
I0
sg24
I0
sg69
I0
sg56
I0
sg34
I0
sg61
I0
sg72
I0
sg73
I0
sg35
I0
sg92
I0
sg40
I0
sg41
I0
sg65
I1
sg47
I5
sg32
I0
sg76
I3
sg26
I0
sg90
I0
sg51
I0
sg77
I0
sg19
I0
sg36
I0
sg62
I0
sg37
I0
sg46
I0
sg50
I0
sg89
I0
sg70
I0
sg103
I0
sg91
I0
sg100
I0
sg17
I0
sg94
I0
sg27
I0
sg22
I0
sg42
I0
sg85
I0
sg55
I0
sg66
I0
sg18
I0
sg48
I0
sg28
I0
sg29
I0
sg88
I0
sg71
I0
sg33
I0
sg64
I0
sg30
I0
sg60
I0
sg16
I0
sg21
I0
sg75
I0
sg11
I0
sg67
I0
sg83
I0
sg80
I0
sg44
I0
sg45
I0
sg102
I0
ssg32
(dp480
g31
I0
sg99
I0
sg49
I0
sg15
I0
sg87
I0
sg116
I0
sg84
I0
sg68
I0
sg9
I0
sg59
I0
sg111
I0
sg38
I0
sg8
I0
sg203
I0
sg57
I0
sg23
I0
sg58
I0
sg96
I0
sg54
I0
sg12
I0
sg43
I0
sg13
I0
sg53
I0
sg52
I0
sg86
I0
sg39
I0
sg63
I0
sg101
I0
sg82
I0
sg14
I0
sg10
I0
sg98
I0
sg20
I0
sg25
I0
sg117
I0
sg93
I0
sg24
I0
sg69
I0
sg56
I0
sg34
I0
sg61
I0
sg108
I0
sg35
I0
sg92
I1
sg40
I0
sg41
I0
sg65
I0
sg47
I0
sg32
I3
sg186
I0
sg26
I0
sg90
I0
sg51
I0
sg113
I0
sg19
I0
sg36
I0
sg62
I0
sg37
I0
sg46
I0
sg50
I0
sg89
I4
sg70
I0
sg103
I0
sg91
I0
sg100
I0
sg17
I0
sg94
I0
sg27
I0
sg22
I0
sg42
I0
sg85
I0
sg55
I0
sg66
I0
sg18
I0
sg48
I0
sg28
I0
sg29
I0
sg88
I0
sg110
I0
sg33
I0
sg64
I0
sg30
I0
sg60
I1
sg16
I0
sg21
I0
sg95
I0
sg178
I0
sg11
I0
sg67
I0
sg83
I0
sg97
I0
sg115
I0
sg44
I0
sg45
I0
sg102
I0
ssg76
(dp481
g216
I0
sg73
I0
sg217
I0
sg219
I0
sg220
I0
sg221
I0
sg222
I0
sg223
I0
sg86
I0
sg225
I0
sg226
I0
sg227
I0
sg228
I0
sg229
I0
sg230
I0
sg180
I0
sg181
I0
sg87
I0
sg101
I0
sg71
I0
sg233
I0
sg234
I0
sg235
I0
sg185
I0
sg76
I0
sg102
I0
sg337
I0
sg191
I0
sg74
I0
sg188
I0
sg238
I0
sg239
I0
sg241
I0
sg242
I0
sg77
I0
sg193
I0
sg243
I0
sg244
I0
sg245
I0
sg196
I0
sg247
I0
sg248
I0
sg249
I0
sg348
I0
sg187
I0
sg251
I0
sg81
I0
sg252
I0
sg253
I0
sg88
I0
sg103
I0
sg254
I0
sg78
I0
sg89
I0
sg255
I0
sg256
I0
sg257
I0
sg258
I0
sg208
I0
sg80
I0
sg260
I0
sg261
I0
sg75
I0
sg262
I0
sg79
I0
sg264
I0
sg214
I0
sg72
I0
ssg26
(dp482
g31
I0
sg99
I0
sg49
I0
sg15
I0
sg87
I0
sg116
I0
sg84
I0
sg68
I0
sg9
I0
sg59
I2
sg111
I0
sg38
I0
sg8
I0
sg203
I0
sg57
I0
sg23
I0
sg58
I0
sg96
I0
sg54
I0
sg12
I0
sg43
I0
sg13
I0
sg53
I0
sg52
I0
sg86
I0
sg39
I0
sg63
I0
sg101
I0
sg82
I0
sg14
I0
sg10
I0
sg98
I0
sg20
I0
sg25
I0
sg117
I0
sg93
I0
sg24
I0
sg69
I0
sg56
I0
sg34
I0
sg61
I0
sg108
I0
sg35
I0
sg92
I0
sg40
I0
sg41
I0
sg65
I0
sg47
I0
sg32
I0
sg186
I0
sg26
I1
sg90
I0
sg51
I0
sg113
I0
sg19
I0
sg36
I0
sg62
I0
sg37
I0
sg46
I0
sg50
I0
sg89
I0
sg70
I0
sg103
I0
sg91
I0
sg100
I0
sg17
I0
sg94
I0
sg27
I3
sg22
I0
sg42
I0
sg85
I0
sg55
I0
sg66
I0
sg18
I0
sg48
I0
sg28
I0
sg29
I0
sg88
I3
sg110
I0
sg33
I0
sg64
I0
sg30
I0
sg60
I0
sg16
I0
sg21
I0
sg95
I0
sg178
I0
sg11
I0
sg67
I0
sg83
I0
sg97
I0
sg115
I0
sg44
I0
sg45
I0
sg102
I0
ssg90
(dp483
g434
I0
sg94
I0
sg435
I0
sg436
I0
sg369
I0
sg437
I0
sg438
I0
sg439
I0
sg440
I0
sg441
I0
sg442
I0
sg443
I0
sg444
I0
sg445
I0
sg446
I0
sg447
I0
sg448
I0
sg449
I0
sg450
I0
sg451
I0
sg452
I0
sg90
I0
sg453
I0
sg374
I0
sg454
I0
sg375
I0
sg455
I0
sg456
I0
sg457
I0
sg93
I0
sg458
I0
sg459
I0
sg92
I0
sg460
I0
sg461
I0
sg462
I0
sg463
I0
sg91
I0
sg464
I0
sg465
I0
sg466
I0
sg376
I0
ssg51
(dp484
g31
I0
sg99
I0
sg49
I0
sg15
I0
sg87
I0
sg74
I0
sg84
I0
sg68
I0
sg9
I0
sg59
I0
sg81
I0
sg38
I0
sg8
I0
sg78
I0
sg57
I0
sg23
I0
sg58
I0
sg96
I0
sg54
I0
sg12
I0
sg43
I0
sg13
I0
sg53
I0
sg52
I0
sg86
I0
sg39
I0
sg63
I0
sg101
I0
sg82
I0
sg14
I0
sg10
I0
sg98
I0
sg20
I0
sg25
I0
sg79
I0
sg93
I0
sg24
I0
sg69
I0
sg56
I0
sg34
I0
sg61
I0
sg72
I0
sg73
I0
sg35
I0
sg92
I0
sg40
I0
sg41
I0
sg65
I0
sg47
I0
sg32
I0
sg76
I0
sg26
I0
sg90
I0
sg18
I0
sg77
I3
sg19
I0
sg36
I0
sg62
I0
sg37
I0
sg46
I0
sg50
I0
sg89
I0
sg70
I0
sg103
I0
sg91
I0
sg17
I0
sg94
I0
sg27
I0
sg22
I0
sg42
I0
sg85
I0
sg55
I0
sg66
I0
sg51
I5
sg48
I0
sg28
I0
sg29
I0
sg88
I0
sg71
I0
sg33
I0
sg64
I0
sg30
I0
sg60
I0
sg16
I0
sg21
I0
sg95
I1
sg75
I0
sg11
I0
sg67
I0
sg83
I0
sg97
I0
sg80
I0
sg44
I0
sg45
I0
sg102
I0
ssg77
(dp485
g216
I0
sg73
I0
sg217
I0
sg297
I0
sg219
I0
sg220
I0
sg85
I0
sg221
I0
sg222
I0
sg223
I0
sg112
I0
sg225
I0
sg226
I0
sg280
I0
sg227
I0
sg228
I0
sg229
I0
sg230
I0
sg268
I0
sg232
I0
sg71
I0
sg233
I0
sg234
I0
sg235
I0
sg287
I0
sg76
I0
sg83
I0
sg74
I0
sg290
I0
sg238
I0
sg239
I0
sg240
I0
sg241
I0
sg242
I0
sg77
I0
sg294
I0
sg243
I0
sg244
I0
sg245
I0
sg298
I0
sg247
I0
sg84
I0
sg248
I0
sg249
I0
sg82
I0
sg251
I0
sg81
I0
sg299
I0
sg252
I0
sg253
I0
sg319
I0
sg254
I0
sg78
I0
sg255
I0
sg256
I0
sg257
I0
sg258
I0
sg313
I0
sg80
I0
sg260
I0
sg261
I0
sg75
I0
sg262
I0
sg283
I0
sg79
I0
sg264
I0
sg72
I0
ssg19
(dp486
g100
I0
sg17
I0
sg54
I0
sg26
I0
sg22
I0
sg42
I0
sg55
I0
sg173
I0
sg51
I0
sg49
I0
sg86
I0
sg48
I0
sg53
I0
sg208
I0
sg52
I0
sg15
I0
sg39
I0
sg40
I0
sg28
I0
sg29
I0
sg35
I0
sg101
I0
sg110
I0
sg33
I0
sg41
I0
sg348
I0
sg47
I0
sg30
I0
sg186
I0
sg102
I0
sg44
I0
sg83
I0
sg191
I0
sg32
I0
sg14
I0
sg10
I0
sg27
I0
sg18
I0
sg45
I0
sg20
I0
sg19
I0
sg36
I0
sg25
I0
sg37
I0
sg21
I0
sg24
I0
sg57
I0
sg9
I0
sg46
I0
sg112
I0
sg82
I0
sg11
I0
sg84
I0
sg38
I0
sg50
I0
sg87
I0
sg88
I0
sg113
I0
sg103
I0
sg8
I0
sg203
I0
sg89
I0
sg12
I0
sg43
I0
sg23
I0
sg13
I0
sg195
I0
sg115
I0
sg56
I0
sg31
I0
sg178
I0
sg16
I0
sg212
I0
sg34
I0
sg214
I0
ssg36
(dp487
g31
I0
sg99
I0
sg49
I0
sg15
I0
sg74
I2
sg84
I3
sg68
I0
sg9
I0
sg59
I0
sg81
I0
sg38
I0
sg8
I0
sg78
I0
sg57
I0
sg23
I0
sg58
I0
sg96
I0
sg54
I0
sg12
I0
sg43
I0
sg13
I0
sg53
I0
sg52
I0
sg75
I0
sg39
I0
sg63
I0
sg101
I0
sg82
I0
sg14
I0
sg10
I0
sg98
I0
sg20
I0
sg25
I0
sg79
I0
sg93
I0
sg24
I0
sg69
I0
sg56
I0
sg34
I0
sg61
I0
sg72
I0
sg73
I0
sg35
I0
sg92
I0
sg40
I0
sg41
I0
sg65
I0
sg47
I0
sg32
I0
sg76
I0
sg26
I0
sg90
I0
sg51
I0
sg77
I0
sg19
I0
sg36
I0
sg62
I1
sg37
I1
sg46
I0
sg50
I0
sg155
I0
sg70
I0
sg103
I0
sg91
I0
sg100
I1
sg17
I0
sg94
I1
sg27
I0
sg22
I0
sg42
I0
sg85
I0
sg55
I0
sg66
I0
sg18
I0
sg48
I0
sg28
I0
sg29
I0
sg375
I0
sg71
I0
sg33
I0
sg64
I0
sg30
I0
sg60
I0
sg16
I0
sg21
I0
sg95
I0
sg274
I0
sg11
I0
sg67
I0
sg83
I0
sg97
I0
sg80
I0
sg44
I0
sg45
I0
sg102
I0
ssg62
(dp488
g321
I0
sg322
I0
sg323
I0
sg324
I0
sg325
I0
sg66
I0
sg326
I0
sg327
I0
sg328
I0
sg329
I0
sg330
I0
sg331
I0
sg67
I0
sg63
I0
sg332
I0
sg333
I0
sg64
I0
sg65
I0
sg334
I0
sg335
I0
sg336
I0
sg338
I0
sg339
I0
sg340
I0
sg341
I0
sg60
I0
sg342
I0
sg343
I0
sg344
I0
sg345
I0
sg62
I0
sg68
I0
sg346
I0
sg347
I0
sg59
I0
sg349
I0
sg350
I0
sg351
I0
sg70
I0
sg352
I0
sg353
I0
sg354
I0
sg69
I0
sg355
I0
sg356
I0
sg58
I0
sg357
I0
sg61
I0
ssg37
(dp489
g17
I0
sg54
I0
sg26
I0
sg22
I0
sg42
I0
sg55
I0
sg51
I0
sg49
I0
sg48
I0
sg53
I0
sg52
I0
sg15
I0
sg39
I0
sg40
I0
sg28
I0
sg29
I0
sg35
I0
sg33
I0
sg41
I0
sg47
I0
sg30
I0
sg44
I0
sg32
I0
sg14
I0
sg10
I0
sg27
I0
sg18
I0
sg45
I0
sg20
I0
sg19
I0
sg36
I0
sg25
I0
sg37
I0
sg21
I0
sg24
I0
sg57
I0
sg9
I0
sg46
I0
sg11
I0
sg38
I0
sg50
I0
sg8
I0
sg12
I0
sg43
I0
sg23
I0
sg13
I0
sg56
I0
sg31
I0
sg16
I0
sg34
I0
ssg46
(dp490
g31
I0
sg99
I0
sg49
I0
sg15
I0
sg87
I0
sg74
I0
sg84
I0
sg68
I0
sg9
I0
sg59
I0
sg81
I0
sg38
I0
sg8
I0
sg78
I0
sg57
I0
sg23
I0
sg58
I0
sg96
I0
sg54
I0
sg12
I0
sg43
I0
sg53
I0
sg52
I0
sg86
I0
sg39
I0
sg63
I0
sg101
I0
sg82
I0
sg14
I0
sg10
I0
sg98
I0
sg20
I0
sg25
I0
sg79
I0
sg24
I0
sg150
I0
sg69
I0
sg56
I0
sg34
I0
sg61
I0
sg72
I0
sg73
I0
sg35
I0
sg40
I0
sg41
I0
sg65
I0
sg47
I0
sg32
I0
sg76
I0
sg26
I0
sg27
I0
sg51
I0
sg77
I0
sg19
I0
sg36
I0
sg62
I0
sg37
I0
sg46
I9
sg50
I0
sg89
I0
sg70
I0
sg103
I0
sg13
I0
sg100
I0
sg17
I0
sg22
I0
sg42
I0
sg85
I0
sg55
I0
sg66
I0
sg18
I0
sg48
I0
sg28
I0
sg29
I0
sg88
I0
sg71
I0
sg33
I0
sg64
I0
sg30
I0
sg60
I0
sg16
I0
sg21
I0
sg95
I0
sg75
I0
sg11
I0
sg67
I0
sg83
I0
sg97
I0
sg80
I0
sg44
I0
sg45
I0
sg102
I0
ssg50
(dp491
g31
I0
sg49
I0
sg15
I0
sg87
I0
sg74
I0
sg84
I0
sg68
I0
sg9
I0
sg59
I0
sg81
I0
sg38
I0
sg8
I0
sg78
I0
sg57
I0
sg23
I0
sg58
I0
sg54
I0
sg12
I0
sg43
I0
sg13
I0
sg53
I0
sg52
I0
sg86
I0
sg39
I0
sg63
I0
sg101
I0
sg82
I0
sg14
I0
sg10
I0
sg20
I0
sg25
I0
sg79
I0
sg93
I0
sg24
I0
sg69
I0
sg56
I0
sg34
I0
sg61
I0
sg72
I0
sg73
I0
sg35
I0
sg92
I0
sg40
I0
sg41
I0
sg65
I0
sg47
I0
sg32
I0
sg76
I0
sg26
I0
sg90
I1
sg51
I0
sg77
I0
sg19
I0
sg36
I0
sg62
I0
sg37
I0
sg46
I0
sg50
I8
sg89
I0
sg70
I0
sg103
I0
sg91
I0
sg100
I0
sg17
I0
sg94
I0
sg27
I0
sg22
I0
sg42
I0
sg85
I0
sg55
I0
sg66
I0
sg18
I0
sg48
I0
sg28
I0
sg29
I0
sg88
I0
sg71
I0
sg33
I0
sg64
I0
sg30
I0
sg60
I0
sg16
I0
sg21
I0
sg75
I0
sg11
I0
sg67
I0
sg83
I0
sg80
I0
sg44
I0
sg45
I0
sg102
I0
ssg89
(dp492
g100
I0
sg168
I0
sg99
I0
sg169
I0
sg170
I0
sS'cake.n.01'
p493
I0
sg147
I0
sg171
I0
sg172
I0
sg173
I0
sg174
I0
sg124
I0
sg175
I0
sg98
I0
sg176
I0
sg97
I0
sg177
I0
sg178
I0
sg125
I0
sg179
I0
sg180
I0
sg181
I0
sg88
I0
sg101
I0
sg133
I0
sg87
I0
sg182
I0
sg183
I0
sg184
I0
sg185
I0
sg186
I0
sg121
I0
sg187
I0
sg188
I0
sg189
I0
sg86
I0
sg364
I0
sg190
I0
sg191
I0
sg192
I0
sg193
I0
sg145
I0
sg194
I0
sg195
I0
sg196
I0
sg95
I0
sg132
I0
sg197
I0
sg198
I0
sg150
I0
sg134
I0
sg365
I0
sg199
I0
sg137
I0
sg200
I0
sg201
I0
sg103
I0
sg202
I0
sg203
I0
sg89
I0
sg204
I0
sg205
I0
sg206
I0
sg207
I0
sg208
I0
sS'lemon.n.05'
p494
I0
sg209
I0
sg210
I0
sg102
I0
sg211
I0
sg96
I0
sg212
I0
sg213
I0
sg214
I0
sg164
I0
ssg70
(dp495
g321
I0
sg322
I0
sg323
I0
sg324
I0
sg325
I0
sg66
I0
sg326
I0
sg327
I0
sg328
I0
sg329
I0
sg330
I0
sg331
I0
sg67
I0
sg63
I0
sg332
I0
sg333
I0
sg64
I0
sg65
I0
sg334
I0
sg335
I0
sg336
I0
sg338
I0
sg339
I0
sg340
I0
sg341
I0
sg60
I0
sg342
I0
sg343
I0
sg344
I0
sg345
I0
sg62
I0
sg68
I0
sg346
I0
sg347
I0
sg59
I0
sg349
I0
sg350
I0
sg351
I0
sg70
I0
sg352
I0
sg353
I0
sg354
I0
sg69
I0
sg355
I0
sg356
I0
sg58
I0
sg357
I0
sg61
I0
ssg103
(dp496
g387
I0
sg382
I0
sg388
I0
sg415
I0
sg270
I0
sg337
I0
sg274
I0
sg390
I0
sg391
I0
sg392
I0
sg393
I0
sg394
I0
sg395
I0
sg396
I0
sg305
I0
sg101
I0
sg383
I0
sg397
I0
sg398
I0
sg399
I0
sg400
I0
sg288
I0
sg401
I0
sg402
I0
sg403
I0
sg404
I0
sg405
I0
sg406
I0
sg381
I0
sg407
I0
sg318
I0
sg408
I0
sg314
I0
sg348
I0
sg409
I0
sg410
I0
sg411
I0
sg412
I0
sg308
I0
sg413
I0
sg414
I0
sg103
I0
sg416
I0
sg277
I0
sg417
I0
sg418
I0
sg102
I0
sg419
I0
sg420
I0
sg306
I0
sg389
I0
ssg91
(dp497
g434
I0
sg94
I0
sg435
I0
sg436
I0
sg369
I0
sg437
I0
sg438
I0
sg439
I0
sg440
I0
sg441
I0
sg442
I0
sg443
I0
sg444
I0
sg445
I0
sg446
I0
sg447
I0
sg448
I0
sg449
I0
sg450
I0
sg451
I0
sg452
I0
sg90
I0
sg453
I0
sg374
I0
sg454
I0
sg375
I0
sg455
I0
sg456
I0
sg457
I0
sg93
I0
sg458
I0
sg459
I0
sg92
I0
sg460
I0
sg461
I0
sg462
I0
sg463
I0
sg91
I0
sg464
I0
sg465
I0
sg466
I0
sg376
I0
ssg100
(dp498
g100
I0
sS'cheese.n.01'
p499
I0
sS'salt.n.02'
p500
I0
sS'bread.n.01'
p501
I0
sS'batter.n.02'
p502
I0
sS'milk.n.04'
p503
I0
sS'milk.n.01'
p504
I0
sS'pan.n.01'
p505
I0
sS'pan.n.03'
p506
I0
sS'cut.v.01'
p507
I0
sS'fill.v.09'
p508
I0
sS'egg.n.02'
p509
I0
sS'egg.n.01'
p510
I0
sS'beef.n.02'
p511
I0
sS'bacon.n.02'
p512
I0
sS'bacon.n.01'
p513
I0
sS'fill.v.01'
p514
I0
sg365
I0
sS'meat.n.01'
p515
I0
sS'cleaver.n.01'
p516
I0
sS'slice.v.02'
p517
I0
sS'slice.v.03'
p518
I0
sg364
I0
sS'knife.n.01'
p519
I0
sg493
I0
sS'banana.n.02'
p520
I0
sS'knife.n.02'
p521
I0
sS'plate.n.04'
p522
I0
sS'pepper.n.04'
p523
I0
sS'meet.v.04'
p524
I0
sS'pepper.n.03'
p525
I0
sS'human_body.n.01'
p526
I0
sg426
I0
sS'piece.n.08'
p527
I0
sS'whipped_cream.n.01'
p528
I0
sS'opening.n.01'
p529
I0
sS'mug.n.04'
p530
I0
sS'flesh.n.01'
p531
I0
sg423
I0
sg424
I0
sS'slice.n.06'
p532
I0
sS'water.n.06'
p533
I0
sS'put.v.01'
p534
I0
sS'pizza.n.01'
p535
I0
sg494
I0
sS'kettle.n.01'
p536
I0
sS'cake.n.03'
p537
I0
sS'lemon.n.01'
p538
I0
sS'onion.n.01'
p539
I0
sS'pitcher.n.02'
p540
I0
ssg17
(dp541
g31
I0
sg99
I0
sg49
I0
sg15
I0
sg87
I0
sg74
I0
sg84
I0
sg68
I0
sg9
I0
sg59
I0
sg81
I2
sg38
I0
sg8
I0
sg78
I0
sg57
I0
sg23
I0
sg58
I0
sg96
I0
sg54
I0
sg12
I0
sg43
I0
sg13
I0
sg53
I0
sg52
I0
sg86
I0
sg39
I0
sg63
I0
sg82
I0
sg14
I0
sg10
I0
sg98
I0
sg20
I0
sg25
I0
sg79
I0
sg93
I0
sg24
I0
sg69
I0
sg56
I0
sg34
I0
sg61
I0
sg72
I0
sg73
I0
sg35
I0
sg92
I0
sg40
I0
sg41
I0
sg65
I0
sg47
I0
sg32
I0
sg76
I0
sg26
I0
sg90
I0
sg51
I0
sg77
I0
sg19
I0
sg36
I0
sg62
I0
sg37
I0
sg46
I0
sg50
I0
sg89
I0
sg70
I0
sg91
I0
sg100
I0
sg17
I7
sg94
I0
sg27
I0
sg22
I0
sg42
I0
sg85
I0
sg55
I0
sg66
I0
sg18
I0
sg48
I0
sg28
I0
sg29
I0
sg88
I0
sg71
I0
sg33
I0
sg64
I0
sg30
I0
sg60
I0
sg16
I0
sg21
I0
sg95
I0
sg75
I0
sg11
I0
sg67
I0
sg83
I0
sg97
I0
sg80
I0
sg44
I0
sg45
I0
ssg94
(dp542
g434
I0
sg94
I0
sg435
I0
sg436
I0
sg369
I0
sg437
I0
sg438
I0
sg439
I0
sg440
I0
sg441
I0
sg442
I0
sg443
I0
sg444
I0
sg445
I0
sg446
I0
sg447
I0
sg448
I0
sg449
I0
sg450
I0
sg451
I0
sg452
I0
sg90
I0
sg453
I0
sg374
I0
sg454
I0
sg375
I0
sg455
I0
sg456
I0
sg457
I0
sg93
I0
sg458
I0
sg459
I0
sg92
I0
sg460
I0
sg461
I0
sg462
I0
sg463
I0
sg91
I0
sg464
I0
sg465
I0
sg466
I0
sg376
I0
ssg27
(dp543
g100
I0
sg17
I0
sg54
I0
sg108
I0
sg26
I0
sg22
I0
sg42
I0
sg85
I0
sg55
I0
sg109
I0
sg51
I0
sg49
I0
sg48
I0
sg53
I0
sg52
I0
sg15
I0
sg39
I0
sg40
I0
sg28
I0
sg29
I0
sg35
I0
sS'bacon.n.02'
p544
I0
sg33
I0
sg41
I0
sg47
I0
sg30
I0
sg44
I0
sg116
I0
sg32
I0
sg14
I0
sg10
I0
sg27
I0
sg18
I0
sg45
I0
sg20
I0
sg19
I0
sg36
I0
sg25
I0
sg37
I0
sg21
I0
sg24
I0
sg57
I0
sg9
I0
sg46
I0
sg250
I0
sg11
I0
sg111
I0
sg38
I0
sg50
I0
sS'cabbage.n.03'
p545
I0
sg8
I0
sg423
I0
sg424
I0
sg12
I0
sg43
I0
sg23
I0
sg13
I0
sg114
I0
sS'lemon.n.05'
p546
I0
sg56
I0
sg31
I0
sg426
I0
sg16
I0
sg117
I0
sg34
I0
ssg22
(dp547
g31
I0
sg99
I0
sg49
I0
sg15
I0
sg87
I0
sg74
I0
sg84
I0
sg68
I0
sg9
I0
sg59
I0
sg81
I0
sg38
I0
sg8
I0
sg78
I0
sg57
I0
sg23
I0
sg58
I0
sg96
I0
sg54
I0
sg12
I0
sg43
I0
sg13
I0
sg53
I0
sg52
I0
sg86
I0
sg39
I0
sg63
I0
sg101
I0
sg82
I0
sg14
I0
sg10
I0
sg98
I0
sg20
I0
sg25
I0
sg79
I0
sg93
I0
sg24
I0
sg69
I0
sg56
I0
sg34
I0
sg61
I0
sg72
I0
sg73
I0
sg35
I0
sg92
I0
sg40
I0
sg41
I0
sg65
I0
sg47
I0
sg32
I0
sg76
I0
sg26
I0
sg90
I0
sg51
I0
sg77
I0
sg19
I0
sg36
I0
sg62
I0
sg37
I0
sg46
I0
sg50
I0
sg89
I0
sg70
I0
sg103
I0
sg91
I0
sg100
I0
sg17
I0
sg94
I0
sg27
I0
sg22
I9
sg42
I0
sg55
I0
sg66
I0
sg18
I0
sg48
I0
sg28
I0
sg29
I0
sg88
I0
sg71
I0
sg33
I0
sg64
I0
sg30
I0
sg60
I0
sg16
I0
sg21
I0
sg95
I0
sg75
I0
sg11
I0
sg67
I0
sg83
I0
sg97
I0
sg80
I0
sg44
I0
sg45
I0
sg102
I0
ssg42
(dp548
g31
I0
sg99
I0
sg49
I0
sg15
I0
sg87
I0
sg74
I0
sg84
I0
sg68
I0
sg9
I0
sg59
I0
sg81
I0
sg38
I0
sg8
I0
sg78
I0
sg57
I0
sg23
I0
sg58
I0
sg96
I0
sg54
I0
sg12
I0
sg43
I0
sg53
I0
sg52
I0
sg86
I0
sg39
I0
sg63
I0
sg101
I0
sg82
I0
sg14
I0
sg10
I0
sg98
I0
sg20
I0
sg25
I0
sg79
I0
sg24
I0
sg150
I0
sg69
I0
sg56
I0
sg34
I0
sg61
I0
sg72
I0
sg73
I0
sg35
I0
sg40
I0
sg41
I0
sg65
I0
sg47
I0
sg32
I0
sg76
I0
sg26
I0
sg27
I0
sg51
I0
sg77
I0
sg19
I0
sg36
I0
sg62
I0
sg37
I0
sg46
I0
sg50
I0
sg89
I0
sg70
I0
sg103
I0
sg13
I0
sg100
I0
sg17
I0
sg22
I0
sg42
I8
sg85
I1
sg55
I0
sg66
I0
sg18
I0
sg48
I0
sg28
I0
sg29
I0
sg88
I0
sg71
I0
sg33
I0
sg64
I0
sg30
I0
sg60
I0
sg16
I0
sg21
I0
sg95
I0
sg75
I0
sg11
I0
sg67
I0
sg83
I0
sg97
I0
sg80
I0
sg44
I0
sg45
I0
sg102
I0
ssg85
(dp549
g259
I0
sg108
I0
sS'beef.n.02'
p550
I0
sS'cheese.n.01'
p551
I0
sS'batter.n.02'
p552
I0
sg85
I0
sS'wimp.n.01'
p553
I0
sg109
I0
sS'chicken.n.01'
p554
I0
sg224
I0
sS'milk.n.01'
p555
I0
sS'pan.n.01'
p556
I0
sS'pan.n.03'
p557
I0
sS'cut.v.01'
p558
I0
sg218
I0
sS'fill.v.09'
p559
I0
sg263
I0
sg232
I0
sg544
I0
sS'bacon.n.01'
p560
I0
sS'fill.v.01'
p561
I0
sg250
I0
sg237
I0
sg116
I0
sg236
I0
sS'slice.v.02'
p562
I0
sg231
I0
sg240
I0
sS'cabbage.n.01'
p563
I0
sS'lemon.n.01'
p564
I0
sg545
I0
sS'plate.n.04'
p565
I0
sS'pepper.n.04'
p566
I0
sg114
I0
sg246
I0
sS'human_body.n.01'
p567
I0
sS'whipped_cream.n.01'
p568
I0
sS'piece.n.08'
p569
I0
sg111
I0
sS'opening.n.01'
p570
I0
sS'mug.n.04'
p571
I0
sS'flesh.n.01'
p572
I0
sS'slice.n.06'
p573
I0
sS'water.n.06'
p574
I0
sS'put.v.01'
p575
I0
sS'pizza.n.01'
p576
I0
sg546
I0
sg425
I0
sS'cake.n.03'
p577
I0
sg422
I0
sg117
I0
sS'slice.v.03'
p578
I0
sS'onion.n.01'
p579
I0
sS'pitcher.n.02'
p580
I0
ssg55
(dp581
g17
I0
sg54
I0
sg73
I0
sg26
I0
sg22
I0
sg42
I0
sg85
I0
sg55
I0
sg222
I0
sg51
I0
sg49
I0
sg48
I0
sg53
I0
sg52
I0
sg15
I0
sg39
I0
sg40
I0
sg28
I0
sg29
I0
sg35
I0
sg71
I0
sg33
I0
sg41
I0
sg47
I0
sg30
I0
sg76
I0
sg44
I0
sg83
I0
sg74
I0
sg32
I0
sg14
I0
sg10
I0
sg27
I0
sg18
I0
sg45
I0
sg20
I0
sg19
I0
sg36
I0
sg25
I0
sg37
I0
sg21
I0
sg24
I0
sg57
I0
sg84
I0
sg9
I0
sg46
I0
sg112
I0
sg82
I0
sg11
I0
sg81
I0
sg38
I0
sg50
I0
sg77
I0
sg8
I0
sg78
I0
sg12
I0
sg43
I0
sg23
I0
sg13
I0
sg245
I0
sg80
I0
sg56
I0
sg31
I0
sg75
I0
sg16
I0
sg79
I0
sg34
I0
sg72
I0
ssg66
(dp582
g100
I0
sg321
I0
sg322
I0
sg73
I0
sg323
I0
sg262
I0
sg218
I0
sg324
I0
sg325
I0
sg85
I0
sg221
I0
sg66
I0
sg326
I0
sg327
I0
sg86
I0
sg328
I0
sg329
I0
sg330
I0
sg331
I0
sg67
I0
sg63
I0
sg332
I0
sg232
I0
sg87
I0
sg101
I0
sg71
I0
sg333
I0
sg64
I0
sg65
I0
sg334
I0
sg335
I0
sg76
I0
sg336
I0
sg102
I0
sg337
I0
sg255
I0
sg338
I0
sg339
I0
sg340
I0
sg341
I0
sg240
I0
sg60
I0
sg342
I0
sg343
I0
sg344
I0
sg193
I0
sg345
I0
sg62
I0
sg68
I0
sg346
I0
sg224
I0
sg248
I0
sg347
I0
sg348
I0
sg250
I0
sg59
I0
sg81
I0
sg251
I0
sg349
I0
sg75
I0
sg350
I0
sg88
I0
sg77
I0
sg103
I0
sg254
I0
sg78
I0
sg89
I0
sg351
I0
sg70
I0
sg352
I0
sg353
I0
sg354
I0
sg69
I0
sg259
I0
sg80
I0
sg355
I0
sg356
I0
sg74
I0
sg58
I0
sg79
I0
sg357
I0
sg61
I0
sg72
I0
ssg18
(dp583
g31
I0
sg99
I0
sg49
I0
sg15
I0
sg87
I0
sg74
I0
sg84
I0
sg68
I0
sg9
I0
sg59
I0
sg81
I0
sg38
I0
sg8
I0
sg78
I0
sg57
I0
sg23
I0
sg58
I8
sg96
I0
sg54
I0
sg12
I0
sg43
I0
sg13
I0
sg53
I0
sg52
I0
sg86
I0
sg39
I0
sg63
I0
sg101
I0
sg82
I0
sg14
I0
sg10
I0
sg98
I0
sg20
I0
sg25
I0
sg79
I0
sg93
I0
sg24
I0
sg69
I0
sg56
I0
sg34
I0
sg61
I0
sg72
I0
sg73
I0
sg35
I0
sg92
I0
sg40
I0
sg41
I0
sg65
I0
sg47
I0
sg32
I0
sg76
I0
sg26
I0
sg90
I0
sg51
I0
sg77
I0
sg19
I6
sg36
I0
sg62
I0
sg37
I0
sg46
I0
sg50
I0
sg89
I0
sg70
I0
sg103
I0
sg91
I0
sg100
I0
sg17
I0
sg94
I0
sg27
I0
sg22
I0
sg42
I0
sg55
I0
sg66
I0
sg18
I4
sg48
I0
sg28
I0
sg29
I0
sg88
I0
sg71
I0
sg33
I0
sg64
I0
sg30
I0
sg60
I0
sg16
I0
sg21
I0
sg95
I0
sg75
I0
sg11
I0
sg67
I0
sg83
I0
sg97
I0
sg80
I0
sg44
I0
sg45
I0
sg102
I0
ssg48
(dp584
g31
I0
sg49
I0
sg15
I0
sg87
I0
sg74
I0
sg84
I0
sg68
I0
sg9
I0
sg59
I0
sg81
I0
sg38
I0
sg8
I0
sg78
I0
sg57
I0
sg23
I0
sg58
I0
sg54
I0
sg12
I0
sg43
I0
sg13
I0
sg53
I0
sg52
I0
sg86
I0
sg39
I0
sg63
I0
sg101
I0
sg82
I0
sg14
I0
sg10
I0
sg20
I0
sg25
I0
sg79
I0
sg93
I0
sg24
I0
sg69
I0
sg56
I0
sg34
I0
sg61
I0
sg72
I0
sg73
I0
sg35
I0
sg92
I0
sg40
I0
sg41
I0
sg65
I0
sg47
I0
sg32
I0
sg76
I0
sg26
I0
sg90
I0
sg51
I0
sg77
I0
sg19
I0
sg36
I0
sg62
I0
sg37
I0
sg46
I0
sg50
I0
sg89
I0
sg70
I0
sg103
I0
sg91
I0
sg100
I0
sg17
I0
sg94
I0
sg27
I0
sg22
I0
sg42
I0
sg85
I0
sg55
I0
sg66
I6
sg18
I0
sg48
I3
sg28
I0
sg29
I0
sg88
I0
sg71
I0
sg33
I0
sg64
I0
sg30
I0
sg60
I0
sg16
I0
sg21
I0
sg75
I0
sg11
I0
sg67
I0
sg83
I0
sg80
I0
sg44
I0
sg45
I0
sg102
I0
ssg28
(dp585
g31
I0
sg99
I0
sg49
I0
sg15
I0
sg87
I0
sg116
I0
sg84
I0
sg68
I0
sg9
I0
sg59
I0
sg111
I0
sg38
I0
sg8
I0
sg203
I0
sg57
I0
sg23
I0
sg58
I0
sg96
I0
sg54
I0
sg12
I0
sg43
I0
sg13
I0
sg53
I0
sg52
I0
sg86
I0
sg39
I0
sg63
I0
sg101
I1
sg82
I0
sg14
I0
sg10
I0
sg98
I0
sg20
I0
sg25
I0
sg117
I0
sg93
I0
sg24
I0
sg69
I0
sg56
I0
sg34
I0
sg61
I0
sg108
I0
sg35
I0
sg92
I0
sg40
I0
sg41
I0
sg65
I0
sg47
I0
sg32
I0
sg186
I0
sg26
I0
sg90
I0
sg51
I0
sg113
I0
sg19
I0
sg36
I0
sg62
I0
sg37
I0
sg46
I0
sg50
I0
sg89
I0
sg70
I0
sg103
I0
sg91
I0
sg100
I0
sg17
I0
sg94
I0
sg27
I0
sg22
I0
sg42
I0
sg85
I0
sg55
I0
sg66
I0
sg18
I0
sg48
I0
sg28
I2
sg29
I6
sg88
I0
sg110
I0
sg33
I0
sg64
I0
sg30
I0
sg60
I0
sg16
I0
sg21
I0
sg95
I0
sg178
I0
sg11
I0
sg67
I0
sg83
I0
sg97
I0
sg115
I0
sg44
I0
sg45
I0
sg102
I0
ssg29
(dp586
g31
I0
sg99
I0
sg49
I0
sg15
I0
sg87
I0
sg116
I0
sg137
I0
sg114
I0
sg9
I0
sg125
I0
sg111
I0
sg38
I0
sg8
I0
sg203
I0
sg57
I0
sg23
I0
sg191
I0
sg96
I0
sg54
I0
sg43
I0
sg13
I0
sg53
I0
sg52
I0
sg86
I0
sg39
I0
sg250
I0
sg14
I0
sg10
I0
sg98
I0
sg20
I0
sg25
I0
sg117
I0
sg24
I0
sg93
I0
sg208
I0
sg56
I0
sg34
I0
sg214
I0
sg108
I0
sg35
I0
sg92
I0
sg40
I0
sg41
I0
sg47
I0
sg32
I0
sg186
I0
sg26
I0
sg90
I0
sg51
I0
sg545
I0
sg19
I0
sg36
I0
sg37
I0
sg46
I0
sg50
I0
sg89
I0
sg12
I0
sg91
I0
sg100
I0
sg17
I0
sg94
I0
sg27
I0
sg22
I0
sg42
I0
sg85
I0
sg55
I0
sg109
I0
sg18
I0
sg48
I0
sg28
I0
sg29
I0
sg88
I0
sg544
I0
sg33
I0
sg124
I0
sg30
I0
sg16
I0
sg21
I0
sg95
I0
sg178
I0
sg11
I0
sg121
I0
sg97
I0
sg546
I0
sg44
I0
sg45
I0
ssg88
(dp587
g168
I0
sg94
I0
sg169
I0
sg170
I0
sg171
I0
sg172
I0
sg173
I0
sg174
I0
sg91
I0
sg175
I0
sg176
I0
sg177
I0
sg178
I0
sg179
I0
sg180
I0
sg181
I0
sg193
I0
sg101
I0
sg87
I0
sg182
I0
sg183
I0
sg184
I0
sg185
I0
sg186
I0
sg187
I0
sg188
I0
sg189
I0
sg86
I0
sg90
I0
sg190
I0
sg191
I0
sg192
I0
sg88
I0
sg455
I0
sg194
I0
sg195
I0
sg196
I0
sg445
I0
sg197
I0
sg198
I0
sg93
I0
sg446
I0
sg199
I0
sg337
I0
sg200
I0
sg92
I0
sg201
I0
sg103
I0
sg202
I0
sg203
I0
sg89
I0
sg204
I0
sg205
I0
sg206
I0
sg207
I0
sg208
I0
sg209
I0
sg210
I0
sg102
I0
sg211
I0
sg212
I0
sg213
I0
sg214
I0
sg369
I0
ssg71
(dp588
g100
I0
sg216
I0
sg99
I0
sg73
I0
sg95
I0
sg217
I0
sg297
I0
sg219
I0
sg220
I0
sg85
I0
sg221
I0
sg222
I0
sg223
I0
sg112
I0
sg225
I0
sg98
I0
sg226
I0
sg280
I0
sg227
I0
sg228
I0
sg229
I0
sg230
I0
sg268
I0
sg232
I0
sg71
I0
sg233
I0
sg234
I0
sg235
I0
sg287
I0
sg76
I0
sg125
I0
sg83
I0
sg143
I0
sg74
I0
sg290
I0
sg238
I0
sg239
I0
sg240
I0
sg241
I0
sg242
I0
sg77
I0
sg294
I0
sg243
I0
sg244
I0
sg245
I0
sg298
I0
sg247
I0
sg84
I0
sg248
I0
sg249
I0
sg150
I0
sg82
I0
sg251
I0
sg81
I0
sg299
I0
sg252
I0
sg253
I0
sg319
I0
sg254
I0
sg78
I0
sg155
I0
sg255
I0
sg256
I0
sg257
I0
sg258
I0
sg97
I0
sg313
I0
sg80
I0
sg260
I0
sg261
I0
sg75
I0
sg262
I0
sg283
I0
sg96
I0
sg79
I0
sg264
I0
sg72
I0
ssg33
(dp589
g31
I0
sg99
I0
sg49
I0
sg15
I0
sg74
I0
sg84
I0
sg68
I0
sg9
I0
sg59
I0
sg81
I0
sg38
I0
sg8
I0
sg78
I0
sg57
I0
sg23
I0
sg58
I0
sg96
I0
sg54
I0
sg12
I0
sg43
I0
sg13
I0
sg53
I0
sg52
I0
sg75
I0
sg39
I0
sg63
I0
sg101
I0
sg82
I0
sg14
I0
sg10
I0
sg98
I0
sg20
I0
sg25
I0
sg79
I0
sg93
I0
sg24
I0
sg69
I0
sg56
I0
sg34
I0
sg61
I0
sg72
I0
sg73
I0
sg35
I0
sg92
I0
sg40
I0
sg41
I0
sg65
I0
sg47
I0
sg32
I0
sg76
I0
sg26
I0
sg90
I0
sg51
I0
sg77
I0
sg19
I0
sg36
I0
sg62
I0
sg37
I0
sg46
I0
sg50
I0
sg155
I0
sg70
I0
sg103
I0
sg91
I0
sg100
I0
sg17
I0
sg94
I0
sg27
I0
sg22
I0
sg42
I0
sg85
I0
sg55
I0
sg66
I0
sg18
I0
sg48
I0
sg28
I0
sg29
I0
sg375
I0
sg71
I5
sg33
I4
sg64
I0
sg30
I0
sg60
I0
sg16
I0
sg21
I0
sg95
I0
sg274
I0
sg11
I0
sg67
I0
sg83
I0
sg97
I0
sg80
I0
sg44
I0
sg45
I0
sg102
I0
ssg64
(dp590
g321
I0
sg99
I0
sg322
I0
sg323
I0
sg309
I0
sg297
I0
sg324
I0
sg325
I0
sg272
I0
sg66
I0
sg326
I0
sg327
I0
sg328
I0
sg98
I0
sg329
I0
sg280
I0
sg330
I0
sg331
I0
sg67
I0
sg63
I0
sg332
I0
sg131
I0
sg110
I0
sg333
I0
sg64
I0
sg65
I0
sg334
I0
sg335
I0
sg336
I0
sg83
I0
sg338
I0
sg339
I0
sg340
I0
sg341
I0
sg60
I0
sg342
I0
sg343
I0
sg344
I0
sg294
I0
sg345
I0
sg62
I0
sg68
I0
sg346
I0
sg95
I0
sg299
I0
sg300
I0
sg347
I0
sg150
I0
sg97
I0
sg82
I0
sg59
I0
sg84
I0
sg302
I0
sg349
I0
sg350
I0
sg113
I0
sg319
I0
sg307
I0
sg155
I0
sg351
I0
sg70
I0
sg352
I0
sg353
I0
sg354
I0
sg69
I0
sg115
I0
sg355
I0
sg356
I0
sg58
I0
sg96
I0
sg357
I0
sg61
I0
sg313
I0
ssg30
(dp591
g31
I3
sg99
I1
sg49
I0
sg15
I0
sg87
I0
sg116
I0
sg84
I0
sg68
I0
sg9
I0
sg59
I0
sg111
I0
sg38
I0
sg8
I0
sg203
I0
sg57
I0
sg23
I0
sg58
I0
sg96
I0
sg54
I0
sg12
I0
sg43
I0
sg13
I0
sg53
I0
sg52
I0
sg86
I0
sg39
I0
sg63
I0
sg101
I0
sg82
I0
sg14
I0
sg10
I0
sg98
I0
sg20
I0
sg25
I0
sg117
I0
sg93
I0
sg24
I0
sg69
I0
sg56
I0
sg34
I0
sg61
I0
sg108
I0
sg35
I0
sg92
I0
sg40
I0
sg41
I0
sg65
I0
sg47
I0
sg32
I0
sg186
I0
sg26
I0
sg90
I0
sg51
I0
sg113
I0
sg19
I0
sg36
I0
sg62
I0
sg37
I0
sg46
I0
sg50
I0
sg89
I0
sg70
I0
sg103
I0
sg91
I0
sg100
I0
sg17
I0
sg94
I0
sg27
I0
sg22
I0
sg42
I0
sg85
I0
sg55
I0
sg66
I0
sg18
I0
sg48
I0
sg28
I0
sg29
I0
sg88
I0
sg110
I0
sg33
I0
sg64
I0
sg30
I5
sg60
I0
sg16
I0
sg21
I0
sg95
I0
sg178
I0
sg11
I0
sg67
I0
sg83
I0
sg97
I0
sg115
I0
sg44
I0
sg45
I0
sg102
I0
ssg60
(dp592
g321
I0
sg322
I0
sg323
I0
sg324
I0
sg325
I0
sg66
I0
sg326
I0
sg327
I0
sg328
I0
sg329
I0
sg330
I0
sg331
I0
sg67
I0
sg63
I0
sg332
I0
sg333
I0
sg64
I0
sg65
I0
sg334
I0
sg335
I0
sg336
I0
sg338
I0
sg339
I0
sg340
I0
sg341
I0
sg60
I0
sg342
I0
sg343
I0
sg344
I0
sg345
I0
sg62
I0
sg68
I0
sg346
I0
sg347
I0
sg59
I0
sg349
I0
sg350
I0
sg351
I0
sg70
I0
sg352
I0
sg353
I0
sg354
I0
sg69
I0
sg355
I0
sg356
I0
sg58
I0
sg357
I0
sg61
I0
ssg16
(dp593
g31
I0
sg99
I0
sg49
I0
sg15
I0
sg87
I0
sg74
I0
sg84
I0
sg68
I0
sg9
I0
sg59
I0
sg81
I0
sg38
I0
sg8
I0
sg78
I0
sg57
I0
sg23
I0
sg58
I0
sg96
I0
sg54
I0
sg12
I0
sg43
I0
sg13
I0
sg53
I0
sg52
I0
sg86
I0
sg39
I0
sg63
I0
sg82
I0
sg14
I0
sg10
I0
sg98
I0
sg20
I0
sg25
I0
sg79
I0
sg93
I0
sg24
I0
sg69
I0
sg56
I0
sg34
I0
sg61
I0
sg72
I0
sg73
I0
sg35
I0
sg92
I0
sg40
I0
sg41
I0
sg65
I0
sg47
I0
sg32
I0
sg76
I0
sg26
I0
sg90
I0
sg51
I0
sg77
I0
sg19
I0
sg36
I0
sg62
I0
sg37
I0
sg46
I0
sg50
I0
sg89
I0
sg70
I0
sg91
I0
sg100
I0
sg17
I0
sg94
I0
sg27
I0
sg22
I0
sg42
I0
sg85
I0
sg55
I0
sg66
I0
sg18
I0
sg48
I0
sg28
I0
sg29
I0
sg88
I0
sg71
I0
sg33
I0
sg64
I0
sg30
I0
sg60
I0
sg16
I4
sg21
I0
sg95
I0
sg75
I0
sg11
I0
sg67
I0
sg83
I0
sg97
I1
sg80
I4
sg44
I0
sg45
I0
ssg21
(dp594
g17
I0
sg99
I0
sg54
I0
sg95
I0
sg26
I0
sg22
I0
sg42
I0
sg55
I0
sg125
I0
sg51
I0
sg49
I0
sg48
I0
sg98
I0
sg53
I0
sg52
I0
sg15
I0
sg39
I0
sg40
I0
sg28
I0
sg29
I0
sg35
I0
sg110
I0
sg33
I0
sg41
I0
sg150
I0
sg47
I0
sg30
I0
sg44
I0
sg83
I0
sg143
I0
sg32
I0
sg14
I0
sg10
I0
sg27
I0
sg18
I0
sg45
I0
sg20
I0
sg19
I0
sg36
I0
sg25
I0
sg37
I0
sg21
I0
sg24
I0
sg57
I0
sg9
I0
sg46
I0
sg112
I0
sg82
I0
sg11
I0
sg84
I0
sg38
I0
sg50
I0
sg113
I0
sg8
I0
sg155
I0
sg12
I0
sg43
I0
sg23
I0
sg13
I0
sg97
I0
sg115
I0
sg56
I0
sg31
I0
sg16
I0
sg96
I0
sg34
I0
ssg95
(dp595
g96
I0
sg99
I0
sg119
I0
sg120
I0
sg164
I0
sg122
I0
sg123
I0
sg124
I0
sg125
I0
sg98
I0
sg126
I0
sg127
I0
sg128
I0
sg129
I0
sg130
I0
sg131
I0
sg132
I0
sg133
I0
sg134
I0
sg135
I0
sg136
I0
sg121
I0
sg138
I0
sg139
I0
sg140
I0
sg141
I0
sg142
I0
sg143
I0
sg144
I0
sg145
I0
sg146
I0
sg147
I0
sg148
I0
sg95
I0
sg137
I0
sg149
I0
sg150
I0
sg151
I0
sg152
I0
sg153
I0
sg154
I0
sg155
I0
sg156
I0
sg157
I0
sg158
I0
sg159
I0
sg97
I0
sg160
I0
sg161
I0
sg162
I0
sg163
I0
ssg75
(dp596
g100
I0
sg216
I0
sg73
I0
sg217
I0
sg219
I0
sg220
I0
sg221
I0
sg222
I0
sg223
I0
sg86
I0
sg225
I0
sg226
I0
sg227
I0
sg228
I0
sg229
I0
sg230
I0
sg180
I0
sg181
I0
sg87
I0
sg101
I0
sg71
I0
sg233
I0
sg234
I0
sg235
I0
sg185
I0
sg76
I0
sg102
I0
sg337
I0
sg191
I0
sg74
I0
sg188
I0
sg238
I0
sg239
I0
sg364
I0
sg241
I0
sg242
I0
sg77
I0
sg193
I0
sg243
I0
sg244
I0
sg245
I0
sg196
I0
sg247
I0
sg248
I0
sg249
I0
sg348
I0
sg365
I0
sg187
I0
sg251
I0
sg81
I0
sg252
I0
sg253
I0
sg88
I0
sg103
I0
sg254
I0
sg78
I0
sg89
I0
sg255
I0
sg256
I0
sg257
I0
sg258
I0
sg208
I0
sg80
I0
sg260
I0
sg261
I0
sg75
I0
sg262
I0
sg79
I0
sg264
I0
sg214
I0
sg72
I0
ssg11
(dp597
g31
I0
sg99
I0
sg49
I0
sg15
I0
sg87
I0
sg74
I0
sg84
I0
sg245
I0
sg9
I0
sg125
I0
sg81
I0
sg38
I0
sg8
I0
sg78
I0
sg57
I0
sg23
I0
sg191
I0
sg96
I0
sg54
I0
sg43
I0
sg13
I0
sg53
I0
sg52
I0
sg86
I0
sg39
I0
sg101
I0
sg82
I0
sg14
I0
sg10
I0
sg98
I0
sg20
I0
sg25
I0
sg79
I0
sg93
I0
sg24
I0
sg208
I0
sg56
I0
sg34
I0
sg214
I0
sg72
I0
sg73
I0
sg35
I0
sg92
I0
sg40
I0
sg41
I0
sg47
I0
sg32
I0
sg76
I0
sg26
I0
sg90
I0
sg51
I0
sg77
I0
sg19
I0
sg36
I0
sg37
I0
sg46
I0
sg50
I0
sg89
I0
sg12
I7
sg103
I1
sg91
I1
sg100
I0
sg17
I0
sg94
I0
sg27
I0
sg22
I0
sg42
I0
sg85
I0
sg55
I0
sg222
I0
sg18
I0
sg48
I0
sg28
I0
sg29
I0
sg88
I0
sg71
I0
sg33
I0
sg112
I0
sg30
I0
sg16
I0
sg21
I0
sg95
I0
sg75
I0
sg11
I0
sg83
I0
sg97
I0
sg80
I0
sg44
I0
sg45
I0
sg102
I0
ssg67
(dp598
g321
I0
sg322
I0
sg323
I0
sg324
I0
sg325
I0
sg66
I0
sg326
I0
sg327
I0
sg328
I0
sg329
I0
sg330
I0
sg331
I0
sg67
I0
sg63
I0
sg332
I0
sg333
I0
sg64
I0
sg65
I0
sg334
I0
sg335
I0
sg336
I0
sg338
I0
sg339
I0
sg340
I0
sg341
I0
sg60
I0
sg342
I0
sg58
I0
sg344
I0
sg345
I0
sg62
I0
sg68
I0
sg346
I0
sg347
I0
sg59
I0
sg349
I0
sg350
I0
sg351
I0
sg70
I0
sg352
I0
sg353
I0
sg354
I0
sg69
I0
sg355
I0
sg356
I0
sg343
I0
sg357
I0
sg61
I0
ssg83
(dp599
g266
I0
sg99
I0
sg267
I0
sg268
I0
sg83
I0
sg271
I0
sg272
I0
sg125
I0
sg84
I0
sg112
I0
sg275
I0
sg98
I0
sg276
I0
sg278
I0
sg279
I0
sg280
I0
sg281
I0
sg282
I0
sg283
I0
sg131
I0
sg284
I0
sg110
I0
sg285
I0
sg286
I0
sg82
I0
sg287
I0
sg289
I0
sg290
I0
sg291
I0
sg292
I0
sg273
I0
sg143
I0
sg293
I0
sg294
I0
sg295
I0
sg296
I0
sg297
I0
sg298
I0
sg95
I0
sg299
I0
sg300
I0
sg301
I0
sg150
I0
sg302
I0
sg269
I0
sg303
I0
sg304
I0
sg113
I0
sg307
I0
sg155
I0
sg309
I0
sg310
I0
sg311
I0
sg312
I0
sg97
I0
sg115
I0
sg160
I0
sg313
I0
sg315
I0
sg96
I0
sg316
I0
sg317
I0
sg319
I0
ssg97
(dp600
g96
I0
sg99
I0
sg119
I0
sg120
I0
sg121
I0
sg122
I0
sg123
I0
sg124
I0
sg125
I0
sg98
I0
sg126
I0
sg127
I0
sg128
I0
sg129
I0
sg130
I0
sg131
I0
sg132
I0
sg133
I0
sg134
I0
sg135
I0
sg136
I0
sg137
I0
sg138
I0
sg139
I0
sg140
I0
sg141
I0
sg142
I0
sg143
I0
sg144
I0
sg145
I0
sg146
I0
sg147
I0
sg148
I0
sg95
I0
sg149
I0
sg150
I0
sg151
I0
sg152
I0
sg153
I0
sg154
I0
sg155
I0
sg156
I0
sg157
I0
sg158
I0
sg159
I0
sg97
I0
sg160
I0
sg161
I0
sg162
I0
sg163
I0
sg164
I0
ssg80
(dp601
g100
I0
sg216
I0
sg73
I0
sg217
I0
sg297
I0
sg219
I0
sg220
I0
sg85
I0
sg221
I0
sg222
I0
sg223
I0
sg112
I0
sg225
I0
sg226
I0
sg280
I0
sg227
I0
sg228
I0
sg229
I0
sg230
I0
sg268
I0
sg232
I0
sg71
I0
sg233
I0
sg234
I0
sg235
I0
sg287
I0
sg76
I0
sg83
I0
sg74
I0
sg290
I0
sg238
I0
sg239
I0
sg240
I0
sg241
I0
sg242
I0
sg77
I0
sg294
I0
sg243
I0
sg244
I0
sg245
I0
sg298
I0
sg247
I0
sg84
I0
sg248
I0
sg249
I0
sg82
I0
sg251
I0
sg81
I0
sg299
I0
sg252
I0
sg253
I0
sg319
I0
sg254
I0
sg78
I0
sg424
I0
sg255
I0
sg256
I0
sg257
I0
sg258
I0
sg313
I0
sg80
I0
sg260
I0
sg261
I0
sg75
I0
sg262
I0
sg283
I0
sg79
I0
sg264
I0
sg72
I0
ssg44
(dp602
g31
I0
sg99
I0
sg49
I0
sg15
I0
sg87
I0
sg74
I0
sg84
I0
sg68
I0
sg9
I0
sg59
I0
sg81
I0
sg38
I0
sg8
I0
sg78
I0
sg57
I0
sg23
I0
sg58
I0
sg96
I0
sg54
I0
sg12
I0
sg43
I0
sg53
I0
sg52
I0
sg86
I0
sg39
I0
sg63
I0
sg101
I0
sg82
I0
sg14
I0
sg10
I0
sg98
I0
sg20
I0
sg25
I0
sg79
I0
sg24
I0
sg150
I0
sg69
I0
sg56
I0
sg34
I0
sg61
I0
sg72
I0
sg73
I0
sg35
I0
sg40
I0
sg41
I0
sg65
I0
sg47
I0
sg32
I0
sg76
I0
sg26
I0
sg27
I0
sg51
I0
sg77
I0
sg19
I0
sg36
I0
sg62
I0
sg37
I0
sg46
I0
sg50
I0
sg89
I0
sg70
I0
sg103
I0
sg13
I0
sg100
I0
sg17
I0
sg22
I0
sg42
I0
sg85
I0
sg55
I0
sg66
I0
sg18
I0
sg48
I0
sg28
I0
sg29
I0
sg88
I0
sg71
I0
sg33
I0
sg64
I3
sg30
I0
sg60
I0
sg16
I0
sg21
I0
sg95
I0
sg75
I0
sg11
I0
sg67
I0
sg83
I0
sg97
I0
sg80
I0
sg44
I2
sg45
I4
sg102
I0
ssg45
(dp603
g100
I0
sg17
I0
sg54
I0
sg73
I0
sg26
I0
sg22
I0
sg42
I0
sg85
I0
sg55
I0
sg222
I0
sg51
I0
sg49
I0
sg48
I0
sg53
I0
sg52
I0
sg15
I0
sg39
I0
sg40
I0
sg28
I0
sg29
I0
sg35
I0
sg71
I0
sg33
I0
sg41
I0
sg47
I0
sg30
I0
sg76
I0
sg44
I0
sg74
I0
sg32
I0
sg14
I0
sg10
I0
sg27
I0
sg18
I0
sg45
I0
sg20
I0
sg19
I0
sg36
I0
sg25
I0
sg37
I0
sg21
I0
sg24
I0
sg57
I0
sg9
I0
sg46
I0
sg250
I0
sg11
I0
sg81
I0
sg38
I0
sg50
I0
sg77
I0
sg8
I0
sg78
I0
sg424
I0
sg12
I0
sg43
I0
sg23
I0
sg13
I0
sg245
I0
sg80
I0
sg56
I0
sg31
I0
sg75
I0
sg16
I0
sg79
I0
sg34
I0
sg72
I0
ssg102
(dp604
g387
I0
sg382
I0
sg388
I0
sg389
I0
sg270
I0
sg337
I0
sg274
I0
sg390
I0
sg391
I0
sg392
I0
sg393
I0
sg394
I0
sg395
I0
sg396
I0
sg305
I0
sg101
I0
sg383
I0
sg397
I0
sg398
I0
sg399
I0
sg400
I0
sg288
I0
sg401
I0
sg402
I0
sg403
I0
sg404
I0
sg405
I0
sg406
I0
sg381
I0
sg407
I0
sg318
I0
sg408
I0
sg314
I0
sg348
I0
sg409
I0
sg410
I0
sg411
I0
sg103
I0
sg412
I0
sg308
I0
sg413
I0
sg414
I0
sg415
I0
sg416
I0
sg277
I0
sg417
I0
sg418
I0
sg306
I0
sg419
I0
sg420
I0
sg102
I0
sssb.