ccopy_reg
_reconstructor
p0
(cutils.eval
ConfusionMatrix
p1
c__builtin__
object
p2
Ntp3
Rp4
(dp5
S'labels'
p6
(lp7
S'cut.v.01'
p8
aS'lemon.n.01'
p9
aS'cheese.n.01'
p10
aS'slice.v.03'
p11
aS'knife.n.01'
p12
aS'tongue.n.03'
p13
aS'banana.n.02'
p14
aS'slice.v.02'
p15
aS'bread.n.01'
p16
aS'put.v.01'
p17
aS'pepper.n.03'
p18
aS'salt.n.02'
p19
aS'strategic_arms_limitation_talks.n.01'
p20
aS'egg.n.02'
p21
aS'meat.n.01'
p22
aS'cleaver.n.01'
p23
aS'chopper.n.02'
p24
aS'bacon.n.01'
p25
aS'onion.n.01'
p26
aS'onion.n.03'
p27
aS'beef.n.02'
p28
aS'plate.n.04'
p29
aS'plate.n.05'
p30
aS'opening.n.01'
p31
aS'gap.n.01'
p32
aS'fill.v.09'
p33
aS'batter.n.02'
p34
aS'cake.n.03'
p35
aS'patty.n.01'
p36
aS'whipped_cream.n.01'
p37
aS'fill.v.01'
p38
aS'pitcher.n.02'
p39
aS'pitcher.n.03'
p40
aS'milk.n.01'
p41
aS'milk.n.04'
p42
aS'mug.n.04'
p43
aS'cabbage.n.01'
p44
aS'pan.n.03'
p45
aS'pan.n.04'
p46
aS'chicken.n.01'
p47
aS'pizza.n.01'
p48
aS'meet.v.04'
p49
aS'kettle.n.01'
p50
aS'kettle.n.02'
p51
aS'water.n.06'
p52
aS'pan.n.01'
p53
aS'water_system.n.02'
p54
aS'pepper.n.04'
p55
asS'instanceCount'
p56
I51
sS'matrix'
p57
(dp58
g10
(dp59
S'cheese.n.01'
p60
I1
ssg47
(dp61
S'chicken.n.01'
p62
I1
ssg28
(dp63
S'beef.n.02'
p64
I1
ssg16
(dp65
S'bread.n.01'
p66
I1
ssg34
(dp67
S'batter.n.02'
p68
I1
ssg42
(dp69
g42
I0
ssg44
(dp70
S'cabbage.n.01'
p71
I1
ssg38
(dp72
g49
I1
sS'fill.v.09'
p73
I3
ssg41
(dp74
g42
I1
ssg53
(dp75
S'pan.n.04'
p76
I1
ssg45
(dp77
g46
I2
ssg8
(dp78
S'cut.v.01'
p79
I5
ssg46
(dp80
g46
I0
ssg32
(dp81
g32
I0
ssg21
(dp82
S'egg.n.02'
p83
I1
ssg25
(dp84
S'bacon.n.01'
p85
I1
ssg36
(dp86
g36
I0
ssg40
(dp87
g40
I0
ssg39
(dp88
g40
I1
ssg23
(dp89
g24
I1
ssg55
(dp90
S'pepper.n.03'
p91
I1
ssg19
(dp92
g20
I1
ssg22
(dp93
S'meat.n.01'
p94
I1
ssg15
(dp95
g15
I0
ssg11
(dp96
g15
I1
sS'slice.v.03'
p97
I2
ssg24
(dp98
g24
I0
ssg12
(dp99
g13
I2
ssg13
(dp100
g13
I0
ssg14
(dp101
S'banana.n.02'
p102
I1
ssg29
(dp103
g30
I1
ssg30
(dp104
g30
I0
ssg49
(dp105
g49
I0
ssg18
(dp106
S'pepper.n.03'
p107
I1
ssg37
(dp108
S'whipped_cream.n.01'
p109
I1
ssg20
(dp110
g20
I0
ssg31
(dp111
g32
I1
ssg43
(dp112
S'mug.n.04'
p113
I1
ssg33
(dp114
S'fill.v.09'
p115
I1
ssg54
(dp116
g54
I0
ssg52
(dp117
g54
I1
sS'water.n.06'
p118
I1
ssg17
(dp119
S'put.v.01'
p120
I5
ssg48
(dp121
S'pizza.n.01'
p122
I1
ssg51
(dp123
g51
I0
ssg50
(dp124
g51
I1
ssg35
(dp125
g36
I1
ssg9
(dp126
S'lemon.n.01'
p127
I1
ssg26
(dp128
g27
I2
ssg27
(dp129
g27
I0
sssb.