ccopy_reg
_reconstructor
p0
(cutils.eval
ConfusionMatrix
p1
c__builtin__
object
p2
Ntp3
Rp4
(dp5
S'labels'
p6
(lp7
S'fill.v.01'
p8
aS'pan.n.01'
p9
aS'water.n.06'
p10
aS'slice.v.03'
p11
aS'slice.v.02'
p12
aS'onion.n.01'
p13
aS'pepper.n.04'
p14
aS'pepper.n.03'
p15
aS'flesh.n.01'
p16
aS'human_body.n.01'
p17
aS'piece.n.08'
p18
aS'slice.n.06'
p19
aS'pizza.n.01'
p20
aS'cut.v.01'
p21
aS'edit.v.03'
p22
aS'lemon.n.01'
p23
aS'lemon.n.05'
p24
aS'cheese.n.01'
p25
aS'knife.n.01'
p26
aS'knife.n.02'
p27
aS'banana.n.02'
p28
aS'bread.n.01'
p29
aS'put.v.01'
p30
aS'capsicum.n.01'
p31
aS'salt.n.02'
p32
aS'egg.n.02'
p33
aS'cut.v.32'
p34
aS'meat.n.01'
p35
aS'kernel.n.01'
p36
aS'cleaver.n.01'
p37
aS'bacon.n.01'
p38
aS'bacon.n.02'
p39
aS'beef.n.02'
p40
aS'plate.n.04'
p41
aS'plate.n.08'
p42
aS'opening.n.01'
p43
aS'gap.n.03'
p44
aS'fill.v.09'
p45
aS'batter.n.02'
p46
aS'cake.n.03'
p47
aS'patty.n.01'
p48
aS'whipped_cream.n.01'
p49
aS'pitcher.n.02'
p50
aS'milk.n.01'
p51
aS'foam.n.01'
p52
aS'mug.n.04'
p53
aS'cabbage.n.01'
p54
aS'cabbage.n.03'
p55
aS'put.v.02'
p56
aS'pan.n.03'
p57
aS'chicken.n.01'
p58
aS'wimp.n.01'
p59
asS'instanceCount'
p60
I51
sS'matrix'
p61
(dp62
g25
(dp63
S'cheese.n.01'
p64
I1
ssg58
(dp65
g59
I1
ssg32
(dp66
S'salt.n.02'
p67
I1
ssg29
(dp68
S'bread.n.01'
p69
I1
ssg46
(dp70
S'batter.n.02'
p71
I1
ssg59
(dp72
g59
I0
ssg42
(dp73
g42
I0
ssg48
(dp74
g48
I0
ssg51
(dp75
S'milk.n.01'
p76
I1
ssg9
(dp77
S'pan.n.01'
p78
I1
ssg57
(dp79
S'pan.n.01'
p80
I1
ssg21
(dp81
g22
I2
sg34
I3
ssg44
(dp82
g44
I0
ssg45
(dp83
S'fill.v.01'
p84
I1
ssg54
(dp85
g55
I1
ssg33
(dp86
S'egg.n.02'
p87
I1
ssg40
(dp88
S'beef.n.02'
p89
I1
ssg39
(dp90
g39
I0
ssg38
(dp91
g39
I1
ssg8
(dp92
S'fill.v.01'
p93
I3
ssg31
(dp94
g31
I0
ssg35
(dp95
g36
I1
ssg47
(dp96
g48
I1
ssg34
(dp97
g34
I0
ssg37
(dp98
S'cleaver.n.01'
p99
I1
ssg12
(dp100
g12
I0
ssg11
(dp101
g12
I5
ssg26
(dp102
g27
I2
ssg28
(dp103
S'banana.n.02'
p104
I1
ssg27
(dp105
g27
I0
ssg41
(dp106
g42
I1
ssg14
(dp107
g15
I1
ssg22
(dp108
g22
I0
ssg15
(dp109
g31
I1
sg15
I0
ssg52
(dp110
S'foam.n.01'
p111
I1
ssg17
(dp112
g17
I0
ssg49
(dp113
S'whipped_cream.n.01'
p114
I1
ssg18
(dp115
g19
I1
ssg43
(dp116
g44
I1
ssg53
(dp117
S'mug.n.04'
p118
I1
ssg55
(dp119
g55
I0
ssg16
(dp120
g17
I1
ssg19
(dp121
g19
I0
ssg10
(dp122
S'water.n.06'
p123
I1
ssg30
(dp124
g56
I1
sS'put.v.01'
p125
I3
ssg20
(dp126
S'pizza.n.01'
p127
I1
ssg24
(dp128
g24
I0
ssg36
(dp129
g36
I0
ssg23
(dp130
g24
I1
ssg13
(dp131
S'onion.n.01'
p132
I2
ssg50
(dp133
S'pitcher.n.02'
p134
I1
ssg56
(dp135
g56
I0
sssb.