ccopy_reg
_reconstructor
p0
(cutils.eval
ConfusionMatrix
p1
c__builtin__
object
p2
Ntp3
Rp4
(dp5
S'labels'
p6
(lp7
S'cut.v.01'
p8
aS'bacon.n.01'
p9
aS'bacon.n.02'
p10
aS'put.v.01'
p11
aS'onion.n.01'
p12
aS'onion.n.02'
p13
aS'beef.n.02'
p14
aS'beef.n.01'
p15
aS'plate.n.04'
p16
aS'denture.n.01'
p17
aS'opening.n.01'
p18
aS'gap.n.05'
p19
aS'fill.v.09'
p20
aS'batter.n.02'
p21
aS'cake.n.03'
p22
aS'cake.n.01'
p23
aS'whipped_cream.n.01'
p24
aS'fill.v.01'
p25
aS'pitcher.n.02'
p26
aS'pitcher.n.05'
p27
aS'milk.n.01'
p28
aS'milk.n.04'
p29
aS'mug.n.04'
p30
aS'cabbage.n.01'
p31
aS'cabbage.n.03'
p32
aS'pan.n.03'
p33
aS'pan.n.01'
p34
aS'chicken.n.01'
p35
aS'wimp.n.01'
p36
aS'meet.v.04'
p37
aS'kettle.n.01'
p38
aS'water.n.06'
p39
aS'water.n.03'
p40
aS'slice.v.03'
p41
aS'slice.v.02'
p42
aS'pepper.n.04'
p43
aS'pepper.n.01'
p44
aS'flesh.n.01'
p45
aS'human_body.n.01'
p46
aS'piece.n.08'
p47
aS'slice.n.06'
p48
aS'pizza.n.01'
p49
aS'lemon.n.01'
p50
aS'lemon.n.05'
p51
aS'cheese.n.01'
p52
aS'tall_mallow.n.01'
p53
aS'knife.n.01'
p54
aS'banana.n.02'
p55
aS'bread.n.01'
p56
asS'instanceCount'
p57
I48
sS'matrix'
p58
(dp59
g52
(dp60
g53
I1
ssg15
(dp61
g15
I0
ssg14
(dp62
g15
I1
ssg56
(dp63
S'bread.n.01'
p64
I1
ssg21
(dp65
S'batter.n.02'
p66
I1
ssg36
(dp67
g36
I0
ssg29
(dp68
g29
I0
ssg35
(dp69
g36
I1
ssg28
(dp70
g29
I1
ssg34
(dp71
g34
I1
ssg33
(dp72
g34
I2
ssg8
(dp73
S'cut.v.01'
p74
I4
ssg55
(dp75
S'banana.n.02'
p76
I1
ssg20
(dp77
S'fill.v.09'
p78
I1
ssg10
(dp79
g10
I0
ssg9
(dp80
g10
I1
ssg25
(dp81
g37
I1
sS'fill.v.09'
p82
I3
ssg26
(dp83
g27
I1
ssg27
(dp84
g27
I0
ssg17
(dp85
g17
I0
ssg42
(dp86
g42
I0
ssg41
(dp87
g42
I3
sS'slice.v.03'
p88
I2
ssg31
(dp89
g32
I1
ssg50
(dp90
g51
I1
ssg32
(dp91
g32
I0
ssg16
(dp92
g17
I1
ssg43
(dp93
g44
I1
ssg37
(dp94
g37
I0
ssg54
(dp95
S'knife.n.01'
p96
I2
ssg46
(dp97
g46
I0
ssg24
(dp98
S'whipped_cream.n.01'
p99
I1
ssg47
(dp100
g48
I1
ssg53
(dp101
g53
I0
ssg18
(dp102
g19
I1
ssg30
(dp103
S'mug.n.04'
p104
I1
ssg45
(dp105
g46
I1
ssg40
(dp106
g40
I0
ssg48
(dp107
g48
I0
ssg39
(dp108
g40
I2
ssg11
(dp109
S'put.v.01'
p110
I4
ssg49
(dp111
S'pizza.n.01'
p112
I1
ssg51
(dp113
g51
I0
ssg38
(dp114
S'kettle.n.01'
p115
I1
ssg22
(dp116
g23
I1
ssg19
(dp117
g19
I0
ssg23
(dp118
g23
I0
ssg44
(dp119
g44
I0
ssg12
(dp120
S'onion.n.01'
p121
I1
sg13
I1
ssg13
(dp122
g13
I0
sssb.