ccopy_reg
_reconstructor
p0
(cutils.eval
ConfusionMatrix
p1
c__builtin__
object
p2
Ntp3
Rp4
(dp5
S'labels'
p6
(lp7
S'fill.v.01'
p8
aS'pan.n.01'
p9
aS'pan.n.03'
p10
aS'water.n.06'
p11
aS'cheese.n.01'
p12
aS'slice.v.03'
p13
aS'piece.n.08'
p14
aS'slice.n.06'
p15
aS'pizza.n.01'
p16
aS'fill.v.09'
p17
aS'foam.n.01'
p18
aS'mug.n.04'
p19
aS'chump.n.01'
p20
aS'pitcher.n.02'
p21
aS'milk.n.01'
p22
aS'onion.n.01'
p23
aS'pepper.n.04'
p24
asS'instanceCount'
p25
I17
sS'matrix'
p26
(dp27
g9
(dp28
g10
I1
ssg12
(dp29
S'cheese.n.01'
p30
I1
ssg10
(dp31
g10
I0
ssg18
(dp32
S'foam.n.01'
p33
I1
ssg20
(dp34
g20
I0
ssg13
(dp35
S'slice.v.03'
p36
I3
ssg24
(dp37
S'pepper.n.04'
p38
I1
ssg17
(dp39
g17
I0
ssg15
(dp40
g15
I0
ssg11
(dp41
S'water.n.06'
p42
I1
ssg8
(dp43
g17
I1
sS'fill.v.01'
p44
I2
ssg21
(dp45
S'pitcher.n.02'
p46
I1
ssg14
(dp47
g15
I1
ssg16
(dp48
S'pizza.n.01'
p49
I1
ssg23
(dp50
S'onion.n.01'
p51
I1
ssg22
(dp52
S'milk.n.01'
p53
I1
ssg19
(dp54
g20
I1
sssb.