ccopy_reg
_reconstructor
p0
(cutils.eval
ConfusionMatrix
p1
c__builtin__
object
p2
Ntp3
Rp4
(dp5
S'labels'
p6
(lp7
S'opening.n.01'
p8
aS'gap.n.03'
p9
aS'fill.v.09'
p10
aS'fill.v.01'
p11
aS'batter.n.02'
p12
aS'flesh.n.01'
p13
aS'pulp.n.02'
p14
aS'slice.v.03'
p15
aS'knife.n.01'
p16
aS'tongue.n.03'
p17
aS'banana.n.02'
p18
aS'kettle.n.01'
p19
aS'water.n.06'
p20
aS'pan.n.01'
p21
aS'pan.n.03'
p22
aS'cheese.n.01'
p23
asS'instanceCount'
p24
I16
sS'matrix'
p25
(dp26
g21
(dp27
g22
I1
ssg15
(dp28
S'slice.v.03'
p29
I3
ssg22
(dp30
g22
I0
ssg16
(dp31
g17
I1
ssg9
(dp32
g9
I0
ssg18
(dp33
S'banana.n.02'
p34
I1
ssg10
(dp35
g11
I1
ssg13
(dp36
g14
I1
ssg20
(dp37
S'water.n.06'
p38
I2
ssg11
(dp39
g11
I2
ssg23
(dp40
S'cheese.n.01'
p41
I1
ssg19
(dp42
S'kettle.n.01'
p43
I1
ssg12
(dp44
S'batter.n.02'
p45
I1
ssg17
(dp46
g17
I0
ssg14
(dp47
g14
I0
ssg8
(dp48
g9
I1
sssb.