ccopy_reg
_reconstructor
p0
(cutils.eval
ConfusionMatrix
p1
c__builtin__
object
p2
Ntp3
Rp4
(dp5
S'labels'
p6
(lp7
S'slice.v.03'
p8
aS'onion.n.01'
p9
aS'onion.n.02'
p10
aS'pepper.n.04'
p11
aS'pepper.n.03'
p12
aS'opening.n.01'
p13
aS'fill.v.09'
p14
aS'fill.v.01'
p15
aS'batter.n.02'
p16
aS'batter.n.01'
p17
aS'flesh.n.01'
p18
aS'human_body.n.01'
p19
aS'slice.v.02'
p20
aS'knife.n.01'
p21
aS'tongue.n.03'
p22
aS'banana.n.02'
p23
aS'kettle.n.01'
p24
aS'water.n.06'
p25
aS'pan.n.01'
p26
aS'pan.n.03'
p27
asS'instanceCount'
p28
I17
sS'matrix'
p29
(dp30
g20
(dp31
g20
I0
ssg8
(dp32
g20
I1
sS'slice.v.03'
p33
I2
ssg27
(dp34
g27
I0
ssg21
(dp35
g22
I1
ssg22
(dp36
g22
I0
ssg23
(dp37
S'banana.n.02'
p38
I1
ssg14
(dp39
g15
I1
ssg11
(dp40
g12
I1
ssg18
(dp41
g19
I1
ssg25
(dp42
S'water.n.06'
p43
I2
ssg12
(dp44
g12
I0
ssg15
(dp45
g15
I2
ssg26
(dp46
g27
I1
ssg19
(dp47
g19
I0
ssg24
(dp48
S'kettle.n.01'
p49
I1
ssg16
(dp50
g17
I1
ssg17
(dp51
g17
I0
ssg10
(dp52
g10
I0
ssg9
(dp53
g10
I1
ssg13
(dp54
S'opening.n.01'
p55
I1
sssb.