ccopy_reg
_reconstructor
p0
(cutils.eval
ConfusionMatrix
p1
c__builtin__
object
p2
Ntp3
Rp4
(dp5
S'labels'
p6
(lp7
S'fill.v.01'
p8
aS'fill.v.09'
p9
aS'kettle.n.01'
p10
aS'water.n.06'
p11
aS'pan.n.01'
p12
aS'pan.n.03'
p13
aS'cheese.n.01'
p14
aS'tall_mallow.n.01'
p15
aS'slice.v.03'
p16
aS'slice.v.02'
p17
aS'piece.n.08'
p18
aS'slice.n.06'
p19
aS'pizza.n.01'
p20
aS'foam.n.01'
p21
aS'mug.n.04'
p22
aS'chump.n.01'
p23
aS'pitcher.n.02'
p24
aS'pitcher.n.01'
p25
aS'milk.n.01'
p26
aS'milk.n.04'
p27
asS'instanceCount'
p28
I17
sS'matrix'
p29
(dp30
g12
(dp31
g13
I1
ssg14
(dp32
g15
I1
ssg13
(dp33
g13
I0
ssg21
(dp34
S'foam.n.01'
p35
I1
ssg23
(dp36
g23
I0
ssg20
(dp37
S'pizza.n.01'
p38
I1
ssg9
(dp39
g9
I0
ssg26
(dp40
g27
I1
ssg19
(dp41
g19
I0
ssg11
(dp42
S'water.n.06'
p43
I2
ssg8
(dp44
g9
I4
ssg24
(dp45
g25
I1
ssg25
(dp46
g25
I0
ssg10
(dp47
S'kettle.n.01'
p48
I1
ssg27
(dp49
g27
I0
ssg16
(dp50
g17
I1
sS'slice.v.03'
p51
I1
ssg15
(dp52
g15
I0
ssg17
(dp53
g17
I0
ssg18
(dp54
g19
I1
ssg22
(dp55
g23
I1
sssb.