ccopy_reg
_reconstructor
p0
(cutils.eval
ConfusionMatrix
p1
c__builtin__
object
p2
Ntp3
Rp4
(dp5
S'labels'
p6
(lp7
S'fill.v.01'
p8
aS'mug.n.04'
p9
aS'pitcher.n.02'
p10
aS'milk.n.01'
p11
aS'slice.v.03'
p12
aS'onion.n.01'
p13
aS'onion.n.02'
p14
aS'pepper.n.04'
p15
aS'pepper.n.03'
p16
aS'opening.n.01'
p17
aS'gap.n.03'
p18
aS'fill.v.09'
p19
aS'batter.n.02'
p20
aS'flesh.n.01'
p21
aS'human_body.n.01'
p22
aS'slice.v.02'
p23
aS'knife.n.01'
p24
aS'tongue.n.03'
p25
aS'banana.n.02'
p26
asS'instanceCount'
p27
I16
sS'matrix'
p28
(dp29
g23
(dp30
g23
I0
ssg9
(dp31
S'mug.n.04'
p32
I1
ssg24
(dp33
g25
I1
ssg18
(dp34
g18
I0
ssg26
(dp35
S'banana.n.02'
p36
I1
ssg12
(dp37
g23
I1
sS'slice.v.03'
p38
I2
ssg15
(dp39
g16
I1
ssg19
(dp40
S'fill.v.01'
p41
I1
ssg16
(dp42
g16
I0
ssg8
(dp43
S'fill.v.01'
p44
I2
ssg10
(dp45
S'pitcher.n.02'
p46
I1
ssg22
(dp47
g22
I0
ssg20
(dp48
S'batter.n.02'
p49
I1
ssg25
(dp50
g25
I0
ssg21
(dp51
g22
I1
ssg17
(dp52
g18
I1
ssg13
(dp53
g14
I1
ssg11
(dp54
S'milk.n.01'
p55
I1
ssg14
(dp56
g14
I0
sssb.