ccopy_reg
_reconstructor
p0
(cutils.eval
ConfusionMatrix
p1
c__builtin__
object
p2
Ntp3
Rp4
(dp5
S'labels'
p6
(lp7
S'flesh.n.01'
p8
aS'pulp.n.02'
p9
aS'slice.v.03'
p10
aS'knife.n.01'
p11
aS'knife.n.02'
p12
aS'banana.n.02'
p13
aS'fill.v.01'
p14
aS'kettle.n.01'
p15
aS'water.n.06'
p16
aS'water_system.n.02'
p17
aS'pan.n.01'
p18
aS'pan.n.03'
p19
aS'cheese.n.01'
p20
aS'tall_mallow.n.01'
p21
aS'slice.v.02'
p22
aS'piece.n.08'
p23
aS'slice.n.06'
p24
aS'pizza.n.01'
p25
aS'fill.v.09'
p26
aS'foam.n.01'
p27
aS'mug.n.04'
p28
aS'chump.n.01'
p29
aS'pitcher.n.02'
p30
aS'pitcher.n.01'
p31
aS'milk.n.01'
p32
aS'milk.n.04'
p33
aS'onion.n.01'
p34
aS'pepper.n.04'
p35
aS'pepper.n.03'
p36
aS'opening.n.01'
p37
aS'gap.n.03'
p38
aS'batter.n.02'
p39
aS'onion.n.02'
p40
aS'human_body.n.01'
p41
aS'tongue.n.03'
p42
aS'onion.n.03'
p43
aS'pepper.n.01'
p44
aS'batter.n.01'
p45
asS'instanceCount'
p46
I166
sS'matrix'
p47
(dp48
g20
(dp49
g20
I4
sg17
I0
sS'batter.n.02'
p50
I0
sg45
I0
sg33
I0
sg27
I0
sg32
I0
sg18
I0
sg19
I0
sS'gap.n.03'
p51
I0
sg26
I0
sg14
I0
sg30
I0
sg31
I0
sg22
I0
sg10
I0
sg29
I0
sg11
I0
sg13
I0
sg12
I0
sS'pepper.n.04'
p52
I0
sS'pepper.n.01'
p53
I0
sg23
I0
sg21
I2
sS'opening.n.01'
p54
I0
sg28
I0
sg8
I0
sg24
I0
sg16
I0
sg25
I0
sg15
I0
sS'tongue.n.03'
p55
I0
sS'onion.n.01'
p56
I0
sg9
I0
ssg17
(dp57
g18
I0
sg10
I0
sg19
I0
sg11
I0
sg25
I0
sg13
I0
sg12
I0
sg24
I0
sg8
I0
sg17
I0
sg16
I0
sg14
I0
sg20
I0
sg15
I0
sg23
I0
sg21
I0
sg22
I0
sg9
I0
ssg39
(dp58
S'cheese.n.01'
p59
I0
sg39
I4
sg45
I2
sS'foam.n.01'
p60
I0
sS'milk.n.01'
p61
I0
sS'pan.n.01'
p62
I0
sS'pan.n.03'
p63
I0
sg38
I0
sS'fill.v.09'
p64
I0
sS'fill.v.01'
p65
I0
sS'pitcher.n.02'
p66
I0
sS'slice.v.02'
p67
I0
sS'slice.v.03'
p68
I0
sS'knife.n.01'
p69
I0
sS'banana.n.02'
p70
I0
sg35
I0
sg44
I0
sg36
I0
sg41
I0
sS'piece.n.08'
p71
I0
sg37
I0
sS'mug.n.04'
p72
I0
sS'flesh.n.01'
p73
I0
sS'slice.n.06'
p74
I0
sS'water.n.06'
p75
I0
sS'pizza.n.01'
p76
I0
sS'kettle.n.01'
p77
I0
sg43
I0
sg42
I0
sg34
I0
sS'pulp.n.02'
p78
I0
sg40
I0
ssg45
(dp79
g59
I0
sg50
I0
sg45
I0
sS'foam.n.01'
p80
I0
sS'milk.n.01'
p81
I0
sS'pan.n.01'
p82
I0
sS'pan.n.03'
p83
I0
sg51
I0
sS'fill.v.09'
p84
I0
sS'fill.v.01'
p85
I0
sS'pitcher.n.02'
p86
I0
sS'slice.v.02'
p87
I0
sS'slice.v.03'
p88
I0
sS'knife.n.01'
p89
I0
sS'banana.n.02'
p90
I0
sS'pepper.n.04'
p91
I0
sg53
I0
sS'pepper.n.03'
p92
I0
sS'human_body.n.01'
p93
I0
sS'piece.n.08'
p94
I0
sg54
I0
sS'mug.n.04'
p95
I0
sS'flesh.n.01'
p96
I0
sS'slice.n.06'
p97
I0
sS'water.n.06'
p98
I0
sS'pizza.n.01'
p99
I0
sS'kettle.n.01'
p100
I0
sS'tongue.n.03'
p101
I0
sS'onion.n.01'
p102
I0
sS'onion.n.02'
p103
I0
ssg33
(dp104
S'pan.n.01'
p105
I0
sS'cheese.n.01'
p106
I0
sS'pan.n.03'
p107
I0
sg27
I0
sg29
I0
sS'pizza.n.01'
p108
I0
sg26
I0
sg32
I0
sS'slice.n.06'
p109
I0
sS'water.n.06'
p110
I0
sS'fill.v.01'
p111
I0
sg30
I0
sg31
I0
sS'kettle.n.01'
p112
I0
sg33
I0
sS'slice.v.03'
p113
I0
sS'tall_mallow.n.01'
p114
I0
sS'slice.v.02'
p115
I0
sS'piece.n.08'
p116
I0
sg28
I0
ssg27
(dp117
g106
I0
sg39
I0
sg45
I0
sg33
I0
sg27
I4
sg32
I0
sg105
I0
sg107
I0
sg38
I0
sg26
I0
sg111
I0
sg30
I0
sg31
I0
sg115
I0
sg113
I0
sg29
I0
sg35
I0
sg53
I0
sg36
I0
sg116
I0
sg114
I0
sg37
I0
sg28
I0
sg73
I0
sg109
I0
sg110
I0
sg108
I0
sg112
I0
sg34
I0
sg78
I0
ssg32
(dp118
g106
I0
sg39
I0
sg45
I0
sg33
I1
sg27
I0
sg32
I5
sg105
I0
sg107
I0
sg38
I0
sg26
I0
sg111
I0
sg30
I0
sg31
I0
sg115
I0
sg113
I0
sg29
I0
sg69
I0
sg70
I0
sg35
I0
sg44
I0
sg36
I0
sg41
I0
sg116
I0
sg114
I0
sg37
I0
sg28
I0
sg73
I0
sg109
I0
sg110
I0
sg108
I0
sg112
I0
sg43
I0
sg42
I0
sg34
I0
sg78
I0
sg40
I0
ssg18
(dp119
g20
I0
sg17
I0
sS'batter.n.02'
p120
I0
sS'batter.n.01'
p121
I0
sg33
I0
sg27
I0
sg32
I0
sg18
I0
sg19
I6
sS'gap.n.03'
p122
I0
sg26
I0
sg14
I0
sg30
I0
sg31
I0
sg22
I0
sg10
I0
sg29
I0
sg11
I0
sg13
I0
sg12
I0
sg52
I0
sg92
I0
sg93
I0
sg23
I0
sg21
I0
sS'opening.n.01'
p123
I0
sg28
I0
sg8
I0
sg24
I0
sg16
I0
sg25
I0
sg15
I0
sg55
I0
sg56
I0
sg9
I0
sg103
I0
ssg19
(dp124
g20
I0
sg17
I0
sg120
I0
sg121
I0
sg33
I0
sg27
I0
sg32
I0
sg18
I0
sg19
I0
sg122
I0
sg26
I0
sg14
I0
sg30
I0
sg31
I0
sg22
I0
sg10
I0
sg29
I0
sg11
I0
sg13
I0
sg12
I0
sg52
I0
sg92
I0
sg93
I0
sg23
I0
sg21
I0
sg123
I0
sg28
I0
sg8
I0
sg24
I0
sg16
I0
sg25
I0
sg15
I0
sg55
I0
sg56
I0
sg9
I0
sg103
I0
ssg38
(dp125
g59
I0
sg39
I0
sg45
I0
sg60
I0
sg61
I0
sg62
I0
sg63
I0
sg38
I0
sg64
I0
sg65
I0
sg66
I0
sg67
I0
sg68
I0
sg69
I0
sg70
I0
sg35
I0
sg44
I0
sg36
I0
sg41
I0
sg71
I0
sg37
I0
sg72
I0
sg73
I0
sg74
I0
sg75
I0
sg76
I0
sg77
I0
sg43
I0
sg42
I0
sg34
I0
sg78
I0
sg40
I0
ssg26
(dp126
g106
I0
sg39
I0
sg45
I0
sg33
I0
sg27
I0
sg32
I0
sg105
I0
sg107
I0
sg38
I0
sg26
I0
sg111
I6
sg30
I0
sg31
I0
sg115
I0
sg113
I0
sg29
I0
sg69
I0
sg70
I0
sg35
I0
sg44
I0
sg36
I0
sg41
I0
sg116
I0
sg114
I0
sg37
I0
sg28
I0
sg73
I0
sg109
I0
sg110
I0
sg108
I0
sg112
I0
sg43
I0
sg42
I0
sg34
I0
sg78
I0
sg40
I0
ssg14
(dp127
g20
I0
sg17
I0
sg39
I0
sg45
I0
sg33
I0
sg27
I0
sg32
I0
sg18
I0
sg19
I0
sg38
I0
sg26
I6
sg14
I18
sg30
I0
sg31
I0
sg22
I0
sg10
I0
sg29
I0
sg11
I0
sg13
I0
sg12
I0
sg35
I0
sg44
I0
sg36
I0
sg41
I0
sg23
I0
sg21
I0
sg37
I0
sg28
I0
sg8
I0
sg24
I0
sg16
I0
sg25
I0
sg15
I0
sg43
I0
sg42
I0
sg34
I0
sg9
I0
sg40
I0
ssg30
(dp128
g106
I0
sg39
I0
sg45
I0
sg33
I0
sg27
I0
sg32
I0
sg105
I0
sg107
I0
sg38
I0
sg26
I0
sg111
I0
sg30
I5
sg31
I1
sg115
I0
sg113
I0
sg29
I0
sg69
I0
sg70
I0
sg35
I0
sg44
I0
sg36
I0
sg41
I0
sg116
I0
sg114
I0
sg37
I0
sg28
I0
sg73
I0
sg109
I0
sg110
I0
sg108
I0
sg112
I0
sg43
I0
sg42
I0
sg34
I0
sg78
I0
sg40
I0
ssg31
(dp129
g105
I0
sg106
I0
sg107
I0
sg27
I0
sg29
I0
sg108
I0
sg26
I0
sg32
I0
sg109
I0
sg110
I0
sg111
I0
sg30
I0
sg31
I0
sg112
I0
sg33
I0
sg113
I0
sg114
I0
sg115
I0
sg116
I0
sg28
I0
ssg22
(dp130
g20
I0
sg17
I0
sS'batter.n.02'
p131
I0
sg45
I0
sg33
I0
sg27
I0
sg32
I0
sg18
I0
sg19
I0
sS'gap.n.03'
p132
I0
sg26
I0
sg14
I0
sg30
I0
sg31
I0
sg22
I0
sg10
I0
sg29
I0
sg11
I0
sg13
I0
sg12
I0
sS'pepper.n.04'
p133
I0
sg44
I0
sS'pepper.n.03'
p134
I0
sg41
I0
sg23
I0
sg21
I0
sS'opening.n.01'
p135
I0
sg28
I0
sg8
I0
sg24
I0
sg16
I0
sg25
I0
sg15
I0
sg43
I0
sg42
I0
sS'onion.n.01'
p136
I0
sg9
I0
sg40
I0
ssg10
(dp137
g20
I0
sg17
I0
sg39
I0
sg45
I0
sg33
I0
sg27
I0
sg32
I0
sg18
I0
sg19
I0
sg38
I0
sg26
I0
sg14
I0
sg30
I0
sg31
I0
sg22
I8
sg10
I22
sg29
I0
sg11
I0
sg13
I0
sg12
I0
sg35
I0
sg44
I0
sg36
I0
sg41
I0
sg23
I0
sg21
I0
sg37
I0
sg28
I0
sg8
I0
sg24
I0
sg16
I0
sg25
I0
sg15
I0
sg43
I0
sg42
I0
sg34
I0
sg9
I0
sg40
I0
ssg29
(dp138
g106
I0
sg33
I0
sg27
I0
sg32
I0
sg105
I0
sg107
I0
sg26
I0
sg111
I0
sg30
I0
sg31
I0
sg115
I0
sg113
I0
sg29
I0
sS'knife.n.01'
p139
I0
sS'banana.n.02'
p140
I0
sg52
I0
sg116
I0
sg114
I0
sg28
I0
sg109
I0
sg110
I0
sg108
I0
sg112
I0
sg56
I0
ssg11
(dp141
g20
I0
sg17
I0
sg131
I0
sg121
I0
sS'milk.n.01'
p142
I0
sg18
I0
sg19
I0
sg132
I0
sS'fill.v.09'
p143
I0
sg14
I0
sS'pitcher.n.02'
p144
I0
sg22
I0
sg10
I0
sS'chump.n.01'
p145
I0
sg11
I1
sg13
I0
sg12
I1
sg133
I0
sg44
I0
sg134
I0
sg41
I0
sg23
I0
sg21
I0
sg135
I0
sS'mug.n.04'
p146
I0
sg8
I0
sg24
I0
sg16
I0
sg25
I0
sg15
I0
sg43
I0
sg42
I4
sg136
I0
sg9
I0
sg40
I0
ssg13
(dp147
g20
I0
sg17
I0
sg131
I0
sg121
I0
sg142
I0
sg18
I0
sg19
I0
sg132
I0
sg143
I0
sg14
I0
sg144
I0
sg22
I0
sg10
I0
sg145
I0
sg11
I0
sg13
I6
sg12
I0
sg133
I0
sg44
I0
sg134
I0
sg41
I0
sg23
I0
sg21
I0
sg135
I0
sg146
I0
sg8
I0
sg24
I0
sg16
I0
sg25
I0
sg15
I0
sg43
I0
sg42
I0
sg136
I0
sg9
I0
sg40
I0
ssg12
(dp148
g18
I0
sg10
I0
sg19
I0
sg11
I0
sg25
I0
sg13
I0
sg8
I0
sg24
I0
sg12
I0
sg17
I0
sg16
I0
sg14
I0
sg20
I0
sg15
I0
sg23
I0
sg21
I0
sg22
I0
sg9
I0
ssg35
(dp149
S'cheese.n.01'
p150
I0
sg39
I0
sg45
I0
sg60
I0
sg61
I0
sS'pan.n.01'
p151
I0
sS'pan.n.03'
p152
I0
sg38
I0
sg64
I0
sg65
I0
sg66
I0
sg67
I0
sg68
I0
sS'chump.n.01'
p153
I0
sg69
I0
sg70
I0
sg35
I1
sg44
I2
sg36
I3
sg41
I0
sg71
I0
sg37
I0
sg72
I0
sg73
I0
sg74
I0
sS'water.n.06'
p154
I0
sg76
I0
sg77
I0
sg43
I0
sg42
I0
sg34
I0
sg78
I0
sg40
I0
ssg44
(dp155
g59
I0
sS'batter.n.02'
p156
I0
sg45
I0
sg80
I0
sS'milk.n.01'
p157
I0
sS'gap.n.03'
p158
I0
sS'fill.v.09'
p159
I0
sS'fill.v.01'
p160
I0
sS'pitcher.n.02'
p161
I0
sS'slice.v.02'
p162
I0
sS'slice.v.03'
p163
I0
sS'knife.n.01'
p164
I0
sS'banana.n.02'
p165
I0
sS'pepper.n.04'
p166
I0
sg44
I0
sS'human_body.n.01'
p167
I0
sg94
I0
sS'opening.n.01'
p168
I0
sg95
I0
sS'flesh.n.01'
p169
I0
sg97
I0
sg75
I0
sg99
I0
sg77
I0
sS'tongue.n.03'
p170
I0
sS'onion.n.01'
p171
I0
sg43
I0
ssg36
(dp172
g39
I0
sg121
I0
sg60
I0
sg61
I0
sg82
I0
sg83
I0
sg38
I0
sg64
I0
sg65
I0
sg66
I0
sg67
I0
sg68
I0
sg69
I0
sg70
I0
sg35
I0
sg36
I0
sg41
I0
sg71
I0
sg37
I0
sg72
I0
sg73
I0
sg74
I0
sg98
I0
sg76
I0
sg100
I0
sg42
I0
sg34
I0
sg78
I0
sg40
I0
ssg41
(dp173
g131
I0
sg121
I0
sg142
I0
sg82
I0
sg83
I0
sg132
I0
sg143
I0
sS'fill.v.01'
p174
I0
sg144
I0
sg67
I0
sS'slice.v.03'
p175
I0
sg69
I0
sg70
I0
sg133
I0
sg44
I0
sg134
I0
sg41
I0
sg135
I0
sg146
I0
sS'flesh.n.01'
p176
I0
sg75
I0
sg77
I0
sg42
I0
sg136
I0
sg43
I0
sg40
I0
ssg23
(dp177
g20
I0
sg17
I0
sg39
I0
sg45
I0
sg33
I0
sg27
I0
sg32
I0
sg18
I0
sg19
I0
sg38
I0
sg26
I0
sg14
I0
sg30
I0
sg31
I0
sg22
I0
sg10
I0
sg29
I0
sg11
I0
sg13
I0
sg12
I0
sg35
I0
sg53
I0
sg36
I0
sg23
I0
sg21
I0
sg37
I0
sg28
I0
sg8
I0
sg24
I6
sg16
I0
sg25
I0
sg15
I0
sg34
I0
sg9
I0
ssg21
(dp178
g20
I0
sg17
I0
sg33
I0
sg27
I0
sg32
I0
sg18
I0
sg19
I0
sg26
I0
sg14
I0
sg30
I0
sg31
I0
sg22
I0
sg10
I0
sg29
I0
sg11
I0
sg13
I0
sg12
I0
sg23
I0
sg21
I0
sg28
I0
sg8
I0
sg24
I0
sg16
I0
sg25
I0
sg15
I0
sg9
I0
ssg37
(dp179
g59
I0
sg39
I0
sg45
I0
sg60
I0
sg61
I0
sg62
I0
sg63
I0
sg38
I5
sg64
I0
sg65
I0
sg66
I0
sg67
I0
sg68
I0
sg69
I0
sg70
I0
sg35
I0
sg44
I0
sg36
I0
sg41
I0
sg71
I0
sg37
I1
sg72
I0
sg73
I0
sg74
I0
sg75
I0
sg76
I0
sg77
I0
sg43
I0
sg42
I0
sg34
I0
sg78
I0
sg40
I0
ssg28
(dp180
g106
I0
sg39
I0
sg45
I0
sg33
I0
sg27
I0
sg32
I0
sg105
I0
sg107
I0
sg38
I0
sg26
I0
sg111
I0
sg30
I0
sg31
I0
sg115
I0
sg113
I0
sg29
I3
sg69
I0
sg70
I0
sg35
I0
sg53
I0
sg36
I0
sg41
I0
sg116
I0
sg114
I0
sg37
I0
sg28
I3
sg73
I0
sg109
I0
sg110
I0
sg108
I0
sg112
I0
sg42
I0
sg34
I0
sg78
I0
sg40
I0
ssg8
(dp181
g20
I0
sg17
I0
sg39
I0
sg121
I0
sg60
I0
sg61
I0
sg18
I0
sg19
I0
sg38
I0
sg64
I0
sg14
I0
sg66
I0
sg22
I0
sg10
I0
sg11
I0
sg13
I0
sg12
I0
sg35
I0
sg44
I0
sg36
I0
sg41
I3
sg23
I0
sg21
I0
sg37
I0
sg72
I0
sg8
I0
sg24
I0
sg16
I0
sg25
I0
sg15
I0
sg43
I0
sg42
I0
sg34
I0
sg9
I3
sg40
I0
ssg24
(dp182
g20
I0
sg24
I0
sg39
I0
sg45
I0
sg33
I0
sg27
I0
sg32
I0
sg18
I0
sg19
I0
sg38
I0
sg26
I0
sg14
I0
sg30
I0
sg31
I0
sg22
I0
sg10
I0
sg29
I0
sg11
I0
sg13
I0
sg12
I0
sg35
I0
sg53
I0
sg36
I0
sg23
I0
sg21
I0
sg37
I0
sg28
I0
sg8
I0
sg17
I0
sg16
I0
sg25
I0
sg15
I0
sg34
I0
sg9
I0
ssg16
(dp183
g20
I0
sg17
I2
sg156
I0
sg121
I0
sg33
I0
sg27
I0
sg32
I0
sg18
I0
sg19
I0
sg158
I0
sg26
I0
sg14
I0
sg30
I0
sg31
I0
sg22
I0
sg10
I0
sg29
I0
sg11
I0
sg13
I0
sg12
I0
sg52
I0
sg44
I0
sg92
I0
sg167
I0
sg23
I0
sg21
I0
sg168
I0
sg28
I0
sg8
I0
sg24
I0
sg16
I10
sg25
I0
sg15
I0
sg43
I0
sg170
I0
sg56
I0
sg9
I0
sg103
I0
ssg25
(dp184
g20
I0
sg17
I0
sg39
I0
sg45
I0
sg33
I0
sg27
I0
sg32
I0
sg18
I0
sg19
I0
sg38
I0
sg26
I0
sg14
I0
sg30
I0
sg31
I0
sg22
I0
sg10
I0
sg29
I0
sg11
I0
sg13
I0
sg12
I0
sg35
I0
sg53
I0
sg36
I0
sg23
I0
sg21
I0
sg37
I0
sg28
I0
sg8
I0
sg24
I0
sg16
I0
sg25
I6
sg15
I0
sg34
I0
sg9
I0
ssg15
(dp185
g20
I0
sg17
I0
sg156
I0
sg121
I0
sg33
I0
sg27
I0
sg32
I0
sg18
I0
sg19
I0
sg158
I0
sg26
I0
sg14
I0
sg30
I0
sg31
I0
sg22
I0
sg10
I0
sg29
I0
sg11
I0
sg13
I0
sg12
I0
sg166
I0
sg44
I0
sg92
I0
sg167
I0
sg23
I0
sg21
I0
sg168
I0
sg28
I0
sg8
I0
sg24
I0
sg16
I0
sg25
I0
sg15
I6
sg43
I0
sg170
I0
sg171
I0
sg9
I0
sg103
I0
ssg43
(dp186
g162
I0
sg163
I0
sg164
I0
sg158
I0
sg165
I0
sg159
I0
sg166
I0
sg169
I0
sg44
I0
sg75
I0
sg160
I0
sg161
I0
sg167
I0
sg77
I0
sg156
I0
sg170
I0
sg171
I0
sg157
I0
sg43
I0
sg168
I0
ssg42
(dp187
S'cheese.n.01'
p188
I0
sg131
I0
sg121
I0
sg142
I0
sg62
I0
sg63
I0
sg132
I0
sg143
I0
sg174
I0
sg144
I0
sg67
I0
sg175
I0
sg69
I0
sg70
I0
sg133
I0
sg44
I0
sg134
I0
sg41
I0
sg135
I0
sg146
I0
sg176
I0
sg75
I0
sg77
I0
sS'pulp.n.02'
p189
I0
sg42
I0
sg136
I0
sg43
I0
sg40
I0
ssg34
(dp190
g150
I0
sg39
I0
sg45
I0
sg60
I0
sg61
I0
sg151
I0
sg152
I0
sg38
I0
sg64
I0
sg65
I0
sg66
I0
sg67
I0
sg68
I0
sg153
I0
sg69
I0
sg70
I0
sg35
I0
sg44
I0
sg36
I0
sg41
I0
sg71
I0
sg37
I0
sg72
I0
sg73
I0
sg74
I0
sg154
I0
sg76
I0
sg77
I0
sg43
I1
sg42
I0
sg34
I3
sg78
I0
sg40
I2
ssg9
(dp191
g20
I0
sg17
I0
sg39
I0
sg60
I0
sg61
I0
sg18
I0
sg19
I0
sg38
I0
sg64
I0
sg14
I0
sg66
I0
sg22
I0
sg10
I0
sg11
I0
sg13
I0
sg12
I0
sg35
I0
sg36
I0
sg23
I0
sg21
I0
sg37
I0
sg72
I0
sg8
I0
sg24
I0
sg16
I0
sg25
I0
sg15
I0
sg55
I0
sg34
I0
sg9
I0
ssg40
(dp192
g131
I0
sg121
I0
sg142
I0
sg82
I0
sg83
I0
sg132
I0
sg143
I0
sg174
I0
sg144
I0
sg67
I0
sg175
I0
sg69
I0
sg70
I0
sg133
I0
sg134
I0
sg41
I0
sg135
I0
sg146
I0
sg176
I0
sg98
I0
sg100
I0
sg42
I0
sg136
I0
sg40
I0
sssb.