ccopy_reg
_reconstructor
p0
(cutils.eval
ConfusionMatrix
p1
c__builtin__
object
p2
Ntp3
Rp4
(dp5
S'labels'
p6
(lp7
S'fill.v.01'
p8
aS'pitcher.n.02'
p9
aS'milk.n.01'
p10
aS'slice.v.03'
p11
aS'onion.n.01'
p12
aS'onion.n.03'
p13
aS'pepper.n.04'
p14
aS'pepper.n.01'
p15
aS'opening.n.01'
p16
aS'gap.n.03'
p17
aS'fill.v.09'
p18
aS'batter.n.02'
p19
aS'flesh.n.01'
p20
aS'human_body.n.01'
p21
aS'slice.v.02'
p22
aS'knife.n.01'
p23
aS'tongue.n.03'
p24
aS'banana.n.02'
p25
aS'kettle.n.01'
p26
aS'water.n.06'
p27
asS'instanceCount'
p28
I17
sS'matrix'
p29
(dp30
g22
(dp31
g22
I0
ssg11
(dp32
g22
I1
sS'slice.v.03'
p33
I2
ssg23
(dp34
g24
I1
ssg17
(dp35
g17
I0
ssg25
(dp36
S'banana.n.02'
p37
I1
ssg18
(dp38
S'fill.v.01'
p39
I1
ssg14
(dp40
g15
I1
ssg20
(dp41
g21
I1
ssg15
(dp42
g15
I0
ssg27
(dp43
S'water.n.06'
p44
I1
ssg8
(dp45
S'fill.v.01'
p46
I2
ssg9
(dp47
S'pitcher.n.02'
p48
I1
ssg21
(dp49
g21
I0
ssg26
(dp50
S'kettle.n.01'
p51
I1
ssg19
(dp52
S'batter.n.02'
p53
I1
ssg24
(dp54
g24
I0
ssg12
(dp55
g13
I1
ssg10
(dp56
S'milk.n.01'
p57
I1
ssg13
(dp58
g13
I0
ssg16
(dp59
g17
I1
sssb.