ccopy_reg
_reconstructor
p0
(cutils.eval
ConfusionMatrix
p1
c__builtin__
object
p2
Ntp3
Rp4
(dp5
S'labels'
p6
(lp7
S'add.v.01'
p8
aS'onion.n.03'
p9
aS'sauce.n.01'
p10
aS'cream.n.02'
p11
aS'cream.n.03'
p12
aS'french_fries.n.01'
p13
aS'ingredient.n.03'
p14
aS'dressing.n.01'
p15
aS'dressing.n.04'
p16
aS'salad.n.01'
p17
aS'pot.n.01'
p18
aS'pot.n.09'
p19
aS'bean.n.01'
p20
aS'bean.n.02'
p21
aS'pan.n.03'
p22
aS'vanilla.n.02'
p23
aS'milk.n.01'
p24
aS'milk.n.04'
p25
aS'water.n.06'
p26
aS'water_system.n.02'
p27
aS'apple.n.01'
p28
aS'concoction.n.01'
p29
aS'mix.n.03'
p30
aS'salt.n.02'
p31
aS'meat.n.01'
p32
aS'kernel.n.01'
p33
aS'butter.n.01'
p34
aS'vanilla.n.03'
p35
aS'vegetable.n.01'
p36
aS'corn.n.03'
p37
aS'dish.n.02'
p38
aS'dish.n.01'
p39
aS'asparagus.n.02'
p40
aS'asparagus.n.01'
p41
aS'rib.n.03'
p42
aS'mixing_bowl.n.01'
p43
aS'sugar.n.01'
p44
aS'boodle.n.01'
p45
asS'instanceCount'
p46
I51
sS'matrix'
p47
(dp48
g33
(dp49
g33
I0
ssg37
(dp50
S'corn.n.03'
p51
I1
ssg43
(dp52
S'mixing_bowl.n.01'
p53
I1
ssg38
(dp54
g39
I1
ssg39
(dp55
g39
I0
ssg25
(dp56
g25
I0
ssg28
(dp57
S'apple.n.01'
p58
I1
ssg8
(dp59
S'add.v.01'
p60
I18
ssg24
(dp61
g25
I1
ssg22
(dp62
S'pan.n.03'
p63
I3
ssg19
(dp64
g19
I0
ssg34
(dp65
S'butter.n.01'
p66
I3
ssg18
(dp67
g19
I1
ssg40
(dp68
g41
I1
ssg41
(dp69
g41
I0
ssg32
(dp70
g33
I1
ssg35
(dp71
g35
I0
ssg23
(dp72
g35
I1
sS'vanilla.n.02'
p73
I1
ssg20
(dp74
g21
I1
ssg29
(dp75
g30
I1
ssg21
(dp76
g21
I0
ssg10
(dp77
S'sauce.n.01'
p78
I1
ssg31
(dp79
S'salt.n.02'
p80
I1
ssg42
(dp81
S'rib.n.03'
p82
I1
ssg11
(dp83
g12
I2
ssg12
(dp84
g12
I0
ssg14
(dp85
S'ingredient.n.03'
p86
I2
ssg45
(dp87
g45
I0
ssg36
(dp88
S'vegetable.n.01'
p89
I1
ssg16
(dp90
g16
I0
ssg27
(dp91
g27
I0
ssg26
(dp92
g27
I1
ssg15
(dp93
g16
I1
ssg13
(dp94
S'french_fries.n.01'
p95
I1
ssg30
(dp96
g30
I0
ssg17
(dp97
S'salad.n.01'
p98
I2
ssg9
(dp99
S'onion.n.03'
p100
I1
ssg44
(dp101
g45
I1
sssb.