ccopy_reg
_reconstructor
p0
(cutils.eval
ConfusionMatrix
p1
c__builtin__
object
p2
Ntp3
Rp4
(dp5
S'labels'
p6
(lp7
S'add.v.01'
p8
aS'egg.n.02'
p9
aS'mixing_bowl.n.01'
p10
aS'onion.n.03'
p11
aS'sauce.n.01'
p12
aS'cream.n.02'
p13
aS'cream.n.03'
p14
aS'french_fries.n.01'
p15
aS'child.n.01'
p16
aS'steak.n.01'
p17
aS'ingredient.n.03'
p18
aS'dressing.n.01'
p19
aS'dressing.n.04'
p20
aS'salad.n.01'
p21
aS'pot.n.01'
p22
aS'pot.n.04'
p23
aS'bean.n.01'
p24
aS'pan.n.03'
p25
aS'vanilla.n.02'
p26
aS'milk.n.01'
p27
aS'water.n.06'
p28
aS'water_system.n.02'
p29
aS'apple.n.01'
p30
aS'concoction.n.01'
p31
aS'mix.n.03'
p32
aS'salt.n.02'
p33
aS'meat.n.01'
p34
aS'kernel.n.01'
p35
aS'butter.n.01'
p36
aS'vegetable.n.01'
p37
aS'corn.n.03'
p38
aS'dish.n.02'
p39
aS'dish.n.01'
p40
aS'asparagus.n.02'
p41
aS'asparagus.n.01'
p42
aS'rib.n.03'
p43
asS'instanceCount'
p44
I50
sS'matrix'
p45
(dp46
g35
(dp47
g35
I0
ssg38
(dp48
S'corn.n.03'
p49
I1
ssg10
(dp50
S'mixing_bowl.n.01'
p51
I1
ssg39
(dp52
g40
I1
ssg40
(dp53
g40
I0
ssg16
(dp54
g16
I0
ssg30
(dp55
S'apple.n.01'
p56
I1
ssg8
(dp57
S'add.v.01'
p58
I18
ssg27
(dp59
S'milk.n.01'
p60
I1
ssg25
(dp61
S'pan.n.03'
p62
I2
ssg9
(dp63
S'egg.n.02'
p64
I2
ssg36
(dp65
S'butter.n.01'
p66
I1
ssg22
(dp67
g23
I1
ssg41
(dp68
g42
I1
ssg42
(dp69
g42
I0
ssg34
(dp70
g35
I1
ssg26
(dp71
S'vanilla.n.02'
p72
I2
ssg24
(dp73
S'bean.n.01'
p74
I1
ssg31
(dp75
g32
I1
ssg12
(dp76
S'sauce.n.01'
p77
I1
ssg33
(dp78
S'salt.n.02'
p79
I1
ssg43
(dp80
S'rib.n.03'
p81
I1
ssg32
(dp82
g32
I0
ssg13
(dp83
g14
I2
ssg14
(dp84
g14
I0
ssg18
(dp85
S'ingredient.n.03'
p86
I2
ssg17
(dp87
S'steak.n.01'
p88
I1
ssg37
(dp89
S'vegetable.n.01'
p90
I1
ssg20
(dp91
g20
I0
ssg29
(dp92
g29
I0
ssg28
(dp93
g29
I1
ssg19
(dp94
g20
I1
ssg15
(dp95
g16
I1
ssg23
(dp96
g23
I0
ssg21
(dp97
S'salad.n.01'
p98
I2
ssg11
(dp99
S'onion.n.03'
p100
I1
sssb.