ccopy_reg
_reconstructor
p0
(cutils.eval
ConfusionMatrix
p1
c__builtin__
object
p2
Ntp3
Rp4
(dp5
S'labels'
p6
(lp7
S'add.v.01'
p8
aS'asparagus.n.02'
p9
aS'salad.n.01'
p10
aS'rib.n.03'
p11
aS'mixing_bowl.n.01'
p12
aS'butter.n.01'
p13
aS'sugar.n.01'
p14
aS'pan.n.03'
p15
aS'flour.n.01'
p16
aS'egg.n.02'
p17
aS'onion.n.03'
p18
aS'sauce.n.01'
p19
aS'cream.n.02'
p20
aS'french_fries.n.01'
p21
aS'steak.n.01'
p22
aS'ingredient.n.03'
p23
aS'dressing.n.01'
p24
aS'stuffing.n.01'
p25
aS'pot.n.01'
p26
aS'pot.n.09'
p27
aS'bean.n.01'
p28
aS'vanilla.n.02'
p29
aS'milk.n.01'
p30
aS'milk.n.04'
p31
aS'water.n.06'
p32
aS'apple.n.01'
p33
aS'concoction.n.01'
p34
aS'mixture.n.01'
p35
aS'salt.n.02'
p36
aS'meat.n.01'
p37
asS'instanceCount'
p38
I53
sS'matrix'
p39
(dp40
g12
(dp41
S'mixing_bowl.n.01'
p42
I2
ssg31
(dp43
g31
I0
ssg33
(dp44
S'apple.n.01'
p45
I1
ssg8
(dp46
S'add.v.01'
p47
I18
ssg30
(dp48
g31
I1
ssg15
(dp49
S'pan.n.03'
p50
I3
ssg27
(dp51
g27
I0
ssg16
(dp52
S'flour.n.01'
p53
I1
ssg17
(dp54
S'egg.n.02'
p55
I2
ssg13
(dp56
S'butter.n.01'
p57
I3
ssg26
(dp58
g27
I1
ssg9
(dp59
S'asparagus.n.02'
p60
I1
ssg37
(dp61
S'meat.n.01'
p62
I1
ssg29
(dp63
S'vanilla.n.02'
p64
I2
ssg28
(dp65
S'bean.n.01'
p66
I1
ssg34
(dp67
g35
I1
ssg19
(dp68
S'sauce.n.01'
p69
I1
ssg36
(dp70
S'salt.n.02'
p71
I1
ssg11
(dp72
S'rib.n.03'
p73
I1
ssg35
(dp74
g35
I0
ssg20
(dp75
S'cream.n.02'
p76
I2
ssg23
(dp77
S'ingredient.n.03'
p78
I2
ssg22
(dp79
S'steak.n.01'
p80
I1
ssg25
(dp81
g25
I0
ssg32
(dp82
S'water.n.06'
p83
I1
ssg24
(dp84
g25
I1
ssg21
(dp85
S'french_fries.n.01'
p86
I1
ssg10
(dp87
S'salad.n.01'
p88
I2
ssg18
(dp89
S'onion.n.03'
p90
I1
ssg14
(dp91
S'sugar.n.01'
p92
I1
sssb.