ccopy_reg
_reconstructor
p0
(cutils.eval
ConfusionMatrix
p1
c__builtin__
object
p2
Ntp3
Rp4
(dp5
S'labels'
p6
(lp7
S'add.v.01'
p8
aS'french_fries.n.01'
p9
aS'steak.n.01'
p10
aS'ingredient.n.03'
p11
aS'dressing.n.01'
p12
aS'salad.n.01'
p13
aS'pot.n.01'
p14
aS'pot.n.09'
p15
aS'bean.n.01'
p16
aS'pan.n.03'
p17
aS'vanilla.n.02'
p18
aS'milk.n.01'
p19
aS'milk.n.04'
p20
aS'water.n.06'
p21
aS'apple.n.01'
p22
aS'concoction.n.01'
p23
aS'mixture.n.01'
p24
aS'cream.n.02'
p25
aS'salt.n.02'
p26
aS'meat.n.01'
p27
aS'butter.n.01'
p28
aS'vegetable.n.01'
p29
aS'corn.n.03'
p30
aS'dish.n.02'
p31
aS'asparagus.n.02'
p32
aS'rib.n.03'
p33
aS'mixing_bowl.n.01'
p34
aS'sugar.n.01'
p35
aS'flour.n.01'
p36
aS'egg.n.02'
p37
asS'instanceCount'
p38
I53
sS'matrix'
p39
(dp40
g30
(dp41
S'corn.n.03'
p42
I1
ssg34
(dp43
S'mixing_bowl.n.01'
p44
I2
ssg31
(dp45
S'dish.n.02'
p46
I1
ssg20
(dp47
g20
I0
ssg22
(dp48
S'apple.n.01'
p49
I1
ssg8
(dp50
S'add.v.01'
p51
I18
ssg19
(dp52
g20
I1
ssg17
(dp53
S'pan.n.03'
p54
I3
ssg15
(dp55
g15
I0
ssg36
(dp56
S'flour.n.01'
p57
I1
ssg37
(dp58
S'egg.n.02'
p59
I2
ssg28
(dp60
S'butter.n.01'
p61
I3
ssg14
(dp62
g15
I1
ssg32
(dp63
S'asparagus.n.02'
p64
I1
ssg27
(dp65
S'meat.n.01'
p66
I1
ssg18
(dp67
S'vanilla.n.02'
p68
I2
ssg16
(dp69
S'bean.n.01'
p70
I1
ssg23
(dp71
g24
I1
ssg26
(dp72
S'salt.n.02'
p73
I1
ssg33
(dp74
S'rib.n.03'
p75
I1
ssg24
(dp76
g24
I0
ssg25
(dp77
S'cream.n.02'
p78
I1
ssg11
(dp79
S'ingredient.n.03'
p80
I2
ssg10
(dp81
S'steak.n.01'
p82
I1
ssg29
(dp83
S'vegetable.n.01'
p84
I1
ssg21
(dp85
S'water.n.06'
p86
I1
ssg12
(dp87
S'dressing.n.01'
p88
I1
ssg9
(dp89
S'french_fries.n.01'
p90
I1
ssg13
(dp91
S'salad.n.01'
p92
I2
ssg35
(dp93
S'sugar.n.01'
p94
I1
sssb.