ccopy_reg
_reconstructor
p0
(cutils.eval
ConfusionMatrix
p1
c__builtin__
object
p2
Ntp3
Rp4
(dp5
S'labels'
p6
(lp7
S'add.v.01'
p8
aS'dressing.n.01'
p9
aS'stuffing.n.01'
p10
aS'salad.n.01'
p11
aS'pot.n.01'
p12
aS'pot.n.09'
p13
aS'bean.n.01'
p14
aS'pan.n.03'
p15
aS'vanilla.n.02'
p16
aS'milk.n.01'
p17
aS'milk.n.04'
p18
aS'water.n.06'
p19
aS'apple.n.01'
p20
aS'ingredient.n.03'
p21
aS'concoction.n.01'
p22
aS'mixture.n.01'
p23
aS'cream.n.02'
p24
aS'salt.n.02'
p25
aS'meat.n.01'
p26
aS'butter.n.01'
p27
aS'vegetable.n.01'
p28
aS'corn.n.03'
p29
aS'dish.n.02'
p30
aS'asparagus.n.02'
p31
aS'rib.n.03'
p32
aS'mixing_bowl.n.01'
p33
aS'sugar.n.01'
p34
aS'flour.n.01'
p35
aS'egg.n.02'
p36
aS'onion.n.03'
p37
aS'sauce.n.01'
p38
asS'instanceCount'
p39
I53
sS'matrix'
p40
(dp41
g29
(dp42
S'corn.n.03'
p43
I1
ssg33
(dp44
S'mixing_bowl.n.01'
p45
I2
ssg30
(dp46
S'dish.n.02'
p47
I1
ssg18
(dp48
g18
I0
ssg20
(dp49
S'apple.n.01'
p50
I1
ssg8
(dp51
S'add.v.01'
p52
I18
ssg17
(dp53
g18
I1
ssg15
(dp54
S'pan.n.03'
p55
I3
ssg13
(dp56
g13
I0
ssg35
(dp57
S'flour.n.01'
p58
I1
ssg36
(dp59
S'egg.n.02'
p60
I2
ssg27
(dp61
S'butter.n.01'
p62
I3
ssg12
(dp63
g13
I1
ssg31
(dp64
S'asparagus.n.02'
p65
I1
ssg26
(dp66
S'meat.n.01'
p67
I1
ssg16
(dp68
S'vanilla.n.02'
p69
I2
ssg14
(dp70
S'bean.n.01'
p71
I1
ssg22
(dp72
g23
I1
ssg38
(dp73
S'sauce.n.01'
p74
I1
ssg25
(dp75
S'salt.n.02'
p76
I1
ssg32
(dp77
S'rib.n.03'
p78
I1
ssg23
(dp79
g23
I0
ssg24
(dp80
S'cream.n.02'
p81
I2
ssg21
(dp82
S'ingredient.n.03'
p83
I1
ssg10
(dp84
g10
I0
ssg28
(dp85
S'vegetable.n.01'
p86
I1
ssg19
(dp87
S'water.n.06'
p88
I1
ssg9
(dp89
g10
I1
ssg11
(dp90
S'salad.n.01'
p91
I2
ssg37
(dp92
S'onion.n.03'
p93
I1
ssg34
(dp94
S'sugar.n.01'
p95
I1
sssb.