ccopy_reg
_reconstructor
p0
(cutils.eval
ConfusionMatrix
p1
c__builtin__
object
p2
Ntp3
Rp4
(dp5
S'labels'
p6
(lp7
S'fill.v.01'
p8
aS'fill.v.09'
p9
aS'pitcher.n.02'
p10
aS'pitcher.n.01'
p11
aS'milk.n.01'
p12
aS'piece.n.08'
p13
aS'slice.n.05'
p14
aS'pizza.n.01'
p15
aS'slice.v.03'
p16
aS'foam.n.01'
p17
aS'mug.n.04'
p18
aS'chump.n.01'
p19
aS'cheese.n.01'
p20
asS'instanceCount'
p21
I11
sS'matrix'
p22
(dp23
g16
(dp24
S'slice.v.03'
p25
I2
ssg19
(dp26
g19
I0
ssg17
(dp27
S'foam.n.01'
p28
I1
ssg9
(dp29
g9
I0
ssg8
(dp30
S'fill.v.01'
p31
I1
sg9
I1
ssg20
(dp32
S'cheese.n.01'
p33
I1
ssg10
(dp34
g11
I1
ssg11
(dp35
g11
I0
ssg15
(dp36
S'pizza.n.01'
p37
I1
ssg13
(dp38
g14
I1
ssg14
(dp39
g14
I0
ssg12
(dp40
S'milk.n.01'
p41
I1
ssg18
(dp42
g19
I1
sssb.