ccopy_reg
_reconstructor
p0
(cutils.eval
ConfusionMatrix
p1
c__builtin__
object
p2
Ntp3
Rp4
(dp5
S'labels'
p6
(lp7
S'knife.n.01'
p8
aS'tongue.n.03'
p9
aS'banana.n.02'
p10
aS'slice.v.03'
p11
aS'catsup.n.01'
p12
aS'tomato.n.01'
p13
aS'tomato.n.02'
p14
aS'piece.n.08'
p15
aS'slice.n.01'
p16
aS'onion.n.03'
p17
aS'mustard.n.02'
p18
aS'mustard.n.01'
p19
aS'flesh.n.01'
p20
aS'human_body.n.01'
p21
aS'slice.v.02'
p22
aS'fill.v.01'
p23
aS'kettle.n.01'
p24
aS'water.n.06'
p25
asS'instanceCount'
p26
I13
sS'matrix'
p27
(dp28
g22
(dp29
g22
I0
ssg11
(dp30
g22
I1
sS'slice.v.03'
p31
I1
ssg18
(dp32
g19
I1
ssg8
(dp33
g9
I1
ssg10
(dp34
S'banana.n.02'
p35
I1
ssg19
(dp36
g19
I0
ssg14
(dp37
g14
I0
ssg13
(dp38
g14
I1
ssg16
(dp39
g16
I0
ssg25
(dp40
S'water.n.06'
p41
I1
ssg23
(dp42
S'fill.v.01'
p43
I1
ssg21
(dp44
g21
I0
ssg24
(dp45
S'kettle.n.01'
p46
I1
ssg9
(dp47
g9
I0
ssg12
(dp48
S'catsup.n.01'
p49
I1
ssg15
(dp50
g16
I1
ssg20
(dp51
g21
I1
ssg17
(dp52
S'onion.n.03'
p53
I1
sssb.