ccopy_reg
_reconstructor
p0
(cutils.eval
ConfusionMatrix
p1
c__builtin__
object
p2
Ntp3
Rp4
(dp5
S'labels'
p6
(lp7
S'fill.v.01'
p8
aS'pan.n.01'
p9
aS'pan.n.03'
p10
aS'water.n.06'
p11
aS'opening.n.01'
p12
aS'gap.n.03'
p13
aS'fill.v.09'
p14
aS'batter.n.02'
p15
aS'knife.n.01'
p16
aS'tongue.n.03'
p17
aS'banana.n.02'
p18
aS'slice.v.03'
p19
aS'tomato.n.01'
p20
aS'tomato.n.02'
p21
aS'piece.n.08'
p22
aS'slice.n.04'
p23
aS'onion.n.03'
p24
aS'onion.n.02'
p25
aS'mustard.n.02'
p26
asS'instanceCount'
p27
I13
sS'matrix'
p28
(dp29
g9
(dp30
g10
I1
ssg19
(dp31
S'slice.v.03'
p32
I1
ssg10
(dp33
g10
I0
ssg16
(dp34
g17
I1
ssg13
(dp35
g13
I0
ssg18
(dp36
S'banana.n.02'
p37
I1
ssg14
(dp38
S'fill.v.01'
p39
I1
ssg21
(dp40
g21
I0
ssg20
(dp41
g21
I1
ssg26
(dp42
S'mustard.n.02'
p43
I1
ssg11
(dp44
S'water.n.06'
p45
I1
ssg23
(dp46
g23
I0
ssg8
(dp47
S'fill.v.01'
p48
I1
ssg15
(dp49
S'batter.n.02'
p50
I1
ssg17
(dp51
g17
I0
ssg22
(dp52
g23
I1
ssg25
(dp53
g25
I0
ssg24
(dp54
g25
I1
ssg12
(dp55
g13
I1
sssb.