ccopy_reg
_reconstructor
p0
(cutils.eval
ConfusionMatrix
p1
c__builtin__
object
p2
Ntp3
Rp4
(dp5
S'labels'
p6
(lp7
S'piece.n.08'
p8
aS'slice.n.06'
p9
aS'pizza.n.01'
p10
aS'slice.v.03'
p11
aS'fill.v.01'
p12
aS'fill.v.09'
p13
aS'foam.n.01'
p14
aS'mug.n.04'
p15
aS'countenance.n.03'
p16
aS'cheese.n.01'
p17
aS'tall_mallow.n.01'
p18
aS'slice.v.02'
p19
aS'pan.n.01'
p20
aS'pan.n.03'
p21
aS'water.n.06'
p22
asS'instanceCount'
p23
I11
sS'matrix'
p24
(dp25
g19
(dp26
g19
I0
ssg11
(dp27
g19
I1
sS'slice.v.03'
p28
I1
ssg21
(dp29
g21
I0
ssg14
(dp30
S'foam.n.01'
p31
I1
ssg20
(dp32
g21
I1
ssg16
(dp33
g16
I0
ssg13
(dp34
g13
I0
ssg9
(dp35
g9
I0
ssg22
(dp36
S'water.n.06'
p37
I1
ssg12
(dp38
g13
I2
ssg17
(dp39
g18
I1
ssg18
(dp40
g18
I0
ssg8
(dp41
g9
I1
ssg10
(dp42
S'pizza.n.01'
p43
I1
ssg15
(dp44
g16
I1
sssb.