ccopy_reg
_reconstructor
p0
(cutils.eval
ConfusionMatrix
p1
c__builtin__
object
p2
Ntp3
Rp4
(dp5
S'labels'
p6
(lp7
S'fill.v.01'
p8
aS'kettle.n.01'
p9
aS'water.n.06'
p10
aS'pitcher.n.02'
p11
aS'milk.n.01'
p12
aS'piece.n.08'
p13
aS'slice.n.06'
p14
aS'pizza.n.01'
p15
aS'slice.v.03'
p16
aS'mug.n.04'
p17
asS'instanceCount'
p18
I11
sS'matrix'
p19
(dp20
g16
(dp21
S'slice.v.03'
p22
I1
ssg17
(dp23
S'mug.n.04'
p24
I1
ssg14
(dp25
g14
I0
ssg10
(dp26
S'water.n.06'
p27
I1
ssg8
(dp28
S'fill.v.01'
p29
I3
ssg11
(dp30
S'pitcher.n.02'
p31
I1
ssg9
(dp32
S'kettle.n.01'
p33
I1
ssg13
(dp34
g14
I1
ssg15
(dp35
S'pizza.n.01'
p36
I1
ssg12
(dp37
S'milk.n.01'
p38
I1
sssb.