ccopy_reg
_reconstructor
p0
(cutils.eval
ConfusionMatrix
p1
c__builtin__
object
p2
Ntp3
Rp4
(dp5
S'labels'
p6
(lp7
S'fill.v.01'
p8
aS'foam.n.01'
p9
aS'mug.n.04'
p10
aS'cheese.n.01'
p11
aS'slice.v.03'
p12
aS'pan.n.01'
p13
aS'pan.n.03'
p14
aS'water.n.06'
p15
aS'opening.n.01'
p16
aS'gap.n.03'
p17
aS'fill.v.09'
p18
aS'batter.n.02'
p19
asS'instanceCount'
p20
I11
sS'matrix'
p21
(dp22
g13
(dp23
g14
I1
ssg11
(dp24
S'cheese.n.01'
p25
I1
ssg14
(dp26
g14
I0
ssg17
(dp27
g17
I0
ssg10
(dp28
S'mug.n.04'
p29
I1
ssg18
(dp30
S'fill.v.01'
p31
I1
ssg15
(dp32
S'water.n.06'
p33
I1
ssg8
(dp34
S'fill.v.01'
p35
I2
ssg19
(dp36
S'batter.n.02'
p37
I1
ssg12
(dp38
S'slice.v.03'
p39
I1
ssg9
(dp40
S'foam.n.01'
p41
I1
ssg16
(dp42
g17
I1
sssb.