ccopy_reg
_reconstructor
p0
(cutils.eval
ConfusionMatrix
p1
c__builtin__
object
p2
Ntp3
Rp4
(dp5
S'labels'
p6
(lp7
S'cheese.n.01'
p8
aS'slice.v.03'
p9
aS'add.v.01'
p10
aS'lend.v.01'
p11
aS'cover.v.01'
p12
aS'cover.v.16'
p13
aS'rib.n.03'
p14
aS'rib.n.01'
p15
aS'tomato.n.01'
p16
aS'tomato.n.02'
p17
aS'piece.n.08'
p18
aS'slice.n.04'
p19
aS'onion.n.03'
p20
aS'onion.n.02'
p21
aS'mustard.n.02'
p22
aS'pepper.n.03'
p23
aS'salt.n.02'
p24
aS'salt.n.04'
p25
aS'egg.n.02'
p26
aS'egg.n.01'
p27
aS'chicken.n.01'
p28
aS'wimp.n.01'
p29
aS'corn.n.02'
p30
aS'corn.n.03'
p31
aS'chop.v.01'
p32
aS'chop.v.05'
p33
aS'cut.n.16'
p34
aS'edit.v.03'
p35
aS'bag.n.01'
p36
aS'bag.n.04'
p37
aS'blend.v.03'
p38
aS'mix.v.05'
p39
aS'avocado.n.01'
p40
aS'bread.n.01'
p41
aS'slice.n.06'
p42
aS'water.n.06'
p43
aS'water_system.n.02'
p44
aS'rice.n.01'
p45
aS'pour.v.01'
p46
aS'concoction.n.01'
p47
aS'mix.n.03'
p48
aS'liquid.n.01'
p49
aS'sink.n.01'
p50
aS'cesspool.n.01'
p51
asS'instanceCount'
p52
I29
sS'matrix'
p53
(dp54
g8
(dp55
S'cheese.n.01'
p56
I1
ssg31
(dp57
g31
I0
ssg30
(dp58
g31
I1
ssg28
(dp59
g29
I1
ssg50
(dp60
g51
I1
ssg24
(dp61
g25
I1
ssg44
(dp62
g44
I0
ssg41
(dp63
S'bread.n.01'
p64
I1
ssg40
(dp65
S'avocado.n.01'
p66
I1
ssg29
(dp67
g29
I0
ssg10
(dp68
g11
I2
ssg22
(dp69
S'mustard.n.02'
p70
I1
ssg17
(dp71
g17
I0
ssg27
(dp72
g27
I0
ssg37
(dp73
g37
I0
ssg33
(dp74
g33
I0
ssg36
(dp75
g37
I1
ssg12
(dp76
g13
I1
ssg39
(dp77
g39
I0
ssg9
(dp78
S'slice.v.03'
p79
I1
ssg38
(dp80
g39
I1
ssg32
(dp81
g33
I1
ssg25
(dp82
g25
I0
ssg14
(dp83
g15
I1
ssg15
(dp84
g15
I0
ssg11
(dp85
g11
I0
ssg35
(dp86
g35
I0
ssg23
(dp87
S'pepper.n.03'
p88
I1
ssg47
(dp89
g48
I1
ssg18
(dp90
g42
I1
sg19
I1
ssg51
(dp91
g51
I0
ssg45
(dp92
S'rice.n.01'
p93
I1
ssg42
(dp94
g42
I0
ssg43
(dp95
g44
I1
ssg19
(dp96
g19
I0
ssg46
(dp97
S'pour.v.01'
p98
I2
ssg13
(dp99
g13
I0
ssg26
(dp100
g27
I1
ssg49
(dp101
S'liquid.n.01'
p102
I1
ssg48
(dp103
g48
I0
ssg34
(dp104
g35
I1
ssg16
(dp105
g17
I1
ssg20
(dp106
g21
I1
ssg21
(dp107
g21
I0
sssb.