ccopy_reg
_reconstructor
p0
(cutils.eval
ConfusionMatrix
p1
c__builtin__
object
p2
Ntp3
Rp4
(dp5
S'labels'
p6
(lp7
S'fill.v.01'
p8
aS'pitcher.n.02'
p9
aS'milk.n.01'
p10
aS'put.v.01'
p11
aS'put.v.02'
p12
aS'lodge.v.02'
p13
aS'stick.v.08'
p14
aS'pizza.n.01'
p15
aS'pan.n.01'
p16
aS'pan.n.03'
p17
aS'add.v.01'
p18
aS'lend.v.01'
p19
aS'butter.n.01'
p20
aS'sugar.n.01'
p21
aS'boodle.n.01'
p22
aS'serve.v.05'
p23
aS'serve.v.11'
p24
aS'cut.v.01'
p25
aS'edit.v.03'
p26
aS'piece.n.08'
p27
aS'slice.n.06'
p28
aS'saltcellar.n.01'
p29
aS'salt.n.02'
p30
aS'squash.n.02'
p31
aS'bottle.n.01'
p32
aS'fruit_juice.n.01'
p33
aS'wok.n.01'
p34
aS'rice.n.01'
p35
aS'mug.n.04'
p36
aS'walnut.n.01'
p37
aS'walnut.n.02'
p38
aS'get.v.01'
p39
aS'make.v.02'
p40
aS'pear.n.01'
p41
aS'pear.n.02'
p42
aS'blend.v.03'
p43
aS'mix.v.05'
p44
aS'bowl.n.01'
p45
aS'bowl.n.08'
p46
asS'instanceCount'
p47
I31
sS'matrix'
p48
(dp49
g13
(dp50
g14
I1
ssg40
(dp51
g40
I0
ssg23
(dp52
g24
I1
ssg14
(dp53
g14
I0
ssg46
(dp54
g46
I0
ssg18
(dp55
g19
I1
ssg10
(dp56
S'milk.n.01'
p57
I1
ssg16
(dp58
g17
I1
ssg17
(dp59
g17
I0
ssg25
(dp60
S'cut.v.01'
p61
I1
sg26
I1
ssg29
(dp62
S'saltcellar.n.01'
p63
I1
ssg32
(dp64
S'bottle.n.01'
p65
I1
ssg20
(dp66
S'butter.n.01'
p67
I1
ssg8
(dp68
S'fill.v.01'
p69
I5
ssg9
(dp70
S'pitcher.n.02'
p71
I1
ssg41
(dp72
g42
I1
ssg31
(dp73
S'squash.n.02'
p74
I1
ssg42
(dp75
g42
I0
ssg44
(dp76
g44
I0
ssg30
(dp77
S'salt.n.02'
p78
I1
ssg43
(dp79
g44
I1
ssg45
(dp80
g46
I1
ssg39
(dp81
g40
I1
ssg34
(dp82
S'wok.n.01'
p83
I1
ssg38
(dp84
g38
I0
ssg26
(dp85
g26
I0
ssg22
(dp86
g22
I0
ssg24
(dp87
g24
I0
ssg27
(dp88
g28
I1
ssg37
(dp89
g38
I1
ssg36
(dp90
S'mug.n.04'
p91
I1
ssg33
(dp92
S'fruit_juice.n.01'
p93
I1
ssg35
(dp94
S'rice.n.01'
p95
I1
ssg28
(dp96
g28
I0
ssg12
(dp97
g12
I0
ssg11
(dp98
g12
I1
ssg15
(dp99
S'pizza.n.01'
p100
I1
ssg19
(dp101
g19
I0
ssg21
(dp102
g22
I1
sssb.