ccopy_reg
_reconstructor
p0
(cutils.eval
ConfusionMatrix
p1
c__builtin__
object
p2
Ntp3
Rp4
(dp5
S'labels'
p6
(lp7
S'pour.v.01'
p8
aS'bread.n.01'
p9
aS'pan.n.01'
p10
aS'pan.n.03'
p11
aS'mix.n.03'
p12
aS'pot.n.01'
p13
aS'fill.v.01'
p14
aS'water.n.06'
p15
aS'add.v.01'
p16
aS'lend.v.01'
p17
aS'vanilla.n.02'
p18
aS'vanilla.n.03'
p19
aS'egg.n.02'
p20
aS'egg.n.01'
p21
aS'concoction.n.01'
p22
aS'blend.v.03'
p23
aS'mix.v.05'
p24
aS'butter.n.01'
p25
aS'dough.n.01'
p26
aS'boodle.n.01'
p27
aS'mix.v.04'
p28
aS'measuring_cup.n.01'
p29
aS'meal.n.03'
p30
aS'glass.n.02'
p31
aS'milk.n.01'
p32
aS'knife.n.01'
p33
aS'tongue.n.03'
p34
aS'banana.n.02'
p35
aS'slice.v.03'
p36
aS'rum.n.01'
p37
aS'shaker.n.03'
p38
aS'take.v.04'
p39
aS'bring.v.01'
p40
aS'decant.v.01'
p41
aS'piece.n.08'
p42
aS'slice.n.06'
p43
aS'pizza.n.01'
p44
asS'instanceCount'
p45
I36
sS'matrix'
p46
(dp47
g9
(dp48
S'bread.n.01'
p49
I1
ssg39
(dp50
g40
I1
ssg33
(dp51
g34
I1
ssg44
(dp52
S'pizza.n.01'
p53
I1
ssg16
(dp54
g17
I2
ssg32
(dp55
S'milk.n.01'
p56
I1
ssg10
(dp57
g11
I2
ssg11
(dp58
g11
I0
ssg35
(dp59
S'banana.n.02'
p60
I1
ssg20
(dp61
g21
I2
ssg21
(dp62
g21
I0
ssg13
(dp63
S'pot.n.01'
p64
I1
ssg14
(dp65
S'fill.v.01'
p66
I4
ssg19
(dp67
g19
I0
ssg18
(dp68
g19
I1
ssg28
(dp69
S'mix.v.05'
p70
I1
ssg24
(dp71
g24
I0
ssg22
(dp72
S'concoction.n.01'
p73
I1
ssg31
(dp74
S'glass.n.02'
p75
I1
ssg36
(dp76
S'slice.v.03'
p77
I2
ssg23
(dp78
g24
I1
ssg26
(dp79
g27
I1
ssg12
(dp80
S'mix.n.03'
p81
I1
ssg38
(dp82
S'shaker.n.03'
p83
I1
ssg27
(dp84
g27
I0
ssg40
(dp85
g40
I0
ssg29
(dp86
S'measuring_cup.n.01'
p87
I1
ssg42
(dp88
g43
I1
ssg37
(dp89
S'rum.n.01'
p90
I1
ssg43
(dp91
g43
I0
ssg15
(dp92
S'water.n.06'
p93
I2
ssg41
(dp94
S'pour.v.01'
p95
I1
ssg8
(dp96
S'pour.v.01'
p97
I1
ssg34
(dp98
g34
I0
ssg17
(dp99
g17
I0
ssg25
(dp100
S'butter.n.01'
p101
I1
ssg30
(dp102
S'meal.n.03'
p103
I1
sssb.