ccopy_reg
_reconstructor
p0
(cutils.eval
ConfusionMatrix
p1
c__builtin__
object
p2
Ntp3
Rp4
(dp5
S'labels'
p6
(lp7
S'fill.v.01'
p8
aS'pan.n.01'
p9
aS'pan.n.03'
p10
aS'water.n.06'
p11
aS'glass.n.02'
p12
aS'milk.n.01'
p13
aS'knife.n.01'
p14
aS'tongue.n.03'
p15
aS'banana.n.02'
p16
aS'slice.v.03'
p17
aS'rum.n.01'
p18
aS'shaker.n.03'
p19
aS'take.v.04'
p20
aS'bring.v.01'
p21
aS'decant.v.01'
p22
aS'pour.v.01'
p23
aS'piece.n.08'
p24
aS'slice.n.06'
p25
aS'pizza.n.01'
p26
aS'pitcher.n.02'
p27
aS'put.v.01'
p28
aS'put.v.02'
p29
aS'lodge.v.02'
p30
aS'stick.v.08'
p31
aS'add.v.01'
p32
aS'lend.v.01'
p33
aS'mixing_bowl.n.01'
p34
aS'butter.n.01'
p35
aS'sugar.n.01'
p36
aS'boodle.n.01'
p37
aS'serve.v.05'
p38
aS'serve.v.11'
p39
aS'cut.v.01'
p40
aS'edit.v.03'
p41
aS'saltcellar.n.01'
p42
aS'salt.n.02'
p43
asS'instanceCount'
p44
I33
sS'matrix'
p45
(dp46
g43
(dp47
S'salt.n.02'
p48
I1
ssg30
(dp49
g31
I1
ssg34
(dp50
S'mixing_bowl.n.01'
p51
I1
ssg29
(dp52
g29
I0
ssg31
(dp53
g31
I0
ssg38
(dp54
g39
I1
ssg20
(dp55
g21
I1
ssg32
(dp56
g33
I1
ssg13
(dp57
S'milk.n.01'
p58
I2
ssg9
(dp59
g10
I2
ssg10
(dp60
g10
I0
ssg40
(dp61
g41
I1
ssg42
(dp62
S'saltcellar.n.01'
p63
I1
ssg35
(dp64
S'butter.n.01'
p65
I1
ssg8
(dp66
S'fill.v.01'
p67
I4
ssg27
(dp68
S'pitcher.n.02'
p69
I1
ssg12
(dp70
S'glass.n.02'
p71
I1
ssg17
(dp72
S'slice.v.03'
p73
I2
ssg14
(dp74
g15
I1
ssg16
(dp75
S'banana.n.02'
p76
I1
ssg41
(dp77
g41
I0
ssg19
(dp78
S'shaker.n.03'
p79
I1
ssg18
(dp80
S'rum.n.01'
p81
I1
ssg39
(dp82
g39
I0
ssg21
(dp83
g21
I0
ssg24
(dp84
g25
I2
ssg37
(dp85
g37
I0
ssg25
(dp86
g25
I0
ssg11
(dp87
S'water.n.06'
p88
I1
ssg28
(dp89
g29
I1
ssg26
(dp90
S'pizza.n.01'
p91
I2
ssg23
(dp92
g23
I0
ssg15
(dp93
g15
I0
ssg33
(dp94
g33
I0
ssg22
(dp95
g23
I1
ssg36
(dp96
g37
I1
sssb.