ccopy_reg
_reconstructor
p0
(cutils.eval
ConfusionMatrix
p1
c__builtin__
object
p2
Ntp3
Rp4
(dp5
S'labels'
p6
(lp7
S'put.v.01'
p8
aS'put.v.02'
p9
aS'sauce.n.01'
p10
aS'jar.n.01'
p11
aS'fill.v.01'
p12
aS'blend.v.01'
p13
aS'bowl.n.01'
p14
aS'bowl.n.08'
p15
aS'thermos.n.01'
p16
aS'coffee.n.01'
p17
aS'teapot.n.01'
p18
aS'water.n.06'
p19
aS'cheese.n.01'
p20
aS'slice.v.03'
p21
aS'add.v.01'
p22
aS'lend.v.01'
p23
aS'cover.v.01'
p24
aS'cover.v.16'
p25
aS'rib.n.03'
p26
aS'rib.n.01'
p27
aS'tomato.n.01'
p28
aS'tomato.n.02'
p29
aS'piece.n.08'
p30
aS'slice.n.04'
p31
aS'onion.n.03'
p32
aS'onion.n.02'
p33
aS'mustard.n.02'
p34
aS'pepper.n.03'
p35
aS'salt.n.02'
p36
aS'salt.n.04'
p37
aS'egg.n.02'
p38
aS'egg.n.01'
p39
aS'chicken.n.01'
p40
aS'wimp.n.01'
p41
aS'corn.n.02'
p42
aS'corn.n.03'
p43
aS'chop.v.01'
p44
aS'chop.v.05'
p45
asS'instanceCount'
p46
I29
sS'matrix'
p47
(dp48
g20
(dp49
S'cheese.n.01'
p50
I1
ssg43
(dp51
g43
I0
ssg42
(dp52
g43
I1
ssg40
(dp53
g41
I1
ssg36
(dp54
g37
I1
ssg9
(dp55
g9
I0
ssg14
(dp56
g15
I1
ssg31
(dp57
g31
I0
ssg41
(dp58
g41
I0
ssg15
(dp59
g15
I0
ssg22
(dp60
g23
I2
ssg34
(dp61
S'mustard.n.02'
p62
I1
ssg29
(dp63
g29
I0
ssg28
(dp64
g29
I1
ssg12
(dp65
S'fill.v.01'
p66
I3
ssg45
(dp67
g45
I0
ssg24
(dp68
g25
I1
ssg10
(dp69
S'sauce.n.01'
p70
I1
ssg21
(dp71
S'slice.v.03'
p72
I1
ssg38
(dp73
g39
I1
ssg13
(dp74
S'blend.v.01'
p75
I1
ssg37
(dp76
g37
I0
ssg26
(dp77
g27
I1
ssg27
(dp78
g27
I0
ssg17
(dp79
S'coffee.n.01'
p80
I1
ssg35
(dp81
S'pepper.n.03'
p82
I1
ssg44
(dp83
g45
I1
ssg30
(dp84
g31
I1
ssg18
(dp85
S'teapot.n.01'
p86
I1
ssg16
(dp87
S'thermos.n.01'
p88
I1
ssg19
(dp89
S'water.n.06'
p90
I1
ssg8
(dp91
g9
I2
ssg25
(dp92
g25
I0
ssg23
(dp93
g23
I0
ssg11
(dp94
S'jar.n.01'
p95
I1
ssg39
(dp96
g39
I0
ssg32
(dp97
g33
I1
ssg33
(dp98
g33
I0
sssb.