ccopy_reg
_reconstructor
p0
(cutils.eval
ConfusionMatrix
p1
c__builtin__
object
p2
Ntp3
Rp4
(dp5
S'labels'
p6
(lp7
S'slice.v.03'
p8
aS'mushroom.n.05'
p9
aS'meat.n.01'
p10
aS'cleaver.n.01'
p11
aS'tomato.n.01'
p12
aS'piece.n.08'
p13
aS'onion.n.03'
p14
aS'onion.n.02'
p15
aS'mustard.n.02'
p16
aS'mustard.n.01'
p17
aS'egg.n.02'
p18
aS'slice.n.06'
p19
asS'instanceCount'
p20
I12
sS'matrix'
p21
(dp22
g9
(dp23
S'mushroom.n.05'
p24
I1
ssg8
(dp25
S'slice.v.03'
p26
I3
ssg16
(dp27
g17
I1
ssg17
(dp28
g17
I0
ssg18
(dp29
S'egg.n.02'
p30
I1
ssg12
(dp31
S'tomato.n.01'
p32
I1
ssg19
(dp33
g19
I0
ssg10
(dp34
S'meat.n.01'
p35
I1
ssg13
(dp36
S'piece.n.08'
p37
I1
sg19
I1
ssg15
(dp38
g15
I0
ssg14
(dp39
g15
I1
ssg11
(dp40
S'cleaver.n.01'
p41
I1
sssb.