ccopy_reg
_reconstructor
p0
(cutils.eval
ConfusionMatrix
p1
c__builtin__
object
p2
Ntp3
Rp4
(dp5
S'labels'
p6
(lp7
S'knife.n.01'
p8
aS'slice.v.03'
p9
aS'green_onion.n.01'
p10
aS'bread.n.01'
p11
aS'piece.n.08'
p12
aS'pizza.n.01'
p13
aS'zucchini.n.01'
p14
aS'zucchini.n.02'
p15
asS'instanceCount'
p16
I11
sS'matrix'
p17
(dp18
g9
(dp19
S'slice.v.03'
p20
I4
ssg8
(dp21
S'knife.n.01'
p22
I2
ssg13
(dp23
S'pizza.n.01'
p24
I1
ssg15
(dp25
g15
I0
ssg14
(dp26
g15
I1
ssg10
(dp27
S'green_onion.n.01'
p28
I1
ssg11
(dp29
S'bread.n.01'
p30
I1
ssg12
(dp31
S'piece.n.08'
p32
I1
sssb.