ccopy_reg
_reconstructor
p0
(cutils.eval
ConfusionMatrix
p1
c__builtin__
object
p2
Ntp3
Rp4
(dp5
S'labels'
p6
(lp7
S'tomato.n.01'
p8
aS'piece.n.08'
p9
aS'onion.n.03'
p10
aS'onion.n.02'
p11
aS'mustard.n.02'
p12
aS'mustard.n.01'
p13
aS'slice.v.03'
p14
aS'egg.n.02'
p15
aS'slice.n.06'
p16
aS'knife.n.01'
p17
aS'orange.n.01'
p18
asS'instanceCount'
p19
I13
sS'matrix'
p20
(dp21
g13
(dp22
g13
I0
ssg12
(dp23
g13
I1
ssg17
(dp24
S'knife.n.01'
p25
I1
ssg14
(dp26
S'slice.v.03'
p27
I3
ssg15
(dp28
S'egg.n.02'
p29
I1
ssg8
(dp30
S'tomato.n.01'
p31
I2
ssg16
(dp32
g16
I0
ssg18
(dp33
S'orange.n.01'
p34
I1
ssg9
(dp35
S'piece.n.08'
p36
I1
sg16
I2
ssg10
(dp37
g11
I1
ssg11
(dp38
g11
I0
sssb.