ccopy_reg
_reconstructor
p0
(cutils.eval
ConfusionMatrix
p1
c__builtin__
object
p2
Ntp3
Rp4
(dp5
S'labels'
p6
(lp7
S'piece.n.08'
p8
aS'pizza.n.01'
p9
aS'slice.v.03'
p10
aS'zucchini.n.01'
p11
aS'zucchini.n.02'
p12
aS'olive.n.01'
p13
aS'olive.n.04'
p14
aS'cabbage.n.01'
p15
asS'instanceCount'
p16
I9
sS'matrix'
p17
(dp18
g10
(dp19
S'slice.v.03'
p20
I4
ssg13
(dp21
g14
I1
ssg15
(dp22
S'cabbage.n.01'
p23
I1
ssg14
(dp24
g14
I0
ssg9
(dp25
S'pizza.n.01'
p26
I1
ssg12
(dp27
g12
I0
ssg11
(dp28
g12
I1
ssg8
(dp29
S'piece.n.08'
p30
I1
sssb.