ccopy_reg
_reconstructor
p0
(cutils.eval
ConfusionMatrix
p1
c__builtin__
object
p2
Ntp3
Rp4
(dp5
S'labels'
p6
(lp7
S'flesh.n.01'
p8
aS'slice.v.03'
p9
aS'slice.v.02'
p10
aS'piece.n.08'
p11
aS'slice.n.05'
p12
aS'pizza.n.01'
p13
aS'cheese.n.01'
p14
aS'tall_mallow.n.01'
p15
asS'instanceCount'
p16
I7
sS'matrix'
p17
(dp18
g10
(dp19
g10
I0
ssg9
(dp20
g10
I3
ssg15
(dp21
g15
I0
ssg8
(dp22
S'flesh.n.01'
p23
I1
ssg12
(dp24
g12
I0
ssg14
(dp25
g15
I1
ssg11
(dp26
g12
I1
ssg13
(dp27
S'pizza.n.01'
p28
I1
sssb.