ccopy_reg
_reconstructor
p0
(cutils.eval
ConfusionMatrix
p1
c__builtin__
object
p2
Ntp3
Rp4
(dp5
S'labels'
p6
(lp7
S'Liquid'
p8
aS'Amount'
p9
aS'ActionVerb'
p10
asS'instanceCount'
p11
I5
sS'matrix'
p12
(dp13
g9
(dp14
S'Amount'
p15
I1
ssg10
(dp16
S'ActionVerb'
p17
I2
ssg8
(dp18
S'Liquid'
p19
I2
sssb.