ccopy_reg
_reconstructor
p0
(cutils.eval
ConfusionMatrix
p1
c__builtin__
object
p2
Ntp3
Rp4
(dp5
S'labels'
p6
(lp7
S'add.v.01'
p8
aS'lend.v.01'
p9
aS'butter.n.01'
p10
aS'egg.n.02'
p11
aS'egg.n.01'
p12
aS'dough.n.01'
p13
aS'boodle.n.01'
p14
aS'mix.v.04'
p15
aS'mix.v.05'
p16
aS'opening.n.01'
p17
aS'opening.n.10'
p18
aS'fill.v.09'
p19
aS'fill.v.01'
p20
aS'curd.n.01'
p21
aS'teapot.n.01'
p22
aS'water.n.06'
p23
aS'gap.n.03'
p24
aS'batter.n.02'
p25
aS'chicken.n.01'
p26
aS'wimp.n.01'
p27
aS'corn.n.02'
p28
aS'corn.n.03'
p29
aS'chop.v.01'
p30
aS'chop.v.05'
p31
aS'knife.n.01'
p32
aS'tongue.n.03'
p33
aS'banana.n.02'
p34
aS'slice.v.03'
p35
aS'apple.n.01'
p36
aS'vanilla.n.02'
p37
aS'vanilla.n.03'
p38
aS'concoction.n.01'
p39
aS'blend.v.03'
p40
aS'fork.n.01'
p41
aS'branching.n.01'
p42
aS'bowl.n.01'
p43
aS'bowl.n.08'
p44
aS'water_system.n.02'
p45
aS'rice.n.01'
p46
aS'pour.v.01'
p47
aS'mix.n.03'
p48
aS'put.v.01'
p49
aS'put.v.02'
p50
aS'onion.n.01'
p51
aS'onion.n.03'
p52
aS'beef.n.02'
p53
aS'gripe.n.01'
p54
aS'plate.n.04'
p55
aS'plate.n.13'
p56
aS'piece.n.08'
p57
aS'slice.n.06'
p58
aS'pizza.n.01'
p59
aS'liquid.n.01'
p60
aS'sink.n.01'
p61
aS'cesspool.n.01'
p62
aS'bottle.n.01'
p63
aS'fruit_juice.n.01'
p64
aS'lodge.v.02'
p65
aS'stick.v.08'
p66
aS'pan.n.01'
p67
aS'pan.n.03'
p68
aS'jar.n.01'
p69
aS'sauce.n.01'
p70
aS'mug.n.04'
p71
aS'strawberry.n.01'
p72
aS'cut.v.01'
p73
aS'edit.v.03'
p74
aS'saltcellar.n.01'
p75
aS'salt.n.02'
p76
aS'ice.n.01'
p77
aS'ice.n.05'
p78
aS'tomato.n.01'
p79
aS'tomato.n.02'
p80
aS'slice.n.04'
p81
aS'onion.n.02'
p82
aS'mustard.n.02'
p83
aS'cut.n.16'
p84
aS'bag.n.01'
p85
aS'bag.n.04'
p86
aS'serve.v.05'
p87
aS'serve.v.11'
p88
aS'kettle.n.01'
p89
aS'gravy.n.01'
p90
aS'gravy.n.02'
p91
aS'thermos.n.01'
p92
aS'coffee.n.01'
p93
aS'pot.n.01'
p94
aS'mixing_bowl.n.01'
p95
aS'sugar.n.01'
p96
aS'rum.n.01'
p97
aS'shaker.n.03'
p98
aS'take.v.04'
p99
aS'bring.v.01'
p100
aS'decant.v.01'
p101
aS'measuring_cup.n.01'
p102
aS'meal.n.03'
p103
aS'flesh.n.01'
p104
aS'human_body.n.01'
p105
aS'burner.n.02'
p106
aS'burner.n.01'
p107
aS'pan.n.02'
p108
aS'pepper.n.03'
p109
aS'salt.n.04'
p110
aS'cheese.n.01'
p111
aS'blender.n.01'
p112
aS'slice.v.02'
p113
aS'pitcher.n.02'
p114
aS'milk.n.01'
p115
aS'glass.n.02'
p116
aS'whiskey.n.01'
p117
aS'carafe.n.01'
p118
aS'cover.v.01'
p119
aS'cover.v.23'
p120
aS'rib.n.03'
p121
aS'rib.n.01'
p122
aS'cup.n.01'
p123
aS'cola.n.02'
p124
aS'bread.n.01'
p125
aS'avocado.n.01'
p126
aS'wok.n.01'
p127
aS'carve.v.03'
p128
aS'hack.v.07'
p129
aS'pepper.n.04'
p130
aS'blend.v.01'
p131
aS'cut.v.32'
p132
aS'squash.n.02'
p133
aS'squash.n.01'
p134
aS'walnut.n.01'
p135
aS'walnut.n.02'
p136
aS'get.v.01'
p137
aS'make.v.02'
p138
aS'pear.n.01'
p139
aS'pear.n.02'
p140
aS'cover.v.16'
p141
aS'bowl.n.03'
p142
asS'instanceCount'
p143
I465
sS'matrix'
p144
(dp145
g142
(dp146
S'carve.v.03'
p147
I0
sS'make.v.02'
p148
I0
sS'mixing_bowl.n.01'
p149
I0
sS'put.v.02'
p150
I0
sg142
I0
sS'serve.v.05'
p151
I0
sS'put.v.01'
p152
I0
sS'take.v.04'
p153
I0
sS'blend.v.03'
p154
I0
sS'bowl.n.08'
p155
I0
sS'add.v.01'
p156
I0
sS'pan.n.01'
p157
I0
sS'mustard.n.02'
p158
I0
sS'cut.v.01'
p159
I0
sS'pepper.n.03'
p160
I0
sS'bowl.n.01'
p161
I0
sS'tomato.n.02'
p162
I0
sS'tomato.n.01'
p163
I0
sS'pot.n.01'
p164
I0
sS'pear.n.01'
p165
I0
sS'fill.v.01'
p166
I0
sS'bag.n.04'
p167
I0
sS'walnut.n.01'
p168
I0
sS'sugar.n.01'
p169
I0
sS'bag.n.01'
p170
I0
sS'squash.n.02'
p171
I0
sS'pepper.n.04'
p172
I0
sS'pour.v.01'
p173
I0
sS'cut.v.32'
p174
I0
sS'squash.n.01'
p175
I0
sS'gravy.n.01'
p176
I0
sS'hack.v.07'
p177
I0
sS'gravy.n.02'
p178
I0
sS'bread.n.01'
p179
I0
sS'blend.v.01'
p180
I0
sS'get.v.01'
p181
I0
sS'coffee.n.01'
p182
I0
sS'mix.n.03'
p183
I0
sS'edit.v.03'
p184
I0
sS'pan.n.03'
p185
I0
sS'shaker.n.03'
p186
I0
sS'boodle.n.01'
p187
I0
sS'walnut.n.02'
p188
I0
sS'serve.v.11'
p189
I0
sS'bring.v.01'
p190
I0
sS'mix.v.05'
p191
I0
sS'piece.n.08'
p192
I0
sS'rum.n.01'
p193
I0
sS'thermos.n.01'
p194
I0
sS'slice.n.06'
p195
I0
sS'water.n.06'
p196
I0
sS'slice.n.04'
p197
I0
sS'decant.v.01'
p198
I0
sS'ice.n.01'
p199
I0
sS'kettle.n.01'
p200
I0
sS'ice.n.05'
p201
I0
sS'lend.v.01'
p202
I0
sS'jar.n.01'
p203
I0
sS'cut.n.16'
p204
I0
sS'onion.n.01'
p205
I0
sS'butter.n.01'
p206
I0
sS'onion.n.03'
p207
I0
sS'onion.n.02'
p208
I0
ssg43
(dp209
g142
I1
sg43
I3
sg44
I8
sg73
I0
sS'cover.v.01'
p210
I0
sS'measuring_cup.n.01'
p211
I0
sg90
I0
sg91
I0
sS'rib.n.03'
p212
I0
sS'rib.n.01'
p213
I0
sg136
I0
sg41
I0
sg135
I0
sg88
I0
sS'human_body.n.01'
p214
I0
sg100
I0
sS'whiskey.n.01'
p215
I0
sg17
I0
sS'flesh.n.01'
p216
I0
sg112
I0
sg50
I0
sg49
I0
sg47
I0
sS'glass.n.02'
p217
I0
sg33
I0
sg69
I0
sS'carafe.n.01'
p218
I0
sg101
I0
sg13
I0
sg26
I0
sg61
I0
sg45
I0
sg23
I0
sg99
I0
sg87
I0
sg18
I0
sg8
I0
sS'pitcher.n.02'
p219
I0
sg67
I0
sg68
I0
sS'pan.n.02'
p220
I0
sg24
I0
sS'cup.n.01'
p221
I0
sS'pepper.n.03'
p222
I0
sg38
I0
sg37
I0
sg113
I0
sg35
I0
sg34
I0
sg137
I0
sS'wok.n.01'
p223
I0
sg130
I0
sg54
I0
sg97
I0
sg98
I0
sg64
I0
sg22
I0
sg77
I0
sg89
I0
sg78
I0
sg48
I0
sg21
I0
sg51
I0
sg52
I0
sg82
I0
sg72
I0
sg29
I0
sg28
I0
sg53
I0
sg128
I0
sg65
I0
sg138
I0
sg95
I0
sg66
I0
sg83
I0
sg19
I0
sg63
I0
sg94
I0
sg20
I0
sg140
I0
sg139
I0
sg134
I0
sg133
I0
sg39
I0
sg76
I0
sg32
I0
sS'salt.n.04'
p224
I0
sg55
I0
sg93
I0
sg42
I0
sg36
I0
sS'bread.n.01'
p225
I0
sg71
I0
sg58
I0
sS'avocado.n.01'
p226
I0
sg81
I0
sg59
I0
sg84
I0
sS'burner.n.02'
p227
I0
sS'burner.n.01'
p228
I0
sg56
I0
sS'cheese.n.01'
p229
I0
sg46
I0
sg129
I0
sg10
I0
sg25
I0
sg27
I0
sS'milk.n.01'
p230
I0
sS'cola.n.02'
p231
I0
sg75
I0
sg11
I0
sg12
I0
sg86
I0
sg31
I0
sg85
I0
sg30
I0
sg15
I0
sg16
I0
sg70
I0
sg40
I0
sg131
I0
sg9
I0
sg74
I0
sg14
I0
sg57
I0
sg62
I0
sg92
I0
sg132
I0
sg141
I0
sg80
I0
sg60
I0
sS'meal.n.03'
p232
I0
sg79
I0
sg96
I0
ssg44
(dp233
g142
I0
sg43
I0
sg44
I0
sS'cut.v.01'
p234
I0
sg210
I0
sS'measuring_cup.n.01'
p235
I0
sS'gravy.n.01'
p236
I0
sS'gravy.n.02'
p237
I0
sg212
I0
sg213
I0
sg136
I0
sg41
I0
sg135
I0
sg189
I0
sS'human_body.n.01'
p238
I0
sS'bring.v.01'
p239
I0
sg215
I0
sg17
I0
sS'flesh.n.01'
p240
I0
sg112
I0
sg50
I0
sg49
I0
sS'shaker.n.03'
p241
I0
sg47
I0
sg33
I0
sS'jar.n.01'
p242
I0
sg218
I0
sS'decant.v.01'
p243
I0
sg13
I0
sg26
I0
sg61
I0
sg45
I0
sg23
I0
sS'take.v.04'
p244
I0
sg226
I0
sg18
I0
sg8
I0
sg67
I0
sg68
I0
sS'pan.n.02'
p245
I0
sg24
I0
sg221
I0
sg38
I0
sg37
I0
sg113
I0
sg35
I0
sg34
I0
sg137
I0
sg223
I0
sg130
I0
sS'pepper.n.03'
p246
I0
sS'rum.n.01'
p247
I0
sg54
I0
sg64
I0
sg22
I0
sg199
I0
sg200
I0
sg201
I0
sg48
I0
sg21
I0
sg51
I0
sg52
I0
sS'meal.n.03'
p248
I0
sg29
I0
sg28
I0
sg53
I0
sg128
I0
sg65
I0
sg138
I0
sg149
I0
sg66
I0
sg158
I0
sg19
I0
sg63
I0
sS'pot.n.01'
p249
I0
sg20
I0
sg140
I0
sg139
I0
sg134
I0
sg133
I0
sg39
I0
sS'salt.n.02'
p250
I0
sg32
I0
sS'salt.n.04'
p251
I0
sg55
I0
sS'coffee.n.01'
p252
I0
sg42
I0
sg36
I0
sg58
I0
sg151
I0
sg197
I0
sg59
I0
sg204
I0
sS'burner.n.02'
p253
I0
sS'burner.n.01'
p254
I0
sg56
I0
sS'cheese.n.01'
p255
I0
sS'thermos.n.01'
p256
I0
sg129
I0
sg225
I0
sg25
I0
sg27
I0
sg230
I0
sg231
I0
sg219
I0
sg11
I0
sg10
I0
sg167
I0
sg31
I0
sg170
I0
sg30
I0
sg15
I0
sg16
I0
sg217
I0
sg40
I0
sg131
I0
sg9
I0
sg184
I0
sg163
I0
sg14
I0
sg57
I0
sg62
I0
sg46
I0
sg132
I0
sg141
I0
sg162
I0
sg60
I0
sg208
I0
sg12
I0
sS'sugar.n.01'
p257
I0
ssg73
(dp258
g142
I0
sS'bowl.n.01'
p259
I0
sS'bowl.n.08'
p260
I0
sg73
I1
sg210
I0
sg102
I0
sg90
I0
sg91
I0
sg212
I0
sg213
I0
sg136
I0
sg135
I0
sg88
I0
sg105
I0
sg100
I0
sg215
I0
sg104
I0
sS'water.n.06'
p261
I0
sS'put.v.01'
p262
I0
sS'pour.v.01'
p263
I0
sg217
I0
sg69
I0
sg218
I0
sg101
I0
sS'sink.n.01'
p264
I0
sS'put.v.02'
p265
I0
sg99
I0
sg87
I0
sS'add.v.01'
p266
I0
sS'pan.n.01'
p267
I0
sS'pan.n.03'
p268
I0
sg108
I0
sS'cup.n.01'
p269
I0
sS'vanilla.n.03'
p270
I0
sS'vanilla.n.02'
p271
I0
sS'slice.v.03'
p272
I0
sg137
I0
sS'wok.n.01'
p273
I0
sg130
I0
sg109
I0
sg97
I0
sg98
I0
sS'fruit_juice.n.01'
p274
I0
sg77
I0
sg89
I0
sg78
I0
sS'mix.n.03'
p275
I0
sS'onion.n.01'
p276
I0
sS'onion.n.03'
p277
I0
sg103
I0
sg72
I0
sS'beef.n.02'
p278
I0
sg128
I0
sS'lodge.v.02'
p279
I0
sg138
I0
sg95
I0
sS'stick.v.08'
p280
I0
sg83
I0
sg219
I0
sS'bottle.n.01'
p281
I0
sg94
I0
sS'fill.v.01'
p282
I0
sS'gripe.n.01'
p283
I0
sg140
I0
sg139
I0
sg134
I0
sg133
I0
sg129
I0
sg110
I0
sS'plate.n.04'
p284
I0
sg93
I0
sg71
I0
sS'slice.n.06'
p285
I0
sS'avocado.n.01'
p286
I0
sg81
I0
sS'pizza.n.01'
p287
I0
sg84
I0
sg106
I0
sg107
I0
sS'plate.n.13'
p288
I0
sg111
I0
sS'rice.n.01'
p289
I0
sg76
I0
sS'bread.n.01'
p290
I0
sg230
I0
sS'cola.n.02'
p291
I0
sg75
I0
sg80
I0
sg79
I0
sg86
I0
sg85
I0
sS'butter.n.01'
p292
I0
sS'mix.v.05'
p293
I0
sg70
I0
sS'blend.v.03'
p294
I0
sg131
I0
sS'lend.v.01'
p295
I0
sg74
I6
sS'boodle.n.01'
p296
I0
sS'piece.n.08'
p297
I0
sS'cesspool.n.01'
p298
I0
sg92
I0
sg132
I2
sg141
I0
sS'egg.n.02'
p299
I0
sS'liquid.n.01'
p300
I0
sg82
I0
sS'egg.n.01'
p301
I0
sg96
I0
ssg119
(dp302
S'corn.n.03'
p303
I0
sS'corn.n.02'
p304
I0
sS'chicken.n.01'
p305
I0
sg128
I0
sg138
I0
sg125
I0
sg126
I0
sS'batter.n.02'
p306
I0
sg140
I0
sS'wimp.n.01'
p307
I0
sg244
I0
sS'opening.n.10'
p308
I0
sg123
I0
sS'add.v.01'
p309
I0
sg115
I0
sS'pan.n.01'
p310
I0
sS'pan.n.03'
p311
I0
sg260
I0
sg124
I0
sS'gap.n.03'
p312
I0
sS'fill.v.09'
p313
I0
sS'bowl.n.01'
p314
I0
sS'egg.n.02'
p315
I0
sS'butter.n.01'
p316
I0
sg249
I0
sS'chop.v.05'
p317
I0
sS'fill.v.01'
p318
I0
sS'pepper.n.03'
p319
I0
sg114
I0
sg127
I0
sg134
I0
sg119
I0
sS'mix.v.04'
p320
I0
sS'mix.v.05'
p321
I0
sS'put.v.02'
p322
I0
sg120
I1
sg132
I0
sg236
I0
sg129
I0
sg237
I0
sS'blend.v.03'
p323
I0
sS'chop.v.01'
p324
I0
sS'dough.n.01'
p325
I0
sg137
I0
sg121
I0
sg130
I0
sg122
I0
sg131
I0
sg252
I0
sg241
I0
sS'boodle.n.01'
p326
I0
sg136
I0
sg234
I0
sg239
I0
sg275
I0
sS'piece.n.08'
p327
I0
sg247
I0
sg117
I0
sg139
I0
sS'opening.n.01'
p328
I0
sg135
I0
sg133
I0
sS'teapot.n.01'
p329
I0
sS'onion.n.01'
p330
I0
sS'rice.n.01'
p331
I0
sS'slice.n.06'
p332
I0
sS'water.n.06'
p333
I0
sS'put.v.01'
p334
I0
sg243
I0
sg256
I0
sS'pour.v.01'
p335
I0
sg116
I0
sg141
I2
sS'lend.v.01'
p336
I0
sS'curd.n.01'
p337
I0
sg242
I0
sg118
I0
sS'egg.n.01'
p338
I0
sg257
I0
ssg102
(dp339
g288
I0
sg111
I0
sS'rice.n.01'
p340
I0
sg264
I0
sS'branching.n.01'
p341
I0
sg278
I0
sg279
I0
sS'strawberry.n.01'
p342
I0
sg113
I0
sS'water.n.06'
p343
I0
sS'ice.n.05'
p344
I0
sS'bowl.n.01'
p345
I0
sS'slice.n.04'
p346
I0
sg280
I0
sS'apple.n.01'
p347
I0
sS'mustard.n.02'
p348
I0
sS'add.v.01'
p349
I0
sg267
I0
sg268
I0
sg108
I0
sS'saltcellar.n.01'
p350
I0
sg281
I0
sg299
I0
sS'butter.n.01'
p351
I0
sS'fill.v.01'
p352
I0
sS'bag.n.04'
p353
I0
sS'mix.v.05'
p354
I0
sS'bag.n.01'
p355
I0
sg270
I0
sg271
I0
sg102
I3
sS'fork.n.01'
p356
I0
sS'salt.n.02'
p357
I0
sS'sauce.n.01'
p358
I0
sg272
I0
sS'knife.n.01'
p359
I0
sS'banana.n.02'
p360
I0
sg110
I0
sg284
I0
sS'mix.n.03'
p361
I0
sS'edit.v.03'
p362
I0
sS'tomato.n.01'
p363
I0
sg283
I0
sS'tomato.n.02'
p364
I0
sg105
I0
sS'cut.v.01'
p365
I0
sg109
I0
sS'concoction.n.01'
p366
I0
sS'serve.v.11'
p367
I0
sS'piece.n.08'
p368
I0
sS'blend.v.03'
p369
I0
sS'bowl.n.08'
p370
I0
sg298
I0
sg301
I0
sS'mug.n.04'
p371
I0
sg274
I0
sS'cut.n.16'
p372
I0
sS'serve.v.05'
p373
I0
sg104
I0
sS'water_system.n.02'
p374
I0
sg112
I0
sS'slice.n.06'
p375
I0
sg265
I0
sS'put.v.01'
p376
I0
sg287
I0
sS'ice.n.01'
p377
I0
sS'kettle.n.01'
p378
I0
sS'pour.v.01'
p379
I0
sg107
I0
sS'tongue.n.03'
p380
I0
sS'lend.v.01'
p381
I0
sg300
I0
sS'jar.n.01'
p382
I0
sS'onion.n.02'
p383
I0
sg276
I0
sg106
I0
sS'onion.n.03'
p384
I0
sg103
I0
ssg90
(dp385
g72
I0
sg129
I0
sg128
I0
sg138
I0
sg95
I0
sg261
I0
sg142
I0
sg259
I0
sg81
I0
sg99
I0
sg294
I0
sg260
I0
sg266
I0
sg219
I0
sS'pan.n.01'
p386
I0
sg83
I0
sg73
I0
sg319
I0
sg75
I0
sg80
I0
sg79
I0
sg94
I0
sg139
I0
sg282
I0
sg86
I0
sg140
I0
sg135
I0
sg96
I0
sg85
I0
sg133
I0
sg130
I0
sg263
I0
sg132
I0
sg70
I0
sg134
I0
sg90
I0
sg76
I0
sg91
I3
sg290
I0
sg210
I0
sg131
I0
sg137
I0
sg212
I0
sg93
I0
sg213
I0
sg275
I0
sg74
I0
sS'pan.n.03'
p387
I0
sg98
I0
sg296
I0
sg136
I0
sg88
I0
sg100
I0
sg293
I0
sg297
I0
sg97
I0
sg215
I0
sg71
I0
sg322
I0
sg230
I0
sg218
I0
sg92
I0
sg285
I0
sg87
I0
sg262
I0
sg101
I0
sg77
I0
sg89
I0
sg78
I0
sg217
I0
sg141
I0
sg295
I0
sg69
I0
sg84
I0
sg330
I0
sg292
I0
sg277
I0
sg82
I0
ssg91
(dp388
g72
I0
sg129
I0
sg128
I0
sg138
I0
sg95
I0
sg261
I0
sg142
I0
sg259
I0
sg81
I0
sg99
I0
sg294
I0
sg260
I0
sg266
I0
sg219
I0
sg386
I0
sg83
I0
sg73
I0
sg319
I0
sg75
I0
sg80
I0
sg79
I0
sg94
I0
sg139
I0
sg282
I0
sg86
I0
sg140
I0
sg135
I0
sg96
I0
sg85
I0
sg133
I0
sg130
I0
sg263
I0
sg132
I0
sg70
I0
sg134
I0
sg90
I0
sg76
I0
sg91
I0
sg290
I0
sg210
I0
sg131
I0
sg137
I0
sg212
I0
sg93
I0
sg213
I0
sg275
I0
sg74
I0
sg387
I0
sg98
I0
sg296
I0
sg136
I0
sg88
I0
sg100
I0
sg293
I0
sg297
I0
sg97
I0
sg215
I0
sg71
I0
sg322
I0
sg230
I0
sg218
I0
sg92
I0
sg285
I0
sg87
I0
sg262
I0
sg101
I0
sg77
I0
sg89
I0
sg78
I0
sg217
I0
sg141
I0
sg295
I0
sg69
I0
sg84
I0
sg330
I0
sg292
I0
sg277
I0
sg82
I0
ssg121
(dp389
g303
I0
sg304
I0
sg305
I0
sg128
I0
sg138
I0
sg125
I0
sg126
I0
sg306
I0
sg140
I0
sg307
I0
sg244
I0
sg308
I0
sg123
I0
sg309
I0
sg115
I0
sg310
I0
sg311
I0
sg260
I0
sg124
I0
sg312
I0
sg313
I0
sg314
I0
sg315
I0
sg316
I0
sg249
I0
sg317
I0
sg318
I0
sg319
I0
sg114
I0
sg127
I0
sg134
I0
sg119
I0
sg320
I0
sg321
I0
sg322
I0
sg120
I0
sg132
I0
sg236
I0
sg129
I0
sg237
I0
sg323
I0
sg324
I0
sg325
I0
sg137
I0
sg121
I0
sg130
I0
sg122
I3
sg131
I0
sg252
I0
sg241
I0
sg326
I0
sg136
I0
sg234
I0
sg239
I0
sg275
I0
sg327
I0
sg247
I0
sg117
I0
sg139
I0
sg328
I0
sg135
I0
sg133
I0
sg329
I0
sg330
I0
sg331
I0
sg332
I0
sg333
I0
sg334
I0
sg243
I0
sg256
I0
sg335
I0
sg116
I0
sg141
I0
sg336
I0
sg337
I0
sg242
I0
sg118
I0
sg338
I0
sg257
I0
ssg122
(dp390
g303
I0
sg304
I0
sg305
I0
sg128
I0
sg138
I0
sg125
I0
sg126
I0
sg306
I0
sg140
I0
sg307
I0
sg244
I0
sg308
I0
sg123
I0
sg309
I0
sg115
I0
sg310
I0
sg311
I0
sg260
I0
sg124
I0
sg312
I0
sg313
I0
sg314
I0
sg315
I0
sg316
I0
sg249
I0
sg317
I0
sg318
I0
sg319
I0
sg114
I0
sg127
I0
sg134
I0
sg119
I0
sg320
I0
sg321
I0
sg322
I0
sg120
I0
sg132
I0
sg236
I0
sg129
I0
sg237
I0
sg323
I0
sg324
I0
sg325
I0
sg137
I0
sg121
I0
sg130
I0
sg122
I0
sg131
I0
sg252
I0
sg241
I0
sg326
I0
sg136
I0
sg234
I0
sg239
I0
sg275
I0
sg327
I0
sg247
I0
sg117
I0
sg139
I0
sg328
I0
sg135
I0
sg133
I0
sg329
I0
sg330
I0
sg331
I0
sg332
I0
sg333
I0
sg334
I0
sg243
I0
sg256
I0
sg335
I0
sg116
I0
sg141
I0
sg336
I0
sg337
I0
sg242
I0
sg118
I0
sg338
I0
sg257
I0
ssg136
(dp391
g289
I0
sg149
I0
sg128
I0
sg138
I0
sg184
I0
sg322
I0
sg142
I0
sg314
I0
sg197
I0
sg244
I0
sg294
I0
sg260
I0
sS'add.v.01'
p392
I0
sg230
I0
sg386
I0
sg167
I0
sg387
I0
sg234
I0
sg291
I0
sg286
I0
sg219
I0
sg273
I0
sg162
I0
sS'butter.n.01'
p393
I0
sg249
I0
sg139
I0
sS'fill.v.01'
p394
I0
sg319
I0
sg140
I0
sg135
I0
sg134
I0
sg133
I0
sg130
I0
sg293
I0
sg132
I0
sg217
I0
sg170
I0
sg236
I0
sg129
I0
sg237
I0
sg290
I0
sg210
I0
sg131
I0
sg137
I0
sg212
I0
sg136
I0
sg213
I0
sg275
I0
sg252
I0
sg158
I0
sg241
I0
sS'boodle.n.01'
p395
I0
sg189
I0
sg239
I0
sg192
I0
sg247
I0
sg215
I0
sg204
I0
sg151
I0
sg218
I0
sg256
I0
sg195
I0
sS'water.n.06'
p396
I0
sg334
I0
sg163
I0
sg199
I0
sg269
I0
sg200
I0
sg335
I0
sg201
I0
sg141
I0
sS'lend.v.01'
p397
I0
sg242
I0
sg208
I0
sg330
I0
sg243
I0
sg207
I0
sg257
I0
ssg41
(dp398
g56
I0
sg255
I0
sg29
I0
sg28
I0
sg26
I0
sg61
I0
sg53
I0
sg58
I0
sg246
I0
sg50
I0
sg43
I0
sg25
I0
sg27
I0
sg66
I0
sg18
I0
sg44
I0
sg8
I0
sg67
I0
sg68
I0
sg245
I0
sg231
I0
sg24
I0
sg226
I0
sg19
I0
sg63
I0
sg11
I0
sg10
I0
sg20
I0
sg34
I0
sg223
I0
sg31
I0
sg30
I0
sg37
I0
sg15
I0
sg16
I0
sg240
I0
sg250
I0
sg113
I0
sg35
I0
sg32
I0
sg38
I0
sg13
I0
sg251
I0
sg55
I0
sg48
I0
sg65
I0
sg41
I0
sg14
I0
sg60
I0
sg238
I0
sg42
I3
sg253
I0
sg39
I0
sg36
I0
sg54
I0
sg57
I0
sg225
I0
sg40
I0
sg62
I0
sg17
I0
sg64
I0
sg254
I0
sg22
I0
sg112
I0
sg46
I0
sg45
I0
sg23
I0
sg49
I0
sg59
I0
sg221
I0
sg47
I0
sg235
I0
sg33
I0
sg9
I0
sg21
I0
sg51
I0
sg12
I0
sg52
I0
sg248
I0
ssg135
(dp399
g289
I0
sg149
I0
sg128
I0
sg138
I0
sg184
I0
sg322
I0
sg142
I0
sg314
I0
sg197
I0
sg244
I0
sg294
I0
sg260
I0
sg392
I0
sg230
I0
sg386
I0
sg167
I0
sg387
I0
sg234
I0
sg291
I0
sg286
I0
sg219
I0
sg273
I0
sg162
I0
sg393
I0
sg249
I0
sg139
I0
sg394
I0
sg319
I0
sg140
I0
sg135
I0
sg134
I0
sg133
I0
sg293
I0
sg132
I0
sg217
I0
sg170
I0
sg236
I0
sg129
I0
sg237
I0
sg290
I0
sg210
I0
sg131
I0
sg137
I0
sg212
I0
sg130
I0
sg213
I0
sg275
I0
sg252
I0
sg158
I0
sg241
I0
sg395
I0
sg136
I3
sg189
I0
sg239
I0
sg192
I0
sg247
I0
sg215
I0
sg204
I0
sg151
I0
sg218
I0
sg256
I0
sg195
I0
sg396
I0
sg334
I0
sg163
I0
sg199
I0
sg269
I0
sg200
I0
sg335
I0
sg201
I0
sg141
I0
sg397
I0
sg242
I0
sg208
I0
sg330
I0
sg243
I0
sg207
I0
sg257
I0
ssg88
(dp400
g232
I0
sg72
I0
sS'slice.v.03'
p401
I0
sg147
I0
sg148
I0
sg95
I0
sg261
I0
sg229
I0
sg259
I0
sg81
I0
sg99
I0
sg154
I0
sg172
I0
sg155
I0
sg266
I0
sS'pan.n.01'
p402
I0
sg83
I0
sg73
I0
sg222
I0
sg75
I0
sg80
I0
sg79
I0
sg181
I0
sg94
I0
sg165
I0
sg177
I0
sg282
I0
sg86
I0
sg191
I0
sg168
I0
sg96
I0
sg85
I0
sS'vanilla.n.03'
p403
I0
sS'vanilla.n.02'
p404
I0
sg263
I0
sg174
I0
sg70
I0
sg175
I0
sg90
I0
sg76
I0
sg91
I0
sg179
I0
sS'egg.n.02'
p405
I0
sg180
I0
sg224
I0
sg93
I0
sg183
I0
sg74
I0
sg185
I0
sg98
I0
sg296
I0
sg188
I0
sg88
I0
sg214
I0
sg220
I0
sg100
I0
sg227
I0
sg211
I0
sg297
I0
sg97
I0
sS'egg.n.01'
p406
I0
sg71
I0
sg171
I0
sS'put.v.02'
p407
I0
sg142
I0
sg216
I0
sg92
I0
sg285
I0
sg87
I0
sg262
I0
sg101
I0
sg77
I0
sg89
I0
sg78
I0
sg228
I0
sg295
I0
sg69
I0
sg84
I0
sg205
I0
sg292
I0
sg277
I0
sg82
I0
ssg105
(dp408
g288
I0
sg111
I0
sg340
I0
sg264
I0
sg341
I0
sg278
I0
sg279
I0
sg342
I0
sg113
I0
sg343
I0
sg344
I0
sg345
I0
sg346
I0
sg280
I0
sg347
I0
sg348
I0
sg349
I0
sg267
I0
sg268
I0
sg108
I0
sg350
I0
sg281
I0
sg299
I0
sg351
I0
sg352
I0
sg353
I0
sg354
I0
sg355
I0
sg270
I0
sg271
I0
sg102
I0
sg356
I0
sg357
I0
sg358
I0
sg272
I0
sg359
I0
sg360
I0
sg110
I0
sg284
I0
sg361
I0
sg362
I0
sg363
I0
sg283
I0
sg364
I0
sg105
I0
sg365
I0
sg109
I0
sg366
I0
sg367
I0
sg368
I0
sg369
I0
sg370
I0
sg298
I0
sg301
I0
sg371
I0
sg274
I0
sg372
I0
sg373
I0
sg104
I0
sg374
I0
sg112
I0
sg375
I0
sg265
I0
sg376
I0
sg287
I0
sg377
I0
sg378
I0
sg379
I0
sg107
I0
sg380
I0
sg381
I0
sg300
I0
sg382
I0
sg383
I0
sg276
I0
sg106
I0
sg384
I0
sg103
I0
ssg100
(dp409
g72
I0
sg129
I0
sg128
I0
sg138
I0
sg95
I0
sg261
I0
sg142
I0
sg259
I0
sg262
I0
sg99
I0
sg294
I0
sg260
I0
sg266
I0
sg219
I0
sg386
I0
sg83
I0
sg73
I0
sg319
I0
sg75
I0
sg80
I0
sg79
I0
sg94
I0
sg139
I0
sg282
I0
sg86
I0
sg140
I0
sg135
I0
sg96
I0
sg85
I0
sg133
I0
sg130
I0
sg263
I0
sg132
I0
sg70
I0
sg134
I0
sg90
I0
sg76
I0
sg91
I0
sg290
I0
sg210
I0
sg131
I0
sg137
I0
sg212
I0
sg93
I0
sg213
I0
sg275
I0
sg74
I0
sg387
I0
sg98
I0
sg296
I0
sg136
I0
sg88
I0
sg100
I0
sg293
I0
sg297
I0
sg97
I0
sg215
I0
sg71
I0
sg322
I0
sg230
I0
sg218
I0
sg92
I0
sg285
I0
sg87
I0
sg81
I0
sg101
I0
sg77
I0
sg89
I0
sg78
I0
sg217
I0
sg141
I0
sg295
I0
sg69
I0
sg84
I0
sg330
I0
sg292
I0
sg277
I0
sg82
I0
ssg117
(dp410
g303
I0
sg304
I0
sg305
I0
sg128
I0
sg138
I0
sg125
I0
sg126
I0
sg306
I0
sg140
I0
sg307
I0
sg244
I0
sg308
I0
sg318
I0
sg309
I0
sg115
I0
sg310
I0
sg311
I0
sg260
I0
sg124
I0
sg312
I0
sg313
I0
sg314
I0
sg315
I0
sg316
I0
sg249
I0
sg317
I0
sg123
I0
sg319
I0
sg114
I0
sg127
I0
sg134
I0
sg119
I0
sg320
I0
sg321
I0
sg322
I0
sg120
I0
sg132
I0
sg236
I0
sg129
I0
sg237
I0
sg323
I0
sg324
I0
sg325
I0
sg137
I0
sg121
I0
sg130
I0
sg122
I0
sg131
I0
sg252
I0
sg241
I0
sg326
I0
sg136
I0
sg234
I0
sg239
I0
sg275
I0
sg327
I0
sg247
I0
sg117
I3
sg139
I0
sg328
I0
sg135
I0
sg133
I0
sg329
I0
sg330
I0
sg331
I0
sg332
I0
sg333
I0
sg334
I0
sg243
I0
sg256
I0
sg335
I0
sg116
I0
sg141
I0
sg336
I0
sg337
I0
sg242
I0
sg118
I0
sg338
I0
sg257
I0
ssg17
(dp411
g56
I0
sg29
I0
sg28
I0
sg26
I0
sg61
I0
sg53
I0
sg58
I0
sg50
I0
sg43
I0
sg25
I0
sg27
I0
sg66
I0
sg18
I3
sg44
I0
sg8
I0
sg115
I0
sg67
I0
sg68
I0
sg124
I0
sg24
I3
sg126
I0
sg19
I0
sg63
I0
sg11
I0
sg10
I0
sg20
I0
sg34
I0
sg114
I0
sg31
I0
sg119
I0
sg30
I0
sg37
I0
sg15
I0
sg16
I0
sg116
I0
sg35
I0
sg32
I0
sg38
I0
sg13
I0
sg55
I0
sg122
I0
sg48
I0
sg65
I0
sg41
I0
sg14
I0
sg60
I0
sg127
I0
sg42
I0
sg39
I0
sg36
I0
sg54
I0
sg57
I0
sg125
I0
sg40
I0
sg117
I0
sg62
I0
sg17
I0
sg64
I0
sg22
I0
sg121
I0
sg118
I0
sg46
I0
sg45
I0
sg23
I0
sg49
I0
sg59
I0
sg123
I0
sg47
I0
sg120
I0
sg33
I0
sg9
I0
sg21
I0
sg51
I0
sg12
I0
sg52
I0
ssg104
(dp412
g288
I0
sg111
I0
sg340
I0
sg264
I0
sg341
I0
sg278
I0
sg279
I0
sg342
I0
sg113
I0
sg343
I0
sg344
I0
sg345
I0
sg346
I0
sg280
I0
sg347
I0
sg348
I0
sg349
I0
sg267
I0
sg268
I0
sg108
I0
sg350
I0
sg281
I0
sg299
I0
sg351
I0
sg352
I0
sg353
I0
sg354
I0
sg355
I0
sg270
I0
sg271
I0
sg102
I0
sg356
I0
sg357
I0
sg358
I0
sg272
I0
sg359
I0
sg360
I0
sg110
I0
sg284
I0
sg361
I0
sg362
I0
sg363
I0
sg283
I0
sg364
I0
sg105
I3
sg365
I0
sg109
I0
sg366
I0
sg367
I0
sg368
I0
sg369
I0
sg370
I0
sg298
I0
sg301
I0
sg371
I0
sg274
I0
sg372
I0
sg373
I0
sg104
I0
sg374
I0
sg112
I0
sg375
I0
sg265
I0
sg376
I0
sg287
I0
sg377
I0
sg378
I0
sg379
I0
sg107
I0
sg380
I0
sg381
I0
sg300
I0
sg382
I0
sg383
I0
sg276
I0
sg106
I0
sg384
I0
sg103
I0
ssg112
(dp413
S'plate.n.13'
p414
I0
sg255
I0
sS'sink.n.01'
p415
I0
sS'beef.n.02'
p416
I0
sS'slice.n.06'
p417
I0
sS'put.v.02'
p418
I0
sS'bowl.n.01'
p419
I0
sg347
I0
sS'stick.v.08'
p420
I0
sg369
I0
sg370
I0
sS'add.v.01'
p421
I0
sS'pan.n.01'
p422
I0
sS'pan.n.03'
p423
I0
sg245
I0
sg254
I0
sS'bottle.n.01'
p424
I0
sS'egg.n.02'
p425
I0
sS'egg.n.01'
p426
I0
sS'fill.v.01'
p427
I0
sS'gripe.n.01'
p428
I0
sS'vanilla.n.03'
p429
I0
sS'vanilla.n.02'
p430
I0
sS'butter.n.01'
p431
I0
sg354
I0
sg240
I0
sg250
I0
sg113
I0
sS'slice.v.03'
p432
I0
sg359
I0
sg360
I0
sg251
I0
sS'plate.n.04'
p433
I0
sg361
I0
sS'lodge.v.02'
p434
I0
sg356
I0
sg246
I0
sg238
I0
sg341
I0
sg366
I0
sS'piece.n.08'
p435
I0
sS'cesspool.n.01'
p436
I0
sS'fruit_juice.n.01'
p437
I0
sg112
I1
sg340
I0
sg374
I0
sS'water.n.06'
p438
I0
sS'put.v.01'
p439
I0
sS'pizza.n.01'
p440
I0
sS'pour.v.01'
p441
I0
sg235
I0
sg380
I0
sS'lend.v.01'
p442
I0
sS'liquid.n.01'
p443
I0
sS'onion.n.01'
p444
I0
sg253
I0
sS'onion.n.03'
p445
I0
sg248
I0
ssg50
(dp446
g142
I0
sg43
I0
sg44
I0
sg365
I0
sg210
I0
sg102
I0
sg236
I0
sg237
I0
sg212
I0
sg213
I0
sg136
I0
sg41
I0
sg135
I0
sg367
I0
sg105
I0
sg239
I0
sg215
I0
sg17
I0
sg104
I0
sg112
I0
sg50
I0
sg49
I0
sg241
I0
sg47
I0
sg217
I0
sg33
I0
sg382
I0
sg218
I0
sg243
I0
sg13
I0
sg26
I0
sg61
I0
sg45
I0
sg23
I0
sg244
I0
sg373
I0
sg18
I0
sg8
I0
sg219
I0
sg67
I0
sg68
I0
sg108
I0
sg24
I0
sg269
I0
sg38
I0
sg37
I0
sg113
I0
sg35
I0
sg34
I0
sg137
I0
sg273
I0
sg130
I0
sg109
I0
sg247
I0
sg54
I0
sg64
I0
sg22
I0
sg377
I0
sg378
I0
sg344
I0
sg48
I0
sg21
I0
sg51
I0
sg52
I0
sg383
I0
sg342
I0
sg29
I0
sg28
I0
sg53
I0
sg128
I0
sg65
I0
sg138
I0
sg149
I0
sg66
I0
sg348
I0
sg19
I0
sg63
I0
sg249
I0
sg20
I0
sg140
I0
sg139
I0
sg134
I0
sg133
I0
sg39
I0
sg357
I0
sg32
I0
sg110
I0
sg55
I0
sg252
I0
sg42
I0
sg36
I0
sg371
I0
sg58
I0
sg286
I0
sg346
I0
sg59
I0
sg372
I0
sg106
I0
sg107
I0
sg56
I0
sg111
I0
sg256
I0
sg129
I0
sg290
I0
sg25
I0
sg27
I0
sg230
I0
sg291
I0
sg350
I0
sg11
I0
sg10
I0
sg353
I0
sg31
I0
sg355
I0
sg30
I0
sg15
I0
sg16
I0
sg358
I0
sg40
I0
sg131
I0
sg9
I0
sg362
I0
sg14
I0
sg57
I0
sg62
I0
sg12
I0
sg46
I0
sg132
I0
sg141
I0
sg364
I0
sg60
I0
sg103
I0
sg363
I0
sg257
I0
ssg49
(dp447
g142
I0
sg43
I0
sg44
I0
sg73
I0
sg210
I0
sg102
I0
sg90
I0
sg91
I0
sg212
I0
sg213
I0
sg136
I0
sg41
I0
sg135
I0
sg88
I0
sg105
I0
sg100
I0
sg215
I0
sg17
I0
sg104
I0
sg112
I0
sg50
I11
sg49
I1
sg47
I0
sg217
I0
sg33
I0
sg69
I0
sg218
I0
sg101
I0
sg13
I0
sg26
I0
sg61
I0
sg45
I0
sg23
I0
sg99
I0
sg87
I0
sg18
I0
sg8
I0
sg219
I0
sg67
I0
sg68
I0
sg108
I0
sg24
I0
sg269
I0
sg109
I0
sg38
I0
sg37
I0
sg113
I0
sg35
I0
sg34
I0
sg137
I0
sg273
I0
sg130
I0
sg54
I0
sg97
I0
sg98
I0
sg64
I0
sg22
I0
sg77
I0
sg89
I0
sg78
I0
sg48
I0
sg21
I0
sg51
I0
sg52
I0
sg82
I0
sg72
I0
sg29
I0
sg28
I0
sg53
I0
sg128
I0
sg65
I0
sg138
I0
sg95
I0
sg66
I0
sg83
I0
sg19
I0
sg63
I0
sg94
I0
sg20
I0
sg140
I0
sg139
I0
sg134
I0
sg133
I0
sg39
I0
sg76
I0
sg32
I0
sg110
I0
sg55
I0
sg93
I0
sg42
I0
sg36
I0
sg71
I0
sg58
I0
sg286
I0
sg81
I0
sg59
I0
sg84
I0
sg106
I0
sg107
I0
sg56
I0
sg111
I0
sg46
I0
sg129
I0
sg290
I0
sg25
I0
sg27
I0
sg230
I0
sg291
I0
sg75
I0
sg11
I0
sg10
I0
sg86
I0
sg31
I0
sg85
I0
sg30
I0
sg15
I0
sg16
I0
sg70
I0
sg40
I0
sg131
I0
sg9
I0
sg74
I0
sg14
I0
sg57
I0
sg62
I0
sg12
I0
sg92
I0
sg132
I0
sg141
I0
sg80
I0
sg60
I0
sg103
I0
sg79
I0
sg96
I0
ssg47
(dp448
g142
I0
sg43
I0
sg44
I0
sg73
I0
sg210
I0
sg102
I0
sg90
I0
sg91
I0
sg212
I0
sg213
I0
sg136
I0
sg41
I0
sg135
I0
sg88
I0
sg105
I0
sg100
I0
sg215
I0
sg17
I0
sg104
I0
sg112
I0
sg50
I0
sg49
I0
sg47
I9
sg217
I0
sg33
I0
sg69
I0
sg218
I0
sg101
I0
sg13
I0
sg26
I0
sg61
I0
sg45
I0
sg23
I0
sg99
I0
sg87
I0
sg18
I0
sg8
I0
sg219
I0
sg67
I0
sg68
I0
sg108
I0
sg24
I0
sg221
I0
sg109
I0
sg38
I0
sg37
I0
sg113
I0
sg35
I0
sg34
I0
sg137
I0
sg223
I0
sg130
I0
sg54
I0
sg97
I0
sg98
I0
sg64
I0
sg22
I0
sg77
I0
sg89
I0
sg78
I0
sg48
I0
sg21
I0
sg51
I0
sg52
I0
sg82
I0
sg72
I0
sg29
I0
sg28
I0
sg53
I0
sg128
I0
sg65
I0
sg138
I0
sg95
I0
sg66
I0
sg83
I0
sg19
I0
sg63
I0
sg94
I0
sg20
I0
sg140
I0
sg139
I0
sg134
I0
sg133
I0
sg39
I0
sg76
I0
sg32
I0
sg110
I0
sg55
I0
sg93
I0
sg42
I0
sg36
I0
sg71
I0
sg58
I0
sg226
I0
sg81
I0
sg59
I0
sg84
I0
sg106
I0
sg107
I0
sg56
I0
sg111
I0
sg46
I0
sg129
I0
sg225
I0
sg25
I0
sg27
I0
sg230
I0
sg231
I0
sg75
I0
sg11
I0
sg10
I0
sg86
I0
sg31
I0
sg85
I0
sg30
I0
sg15
I0
sg16
I0
sg70
I0
sg40
I0
sg131
I0
sg9
I0
sg74
I0
sg14
I0
sg57
I0
sg62
I0
sg12
I0
sg92
I0
sg132
I0
sg141
I0
sg80
I0
sg60
I0
sg103
I0
sg79
I0
sg96
I0
ssg116
(dp449
g303
I0
sg304
I0
sg305
I0
sg128
I0
sg138
I0
sg125
I0
sg126
I0
sg306
I0
sg140
I0
sg307
I0
sg244
I0
sg308
I0
sg123
I0
sg309
I0
sg115
I0
sg310
I0
sg311
I0
sg260
I0
sg124
I0
sg312
I0
sg313
I0
sg314
I0
sg315
I0
sg316
I0
sg249
I0
sg317
I0
sg318
I0
sg319
I0
sg114
I0
sg127
I0
sg134
I0
sg119
I0
sg320
I0
sg321
I0
sg322
I0
sg120
I0
sg132
I0
sg236
I0
sg129
I0
sg237
I0
sg323
I0
sg324
I0
sg325
I0
sg137
I0
sg121
I0
sg130
I0
sg122
I0
sg131
I0
sg252
I0
sg241
I0
sg326
I0
sg136
I0
sg234
I0
sg239
I0
sg275
I0
sg327
I0
sg247
I0
sg117
I0
sg139
I0
sg328
I0
sg135
I0
sg133
I0
sg329
I0
sg330
I0
sg331
I0
sg332
I0
sg333
I0
sg334
I0
sg243
I0
sg256
I0
sg335
I0
sg116
I3
sg141
I0
sg336
I0
sg337
I0
sg242
I0
sg118
I0
sg338
I0
sg257
I0
ssg33
(dp450
g56
I0
sg255
I0
sg29
I0
sg28
I0
sg26
I0
sg61
I0
sg53
I0
sg58
I0
sg246
I0
sg50
I0
sg43
I0
sg25
I0
sg27
I0
sg66
I0
sg18
I0
sg44
I0
sg8
I0
sg67
I0
sg68
I0
sg245
I0
sg231
I0
sg24
I0
sg226
I0
sg19
I0
sg63
I0
sg11
I0
sg10
I0
sg20
I0
sg34
I0
sg223
I0
sg31
I0
sg30
I0
sg37
I0
sg15
I0
sg16
I0
sg240
I0
sg250
I0
sg113
I0
sg35
I0
sg32
I0
sg38
I0
sg13
I0
sg251
I0
sg55
I0
sg48
I0
sg65
I0
sg41
I0
sg14
I0
sg60
I0
sg238
I0
sg42
I0
sg253
I0
sg39
I0
sg36
I0
sg54
I0
sg57
I0
sg225
I0
sg40
I0
sg62
I0
sg17
I0
sg64
I0
sg254
I0
sg22
I0
sg112
I0
sg46
I0
sg45
I0
sg23
I0
sg49
I0
sg59
I0
sg221
I0
sg47
I0
sg235
I0
sg33
I0
sg9
I0
sg21
I0
sg51
I0
sg12
I0
sg52
I0
sg248
I0
ssg69
(dp451
g142
I0
sg259
I0
sg260
I0
sg73
I0
sg210
I0
sg102
I0
sg90
I0
sg91
I0
sg212
I0
sg213
I0
sg136
I0
sg135
I0
sg88
I0
sg105
I0
sg100
I0
sg215
I0
sg104
I0
sg261
I0
sg262
I0
sg263
I0
sg217
I0
sg69
I6
sg218
I0
sg101
I0
sg264
I0
sg265
I0
sg99
I0
sg87
I0
sg266
I0
sg267
I0
sg268
I0
sg108
I0
sg270
I0
sg271
I0
sg272
I0
sg137
I0
sg130
I0
sg109
I0
sg97
I0
sg98
I0
sg274
I0
sg77
I0
sg89
I0
sg78
I0
sg275
I0
sg276
I0
sg277
I0
sg103
I0
sg72
I0
sg278
I0
sg128
I0
sg279
I0
sg138
I0
sg95
I0
sg280
I0
sg83
I0
sg219
I0
sg281
I0
sg94
I0
sg282
I0
sg283
I0
sg140
I0
sg139
I0
sg134
I0
sg133
I0
sg129
I0
sg110
I0
sg284
I0
sg93
I0
sg71
I0
sg285
I0
sg81
I0
sg287
I0
sg84
I0
sg106
I0
sg107
I0
sg288
I0
sg111
I0
sg76
I0
sg290
I0
sg230
I0
sg75
I0
sg80
I0
sg79
I0
sg86
I0
sg85
I0
sg292
I0
sg293
I0
sg70
I0
sg294
I0
sg131
I0
sg295
I0
sg74
I0
sg296
I0
sg297
I0
sg298
I0
sg92
I0
sg132
I0
sg141
I0
sg299
I0
sg300
I0
sg82
I0
sg301
I0
sg96
I0
ssg118
(dp452
g303
I0
sg304
I0
sg305
I0
sg128
I0
sg138
I0
sg125
I0
sg126
I0
sg306
I0
sg140
I0
sg307
I0
sg244
I0
sg308
I0
sg123
I0
sg309
I0
sg115
I0
sg310
I0
sg311
I0
sg260
I0
sg124
I0
sg312
I0
sg313
I0
sg314
I0
sg315
I0
sg316
I0
sg249
I0
sg317
I0
sg318
I0
sg319
I0
sg114
I0
sg127
I0
sg134
I0
sg119
I0
sg320
I0
sg321
I0
sg322
I0
sg120
I0
sg132
I0
sg236
I0
sg129
I0
sg237
I0
sg323
I0
sg324
I0
sg325
I0
sg137
I0
sg121
I0
sg130
I0
sg122
I0
sg131
I0
sg252
I0
sg241
I0
sg326
I0
sg136
I0
sg234
I0
sg239
I0
sg275
I0
sg327
I0
sg247
I0
sg117
I0
sg139
I0
sg328
I0
sg135
I0
sg133
I0
sg329
I0
sg330
I0
sg331
I0
sg332
I0
sg333
I0
sg334
I0
sg243
I0
sg256
I0
sg335
I0
sg116
I0
sg141
I0
sg336
I0
sg337
I0
sg242
I0
sg118
I3
sg338
I0
sg257
I0
ssg101
(dp453
g72
I0
sg129
I0
sg128
I0
sg138
I0
sg95
I0
sg261
I0
sg142
I0
sg259
I0
sg81
I0
sg99
I0
sg294
I0
sg260
I0
sg266
I0
sg219
I0
sg386
I0
sg83
I0
sg73
I0
sg319
I0
sg75
I0
sg80
I0
sg79
I0
sg94
I0
sg139
I0
sg282
I0
sg86
I0
sg140
I0
sg135
I0
sg96
I0
sg85
I0
sg133
I0
sg130
I0
sg292
I0
sg263
I3
sg132
I0
sg70
I0
sg134
I0
sg90
I0
sg76
I0
sg91
I0
sg290
I0
sg210
I0
sg131
I0
sg137
I0
sg212
I0
sg93
I0
sg213
I0
sg275
I0
sg74
I0
sg387
I0
sg98
I0
sg296
I0
sg136
I0
sg88
I0
sg100
I0
sg293
I0
sg297
I0
sg97
I0
sg215
I0
sg71
I0
sg322
I0
sg230
I0
sg218
I0
sg92
I0
sg285
I0
sg87
I0
sg262
I0
sg77
I0
sg89
I0
sg78
I0
sg217
I0
sg141
I0
sg295
I0
sg69
I0
sg84
I0
sg330
I0
sg101
I0
sg277
I0
sg82
I0
ssg13
(dp454
g56
I0
sg29
I0
sg28
I0
sg26
I0
sg61
I0
sg53
I0
sg58
I0
sg50
I0
sg43
I0
sg25
I0
sg27
I0
sg66
I0
sg18
I0
sg44
I0
sg8
I0
sg115
I0
sg67
I0
sg68
I0
sg124
I0
sg24
I0
sg126
I0
sg19
I0
sg63
I0
sg11
I0
sg10
I0
sg20
I0
sg34
I0
sg114
I0
sg31
I0
sg119
I0
sg30
I0
sg37
I0
sg15
I0
sg16
I0
sg116
I0
sg35
I0
sg32
I0
sg38
I0
sg13
I0
sg55
I0
sg122
I0
sg48
I0
sg65
I0
sg41
I0
sg14
I3
sg60
I0
sg127
I0
sg42
I0
sg39
I0
sg36
I0
sg54
I0
sg57
I0
sg125
I0
sg40
I0
sg117
I0
sg62
I0
sg17
I0
sg64
I0
sg22
I0
sg121
I0
sg118
I0
sg46
I0
sg45
I0
sg23
I0
sg49
I0
sg59
I0
sg123
I0
sg47
I0
sg120
I0
sg33
I0
sg9
I0
sg21
I0
sg51
I0
sg12
I0
sg52
I0
ssg26
(dp455
g56
I0
sg29
I0
sg28
I0
sg26
I0
sg61
I0
sg53
I0
sg58
I0
sg50
I0
sg43
I0
sg25
I0
sg27
I3
sg66
I0
sg18
I0
sg44
I0
sg8
I0
sg115
I0
sg67
I0
sg68
I0
sg124
I0
sg24
I0
sg126
I0
sg19
I0
sg63
I0
sg11
I0
sg10
I0
sg20
I0
sg34
I0
sg114
I0
sg31
I0
sg119
I0
sg30
I0
sg37
I0
sg15
I0
sg16
I0
sg116
I0
sg35
I0
sg32
I0
sg38
I0
sg13
I0
sg55
I0
sg122
I0
sg48
I0
sg65
I0
sg41
I0
sg14
I0
sg60
I0
sg127
I0
sg42
I0
sg39
I0
sg36
I0
sg54
I0
sg57
I0
sg125
I0
sg40
I0
sg117
I0
sg62
I0
sg17
I0
sg64
I0
sg22
I0
sg121
I0
sg118
I0
sg46
I0
sg45
I0
sg23
I0
sg49
I0
sg59
I0
sg123
I0
sg47
I0
sg120
I0
sg33
I0
sg9
I0
sg21
I0
sg51
I0
sg12
I0
sg52
I0
ssg61
(dp456
g56
I0
sg111
I0
sg29
I0
sg28
I0
sg26
I0
sg61
I0
sg53
I0
sg58
I0
sg112
I0
sg109
I0
sg350
I0
sg50
I0
sg342
I0
sg43
I0
sg25
I0
sg27
I0
sg66
I0
sg18
I0
sg44
I0
sg8
I0
sg67
I0
sg68
I0
sg108
I0
sg24
I0
sg19
I0
sg63
I0
sg11
I0
sg10
I0
sg20
I0
sg34
I0
sg31
I0
sg30
I0
sg37
I0
sg15
I0
sg16
I0
sg357
I0
sg358
I0
sg35
I0
sg32
I0
sg38
I0
sg13
I0
sg110
I0
sg55
I0
sg362
I0
sg48
I0
sg65
I0
sg41
I0
sg14
I0
sg60
I0
sg105
I0
sg365
I0
sg42
I0
sg106
I0
sg39
I0
sg36
I0
sg54
I0
sg57
I0
sg40
I0
sg62
I3
sg17
I0
sg371
I0
sg64
I0
sg107
I0
sg22
I0
sg104
I0
sg113
I0
sg46
I0
sg45
I0
sg23
I0
sg49
I0
sg59
I0
sg47
I0
sg102
I0
sg33
I0
sg9
I0
sg21
I0
sg382
I0
sg51
I0
sg12
I0
sg52
I0
sg103
I0
ssg45
(dp457
g56
I0
sg255
I0
sg29
I0
sg28
I0
sg26
I0
sg61
I0
sg53
I0
sg58
I0
sg246
I0
sg50
I0
sg43
I0
sg25
I0
sg27
I0
sg66
I0
sg18
I0
sg44
I0
sg8
I0
sg67
I0
sg68
I0
sg245
I0
sg231
I0
sg24
I0
sg226
I0
sg19
I0
sg63
I0
sg11
I0
sg10
I0
sg20
I0
sg34
I0
sg223
I0
sg31
I0
sg30
I0
sg37
I0
sg15
I0
sg16
I0
sg240
I0
sg250
I0
sg113
I0
sg35
I0
sg32
I0
sg38
I0
sg13
I0
sg251
I0
sg55
I0
sg48
I0
sg65
I0
sg41
I0
sg14
I0
sg60
I0
sg238
I0
sg42
I0
sg253
I0
sg39
I0
sg36
I0
sg54
I0
sg57
I0
sg225
I0
sg40
I0
sg62
I0
sg17
I0
sg64
I0
sg254
I0
sg22
I0
sg112
I0
sg46
I0
sg45
I0
sg23
I0
sg49
I0
sg59
I0
sg221
I0
sg47
I0
sg235
I0
sg33
I0
sg9
I0
sg21
I0
sg51
I0
sg12
I0
sg52
I0
sg248
I0
ssg23
(dp458
g142
I0
sg43
I0
sg44
I0
sg73
I0
sg119
I0
sg211
I0
sg90
I0
sg91
I0
sg121
I0
sg122
I0
sg136
I0
sg41
I0
sg135
I0
sg88
I0
sg214
I0
sg100
I0
sg117
I0
sg17
I0
sg216
I0
sg112
I0
sg50
I0
sg49
I0
sg47
I0
sg116
I0
sg33
I0
sg69
I0
sg118
I0
sg101
I0
sg13
I0
sg26
I0
sg61
I0
sg45
I3
sg23
I12
sg99
I0
sg87
I0
sg18
I0
sg8
I0
sg140
I0
sg67
I0
sg68
I0
sg220
I0
sg24
I0
sg123
I0
sg222
I0
sg38
I0
sg37
I0
sg113
I0
sg35
I0
sg34
I0
sg137
I0
sg127
I0
sg130
I0
sg54
I0
sg97
I0
sg98
I0
sg64
I0
sg22
I0
sg77
I0
sg89
I0
sg78
I0
sg48
I0
sg21
I0
sg51
I0
sg52
I0
sg82
I0
sg72
I0
sg29
I0
sg28
I0
sg53
I0
sg128
I0
sg65
I0
sg138
I0
sg95
I0
sg66
I0
sg83
I0
sg19
I0
sg63
I0
sg94
I0
sg20
I0
sg114
I0
sg139
I0
sg134
I0
sg133
I0
sg39
I0
sg76
I0
sg32
I0
sg224
I0
sg55
I0
sg93
I0
sg42
I0
sg36
I0
sg71
I0
sg58
I0
sg126
I0
sg81
I0
sg59
I0
sg84
I0
sg227
I0
sg228
I0
sg56
I0
sg229
I0
sg46
I0
sg129
I0
sg120
I0
sg125
I0
sg25
I0
sg27
I0
sg115
I0
sg124
I0
sg75
I0
sg11
I0
sg10
I0
sg86
I0
sg31
I0
sg85
I0
sg30
I0
sg15
I0
sg16
I0
sg70
I0
sg40
I0
sg131
I0
sg9
I0
sg74
I0
sg14
I0
sg57
I0
sg62
I0
sg12
I0
sg92
I0
sg132
I0
sg141
I0
sg80
I0
sg60
I0
sg232
I0
sg79
I0
sg96
I0
ssg99
(dp459
g72
I0
sg129
I0
sg128
I0
sg138
I0
sg95
I0
sg261
I0
sg142
I0
sg259
I0
sg81
I0
sg99
I0
sg294
I0
sg260
I0
sg266
I0
sg219
I0
sg386
I0
sg83
I0
sg73
I0
sg319
I0
sg75
I0
sg80
I0
sg79
I0
sg94
I0
sg139
I0
sg282
I0
sg86
I0
sg140
I0
sg135
I0
sg96
I0
sg85
I0
sg133
I0
sg130
I0
sg263
I0
sg132
I0
sg70
I0
sg134
I0
sg90
I0
sg76
I0
sg91
I0
sg290
I0
sg210
I0
sg131
I0
sg137
I0
sg212
I0
sg93
I0
sg213
I0
sg275
I0
sg74
I0
sg387
I0
sg98
I0
sg296
I0
sg136
I0
sg88
I0
sg100
I3
sg293
I0
sg297
I0
sg97
I0
sg215
I0
sg71
I0
sg322
I0
sg230
I0
sg218
I0
sg92
I0
sg285
I0
sg87
I0
sg262
I0
sg101
I0
sg77
I0
sg89
I0
sg78
I0
sg217
I0
sg141
I0
sg295
I0
sg69
I0
sg84
I0
sg330
I0
sg292
I0
sg277
I0
sg82
I0
ssg87
(dp460
g232
I0
sg72
I0
sg401
I0
sg147
I0
sg148
I0
sg95
I0
sg261
I0
sg229
I0
sg259
I0
sg81
I0
sg99
I0
sg154
I0
sg172
I0
sg155
I0
sg266
I0
sg402
I0
sg83
I0
sg73
I0
sg222
I0
sg75
I0
sg80
I0
sg79
I0
sg181
I0
sg94
I0
sg165
I0
sg177
I0
sg282
I0
sg86
I0
sg191
I0
sg168
I0
sg96
I0
sg85
I0
sg403
I0
sg404
I0
sg263
I0
sg174
I0
sg70
I0
sg175
I0
sg90
I0
sg76
I0
sg91
I0
sg179
I0
sg405
I0
sg180
I0
sg224
I0
sg93
I0
sg183
I0
sg74
I0
sg185
I0
sg98
I0
sg296
I0
sg188
I0
sg88
I3
sg214
I0
sg220
I0
sg100
I0
sg227
I0
sg211
I0
sg297
I0
sg97
I0
sg406
I0
sg71
I0
sg171
I0
sg407
I0
sg142
I0
sg216
I0
sg92
I0
sg285
I0
sg87
I0
sg262
I0
sg101
I0
sg77
I0
sg89
I0
sg78
I0
sg228
I0
sg295
I0
sg69
I0
sg84
I0
sg205
I0
sg292
I0
sg277
I0
sg82
I0
ssg18
(dp461
g56
I0
sg29
I0
sg28
I0
sg26
I0
sg61
I0
sg53
I0
sg58
I0
sg50
I0
sg43
I0
sg25
I0
sg27
I0
sg66
I0
sg18
I0
sg44
I0
sg8
I0
sg115
I0
sg67
I0
sg68
I0
sg124
I0
sg24
I0
sg126
I0
sg19
I0
sg63
I0
sg11
I0
sg10
I0
sg20
I0
sg34
I0
sg114
I0
sg31
I0
sg119
I0
sg30
I0
sg37
I0
sg15
I0
sg16
I0
sg116
I0
sg35
I0
sg32
I0
sg38
I0
sg13
I0
sg55
I0
sg122
I0
sg48
I0
sg65
I0
sg41
I0
sg14
I0
sg60
I0
sg127
I0
sg42
I0
sg39
I0
sg36
I0
sg54
I0
sg57
I0
sg125
I0
sg40
I0
sg117
I0
sg62
I0
sg17
I0
sg64
I0
sg22
I0
sg121
I0
sg118
I0
sg46
I0
sg45
I0
sg23
I0
sg49
I0
sg59
I0
sg123
I0
sg47
I0
sg120
I0
sg33
I0
sg9
I0
sg21
I0
sg51
I0
sg12
I0
sg52
I0
ssg8
(dp462
g142
I0
sg43
I0
sg44
I0
sg73
I0
sg119
I0
sg102
I0
sg90
I0
sg91
I0
sg121
I0
sg122
I0
sg136
I0
sg41
I0
sg135
I0
sg88
I0
sg105
I0
sg100
I0
sg117
I0
sg17
I0
sg104
I0
sg112
I0
sg50
I0
sg49
I0
sg47
I0
sg116
I0
sg33
I0
sg69
I0
sg118
I0
sg101
I0
sg13
I0
sg26
I0
sg61
I0
sg45
I0
sg23
I0
sg99
I0
sg87
I0
sg18
I0
sg8
I0
sg140
I0
sg67
I0
sg68
I0
sg108
I0
sg24
I0
sg123
I0
sg109
I0
sg38
I0
sg37
I0
sg113
I0
sg35
I0
sg34
I0
sg137
I0
sg127
I0
sg130
I0
sg54
I0
sg97
I0
sg98
I0
sg64
I0
sg22
I0
sg77
I0
sg89
I0
sg78
I0
sg48
I0
sg21
I0
sg51
I0
sg52
I0
sg82
I0
sg72
I0
sg29
I0
sg28
I0
sg53
I0
sg128
I0
sg65
I0
sg138
I0
sg95
I0
sg66
I0
sg83
I0
sg19
I0
sg63
I0
sg94
I0
sg20
I0
sg114
I0
sg139
I0
sg134
I0
sg133
I0
sg39
I0
sg76
I0
sg32
I0
sg110
I0
sg55
I0
sg93
I0
sg42
I0
sg36
I0
sg71
I0
sg58
I0
sg126
I0
sg81
I0
sg59
I0
sg84
I0
sg106
I0
sg107
I0
sg56
I0
sg111
I0
sg46
I0
sg129
I0
sg120
I0
sg125
I0
sg25
I0
sg27
I0
sg115
I0
sg124
I0
sg75
I0
sg11
I0
sg10
I0
sg86
I0
sg31
I0
sg85
I0
sg30
I0
sg15
I0
sg16
I0
sg70
I0
sg40
I0
sg131
I0
sg9
I21
sg74
I0
sg14
I0
sg57
I0
sg62
I0
sg12
I0
sg92
I0
sg132
I0
sg141
I0
sg80
I0
sg60
I0
sg103
I0
sg79
I0
sg96
I0
ssg140
(dp463
g289
I0
sg128
I0
sg138
I0
sg322
I0
sg314
I0
sg244
I0
sg294
I0
sg260
I0
sg392
I0
sg230
I0
sg386
I0
sg387
I0
sg234
I0
sg291
I0
sg286
I0
sg219
I0
sg273
I0
sg393
I0
sg249
I0
sg139
I0
sg394
I0
sg319
I0
sg140
I0
sg135
I0
sg134
I0
sg133
I0
sg293
I0
sg132
I0
sg217
I0
sg236
I0
sg129
I0
sg237
I0
sg290
I0
sg210
I0
sg131
I0
sg137
I0
sg212
I0
sg130
I0
sg213
I0
sg275
I0
sg252
I0
sg241
I0
sg247
I0
sg136
I0
sg239
I0
sS'piece.n.08'
p464
I0
sg395
I0
sg215
I0
sg218
I0
sg256
I0
sS'slice.n.06'
p465
I0
sg396
I0
sg334
I0
sg269
I0
sg335
I0
sg141
I0
sg397
I0
sg242
I0
sg330
I0
sg243
I0
sg257
I0
ssg67
(dp466
g142
I0
sg43
I0
sg44
I0
sg365
I0
sg119
I0
sg102
I0
sg236
I0
sg237
I0
sg121
I0
sg122
I0
sg136
I0
sg41
I0
sg135
I0
sg367
I0
sg105
I0
sg239
I0
sg117
I0
sg17
I0
sg104
I0
sg112
I0
sg50
I0
sg49
I0
sg241
I0
sg47
I0
sg116
I0
sg33
I0
sg382
I0
sg118
I0
sg243
I0
sg13
I0
sg26
I0
sg61
I0
sg45
I0
sg23
I0
sg244
I0
sg373
I0
sg18
I0
sg8
I0
sg140
I0
sg67
I1
sg68
I8
sg108
I3
sg24
I0
sg123
I0
sg38
I0
sg37
I0
sg113
I0
sg35
I0
sg34
I0
sg137
I0
sg127
I0
sg130
I0
sg109
I0
sg247
I0
sg54
I0
sg64
I0
sg22
I0
sg377
I0
sg378
I0
sg344
I0
sg48
I0
sg21
I0
sg51
I0
sg52
I0
sg383
I0
sg342
I0
sg29
I0
sg28
I0
sg53
I0
sg128
I0
sg65
I0
sg138
I0
sg149
I0
sg66
I0
sg348
I0
sg19
I0
sg63
I0
sg249
I0
sg20
I0
sg114
I0
sg139
I0
sg134
I0
sg133
I0
sg39
I0
sg357
I0
sg32
I0
sg110
I0
sg55
I0
sg252
I0
sg42
I0
sg36
I0
sg371
I0
sg58
I0
sg126
I0
sg346
I0
sg59
I0
sg372
I0
sg106
I0
sg107
I0
sg56
I0
sg111
I0
sg256
I0
sg129
I0
sg120
I0
sg125
I0
sg25
I0
sg27
I0
sg115
I0
sg124
I0
sg350
I0
sg11
I0
sg10
I0
sg353
I0
sg31
I0
sg355
I0
sg30
I0
sg15
I0
sg16
I0
sg358
I0
sg40
I0
sg131
I0
sg9
I0
sg362
I0
sg14
I0
sg57
I0
sg62
I0
sg12
I0
sg46
I0
sg132
I0
sg141
I0
sg364
I0
sg60
I0
sg103
I0
sg363
I0
sg257
I0
ssg68
(dp467
g142
I0
sg43
I0
sg44
I0
sg365
I0
sg119
I0
sg102
I0
sg236
I0
sg237
I0
sg121
I0
sg122
I0
sg136
I0
sg41
I0
sg135
I0
sg189
I0
sg105
I0
sg239
I0
sg117
I0
sg17
I0
sg112
I0
sg104
I0
sg50
I0
sg49
I0
sg241
I0
sg47
I0
sg116
I0
sg33
I0
sg382
I0
sg118
I0
sg243
I0
sg13
I0
sg26
I0
sg61
I0
sg45
I0
sg23
I0
sg244
I0
sg126
I0
sg18
I0
sg8
I0
sg140
I0
sg67
I0
sg68
I0
sg108
I0
sg24
I0
sg123
I0
sg38
I0
sg37
I0
sg113
I0
sg35
I0
sg34
I0
sg137
I0
sg127
I0
sg130
I0
sg109
I0
sg247
I0
sg54
I0
sg64
I0
sg22
I0
sg199
I0
sg200
I0
sg201
I0
sg48
I0
sg21
I0
sg51
I0
sg52
I0
sg103
I0
sg342
I0
sg29
I0
sg28
I0
sg53
I0
sg128
I0
sg65
I0
sg138
I0
sg149
I0
sg66
I0
sg158
I0
sg19
I0
sg63
I0
sg249
I0
sg20
I0
sg114
I0
sg139
I0
sg134
I0
sg133
I0
sg39
I0
sg357
I0
sg32
I0
sg110
I0
sg55
I0
sg252
I0
sg42
I0
sg36
I0
sg371
I0
sg58
I0
sg151
I0
sg197
I0
sg59
I0
sg204
I0
sg106
I0
sg107
I0
sg56
I0
sg111
I0
sg256
I0
sg129
I0
sg120
I0
sg125
I0
sg25
I0
sg27
I0
sg115
I0
sg124
I0
sg350
I0
sg11
I0
sg12
I0
sg167
I0
sg31
I0
sg170
I0
sg30
I0
sg15
I0
sg16
I0
sg358
I0
sg40
I0
sg131
I0
sg9
I0
sg362
I0
sg163
I0
sg14
I0
sg57
I0
sg62
I0
sg46
I0
sg132
I0
sg141
I0
sg162
I0
sg60
I0
sg208
I0
sg10
I0
sg257
I0
ssg108
(dp468
g288
I0
sg111
I0
sg340
I0
sg264
I0
sg341
I0
sg278
I0
sg279
I0
sg342
I0
sg113
I0
sg343
I0
sg344
I0
sg345
I0
sg346
I0
sg280
I0
sg347
I0
sg348
I0
sg349
I0
sg267
I0
sg268
I0
sg108
I0
sg350
I0
sg281
I0
sg299
I0
sg351
I0
sg352
I0
sg353
I0
sg354
I0
sg355
I0
sg270
I0
sg271
I0
sg102
I0
sg356
I0
sg357
I0
sg358
I0
sg272
I0
sg359
I0
sg360
I0
sg110
I0
sg284
I0
sg361
I0
sg362
I0
sg363
I0
sg283
I0
sg364
I0
sg105
I0
sg365
I0
sg109
I0
sg366
I0
sg367
I0
sg368
I0
sg369
I0
sg370
I0
sg298
I0
sg301
I0
sg371
I0
sg274
I0
sg372
I0
sg373
I0
sg104
I0
sg374
I0
sg112
I0
sg375
I0
sg265
I0
sg376
I0
sg287
I0
sg377
I0
sg378
I0
sg379
I0
sg107
I0
sg380
I0
sg381
I0
sg300
I0
sg382
I0
sg383
I0
sg276
I0
sg106
I0
sg384
I0
sg103
I0
ssg24
(dp469
g56
I0
sg29
I0
sg28
I0
sg26
I0
sg61
I0
sg53
I0
sg58
I0
sg50
I0
sg43
I0
sg25
I0
sg27
I0
sg66
I0
sg18
I0
sg44
I0
sg8
I0
sg115
I0
sg67
I0
sg68
I0
sg124
I0
sg24
I0
sg126
I0
sg19
I0
sg63
I0
sg11
I0
sg10
I0
sg20
I0
sg34
I0
sg114
I0
sg31
I0
sg119
I0
sg30
I0
sg37
I0
sg15
I0
sg16
I0
sg116
I0
sg35
I0
sg32
I0
sg38
I0
sg13
I0
sg55
I0
sg122
I0
sg48
I0
sg65
I0
sg41
I0
sg14
I0
sg60
I0
sg127
I0
sg42
I0
sg39
I0
sg36
I0
sg54
I0
sg57
I0
sg125
I0
sg40
I0
sg117
I0
sg62
I0
sg17
I0
sg64
I0
sg22
I0
sg121
I0
sg118
I0
sg46
I0
sg45
I0
sg23
I0
sg49
I0
sg59
I0
sg123
I0
sg47
I0
sg120
I0
sg33
I0
sg9
I0
sg21
I0
sg51
I0
sg12
I0
sg52
I0
ssg123
(dp470
g303
I0
sg304
I0
sg305
I0
sS'hack.v.07'
p471
I0
sS'carve.v.03'
p472
I0
sS'water_system.n.02'
p473
I0
sS'make.v.02'
p474
I0
sS'pepper.n.03'
p475
I0
sg125
I0
sg126
I0
sg306
I0
sS'pear.n.02'
p476
I0
sg307
I0
sS'blend.v.01'
p477
I0
sg308
I0
sg123
I3
sg309
I0
sg115
I0
sg310
I0
sg311
I0
sS'bowl.n.08'
p478
I0
sg124
I0
sg312
I0
sg313
I0
sS'bowl.n.01'
p479
I0
sg315
I0
sg316
I0
sS'cover.v.16'
p480
I0
sg317
I0
sg318
I0
sS'banana.n.02'
p481
I0
sg114
I0
sg127
I0
sg119
I0
sS'vanilla.n.02'
p482
I0
sg320
I0
sg321
I0
sS'pear.n.01'
p483
I0
sg120
I0
sS'knife.n.01'
p484
I0
sS'slice.v.03'
p485
I0
sg323
I0
sg324
I0
sg325
I0
sS'get.v.01'
p486
I0
sg121
I0
sS'pepper.n.04'
p487
I0
sg122
I0
sS'mix.n.03'
p488
I0
sS'walnut.n.02'
p489
I0
sS'fork.n.01'
p490
I0
sg326
I0
sS'cut.v.01'
p491
I0
sS'branching.n.01'
p492
I0
sS'concoction.n.01'
p493
I0
sS'apple.n.01'
p494
I0
sg327
I0
sS'walnut.n.01'
p495
I0
sg117
I0
sg328
I0
sS'squash.n.02'
p496
I0
sg329
I0
sS'onion.n.01'
p497
I0
sg331
I0
sg332
I0
sg333
I0
sS'put.v.01'
p498
I0
sS'vanilla.n.03'
p499
I0
sS'pour.v.01'
p500
I0
sg116
I0
sS'tongue.n.03'
p501
I0
sg336
I0
sg337
I0
sg118
I0
sg338
I0
sS'put.v.02'
p502
I0
ssg109
(dp503
g142
I0
sg345
I0
sg370
I0
sg365
I0
sg210
I0
sg102
I0
sg236
I0
sg237
I0
sg212
I0
sg213
I0
sg136
I0
sg356
I0
sg135
I0
sg367
I0
sg105
I0
sg239
I0
sg215
I0
sg104
I0
sg112
I0
sg343
I0
sg376
I0
sg241
I0
sg379
I0
sg217
I0
sg380
I0
sg382
I0
sg218
I0
sg243
I0
sg264
I0
sg375
I0
sg265
I0
sg244
I0
sg373
I0
sg347
I0
sg349
I0
sg267
I0
sg268
I0
sg108
I0
sg269
I0
sg270
I0
sg271
I0
sg113
I0
sg272
I0
sg360
I0
sg137
I0
sg273
I0
sg130
I0
sg283
I0
sg247
I0
sg109
I3
sg274
I0
sg377
I0
sg378
I0
sg344
I0
sg361
I0
sg276
I0
sg384
I0
sg383
I0
sg342
I0
sg278
I0
sg128
I0
sg279
I0
sg138
I0
sg149
I0
sg280
I0
sg348
I0
sg219
I0
sg281
I0
sg249
I0
sg352
I0
sg140
I0
sg139
I0
sg134
I0
sg133
I0
sg366
I0
sg357
I0
sg359
I0
sg110
I0
sg284
I0
sg252
I0
sg341
I0
sg371
I0
sg374
I0
sg286
I0
sg346
I0
sg287
I0
sg372
I0
sg106
I0
sg107
I0
sg288
I0
sg111
I0
sg256
I0
sg129
I0
sg290
I0
sg230
I0
sg291
I0
sg350
I0
sg299
I0
sg351
I0
sg353
I0
sg355
I0
sg354
I0
sg358
I0
sg369
I0
sg131
I0
sg381
I0
sg362
I0
sg395
I0
sg368
I0
sg298
I0
sg301
I0
sg340
I0
sg132
I0
sg141
I0
sg364
I0
sg300
I0
sg103
I0
sg363
I0
sg257
I0
ssg38
(dp504
g43
I0
sg44
I0
sg365
I0
sg102
I0
sg41
I0
sg367
I0
sg105
I0
sg17
I0
sg104
I0
sg112
I0
sg50
I0
sg49
I0
sg47
I0
sg33
I0
sg382
I0
sg13
I0
sg26
I0
sg61
I0
sg45
I0
sg23
I0
sg373
I0
sg18
I0
sg8
I0
sg67
I0
sg68
I0
sg108
I0
sg24
I0
sg221
I0
sg38
I0
sg37
I0
sg113
I0
sg35
I0
sg34
I0
sg223
I0
sg109
I0
sg54
I0
sg64
I0
sg22
I0
sg377
I0
sg378
I0
sg344
I0
sg48
I0
sg21
I0
sg51
I0
sg52
I0
sg383
I0
sg342
I0
sg29
I0
sg28
I0
sg53
I0
sg65
I0
sg66
I0
sg348
I0
sg19
I0
sg63
I0
sg20
I0
sg39
I0
sg357
I0
sg32
I0
sg110
I0
sg55
I0
sg42
I0
sg36
I0
sg371
I0
sg58
I0
sg226
I0
sg346
I0
sg59
I0
sg372
I0
sg106
I0
sg107
I0
sg56
I0
sg111
I0
sg225
I0
sg25
I0
sg27
I0
sg231
I0
sg350
I0
sg11
I0
sg10
I0
sg353
I0
sg31
I0
sg355
I0
sg30
I0
sg15
I0
sg16
I0
sg358
I0
sg40
I0
sg9
I0
sg362
I0
sg14
I0
sg57
I0
sg62
I0
sg12
I0
sg46
I0
sg364
I0
sg60
I0
sg103
I0
sg363
I0
ssg37
(dp505
g43
I0
sg44
I0
sg365
I0
sg102
I0
sg41
I0
sg367
I0
sg105
I0
sg17
I0
sg104
I0
sg112
I0
sg50
I0
sg49
I0
sg47
I0
sg33
I0
sg382
I0
sg13
I0
sg26
I0
sg61
I0
sg45
I0
sg23
I0
sg373
I0
sg18
I0
sg8
I0
sg67
I0
sg68
I0
sg108
I0
sg24
I0
sg221
I0
sg38
I6
sg37
I0
sg113
I0
sg35
I0
sg34
I0
sg223
I0
sg109
I0
sg54
I0
sg64
I0
sg22
I0
sg377
I0
sg378
I0
sg344
I0
sg48
I0
sg21
I0
sg51
I0
sg52
I0
sg383
I0
sg342
I0
sg29
I0
sg28
I0
sg53
I0
sg65
I0
sg66
I0
sg348
I0
sg19
I0
sg63
I0
sg20
I0
sg39
I0
sg357
I0
sg32
I0
sg110
I0
sg55
I0
sg42
I0
sg36
I0
sg371
I0
sg58
I0
sg226
I0
sg346
I0
sg59
I0
sg372
I0
sg106
I0
sg107
I0
sg56
I0
sg111
I0
sg225
I0
sg25
I0
sg27
I0
sg231
I0
sg350
I0
sg11
I0
sg10
I0
sg353
I0
sg31
I0
sg355
I0
sg30
I0
sg15
I0
sg16
I0
sg358
I0
sg40
I0
sg9
I0
sg362
I0
sg14
I0
sg57
I0
sg62
I0
sg12
I0
sg46
I0
sg364
I0
sg60
I0
sg103
I0
sg363
I0
ssg113
(dp506
g414
I0
sg255
I0
sg415
I0
sg416
I0
sg417
I0
sg418
I0
sg419
I0
sg347
I0
sg420
I0
sg369
I0
sg370
I0
sg421
I0
sg422
I0
sg423
I0
sg245
I0
sg254
I0
sg424
I0
sg425
I0
sg426
I0
sg427
I0
sg428
I0
sg429
I0
sg430
I0
sg431
I0
sg354
I0
sg240
I0
sg250
I0
sg113
I0
sg432
I0
sg359
I0
sg360
I0
sg251
I0
sg433
I0
sg361
I0
sg434
I0
sg356
I0
sg246
I0
sg238
I0
sg341
I0
sg366
I0
sg435
I0
sg436
I0
sg437
I0
sg112
I0
sg340
I0
sg374
I0
sg438
I0
sg439
I0
sg440
I0
sg441
I0
sg235
I0
sg380
I0
sg442
I0
sg443
I0
sg444
I0
sg253
I0
sg445
I0
sg248
I0
ssg35
(dp507
g43
I0
sg44
I0
sg365
I0
sg102
I0
sg41
I0
sg367
I0
sg105
I0
sg17
I0
sg104
I0
sg112
I0
sg50
I0
sg49
I0
sg47
I0
sg33
I0
sg382
I0
sg13
I0
sg26
I0
sg61
I0
sg45
I0
sg23
I0
sg373
I0
sg18
I0
sg8
I0
sg67
I0
sg68
I0
sg108
I0
sg24
I0
sg221
I0
sg38
I0
sg37
I0
sg113
I1
sg35
I11
sg34
I0
sg223
I0
sg109
I0
sg54
I0
sg64
I0
sg22
I0
sg377
I0
sg378
I0
sg344
I0
sg48
I0
sg21
I0
sg51
I0
sg52
I0
sg383
I0
sg342
I0
sg29
I0
sg28
I0
sg53
I0
sg65
I0
sg66
I0
sg348
I0
sg19
I0
sg63
I0
sg20
I0
sg39
I0
sg357
I0
sg32
I0
sg110
I0
sg55
I0
sg42
I0
sg36
I0
sg371
I0
sg58
I0
sg226
I0
sg346
I0
sg59
I0
sg372
I0
sg106
I0
sg107
I0
sg56
I0
sg111
I0
sg225
I0
sg25
I0
sg27
I0
sg231
I0
sg350
I0
sg11
I0
sg10
I0
sg353
I0
sg31
I0
sg355
I0
sg30
I0
sg15
I0
sg16
I0
sg358
I0
sg40
I0
sg9
I0
sg362
I0
sg14
I0
sg57
I0
sg62
I0
sg12
I0
sg46
I0
sg364
I0
sg60
I0
sg103
I0
sg363
I0
ssg34
(dp508
g56
I0
sg255
I0
sg29
I0
sg28
I0
sg26
I0
sg61
I0
sg53
I0
sg58
I0
sg246
I0
sg50
I0
sg43
I0
sg25
I0
sg27
I0
sg66
I0
sg18
I0
sg44
I0
sg8
I0
sg67
I0
sg68
I0
sg245
I0
sg231
I0
sg34
I3
sg226
I0
sg19
I0
sg63
I0
sg11
I0
sg10
I0
sg20
I0
sg54
I0
sg223
I0
sg31
I0
sg30
I0
sg37
I0
sg15
I0
sg16
I0
sg17
I0
sg250
I0
sg113
I0
sg35
I0
sg32
I0
sg38
I0
sg13
I0
sg251
I0
sg55
I0
sg48
I0
sg65
I0
sg41
I0
sg14
I0
sg60
I0
sg238
I0
sg42
I0
sg253
I0
sg39
I0
sg36
I0
sg57
I0
sg225
I0
sg40
I0
sg62
I0
sg24
I0
sg64
I0
sg254
I0
sg22
I0
sg240
I0
sg112
I0
sg46
I0
sg45
I0
sg23
I0
sg49
I0
sg59
I0
sg221
I0
sg47
I0
sg235
I0
sg33
I0
sg9
I0
sg21
I0
sg51
I0
sg12
I0
sg52
I0
sg248
I0
ssg137
(dp509
g289
I0
sg149
I0
sg128
I0
sg138
I3
sg184
I0
sg322
I0
sg142
I0
sg314
I0
sg197
I0
sg244
I0
sg294
I0
sg260
I0
sg392
I0
sg230
I0
sg386
I0
sg167
I0
sg387
I0
sg234
I0
sg291
I0
sg286
I0
sg219
I0
sg273
I0
sg162
I0
sg393
I0
sg249
I0
sg139
I0
sg394
I0
sg319
I0
sg140
I0
sg135
I0
sg134
I0
sg133
I0
sg293
I0
sg132
I0
sg217
I0
sg170
I0
sg236
I0
sg129
I0
sg237
I0
sg290
I0
sg210
I0
sg131
I0
sg137
I0
sg212
I0
sg130
I0
sg213
I0
sg275
I0
sg252
I0
sg158
I0
sg241
I0
sg247
I0
sg136
I0
sg189
I0
sg239
I0
sg192
I0
sg395
I0
sg215
I0
sg204
I0
sg151
I0
sg218
I0
sg256
I0
sg195
I0
sg396
I0
sg334
I0
sg163
I0
sg199
I0
sg269
I0
sg200
I0
sg335
I0
sg201
I0
sg141
I0
sg397
I0
sg242
I0
sg208
I0
sg330
I0
sg243
I0
sg207
I0
sg257
I0
ssg127
(dp510
g303
I0
sg304
I0
sg305
I0
sg471
I0
sg472
I0
sg473
I0
sg474
I0
sg475
I0
sg125
I0
sg126
I0
sg306
I0
sg476
I0
sg307
I0
sg477
I0
sg308
I0
sg123
I0
sg309
I0
sg115
I0
sg310
I0
sg311
I0
sg478
I0
sg124
I0
sg312
I0
sg114
I0
sg479
I0
sg315
I0
sg316
I0
sg480
I0
sg483
I0
sg318
I0
sg481
I0
sg121
I0
sg317
I0
sg313
I0
sg119
I0
sg482
I0
sg320
I0
sg321
I0
sg120
I0
sg484
I0
sg485
I0
sg323
I0
sg324
I0
sg325
I0
sg486
I0
sg127
I3
sg487
I0
sg122
I0
sg488
I0
sg489
I0
sg490
I0
sg326
I0
sg491
I0
sg492
I0
sg493
I0
sg494
I0
sg327
I0
sg495
I0
sg117
I0
sg328
I0
sg496
I0
sg329
I0
sg497
I0
sg331
I0
sg332
I0
sg333
I0
sg498
I0
sg499
I0
sg500
I0
sg116
I0
sg501
I0
sg336
I0
sg337
I0
sg118
I0
sg338
I0
sg502
I0
ssg130
(dp511
g289
I0
sg149
I0
sg128
I0
sg138
I0
sg184
I0
sg322
I0
sg142
I0
sg314
I0
sg197
I0
sg244
I0
sg294
I0
sg260
I0
sg392
I0
sg230
I0
sg386
I0
sg167
I0
sg387
I0
sg234
I0
sg291
I0
sg286
I0
sg219
I0
sg273
I0
sg162
I0
sg393
I0
sg249
I0
sg139
I0
sg394
I0
sg319
I3
sg140
I0
sg135
I0
sg134
I0
sg133
I0
sg293
I0
sg132
I0
sg217
I0
sg170
I0
sg236
I0
sg129
I0
sg237
I0
sg290
I0
sg210
I0
sg131
I0
sg137
I0
sg212
I0
sg130
I0
sg213
I0
sg275
I0
sg252
I0
sg158
I0
sg241
I0
sg395
I0
sg136
I0
sg189
I0
sg239
I0
sg192
I0
sg247
I0
sg215
I0
sg204
I0
sg151
I0
sg218
I0
sg256
I0
sg195
I0
sg396
I0
sg334
I0
sg163
I0
sg199
I0
sg269
I0
sg200
I0
sg335
I0
sg201
I0
sg141
I0
sg397
I0
sg242
I0
sg208
I0
sg330
I0
sg243
I0
sg207
I0
sg257
I0
ssg54
(dp512
g56
I0
sg111
I0
sg29
I0
sg28
I0
sg26
I0
sg61
I0
sg53
I0
sg58
I0
sg112
I0
sg109
I0
sg350
I0
sg50
I0
sg342
I0
sg43
I0
sg25
I0
sg27
I0
sg66
I0
sg18
I0
sg44
I0
sg8
I0
sg67
I0
sg68
I0
sg108
I0
sg24
I0
sg19
I0
sg63
I0
sg11
I0
sg10
I0
sg20
I0
sg34
I0
sg31
I0
sg30
I0
sg37
I0
sg15
I0
sg16
I0
sg357
I0
sg358
I0
sg35
I0
sg32
I0
sg38
I0
sg13
I0
sg110
I0
sg55
I0
sg362
I0
sg48
I0
sg65
I0
sg54
I0
sg14
I0
sg60
I0
sg105
I0
sg365
I0
sg41
I0
sg106
I0
sg39
I0
sg36
I0
sg57
I0
sg40
I0
sg62
I0
sg17
I0
sg371
I0
sg64
I0
sg107
I0
sg22
I0
sg104
I0
sg113
I0
sg46
I0
sg45
I0
sg23
I0
sg49
I0
sg59
I0
sg47
I0
sg102
I0
sg33
I0
sg9
I0
sg21
I0
sg382
I0
sg103
I0
sg51
I0
sg12
I0
sg52
I0
sg42
I0
ssg97
(dp513
g72
I0
sg129
I0
sg128
I0
sg138
I0
sg95
I0
sg261
I0
sg142
I0
sg259
I0
sg81
I0
sg99
I0
sg294
I0
sg260
I0
sg266
I0
sg219
I0
sg386
I0
sg83
I0
sg73
I0
sg319
I0
sg75
I0
sg80
I0
sg79
I0
sg94
I0
sg139
I0
sg282
I0
sg86
I0
sg140
I0
sg135
I0
sg96
I0
sg85
I0
sg133
I0
sg130
I0
sg263
I0
sg132
I0
sg70
I0
sg134
I0
sg90
I0
sg76
I0
sg91
I0
sg290
I0
sg210
I0
sg131
I0
sg137
I0
sg212
I0
sg93
I0
sg213
I0
sg275
I0
sg74
I0
sg387
I0
sg98
I0
sg97
I3
sg136
I0
sg88
I0
sg100
I0
sg293
I0
sg297
I0
sg296
I0
sg215
I0
sg71
I0
sg322
I0
sg230
I0
sg218
I0
sg92
I0
sg285
I0
sg87
I0
sg262
I0
sg101
I0
sg77
I0
sg89
I0
sg78
I0
sg217
I0
sg141
I0
sg295
I0
sg69
I0
sg84
I0
sg330
I0
sg292
I0
sg277
I0
sg82
I0
ssg98
(dp514
g72
I0
sg129
I0
sg128
I0
sg138
I0
sg95
I0
sg261
I0
sg142
I0
sg259
I0
sg262
I0
sg99
I0
sg294
I0
sg260
I0
sg266
I0
sg219
I0
sg386
I0
sg83
I0
sg73
I0
sg319
I0
sg75
I0
sg80
I0
sg79
I0
sg94
I0
sg139
I0
sg282
I0
sg86
I0
sg140
I0
sg135
I0
sg96
I0
sg85
I0
sg133
I0
sg130
I0
sg263
I0
sg132
I0
sg70
I0
sg134
I0
sg90
I0
sg76
I0
sg91
I0
sg290
I0
sg210
I0
sg131
I0
sg137
I0
sg212
I0
sg93
I0
sg213
I0
sg275
I0
sg74
I0
sg387
I0
sg98
I3
sg296
I0
sg136
I0
sg88
I0
sg100
I0
sg293
I0
sg297
I0
sg97
I0
sg215
I0
sg71
I0
sg322
I0
sg230
I0
sg218
I0
sg92
I0
sg285
I0
sg87
I0
sg81
I0
sg101
I0
sg77
I0
sg89
I0
sg78
I0
sg217
I0
sg141
I0
sg295
I0
sg69
I0
sg84
I0
sg330
I0
sg292
I0
sg277
I0
sg82
I0
ssg64
(dp515
g56
I0
sg111
I0
sg29
I0
sg28
I0
sg26
I0
sg61
I0
sg53
I0
sg58
I0
sg112
I0
sg109
I0
sg350
I0
sg50
I0
sg342
I0
sg43
I0
sg25
I0
sg27
I0
sg66
I0
sg18
I0
sg44
I0
sg8
I0
sg67
I0
sg68
I0
sg108
I0
sg24
I0
sg19
I0
sg63
I0
sg11
I0
sg12
I0
sg20
I0
sg34
I0
sg31
I0
sg30
I0
sg37
I0
sg15
I0
sg16
I0
sg357
I0
sg358
I0
sg35
I0
sg32
I0
sg38
I0
sg13
I0
sg110
I0
sg55
I0
sg362
I0
sg48
I0
sg65
I0
sg41
I0
sg14
I0
sg60
I0
sg105
I0
sg365
I0
sg42
I0
sg106
I0
sg39
I0
sg36
I0
sg54
I0
sg57
I0
sg40
I0
sg62
I0
sg17
I0
sg371
I0
sg64
I3
sg107
I0
sg22
I0
sg104
I0
sg113
I0
sg46
I0
sg45
I0
sg23
I0
sg49
I0
sg59
I0
sg47
I0
sg102
I0
sg33
I0
sg9
I0
sg21
I0
sg382
I0
sg51
I0
sg10
I0
sg52
I0
sg103
I0
ssg22
(dp516
g56
I0
sg29
I0
sg28
I0
sg26
I0
sg61
I0
sg53
I0
sg58
I0
sg50
I0
sg43
I0
sg25
I0
sg27
I0
sg66
I0
sg18
I0
sg44
I0
sg8
I0
sg115
I0
sg67
I0
sg68
I0
sg124
I0
sg24
I0
sg126
I0
sg19
I0
sg63
I0
sg11
I0
sg10
I0
sg20
I0
sg34
I0
sg114
I0
sg31
I0
sg119
I0
sg30
I0
sg37
I0
sg15
I0
sg16
I0
sg116
I0
sg35
I0
sg32
I0
sg38
I0
sg13
I0
sg55
I0
sg122
I0
sg48
I0
sg65
I0
sg41
I0
sg14
I0
sg60
I0
sg127
I0
sg42
I0
sg39
I0
sg36
I0
sg54
I0
sg57
I0
sg125
I0
sg40
I0
sg117
I0
sg62
I0
sg17
I0
sg64
I0
sg22
I3
sg121
I0
sg118
I0
sg46
I0
sg45
I0
sg23
I0
sg49
I0
sg59
I0
sg123
I0
sg47
I0
sg120
I0
sg33
I0
sg9
I0
sg21
I0
sg51
I0
sg12
I0
sg52
I0
ssg77
(dp517
g232
I0
sg72
I0
sg401
I0
sg147
I0
sg148
I0
sg95
I0
sg261
I0
sg229
I0
sg259
I0
sg81
I0
sg99
I0
sg154
I0
sg172
I0
sg155
I0
sg266
I0
sg402
I0
sg83
I0
sg73
I0
sg222
I0
sg75
I0
sg80
I0
sg79
I0
sg181
I0
sg94
I0
sg165
I0
sg177
I0
sg282
I0
sg86
I0
sg191
I0
sg168
I0
sg96
I0
sg85
I0
sg403
I0
sg404
I0
sg263
I0
sg174
I0
sg70
I0
sg175
I0
sg90
I0
sg76
I0
sg91
I0
sg179
I0
sg405
I0
sg180
I0
sg224
I0
sg93
I0
sg183
I0
sg74
I0
sg185
I0
sg98
I0
sg296
I0
sg188
I0
sg88
I0
sg214
I0
sg220
I0
sg100
I0
sg227
I0
sg211
I0
sg297
I0
sg97
I0
sg406
I0
sg71
I0
sg171
I0
sg407
I0
sg142
I0
sg216
I0
sg92
I0
sg285
I0
sg87
I0
sg262
I0
sg101
I0
sg77
I0
sg89
I0
sg78
I3
sg228
I0
sg295
I0
sg69
I0
sg84
I0
sg205
I0
sg292
I0
sg277
I0
sg82
I0
ssg89
(dp518
g232
I0
sg72
I0
sg401
I0
sg147
I0
sg148
I0
sg95
I0
sg261
I0
sg229
I0
sg259
I0
sg81
I0
sg99
I0
sg154
I0
sg172
I0
sg155
I0
sg266
I0
sg402
I0
sg83
I0
sg73
I0
sg222
I0
sg75
I0
sg80
I0
sg79
I0
sg181
I0
sg94
I0
sg165
I0
sg177
I0
sg282
I0
sg86
I0
sg191
I0
sg168
I0
sg96
I0
sg85
I0
sg403
I0
sg404
I0
sg263
I0
sg174
I0
sg70
I0
sg175
I0
sg90
I0
sg76
I0
sg91
I0
sg179
I0
sg405
I0
sg180
I0
sg224
I0
sg93
I0
sg183
I0
sg74
I0
sg185
I0
sg98
I0
sg296
I0
sg188
I0
sg88
I0
sg214
I0
sg220
I0
sg100
I0
sg227
I0
sg211
I0
sg297
I0
sg97
I0
sg406
I0
sg71
I0
sg171
I0
sg407
I0
sg142
I0
sg216
I0
sg92
I0
sg285
I0
sg87
I0
sg262
I0
sg101
I0
sg77
I0
sg89
I3
sg78
I0
sg228
I0
sg295
I0
sg69
I0
sg84
I0
sg205
I0
sg292
I0
sg277
I0
sg82
I0
ssg78
(dp519
g232
I0
sg72
I0
sg401
I0
sg147
I0
sg148
I0
sg95
I0
sg261
I0
sg229
I0
sg259
I0
sg81
I0
sg99
I0
sg154
I0
sg172
I0
sg155
I0
sg266
I0
sg402
I0
sg83
I0
sg73
I0
sg222
I0
sg75
I0
sg80
I0
sg79
I0
sg181
I0
sg94
I0
sg165
I0
sg177
I0
sg282
I0
sg86
I0
sg191
I0
sg168
I0
sg96
I0
sg85
I0
sg403
I0
sg404
I0
sg263
I0
sg174
I0
sg70
I0
sg175
I0
sg90
I0
sg76
I0
sg91
I0
sg179
I0
sg405
I0
sg180
I0
sg224
I0
sg93
I0
sg183
I0
sg74
I0
sg185
I0
sg98
I0
sg296
I0
sg188
I0
sg88
I0
sg214
I0
sg220
I0
sg100
I0
sg227
I0
sg211
I0
sg297
I0
sg97
I0
sg406
I0
sg71
I0
sg171
I0
sg407
I0
sg142
I0
sg216
I0
sg92
I0
sg285
I0
sg87
I0
sg262
I0
sg101
I0
sg77
I0
sg89
I0
sg78
I0
sg228
I0
sg295
I0
sg69
I0
sg84
I0
sg205
I0
sg292
I0
sg277
I0
sg82
I0
ssg48
(dp520
g142
I0
sg43
I0
sg44
I0
sg234
I0
sg210
I0
sg235
I0
sg236
I0
sg237
I0
sg212
I0
sg213
I0
sg136
I0
sg41
I0
sg135
I0
sg189
I0
sg238
I0
sg239
I0
sg215
I0
sg17
I0
sg240
I0
sg112
I0
sg50
I0
sg49
I0
sg241
I0
sg47
I0
sg33
I0
sg242
I0
sg218
I0
sg243
I0
sg13
I0
sg26
I0
sg61
I0
sg45
I0
sg23
I0
sg244
I0
sg226
I0
sg18
I0
sg8
I0
sg67
I0
sg68
I0
sg245
I0
sg24
I0
sg221
I0
sg38
I0
sg37
I0
sg113
I0
sg35
I0
sg34
I0
sg137
I0
sg223
I0
sg130
I0
sg246
I0
sg247
I0
sg54
I0
sg64
I0
sg22
I0
sg199
I0
sg200
I0
sg201
I0
sg9
I0
sg21
I0
sg51
I0
sg52
I0
sg248
I0
sg29
I0
sg28
I0
sg53
I0
sg128
I0
sg65
I0
sg138
I0
sg149
I0
sg66
I0
sg158
I0
sg19
I0
sg63
I0
sg249
I0
sg20
I0
sg140
I0
sg139
I0
sg134
I0
sg133
I0
sg39
I0
sg250
I0
sg32
I0
sg251
I0
sg55
I0
sg252
I0
sg42
I0
sg36
I0
sg58
I0
sg151
I0
sg197
I0
sg59
I0
sg204
I0
sg253
I0
sg254
I0
sg56
I0
sg255
I0
sg256
I0
sg129
I0
sg225
I0
sg25
I0
sg27
I0
sg230
I0
sg231
I0
sg219
I0
sg11
I0
sg10
I0
sg167
I0
sg31
I0
sg170
I0
sg30
I0
sg15
I0
sg16
I0
sg217
I0
sg40
I0
sg131
I0
sg48
I3
sg184
I0
sg163
I0
sg14
I0
sg57
I0
sg62
I0
sg46
I0
sg132
I0
sg141
I0
sg162
I0
sg60
I0
sg208
I0
sg12
I0
sg257
I0
ssg21
(dp521
g56
I0
sg29
I0
sg28
I0
sg26
I0
sg61
I0
sg53
I0
sg58
I0
sg50
I0
sg43
I0
sg25
I0
sg27
I0
sg66
I0
sg18
I0
sg44
I0
sg8
I0
sg115
I0
sg67
I0
sg68
I0
sg124
I0
sg24
I0
sg126
I0
sg19
I0
sg63
I0
sg11
I0
sg10
I0
sg20
I0
sg34
I0
sg114
I0
sg31
I0
sg119
I0
sg30
I0
sg37
I0
sg15
I0
sg16
I0
sg116
I0
sg35
I0
sg32
I0
sg38
I0
sg13
I0
sg55
I0
sg122
I0
sg48
I0
sg65
I0
sg41
I0
sg14
I0
sg60
I0
sg127
I0
sg42
I0
sg39
I0
sg36
I0
sg54
I0
sg57
I0
sg125
I0
sg40
I0
sg117
I0
sg62
I0
sg17
I0
sg64
I0
sg22
I0
sg121
I0
sg118
I0
sg46
I0
sg45
I0
sg23
I0
sg49
I0
sg59
I0
sg123
I0
sg47
I0
sg120
I0
sg33
I0
sg9
I0
sg21
I3
sg51
I0
sg12
I0
sg52
I0
ssg51
(dp522
g142
I0
sg43
I0
sg44
I0
sg365
I0
sg210
I0
sg102
I0
sg236
I0
sg237
I0
sg212
I0
sg213
I0
sg136
I0
sg41
I0
sg135
I0
sg189
I0
sg105
I0
sg239
I0
sg215
I0
sg17
I0
sg112
I0
sg104
I0
sg50
I0
sg49
I0
sg241
I0
sg47
I0
sg217
I0
sg33
I0
sg382
I0
sg218
I0
sg243
I0
sg13
I0
sg26
I0
sg61
I0
sg45
I0
sg23
I0
sg244
I0
sg151
I0
sg18
I0
sg8
I0
sg219
I0
sg67
I0
sg68
I0
sg108
I0
sg24
I0
sg269
I0
sg38
I0
sg37
I0
sg113
I0
sg35
I0
sg34
I0
sg137
I0
sg273
I0
sg130
I0
sg109
I0
sg247
I0
sg54
I0
sg64
I0
sg22
I0
sg199
I0
sg200
I0
sg201
I0
sg48
I0
sg21
I0
sg51
I3
sg52
I3
sg103
I0
sg342
I0
sg29
I0
sg28
I0
sg53
I0
sg128
I0
sg65
I0
sg138
I0
sg149
I0
sg66
I0
sg158
I0
sg19
I0
sg63
I0
sg249
I0
sg20
I0
sg140
I0
sg139
I0
sg134
I0
sg133
I0
sg39
I0
sg357
I0
sg32
I0
sg110
I0
sg55
I0
sg252
I0
sg42
I0
sg36
I0
sg371
I0
sg58
I0
sg286
I0
sg197
I0
sg59
I0
sg204
I0
sg106
I0
sg107
I0
sg56
I0
sg111
I0
sg256
I0
sg129
I0
sg290
I0
sg25
I0
sg27
I0
sg230
I0
sg291
I0
sg350
I0
sg11
I0
sg10
I0
sg167
I0
sg31
I0
sg170
I0
sg30
I0
sg15
I0
sg16
I0
sg358
I0
sg40
I0
sg131
I0
sg9
I0
sg362
I0
sg163
I0
sg14
I0
sg57
I0
sg62
I0
sg46
I0
sg132
I0
sg141
I0
sg162
I0
sg60
I0
sg208
I0
sg12
I0
sg257
I0
ssg52
(dp523
g142
I0
sg43
I0
sg44
I0
sg73
I0
sg102
I0
sg90
I0
sg91
I0
sg188
I0
sg41
I0
sg168
I0
sg88
I0
sg105
I0
sg100
I0
sg17
I0
sg104
I0
sg112
I0
sg50
I0
sg49
I0
sg47
I0
sg33
I0
sg69
I0
sg101
I0
sg13
I0
sg26
I0
sg61
I0
sg45
I0
sg23
I0
sg99
I0
sg87
I0
sg18
I0
sg8
I0
sg67
I0
sg68
I0
sg108
I0
sg24
I0
sg109
I0
sg38
I0
sg37
I0
sg113
I0
sg35
I0
sg34
I0
sg181
I0
sg172
I0
sg54
I0
sg97
I0
sg98
I0
sg64
I0
sg22
I0
sg77
I0
sg89
I0
sg78
I0
sg48
I0
sg21
I0
sg51
I0
sg52
I0
sg82
I3
sg72
I0
sg29
I0
sg28
I0
sg53
I0
sg147
I0
sg65
I0
sg148
I0
sg95
I0
sg66
I0
sg83
I0
sg19
I0
sg63
I0
sg94
I0
sg20
I0
sg165
I0
sg175
I0
sg171
I0
sg39
I0
sg76
I0
sg32
I0
sg110
I0
sg55
I0
sg93
I0
sg42
I0
sg36
I0
sg71
I0
sg58
I0
sg81
I0
sg59
I0
sg84
I0
sg106
I0
sg107
I0
sg56
I0
sg111
I0
sg46
I0
sg177
I0
sg179
I0
sg25
I0
sg27
I0
sg75
I0
sg11
I0
sg10
I0
sg86
I0
sg31
I0
sg85
I0
sg30
I0
sg15
I0
sg16
I0
sg70
I0
sg40
I0
sg180
I0
sg9
I0
sg74
I0
sg14
I0
sg57
I0
sg62
I0
sg12
I0
sg92
I0
sg174
I0
sg80
I0
sg60
I0
sg103
I0
sg79
I0
sg96
I0
ssg82
(dp524
g232
I0
sg72
I0
sg401
I0
sg147
I0
sg148
I0
sg95
I0
sg261
I0
sg229
I0
sg259
I0
sg81
I0
sg99
I0
sg154
I0
sg172
I0
sg155
I0
sg266
I0
sg402
I0
sg83
I0
sg73
I0
sg222
I0
sg75
I0
sg80
I0
sg79
I0
sg181
I0
sg94
I0
sg165
I0
sg177
I0
sg282
I0
sg86
I0
sg191
I0
sg168
I0
sg96
I0
sg85
I0
sg403
I0
sg404
I0
sg263
I0
sg174
I0
sg70
I0
sg175
I0
sg90
I0
sg76
I0
sg91
I0
sg179
I0
sg405
I0
sg180
I0
sg224
I0
sg93
I0
sg183
I0
sg74
I0
sg185
I0
sg98
I0
sg296
I0
sg188
I0
sg88
I0
sg214
I0
sg220
I0
sg100
I0
sg227
I0
sg211
I0
sg297
I0
sg97
I0
sg406
I0
sg71
I0
sg171
I0
sg407
I0
sg142
I0
sg216
I0
sg92
I0
sg285
I0
sg87
I0
sg262
I0
sg101
I0
sg77
I0
sg89
I0
sg78
I0
sg228
I0
sg295
I0
sg69
I0
sg84
I0
sg205
I0
sg292
I0
sg277
I0
sg82
I0
ssg72
(dp525
g288
I0
sg72
I3
sg264
I0
sg278
I0
sg279
I0
sg95
I0
sg261
I0
sg111
I0
sg280
I0
sg259
I0
sg81
I0
sg99
I0
sg287
I0
sg266
I0
sg267
I0
sg83
I0
sg73
I0
sg103
I0
sg75
I0
sg281
I0
sg80
I0
sg79
I0
sg94
I0
sg282
I0
sg86
I0
sg96
I0
sg85
I0
sg270
I0
sg271
I0
sg263
I0
sg109
I0
sg70
I0
sg90
I0
sg76
I0
sg91
I0
sg299
I0
sg110
I0
sg284
I0
sg93
I0
sg74
I0
sg268
I0
sg98
I0
sg296
I0
sg88
I0
sg105
I0
sg108
I0
sg100
I0
sg106
I0
sg102
I0
sg283
I0
sg297
I0
sg97
I0
sg298
I0
sg301
I0
sg71
I0
sg274
I0
sg265
I0
sg104
I0
sg272
I0
sg92
I0
sg285
I0
sg87
I0
sg262
I0
sg101
I0
sg77
I0
sg89
I0
sg78
I0
sg107
I0
sg295
I0
sg300
I0
sg69
I0
sg84
I0
sg276
I0
sg292
I0
sg277
I0
sg82
I0
ssg29
(dp526
g56
I0
sg29
I0
sg28
I0
sg26
I0
sg61
I0
sg53
I0
sg58
I0
sg50
I0
sg43
I0
sg25
I0
sg27
I0
sg66
I0
sg18
I0
sg44
I0
sg8
I0
sg115
I0
sg67
I0
sg68
I0
sg124
I0
sg24
I0
sg126
I0
sg19
I0
sg63
I0
sg11
I0
sg12
I0
sg20
I0
sg34
I0
sg114
I0
sg31
I0
sg119
I0
sg30
I0
sg37
I0
sg15
I0
sg16
I0
sg116
I0
sg35
I0
sg32
I0
sg38
I0
sg13
I0
sg55
I0
sg122
I0
sg48
I0
sg65
I0
sg41
I0
sg14
I0
sg60
I0
sg127
I0
sg42
I0
sg39
I0
sg36
I0
sg54
I0
sg57
I0
sg125
I0
sg40
I0
sg117
I0
sg62
I0
sg17
I0
sg64
I0
sg22
I0
sg121
I0
sg118
I0
sg46
I0
sg45
I0
sg23
I0
sg49
I0
sg59
I0
sg123
I0
sg47
I0
sg120
I0
sg33
I0
sg9
I0
sg21
I0
sg51
I0
sg10
I0
sg52
I0
ssg28
(dp527
g56
I0
sg29
I3
sg28
I0
sg26
I0
sg61
I0
sg53
I0
sg58
I0
sg50
I0
sg43
I0
sg25
I0
sg27
I0
sg66
I0
sg18
I0
sg44
I0
sg8
I0
sg115
I0
sg67
I0
sg68
I0
sg124
I0
sg24
I0
sg126
I0
sg19
I0
sg63
I0
sg11
I0
sg10
I0
sg20
I0
sg34
I0
sg114
I0
sg31
I0
sg119
I0
sg30
I0
sg37
I0
sg15
I0
sg16
I0
sg116
I0
sg35
I0
sg32
I0
sg38
I0
sg13
I0
sg55
I0
sg122
I0
sg48
I0
sg65
I0
sg41
I0
sg14
I0
sg60
I0
sg127
I0
sg42
I0
sg39
I0
sg36
I0
sg54
I0
sg57
I0
sg125
I0
sg40
I0
sg117
I0
sg62
I0
sg17
I0
sg64
I0
sg22
I0
sg121
I0
sg118
I0
sg46
I0
sg45
I0
sg23
I0
sg49
I0
sg59
I0
sg123
I0
sg47
I0
sg120
I0
sg33
I0
sg9
I0
sg21
I0
sg51
I0
sg12
I0
sg52
I0
ssg53
(dp528
g56
I0
sg111
I0
sg29
I0
sg28
I0
sg26
I0
sg61
I0
sg53
I0
sg58
I0
sg112
I0
sg109
I0
sg350
I0
sg50
I0
sg342
I0
sg43
I0
sg25
I0
sg27
I0
sg66
I0
sg18
I0
sg44
I0
sg8
I0
sg67
I0
sg68
I0
sg108
I0
sg24
I0
sg19
I0
sg63
I0
sg11
I0
sg10
I0
sg20
I0
sg34
I0
sg31
I0
sg30
I0
sg37
I0
sg15
I0
sg16
I0
sg357
I0
sg358
I0
sg35
I0
sg32
I0
sg38
I0
sg13
I0
sg110
I0
sg55
I0
sg362
I0
sg48
I0
sg65
I0
sg41
I0
sg14
I0
sg60
I0
sg105
I0
sg365
I0
sg42
I0
sg106
I0
sg39
I0
sg36
I0
sg54
I3
sg57
I0
sg40
I0
sg62
I0
sg17
I0
sg371
I0
sg64
I0
sg107
I0
sg22
I0
sg104
I0
sg113
I0
sg46
I0
sg45
I0
sg23
I0
sg49
I0
sg59
I0
sg47
I0
sg102
I0
sg33
I0
sg9
I0
sg21
I0
sg382
I0
sg51
I0
sg12
I0
sg52
I0
sg103
I0
ssg128
(dp529
g289
I0
sg149
I0
sg128
I0
sg138
I0
sg184
I0
sg322
I0
sg142
I0
sg314
I0
sg197
I0
sg244
I0
sg294
I0
sg260
I0
sg392
I0
sg230
I0
sg386
I0
sg167
I0
sg387
I0
sg234
I0
sg291
I0
sg286
I0
sg219
I0
sg273
I0
sg162
I0
sg393
I0
sg249
I0
sg139
I0
sg394
I0
sg319
I0
sg140
I0
sg135
I0
sg134
I0
sg133
I0
sg293
I0
sg132
I0
sg217
I0
sg170
I0
sg236
I0
sg129
I3
sg237
I0
sg290
I0
sg210
I0
sg131
I0
sg137
I0
sg212
I0
sg130
I0
sg213
I0
sg275
I0
sg252
I0
sg158
I0
sg241
I0
sg247
I0
sg136
I0
sg189
I0
sg239
I0
sg192
I0
sg395
I0
sg215
I0
sg204
I0
sg151
I0
sg218
I0
sg256
I0
sg195
I0
sg396
I0
sg334
I0
sg163
I0
sg199
I0
sg269
I0
sg200
I0
sg335
I0
sg201
I0
sg141
I0
sg397
I0
sg242
I0
sg208
I0
sg330
I0
sg243
I0
sg207
I0
sg257
I0
ssg65
(dp530
g56
I0
sg111
I0
sg29
I0
sg28
I0
sg26
I0
sg61
I0
sg53
I0
sg65
I0
sg112
I0
sg109
I0
sg350
I0
sg50
I0
sg342
I0
sg43
I0
sg25
I0
sg27
I0
sg66
I3
sg18
I0
sg44
I0
sg8
I0
sg67
I0
sg68
I0
sg108
I0
sg24
I0
sg19
I0
sg63
I0
sg11
I0
sg10
I0
sg20
I0
sg34
I0
sg31
I0
sg30
I0
sg37
I0
sg15
I0
sg16
I0
sg58
I0
sg357
I0
sg358
I0
sg35
I0
sg32
I0
sg38
I0
sg13
I0
sg110
I0
sg55
I0
sg48
I0
sg362
I0
sg41
I0
sg14
I0
sg60
I0
sg105
I0
sg365
I0
sg42
I0
sg106
I0
sg39
I0
sg36
I0
sg54
I0
sg57
I0
sg40
I0
sg62
I0
sg17
I0
sg371
I0
sg64
I0
sg107
I0
sg22
I0
sg104
I0
sg113
I0
sg46
I0
sg45
I0
sg23
I0
sg49
I0
sg59
I0
sg47
I0
sg102
I0
sg33
I0
sg9
I0
sg21
I0
sg382
I0
sg51
I0
sg12
I0
sg52
I0
sg103
I0
ssg138
(dp531
g289
I0
sg149
I0
sg128
I0
sg138
I0
sg184
I0
sg322
I0
sg142
I0
sg314
I0
sg197
I0
sg244
I0
sg294
I0
sg260
I0
sg392
I0
sg230
I0
sg386
I0
sg167
I0
sg387
I0
sg234
I0
sg291
I0
sg286
I0
sg219
I0
sg273
I0
sg162
I0
sg393
I0
sg249
I0
sg139
I0
sg394
I0
sg319
I0
sg140
I0
sg135
I0
sg134
I0
sg133
I0
sg293
I0
sg132
I0
sg217
I0
sg170
I0
sg236
I0
sg129
I0
sg237
I0
sg290
I0
sg210
I0
sg131
I0
sg137
I0
sg212
I0
sg130
I0
sg213
I0
sg275
I0
sg252
I0
sg158
I0
sg241
I0
sg395
I0
sg136
I0
sg189
I0
sg239
I0
sg192
I0
sg247
I0
sg215
I0
sg204
I0
sg151
I0
sg218
I0
sg256
I0
sg195
I0
sg396
I0
sg334
I0
sg163
I0
sg199
I0
sg269
I0
sg200
I0
sg335
I0
sg201
I0
sg141
I0
sg397
I0
sg242
I0
sg208
I0
sg330
I0
sg243
I0
sg207
I0
sg257
I0
ssg95
(dp532
g72
I0
sg177
I0
sg147
I0
sg148
I0
sg95
I2
sg261
I0
sg142
I0
sg259
I0
sg81
I0
sg99
I0
sg154
I0
sg155
I0
sg266
I0
sg157
I0
sg83
I0
sg73
I0
sg160
I0
sg75
I0
sg80
I0
sg79
I0
sg94
I0
sg165
I0
sg282
I0
sg86
I0
sg168
I0
sg96
I0
sg85
I0
sg171
I0
sg172
I0
sg263
I0
sg174
I0
sg70
I0
sg175
I0
sg90
I0
sg76
I0
sg91
I0
sg179
I0
sg180
I0
sg181
I0
sg93
I0
sg183
I0
sg74
I0
sg185
I0
sg98
I0
sg296
I0
sg188
I0
sg88
I0
sg100
I0
sg191
I0
sg297
I0
sg97
I0
sg71
I0
sg150
I0
sg92
I0
sg285
I0
sg87
I0
sg262
I0
sg101
I0
sg77
I0
sg89
I0
sg78
I0
sg295
I0
sg69
I0
sg84
I0
sg205
I0
sg292
I0
sg277
I0
sg82
I0
ssg66
(dp533
g56
I0
sg111
I0
sg29
I0
sg28
I0
sg26
I0
sg61
I0
sg53
I0
sg58
I0
sg112
I0
sg109
I0
sg350
I0
sg50
I0
sg342
I0
sg43
I0
sg25
I0
sg27
I0
sg66
I0
sg18
I0
sg44
I0
sg8
I0
sg67
I0
sg68
I0
sg108
I0
sg24
I0
sg19
I0
sg63
I0
sg11
I0
sg10
I0
sg20
I0
sg34
I0
sg31
I0
sg30
I0
sg37
I0
sg15
I0
sg16
I0
sg357
I0
sg358
I0
sg35
I0
sg32
I0
sg38
I0
sg13
I0
sg110
I0
sg55
I0
sg362
I0
sg48
I0
sg65
I0
sg41
I0
sg14
I0
sg60
I0
sg105
I0
sg365
I0
sg42
I0
sg106
I0
sg39
I0
sg36
I0
sg54
I0
sg57
I0
sg40
I0
sg62
I0
sg17
I0
sg371
I0
sg64
I0
sg107
I0
sg22
I0
sg104
I0
sg113
I0
sg46
I0
sg45
I0
sg23
I0
sg49
I0
sg59
I0
sg47
I0
sg102
I0
sg33
I0
sg9
I0
sg21
I0
sg382
I0
sg51
I0
sg12
I0
sg52
I0
sg103
I0
ssg83
(dp534
g232
I0
sg72
I0
sg401
I0
sg147
I0
sg148
I0
sg95
I0
sg261
I0
sg229
I0
sg259
I0
sg81
I0
sg99
I0
sg154
I0
sg172
I0
sg155
I0
sg266
I0
sg402
I0
sg83
I3
sg73
I0
sg222
I0
sg75
I0
sg80
I0
sg79
I0
sg181
I0
sg94
I0
sg165
I0
sg177
I0
sg282
I0
sg86
I0
sg191
I0
sg168
I0
sg96
I0
sg85
I0
sg403
I0
sg404
I0
sg263
I0
sg174
I0
sg70
I0
sg175
I0
sg90
I0
sg76
I0
sg91
I0
sg179
I0
sg405
I0
sg180
I0
sg224
I0
sg93
I0
sg183
I0
sg74
I0
sg185
I0
sg98
I0
sg296
I0
sg188
I0
sg88
I0
sg214
I0
sg220
I0
sg100
I0
sg227
I0
sg211
I0
sg297
I0
sg97
I0
sg406
I0
sg71
I0
sg171
I0
sg407
I0
sg142
I0
sg216
I0
sg92
I0
sg285
I0
sg87
I0
sg262
I0
sg101
I0
sg77
I0
sg89
I0
sg78
I0
sg228
I0
sg295
I0
sg69
I0
sg84
I0
sg205
I0
sg292
I0
sg277
I0
sg82
I0
ssg19
(dp535
g56
I0
sg29
I0
sg28
I0
sg26
I0
sg61
I0
sg53
I0
sg58
I0
sg50
I0
sg43
I0
sg25
I0
sg27
I0
sg66
I0
sg18
I0
sg44
I0
sg8
I0
sg115
I0
sg67
I0
sg68
I0
sg124
I0
sg24
I0
sg126
I0
sg19
I0
sg63
I0
sg11
I0
sg10
I0
sg20
I6
sg34
I0
sg114
I0
sg31
I0
sg119
I0
sg30
I0
sg37
I0
sg15
I0
sg16
I0
sg116
I0
sg35
I0
sg32
I0
sg38
I0
sg13
I0
sg55
I0
sg122
I0
sg48
I0
sg65
I0
sg41
I0
sg14
I0
sg60
I0
sg127
I0
sg42
I0
sg39
I0
sg36
I0
sg54
I0
sg57
I0
sg125
I0
sg40
I0
sg117
I0
sg62
I0
sg17
I0
sg64
I0
sg22
I0
sg121
I0
sg118
I0
sg46
I0
sg45
I0
sg23
I0
sg49
I0
sg59
I0
sg123
I0
sg47
I0
sg120
I0
sg33
I0
sg9
I0
sg21
I0
sg51
I0
sg12
I0
sg52
I0
ssg63
(dp536
g56
I0
sg111
I0
sg29
I0
sg28
I0
sg26
I0
sg61
I0
sg53
I0
sg58
I0
sg112
I0
sg109
I0
sg350
I0
sg50
I0
sg342
I0
sg43
I0
sg25
I0
sg27
I0
sg66
I0
sg18
I0
sg44
I0
sg8
I0
sg67
I0
sg68
I0
sg108
I0
sg24
I0
sg19
I0
sg63
I3
sg11
I0
sg10
I0
sg20
I0
sg34
I0
sg31
I0
sg30
I0
sg37
I0
sg15
I0
sg16
I0
sg357
I0
sg358
I0
sg35
I0
sg32
I0
sg38
I0
sg13
I0
sg110
I0
sg55
I0
sg362
I0
sg48
I0
sg65
I0
sg41
I0
sg14
I0
sg60
I0
sg105
I0
sg365
I0
sg42
I0
sg106
I0
sg39
I0
sg36
I0
sg54
I0
sg57
I0
sg40
I0
sg62
I0
sg17
I0
sg371
I0
sg64
I0
sg107
I0
sg22
I0
sg104
I0
sg113
I0
sg46
I0
sg45
I0
sg23
I0
sg49
I0
sg59
I0
sg47
I0
sg102
I0
sg33
I0
sg9
I0
sg21
I0
sg382
I0
sg51
I0
sg12
I0
sg52
I0
sg103
I0
ssg94
(dp537
g72
I0
sg129
I0
sg128
I0
sg138
I0
sg95
I0
sg261
I0
sg142
I0
sg259
I0
sg81
I0
sg99
I0
sg294
I0
sg260
I0
sg266
I0
sg219
I0
sg386
I0
sg83
I0
sg73
I0
sg319
I0
sg75
I0
sg80
I0
sg79
I0
sg94
I3
sg139
I0
sg282
I0
sg86
I0
sg140
I0
sg135
I0
sg96
I0
sg85
I0
sg133
I0
sg130
I0
sg263
I0
sg132
I0
sg70
I0
sg134
I0
sg90
I0
sg76
I0
sg91
I0
sg290
I0
sg210
I0
sg131
I0
sg137
I0
sg212
I0
sg93
I0
sg213
I0
sg275
I0
sg74
I0
sg387
I0
sg98
I0
sg296
I0
sg136
I0
sg88
I0
sg100
I0
sg293
I0
sg297
I0
sg97
I0
sg215
I0
sg71
I0
sg322
I0
sg230
I0
sg218
I0
sg92
I0
sg285
I0
sg87
I0
sg262
I0
sg101
I0
sg77
I0
sg89
I0
sg78
I0
sg217
I0
sg141
I0
sg295
I0
sg69
I0
sg84
I0
sg330
I0
sg292
I0
sg277
I0
sg82
I0
ssg20
(dp538
g142
I0
sg43
I0
sg44
I0
sg73
I0
sg119
I0
sg102
I0
sg90
I0
sg91
I0
sg121
I0
sg122
I0
sg136
I0
sg41
I0
sg135
I0
sg88
I0
sg105
I0
sg100
I0
sg117
I0
sg17
I0
sg104
I0
sg112
I0
sg50
I0
sg49
I0
sg47
I0
sg116
I0
sg33
I0
sg69
I0
sg118
I0
sg101
I0
sg13
I0
sg26
I0
sg61
I0
sg45
I0
sg23
I0
sg99
I0
sg87
I0
sg18
I0
sg8
I0
sg140
I0
sg67
I0
sg68
I0
sg108
I0
sg24
I0
sg123
I0
sg109
I0
sg38
I0
sg37
I0
sg113
I0
sg35
I0
sg34
I0
sg137
I0
sg127
I0
sg130
I0
sg54
I0
sg97
I0
sg98
I0
sg64
I0
sg22
I0
sg77
I0
sg89
I0
sg78
I0
sg48
I0
sg21
I0
sg51
I0
sg52
I0
sg82
I0
sg72
I0
sg29
I0
sg28
I0
sg53
I0
sg128
I0
sg65
I0
sg138
I0
sg95
I0
sg66
I0
sg83
I0
sg19
I0
sg63
I0
sg94
I0
sg20
I54
sg114
I0
sg139
I0
sg134
I0
sg133
I0
sg39
I0
sg76
I0
sg32
I0
sg110
I0
sg55
I0
sg93
I0
sg42
I0
sg36
I0
sg71
I0
sg58
I0
sg126
I0
sg81
I0
sg59
I0
sg84
I0
sg106
I0
sg107
I0
sg56
I0
sg111
I0
sg46
I0
sg129
I0
sg120
I0
sg125
I0
sg25
I0
sg27
I0
sg115
I0
sg124
I0
sg75
I0
sg11
I0
sg10
I0
sg86
I0
sg31
I0
sg85
I0
sg30
I0
sg15
I0
sg16
I0
sg70
I0
sg40
I0
sg131
I0
sg9
I0
sg74
I0
sg14
I0
sg57
I0
sg62
I0
sg12
I0
sg92
I0
sg132
I0
sg141
I0
sg80
I0
sg60
I0
sg103
I0
sg79
I0
sg96
I0
ssg114
(dp539
g303
I0
sg304
I0
sg305
I0
sg128
I0
sg138
I0
sg125
I0
sg126
I0
sg306
I0
sg140
I0
sg307
I0
sg244
I0
sg308
I0
sg123
I0
sg309
I0
sg115
I0
sg310
I0
sg311
I0
sg260
I0
sg124
I0
sg312
I0
sg313
I0
sg314
I0
sg315
I0
sg316
I0
sg249
I0
sg317
I0
sg318
I0
sg319
I0
sg114
I3
sg127
I0
sg134
I0
sg119
I0
sg320
I0
sg321
I0
sg322
I0
sg120
I0
sg132
I0
sg236
I0
sg129
I0
sg237
I0
sg323
I0
sg324
I0
sg325
I0
sg137
I0
sg121
I0
sg130
I0
sg122
I0
sg131
I0
sg252
I0
sg241
I0
sg326
I0
sg136
I0
sg234
I0
sg239
I0
sg275
I0
sg327
I0
sg247
I0
sg117
I0
sg139
I0
sg328
I0
sg135
I0
sg133
I0
sg329
I0
sg330
I0
sg331
I0
sg332
I0
sg333
I0
sg334
I0
sg243
I0
sg256
I0
sg335
I0
sg116
I0
sg141
I0
sg336
I0
sg337
I0
sg242
I0
sg118
I0
sg338
I0
sg257
I0
ssg139
(dp540
g289
I0
sg149
I0
sg128
I0
sg138
I0
sg184
I0
sg322
I0
sg142
I0
sg314
I0
sg197
I0
sg244
I0
sg294
I0
sg260
I0
sg392
I0
sg230
I0
sg386
I0
sg167
I0
sg387
I0
sg234
I0
sg291
I0
sg286
I0
sg219
I0
sg273
I0
sg162
I0
sg393
I0
sg249
I0
sg394
I0
sg319
I0
sg140
I2
sg139
I1
sg134
I0
sg133
I0
sg293
I0
sg132
I0
sg217
I0
sg170
I0
sg236
I0
sg129
I0
sg237
I0
sg290
I0
sg210
I0
sg131
I0
sg137
I0
sg212
I0
sg130
I0
sg213
I0
sg275
I0
sg252
I0
sg158
I0
sg241
I0
sg247
I0
sg136
I0
sg189
I0
sg239
I0
sg192
I0
sg395
I0
sg215
I0
sg135
I0
sg204
I0
sg151
I0
sg218
I0
sg256
I0
sg195
I0
sg396
I0
sg334
I0
sg163
I0
sg199
I0
sg269
I0
sg200
I0
sg335
I0
sg201
I0
sg141
I0
sg397
I0
sg242
I0
sg208
I0
sg330
I0
sg243
I0
sg207
I0
sg257
I0
ssg134
(dp541
g149
I0
sg128
I0
sg138
I0
sg184
I0
sg322
I0
sg142
I0
sg314
I0
sg197
I0
sg244
I0
sg294
I0
sg260
I0
sg392
I0
sg230
I0
sg386
I0
sg167
I0
sg387
I0
sg234
I0
sg219
I0
sg162
I0
sg393
I0
sg249
I0
sg139
I0
sg394
I0
sg319
I0
sg140
I0
sg135
I0
sg134
I0
sg133
I0
sg293
I0
sg132
I0
sg217
I0
sg170
I0
sg236
I0
sg129
I0
sg237
I0
sg290
I0
sg210
I0
sg131
I0
sg137
I0
sg212
I0
sg130
I0
sg213
I0
sg275
I0
sg252
I0
sg158
I0
sg241
I0
sg247
I0
sg136
I0
sg189
I0
sg239
I0
sg192
I0
sg395
I0
sg215
I0
sg204
I0
sg151
I0
sg218
I0
sg256
I0
sg195
I0
sg396
I0
sg334
I0
sg163
I0
sg199
I0
sg200
I0
sg335
I0
sg201
I0
sg141
I0
sg397
I0
sg242
I0
sg208
I0
sg330
I0
sg243
I0
sg207
I0
sg257
I0
ssg133
(dp542
g289
I0
sg149
I0
sg128
I0
sg138
I0
sg184
I0
sg322
I0
sg142
I0
sg314
I0
sg197
I0
sg244
I0
sg294
I0
sg260
I0
sg392
I0
sg230
I0
sg386
I0
sg167
I0
sg387
I0
sg234
I0
sg291
I0
sg286
I0
sg219
I0
sg273
I0
sg162
I0
sg393
I0
sg249
I0
sg139
I0
sg394
I0
sg319
I0
sg140
I0
sg135
I0
sg134
I2
sg133
I1
sg293
I0
sg132
I0
sg217
I0
sg170
I0
sg236
I0
sg129
I0
sg237
I0
sg290
I0
sg210
I0
sg131
I0
sg137
I0
sg212
I0
sg130
I0
sg213
I0
sg275
I0
sg252
I0
sg158
I0
sg241
I0
sg247
I0
sg136
I0
sg189
I0
sg239
I0
sg192
I0
sg395
I0
sg215
I0
sg204
I0
sg151
I0
sg218
I0
sg256
I0
sg195
I0
sg396
I0
sg334
I0
sg163
I0
sg199
I0
sg269
I0
sg200
I0
sg335
I0
sg201
I0
sg141
I0
sg397
I0
sg242
I0
sg208
I0
sg330
I0
sg243
I0
sg207
I0
sg257
I0
ssg39
(dp543
g56
I0
sg255
I0
sg29
I0
sg28
I0
sg26
I0
sg61
I0
sg53
I0
sg58
I0
sg246
I0
sg50
I0
sg43
I0
sg25
I0
sg27
I0
sg66
I0
sg18
I0
sg44
I0
sg8
I0
sg67
I0
sg68
I0
sg245
I0
sg231
I0
sg24
I0
sg226
I0
sg19
I0
sg63
I0
sg11
I0
sg10
I0
sg20
I0
sg34
I0
sg223
I0
sg31
I0
sg30
I0
sg37
I0
sg15
I0
sg16
I0
sg240
I0
sg250
I0
sg113
I0
sg35
I0
sg32
I0
sg38
I0
sg13
I0
sg251
I0
sg55
I0
sg48
I3
sg65
I0
sg41
I0
sg14
I0
sg60
I0
sg238
I0
sg42
I0
sg253
I0
sg39
I3
sg36
I0
sg54
I0
sg57
I0
sg225
I0
sg40
I0
sg62
I0
sg17
I0
sg64
I0
sg254
I0
sg22
I0
sg112
I0
sg46
I0
sg45
I0
sg23
I0
sg49
I0
sg59
I0
sg221
I0
sg47
I0
sg235
I0
sg33
I0
sg9
I0
sg21
I0
sg51
I0
sg12
I0
sg52
I0
sg248
I0
ssg76
(dp544
g259
I0
sg370
I0
sg73
I0
sg102
I0
sg90
I0
sg91
I0
sg356
I0
sg88
I0
sg105
I0
sg100
I0
sg112
I0
sg104
I0
sg261
I0
sg262
I0
sg263
I0
sg380
I0
sg69
I0
sg101
I0
sg264
I0
sg374
I0
sg265
I0
sg99
I0
sg87
I0
sg347
I0
sg266
I0
sg267
I0
sg268
I0
sg108
I0
sg270
I0
sg271
I0
sg113
I0
sg272
I0
sg360
I0
sg109
I0
sg97
I0
sg98
I0
sg274
I0
sg77
I0
sg89
I0
sg78
I0
sg295
I0
sg276
I0
sg277
I0
sg103
I0
sg72
I0
sg278
I0
sg279
I0
sg95
I0
sg280
I0
sg83
I0
sg281
I0
sg94
I0
sg282
I0
sg283
I0
sg366
I0
sg76
I3
sg359
I0
sg110
I3
sg284
I0
sg93
I0
sg341
I0
sg71
I0
sg285
I0
sg81
I0
sg287
I0
sg84
I0
sg106
I0
sg107
I0
sg288
I0
sg111
I0
sg340
I0
sg292
I0
sg75
I0
sg80
I0
sg79
I0
sg86
I0
sg85
I0
sg354
I0
sg70
I0
sg369
I0
sg361
I0
sg74
I0
sg296
I0
sg297
I0
sg298
I0
sg92
I0
sg299
I0
sg300
I0
sg82
I0
sg301
I0
sg96
I0
ssg32
(dp545
g56
I0
sg255
I0
sg29
I0
sg28
I0
sg26
I0
sg61
I0
sg53
I0
sg58
I0
sg246
I0
sg50
I0
sg43
I0
sg25
I0
sg27
I0
sg66
I0
sg18
I0
sg44
I0
sg8
I0
sg67
I0
sg68
I0
sg245
I0
sg231
I0
sg24
I0
sg226
I0
sg19
I0
sg63
I0
sg11
I0
sg10
I0
sg20
I0
sg34
I0
sg223
I0
sg31
I0
sg30
I0
sg37
I0
sg15
I0
sg16
I0
sg240
I0
sg250
I0
sg113
I0
sg35
I0
sg32
I0
sg38
I0
sg13
I0
sg251
I0
sg55
I0
sg48
I0
sg65
I0
sg41
I0
sg14
I0
sg60
I0
sg238
I0
sg42
I0
sg253
I0
sg39
I0
sg36
I0
sg54
I0
sg57
I0
sg225
I0
sg40
I0
sg62
I0
sg17
I0
sg64
I0
sg254
I0
sg22
I0
sg112
I0
sg46
I0
sg45
I0
sg23
I0
sg49
I0
sg59
I0
sg221
I0
sg47
I0
sg235
I0
sg33
I3
sg9
I0
sg21
I0
sg51
I0
sg12
I0
sg52
I0
sg248
I0
ssg110
(dp546
g288
I0
sg111
I0
sg340
I0
sg264
I0
sg341
I0
sg278
I0
sg279
I0
sg342
I0
sg113
I0
sg343
I0
sg344
I0
sg345
I0
sg346
I0
sg280
I0
sg347
I0
sg348
I0
sg349
I0
sg267
I0
sg268
I0
sg108
I0
sg350
I0
sg281
I0
sg299
I0
sg351
I0
sg352
I0
sg353
I0
sg354
I0
sg355
I0
sg270
I0
sg271
I0
sg102
I0
sg356
I0
sg357
I0
sg358
I0
sg272
I0
sg359
I0
sg360
I0
sg110
I0
sg284
I0
sg361
I0
sg362
I0
sg363
I0
sg283
I0
sg364
I0
sg105
I0
sg365
I0
sg109
I0
sg366
I0
sg367
I0
sg368
I0
sg369
I0
sg370
I0
sg298
I0
sg301
I0
sg371
I0
sg274
I0
sg372
I0
sg373
I0
sg104
I0
sg374
I0
sg112
I0
sg375
I0
sg265
I0
sg376
I0
sg287
I0
sg377
I0
sg378
I0
sg379
I0
sg107
I0
sg380
I0
sg381
I0
sg300
I0
sg382
I0
sg383
I0
sg276
I0
sg106
I0
sg384
I0
sg103
I0
ssg55
(dp547
g56
I3
sg111
I0
sg29
I0
sg28
I0
sg26
I0
sg61
I0
sg53
I0
sg58
I0
sg112
I0
sg109
I0
sg350
I0
sg50
I0
sg342
I0
sg43
I0
sg25
I0
sg27
I0
sg66
I0
sg18
I0
sg44
I0
sg8
I0
sg67
I0
sg68
I0
sg108
I0
sg24
I0
sg19
I0
sg63
I0
sg11
I0
sg10
I0
sg20
I0
sg34
I0
sg31
I0
sg30
I0
sg37
I0
sg15
I0
sg16
I0
sg357
I0
sg358
I0
sg35
I0
sg32
I0
sg38
I0
sg13
I0
sg110
I0
sg55
I0
sg362
I0
sg48
I0
sg65
I0
sg41
I0
sg14
I0
sg60
I0
sg105
I0
sg365
I0
sg42
I0
sg106
I0
sg39
I0
sg36
I0
sg54
I0
sg57
I0
sg40
I0
sg62
I0
sg17
I0
sg371
I0
sg64
I0
sg107
I0
sg22
I0
sg104
I0
sg113
I0
sg46
I0
sg45
I0
sg23
I0
sg49
I0
sg59
I0
sg47
I0
sg102
I0
sg33
I0
sg9
I0
sg21
I0
sg382
I0
sg51
I0
sg12
I0
sg52
I0
sg103
I0
ssg93
(dp548
g72
I0
sg129
I0
sg128
I0
sg138
I0
sg95
I0
sg261
I0
sg142
I0
sg259
I0
sg81
I0
sg99
I0
sg294
I0
sg260
I0
sg266
I0
sg219
I0
sg386
I0
sg83
I0
sg73
I0
sg319
I0
sg75
I0
sg80
I0
sg79
I0
sg94
I0
sg139
I0
sg282
I0
sg86
I0
sg140
I0
sg135
I0
sg96
I0
sg85
I0
sg133
I0
sg130
I0
sg263
I0
sg132
I0
sg70
I0
sg134
I0
sg90
I0
sg76
I0
sg91
I0
sg290
I0
sg210
I0
sg131
I0
sg137
I0
sg212
I0
sg93
I3
sg213
I0
sg275
I0
sg74
I0
sg387
I0
sg98
I0
sg296
I0
sg136
I0
sg88
I0
sg100
I0
sg293
I0
sg297
I0
sg97
I0
sg215
I0
sg71
I0
sg322
I0
sg230
I0
sg218
I0
sg92
I0
sg285
I0
sg87
I0
sg262
I0
sg101
I0
sg77
I0
sg89
I0
sg78
I0
sg217
I0
sg141
I0
sg295
I0
sg69
I0
sg84
I0
sg330
I0
sg292
I0
sg277
I0
sg82
I0
ssg42
(dp549
g56
I0
sg255
I0
sg29
I0
sg28
I0
sg26
I0
sg61
I0
sg53
I0
sg58
I0
sg246
I0
sg50
I0
sg43
I0
sg25
I0
sg27
I0
sg66
I0
sg18
I0
sg44
I0
sg8
I0
sg67
I0
sg68
I0
sg245
I0
sg231
I0
sg24
I0
sg226
I0
sg19
I0
sg63
I0
sg11
I0
sg10
I0
sg20
I0
sg34
I0
sg223
I0
sg31
I0
sg30
I0
sg37
I0
sg15
I0
sg16
I0
sg240
I0
sg250
I0
sg113
I0
sg35
I0
sg32
I0
sg38
I0
sg13
I0
sg251
I0
sg55
I0
sg48
I0
sg65
I0
sg41
I0
sg14
I0
sg60
I0
sg238
I0
sg42
I0
sg253
I0
sg39
I0
sg36
I0
sg54
I0
sg57
I0
sg225
I0
sg40
I0
sg62
I0
sg17
I0
sg64
I0
sg254
I0
sg22
I0
sg112
I0
sg46
I0
sg45
I0
sg23
I0
sg49
I0
sg59
I0
sg221
I0
sg47
I0
sg235
I0
sg33
I0
sg9
I0
sg21
I0
sg51
I0
sg12
I0
sg52
I0
sg248
I0
ssg36
(dp550
g56
I0
sg255
I0
sg29
I0
sg28
I0
sg26
I0
sg61
I0
sg53
I0
sg58
I0
sg246
I0
sg50
I0
sg43
I0
sg25
I0
sg27
I0
sg66
I0
sg18
I0
sg44
I0
sg8
I0
sg67
I0
sg68
I0
sg245
I0
sg231
I0
sg24
I0
sg226
I0
sg19
I0
sg63
I0
sg11
I0
sg10
I0
sg20
I0
sg34
I0
sg223
I0
sg31
I0
sg30
I0
sg37
I0
sg15
I0
sg16
I0
sg240
I0
sg250
I0
sg113
I0
sg35
I0
sg32
I0
sg38
I0
sg13
I0
sg251
I0
sg55
I0
sg48
I0
sg65
I0
sg41
I0
sg14
I0
sg60
I0
sg238
I0
sg42
I0
sg253
I0
sg39
I0
sg36
I3
sg54
I0
sg57
I0
sg225
I0
sg40
I0
sg62
I0
sg17
I0
sg64
I0
sg254
I0
sg22
I0
sg112
I0
sg46
I0
sg45
I0
sg23
I0
sg49
I0
sg59
I0
sg221
I0
sg47
I0
sg235
I0
sg33
I0
sg9
I0
sg21
I0
sg51
I0
sg12
I0
sg52
I0
sg248
I0
ssg71
(dp551
g288
I0
sg72
I0
sg264
I0
sg278
I0
sg279
I0
sg95
I0
sg261
I0
sg111
I0
sg280
I0
sg259
I0
sg81
I0
sg99
I0
sg287
I0
sg266
I0
sg267
I0
sg83
I0
sg73
I0
sg103
I0
sg75
I0
sg281
I0
sg80
I0
sg79
I0
sg94
I0
sg282
I0
sg86
I0
sg96
I0
sg85
I0
sg270
I0
sg271
I0
sg263
I0
sg109
I0
sg70
I0
sg90
I0
sg76
I0
sg91
I0
sg299
I0
sg110
I0
sg284
I0
sg93
I0
sg74
I0
sg268
I0
sg98
I0
sg296
I0
sg88
I0
sg105
I0
sg108
I0
sg100
I0
sg106
I0
sg102
I0
sg283
I0
sg297
I0
sg97
I0
sg298
I0
sg301
I0
sg71
I3
sg274
I0
sg265
I0
sg104
I0
sg272
I0
sg92
I0
sg285
I0
sg87
I0
sg262
I0
sg101
I0
sg77
I0
sg89
I0
sg78
I0
sg107
I0
sg295
I0
sg300
I0
sg69
I0
sg84
I0
sg276
I0
sg292
I0
sg277
I0
sg82
I0
ssg58
(dp552
g142
I0
sg43
I0
sg44
I0
sg73
I0
sg119
I0
sg102
I0
sg90
I0
sg91
I0
sg121
I0
sg122
I0
sg188
I0
sg41
I0
sg168
I0
sg88
I0
sg105
I0
sg100
I0
sg117
I0
sg17
I0
sg104
I0
sg112
I0
sg50
I0
sg49
I0
sg47
I0
sg116
I0
sg33
I0
sg69
I0
sg118
I0
sg101
I0
sg13
I0
sg26
I0
sg61
I0
sg58
I0
sg23
I0
sg99
I0
sg87
I0
sg18
I0
sg8
I0
sg476
I0
sg67
I0
sg68
I0
sg108
I0
sg24
I0
sg123
I0
sg109
I0
sg38
I0
sg37
I0
sg113
I0
sg35
I0
sg34
I0
sg181
I0
sg127
I0
sg172
I0
sg54
I0
sg97
I0
sg98
I0
sg64
I0
sg22
I0
sg77
I0
sg89
I0
sg78
I0
sg48
I0
sg21
I0
sg51
I0
sg52
I0
sg82
I0
sg72
I0
sg29
I0
sg28
I0
sg53
I0
sg147
I0
sg65
I0
sg148
I0
sg95
I0
sg66
I0
sg83
I0
sg19
I0
sg63
I0
sg94
I0
sg20
I0
sg114
I0
sg165
I0
sg175
I0
sg171
I0
sg39
I0
sg76
I0
sg32
I0
sg110
I0
sg55
I0
sg93
I0
sg42
I0
sg36
I0
sg71
I0
sg45
I0
sg126
I0
sg81
I0
sg59
I0
sg84
I0
sg106
I0
sg107
I0
sg56
I0
sg111
I0
sg46
I0
sg177
I0
sg120
I0
sg125
I0
sg25
I0
sg27
I0
sg115
I0
sg124
I0
sg75
I0
sg11
I0
sg10
I0
sg86
I0
sg31
I0
sg85
I0
sg30
I0
sg15
I0
sg16
I0
sg70
I0
sg40
I0
sg180
I0
sg9
I0
sg74
I0
sg14
I0
sg57
I0
sg62
I0
sg12
I0
sg92
I0
sg174
I0
sg480
I0
sg80
I0
sg60
I0
sg103
I0
sg79
I0
sg96
I0
ssg126
(dp553
g303
I0
sg304
I0
sg305
I0
sg471
I0
sg472
I0
sg473
I0
sg474
I0
sg475
I0
sg125
I0
sg126
I3
sg306
I0
sg476
I0
sg307
I0
sg477
I0
sg308
I0
sg123
I0
sg309
I0
sg115
I0
sg310
I0
sg311
I0
sg478
I0
sg124
I0
sg312
I0
sg313
I0
sg479
I0
sg315
I0
sg316
I0
sg480
I0
sg317
I0
sg318
I0
sg481
I0
sg114
I0
sg127
I0
sg119
I0
sg482
I0
sg320
I0
sg321
I0
sg483
I0
sg120
I0
sg484
I0
sg485
I0
sg323
I0
sg324
I0
sg325
I0
sg486
I0
sg121
I0
sg487
I0
sg122
I0
sg488
I0
sg489
I0
sg490
I0
sg326
I0
sg491
I0
sg492
I0
sg493
I0
sg494
I0
sg327
I0
sg495
I0
sg117
I0
sg328
I0
sg496
I0
sg329
I0
sg497
I0
sg331
I0
sg332
I0
sg333
I0
sg498
I0
sg499
I0
sg500
I0
sg116
I0
sg501
I0
sg336
I0
sg337
I0
sg118
I0
sg338
I0
sg502
I0
ssg81
(dp554
g232
I0
sg72
I0
sg401
I0
sg147
I0
sg148
I0
sg95
I0
sg261
I0
sg229
I0
sg259
I0
sg81
I0
sg99
I0
sg154
I0
sg172
I0
sg155
I0
sg266
I0
sg402
I0
sg83
I0
sg73
I0
sg222
I0
sg75
I0
sg80
I0
sg79
I0
sg181
I0
sg94
I0
sg165
I0
sg177
I0
sg282
I0
sg86
I0
sg191
I0
sg168
I0
sg96
I0
sg85
I0
sg403
I0
sg404
I0
sg263
I0
sg174
I0
sg70
I0
sg175
I0
sg90
I0
sg76
I0
sg91
I0
sg179
I0
sg405
I0
sg180
I0
sg224
I0
sg93
I0
sg183
I0
sg74
I0
sg185
I0
sg98
I0
sg296
I0
sg188
I0
sg88
I0
sg214
I0
sg220
I0
sg100
I0
sg227
I0
sg211
I0
sg297
I0
sg97
I0
sg406
I0
sg71
I0
sg171
I0
sg407
I0
sg142
I0
sg216
I0
sg92
I0
sg285
I0
sg87
I0
sg262
I0
sg101
I0
sg77
I0
sg89
I0
sg78
I0
sg228
I0
sg295
I0
sg69
I0
sg84
I0
sg205
I0
sg292
I0
sg277
I0
sg82
I0
ssg59
(dp555
g56
I0
sg111
I0
sg29
I0
sg28
I0
sg26
I0
sg61
I0
sg53
I0
sg58
I0
sg112
I0
sg109
I0
sg350
I0
sg50
I0
sg342
I0
sg43
I0
sg25
I0
sg27
I0
sg66
I0
sg18
I0
sg44
I0
sg8
I0
sg67
I0
sg68
I0
sg108
I0
sg24
I0
sg19
I0
sg63
I0
sg11
I0
sg10
I0
sg20
I0
sg34
I0
sg31
I0
sg30
I0
sg37
I0
sg15
I0
sg16
I0
sg357
I0
sg358
I0
sg35
I0
sg32
I0
sg38
I0
sg13
I0
sg110
I0
sg55
I0
sg362
I0
sg48
I0
sg65
I0
sg41
I0
sg14
I0
sg60
I0
sg105
I0
sg365
I0
sg42
I0
sg106
I0
sg39
I0
sg36
I0
sg54
I0
sg57
I0
sg40
I0
sg62
I0
sg17
I0
sg371
I0
sg64
I0
sg107
I0
sg22
I0
sg104
I0
sg113
I0
sg46
I0
sg45
I0
sg23
I0
sg49
I0
sg59
I6
sg47
I0
sg102
I0
sg33
I0
sg9
I0
sg21
I0
sg382
I0
sg51
I0
sg12
I0
sg52
I0
sg103
I0
ssg84
(dp556
g232
I0
sg72
I0
sg401
I0
sg147
I0
sg148
I0
sg95
I0
sg261
I0
sg229
I0
sg259
I0
sg81
I0
sg99
I0
sg154
I0
sg172
I0
sg155
I0
sg266
I0
sg402
I0
sg83
I0
sg73
I0
sg222
I0
sg75
I0
sg80
I0
sg79
I0
sg181
I0
sg94
I0
sg165
I0
sg177
I0
sg282
I0
sg86
I0
sg191
I0
sg168
I0
sg96
I0
sg85
I0
sg403
I0
sg404
I0
sg263
I0
sg174
I0
sg70
I0
sg175
I0
sg90
I0
sg76
I0
sg91
I0
sg179
I0
sg405
I0
sg180
I0
sg224
I0
sg93
I0
sg183
I0
sg74
I3
sg185
I0
sg98
I0
sg296
I0
sg188
I0
sg88
I0
sg214
I0
sg220
I0
sg100
I0
sg227
I0
sg211
I0
sg297
I0
sg97
I0
sg406
I0
sg71
I0
sg171
I0
sg407
I0
sg142
I0
sg216
I0
sg92
I0
sg285
I0
sg87
I0
sg262
I0
sg101
I0
sg77
I0
sg89
I0
sg78
I0
sg228
I0
sg295
I0
sg69
I0
sg84
I0
sg205
I0
sg292
I0
sg277
I0
sg82
I0
ssg106
(dp557
g288
I0
sg111
I0
sg340
I0
sg264
I0
sg341
I0
sg278
I0
sg279
I0
sg342
I0
sg113
I0
sg343
I0
sg344
I0
sg345
I0
sg346
I0
sg280
I0
sg347
I0
sg348
I0
sg349
I0
sg267
I0
sg268
I0
sg108
I0
sg350
I0
sg281
I0
sg299
I0
sg351
I0
sg352
I0
sg353
I0
sg354
I0
sg355
I0
sg270
I0
sg271
I0
sg102
I0
sg356
I0
sg357
I0
sg358
I0
sg272
I0
sg359
I0
sg360
I0
sg110
I0
sg284
I0
sg361
I0
sg362
I0
sg363
I0
sg283
I0
sg364
I0
sg105
I0
sg365
I0
sg109
I0
sg366
I0
sg367
I0
sg368
I0
sg369
I0
sg370
I0
sg298
I0
sg301
I0
sg371
I0
sg274
I0
sg372
I0
sg373
I0
sg104
I0
sg374
I0
sg112
I0
sg375
I0
sg265
I0
sg376
I0
sg287
I0
sg377
I0
sg378
I0
sg379
I0
sg107
I3
sg380
I0
sg381
I0
sg300
I0
sg382
I0
sg383
I0
sg276
I0
sg106
I0
sg384
I0
sg103
I0
ssg107
(dp558
g288
I0
sg111
I0
sg340
I0
sg264
I0
sg341
I0
sg278
I0
sg279
I0
sg342
I0
sg113
I0
sg343
I0
sg344
I0
sg345
I0
sg346
I0
sg280
I0
sg347
I0
sg348
I0
sg349
I0
sg267
I0
sg268
I0
sg108
I0
sg350
I0
sg281
I0
sg299
I0
sg351
I0
sg352
I0
sg353
I0
sg354
I0
sg355
I0
sg270
I0
sg271
I0
sg102
I0
sg356
I0
sg357
I0
sg358
I0
sg272
I0
sg359
I0
sg360
I0
sg110
I0
sg284
I0
sg361
I0
sg362
I0
sg363
I0
sg283
I0
sg364
I0
sg105
I0
sg365
I0
sg109
I0
sg366
I0
sg367
I0
sg368
I0
sg369
I0
sg370
I0
sg298
I0
sg301
I0
sg371
I0
sg274
I0
sg372
I0
sg373
I0
sg104
I0
sg374
I0
sg112
I0
sg375
I0
sg265
I0
sg376
I0
sg287
I0
sg377
I0
sg378
I0
sg379
I0
sg384
I0
sg380
I0
sg381
I0
sg300
I0
sg382
I0
sg383
I0
sg276
I0
sg106
I0
sg107
I0
sg103
I0
ssg56
(dp559
g56
I0
sg111
I0
sg29
I0
sg28
I0
sg26
I0
sg61
I0
sg53
I0
sg58
I0
sg112
I0
sg109
I0
sg350
I0
sg50
I0
sg342
I0
sg43
I0
sg25
I0
sg27
I0
sg66
I0
sg18
I0
sg44
I0
sg8
I0
sg67
I0
sg68
I0
sg108
I0
sg24
I0
sg19
I0
sg63
I0
sg11
I0
sg10
I0
sg20
I0
sg34
I0
sg31
I0
sg30
I0
sg37
I0
sg15
I0
sg16
I0
sg357
I0
sg358
I0
sg35
I0
sg32
I0
sg38
I0
sg13
I0
sg110
I0
sg55
I0
sg362
I0
sg48
I0
sg65
I0
sg41
I0
sg14
I0
sg60
I0
sg105
I0
sg365
I0
sg42
I0
sg106
I0
sg39
I0
sg36
I0
sg54
I0
sg57
I0
sg40
I0
sg62
I0
sg17
I0
sg371
I0
sg64
I0
sg107
I0
sg22
I0
sg104
I0
sg113
I0
sg46
I0
sg45
I0
sg23
I0
sg49
I0
sg59
I0
sg47
I0
sg102
I0
sg33
I0
sg9
I0
sg21
I0
sg382
I0
sg51
I0
sg12
I0
sg52
I0
sg103
I0
ssg111
(dp560
g288
I0
sg111
I3
sg340
I0
sg264
I0
sg341
I0
sg278
I0
sg279
I0
sg342
I0
sg113
I0
sg343
I0
sg344
I0
sg345
I0
sg346
I0
sg280
I0
sg347
I0
sg348
I0
sg349
I0
sg267
I0
sg268
I0
sg108
I0
sg350
I0
sg281
I0
sg299
I0
sg351
I0
sg352
I0
sg353
I0
sg354
I0
sg355
I0
sg270
I0
sg271
I0
sg102
I0
sg356
I0
sg357
I0
sg358
I0
sg272
I0
sg359
I0
sg360
I0
sg110
I0
sg284
I0
sg361
I0
sg362
I0
sg363
I0
sg283
I0
sg364
I0
sg105
I0
sg365
I0
sg109
I0
sg366
I0
sg367
I0
sg368
I0
sg369
I0
sg370
I0
sg298
I0
sg301
I0
sg371
I0
sg274
I0
sg372
I0
sg373
I0
sg104
I0
sg374
I0
sg112
I0
sg375
I0
sg265
I0
sg376
I0
sg287
I0
sg377
I0
sg378
I0
sg379
I0
sg107
I0
sg380
I0
sg381
I0
sg300
I0
sg382
I0
sg383
I0
sg276
I0
sg106
I0
sg384
I0
sg103
I0
ssg46
(dp561
g43
I0
sg44
I0
sg491
I0
sg119
I0
sg235
I0
sg121
I0
sg122
I0
sg489
I0
sg41
I0
sg495
I0
sg238
I0
sg117
I0
sg17
I0
sg240
I0
sg112
I0
sg50
I0
sg49
I0
sg47
I0
sg116
I0
sg33
I0
sg118
I0
sg13
I0
sg26
I0
sg61
I0
sg45
I0
sg23
I0
sg126
I0
sg18
I0
sg8
I0
sg476
I0
sg67
I0
sg68
I0
sg245
I0
sg24
I0
sg123
I0
sg38
I0
sg37
I0
sg113
I0
sg35
I0
sg34
I0
sg486
I0
sg127
I0
sg487
I0
sg246
I0
sg54
I0
sg64
I0
sg22
I0
sg48
I0
sg21
I0
sg51
I0
sg52
I0
sg248
I0
sg29
I0
sg28
I0
sg53
I0
sg472
I0
sg65
I0
sg474
I0
sg66
I0
sg19
I0
sg63
I0
sg20
I0
sg114
I0
sg483
I0
sg496
I0
sg39
I0
sg250
I0
sg32
I0
sg251
I0
sg55
I0
sg42
I0
sg36
I0
sg58
I0
sg59
I0
sg253
I0
sg254
I0
sg56
I0
sg255
I0
sg471
I0
sg125
I0
sg25
I0
sg27
I0
sg115
I0
sg124
I0
sg11
I0
sg10
I0
sg31
I0
sg30
I0
sg15
I0
sg16
I0
sg120
I0
sg40
I0
sg477
I0
sg9
I0
sg14
I0
sg57
I0
sg62
I0
sg46
I6
sg480
I0
sg60
I0
sg12
I0
ssg129
(dp562
g289
I0
sg149
I0
sg128
I0
sg138
I0
sg184
I0
sg322
I0
sg142
I0
sg314
I0
sg197
I0
sg244
I0
sg294
I0
sg260
I0
sg392
I0
sg230
I0
sg386
I0
sg167
I0
sg387
I0
sg234
I0
sg291
I0
sg286
I0
sg219
I0
sg273
I0
sg162
I0
sg393
I0
sg249
I0
sg139
I0
sg394
I0
sg319
I0
sg140
I0
sg135
I0
sg134
I0
sg133
I0
sg293
I0
sg132
I0
sg217
I0
sg170
I0
sg236
I0
sg129
I0
sg237
I0
sg290
I0
sg210
I0
sg131
I0
sg137
I0
sg212
I0
sg130
I0
sg213
I0
sg275
I0
sg252
I0
sg158
I0
sg241
I0
sg247
I0
sg136
I0
sg189
I0
sg239
I0
sg192
I0
sg395
I0
sg215
I0
sg204
I0
sg151
I0
sg218
I0
sg256
I0
sg195
I0
sg396
I0
sg334
I0
sg163
I0
sg199
I0
sg269
I0
sg200
I0
sg335
I0
sg201
I0
sg141
I0
sg397
I0
sg242
I0
sg208
I0
sg330
I0
sg243
I0
sg207
I0
sg257
I0
ssg120
(dp563
g303
I0
sg304
I0
sg305
I0
sg125
I0
sg126
I0
sg306
I0
sg307
I0
sg308
I0
sg123
I0
sg309
I0
sg115
I0
sg310
I0
sg311
I0
sg124
I0
sg312
I0
sg313
I0
sg315
I0
sg316
I0
sg317
I0
sg318
I0
sg114
I0
sg127
I0
sg119
I0
sg320
I0
sg321
I0
sg116
I0
sg323
I0
sg324
I0
sg325
I0
sg121
I0
sg122
I0
sg326
I0
sg327
I0
sg117
I0
sg328
I0
sg329
I0
sg331
I0
sg332
I0
sg333
I0
sg120
I0
sg336
I0
sg337
I0
sg118
I0
sg338
I0
ssg125
(dp564
g142
I0
sg479
I0
sg478
I0
sg234
I0
sg119
I0
sg236
I0
sg237
I0
sg121
I0
sg122
I0
sg136
I0
sg490
I0
sg135
I0
sg189
I0
sg239
I0
sg117
I0
sg328
I0
sg322
I0
sg334
I0
sg500
I0
sg116
I0
sg501
I0
sg242
I0
sg118
I0
sg243
I0
sg325
I0
sg305
I0
sg332
I0
sg333
I0
sg126
I0
sg308
I0
sg309
I0
sg140
I0
sg310
I0
sg311
I0
sg312
I0
sg123
I0
sg499
I0
sg482
I0
sg485
I0
sg481
I0
sg137
I0
sg127
I0
sg130
I0
sg319
I0
sg247
I0
sg241
I0
sg329
I0
sg199
I0
sg200
I0
sg201
I0
sg488
I0
sg337
I0
sg330
I0
sg207
I0
sg208
I0
sg303
I0
sg304
I0
sg128
I0
sg138
I0
sg149
I0
sg244
I0
sg158
I0
sg313
I0
sg249
I0
sg318
I0
sg114
I0
sg139
I0
sg134
I0
sg133
I0
sg493
I0
sg129
I0
sg484
I0
sg252
I0
sg492
I0
sg494
I0
sg473
I0
sg151
I0
sg197
I0
sg163
I0
sg204
I0
sg256
I0
sg125
I6
sg306
I0
sg307
I0
sg115
I0
sg124
I0
sg315
I0
sg316
I0
sg167
I0
sg317
I0
sg170
I0
sg324
I0
sg320
I0
sg321
I0
sg120
I0
sg323
I0
sg131
I0
sg336
I0
sg184
I0
sg326
I0
sg327
I0
sg331
I0
sg132
I0
sg141
I0
sg162
I0
sg338
I0
sg257
I0
ssg25
(dp565
g56
I0
sg29
I0
sg28
I0
sg26
I0
sg61
I0
sg53
I0
sg58
I0
sg50
I0
sg43
I0
sg25
I3
sg27
I0
sg66
I0
sg18
I0
sg44
I0
sg8
I0
sg115
I0
sg67
I0
sg68
I0
sg124
I0
sg24
I0
sg126
I0
sg19
I0
sg63
I0
sg11
I0
sg10
I0
sg20
I0
sg34
I0
sg114
I0
sg31
I0
sg119
I0
sg30
I0
sg37
I0
sg15
I0
sg16
I0
sg116
I0
sg35
I0
sg32
I0
sg38
I0
sg13
I0
sg55
I0
sg122
I0
sg48
I0
sg65
I0
sg41
I0
sg14
I0
sg60
I0
sg127
I0
sg42
I0
sg39
I0
sg36
I0
sg54
I0
sg57
I0
sg125
I0
sg40
I0
sg117
I0
sg62
I0
sg17
I0
sg64
I0
sg22
I0
sg121
I0
sg118
I0
sg46
I0
sg45
I0
sg23
I0
sg49
I0
sg59
I0
sg123
I0
sg47
I0
sg120
I0
sg33
I0
sg9
I0
sg21
I0
sg51
I0
sg12
I0
sg52
I0
ssg27
(dp566
g56
I0
sg29
I0
sg28
I0
sg26
I0
sg61
I0
sg53
I0
sg58
I0
sg50
I0
sg43
I0
sg25
I0
sg27
I0
sg66
I0
sg18
I0
sg44
I0
sg8
I0
sg115
I0
sg67
I0
sg68
I0
sg124
I0
sg24
I0
sg126
I0
sg19
I0
sg63
I0
sg11
I0
sg10
I0
sg20
I0
sg34
I0
sg114
I0
sg31
I0
sg119
I0
sg30
I0
sg37
I0
sg15
I0
sg16
I0
sg116
I0
sg35
I0
sg32
I0
sg38
I0
sg13
I0
sg55
I0
sg122
I0
sg48
I0
sg65
I0
sg41
I0
sg14
I0
sg60
I0
sg127
I0
sg42
I0
sg39
I0
sg36
I0
sg54
I0
sg57
I0
sg125
I0
sg40
I0
sg117
I0
sg62
I0
sg17
I0
sg64
I0
sg22
I0
sg121
I0
sg118
I0
sg46
I0
sg45
I0
sg23
I0
sg49
I0
sg59
I0
sg123
I0
sg47
I0
sg120
I0
sg33
I0
sg9
I0
sg21
I0
sg51
I0
sg12
I0
sg52
I0
ssg115
(dp567
g303
I0
sg304
I0
sg305
I0
sg128
I0
sg138
I0
sg125
I0
sg126
I0
sg306
I0
sg140
I0
sg307
I0
sg244
I0
sg308
I0
sg123
I0
sg309
I0
sg115
I6
sg310
I0
sg311
I0
sg260
I0
sg124
I0
sg312
I0
sg313
I0
sg314
I0
sg315
I0
sg316
I0
sg249
I0
sg317
I0
sg318
I0
sg319
I0
sg114
I0
sg127
I0
sg134
I0
sg119
I0
sg320
I0
sg321
I0
sg322
I0
sg120
I0
sg132
I0
sg236
I0
sg129
I0
sg237
I0
sg323
I0
sg324
I0
sg325
I0
sg137
I0
sg121
I0
sg130
I0
sg122
I0
sg131
I0
sg252
I0
sg241
I0
sg326
I0
sg136
I0
sg234
I0
sg239
I0
sg275
I0
sg327
I0
sg247
I0
sg117
I0
sg139
I0
sg328
I0
sg135
I0
sg133
I0
sg329
I0
sg330
I0
sg331
I0
sg332
I0
sg333
I0
sg334
I0
sg243
I0
sg256
I0
sg335
I0
sg116
I0
sg141
I0
sg336
I0
sg337
I0
sg242
I0
sg118
I0
sg338
I0
sg257
I0
ssg124
(dp568
g303
I0
sg304
I0
sg305
I0
sg471
I0
sg472
I0
sg473
I0
sg474
I0
sg475
I0
sg125
I0
sg126
I0
sg306
I0
sg476
I0
sg307
I0
sg477
I0
sg308
I0
sg123
I0
sg309
I0
sg115
I0
sg310
I0
sg311
I0
sg478
I0
sg124
I3
sg312
I0
sg313
I0
sg479
I0
sg315
I0
sg316
I0
sg480
I0
sg317
I0
sg318
I0
sg481
I0
sg114
I0
sg127
I0
sg119
I0
sg482
I0
sg320
I0
sg321
I0
sg483
I0
sg120
I0
sg484
I0
sg485
I0
sg323
I0
sg324
I0
sg325
I0
sg486
I0
sg121
I0
sg487
I0
sg122
I0
sg488
I0
sg489
I0
sg490
I0
sg326
I0
sg491
I0
sg492
I0
sg493
I0
sg494
I0
sg327
I0
sg495
I0
sg117
I0
sg328
I0
sg496
I0
sg329
I0
sg497
I0
sg331
I0
sg332
I0
sg333
I0
sg498
I0
sg499
I0
sg500
I0
sg116
I0
sg501
I0
sg336
I0
sg337
I0
sg118
I0
sg338
I0
sg502
I0
ssg75
(dp569
g288
I0
sg72
I0
sg264
I0
sg278
I0
sg279
I0
sg95
I0
sg261
I0
sg111
I0
sg280
I0
sg259
I0
sg81
I0
sg99
I0
sg287
I0
sg266
I0
sg267
I0
sg83
I0
sg73
I0
sg103
I0
sg75
I3
sg281
I0
sg80
I0
sg79
I0
sg94
I0
sg282
I0
sg86
I0
sg96
I0
sg85
I0
sg270
I0
sg271
I0
sg263
I0
sg109
I0
sg70
I0
sg90
I0
sg76
I0
sg91
I0
sg299
I0
sg110
I0
sg284
I0
sg93
I0
sg74
I0
sg268
I0
sg98
I0
sg296
I0
sg88
I0
sg105
I0
sg108
I0
sg100
I0
sg106
I0
sg102
I0
sg283
I0
sg297
I0
sg97
I0
sg298
I0
sg301
I0
sg71
I0
sg274
I0
sg265
I0
sg104
I0
sg272
I0
sg92
I0
sg285
I0
sg87
I0
sg262
I0
sg101
I0
sg77
I0
sg89
I0
sg78
I0
sg107
I0
sg295
I0
sg300
I0
sg69
I0
sg84
I0
sg276
I0
sg292
I0
sg277
I0
sg82
I0
ssg11
(dp570
g43
I0
sg44
I0
sg365
I0
sg119
I0
sg102
I0
sg121
I0
sg122
I0
sg41
I0
sg367
I0
sg105
I0
sg117
I0
sg17
I0
sg104
I0
sg112
I0
sg50
I0
sg49
I0
sg47
I0
sg116
I0
sg33
I0
sg382
I0
sg118
I0
sg13
I0
sg26
I0
sg61
I0
sg45
I0
sg23
I0
sg373
I0
sg18
I0
sg8
I0
sg67
I0
sg68
I0
sg108
I0
sg24
I0
sg123
I0
sg38
I0
sg37
I0
sg113
I0
sg35
I0
sg34
I0
sg127
I0
sg109
I0
sg54
I0
sg64
I0
sg22
I0
sg377
I0
sg378
I0
sg344
I0
sg48
I0
sg21
I0
sg51
I0
sg52
I0
sg383
I0
sg342
I0
sg29
I0
sg28
I0
sg53
I0
sg65
I0
sg66
I0
sg348
I0
sg19
I0
sg63
I0
sg20
I0
sg114
I0
sg39
I0
sg357
I0
sg32
I0
sg110
I0
sg55
I0
sg42
I0
sg36
I0
sg371
I0
sg58
I0
sg126
I0
sg346
I0
sg59
I0
sg372
I0
sg106
I0
sg107
I0
sg56
I0
sg111
I0
sg120
I0
sg125
I0
sg25
I0
sg27
I0
sg115
I0
sg124
I0
sg350
I0
sg11
I0
sg10
I0
sg353
I0
sg31
I0
sg355
I0
sg30
I0
sg15
I0
sg16
I0
sg358
I0
sg40
I0
sg9
I0
sg362
I0
sg14
I0
sg57
I0
sg62
I0
sg12
I9
sg46
I0
sg364
I0
sg60
I0
sg103
I0
sg363
I0
ssg10
(dp571
g142
I0
sg43
I0
sg44
I0
sg73
I0
sg119
I0
sg102
I0
sg90
I0
sg91
I0
sg121
I0
sg122
I0
sg136
I0
sg41
I0
sg135
I0
sg88
I0
sg105
I0
sg100
I0
sg117
I0
sg17
I0
sg104
I0
sg112
I0
sg50
I0
sg49
I0
sg47
I0
sg116
I0
sg33
I0
sg69
I0
sg118
I0
sg101
I0
sg13
I0
sg26
I0
sg61
I0
sg45
I0
sg23
I0
sg99
I0
sg87
I0
sg18
I0
sg8
I0
sg140
I0
sg67
I0
sg68
I0
sg108
I0
sg24
I0
sg123
I0
sg109
I0
sg38
I0
sg37
I0
sg113
I0
sg35
I0
sg34
I0
sg137
I0
sg127
I0
sg130
I0
sg54
I0
sg97
I0
sg98
I0
sg64
I0
sg22
I0
sg77
I0
sg89
I0
sg78
I0
sg48
I0
sg21
I0
sg51
I0
sg52
I0
sg82
I0
sg72
I0
sg29
I0
sg28
I0
sg53
I0
sg128
I0
sg65
I0
sg138
I0
sg95
I0
sg66
I0
sg83
I0
sg19
I0
sg63
I0
sg94
I0
sg20
I0
sg114
I0
sg139
I0
sg134
I0
sg133
I0
sg39
I0
sg76
I0
sg32
I0
sg110
I0
sg55
I0
sg93
I0
sg42
I0
sg36
I0
sg71
I0
sg58
I0
sg126
I0
sg81
I0
sg59
I0
sg84
I0
sg106
I0
sg107
I0
sg56
I0
sg111
I0
sg46
I0
sg129
I0
sg120
I0
sg125
I0
sg25
I0
sg27
I0
sg115
I0
sg124
I0
sg75
I0
sg11
I0
sg10
I9
sg86
I0
sg31
I0
sg85
I0
sg30
I0
sg15
I0
sg16
I0
sg70
I0
sg40
I0
sg131
I0
sg9
I0
sg74
I0
sg14
I0
sg57
I0
sg62
I0
sg12
I0
sg92
I0
sg132
I0
sg141
I0
sg80
I0
sg60
I0
sg103
I0
sg79
I0
sg96
I0
ssg86
(dp572
g232
I0
sg72
I0
sg401
I0
sg147
I0
sg148
I0
sg95
I0
sg261
I0
sg229
I0
sg259
I0
sg81
I0
sg99
I0
sg154
I0
sg172
I0
sg155
I0
sg266
I0
sg402
I0
sg83
I0
sg73
I0
sg222
I0
sg75
I0
sg80
I0
sg79
I0
sg181
I0
sg94
I0
sg165
I0
sg177
I0
sg282
I0
sg86
I0
sg191
I0
sg168
I0
sg96
I0
sg85
I0
sg403
I0
sg404
I0
sg263
I0
sg174
I0
sg70
I0
sg175
I0
sg90
I0
sg76
I0
sg91
I0
sg179
I0
sg405
I0
sg180
I0
sg224
I0
sg93
I0
sg183
I0
sg74
I0
sg185
I0
sg98
I0
sg296
I0
sg188
I0
sg88
I0
sg214
I0
sg220
I0
sg100
I0
sg227
I0
sg211
I0
sg297
I0
sg97
I0
sg406
I0
sg71
I0
sg171
I0
sg407
I0
sg142
I0
sg216
I0
sg92
I0
sg285
I0
sg87
I0
sg262
I0
sg101
I0
sg77
I0
sg89
I0
sg78
I0
sg228
I0
sg295
I0
sg69
I0
sg84
I0
sg205
I0
sg292
I0
sg277
I0
sg82
I0
ssg31
(dp573
g56
I0
sg29
I0
sg28
I0
sg26
I0
sg61
I0
sg53
I0
sg58
I0
sg50
I0
sg43
I0
sg25
I0
sg27
I0
sg66
I0
sg18
I0
sg44
I0
sg8
I0
sg115
I0
sg67
I0
sg68
I0
sg124
I0
sg24
I0
sg126
I0
sg19
I0
sg63
I0
sg11
I0
sg12
I0
sg20
I0
sg34
I0
sg114
I0
sg31
I0
sg119
I0
sg30
I0
sg37
I0
sg15
I0
sg16
I0
sg116
I0
sg35
I0
sg32
I0
sg38
I0
sg13
I0
sg55
I0
sg122
I0
sg48
I0
sg65
I0
sg41
I0
sg14
I0
sg60
I0
sg127
I0
sg42
I0
sg39
I0
sg36
I0
sg54
I0
sg57
I0
sg125
I0
sg40
I0
sg117
I0
sg62
I0
sg17
I0
sg64
I0
sg22
I0
sg121
I0
sg118
I0
sg46
I0
sg45
I0
sg23
I0
sg49
I0
sg59
I0
sg123
I0
sg47
I0
sg120
I0
sg33
I0
sg9
I0
sg21
I0
sg51
I0
sg10
I0
sg52
I0
ssg85
(dp574
g232
I0
sg72
I0
sg401
I0
sg147
I0
sg148
I0
sg95
I0
sg261
I0
sg229
I0
sg259
I0
sg262
I0
sg99
I0
sg154
I0
sg172
I0
sg155
I0
sg266
I0
sg402
I0
sg83
I0
sg73
I0
sg222
I0
sg75
I0
sg80
I0
sg79
I0
sg181
I0
sg94
I0
sg165
I0
sg177
I0
sg282
I0
sg86
I3
sg191
I0
sg168
I0
sg96
I0
sg85
I0
sg403
I0
sg404
I0
sg263
I0
sg174
I0
sg70
I0
sg175
I0
sg90
I0
sg76
I0
sg91
I0
sg179
I0
sg405
I0
sg180
I0
sg224
I0
sg93
I0
sg183
I0
sg74
I0
sg185
I0
sg98
I0
sg296
I0
sg188
I0
sg88
I0
sg214
I0
sg220
I0
sg100
I0
sg227
I0
sg211
I0
sg297
I0
sg97
I0
sg406
I0
sg71
I0
sg171
I0
sg407
I0
sg142
I0
sg216
I0
sg92
I0
sg285
I0
sg87
I0
sg81
I0
sg101
I0
sg77
I0
sg89
I0
sg78
I0
sg228
I0
sg295
I0
sg69
I0
sg84
I0
sg205
I0
sg292
I0
sg277
I0
sg82
I0
ssg30
(dp575
g56
I0
sg29
I0
sg28
I0
sg26
I0
sg61
I0
sg53
I0
sg58
I0
sg50
I0
sg43
I0
sg25
I0
sg27
I0
sg66
I0
sg18
I0
sg44
I0
sg8
I0
sg115
I0
sg67
I0
sg68
I0
sg124
I0
sg24
I0
sg126
I0
sg19
I0
sg63
I0
sg11
I0
sg10
I0
sg20
I0
sg34
I0
sg114
I0
sg31
I3
sg119
I0
sg30
I0
sg37
I0
sg15
I0
sg16
I0
sg116
I0
sg35
I0
sg32
I0
sg38
I0
sg13
I0
sg55
I0
sg122
I0
sg48
I0
sg65
I0
sg41
I0
sg14
I0
sg60
I0
sg127
I0
sg42
I0
sg39
I0
sg36
I0
sg54
I0
sg57
I0
sg125
I0
sg40
I0
sg117
I0
sg62
I0
sg17
I0
sg64
I0
sg22
I0
sg121
I0
sg118
I0
sg46
I0
sg45
I0
sg23
I0
sg49
I0
sg59
I0
sg123
I0
sg47
I0
sg120
I0
sg33
I0
sg9
I0
sg21
I0
sg51
I0
sg12
I0
sg52
I0
ssg15
(dp576
g56
I0
sg29
I0
sg28
I0
sg26
I0
sg61
I0
sg53
I0
sg58
I0
sg50
I0
sg43
I0
sg25
I0
sg27
I0
sg66
I0
sg18
I0
sg44
I0
sg8
I0
sg115
I0
sg67
I0
sg68
I0
sg124
I0
sg24
I0
sg126
I0
sg19
I0
sg63
I0
sg11
I0
sg10
I0
sg20
I0
sg34
I0
sg114
I0
sg31
I0
sg119
I0
sg30
I0
sg37
I0
sg15
I0
sg16
I3
sg116
I0
sg35
I0
sg32
I0
sg38
I0
sg13
I0
sg55
I0
sg122
I0
sg48
I0
sg65
I0
sg41
I0
sg14
I0
sg60
I0
sg127
I0
sg42
I0
sg39
I0
sg36
I0
sg54
I0
sg57
I0
sg125
I0
sg40
I0
sg117
I0
sg62
I0
sg17
I0
sg64
I0
sg22
I0
sg121
I0
sg118
I0
sg46
I0
sg45
I0
sg23
I0
sg49
I0
sg59
I0
sg123
I0
sg47
I0
sg120
I0
sg33
I0
sg9
I0
sg21
I0
sg51
I0
sg12
I0
sg52
I0
ssg16
(dp577
g142
I0
sg43
I0
sg44
I0
sg234
I0
sg119
I0
sg235
I0
sg236
I0
sg237
I0
sg121
I0
sg122
I0
sg136
I0
sg41
I0
sg135
I0
sg189
I0
sg238
I0
sg239
I0
sg117
I0
sg17
I0
sg240
I0
sg112
I0
sg50
I0
sg49
I0
sg241
I0
sg47
I0
sg116
I0
sg33
I0
sg242
I0
sg118
I0
sg243
I0
sg13
I0
sg26
I0
sg61
I0
sg45
I0
sg23
I0
sg244
I0
sg126
I0
sg18
I0
sg8
I0
sg140
I0
sg67
I0
sg68
I0
sg245
I0
sg24
I0
sg123
I0
sg38
I0
sg37
I0
sg113
I0
sg35
I0
sg34
I0
sg137
I0
sg127
I0
sg130
I0
sg246
I0
sg247
I0
sg54
I0
sg64
I0
sg22
I0
sg199
I0
sg200
I0
sg201
I0
sg48
I0
sg21
I0
sg51
I0
sg52
I0
sg248
I0
sg29
I0
sg28
I0
sg53
I0
sg128
I0
sg65
I0
sg138
I0
sg149
I0
sg66
I0
sg158
I0
sg19
I0
sg63
I0
sg249
I0
sg20
I0
sg114
I0
sg139
I0
sg134
I0
sg133
I0
sg39
I0
sg250
I0
sg32
I0
sg251
I0
sg55
I0
sg252
I0
sg42
I0
sg36
I0
sg58
I0
sg151
I0
sg197
I0
sg59
I0
sg204
I0
sg253
I0
sg254
I0
sg56
I0
sg255
I0
sg256
I0
sg129
I0
sg125
I0
sg25
I0
sg27
I0
sg115
I0
sg124
I0
sg11
I0
sg10
I0
sg167
I0
sg31
I0
sg170
I0
sg30
I0
sg15
I0
sg16
I0
sg120
I0
sg40
I0
sg131
I0
sg9
I0
sg184
I0
sg163
I0
sg14
I0
sg57
I0
sg62
I0
sg46
I0
sg132
I0
sg141
I0
sg162
I0
sg60
I0
sg208
I0
sg12
I0
sg257
I0
ssg70
(dp578
g288
I0
sg72
I0
sg264
I0
sg278
I0
sg279
I0
sg95
I0
sg261
I0
sg111
I0
sg280
I0
sg259
I0
sg81
I0
sg99
I0
sg287
I0
sg266
I0
sg267
I0
sg83
I0
sg73
I0
sg103
I0
sg75
I0
sg281
I0
sg80
I0
sg79
I0
sg94
I0
sg282
I0
sg86
I0
sg96
I0
sg85
I0
sg270
I0
sg271
I0
sg263
I0
sg109
I0
sg70
I3
sg90
I0
sg76
I0
sg91
I0
sg299
I0
sg110
I0
sg284
I0
sg93
I0
sg74
I0
sg268
I0
sg98
I0
sg296
I0
sg88
I0
sg105
I0
sg108
I0
sg100
I0
sg106
I0
sg102
I0
sg283
I0
sg297
I0
sg97
I0
sg298
I0
sg301
I0
sg71
I0
sg274
I0
sg265
I0
sg104
I0
sg272
I0
sg92
I0
sg285
I0
sg87
I0
sg262
I0
sg101
I0
sg77
I0
sg89
I0
sg78
I0
sg107
I0
sg295
I0
sg300
I0
sg69
I0
sg84
I0
sg276
I0
sg292
I0
sg277
I0
sg82
I0
ssg40
(dp579
g142
I0
sg43
I0
sg44
I0
sg234
I0
sg119
I0
sg235
I0
sg236
I0
sg237
I0
sg121
I0
sg122
I0
sg136
I0
sg41
I0
sg135
I0
sg189
I0
sg238
I0
sg239
I0
sg117
I0
sg17
I0
sg240
I0
sg112
I0
sg50
I0
sg49
I0
sg241
I0
sg47
I0
sg116
I0
sg33
I0
sg242
I0
sg118
I0
sg243
I0
sg13
I0
sg26
I0
sg61
I0
sg45
I0
sg23
I0
sg244
I0
sg126
I0
sg18
I0
sg8
I0
sg140
I0
sg67
I0
sg68
I0
sg245
I0
sg24
I0
sg123
I0
sg38
I0
sg37
I0
sg113
I0
sg35
I0
sg34
I0
sg137
I0
sg127
I0
sg130
I0
sg246
I0
sg247
I0
sg54
I0
sg64
I0
sg22
I0
sg199
I0
sg200
I0
sg201
I0
sg48
I0
sg21
I0
sg51
I0
sg52
I0
sg248
I0
sg29
I0
sg28
I0
sg53
I0
sg128
I0
sg65
I0
sg138
I0
sg149
I0
sg66
I0
sg158
I0
sg19
I0
sg63
I0
sg249
I0
sg20
I0
sg114
I0
sg139
I0
sg134
I0
sg133
I0
sg39
I0
sg250
I0
sg32
I0
sg251
I0
sg55
I0
sg252
I0
sg42
I0
sg36
I0
sg58
I0
sg151
I0
sg197
I0
sg59
I0
sg204
I0
sg253
I0
sg254
I0
sg56
I0
sg255
I0
sg256
I0
sg129
I0
sg125
I0
sg25
I0
sg27
I0
sg115
I0
sg124
I0
sg11
I0
sg10
I0
sg167
I0
sg31
I0
sg170
I0
sg30
I0
sg15
I0
sg16
I12
sg120
I0
sg40
I0
sg131
I0
sg9
I0
sg184
I0
sg163
I0
sg14
I0
sg57
I0
sg62
I0
sg46
I0
sg132
I0
sg141
I0
sg162
I0
sg60
I0
sg208
I0
sg12
I0
sg257
I0
ssg131
(dp580
g289
I0
sg149
I0
sg128
I0
sg138
I0
sg184
I0
sg322
I0
sg142
I0
sg314
I0
sg197
I0
sg244
I0
sg294
I0
sg260
I0
sg392
I0
sg230
I0
sg386
I0
sg167
I0
sg387
I0
sg234
I0
sg291
I0
sg286
I0
sg219
I0
sg273
I0
sg162
I0
sg393
I0
sg249
I0
sg139
I0
sg394
I0
sg319
I0
sg140
I0
sg135
I0
sg134
I0
sg133
I0
sg293
I0
sg132
I0
sg217
I0
sg170
I0
sg236
I0
sg129
I0
sg237
I0
sg290
I0
sg210
I0
sg131
I3
sg137
I0
sg212
I0
sg130
I0
sg213
I0
sg275
I0
sg252
I0
sg158
I0
sg241
I0
sg247
I0
sg136
I0
sg189
I0
sg239
I0
sg192
I0
sg395
I0
sg215
I0
sg204
I0
sg151
I0
sg218
I0
sg256
I0
sg195
I0
sg396
I0
sg334
I0
sg163
I0
sg199
I0
sg269
I0
sg200
I0
sg335
I0
sg201
I0
sg141
I0
sg397
I0
sg242
I0
sg208
I0
sg330
I0
sg243
I0
sg207
I0
sg257
I0
ssg9
(dp581
g142
I0
sg43
I0
sg44
I0
sg73
I0
sg119
I0
sg102
I0
sg90
I0
sg91
I0
sg121
I0
sg122
I0
sg136
I0
sg41
I0
sg135
I0
sg88
I0
sg105
I0
sg100
I0
sg117
I0
sg17
I0
sg104
I0
sg112
I0
sg50
I0
sg49
I0
sg47
I0
sg116
I0
sg33
I0
sg69
I0
sg118
I0
sg101
I0
sg13
I0
sg26
I0
sg61
I0
sg45
I0
sg23
I0
sg99
I0
sg87
I0
sg18
I0
sg8
I0
sg140
I0
sg67
I0
sg68
I0
sg108
I0
sg24
I0
sg123
I0
sg109
I0
sg38
I0
sg37
I0
sg113
I0
sg35
I0
sg34
I0
sg137
I0
sg127
I0
sg130
I0
sg54
I0
sg97
I0
sg98
I0
sg64
I0
sg22
I0
sg77
I0
sg89
I0
sg78
I0
sg48
I0
sg21
I0
sg51
I0
sg52
I0
sg82
I0
sg72
I0
sg29
I0
sg28
I0
sg53
I0
sg128
I0
sg65
I0
sg138
I0
sg95
I0
sg66
I0
sg83
I0
sg19
I0
sg63
I0
sg94
I0
sg20
I0
sg114
I0
sg139
I0
sg134
I0
sg133
I0
sg39
I0
sg76
I0
sg32
I0
sg110
I0
sg55
I0
sg93
I0
sg42
I0
sg36
I0
sg71
I0
sg58
I0
sg126
I0
sg81
I0
sg59
I0
sg84
I0
sg106
I0
sg107
I0
sg56
I0
sg111
I0
sg46
I0
sg129
I0
sg120
I0
sg125
I0
sg25
I0
sg27
I0
sg115
I0
sg124
I0
sg75
I0
sg11
I0
sg10
I0
sg86
I0
sg31
I0
sg85
I0
sg30
I0
sg15
I0
sg16
I0
sg70
I0
sg40
I0
sg131
I0
sg9
I0
sg74
I0
sg14
I0
sg57
I0
sg62
I0
sg12
I0
sg92
I0
sg132
I0
sg141
I0
sg80
I0
sg60
I0
sg103
I0
sg79
I0
sg96
I0
ssg74
(dp582
g142
I0
sg259
I0
sg155
I0
sg73
I0
sg102
I0
sg90
I0
sg91
I0
sg188
I0
sg168
I0
sg88
I0
sg105
I0
sg100
I0
sg104
I0
sg261
I0
sg262
I0
sg263
I0
sg69
I0
sg101
I0
sg264
I0
sg265
I0
sg99
I0
sg87
I0
sg266
I0
sg267
I0
sg268
I0
sg108
I0
sg270
I0
sg271
I0
sg272
I0
sg181
I0
sg172
I0
sg109
I0
sg97
I0
sg98
I0
sg274
I0
sg77
I0
sg89
I0
sg78
I0
sg183
I0
sg276
I0
sg277
I0
sg103
I0
sg72
I0
sg278
I0
sg147
I0
sg279
I0
sg148
I0
sg95
I0
sg280
I0
sg83
I0
sg281
I0
sg94
I0
sg282
I0
sg283
I0
sg165
I0
sg175
I0
sg171
I0
sg177
I0
sg110
I0
sg284
I0
sg93
I0
sg71
I0
sg285
I0
sg81
I0
sg287
I0
sg84
I0
sg106
I0
sg107
I0
sg288
I0
sg111
I0
sg76
I0
sg179
I0
sg75
I0
sg80
I0
sg79
I0
sg86
I0
sg85
I0
sg292
I0
sg191
I0
sg70
I0
sg154
I0
sg180
I0
sg295
I0
sg74
I0
sg296
I0
sg297
I0
sg298
I0
sg92
I0
sg174
I0
sg299
I0
sg300
I0
sg82
I0
sg301
I0
sg96
I0
ssg14
(dp583
g142
I0
sg43
I0
sg44
I0
sg73
I0
sg119
I0
sg90
I0
sg91
I0
sg121
I0
sg122
I0
sg136
I0
sg41
I0
sg135
I0
sg88
I0
sg100
I0
sg117
I0
sg17
I0
sg50
I0
sg49
I0
sg47
I0
sg116
I0
sg33
I0
sg69
I0
sg118
I0
sg101
I0
sg13
I0
sg26
I0
sg61
I0
sg45
I0
sg23
I0
sg99
I0
sg87
I0
sg18
I0
sg8
I0
sg140
I0
sg67
I0
sg68
I0
sg24
I0
sg123
I0
sg319
I0
sg38
I0
sg37
I0
sg35
I0
sg34
I0
sg137
I0
sg127
I0
sg130
I0
sg54
I0
sg97
I0
sg98
I0
sg64
I0
sg22
I0
sg77
I0
sg89
I0
sg78
I0
sg48
I0
sg21
I0
sg51
I0
sg52
I0
sg82
I0
sg72
I0
sg29
I0
sg28
I0
sg53
I0
sg128
I0
sg65
I0
sg138
I0
sg95
I0
sg66
I0
sg83
I0
sg19
I0
sg63
I0
sg94
I0
sg20
I0
sg114
I0
sg139
I0
sg134
I0
sg133
I0
sg39
I0
sg76
I0
sg32
I0
sg55
I0
sg93
I0
sg42
I0
sg36
I0
sg71
I0
sg58
I0
sg126
I0
sg81
I0
sg59
I0
sg84
I0
sg56
I0
sg46
I0
sg129
I0
sg120
I0
sg125
I0
sg25
I0
sg27
I0
sg115
I0
sg124
I0
sg75
I0
sg11
I0
sg10
I0
sg86
I0
sg31
I0
sg85
I0
sg30
I0
sg15
I0
sg16
I0
sg70
I0
sg40
I0
sg131
I0
sg9
I0
sg74
I0
sg14
I0
sg57
I0
sg62
I0
sg12
I0
sg92
I0
sg132
I0
sg141
I0
sg80
I0
sg60
I0
sg79
I0
sg96
I0
ssg57
(dp584
g142
I0
sg43
I0
sg44
I0
sg73
I0
sg119
I0
sg102
I0
sg90
I0
sg91
I0
sg121
I0
sg122
I0
sg188
I0
sg41
I0
sg168
I0
sg88
I0
sg105
I0
sg100
I0
sg117
I0
sg17
I0
sg104
I0
sg112
I0
sg50
I0
sg49
I0
sg47
I0
sg116
I0
sg33
I0
sg69
I0
sg118
I0
sg101
I0
sg13
I0
sg26
I0
sg61
I0
sg45
I0
sg23
I0
sg99
I0
sg87
I0
sg18
I0
sg8
I0
sg476
I0
sg67
I0
sg68
I0
sg108
I0
sg24
I0
sg123
I0
sg109
I0
sg38
I0
sg37
I0
sg113
I0
sg35
I0
sg34
I0
sg181
I0
sg127
I0
sg172
I0
sg54
I0
sg97
I0
sg98
I0
sg64
I0
sg22
I0
sg77
I0
sg89
I0
sg78
I0
sg48
I0
sg21
I0
sg51
I0
sg52
I0
sg82
I0
sg72
I0
sg29
I0
sg28
I0
sg53
I0
sg147
I0
sg65
I0
sg148
I0
sg95
I0
sg66
I0
sg83
I0
sg19
I0
sg63
I0
sg94
I0
sg20
I0
sg114
I0
sg165
I0
sg175
I0
sg171
I0
sg39
I0
sg76
I0
sg32
I0
sg110
I0
sg55
I0
sg93
I0
sg42
I0
sg36
I0
sg125
I0
sg71
I0
sg58
I15
sg126
I0
sg81
I3
sg59
I0
sg84
I0
sg106
I0
sg107
I0
sg56
I0
sg111
I0
sg46
I0
sg177
I0
sg120
I0
sg10
I0
sg25
I0
sg27
I0
sg115
I0
sg124
I0
sg75
I0
sg11
I0
sg12
I0
sg86
I0
sg31
I0
sg85
I0
sg30
I0
sg15
I0
sg16
I0
sg70
I0
sg40
I0
sg180
I0
sg9
I0
sg74
I0
sg14
I0
sg57
I0
sg62
I0
sg92
I0
sg174
I0
sg480
I0
sg80
I0
sg60
I0
sg103
I0
sg79
I0
sg96
I0
ssg62
(dp585
g56
I0
sg111
I0
sg29
I0
sg28
I0
sg26
I0
sg61
I0
sg53
I0
sg58
I0
sg112
I0
sg109
I0
sg350
I0
sg50
I0
sg342
I0
sg43
I0
sg25
I0
sg27
I0
sg66
I0
sg18
I0
sg44
I0
sg8
I0
sg67
I0
sg68
I0
sg108
I0
sg24
I0
sg19
I0
sg63
I0
sg11
I0
sg10
I0
sg20
I0
sg34
I0
sg31
I0
sg30
I0
sg37
I0
sg15
I0
sg16
I0
sg357
I0
sg358
I0
sg35
I0
sg32
I0
sg38
I0
sg13
I0
sg110
I0
sg55
I0
sg362
I0
sg48
I0
sg65
I0
sg41
I0
sg14
I0
sg60
I0
sg105
I0
sg365
I0
sg42
I0
sg106
I0
sg39
I0
sg36
I0
sg54
I0
sg57
I0
sg40
I0
sg62
I0
sg17
I0
sg371
I0
sg64
I0
sg107
I0
sg22
I0
sg104
I0
sg113
I0
sg46
I0
sg45
I0
sg23
I0
sg49
I0
sg59
I0
sg47
I0
sg102
I0
sg33
I0
sg9
I0
sg21
I0
sg382
I0
sg51
I0
sg12
I0
sg52
I0
sg103
I0
ssg12
(dp586
g43
I0
sg44
I0
sg365
I0
sg119
I0
sg102
I0
sg121
I0
sg122
I0
sg41
I0
sg367
I0
sg105
I0
sg117
I0
sg17
I0
sg104
I0
sg112
I0
sg50
I0
sg49
I0
sg47
I0
sg116
I0
sg33
I0
sg382
I0
sg118
I0
sg13
I0
sg26
I0
sg61
I0
sg45
I0
sg23
I0
sg373
I0
sg18
I0
sg8
I0
sg67
I0
sg68
I0
sg108
I0
sg24
I0
sg123
I0
sg38
I0
sg37
I0
sg113
I0
sg35
I0
sg34
I0
sg127
I0
sg109
I0
sg54
I0
sg64
I0
sg22
I0
sg377
I0
sg378
I0
sg344
I0
sg48
I0
sg21
I0
sg51
I0
sg52
I0
sg383
I0
sg342
I0
sg29
I0
sg28
I0
sg53
I0
sg65
I0
sg66
I0
sg348
I0
sg19
I0
sg63
I0
sg20
I0
sg114
I0
sg39
I0
sg357
I0
sg32
I0
sg110
I0
sg55
I0
sg42
I0
sg36
I0
sg125
I0
sg371
I0
sg58
I0
sg126
I0
sg346
I0
sg59
I0
sg372
I0
sg106
I0
sg107
I0
sg56
I0
sg111
I0
sg120
I0
sg10
I0
sg25
I0
sg27
I0
sg115
I0
sg124
I0
sg350
I0
sg11
I0
sg12
I0
sg353
I0
sg31
I0
sg355
I0
sg30
I0
sg15
I0
sg16
I0
sg358
I0
sg40
I0
sg9
I0
sg362
I0
sg14
I0
sg57
I0
sg62
I0
sg46
I0
sg364
I0
sg60
I0
sg103
I0
sg363
I0
ssg92
(dp587
g72
I0
sg129
I0
sg128
I0
sg138
I0
sg95
I0
sg261
I0
sg142
I0
sg259
I0
sg81
I0
sg99
I0
sg294
I0
sg260
I0
sg266
I0
sg219
I0
sg386
I0
sg83
I0
sg73
I0
sg319
I0
sg75
I0
sg80
I0
sg79
I0
sg94
I0
sg139
I0
sg282
I0
sg86
I0
sg140
I0
sg135
I0
sg96
I0
sg85
I0
sg133
I0
sg130
I0
sg263
I0
sg132
I0
sg70
I0
sg134
I0
sg90
I0
sg76
I0
sg91
I0
sg290
I0
sg210
I0
sg131
I0
sg137
I0
sg212
I0
sg93
I0
sg213
I0
sg275
I0
sg74
I0
sg387
I0
sg98
I0
sg296
I0
sg136
I0
sg88
I0
sg100
I0
sg293
I0
sg297
I0
sg97
I0
sg215
I0
sg71
I0
sg322
I0
sg230
I0
sg218
I0
sg92
I3
sg285
I0
sg87
I0
sg262
I0
sg101
I0
sg77
I0
sg89
I0
sg78
I0
sg217
I0
sg141
I0
sg295
I0
sg69
I0
sg84
I0
sg330
I0
sg292
I0
sg277
I0
sg82
I0
ssg132
(dp588
g149
I0
sg128
I0
sg138
I0
sg184
I0
sg396
I0
sg142
I0
sg314
I0
sg197
I0
sg244
I0
sg294
I0
sg260
I0
sg392
I0
sg230
I0
sg386
I0
sg167
I0
sg387
I0
sg234
I0
sg219
I0
sg162
I0
sg393
I0
sg249
I0
sg139
I0
sg394
I0
sg319
I0
sg140
I0
sg135
I0
sg134
I0
sg133
I0
sg293
I0
sg217
I0
sg170
I0
sg236
I0
sg129
I0
sg237
I0
sg290
I0
sg210
I0
sg131
I0
sg137
I0
sg212
I0
sg130
I0
sg213
I0
sg275
I0
sg252
I0
sg158
I0
sg241
I0
sg247
I0
sg136
I0
sg189
I0
sg239
I0
sg192
I0
sg395
I0
sg215
I0
sg204
I0
sg322
I0
sg151
I0
sg218
I0
sg256
I0
sg195
I0
sg132
I0
sg334
I0
sg163
I0
sg199
I0
sg200
I0
sg335
I0
sg201
I0
sg141
I0
sg397
I0
sg242
I0
sg208
I0
sg330
I0
sg243
I0
sg207
I0
sg257
I0
ssg141
(dp589
g289
I0
sg128
I0
sg138
I0
sg322
I0
sg314
I0
sg244
I0
sg294
I0
sg260
I0
sg392
I0
sg230
I0
sg386
I0
sg387
I0
sg234
I0
sg291
I0
sg286
I0
sg219
I0
sg273
I0
sg393
I0
sg249
I0
sg139
I0
sg394
I0
sg319
I0
sg140
I0
sg135
I0
sg134
I0
sg133
I0
sg293
I0
sg132
I0
sg217
I0
sg236
I0
sg129
I0
sg237
I0
sg290
I0
sg210
I0
sg131
I0
sg137
I0
sg212
I0
sg130
I0
sg213
I0
sg275
I0
sg252
I0
sg241
I0
sg247
I0
sg136
I0
sg239
I0
sg464
I0
sg395
I0
sg215
I0
sg218
I0
sg256
I0
sg465
I0
sg396
I0
sg334
I0
sg269
I0
sg335
I0
sg141
I0
sg397
I0
sg242
I0
sg330
I0
sg243
I0
sg257
I0
ssg80
(dp590
g232
I0
sg72
I0
sg401
I0
sg147
I0
sg148
I0
sg95
I0
sg261
I0
sg229
I0
sg259
I0
sg81
I0
sg99
I0
sg154
I0
sg172
I0
sg155
I0
sg266
I0
sg402
I0
sg83
I0
sg73
I0
sg222
I0
sg75
I0
sg80
I0
sg79
I0
sg181
I0
sg94
I0
sg165
I0
sg177
I0
sg282
I0
sg86
I0
sg191
I0
sg168
I0
sg96
I0
sg85
I0
sg403
I0
sg404
I0
sg263
I0
sg174
I0
sg70
I0
sg175
I0
sg90
I0
sg76
I0
sg91
I0
sg179
I0
sg405
I0
sg180
I0
sg224
I0
sg93
I0
sg183
I0
sg74
I0
sg185
I0
sg98
I0
sg296
I0
sg188
I0
sg88
I0
sg214
I0
sg220
I0
sg100
I0
sg227
I0
sg211
I0
sg297
I0
sg97
I0
sg406
I0
sg71
I0
sg171
I0
sg407
I0
sg142
I0
sg216
I0
sg92
I0
sg285
I0
sg87
I0
sg262
I0
sg101
I0
sg77
I0
sg89
I0
sg78
I0
sg228
I0
sg295
I0
sg69
I0
sg84
I0
sg205
I0
sg292
I0
sg277
I0
sg82
I0
ssg60
(dp591
g56
I0
sg111
I0
sg29
I0
sg28
I0
sg26
I0
sg61
I0
sg53
I0
sg58
I0
sg112
I0
sg109
I0
sg350
I0
sg50
I0
sg342
I0
sg43
I0
sg25
I0
sg27
I0
sg66
I0
sg18
I0
sg44
I0
sg8
I0
sg67
I0
sg68
I0
sg108
I0
sg24
I0
sg19
I0
sg63
I0
sg11
I0
sg10
I0
sg20
I0
sg34
I0
sg31
I0
sg30
I0
sg37
I0
sg15
I0
sg16
I0
sg357
I0
sg358
I0
sg35
I0
sg32
I0
sg38
I0
sg13
I0
sg110
I0
sg55
I0
sg362
I0
sg48
I0
sg65
I0
sg41
I0
sg14
I0
sg60
I3
sg105
I0
sg365
I0
sg42
I0
sg106
I0
sg39
I0
sg36
I0
sg54
I0
sg57
I0
sg40
I0
sg62
I0
sg17
I0
sg371
I0
sg64
I0
sg107
I0
sg22
I0
sg104
I0
sg113
I0
sg46
I0
sg45
I0
sg23
I0
sg49
I0
sg59
I0
sg47
I0
sg102
I0
sg33
I0
sg9
I0
sg21
I0
sg382
I0
sg51
I0
sg12
I0
sg52
I0
sg103
I0
ssg103
(dp592
g288
I0
sg111
I0
sg340
I0
sg264
I0
sg341
I0
sg278
I0
sg279
I0
sg342
I0
sg113
I0
sg343
I0
sg344
I0
sg345
I0
sg346
I0
sg280
I0
sg347
I0
sg348
I0
sg349
I0
sg267
I0
sg268
I0
sg108
I0
sg350
I0
sg281
I0
sg299
I0
sg351
I0
sg352
I0
sg353
I0
sg354
I0
sg355
I0
sg270
I0
sg271
I0
sg102
I0
sg356
I0
sg357
I0
sg358
I0
sg272
I0
sg359
I0
sg360
I0
sg110
I0
sg284
I0
sg361
I0
sg362
I0
sg363
I0
sg283
I0
sg364
I0
sg105
I0
sg365
I0
sg109
I0
sg366
I0
sg367
I0
sg368
I0
sg369
I0
sg370
I0
sg298
I0
sg301
I0
sg371
I0
sg274
I0
sg372
I0
sg373
I0
sg104
I0
sg374
I0
sg112
I0
sg375
I0
sg265
I0
sg376
I0
sg287
I0
sg377
I0
sg378
I0
sg379
I0
sg107
I0
sg380
I0
sg381
I0
sg300
I0
sg382
I0
sg383
I0
sg276
I0
sg106
I0
sg384
I0
sg103
I3
ssg79
(dp593
g232
I0
sg72
I0
sg401
I0
sg147
I0
sg148
I0
sg95
I0
sg261
I0
sg229
I0
sg259
I0
sg81
I0
sg99
I0
sg154
I0
sg172
I0
sg155
I0
sg266
I0
sg402
I0
sg83
I0
sg73
I0
sg222
I0
sg75
I0
sg80
I3
sg79
I0
sg181
I0
sg94
I0
sg165
I0
sg177
I0
sg282
I0
sg86
I0
sg191
I0
sg168
I0
sg96
I0
sg85
I0
sg403
I0
sg404
I0
sg263
I0
sg174
I0
sg70
I0
sg175
I0
sg90
I0
sg76
I0
sg91
I0
sg179
I0
sg405
I0
sg180
I0
sg224
I0
sg93
I0
sg183
I0
sg74
I0
sg185
I0
sg98
I0
sg296
I0
sg188
I0
sg88
I0
sg214
I0
sg220
I0
sg100
I0
sg227
I0
sg211
I0
sg297
I0
sg97
I0
sg406
I0
sg71
I0
sg171
I0
sg407
I0
sg142
I0
sg216
I0
sg92
I0
sg285
I0
sg87
I0
sg262
I0
sg101
I0
sg77
I0
sg89
I0
sg78
I0
sg228
I0
sg295
I0
sg69
I0
sg84
I0
sg205
I0
sg292
I0
sg277
I0
sg82
I0
ssg96
(dp594
g72
I0
sg129
I0
sg128
I0
sg138
I0
sg95
I0
sg261
I0
sg142
I0
sg259
I0
sg81
I0
sg99
I0
sg294
I0
sg260
I0
sg266
I0
sg219
I0
sg386
I0
sg83
I0
sg73
I0
sg319
I0
sg75
I0
sg80
I0
sg79
I0
sg94
I0
sg139
I0
sg282
I0
sg86
I0
sg140
I0
sg135
I0
sg85
I0
sg133
I0
sg130
I0
sg263
I0
sg132
I0
sg70
I0
sg134
I0
sg90
I0
sg76
I0
sg91
I0
sg290
I0
sg210
I0
sg131
I0
sg137
I0
sg212
I0
sg93
I0
sg213
I0
sg275
I0
sg74
I0
sg387
I0
sg98
I0
sg296
I3
sg136
I0
sg88
I0
sg100
I0
sg293
I0
sg297
I0
sg97
I0
sg215
I0
sg71
I0
sg84
I0
sg322
I0
sg230
I0
sg218
I0
sg92
I0
sg285
I0
sg87
I0
sg262
I0
sg101
I0
sg77
I0
sg89
I0
sg78
I0
sg217
I0
sg141
I0
sg295
I0
sg69
I0
sg96
I0
sg330
I0
sg292
I0
sg277
I0
sg82
I0
sssb.