ccopy_reg
_reconstructor
p0
(cutils.eval
ConfusionMatrix
p1
c__builtin__
object
p2
Ntp3
Rp4
(dp5
S'labels'
p6
(lp7
S'jar.n.01'
p8
aS'fill.v.01'
p9
aS'put.v.01'
p10
aS'sauce.n.01'
p11
aS'mug.n.04'
p12
aS'strawberry.n.01'
p13
aS'cut.v.01'
p14
aS'edit.v.03'
p15
aS'piece.n.08'
p16
aS'slice.n.06'
p17
aS'saltcellar.n.01'
p18
aS'salt.n.02'
p19
aS'ice.n.01'
p20
aS'ice.n.05'
p21
aS'bowl.n.01'
p22
aS'tomato.n.01'
p23
aS'tomato.n.02'
p24
aS'slice.n.04'
p25
aS'onion.n.03'
p26
aS'onion.n.02'
p27
aS'mustard.n.02'
p28
aS'cut.n.16'
p29
aS'bag.n.01'
p30
aS'bag.n.04'
p31
aS'serve.v.05'
p32
aS'serve.v.11'
p33
aS'kettle.n.01'
p34
aS'water.n.06'
p35
aS'gravy.n.01'
p36
aS'gravy.n.02'
p37
aS'thermos.n.01'
p38
aS'coffee.n.01'
p39
aS'pot.n.01'
p40
aS'add.v.01'
p41
aS'lend.v.01'
p42
aS'mixing_bowl.n.01'
p43
aS'butter.n.01'
p44
aS'sugar.n.01'
p45
aS'boodle.n.01'
p46
aS'rum.n.01'
p47
aS'shaker.n.03'
p48
aS'take.v.04'
p49
aS'bring.v.01'
p50
aS'decant.v.01'
p51
aS'pour.v.01'
p52
asS'instanceCount'
p53
I44
sS'matrix'
p54
(dp55
g13
(dp56
S'strawberry.n.01'
p57
I1
ssg43
(dp58
S'mixing_bowl.n.01'
p59
I1
ssg35
(dp60
S'water.n.06'
p61
I2
ssg22
(dp62
S'bowl.n.01'
p63
I1
ssg25
(dp64
g25
I0
ssg49
(dp65
g50
I1
ssg41
(dp66
g42
I1
ssg28
(dp67
S'mustard.n.02'
p68
I1
ssg14
(dp69
g15
I2
ssg18
(dp70
S'saltcellar.n.01'
p71
I1
ssg24
(dp72
g24
I0
ssg23
(dp73
g24
I1
ssg40
(dp74
S'pot.n.01'
p75
I1
ssg9
(dp76
S'fill.v.01'
p77
I8
ssg31
(dp78
g31
I0
ssg45
(dp79
g46
I1
ssg30
(dp80
g31
I1
ssg52
(dp81
g52
I0
ssg11
(dp82
S'sauce.n.01'
p83
I1
ssg36
(dp84
g37
I1
ssg19
(dp85
S'salt.n.02'
p86
I1
ssg37
(dp87
g37
I0
ssg39
(dp88
S'coffee.n.01'
p89
I1
ssg15
(dp90
g15
I0
ssg48
(dp91
S'shaker.n.03'
p92
I1
ssg46
(dp93
g46
I0
ssg33
(dp94
g33
I0
ssg50
(dp95
g50
I0
ssg16
(dp96
g17
I2
sg25
I1
ssg47
(dp97
S'rum.n.01'
p98
I1
ssg12
(dp99
S'mug.n.04'
p100
I1
ssg38
(dp101
S'thermos.n.01'
p102
I1
ssg17
(dp103
g17
I0
ssg32
(dp104
g33
I1
ssg10
(dp105
S'put.v.01'
p106
I1
ssg51
(dp107
g52
I1
ssg20
(dp108
g21
I1
ssg34
(dp109
S'kettle.n.01'
p110
I1
ssg21
(dp111
g21
I0
ssg42
(dp112
g42
I0
ssg8
(dp113
S'jar.n.01'
p114
I2
ssg29
(dp115
S'edit.v.03'
p116
I1
ssg44
(dp117
S'butter.n.01'
p118
I1
ssg26
(dp119
g27
I1
ssg27
(dp120
g27
I0
sssb.