ccopy_reg
_reconstructor
p0
(cutils.eval
ConfusionMatrix
p1
c__builtin__
object
p2
Ntp3
Rp4
(dp5
S'labels'
p6
(lp7
S'add.v.01'
p8
aS'lend.v.01'
p9
aS'butter.n.01'
p10
aS'egg.n.02'
p11
aS'egg.n.01'
p12
aS'dough.n.01'
p13
aS'boodle.n.01'
p14
aS'mix.v.04'
p15
aS'mix.v.05'
p16
aS'opening.n.01'
p17
aS'opening.n.10'
p18
aS'fill.v.09'
p19
aS'fill.v.01'
p20
aS'curd.n.01'
p21
aS'teapot.n.01'
p22
aS'water.n.06'
p23
aS'gap.n.03'
p24
aS'batter.n.02'
p25
aS'chicken.n.01'
p26
aS'wimp.n.01'
p27
aS'corn.n.02'
p28
aS'corn.n.03'
p29
aS'chop.v.01'
p30
aS'chop.v.05'
p31
aS'knife.n.01'
p32
aS'tongue.n.03'
p33
aS'banana.n.02'
p34
aS'slice.v.03'
p35
aS'apple.n.01'
p36
aS'vanilla.n.02'
p37
aS'vanilla.n.03'
p38
aS'concoction.n.01'
p39
aS'blend.v.03'
p40
aS'fork.n.01'
p41
aS'branching.n.01'
p42
aS'bowl.n.01'
p43
aS'bowl.n.08'
p44
aS'water_system.n.02'
p45
aS'rice.n.01'
p46
aS'pour.v.01'
p47
aS'mix.n.03'
p48
aS'put.v.01'
p49
aS'put.v.02'
p50
aS'onion.n.01'
p51
aS'onion.n.03'
p52
aS'beef.n.02'
p53
aS'gripe.n.01'
p54
aS'plate.n.04'
p55
aS'plate.n.13'
p56
aS'piece.n.08'
p57
aS'slice.n.06'
p58
aS'pizza.n.01'
p59
aS'liquid.n.01'
p60
aS'sink.n.01'
p61
aS'cesspool.n.01'
p62
aS'bottle.n.01'
p63
aS'fruit_juice.n.01'
p64
aS'lodge.v.02'
p65
aS'stick.v.08'
p66
aS'pan.n.01'
p67
aS'pan.n.03'
p68
asS'instanceCount'
p69
I52
sS'matrix'
p70
(dp71
g56
(dp72
g56
I0
ssg29
(dp73
g29
I0
ssg28
(dp74
g29
I1
ssg26
(dp75
g27
I1
ssg61
(dp76
g62
I1
ssg53
(dp77
g54
I1
ssg58
(dp78
g58
I0
ssg50
(dp79
g50
I0
ssg43
(dp80
g44
I1
ssg25
(dp81
S'batter.n.02'
p82
I1
ssg27
(dp83
g27
I0
ssg66
(dp84
g66
I0
ssg18
(dp85
g18
I0
ssg44
(dp86
g44
I0
ssg8
(dp87
g9
I3
ssg67
(dp88
g68
I1
ssg68
(dp89
g68
I0
ssg24
(dp90
g24
I0
ssg19
(dp91
g20
I2
ssg63
(dp92
S'bottle.n.01'
p93
I1
ssg11
(dp94
g12
I2
ssg10
(dp95
S'butter.n.01'
p96
I1
ssg20
(dp97
g20
I3
ssg34
(dp98
S'banana.n.02'
p99
I1
ssg31
(dp100
g31
I0
ssg30
(dp101
g31
I1
ssg37
(dp102
g38
I1
ssg15
(dp103
g16
I1
ssg16
(dp104
g16
I0
ssg35
(dp105
S'slice.v.03'
p106
I2
ssg32
(dp107
g33
I1
ssg38
(dp108
g38
I0
ssg13
(dp109
g14
I1
ssg55
(dp110
g56
I1
ssg48
(dp111
g48
I0
ssg65
(dp112
g66
I1
ssg41
(dp113
g42
I1
ssg14
(dp114
g14
I0
ssg60
(dp115
S'liquid.n.01'
p116
I1
ssg42
(dp117
g42
I0
ssg39
(dp118
S'concoction.n.01'
p119
I1
sg48
I1
ssg36
(dp120
S'apple.n.01'
p121
I1
ssg54
(dp122
g54
I0
ssg57
(dp123
g58
I1
ssg40
(dp124
S'mix.v.05'
p125
I2
ssg62
(dp126
g62
I0
ssg17
(dp127
g18
I1
sg24
I1
ssg64
(dp128
S'fruit_juice.n.01'
p129
I1
ssg22
(dp130
S'teapot.n.01'
p131
I1
ssg46
(dp132
S'rice.n.01'
p133
I1
ssg45
(dp134
g45
I0
ssg23
(dp135
g45
I1
sS'water.n.06'
p136
I1
ssg49
(dp137
g50
I2
ssg59
(dp138
S'pizza.n.01'
p139
I2
ssg47
(dp140
S'pour.v.01'
p141
I2
ssg33
(dp142
g33
I0
ssg9
(dp143
g9
I0
ssg21
(dp144
S'curd.n.01'
p145
I1
ssg51
(dp146
g52
I1
ssg12
(dp147
g12
I0
ssg52
(dp148
g52
I0
sssb.