ccopy_reg
_reconstructor
p0
(cutils.eval
ConfusionMatrix
p1
c__builtin__
object
p2
Ntp3
Rp4
(dp5
S'labels'
p6
(lp7
S'slice.v.03'
p8
aS'orange.n.01'
p9
aS'orange.n.03'
p10
aS'piece.n.08'
p11
aS'mushroom.n.05'
p12
asS'instanceCount'
p13
I5
sS'matrix'
p14
(dp15
g10
(dp16
g10
I0
ssg8
(dp17
S'slice.v.03'
p18
I2
ssg9
(dp19
g10
I1
ssg12
(dp20
S'mushroom.n.05'
p21
I1
ssg11
(dp22
S'piece.n.08'
p23
I1
sssb.