ccopy_reg
_reconstructor
p0
(cutils.eval
ConfusionMatrix
p1
c__builtin__
object
p2
Ntp3
Rp4
(dp5
S'labels'
p6
(lp7
S'slice.v.03'
p8
aS'lemon.n.01'
p9
aS'knife.n.01'
p10
aS'banana.n.02'
p11
aS'banana.n.01'
p12
asS'instanceCount'
p13
I5
sS'matrix'
p14
(dp15
g8
(dp16
S'slice.v.03'
p17
I2
ssg10
(dp18
S'knife.n.01'
p19
I1
ssg11
(dp20
g12
I1
ssg9
(dp21
S'lemon.n.01'
p22
I1
ssg12
(dp23
g12
I0
sssb.