ccopy_reg
_reconstructor
p0
(cutils.eval
ConfusionMatrix
p1
c__builtin__
object
p2
Ntp3
Rp4
(dp5
S'labels'
p6
(lp7
S'slice.v.03'
p8
aS'slice.v.02'
p9
aS'cabbage.n.01'
p10
aS'meat.n.01'
p11
aS'kernel.n.03'
p12
aS'cleaver.n.01'
p13
aS'helicopter.n.01'
p14
asS'instanceCount'
p15
I5
sS'matrix'
p16
(dp17
g9
(dp18
g9
I0
ssg8
(dp19
g9
I2
ssg12
(dp20
g12
I0
ssg10
(dp21
S'cabbage.n.01'
p22
I1
ssg14
(dp23
g14
I0
ssg11
(dp24
g12
I1
ssg13
(dp25
g14
I1
sssb.