ccopy_reg
_reconstructor
p0
(cutils.eval
ConfusionMatrix
p1
c__builtin__
object
p2
Ntp3
Rp4
(dp5
S'labels'
p6
(lp7
S'bread.n.01'
p8
aS'boodle.n.01'
p9
aS'knife.n.01'
p10
aS'slice.v.03'
p11
aS'lemon.n.01'
p12
asS'instanceCount'
p13
I5
sS'matrix'
p14
(dp15
g11
(dp16
S'slice.v.03'
p17
I2
ssg9
(dp18
g9
I0
ssg10
(dp19
S'knife.n.01'
p20
I1
ssg12
(dp21
S'lemon.n.01'
p22
I1
ssg8
(dp23
g9
I1
sssb.