ccopy_reg
_reconstructor
p0
(cutils.eval
ConfusionMatrix
p1
c__builtin__
object
p2
Ntp3
Rp4
(dp5
S'labels'
p6
(lp7
S'knife.n.01'
p8
aS'slice.v.03'
p9
aS'green_onion.n.01'
p10
aS'slice.v.02'
p11
aS'bacon.n.01'
p12
aS'bacon.n.03'
p13
asS'instanceCount'
p14
I5
sS'matrix'
p15
(dp16
g11
(dp17
g11
I0
ssg9
(dp18
g11
I1
sS'slice.v.03'
p19
I1
ssg8
(dp20
S'knife.n.01'
p21
I1
ssg13
(dp22
g13
I0
ssg12
(dp23
g13
I1
ssg10
(dp24
S'green_onion.n.01'
p25
I1
sssb.