ccopy_reg
_reconstructor
p0
(cutils.eval
ConfusionMatrix
p1
c__builtin__
object
p2
Ntp3
Rp4
(dp5
S'labels'
p6
(lp7
S'cut.v.01'
p8
aS'bacon.n.01'
p9
aS'knife.n.01'
p10
aS'banana.n.02'
p11
aS'tomato.n.01'
p12
aS'cheese.n.01'
p13
aS'cabbage.n.01'
p14
aS'piece.n.08'
p15
aS'slice.n.06'
p16
aS'pizza.n.01'
p17
asS'instanceCount'
p18
I15
sS'matrix'
p19
(dp20
g13
(dp21
S'cheese.n.01'
p22
I1
ssg8
(dp23
S'cut.v.01'
p24
I6
ssg10
(dp25
S'knife.n.01'
p26
I2
ssg11
(dp27
S'banana.n.02'
p28
I1
ssg12
(dp29
S'tomato.n.01'
p30
I1
ssg16
(dp31
g16
I0
ssg9
(dp32
S'bacon.n.01'
p33
I1
ssg17
(dp34
S'pizza.n.01'
p35
I1
ssg14
(dp36
S'cabbage.n.01'
p37
I1
ssg15
(dp38
g16
I1
sssb.