ccopy_reg
_reconstructor
p0
(cutils.eval
ConfusionMatrix
p1
c__builtin__
object
p2
Ntp3
Rp4
(dp5
S'labels'
p6
(lp7
S'cut.v.01'
p8
aS'flesh.n.01'
p9
aS'human_body.n.01'
p10
aS'piece.n.08'
p11
aS'slice.n.06'
p12
aS'orange.n.01'
p13
aS'potato.n.01'
p14
aS'zucchini.n.01'
p15
aS'zucchini.n.02'
p16
aS'knife.n.01'
p17
aS'green_onion.n.01'
p18
aS'lemon.n.01'
p19
asS'instanceCount'
p20
I15
sS'matrix'
p21
(dp22
g8
(dp23
S'cut.v.01'
p24
I6
ssg17
(dp25
S'knife.n.01'
p26
I1
ssg9
(dp27
g10
I1
ssg15
(dp28
g16
I1
ssg12
(dp29
g12
I0
ssg13
(dp30
S'orange.n.01'
p31
I1
ssg10
(dp32
g10
I0
ssg16
(dp33
g16
I0
ssg19
(dp34
S'lemon.n.01'
p35
I1
ssg14
(dp36
S'potato.n.01'
p37
I1
ssg11
(dp38
g12
I2
ssg18
(dp39
S'green_onion.n.01'
p40
I1
sssb.