ccopy_reg
_reconstructor
p0
(cutils.eval
ConfusionMatrix
p1
c__builtin__
object
p2
Ntp3
Rp4
(dp5
S'labels'
p6
(lp7
S'cut.v.01'
p8
aS'tomato.n.01'
p9
aS'knife.n.01'
p10
aS'cheese.n.01'
p11
aS'cabbage.n.01'
p12
aS'piece.n.08'
p13
aS'slice.n.06'
p14
aS'pizza.n.01'
p15
aS'fork.n.01'
p16
aS'fork.n.04'
p17
aS'cake.n.03'
p18
aS'bread.n.01'
p19
asS'instanceCount'
p20
I16
sS'matrix'
p21
(dp22
g11
(dp23
S'cheese.n.01'
p24
I1
ssg8
(dp25
S'cut.v.01'
p26
I6
ssg12
(dp27
S'cabbage.n.01'
p28
I1
ssg9
(dp29
S'tomato.n.01'
p30
I1
ssg17
(dp31
g17
I0
ssg14
(dp32
g14
I0
ssg16
(dp33
g17
I1
ssg15
(dp34
S'pizza.n.01'
p35
I1
ssg18
(dp36
S'cake.n.03'
p37
I1
ssg10
(dp38
S'knife.n.01'
p39
I2
ssg13
(dp40
g14
I1
ssg19
(dp41
S'bread.n.01'
p42
I1
sssb.