ccopy_reg
_reconstructor
p0
(cutils.eval
ConfusionMatrix
p1
c__builtin__
object
p2
Ntp3
Rp4
(dp5
S'labels'
p6
(lp7
S'cut.v.01'
p8
aS'knife.n.01'
p9
aS'green_onion.n.01'
p10
aS'lemon.n.01'
p11
aS'bacon.n.01'
p12
aS'banana.n.02'
p13
aS'tomato.n.01'
p14
aS'cheese.n.01'
p15
asS'instanceCount'
p16
I15
sS'matrix'
p17
(dp18
g15
(dp19
S'cheese.n.01'
p20
I1
ssg8
(dp21
S'cut.v.01'
p22
I6
ssg9
(dp23
S'knife.n.01'
p24
I3
ssg13
(dp25
S'banana.n.02'
p26
I1
ssg14
(dp27
S'tomato.n.01'
p28
I1
ssg12
(dp29
S'bacon.n.01'
p30
I1
ssg11
(dp31
S'lemon.n.01'
p32
I1
ssg10
(dp33
S'green_onion.n.01'
p34
I1
sssb.