ccopy_reg
_reconstructor
p0
(cutils.eval
ConfusionMatrix
p1
c__builtin__
object
p2
Ntp3
Rp4
(dp5
S'labels'
p6
(lp7
S'cut.v.01'
p8
aS'flesh.n.01'
p9
aS'human_body.n.01'
p10
aS'piece.n.08'
p11
aS'slice.n.06'
p12
aS'orange.n.01'
p13
aS'potato.n.01'
p14
aS'zucchini.n.01'
p15
aS'zucchini.n.02'
p16
aS'knife.n.01'
p17
aS'green_onion.n.01'
p18
aS'lemon.n.01'
p19
aS'bacon.n.01'
p20
aS'banana.n.02'
p21
aS'tomato.n.01'
p22
aS'cheese.n.01'
p23
aS'cabbage.n.01'
p24
aS'pizza.n.01'
p25
aS'fork.n.01'
p26
aS'fork.n.04'
p27
aS'cake.n.03'
p28
aS'bread.n.01'
p29
aS'olive.n.01'
p30
aS'olive.n.04'
p31
aS'meat.n.01'
p32
aS'cleaver.n.01'
p33
aS'vegetable.n.01'
p34
aS'mushroom.n.05'
p35
aS'egg.n.02'
p36
asS'instanceCount'
p37
I153
sS'matrix'
p38
(dp39
g35
(dp40
g35
I3
sS'vegetable.n.01'
p41
I0
sS'cut.v.01'
p42
I0
sS'knife.n.01'
p43
I0
sS'olive.n.04'
p44
I0
sg36
I0
sS'fork.n.04'
p45
I0
sS'slice.n.06'
p46
I0
sS'olive.n.01'
p47
I0
sS'fork.n.01'
p48
I0
sS'bread.n.01'
p49
I0
sS'human_body.n.01'
p50
I0
sS'cake.n.03'
p51
I0
sS'meat.n.01'
p52
I0
sS'lemon.n.01'
p53
I0
sS'piece.n.08'
p54
I0
sS'flesh.n.01'
p55
I0
sS'orange.n.01'
p56
I0
sS'cleaver.n.01'
p57
I0
ssg23
(dp58
g23
I3
sS'cut.v.01'
p59
I0
sg24
I0
sS'banana.n.02'
p60
I0
sg22
I0
sg27
I0
sS'slice.n.06'
p61
I0
sg26
I0
sg25
I0
sg28
I0
sS'bacon.n.01'
p62
I0
sS'lemon.n.01'
p63
I0
sS'knife.n.01'
p64
I0
sS'piece.n.08'
p65
I0
sg29
I0
sS'green_onion.n.01'
p66
I0
ssg29
(dp67
g35
I0
sg23
I0
sg34
I0
sg59
I0
sg24
I0
sg36
I0
sg22
I0
sg27
I0
sg61
I0
sg26
I0
sg29
I3
sg28
I0
sg32
I0
sg64
I0
sg65
I0
sg25
I0
sg33
I0
ssg13
(dp68
S'mushroom.n.05'
p69
I0
sg30
I0
sg8
I0
sg17
I0
sg31
I0
sg9
I0
sS'egg.n.02'
p70
I0
sg15
I0
sg12
I0
sg10
I0
sg13
I3
sg16
I0
sg19
I0
sg14
I0
sg11
I0
sg18
I0
ssg16
(dp71
g30
I0
sg8
I0
sg17
I0
sg31
I0
sg21
I0
sg9
I0
sg15
I0
sg12
I0
sg13
I0
sg20
I0
sg10
I0
sg16
I0
sg19
I0
sg14
I0
sg11
I0
sg18
I0
ssg15
(dp72
g30
I0
sg8
I0
sg17
I0
sg31
I0
sg21
I0
sg9
I0
sg14
I0
sg12
I0
sg13
I0
sg20
I0
sg10
I0
sg16
I3
sg19
I0
sg15
I0
sg11
I0
sg18
I0
ssg24
(dp73
g23
I0
sg34
I0
sg59
I0
sg64
I0
sg33
I0
sg60
I0
sg22
I0
sg27
I0
sg61
I0
sg26
I0
sg25
I0
sg28
I0
sg62
I0
sg24
I3
sg65
I0
sg29
I0
sg32
I0
ssg18
(dp74
S'cheese.n.01'
p75
I0
sg8
I0
sg17
I0
sg21
I0
sg9
I0
sS'tomato.n.01'
p76
I0
sg15
I0
sg12
I0
sg13
I0
sg20
I0
sg10
I0
sg16
I0
sg19
I0
sg14
I0
sg11
I0
sg18
I3
ssg8
(dp77
g35
I0
sg23
I0
sg29
I0
sg13
I0
sg16
I0
sg15
I0
sg24
I0
sg18
I0
sg8
I60
sg36
I0
sg22
I0
sg20
I0
sg32
I0
sg14
I0
sg33
I0
sg30
I0
sg17
I0
sg21
I0
sg31
I0
sg27
I0
sg26
I0
sg10
I0
sg11
I0
sg34
I0
sg9
I0
sg12
I0
sg25
I0
sg28
I0
sg19
I0
ssg36
(dp78
g35
I0
sg41
I0
sg42
I0
sg43
I0
sg44
I0
sg36
I3
sg45
I0
sg46
I0
sg47
I0
sg48
I0
sg49
I0
sg50
I0
sg51
I0
sg52
I0
sg53
I0
sg54
I0
sg55
I0
sg56
I0
sg57
I0
ssg22
(dp79
g23
I0
sg59
I0
sg24
I0
sg60
I0
sg22
I3
sg27
I0
sg61
I0
sg26
I0
sg25
I0
sg28
I0
sg62
I0
sg63
I0
sg64
I0
sg65
I0
sg29
I0
sg66
I0
ssg20
(dp80
S'cheese.n.01'
p81
I0
sS'cut.v.01'
p82
I0
sS'knife.n.01'
p83
I0
sg21
I0
sS'tomato.n.01'
p84
I0
sS'potato.n.01'
p85
I0
sS'slice.n.06'
p86
I0
sg20
I3
sS'pizza.n.01'
p87
I0
sS'zucchini.n.02'
p88
I0
sS'lemon.n.01'
p89
I0
sS'zucchini.n.01'
p90
I0
sS'cabbage.n.01'
p91
I0
sS'piece.n.08'
p92
I0
sS'green_onion.n.01'
p93
I0
ssg32
(dp94
g35
I0
sg34
I0
sS'cut.v.01'
p95
I0
sS'cabbage.n.01'
p96
I0
sg44
I0
sg36
I0
sS'fork.n.04'
p97
I0
sS'slice.n.06'
p98
I0
sg47
I0
sS'fork.n.01'
p99
I0
sS'pizza.n.01'
p100
I0
sS'cake.n.03'
p101
I0
sg32
I3
sg53
I0
sS'knife.n.01'
p102
I0
sS'piece.n.08'
p103
I0
sS'bread.n.01'
p104
I0
sg33
I0
ssg14
(dp105
g30
I0
sg8
I0
sg17
I0
sg31
I0
sg21
I0
sg9
I0
sg15
I0
sg12
I0
sg13
I0
sg20
I0
sg10
I0
sg16
I0
sg19
I0
sg14
I3
sg11
I0
sg18
I0
ssg33
(dp106
g35
I0
sg34
I0
sg95
I0
sg96
I0
sg44
I0
sg36
I0
sg97
I0
sg98
I0
sg47
I0
sg99
I0
sg100
I0
sg101
I0
sg33
I3
sg53
I0
sg102
I0
sg103
I0
sg104
I0
sg32
I0
ssg30
(dp107
S'mushroom.n.05'
p108
I0
sg30
I0
sS'cut.v.01'
p109
I0
sS'knife.n.01'
p110
I0
sS'flesh.n.01'
p111
I0
sS'egg.n.02'
p112
I0
sg31
I3
sS'slice.n.06'
p113
I0
sS'orange.n.01'
p114
I0
sS'human_body.n.01'
p115
I0
sS'zucchini.n.02'
p116
I0
sS'meat.n.01'
p117
I0
sS'lemon.n.01'
p118
I0
sS'potato.n.01'
p119
I0
sS'zucchini.n.01'
p120
I0
sS'piece.n.08'
p121
I0
sS'vegetable.n.01'
p122
I0
sS'cleaver.n.01'
p123
I0
ssg17
(dp124
g35
I0
sg23
I0
sg29
I0
sg13
I0
sg16
I0
sg15
I0
sg24
I0
sg18
I0
sg8
I0
sg36
I0
sg22
I0
sg20
I0
sg32
I0
sg14
I0
sg33
I0
sg47
I0
sg17
I15
sg21
I0
sg44
I0
sg27
I0
sg26
I0
sg10
I0
sg11
I0
sg34
I0
sg9
I0
sg12
I0
sg25
I0
sg28
I0
sg19
I0
ssg21
(dp125
g81
I0
sg82
I0
sg83
I0
sg21
I3
sg84
I0
sg85
I0
sg86
I0
sg20
I0
sg87
I0
sg88
I0
sg89
I0
sg90
I0
sg91
I0
sg92
I0
sg93
I0
ssg31
(dp126
g108
I0
sg30
I0
sg109
I0
sg110
I0
sg111
I0
sg112
I0
sg31
I0
sg113
I0
sg114
I0
sg115
I0
sg116
I0
sg117
I0
sg118
I0
sg119
I0
sg120
I0
sg121
I0
sg122
I0
sg123
I0
ssg27
(dp127
g35
I0
sg23
I0
sg34
I0
sg59
I0
sg24
I0
sg36
I0
sg22
I0
sg27
I0
sg61
I0
sg26
I0
sg25
I0
sg28
I0
sg32
I0
sg64
I0
sg65
I0
sg29
I0
sg33
I0
ssg26
(dp128
g35
I0
sg23
I0
sg34
I0
sg59
I0
sg24
I0
sg36
I0
sg22
I0
sg27
I3
sg61
I0
sg26
I0
sg25
I0
sg28
I0
sg32
I0
sg64
I0
sg65
I0
sg29
I0
sg33
I0
ssg10
(dp129
g69
I0
sg30
I0
sg8
I0
sg17
I0
sg31
I0
sg9
I0
sg70
I0
sg15
I0
sg12
I0
sg13
I0
sg10
I0
sg16
I0
sg19
I0
sg14
I0
sg11
I0
sg18
I0
ssg11
(dp130
g35
I0
sg23
I0
sg29
I0
sg13
I0
sg16
I0
sg15
I0
sg24
I0
sg18
I0
sg8
I0
sg36
I0
sg22
I0
sg20
I0
sg32
I0
sg14
I0
sg33
I0
sg30
I0
sg17
I0
sg21
I0
sg31
I0
sg27
I0
sg26
I0
sg10
I0
sg11
I1
sg34
I0
sg9
I0
sg12
I11
sg25
I0
sg28
I0
sg19
I0
ssg34
(dp131
g35
I0
sg34
I3
sg95
I0
sg96
I0
sg44
I0
sg36
I0
sg97
I0
sg98
I0
sg47
I0
sg99
I0
sg100
I0
sg101
I0
sg32
I0
sg53
I0
sg102
I0
sg103
I0
sg104
I0
sg33
I0
ssg9
(dp132
g69
I0
sg30
I0
sg8
I0
sg17
I0
sg31
I0
sg9
I0
sg70
I0
sg15
I0
sg12
I0
sg13
I0
sg10
I3
sg16
I0
sg19
I0
sg14
I0
sg11
I0
sg18
I0
ssg12
(dp133
g35
I0
sg23
I0
sg29
I0
sg13
I0
sg16
I0
sg15
I0
sg24
I0
sg18
I0
sg8
I0
sg36
I0
sg22
I0
sg20
I0
sg32
I0
sg14
I0
sg33
I0
sg30
I0
sg17
I0
sg21
I0
sg31
I0
sg27
I0
sg26
I0
sg10
I0
sg11
I0
sg34
I0
sg9
I0
sg12
I0
sg25
I0
sg28
I0
sg19
I0
ssg25
(dp134
g23
I0
sg34
I0
sg59
I0
sg24
I0
sg33
I0
sg60
I0
sg22
I0
sg27
I0
sg61
I0
sg26
I0
sg25
I3
sg28
I0
sg62
I0
sg64
I0
sg65
I0
sg29
I0
sg32
I0
ssg28
(dp135
g35
I0
sg23
I0
sg34
I0
sg59
I0
sg24
I0
sg36
I0
sg22
I0
sg27
I0
sg61
I0
sg26
I0
sg25
I0
sg28
I3
sg32
I0
sg64
I0
sg65
I0
sg29
I0
sg33
I0
ssg19
(dp136
g108
I0
sg75
I0
sg13
I0
sg16
I0
sg15
I0
sg18
I0
sg8
I0
sg112
I0
sg76
I0
sg20
I0
sg117
I0
sg14
I0
sg123
I0
sg30
I0
sg17
I0
sg21
I0
sg31
I0
sg10
I0
sg11
I0
sg122
I0
sg9
I0
sg12
I0
sg19
I6
sssb.