ccopy_reg
_reconstructor
p0
(cutils.eval
ConfusionMatrix
p1
c__builtin__
object
p2
Ntp3
Rp4
(dp5
S'labels'
p6
(lp7
S'put.v.01'
p8
aS'table.n.03'
p9
aS'plate.n.04'
p10
aS'plate.n.08'
p11
aS'salmon.n.03'
p12
asS'instanceCount'
p13
I6
sS'matrix'
p14
(dp15
g10
(dp16
S'plate.n.04'
p17
I1
sg11
I1
ssg12
(dp18
S'salmon.n.03'
p19
I1
ssg11
(dp20
g11
I0
ssg8
(dp21
S'put.v.01'
p22
I2
ssg9
(dp23
S'table.n.03'
p24
I1
sssb.