ccopy_reg
_reconstructor
p0
(cutils.eval
ConfusionMatrix
p1
c__builtin__
object
p2
Ntp3
Rp4
(dp5
S'labels'
p6
(lp7
S'fill.v.01'
p8
aS'pitcher.n.02'
p9
aS'milk.n.01'
p10
aS'opening.n.01'
p11
aS'opening.n.10'
p12
aS'fill.v.09'
p13
aS'curd.n.01'
p14
asS'instanceCount'
p15
I6
sS'matrix'
p16
(dp17
g13
(dp18
S'fill.v.09'
p19
I1
ssg8
(dp20
S'fill.v.01'
p21
I1
ssg9
(dp22
S'pitcher.n.02'
p23
I1
ssg14
(dp24
S'curd.n.01'
p25
I1
ssg12
(dp26
g12
I0
ssg10
(dp27
S'milk.n.01'
p28
I1
ssg11
(dp29
g12
I1
sssb.