ccopy_reg
_reconstructor
p0
(cutils.eval
ConfusionMatrix
p1
c__builtin__
object
p2
Ntp3
Rp4
(dp5
S'labels'
p6
(lp7
S'opening.n.01'
p8
aS'gap.n.03'
p9
aS'fill.v.09'
p10
aS'batter.n.02'
p11
aS'ice.n.01'
p12
aS'methamphetamine.n.01'
p13
aS'fill.v.01'
p14
aS'bowl.n.01'
p15
asS'instanceCount'
p16
I6
sS'matrix'
p17
(dp18
g9
(dp19
g9
I0
ssg10
(dp20
S'fill.v.09'
p21
I1
ssg13
(dp22
g13
I0
ssg14
(dp23
S'fill.v.01'
p24
I1
ssg12
(dp25
g13
I1
ssg15
(dp26
S'bowl.n.01'
p27
I1
ssg11
(dp28
S'batter.n.02'
p29
I1
ssg8
(dp30
g9
I1
sssb.