ccopy_reg
_reconstructor
p0
(cutils.eval
ConfusionMatrix
p1
c__builtin__
object
p2
Ntp3
Rp4
(dp5
S'labels'
p6
(lp7
S'add.v.01'
p8
aS'dressing.n.01'
p9
aS'dressing.n.04'
p10
aS'salad.n.01'
p11
aS'egg.n.02'
p12
aS'apple.n.01'
p13
aS'french_fries.n.01'
p14
aS'steak.n.01'
p15
aS'onion.n.03'
p16
aS'mixing_bowl.n.01'
p17
aS'butter.n.01'
p18
aS'sugar.n.01'
p19
aS'vegetable.n.01'
p20
aS'milk.n.01'
p21
aS'milk.n.04'
p22
aS'water.n.06'
p23
aS'water_system.n.02'
p24
asS'instanceCount'
p25
I21
sS'matrix'
p26
(dp27
g20
(dp28
S'vegetable.n.01'
p29
I1
ssg21
(dp30
g22
I1
ssg8
(dp31
S'add.v.01'
p32
I8
ssg10
(dp33
g10
I0
ssg24
(dp34
g24
I0
ssg17
(dp35
S'mixing_bowl.n.01'
p36
I1
ssg23
(dp37
g24
I1
ssg9
(dp38
g10
I1
ssg15
(dp39
S'steak.n.01'
p40
I1
ssg14
(dp41
S'french_fries.n.01'
p42
I1
ssg12
(dp43
S'egg.n.02'
p44
I1
ssg22
(dp45
g22
I0
ssg13
(dp46
S'apple.n.01'
p47
I1
ssg11
(dp48
S'salad.n.01'
p49
I1
ssg18
(dp50
S'butter.n.01'
p51
I1
ssg16
(dp52
S'onion.n.03'
p53
I1
ssg19
(dp54
S'sugar.n.01'
p55
I1
sssb.