ccopy_reg
_reconstructor
p0
(cutils.eval
ConfusionMatrix
p1
c__builtin__
object
p2
Ntp3
Rp4
(dp5
S'labels'
p6
(lp7
S'add.v.01'
p8
aS'asparagus.n.02'
p9
aS'salad.n.01'
p10
aS'corn.n.03'
p11
aS'dish.n.02'
p12
aS'dish.n.01'
p13
aS'ingredient.n.03'
p14
aS'concoction.n.01'
p15
aS'mixture.n.01'
p16
aS'cream.n.02'
p17
aS'cream.n.03'
p18
aS'pan.n.03'
p19
aS'butter.n.01'
p20
aS'vanilla.n.02'
p21
aS'egg.n.02'
p22
aS'mixing_bowl.n.01'
p23
aS'pot.n.01'
p24
aS'pot.n.04'
p25
aS'bean.n.01'
p26
asS'instanceCount'
p27
I25
sS'matrix'
p28
(dp29
g22
(dp30
S'egg.n.02'
p31
I1
ssg11
(dp32
S'corn.n.03'
p33
I1
ssg23
(dp34
S'mixing_bowl.n.01'
p35
I1
ssg10
(dp36
S'salad.n.01'
p37
I1
ssg20
(dp38
S'butter.n.01'
p39
I2
ssg16
(dp40
g16
I0
ssg17
(dp41
g18
I1
ssg14
(dp42
S'ingredient.n.03'
p43
I2
ssg24
(dp44
g25
I1
ssg18
(dp45
g18
I0
ssg9
(dp46
S'asparagus.n.02'
p47
I1
ssg25
(dp48
g25
I0
ssg12
(dp49
g13
I1
ssg13
(dp50
g13
I0
ssg19
(dp51
S'pan.n.03'
p52
I2
ssg26
(dp53
S'bean.n.01'
p54
I1
ssg15
(dp55
g16
I1
ssg8
(dp56
S'add.v.01'
p57
I8
ssg21
(dp58
S'vanilla.n.02'
p59
I1
sssb.