ccopy_reg
_reconstructor
p0
(cutils.eval
ConfusionMatrix
p1
c__builtin__
object
p2
Ntp3
Rp4
(dp5
S'labels'
p6
(lp7
S'vegetable.n.01'
p8
aS'add.v.01'
p9
aS'milk.n.01'
p10
aS'milk.n.04'
p11
aS'water.n.06'
p12
aS'water_system.n.02'
p13
aS'sauce.n.01'
p14
aS'cream.n.02'
p15
aS'cream.n.03'
p16
aS'salt.n.02'
p17
aS'meat.n.01'
p18
aS'kernel.n.01'
p19
aS'asparagus.n.02'
p20
aS'salad.n.01'
p21
aS'corn.n.03'
p22
aS'dish.n.02'
p23
aS'dish.n.01'
p24
aS'ingredient.n.03'
p25
aS'concoction.n.01'
p26
aS'mixture.n.01'
p27
aS'pan.n.03'
p28
aS'butter.n.01'
p29
aS'vanilla.n.02'
p30
asS'instanceCount'
p31
I25
sS'matrix'
p32
(dp33
g19
(dp34
g19
I0
ssg22
(dp35
S'corn.n.03'
p36
I1
ssg23
(dp37
g24
I1
ssg24
(dp38
g24
I0
ssg11
(dp39
g11
I0
ssg9
(dp40
S'add.v.01'
p41
I8
ssg10
(dp42
g11
I1
ssg28
(dp43
S'pan.n.03'
p44
I1
ssg29
(dp45
S'butter.n.01'
p46
I1
ssg20
(dp47
S'asparagus.n.02'
p48
I1
ssg18
(dp49
g19
I1
ssg30
(dp50
S'vanilla.n.02'
p51
I1
ssg26
(dp52
g27
I1
ssg14
(dp53
S'sauce.n.01'
p54
I1
ssg17
(dp55
S'salt.n.02'
p56
I1
ssg27
(dp57
g27
I0
ssg15
(dp58
g16
I2
ssg25
(dp59
S'ingredient.n.03'
p60
I1
ssg16
(dp61
g16
I0
ssg8
(dp62
S'vegetable.n.01'
p63
I1
ssg13
(dp64
g13
I0
ssg12
(dp65
g13
I1
ssg21
(dp66
S'salad.n.01'
p67
I1
sssb.