ccopy_reg
_reconstructor
p0
(cutils.eval
ConfusionMatrix
p1
c__builtin__
object
p2
Ntp3
Rp4
(dp5
S'labels'
p6
(lp7
S'add.v.01'
p8
aS'ingredient.n.03'
p9
aS'concoction.n.01'
p10
aS'mixture.n.01'
p11
aS'cream.n.02'
p12
aS'cream.n.03'
p13
aS'pan.n.03'
p14
aS'butter.n.01'
p15
aS'vanilla.n.02'
p16
aS'egg.n.02'
p17
aS'mixing_bowl.n.01'
p18
aS'pot.n.01'
p19
aS'pot.n.09'
p20
aS'bean.n.01'
p21
aS'rib.n.03'
p22
asS'instanceCount'
p23
I24
sS'matrix'
p24
(dp25
g14
(dp26
S'pan.n.03'
p27
I3
ssg20
(dp28
g20
I0
ssg18
(dp29
S'mixing_bowl.n.01'
p30
I1
ssg22
(dp31
S'rib.n.03'
p32
I1
ssg17
(dp33
S'egg.n.02'
p34
I1
ssg15
(dp35
S'butter.n.01'
p36
I2
ssg11
(dp37
g11
I0
ssg12
(dp38
g13
I1
ssg9
(dp39
S'ingredient.n.03'
p40
I2
ssg19
(dp41
g20
I1
ssg13
(dp42
g13
I0
ssg16
(dp43
S'vanilla.n.02'
p44
I2
ssg21
(dp45
S'bean.n.01'
p46
I1
ssg10
(dp47
g11
I1
ssg8
(dp48
S'add.v.01'
p49
I8
sssb.