ccopy_reg
_reconstructor
p0
(cutils.eval
ConfusionMatrix
p1
c__builtin__
object
p2
Ntp3
Rp4
(dp5
S'labels'
p6
(lp7
S'add.v.01'
p8
aS'rib.n.03'
p9
aS'pan.n.03'
p10
aS'vanilla.n.02'
p11
aS'dressing.n.01'
p12
aS'dressing.n.04'
p13
aS'salad.n.01'
p14
aS'egg.n.02'
p15
aS'apple.n.01'
p16
aS'french_fries.n.01'
p17
aS'steak.n.01'
p18
aS'onion.n.03'
p19
aS'mixing_bowl.n.01'
p20
aS'butter.n.01'
p21
aS'sugar.n.01'
p22
aS'boodle.n.01'
p23
asS'instanceCount'
p24
I21
sS'matrix'
p25
(dp26
g15
(dp27
S'egg.n.02'
p28
I1
ssg10
(dp29
S'pan.n.03'
p30
I1
ssg9
(dp31
S'rib.n.03'
p32
I1
ssg14
(dp33
S'salad.n.01'
p34
I1
ssg13
(dp35
g13
I0
ssg20
(dp36
S'mixing_bowl.n.01'
p37
I1
ssg12
(dp38
g13
I1
ssg18
(dp39
S'steak.n.01'
p40
I1
ssg17
(dp41
S'french_fries.n.01'
p42
I1
ssg11
(dp43
S'vanilla.n.02'
p44
I1
ssg16
(dp45
S'apple.n.01'
p46
I1
ssg23
(dp47
g23
I0
ssg8
(dp48
S'add.v.01'
p49
I8
ssg21
(dp50
S'butter.n.01'
p51
I1
ssg19
(dp52
S'onion.n.03'
p53
I1
ssg22
(dp54
g23
I1
sssb.