ccopy_reg
_reconstructor
p0
(cutils.eval
ConfusionMatrix
p1
c__builtin__
object
p2
Ntp3
Rp4
(dp5
S'labels'
p6
(lp7
S'add.v.01'
p8
aS'onion.n.03'
p9
aS'mixing_bowl.n.01'
p10
aS'butter.n.01'
p11
aS'sugar.n.01'
p12
aS'boodle.n.01'
p13
aS'vegetable.n.01'
p14
aS'milk.n.01'
p15
aS'milk.n.04'
p16
aS'water.n.06'
p17
aS'water_system.n.02'
p18
aS'sauce.n.01'
p19
aS'cream.n.02'
p20
aS'cream.n.03'
p21
aS'salt.n.02'
p22
aS'meat.n.01'
p23
aS'kernel.n.01'
p24
aS'asparagus.n.02'
p25
aS'asparagus.n.01'
p26
aS'salad.n.01'
p27
aS'corn.n.03'
p28
aS'dish.n.02'
p29
aS'dish.n.01'
p30
asS'instanceCount'
p31
I23
sS'matrix'
p32
(dp33
g24
(dp34
g24
I0
ssg28
(dp35
S'corn.n.03'
p36
I1
ssg10
(dp37
S'mixing_bowl.n.01'
p38
I1
ssg29
(dp39
g30
I1
ssg30
(dp40
g30
I0
ssg16
(dp41
g16
I0
ssg8
(dp42
S'add.v.01'
p43
I8
ssg15
(dp44
g16
I1
ssg11
(dp45
S'butter.n.01'
p46
I1
ssg25
(dp47
g26
I1
ssg26
(dp48
g26
I0
ssg23
(dp49
g24
I1
ssg19
(dp50
S'sauce.n.01'
p51
I1
ssg22
(dp52
S'salt.n.02'
p53
I1
ssg20
(dp54
g21
I1
ssg21
(dp55
g21
I0
ssg13
(dp56
g13
I0
ssg14
(dp57
S'vegetable.n.01'
p58
I1
ssg18
(dp59
g18
I0
ssg17
(dp60
g18
I1
ssg27
(dp61
S'salad.n.01'
p62
I1
ssg9
(dp63
S'onion.n.03'
p64
I1
ssg12
(dp65
g13
I1
sssb.