ccopy_reg
_reconstructor
p0
(cutils.eval
ConfusionMatrix
p1
c__builtin__
object
p2
Ntp3
Rp4
(dp5
S'labels'
p6
(lp7
S'add.v.01'
p8
aS'apple.n.01'
p9
aS'french_fries.n.01'
p10
aS'steak.n.01'
p11
aS'onion.n.03'
p12
aS'mixing_bowl.n.01'
p13
aS'butter.n.01'
p14
aS'sugar.n.01'
p15
aS'boodle.n.01'
p16
aS'vegetable.n.01'
p17
aS'milk.n.01'
p18
aS'milk.n.04'
p19
aS'water.n.06'
p20
aS'water_system.n.02'
p21
aS'sauce.n.01'
p22
aS'cream.n.02'
p23
aS'cream.n.03'
p24
aS'salt.n.02'
p25
aS'meat.n.01'
p26
aS'kernel.n.01'
p27
asS'instanceCount'
p28
I22
sS'matrix'
p29
(dp30
g26
(dp31
g27
I1
ssg25
(dp32
S'salt.n.02'
p33
I1
ssg17
(dp34
S'vegetable.n.01'
p35
I1
ssg27
(dp36
g27
I0
ssg21
(dp37
g21
I0
ssg14
(dp38
S'butter.n.01'
p39
I1
ssg13
(dp40
S'mixing_bowl.n.01'
p41
I1
ssg20
(dp42
g21
I1
ssg16
(dp43
g16
I0
ssg24
(dp44
g24
I0
ssg11
(dp45
S'steak.n.01'
p46
I1
ssg23
(dp47
g24
I1
ssg22
(dp48
S'sauce.n.01'
p49
I1
ssg10
(dp50
S'french_fries.n.01'
p51
I1
ssg19
(dp52
g19
I0
ssg9
(dp53
S'apple.n.01'
p54
I1
ssg8
(dp55
S'add.v.01'
p56
I8
ssg18
(dp57
g19
I1
ssg12
(dp58
S'onion.n.03'
p59
I1
ssg15
(dp60
g16
I1
sssb.