ccopy_reg
_reconstructor
p0
(cutils.eval
ConfusionMatrix
p1
c__builtin__
object
p2
Ntp3
Rp4
(dp5
S'labels'
p6
(lp7
S'add.v.01'
p8
aS'ingredient.n.03'
p9
aS'concoction.n.01'
p10
aS'mixture.n.01'
p11
aS'cream.n.02'
p12
aS'cream.n.03'
p13
aS'pan.n.03'
p14
aS'butter.n.01'
p15
aS'vanilla.n.02'
p16
aS'egg.n.02'
p17
aS'mixing_bowl.n.01'
p18
aS'pot.n.01'
p19
aS'pot.n.09'
p20
aS'bean.n.01'
p21
aS'rib.n.03'
p22
aS'pot.n.04'
p23
aS'dressing.n.01'
p24
aS'dressing.n.04'
p25
aS'salad.n.01'
p26
aS'apple.n.01'
p27
aS'french_fries.n.01'
p28
aS'steak.n.01'
p29
aS'onion.n.03'
p30
aS'sugar.n.01'
p31
aS'vegetable.n.01'
p32
aS'milk.n.01'
p33
aS'milk.n.04'
p34
aS'water.n.06'
p35
aS'water_system.n.02'
p36
aS'asparagus.n.02'
p37
aS'corn.n.03'
p38
aS'dish.n.02'
p39
aS'dish.n.01'
p40
aS'boodle.n.01'
p41
aS'sauce.n.01'
p42
aS'salt.n.02'
p43
aS'meat.n.01'
p44
aS'kernel.n.01'
p45
aS'asparagus.n.01'
p46
aS'flour.n.01'
p47
asS'instanceCount'
p48
I229
sS'matrix'
p49
(dp50
g45
(dp51
g45
I0
sS'corn.n.03'
p52
I0
sS'mixing_bowl.n.01'
p53
I0
sS'dish.n.02'
p54
I0
sS'dish.n.01'
p55
I0
sS'milk.n.04'
p56
I0
sS'apple.n.01'
p57
I0
sS'add.v.01'
p58
I0
sS'milk.n.01'
p59
I0
sS'pan.n.03'
p60
I0
sS'butter.n.01'
p61
I0
sS'asparagus.n.02'
p62
I0
sg46
I0
sg44
I0
sS'vanilla.n.02'
p63
I0
sS'concoction.n.01'
p64
I0
sg42
I0
sg43
I0
sS'ingredient.n.03'
p65
I0
sS'mixture.n.01'
p66
I0
sS'cream.n.02'
p67
I0
sS'cream.n.03'
p68
I0
sS'boodle.n.01'
p69
I0
sS'steak.n.01'
p70
I0
sS'vegetable.n.01'
p71
I0
sS'water_system.n.02'
p72
I0
sS'water.n.06'
p73
I0
sS'french_fries.n.01'
p74
I0
sS'salad.n.01'
p75
I0
sS'onion.n.03'
p76
I0
sS'sugar.n.01'
p77
I0
ssg38
(dp78
S'kernel.n.01'
p79
I0
sg38
I4
sS'mixing_bowl.n.01'
p80
I0
sg39
I0
sg40
I0
sS'milk.n.04'
p81
I0
sS'add.v.01'
p82
I0
sS'milk.n.01'
p83
I0
sS'pan.n.03'
p84
I0
sg47
I0
sS'egg.n.02'
p85
I0
sS'butter.n.01'
p86
I0
sS'pot.n.01'
p87
I0
sg37
I0
sg46
I0
sS'meat.n.01'
p88
I0
sS'vanilla.n.02'
p89
I0
sS'bean.n.01'
p90
I0
sS'concoction.n.01'
p91
I0
sS'sauce.n.01'
p92
I0
sS'salt.n.02'
p93
I0
sS'mixture.n.01'
p94
I0
sS'cream.n.02'
p95
I0
sS'ingredient.n.03'
p96
I0
sS'cream.n.03'
p97
I0
sS'boodle.n.01'
p98
I0
sS'vegetable.n.01'
p99
I0
sS'water_system.n.02'
p100
I0
sS'water.n.06'
p101
I0
sS'pot.n.04'
p102
I0
sS'salad.n.01'
p103
I0
sS'onion.n.03'
p104
I0
sS'sugar.n.01'
p105
I0
ssg18
(dp106
g45
I0
sg38
I0
sg18
I8
sg39
I0
sg40
I0
sg34
I0
sg27
I0
sg8
I0
sg33
I0
sg14
I0
sg20
I0
sg47
I0
sg17
I0
sg15
I0
sg19
I0
sg37
I0
sg46
I0
sg44
I0
sg16
I0
sg21
I0
sg10
I0
sg42
I0
sg43
I0
sg22
I0
sg11
I0
sg12
I0
sg9
I0
sg13
I0
sg29
I0
sg41
I0
sg32
I0
sg25
I0
sg36
I0
sg35
I0
sg24
I0
sg28
I0
sg23
I0
sg26
I0
sg30
I0
sg31
I0
ssg39
(dp107
g79
I0
sg38
I0
sg80
I0
sg39
I0
sg40
I4
sg81
I0
sg82
I0
sg83
I0
sg84
I0
sg47
I0
sg85
I0
sg86
I0
sg87
I0
sg37
I0
sg46
I0
sg88
I0
sg89
I0
sg90
I0
sg91
I0
sg92
I0
sg93
I0
sg94
I0
sg95
I0
sg96
I0
sg97
I0
sg98
I0
sg99
I0
sg100
I0
sg101
I0
sg102
I0
sg103
I0
sg104
I0
sg105
I0
ssg40
(dp108
g79
I0
sg38
I0
sg80
I0
sg39
I0
sg40
I0
sg81
I0
sg82
I0
sg83
I0
sg84
I0
sg47
I0
sg85
I0
sg86
I0
sg87
I0
sg37
I0
sg46
I0
sg88
I0
sg89
I0
sg90
I0
sg91
I0
sg92
I0
sg93
I0
sg94
I0
sg95
I0
sg96
I0
sg97
I0
sg98
I0
sg99
I0
sg100
I0
sg101
I0
sg102
I0
sg103
I0
sg104
I0
sg105
I0
ssg34
(dp109
g45
I0
sg52
I0
sS'mixing_bowl.n.01'
p110
I0
sg54
I0
sg55
I0
sg34
I0
sg27
I0
sS'add.v.01'
p111
I0
sg33
I0
sg60
I0
sS'egg.n.02'
p112
I0
sS'butter.n.01'
p113
I0
sg62
I0
sg46
I0
sg44
I0
sg63
I0
sg64
I0
sg42
I0
sg43
I0
sg65
I0
sg66
I0
sg67
I0
sg68
I0
sg69
I0
sg29
I0
sg32
I0
sS'dressing.n.04'
p114
I0
sg36
I0
sg35
I0
sS'dressing.n.01'
p115
I0
sg28
I0
sS'salad.n.01'
p116
I0
sg30
I0
sg31
I0
ssg27
(dp117
g45
I0
sg110
I0
sg34
I0
sg27
I4
sg111
I0
sg33
I0
sS'pan.n.03'
p118
I0
sg112
I0
sg113
I0
sS'pot.n.01'
p119
I0
sg44
I0
sS'vanilla.n.02'
p120
I0
sS'bean.n.01'
p121
I0
sg42
I0
sg43
I0
sS'ingredient.n.03'
p122
I0
sS'rib.n.03'
p123
I0
sg67
I0
sg68
I0
sg41
I0
sg29
I0
sg32
I0
sg114
I0
sg36
I0
sg35
I0
sg115
I0
sg28
I0
sS'pot.n.04'
p124
I0
sg116
I0
sg30
I0
sg31
I0
ssg8
(dp125
g45
I0
sg38
I0
sg18
I0
sg39
I0
sg40
I0
sg34
I0
sg27
I0
sg8
I80
sg33
I0
sg14
I0
sg20
I0
sg47
I0
sg17
I0
sg15
I0
sg19
I0
sg37
I0
sg46
I0
sg44
I0
sg16
I0
sg21
I0
sg10
I0
sg42
I0
sg43
I0
sg22
I0
sg11
I0
sg12
I0
sg9
I0
sg13
I0
sg29
I0
sg41
I0
sg32
I0
sg25
I0
sg36
I0
sg35
I0
sg24
I0
sg28
I0
sg23
I0
sg26
I0
sg30
I0
sg31
I0
ssg33
(dp126
g45
I0
sg52
I0
sg110
I0
sg54
I0
sg55
I0
sg34
I4
sg27
I0
sg111
I0
sg33
I0
sg60
I0
sg112
I0
sg113
I0
sg62
I0
sg46
I0
sg44
I0
sg63
I0
sg64
I0
sg42
I0
sg43
I0
sg65
I0
sg66
I0
sg67
I0
sg68
I0
sg69
I0
sg29
I0
sg32
I0
sg114
I0
sg36
I0
sg35
I0
sg115
I0
sg28
I0
sg116
I0
sg30
I0
sg31
I0
ssg14
(dp127
S'kernel.n.01'
p128
I0
sg38
I0
sg18
I0
sg39
I0
sg40
I0
sS'milk.n.04'
p129
I0
sS'apple.n.01'
p130
I0
sg8
I0
sS'milk.n.01'
p131
I0
sg14
I12
sg20
I0
sg47
I0
sg17
I0
sg15
I0
sg19
I0
sg37
I0
sS'meat.n.01'
p132
I0
sg16
I0
sg21
I0
sg10
I0
sS'sauce.n.01'
p133
I0
sS'salt.n.02'
p134
I0
sg22
I0
sg11
I0
sg12
I0
sg9
I0
sg13
I0
sS'steak.n.01'
p135
I0
sg41
I0
sS'vegetable.n.01'
p136
I0
sg25
I0
sS'water_system.n.02'
p137
I0
sS'water.n.06'
p138
I0
sg24
I0
sS'french_fries.n.01'
p139
I0
sg23
I0
sg26
I0
sS'onion.n.03'
p140
I0
sS'sugar.n.01'
p141
I0
ssg20
(dp142
g14
I0
sg20
I0
sg18
I0
sg22
I0
sg17
I0
sg15
I0
sg11
I0
sg12
I0
sg9
I0
sg19
I0
sg13
I0
sg16
I0
sg21
I0
sg10
I0
sg8
I0
ssg47
(dp143
S'salt.n.02'
p144
I0
sS'corn.n.03'
p145
I0
sg47
I1
sS'mixing_bowl.n.01'
p146
I0
sS'salad.n.01'
p147
I0
sS'butter.n.01'
p148
I0
sS'mixture.n.01'
p149
I0
sS'cream.n.02'
p150
I0
sS'cream.n.03'
p151
I0
sS'ingredient.n.03'
p152
I0
sS'asparagus.n.02'
p153
I0
sS'egg.n.02'
p154
I0
sS'meat.n.01'
p155
I0
sS'dish.n.01'
p156
I0
sS'pan.n.03'
p157
I0
sS'concoction.n.01'
p158
I0
sS'add.v.01'
p159
I0
sS'vanilla.n.02'
p160
I0
sS'sauce.n.01'
p161
I0
sS'dish.n.02'
p162
I0
ssg17
(dp163
g38
I0
sg18
I0
sg39
I0
sg40
I0
sg34
I0
sg27
I0
sg8
I0
sg33
I0
sg14
I0
sg20
I0
sg47
I0
sg17
I8
sg15
I0
sg19
I0
sg37
I0
sg155
I0
sg16
I0
sg21
I0
sg10
I0
sg161
I0
sg144
I0
sg22
I0
sg11
I0
sg12
I0
sg9
I0
sg13
I0
sg29
I0
sg41
I0
sg32
I0
sg25
I0
sg36
I0
sg35
I0
sg24
I0
sg28
I0
sg23
I0
sg26
I0
sg30
I0
sg31
I0
ssg15
(dp164
g45
I0
sg38
I0
sg18
I0
sg39
I0
sg40
I0
sg34
I0
sg27
I0
sg8
I0
sg33
I0
sg14
I0
sg20
I0
sg47
I0
sg17
I0
sg15
I12
sg19
I0
sg37
I0
sg46
I0
sg44
I0
sg16
I0
sg21
I0
sg10
I0
sg42
I0
sg43
I0
sg22
I0
sg11
I0
sg12
I0
sg9
I0
sg13
I0
sg29
I0
sg41
I0
sg32
I0
sg25
I0
sg36
I0
sg35
I0
sg24
I0
sg28
I0
sg23
I0
sg26
I0
sg30
I0
sg31
I0
ssg19
(dp165
g38
I0
sg18
I0
sg39
I0
sg40
I0
sS'apple.n.01'
p166
I0
sg8
I0
sg14
I0
sg20
I1
sg17
I0
sg15
I0
sg19
I0
sg37
I0
sg16
I0
sg21
I0
sg10
I0
sg22
I0
sg11
I0
sg12
I0
sg9
I0
sg13
I0
sS'steak.n.01'
p167
I0
sg25
I0
sg24
I0
sS'french_fries.n.01'
p168
I0
sg23
I3
sg26
I0
ssg37
(dp169
g79
I0
sg38
I0
sg80
I0
sg39
I0
sg40
I0
sg81
I0
sg82
I0
sg83
I0
sg84
I0
sg47
I0
sg85
I0
sg86
I0
sg87
I0
sg37
I3
sg46
I1
sg88
I0
sg89
I0
sg90
I0
sg91
I0
sg92
I0
sg93
I0
sg94
I0
sg95
I0
sg96
I0
sg97
I0
sg98
I0
sg99
I0
sg100
I0
sg101
I0
sg102
I0
sg103
I0
sg104
I0
sg105
I0
ssg46
(dp170
g79
I0
sg52
I0
sS'mixing_bowl.n.01'
p171
I0
sg54
I0
sg55
I0
sg81
I0
sS'add.v.01'
p172
I0
sg83
I0
sS'butter.n.01'
p173
I0
sg62
I0
sg46
I0
sg88
I0
sg92
I0
sg93
I0
sS'cream.n.02'
p174
I0
sS'cream.n.03'
p175
I0
sg98
I0
sg99
I0
sg100
I0
sg101
I0
sg75
I0
sg104
I0
sg105
I0
ssg44
(dp176
g45
I3
sg52
I0
sg53
I0
sg54
I0
sg55
I0
sg56
I0
sg57
I0
sg58
I0
sg59
I0
sg60
I0
sg47
I0
sg154
I0
sg61
I0
sg62
I0
sg46
I0
sg44
I1
sg63
I0
sg64
I0
sg42
I0
sg43
I0
sg65
I0
sg66
I0
sg67
I0
sg68
I0
sg69
I0
sg70
I0
sg71
I0
sg72
I0
sg73
I0
sg74
I0
sg75
I0
sg76
I0
sg77
I0
ssg16
(dp177
g128
I0
sg38
I0
sg18
I0
sg39
I0
sg40
I0
sg129
I0
sg130
I0
sg8
I0
sg131
I0
sg14
I0
sg20
I0
sg47
I0
sg17
I0
sg15
I0
sg19
I0
sg37
I0
sg132
I0
sg16
I8
sg21
I0
sg10
I0
sg133
I0
sg134
I0
sg22
I0
sg11
I0
sg12
I0
sg9
I0
sg13
I0
sg135
I0
sg41
I0
sg136
I0
sg25
I0
sg137
I0
sg138
I0
sg24
I0
sg139
I0
sg23
I0
sg26
I0
sg140
I0
sg141
I0
ssg21
(dp178
g38
I0
sg18
I0
sg39
I0
sg40
I0
sg166
I0
sg8
I0
sg14
I0
sg20
I0
sg17
I0
sg15
I0
sg19
I0
sg37
I0
sg16
I0
sg21
I4
sg10
I0
sg22
I0
sg11
I0
sg12
I0
sg9
I0
sg13
I0
sg167
I0
sg25
I0
sg24
I0
sg168
I0
sg23
I0
sg26
I0
ssg10
(dp179
g128
I0
sg38
I0
sg18
I0
sg39
I0
sg40
I0
sg129
I0
sg8
I0
sg131
I0
sg14
I0
sg20
I0
sg47
I0
sg17
I0
sg15
I0
sg19
I0
sg37
I0
sg132
I0
sg16
I0
sg21
I0
sg10
I0
sg133
I0
sg134
I0
sg22
I0
sg11
I4
sg12
I0
sg9
I0
sg13
I0
sg136
I0
sg137
I0
sg138
I0
sg102
I0
sg103
I0
ssg42
(dp180
g45
I0
sg52
I0
sg53
I0
sg54
I0
sg55
I0
sg56
I0
sg57
I0
sg58
I0
sg59
I0
sg60
I0
sg47
I0
sg154
I0
sg61
I0
sg62
I0
sg46
I0
sg44
I0
sg63
I0
sg64
I0
sg42
I4
sg43
I0
sg65
I0
sg66
I0
sg67
I0
sg68
I0
sg69
I0
sg70
I0
sg71
I0
sg72
I0
sg73
I0
sg74
I0
sg75
I0
sg76
I0
sg77
I0
ssg43
(dp181
g45
I0
sg52
I0
sg53
I0
sg54
I0
sg55
I0
sg56
I0
sg57
I0
sg58
I0
sg59
I0
sg60
I0
sg47
I0
sg154
I0
sg61
I0
sg62
I0
sg46
I0
sg44
I0
sg63
I0
sg64
I0
sg42
I0
sg43
I4
sg65
I0
sg66
I0
sg67
I0
sg68
I0
sg69
I0
sg70
I0
sg71
I0
sg72
I0
sg73
I0
sg74
I0
sg75
I0
sg76
I0
sg77
I0
ssg22
(dp182
g18
I0
sg130
I0
sg8
I0
sg14
I0
sg20
I0
sg17
I0
sg15
I0
sg19
I0
sg16
I0
sg21
I0
sg10
I0
sg22
I4
sg11
I0
sg12
I0
sg9
I0
sg13
I0
sg135
I0
sg41
I0
sg25
I0
sg24
I0
sg139
I0
sg23
I0
sg26
I0
sg140
I0
sg141
I0
ssg11
(dp183
g128
I0
sg38
I0
sg18
I0
sg39
I0
sg40
I0
sg129
I0
sg8
I0
sg131
I0
sg14
I0
sg20
I0
sg47
I0
sg17
I0
sg15
I0
sg19
I0
sg37
I0
sg132
I0
sg16
I0
sg21
I0
sg10
I0
sg133
I0
sg134
I0
sg22
I0
sg11
I0
sg12
I0
sg9
I0
sg13
I0
sg136
I0
sg137
I0
sg138
I0
sg102
I0
sg103
I0
ssg12
(dp184
g45
I0
sg38
I0
sg18
I0
sg39
I0
sg40
I0
sg56
I0
sg57
I0
sg8
I0
sg59
I0
sg14
I0
sg20
I0
sg47
I0
sg17
I0
sg15
I0
sg19
I0
sg37
I0
sg46
I0
sg44
I0
sg16
I0
sg21
I0
sg10
I0
sg42
I0
sg43
I0
sg22
I0
sg11
I0
sg12
I0
sg13
I8
sg9
I0
sg70
I0
sg69
I0
sg71
I0
sg72
I0
sg73
I0
sg74
I0
sg102
I0
sg103
I0
sg76
I0
sg77
I0
ssg9
(dp185
g128
I0
sg38
I0
sg18
I0
sg39
I0
sg40
I0
sg129
I0
sg166
I0
sg8
I0
sg131
I0
sg14
I0
sg20
I0
sg47
I0
sg17
I0
sg15
I0
sg19
I0
sg37
I0
sg132
I0
sg16
I0
sg21
I0
sg10
I0
sg133
I0
sg134
I0
sg22
I0
sg11
I0
sg12
I0
sg9
I8
sg13
I0
sg167
I0
sg136
I0
sg25
I0
sg137
I0
sg138
I0
sg24
I0
sg168
I0
sg23
I0
sg26
I0
ssg13
(dp186
g45
I0
sg38
I0
sg18
I0
sg39
I0
sg40
I0
sg56
I0
sg57
I0
sg8
I0
sg59
I0
sg14
I0
sg20
I0
sg47
I0
sg17
I0
sg15
I0
sg19
I0
sg37
I0
sg46
I0
sg44
I0
sg16
I0
sg21
I0
sg10
I0
sg42
I0
sg43
I0
sg22
I0
sg11
I0
sg12
I0
sg13
I0
sg9
I0
sg70
I0
sg69
I0
sg71
I0
sg72
I0
sg73
I0
sg74
I0
sg102
I0
sg103
I0
sg76
I0
sg77
I0
ssg29
(dp187
g45
I0
sg110
I0
sg34
I0
sg27
I0
sg111
I0
sg33
I0
sg118
I0
sg112
I0
sg113
I0
sg119
I0
sg44
I0
sg120
I0
sg121
I0
sg42
I0
sg43
I0
sg122
I0
sg123
I0
sg67
I0
sg68
I0
sg41
I0
sg29
I4
sg32
I0
sg114
I0
sg36
I0
sg35
I0
sg115
I0
sg28
I0
sg124
I0
sg116
I0
sg30
I0
sg31
I0
ssg41
(dp188
g45
I0
sg52
I0
sS'mixing_bowl.n.01'
p189
I0
sg54
I0
sg55
I0
sg56
I0
sg130
I0
sS'add.v.01'
p190
I0
sg59
I0
sg118
I0
sS'egg.n.02'
p191
I0
sS'butter.n.01'
p192
I0
sg62
I0
sg46
I0
sg44
I0
sg120
I0
sg42
I0
sg43
I0
sg123
I0
sg67
I0
sg68
I0
sg41
I0
sg135
I0
sg71
I0
sS'dressing.n.04'
p193
I0
sg72
I0
sg73
I0
sS'dressing.n.01'
p194
I0
sg139
I0
sS'salad.n.01'
p195
I0
sg140
I0
sg141
I0
ssg32
(dp196
g45
I0
sg52
I0
sg110
I0
sg54
I0
sg55
I0
sg34
I0
sg27
I0
sg111
I0
sg33
I0
sg60
I0
sg112
I0
sg113
I0
sg62
I0
sg46
I0
sg44
I0
sg63
I0
sg64
I0
sg42
I0
sg43
I0
sg65
I0
sg66
I0
sg67
I0
sg68
I0
sg69
I0
sg29
I0
sg32
I4
sg114
I0
sg36
I0
sg35
I0
sg115
I0
sg28
I0
sg116
I0
sg30
I0
sg31
I0
ssg25
(dp197
S'mixing_bowl.n.01'
p198
I0
sg34
I0
sg27
I0
sS'add.v.01'
p199
I0
sg33
I0
sS'pan.n.03'
p200
I0
sS'egg.n.02'
p201
I0
sS'butter.n.01'
p202
I0
sS'pot.n.01'
p203
I0
sS'vanilla.n.02'
p204
I0
sS'bean.n.01'
p205
I0
sS'rib.n.03'
p206
I0
sS'ingredient.n.03'
p207
I0
sg41
I0
sg29
I0
sg32
I0
sg25
I0
sg36
I0
sg35
I0
sg24
I0
sg28
I0
sg23
I0
sg26
I0
sg30
I0
sg31
I0
ssg36
(dp208
g45
I0
sg52
I0
sg110
I0
sg54
I0
sg55
I0
sg34
I0
sg27
I0
sg111
I0
sg33
I0
sg60
I0
sg112
I0
sg113
I0
sg62
I0
sg46
I0
sg44
I0
sg63
I0
sg64
I0
sg42
I0
sg43
I0
sg65
I0
sg66
I0
sg67
I0
sg68
I0
sg69
I0
sg29
I0
sg32
I0
sg114
I0
sg36
I0
sg35
I0
sg115
I0
sg28
I0
sg116
I0
sg30
I0
sg31
I0
ssg35
(dp209
g45
I0
sg52
I0
sg110
I0
sg54
I0
sg55
I0
sg34
I0
sg27
I0
sg111
I0
sg33
I0
sg60
I0
sg112
I0
sg113
I0
sg62
I0
sg46
I0
sg44
I0
sg63
I0
sg64
I0
sg42
I0
sg43
I0
sg65
I0
sg66
I0
sg67
I0
sg68
I0
sg69
I0
sg29
I0
sg32
I0
sg114
I0
sg36
I4
sg35
I0
sg115
I0
sg28
I0
sg116
I0
sg30
I0
sg31
I0
ssg24
(dp210
g198
I0
sg34
I0
sg27
I0
sg199
I0
sg33
I0
sg200
I0
sg201
I0
sg202
I0
sg203
I0
sg204
I0
sg205
I0
sg206
I0
sg207
I0
sg41
I0
sg29
I0
sg32
I0
sg25
I4
sg36
I0
sg35
I0
sg24
I0
sg28
I0
sg23
I0
sg26
I0
sg30
I0
sg31
I0
ssg28
(dp211
g45
I0
sg110
I0
sg34
I0
sg27
I0
sg111
I0
sg33
I0
sg118
I0
sg112
I0
sg113
I0
sg119
I0
sg44
I0
sg120
I0
sg121
I0
sg42
I0
sg43
I0
sg122
I0
sg123
I0
sg67
I0
sg68
I0
sg41
I0
sg29
I0
sg32
I0
sg114
I0
sg36
I0
sg35
I0
sg115
I0
sg28
I4
sg124
I0
sg116
I0
sg30
I0
sg31
I0
ssg23
(dp212
g38
I0
sg198
I0
sg39
I0
sg40
I0
sg166
I0
sg199
I0
sg200
I0
sg23
I0
sg202
I0
sg203
I0
sg37
I0
sg204
I0
sg205
I0
sg91
I0
sg206
I0
sg94
I0
sg95
I0
sg207
I0
sg97
I0
sg167
I0
sg25
I0
sg24
I0
sg168
I0
sg201
I0
sg26
I0
ssg26
(dp213
g79
I0
sg38
I0
sg198
I0
sg39
I0
sg40
I0
sg34
I0
sg27
I0
sg199
I0
sg33
I0
sg200
I0
sg47
I0
sg201
I0
sg202
I0
sg203
I0
sg37
I0
sg46
I0
sg88
I0
sg204
I0
sg205
I0
sg91
I0
sg92
I0
sg93
I0
sg206
I0
sg94
I0
sg95
I0
sg207
I0
sg97
I0
sg29
I0
sg41
I0
sg32
I0
sg25
I0
sg36
I0
sg35
I0
sg24
I0
sg28
I0
sg23
I0
sg26
I8
sg30
I0
sg31
I0
ssg30
(dp214
g45
I0
sg52
I0
sg110
I0
sg54
I0
sg55
I0
sg34
I0
sg27
I0
sg111
I0
sg33
I0
sg118
I0
sg112
I0
sg113
I0
sg62
I0
sg46
I0
sg44
I0
sg120
I0
sg42
I0
sg43
I0
sg123
I0
sg67
I0
sg68
I0
sg41
I0
sg29
I0
sg32
I0
sg114
I0
sg36
I0
sg35
I0
sg115
I0
sg28
I0
sg116
I0
sg30
I4
sg31
I0
ssg31
(dp215
g45
I0
sg52
I0
sg110
I0
sg54
I0
sg55
I0
sg34
I0
sg27
I0
sg111
I0
sg33
I0
sg118
I0
sg112
I0
sg113
I0
sg62
I0
sg46
I0
sg44
I0
sg120
I0
sg42
I0
sg43
I0
sg123
I0
sg67
I0
sg68
I0
sg41
I3
sg29
I0
sg32
I0
sg114
I0
sg36
I0
sg35
I0
sg115
I0
sg28
I0
sg116
I0
sg30
I0
sg31
I1
sssb.