ccopy_reg
_reconstructor
p0
(cutils.eval
ConfusionMatrix
p1
c__builtin__
object
p2
Ntp3
Rp4
(dp5
S'labels'
p6
(lp7
S'zucchini.n.01'
p8
aS'zucchini.n.02'
p9
aS'slice.v.03'
p10
aS'piece.n.08'
p11
aS'pizza.n.01'
p12
aS'mushroom.n.05'
p13
aS'flesh.n.01'
p14
aS'human_body.n.01'
p15
aS'cabbage.n.01'
p16
aS'lemon.n.01'
p17
aS'knife.n.01'
p18
aS'banana.n.02'
p19
aS'potato.n.01'
p20
aS'slice.n.06'
p21
aS'tomato.n.01'
p22
aS'tomato.n.02'
p23
aS'onion.n.03'
p24
aS'onion.n.02'
p25
aS'mustard.n.02'
p26
aS'olive.n.01'
p27
aS'olive.n.04'
p28
aS'green_onion.n.01'
p29
aS'bread.n.01'
p30
aS'orange.n.01'
p31
aS'meat.n.01'
p32
aS'cleaver.n.01'
p33
aS'bacon.n.01'
p34
asS'instanceCount'
p35
I41
sS'matrix'
p36
(dp37
g13
(dp38
S'mushroom.n.05'
p39
I1
ssg30
(dp40
S'bread.n.01'
p41
I1
ssg31
(dp42
S'orange.n.01'
p43
I1
ssg9
(dp44
g9
I0
ssg8
(dp45
g9
I1
ssg18
(dp46
S'knife.n.01'
p47
I3
ssg29
(dp48
S'green_onion.n.01'
p49
I1
ssg26
(dp50
S'mustard.n.02'
p51
I1
ssg23
(dp52
g23
I0
ssg22
(dp53
g23
I1
ssg34
(dp54
S'bacon.n.01'
p55
I1
ssg32
(dp56
S'meat.n.01'
p57
I1
ssg20
(dp58
S'potato.n.01'
p59
I1
ssg33
(dp60
S'cleaver.n.01'
p61
I1
ssg10
(dp62
S'slice.v.03'
p63
I15
ssg27
(dp64
g28
I1
ssg16
(dp65
S'cabbage.n.01'
p66
I1
ssg19
(dp67
S'banana.n.02'
p68
I1
ssg28
(dp69
g28
I0
ssg15
(dp70
g15
I0
ssg11
(dp71
S'piece.n.08'
p72
I2
sg21
I2
ssg14
(dp73
g15
I1
ssg21
(dp74
g21
I0
ssg12
(dp75
S'pizza.n.01'
p76
I1
ssg17
(dp77
S'lemon.n.01'
p78
I2
ssg24
(dp79
g25
I1
ssg25
(dp80
g25
I0
sssb.