ccopy_reg
_reconstructor
p0
(cutils.eval
ConfusionMatrix
p1
c__builtin__
object
p2
Ntp3
Rp4
(dp5
S'labels'
p6
(lp7
S'cheese.n.01'
p8
aS'slice.v.03'
p9
aS'vegetable.n.01'
p10
aS'knife.n.01'
p11
aS'tomato.n.01'
p12
aS'egg.n.02'
p13
aS'piece.n.08'
p14
aS'slice.n.06'
p15
aS'zucchini.n.01'
p16
aS'zucchini.n.02'
p17
aS'pizza.n.01'
p18
aS'mushroom.n.05'
p19
aS'flesh.n.01'
p20
aS'human_body.n.01'
p21
aS'cabbage.n.01'
p22
aS'lemon.n.01'
p23
aS'banana.n.02'
p24
aS'potato.n.01'
p25
aS'onion.n.03'
p26
aS'onion.n.02'
p27
aS'mustard.n.02'
p28
aS'mustard.n.01'
p29
aS'olive.n.01'
p30
aS'olive.n.04'
p31
aS'green_onion.n.01'
p32
asS'instanceCount'
p33
I41
sS'matrix'
p34
(dp35
g19
(dp36
S'mushroom.n.05'
p37
I1
ssg8
(dp38
S'cheese.n.01'
p39
I1
ssg17
(dp40
g17
I0
ssg16
(dp41
g17
I1
ssg22
(dp42
S'cabbage.n.01'
p43
I1
ssg32
(dp44
S'green_onion.n.01'
p45
I1
ssg29
(dp46
g29
I0
ssg28
(dp47
g29
I1
ssg13
(dp48
S'egg.n.02'
p49
I1
ssg12
(dp50
S'tomato.n.01'
p51
I2
ssg25
(dp52
S'potato.n.01'
p53
I1
ssg9
(dp54
S'slice.v.03'
p55
I15
ssg30
(dp56
g31
I1
ssg11
(dp57
S'knife.n.01'
p58
I4
ssg24
(dp59
S'banana.n.02'
p60
I1
ssg31
(dp61
g31
I0
ssg21
(dp62
g21
I0
ssg14
(dp63
S'piece.n.08'
p64
I1
sg15
I3
ssg10
(dp65
S'vegetable.n.01'
p66
I1
ssg20
(dp67
g21
I1
ssg15
(dp68
g15
I0
ssg18
(dp69
S'pizza.n.01'
p70
I1
ssg23
(dp71
S'lemon.n.01'
p72
I2
ssg26
(dp73
g27
I1
ssg27
(dp74
g27
I0
sssb.