ccopy_reg
_reconstructor
p0
(cutils.eval
ConfusionMatrix
p1
c__builtin__
object
p2
Ntp3
Rp4
(dp5
S'labels'
p6
(lp7
S'slice.v.03'
p8
aS'cabbage.n.01'
p9
aS'lemon.n.01'
p10
aS'knife.n.01'
p11
aS'knife.n.02'
p12
aS'banana.n.02'
p13
aS'potato.n.01'
p14
aS'piece.n.08'
p15
aS'tomato.n.01'
p16
aS'tomato.n.02'
p17
aS'onion.n.03'
p18
aS'onion.n.02'
p19
aS'mustard.n.02'
p20
aS'olive.n.01'
p21
aS'olive.n.04'
p22
aS'green_onion.n.01'
p23
aS'bread.n.01'
p24
aS'orange.n.01'
p25
aS'meat.n.01'
p26
aS'cleaver.n.01'
p27
aS'chopper.n.02'
p28
aS'bacon.n.01'
p29
aS'bacon.n.02'
p30
aS'cheese.n.01'
p31
aS'vegetable.n.01'
p32
aS'egg.n.02'
p33
asS'instanceCount'
p34
I43
sS'matrix'
p35
(dp36
g31
(dp37
S'cheese.n.01'
p38
I1
ssg24
(dp39
S'bread.n.01'
p40
I1
ssg25
(dp41
S'orange.n.01'
p42
I1
ssg9
(dp43
S'cabbage.n.01'
p44
I1
ssg23
(dp45
S'green_onion.n.01'
p46
I1
ssg20
(dp47
S'mustard.n.02'
p48
I1
ssg17
(dp49
g17
I0
ssg16
(dp50
g17
I1
sS'tomato.n.01'
p51
I1
ssg22
(dp52
g22
I0
ssg30
(dp53
g30
I0
ssg29
(dp54
g30
I1
ssg27
(dp55
g28
I1
ssg14
(dp56
S'potato.n.01'
p57
I1
ssg26
(dp58
S'meat.n.01'
p59
I1
ssg8
(dp60
S'slice.v.03'
p61
I15
ssg21
(dp62
g22
I1
ssg28
(dp63
g28
I0
ssg11
(dp64
g12
I5
ssg13
(dp65
S'banana.n.02'
p66
I1
ssg12
(dp67
g12
I0
ssg15
(dp68
S'piece.n.08'
p69
I4
ssg32
(dp70
S'vegetable.n.01'
p71
I1
ssg10
(dp72
S'lemon.n.01'
p73
I2
ssg33
(dp74
S'egg.n.02'
p75
I1
ssg18
(dp76
g19
I1
ssg19
(dp77
g19
I0
sssb.