ccopy_reg
_reconstructor
p0
(cutils.eval
ConfusionMatrix
p1
c__builtin__
object
p2
Ntp3
Rp4
(dp5
S'labels'
p6
(lp7
S'slice.v.03'
p8
aS'lemon.n.01'
p9
aS'knife.n.01'
p10
aS'knife.n.02'
p11
aS'banana.n.02'
p12
aS'potato.n.01'
p13
aS'piece.n.08'
p14
aS'slice.n.05'
p15
aS'catsup.n.01'
p16
aS'tomato.n.01'
p17
aS'tomato.n.02'
p18
aS'slice.n.01'
p19
aS'onion.n.03'
p20
aS'onion.n.02'
p21
aS'mustard.n.02'
p22
aS'mustard.n.01'
p23
aS'olive.n.01'
p24
aS'olive.n.04'
p25
aS'green_onion.n.01'
p26
aS'bread.n.01'
p27
aS'orange.n.01'
p28
aS'meat.n.01'
p29
aS'cleaver.n.01'
p30
aS'chopper.n.02'
p31
aS'bacon.n.01'
p32
aS'cheese.n.01'
p33
aS'vegetable.n.01'
p34
aS'egg.n.02'
p35
aS'zucchini.n.01'
p36
aS'zucchini.n.02'
p37
aS'pizza.n.01'
p38
asS'instanceCount'
p39
I45
sS'matrix'
p40
(dp41
g33
(dp42
S'cheese.n.01'
p43
I1
ssg27
(dp44
S'bread.n.01'
p45
I1
ssg28
(dp46
S'orange.n.01'
p47
I1
ssg37
(dp48
g37
I0
ssg36
(dp49
g37
I1
ssg26
(dp50
S'green_onion.n.01'
p51
I1
ssg38
(dp52
S'pizza.n.01'
p53
I1
ssg23
(dp54
g23
I0
ssg22
(dp55
g23
I1
ssg18
(dp56
g18
I0
ssg17
(dp57
g18
I1
sS'tomato.n.01'
p58
I1
ssg11
(dp59
g11
I0
ssg32
(dp60
S'bacon.n.01'
p61
I1
ssg29
(dp62
S'meat.n.01'
p63
I1
ssg13
(dp64
S'potato.n.01'
p65
I1
ssg30
(dp66
g31
I1
ssg8
(dp67
S'slice.v.03'
p68
I15
ssg24
(dp69
g25
I1
ssg31
(dp70
g31
I0
ssg10
(dp71
g11
I5
ssg12
(dp72
S'banana.n.02'
p73
I1
ssg25
(dp74
g25
I0
ssg16
(dp75
S'catsup.n.01'
p76
I1
ssg14
(dp77
g19
I1
sg15
I4
ssg34
(dp78
S'vegetable.n.01'
p79
I1
ssg19
(dp80
g19
I0
ssg15
(dp81
g15
I0
ssg9
(dp82
S'lemon.n.01'
p83
I1
ssg35
(dp84
S'egg.n.02'
p85
I1
ssg20
(dp86
g21
I1
ssg21
(dp87
g21
I0
sssb.