ccopy_reg
_reconstructor
p0
(cutils.eval
ConfusionMatrix
p1
c__builtin__
object
p2
Ntp3
Rp4
(dp5
S'labels'
p6
(lp7
S'slice.v.03'
p8
aS'potato.n.01'
p9
aS'piece.n.08'
p10
aS'slice.n.06'
p11
aS'tomato.n.01'
p12
aS'tomato.n.02'
p13
aS'slice.n.04'
p14
aS'onion.n.03'
p15
aS'onion.n.02'
p16
aS'mustard.n.02'
p17
aS'olive.n.01'
p18
aS'olive.n.04'
p19
aS'knife.n.01'
p20
aS'green_onion.n.01'
p21
aS'bread.n.01'
p22
aS'orange.n.01'
p23
aS'meat.n.01'
p24
aS'cleaver.n.01'
p25
aS'bacon.n.01'
p26
aS'cheese.n.01'
p27
aS'vegetable.n.01'
p28
aS'egg.n.02'
p29
aS'zucchini.n.01'
p30
aS'zucchini.n.02'
p31
aS'pizza.n.01'
p32
aS'mushroom.n.05'
p33
aS'flesh.n.01'
p34
aS'pulp.n.02'
p35
asS'instanceCount'
p36
I43
sS'matrix'
p37
(dp38
g33
(dp39
S'mushroom.n.05'
p40
I1
ssg27
(dp41
S'cheese.n.01'
p42
I1
ssg22
(dp43
S'bread.n.01'
p44
I1
ssg23
(dp45
S'orange.n.01'
p46
I1
ssg31
(dp47
g31
I0
ssg30
(dp48
g31
I1
ssg21
(dp49
S'green_onion.n.01'
p50
I1
ssg17
(dp51
S'mustard.n.02'
p52
I1
ssg13
(dp53
g13
I0
ssg12
(dp54
g13
I1
sS'tomato.n.01'
p55
I1
ssg26
(dp56
S'bacon.n.01'
p57
I1
ssg25
(dp58
S'cleaver.n.01'
p59
I1
ssg9
(dp60
S'potato.n.01'
p61
I1
ssg24
(dp62
S'meat.n.01'
p63
I1
ssg8
(dp64
S'slice.v.03'
p65
I15
ssg18
(dp66
g19
I1
ssg20
(dp67
S'knife.n.01'
p68
I4
ssg19
(dp69
g19
I0
ssg10
(dp70
g11
I4
sg14
I1
ssg28
(dp71
S'vegetable.n.01'
p72
I1
ssg34
(dp73
g35
I1
ssg11
(dp74
g11
I0
ssg14
(dp75
g14
I0
ssg32
(dp76
S'pizza.n.01'
p77
I1
ssg35
(dp78
g35
I0
ssg29
(dp79
S'egg.n.02'
p80
I1
ssg15
(dp81
g16
I1
ssg16
(dp82
g16
I0
sssb.