ccopy_reg
_reconstructor
p0
(cutils.eval
ConfusionMatrix
p1
c__builtin__
object
p2
Ntp3
Rp4
(dp5
S'labels'
p6
(lp7
S'fill.v.01'
p8
aS'whiskey.n.01'
p9
aS'carafe.n.01'
p10
aS'jar.n.01'
p11
asS'instanceCount'
p12
I5
sS'matrix'
p13
(dp14
g11
(dp15
S'jar.n.01'
p16
I1
ssg10
(dp17
S'carafe.n.01'
p18
I1
ssg9
(dp19
S'whiskey.n.01'
p20
I1
ssg8
(dp21
S'fill.v.01'
p22
I2
sssb.