ccopy_reg
_reconstructor
p0
(cutils.eval
ConfusionMatrix
p1
c__builtin__
object
p2
Ntp3
Rp4
(dp5
S'labels'
p6
(lp7
S'ice.n.01'
p8
aS'ice.n.05'
p9
aS'fill.v.01'
p10
aS'bowl.n.01'
p11
aS'bottle.n.01'
p12
aS'fruit_juice.n.01'
p13
aS'pot.n.01'
p14
aS'water.n.06'
p15
aS'saltcellar.n.01'
p16
aS'salt.n.02'
p17
aS'pitcher.n.02'
p18
aS'milk.n.01'
p19
aS'teapot.n.01'
p20
aS'cup.n.01'
p21
aS'cola.n.02'
p22
aS'thermos.n.01'
p23
aS'coffee.n.01'
p24
asS'instanceCount'
p25
I24
sS'matrix'
p26
(dp27
g17
(dp28
S'salt.n.02'
p29
I1
ssg13
(dp30
S'fruit_juice.n.01'
p31
I1
ssg22
(dp32
S'cola.n.02'
p33
I1
ssg20
(dp34
S'teapot.n.01'
p35
I1
ssg16
(dp36
S'saltcellar.n.01'
p37
I1
ssg12
(dp38
S'bottle.n.01'
p39
I1
ssg24
(dp40
S'coffee.n.01'
p41
I1
ssg23
(dp42
S'thermos.n.01'
p43
I1
ssg14
(dp44
S'pot.n.01'
p45
I1
ssg15
(dp46
S'water.n.06'
p47
I2
ssg10
(dp48
S'fill.v.01'
p49
I8
ssg8
(dp50
g9
I1
ssg18
(dp51
S'pitcher.n.02'
p52
I1
ssg11
(dp53
S'bowl.n.01'
p54
I1
ssg9
(dp55
g9
I0
ssg21
(dp56
S'cup.n.01'
p57
I1
ssg19
(dp58
S'milk.n.01'
p59
I1
sssb.