ccopy_reg
_reconstructor
p0
(cutils.eval
ConfusionMatrix
p1
c__builtin__
object
p2
Ntp3
Rp4
(dp5
S'labels'
p6
(lp7
S'jar.n.01'
p8
aS'fill.v.01'
p9
aS'gravy.n.01'
p10
aS'gravy.n.02'
p11
aS'opening.n.01'
p12
aS'opening.n.10'
p13
aS'fill.v.09'
p14
aS'curd.n.01'
p15
aS'blender.n.01'
p16
aS'apple.n.01'
p17
aS'glass.n.02'
p18
aS'milk.n.01'
p19
aS'measuring_cup.n.01'
p20
aS'meal.n.03'
p21
aS'gap.n.03'
p22
aS'batter.n.02'
p23
aS'pan.n.03'
p24
aS'water.n.06'
p25
asS'instanceCount'
p26
I23
sS'matrix'
p27
(dp28
g10
(dp29
g11
I1
ssg24
(dp30
S'pan.n.03'
p31
I1
ssg11
(dp32
g11
I0
ssg22
(dp33
g22
I0
ssg14
(dp34
S'fill.v.01'
p35
I2
ssg16
(dp36
S'blender.n.01'
p37
I1
ssg25
(dp38
S'water.n.06'
p39
I1
ssg9
(dp40
S'fill.v.01'
p41
I6
ssg23
(dp42
S'batter.n.02'
p43
I1
ssg20
(dp44
S'measuring_cup.n.01'
p45
I1
ssg17
(dp46
S'apple.n.01'
p47
I1
ssg15
(dp48
S'curd.n.01'
p49
I1
ssg13
(dp50
g13
I0
ssg8
(dp51
S'jar.n.01'
p52
I2
ssg21
(dp53
S'meal.n.03'
p54
I1
ssg19
(dp55
S'milk.n.01'
p56
I1
ssg18
(dp57
S'glass.n.02'
p58
I1
ssg12
(dp59
g13
I1
sg22
I1
sssb.