ccopy_reg
_reconstructor
p0
(cutils.eval
ConfusionMatrix
p1
c__builtin__
object
p2
Ntp3
Rp4
(dp5
S'labels'
p6
(lp7
S'pot.n.01'
p8
aS'fill.v.01'
p9
aS'water.n.06'
p10
aS'saltcellar.n.01'
p11
aS'salt.n.02'
p12
aS'pitcher.n.02'
p13
aS'milk.n.01'
p14
aS'teapot.n.01'
p15
aS'cup.n.01'
p16
aS'cola.n.02'
p17
aS'thermos.n.01'
p18
aS'coffee.n.01'
p19
aS'wok.n.01'
p20
aS'rice.n.01'
p21
aS'foam.n.01'
p22
aS'mug.n.04'
p23
asS'instanceCount'
p24
I24
sS'matrix'
p25
(dp26
g12
(dp27
S'salt.n.02'
p28
I1
ssg21
(dp29
S'rice.n.01'
p30
I1
ssg17
(dp31
S'cola.n.02'
p32
I1
ssg15
(dp33
S'teapot.n.01'
p34
I1
ssg11
(dp35
S'saltcellar.n.01'
p36
I1
ssg20
(dp37
S'wok.n.01'
p38
I1
ssg19
(dp39
S'coffee.n.01'
p40
I1
ssg18
(dp41
S'thermos.n.01'
p42
I1
ssg8
(dp43
S'pot.n.01'
p44
I1
ssg10
(dp45
S'water.n.06'
p46
I2
ssg9
(dp47
S'fill.v.01'
p48
I8
ssg22
(dp49
S'foam.n.01'
p50
I1
ssg13
(dp51
S'pitcher.n.02'
p52
I1
ssg16
(dp53
S'cup.n.01'
p54
I1
ssg14
(dp55
S'milk.n.01'
p56
I1
ssg23
(dp57
S'mug.n.04'
p58
I1
sssb.