ccopy_reg
_reconstructor
p0
(cutils.eval
ConfusionMatrix
p1
c__builtin__
object
p2
Ntp3
Rp4
(dp5
S'labels'
p6
(lp7
S'fill.v.01'
p8
aS'kettle.n.01'
p9
aS'water.n.06'
p10
aS'whiskey.n.01'
p11
aS'carafe.n.01'
p12
aS'ice.n.01'
p13
aS'ice.n.05'
p14
aS'bowl.n.01'
p15
aS'bowl.n.08'
p16
aS'bottle.n.01'
p17
aS'fruit_juice.n.01'
p18
aS'pot.n.01'
p19
aS'saltcellar.n.01'
p20
aS'salt.n.02'
p21
aS'pitcher.n.02'
p22
aS'milk.n.01'
p23
aS'teapot.n.01'
p24
asS'instanceCount'
p25
I24
sS'matrix'
p26
(dp27
g21
(dp28
S'salt.n.02'
p29
I1
ssg18
(dp30
S'fruit_juice.n.01'
p31
I1
ssg24
(dp32
S'teapot.n.01'
p33
I1
ssg20
(dp34
S'saltcellar.n.01'
p35
I1
ssg17
(dp36
S'bottle.n.01'
p37
I1
ssg19
(dp38
S'pot.n.01'
p39
I1
ssg10
(dp40
S'water.n.06'
p41
I3
ssg8
(dp42
S'fill.v.01'
p43
I8
ssg13
(dp44
g14
I1
ssg22
(dp45
S'pitcher.n.02'
p46
I1
ssg15
(dp47
g16
I1
ssg9
(dp48
S'kettle.n.01'
p49
I1
ssg14
(dp50
g14
I0
ssg23
(dp51
S'milk.n.01'
p52
I1
ssg16
(dp53
g16
I0
ssg12
(dp54
S'carafe.n.01'
p55
I1
ssg11
(dp56
S'whiskey.n.01'
p57
I1
sssb.