ccopy_reg
_reconstructor
p0
(cutils.eval
ConfusionMatrix
p1
c__builtin__
object
p2
Ntp3
Rp4
(dp5
S'labels'
p6
(lp7
S'opening.n.01'
p8
aS'gap.n.03'
p9
aS'fill.v.09'
p10
aS'fill.v.01'
p11
aS'batter.n.02'
p12
aS'pan.n.03'
p13
aS'water.n.06'
p14
aS'kettle.n.01'
p15
aS'whiskey.n.01'
p16
aS'carafe.n.01'
p17
aS'ice.n.01'
p18
aS'ice.n.05'
p19
aS'bowl.n.01'
p20
aS'bottle.n.01'
p21
aS'fruit_juice.n.01'
p22
aS'pot.n.01'
p23
aS'saltcellar.n.01'
p24
aS'salt.n.02'
p25
asS'instanceCount'
p26
I24
sS'matrix'
p27
(dp28
g25
(dp29
S'salt.n.02'
p30
I1
ssg13
(dp31
S'pan.n.03'
p32
I1
ssg9
(dp33
g9
I0
ssg10
(dp34
g11
I1
ssg21
(dp35
S'bottle.n.01'
p36
I1
ssg22
(dp37
S'fruit_juice.n.01'
p38
I1
ssg24
(dp39
S'saltcellar.n.01'
p40
I1
ssg23
(dp41
S'pot.n.01'
p42
I1
ssg14
(dp43
S'water.n.06'
p44
I3
ssg11
(dp45
g11
I7
ssg18
(dp46
g19
I1
ssg20
(dp47
S'bowl.n.01'
p48
I1
ssg15
(dp49
S'kettle.n.01'
p50
I1
ssg19
(dp51
g19
I0
ssg12
(dp52
S'batter.n.02'
p53
I1
ssg17
(dp54
S'carafe.n.01'
p55
I1
ssg16
(dp56
S'whiskey.n.01'
p57
I1
ssg8
(dp58
g9
I1
sssb.