ccopy_reg
_reconstructor
p0
(cutils.eval
ConfusionMatrix
p1
c__builtin__
object
p2
Ntp3
Rp4
(dp5
S'labels'
p6
(lp7
S'wok.n.01'
p8
aS'fill.v.01'
p9
aS'rice.n.01'
p10
aS'foam.n.01'
p11
aS'mug.n.04'
p12
aS'jar.n.01'
p13
aS'gravy.n.01'
p14
aS'gravy.n.02'
p15
aS'opening.n.01'
p16
aS'opening.n.10'
p17
aS'fill.v.09'
p18
aS'curd.n.01'
p19
aS'blender.n.01'
p20
aS'apple.n.01'
p21
aS'glass.n.02'
p22
aS'milk.n.01'
p23
aS'measuring_cup.n.01'
p24
aS'meal.n.03'
p25
aS'gap.n.03'
p26
aS'batter.n.02'
p27
aS'pan.n.03'
p28
aS'water.n.06'
p29
aS'kettle.n.01'
p30
aS'whiskey.n.01'
p31
aS'carafe.n.01'
p32
aS'ice.n.01'
p33
aS'ice.n.05'
p34
aS'bowl.n.01'
p35
aS'bottle.n.01'
p36
aS'fruit_juice.n.01'
p37
aS'pot.n.01'
p38
aS'saltcellar.n.01'
p39
aS'salt.n.02'
p40
aS'pitcher.n.02'
p41
aS'teapot.n.01'
p42
aS'cup.n.01'
p43
aS'cola.n.02'
p44
aS'thermos.n.01'
p45
aS'coffee.n.01'
p46
aS'bowl.n.08'
p47
asS'instanceCount'
p48
I236
sS'matrix'
p49
(dp50
g39
(dp51
S'thermos.n.01'
p52
I0
sg35
I0
sg27
I0
sS'cup.n.01'
p53
I0
sS'milk.n.01'
p54
I0
sg28
I0
sg47
I0
sS'cola.n.02'
p55
I0
sg26
I0
sS'fill.v.09'
p56
I0
sg36
I0
sg38
I0
sS'fill.v.01'
p57
I0
sS'pitcher.n.02'
p58
I0
sg40
I0
sS'wok.n.01'
p59
I0
sS'coffee.n.01'
p60
I0
sS'foam.n.01'
p61
I0
sg31
I0
sS'opening.n.01'
p62
I0
sS'mug.n.04'
p63
I0
sg37
I0
sS'teapot.n.01'
p64
I0
sg39
I4
sg29
I0
sg33
I0
sg30
I0
sg34
I0
sg32
I0
sS'rice.n.01'
p65
I0
ssg45
(dp66
g45
I4
sS'bowl.n.01'
p67
I0
sS'opening.n.10'
p68
I0
sS'apple.n.01'
p69
I0
sS'foam.n.01'
p70
I0
sS'milk.n.01'
p71
I0
sg44
I0
sS'saltcellar.n.01'
p72
I0
sS'fill.v.09'
p73
I0
sS'bottle.n.01'
p74
I0
sS'pot.n.01'
p75
I0
sS'fill.v.01'
p76
I0
sg41
I0
sS'gravy.n.01'
p77
I0
sS'salt.n.02'
p78
I0
sS'gravy.n.02'
p79
I0
sS'wok.n.01'
p80
I0
sg46
I0
sS'opening.n.01'
p81
I0
sS'mug.n.04'
p82
I0
sS'fruit_juice.n.01'
p83
I0
sg42
I0
sS'blender.n.01'
p84
I0
sS'rice.n.01'
p85
I0
sS'water.n.06'
p86
I0
sS'ice.n.01'
p87
I0
sg43
I0
sS'ice.n.05'
p88
I0
sS'curd.n.01'
p89
I0
sS'jar.n.01'
p90
I0
ssg35
(dp91
g52
I0
sg35
I3
sg27
I0
sg53
I0
sS'milk.n.01'
p92
I0
sg28
I0
sg47
I1
sg55
I0
sg26
I0
sg56
I0
sg36
I0
sg38
I0
sg57
I0
sg58
I0
sS'measuring_cup.n.01'
p93
I0
sS'glass.n.02'
p94
I0
sg40
I0
sg60
I0
sg31
I0
sg62
I0
sg37
I0
sg64
I0
sg39
I0
sg29
I0
sg33
I0
sg30
I0
sg34
I0
sg32
I0
sS'meal.n.03'
p95
I0
ssg27
(dp96
g35
I0
sg27
I4
sS'opening.n.10'
p97
I0
sS'apple.n.01'
p98
I0
sS'milk.n.01'
p99
I0
sg28
I0
sg26
I0
sg56
I0
sg36
I0
sg38
I0
sg57
I0
sS'measuring_cup.n.01'
p100
I0
sS'glass.n.02'
p101
I0
sS'gravy.n.01'
p102
I0
sg40
I0
sS'gravy.n.02'
p103
I0
sg31
I0
sg62
I0
sg37
I0
sS'blender.n.01'
p104
I0
sg39
I0
sg29
I0
sg33
I0
sg30
I0
sg34
I0
sS'curd.n.01'
p105
I0
sS'jar.n.01'
p106
I0
sg32
I0
sS'meal.n.03'
p107
I0
ssg17
(dp108
S'thermos.n.01'
p109
I0
sS'batter.n.02'
p110
I0
sg17
I0
sg21
I0
sg11
I0
sg23
I0
sS'pan.n.03'
p111
I0
sS'cola.n.02'
p112
I0
sS'gap.n.03'
p113
I0
sg18
I0
sg9
I0
sg24
I0
sg22
I0
sg14
I0
sg15
I0
sg8
I0
sS'coffee.n.01'
p114
I0
sS'whiskey.n.01'
p115
I0
sg16
I0
sg12
I0
sg20
I0
sg10
I0
sS'water.n.06'
p116
I0
sS'cup.n.01'
p117
I0
sS'kettle.n.01'
p118
I0
sg19
I0
sg13
I0
sS'carafe.n.01'
p119
I0
sg25
I0
ssg21
(dp120
g109
I0
sg110
I0
sg21
I4
sg17
I0
sg11
I0
sg23
I0
sg111
I0
sg112
I0
sg113
I0
sg18
I0
sg9
I0
sg24
I0
sg22
I0
sg14
I0
sg15
I0
sg8
I0
sg114
I0
sg115
I0
sg16
I0
sg12
I0
sg20
I0
sg10
I0
sg116
I0
sg117
I0
sg118
I0
sg19
I0
sg13
I0
sg119
I0
sg25
I0
ssg11
(dp121
g45
I0
sg17
I0
sg21
I0
sg9
I0
sg23
I0
sg11
I4
sg44
I0
sS'saltcellar.n.01'
p122
I0
sg18
I0
sS'pot.n.01'
p123
I0
sg43
I0
sg41
I0
sg24
I0
sg22
I0
sg14
I0
sS'salt.n.02'
p124
I0
sg15
I0
sg8
I0
sg46
I0
sg16
I0
sg12
I0
sg42
I0
sg20
I0
sg10
I0
sg86
I0
sg19
I0
sg13
I0
sg25
I0
ssg23
(dp125
g72
I0
sg45
I0
sS'bowl.n.01'
p126
I0
sg110
I0
sg17
I0
sg21
I0
sg11
I0
sg23
I8
sg111
I0
sg47
I0
sg44
I0
sg113
I0
sg18
I0
sS'bottle.n.01'
p127
I0
sg75
I0
sg9
I0
sg41
I0
sg24
I0
sg22
I0
sg14
I0
sg78
I0
sg15
I0
sg8
I0
sg46
I0
sg115
I0
sg16
I0
sg12
I0
sS'fruit_juice.n.01'
p128
I0
sg42
I0
sg20
I0
sg10
I0
sg116
I0
sS'ice.n.01'
p129
I0
sg43
I0
sg118
I0
sS'ice.n.05'
p130
I0
sg19
I0
sg13
I0
sg119
I0
sg25
I0
ssg28
(dp131
g35
I0
sg27
I0
sg97
I0
sg98
I0
sg99
I0
sg28
I4
sg26
I0
sg56
I0
sg36
I0
sg38
I0
sg57
I0
sg100
I0
sg101
I0
sg102
I0
sg40
I0
sg103
I0
sg31
I0
sg62
I0
sg37
I0
sg104
I0
sg39
I0
sg29
I0
sg33
I0
sg30
I0
sg34
I0
sg105
I0
sg106
I0
sg32
I0
sg107
I0
ssg47
(dp132
S'salt.n.02'
p133
I0
sS'fruit_juice.n.01'
p134
I0
sS'teapot.n.01'
p135
I0
sS'saltcellar.n.01'
p136
I0
sS'bottle.n.01'
p137
I0
sS'pot.n.01'
p138
I0
sS'water.n.06'
p139
I0
sS'fill.v.01'
p140
I0
sS'ice.n.01'
p141
I0
sS'pitcher.n.02'
p142
I0
sS'bowl.n.01'
p143
I0
sS'kettle.n.01'
p144
I0
sS'ice.n.05'
p145
I0
sS'milk.n.01'
p146
I0
sg47
I0
sS'carafe.n.01'
p147
I0
sS'whiskey.n.01'
p148
I0
ssg44
(dp149
g45
I0
sg67
I0
sg68
I0
sg69
I0
sg70
I0
sg71
I0
sg44
I4
sg72
I0
sg73
I0
sg74
I0
sg75
I0
sg76
I0
sg41
I0
sg77
I0
sg78
I0
sg79
I0
sg80
I0
sg46
I0
sg81
I0
sg82
I0
sg83
I0
sg42
I0
sg84
I0
sg85
I0
sg86
I0
sg87
I0
sg43
I0
sg88
I0
sg89
I0
sg90
I0
ssg26
(dp150
g35
I0
sg27
I0
sg97
I0
sg98
I0
sg99
I0
sg28
I0
sg26
I0
sg56
I0
sg36
I0
sg38
I0
sg57
I0
sg100
I0
sg101
I0
sg102
I0
sg40
I0
sg103
I0
sg31
I0
sg62
I0
sg37
I0
sg104
I0
sg39
I0
sg29
I0
sg33
I0
sg30
I0
sg34
I0
sg105
I0
sg106
I0
sg32
I0
sg107
I0
ssg18
(dp151
g39
I0
sg109
I0
sg35
I0
sg27
I0
sg17
I0
sg21
I0
sg11
I0
sg23
I0
sg28
I0
sg112
I0
sg26
I0
sg18
I0
sg36
I0
sg38
I0
sg9
I8
sg24
I0
sg22
I0
sg14
I0
sg40
I0
sg15
I0
sg8
I0
sg114
I0
sg31
I0
sg16
I0
sg12
I0
sg37
I0
sg20
I0
sg10
I0
sg29
I0
sg33
I0
sg117
I0
sg30
I0
sg34
I0
sg19
I0
sg13
I0
sg32
I0
sg25
I0
ssg36
(dp152
g52
I0
sg35
I0
sg27
I0
sg53
I0
sg92
I0
sg28
I0
sg47
I0
sg55
I0
sg26
I0
sg56
I0
sg36
I4
sg38
I0
sg57
I0
sg58
I0
sg93
I0
sg94
I0
sg40
I0
sg60
I0
sg31
I0
sg62
I0
sg37
I0
sg64
I0
sg39
I0
sg29
I0
sg33
I0
sg30
I0
sg34
I0
sg32
I0
sg95
I0
ssg38
(dp153
g52
I0
sg35
I0
sg27
I0
sg53
I0
sg54
I0
sg28
I0
sg47
I0
sg55
I0
sg26
I0
sg56
I0
sg36
I0
sg38
I4
sg57
I0
sg58
I0
sg40
I0
sg59
I0
sg60
I0
sg61
I0
sg31
I0
sg62
I0
sg63
I0
sg37
I0
sg64
I0
sg39
I0
sg29
I0
sg33
I0
sg30
I0
sg34
I0
sg32
I0
sg65
I0
ssg9
(dp154
g39
I0
sg45
I0
sg35
I0
sg27
I0
sg17
I0
sg21
I0
sg11
I0
sg23
I0
sg28
I0
sg47
I0
sg44
I0
sg26
I0
sg18
I0
sg36
I0
sg38
I0
sg9
I72
sg41
I0
sg24
I0
sg22
I0
sg14
I0
sg40
I0
sg15
I0
sg8
I0
sg46
I0
sg31
I0
sg16
I0
sg12
I0
sg37
I0
sg42
I0
sg20
I0
sg10
I0
sg29
I0
sg33
I0
sg43
I0
sg30
I0
sg34
I0
sg19
I0
sg13
I0
sg32
I0
sg25
I0
ssg41
(dp155
g45
I0
sg67
I0
sg70
I0
sg71
I0
sg76
I0
sg47
I0
sg44
I0
sg72
I0
sg74
I0
sg75
I0
sg43
I0
sg41
I4
sg77
I0
sg78
I0
sg79
I0
sg80
I0
sg46
I0
sg148
I0
sg82
I0
sg83
I0
sg42
I0
sg85
I0
sg86
I0
sg87
I0
sg144
I0
sg88
I0
sg90
I0
sg147
I0
ssg24
(dp156
g126
I0
sg110
I0
sg17
I0
sg21
I0
sg11
I0
sg23
I0
sg111
I0
sg113
I0
sg18
I0
sg127
I0
sg9
I0
sg24
I4
sg22
I0
sg14
I0
sg15
I0
sg8
I0
sg115
I0
sg16
I0
sg12
I0
sg128
I0
sg20
I0
sg10
I0
sg116
I0
sg129
I0
sg118
I0
sg130
I0
sg19
I0
sg13
I0
sg119
I0
sg25
I0
ssg22
(dp157
g126
I0
sg110
I0
sg17
I0
sg21
I0
sg11
I0
sg23
I0
sg111
I0
sg113
I0
sg18
I0
sg127
I0
sg9
I0
sg24
I0
sg22
I4
sg14
I0
sg15
I0
sg8
I0
sg115
I0
sg16
I0
sg12
I0
sg128
I0
sg20
I0
sg10
I0
sg116
I0
sg129
I0
sg118
I0
sg130
I0
sg19
I0
sg13
I0
sg119
I0
sg25
I0
ssg14
(dp158
g45
I0
sS'batter.n.02'
p159
I0
sg17
I0
sg21
I0
sg11
I0
sg23
I0
sS'pan.n.03'
p160
I0
sg44
I0
sS'gap.n.03'
p161
I0
sg18
I0
sg9
I0
sg41
I0
sg24
I0
sg22
I0
sg14
I0
sg15
I4
sg8
I0
sg46
I0
sg16
I0
sg12
I0
sg42
I0
sg20
I0
sg10
I0
sS'water.n.06'
p162
I0
sg43
I0
sg19
I0
sg13
I0
sg25
I0
ssg40
(dp163
g52
I0
sg35
I0
sg27
I0
sg53
I0
sg54
I0
sg28
I0
sg47
I0
sg55
I0
sg26
I0
sg56
I0
sg36
I0
sg38
I0
sg57
I0
sg58
I0
sg40
I4
sg59
I0
sg60
I0
sg61
I0
sg31
I0
sg62
I0
sg63
I0
sg37
I0
sg64
I0
sg39
I0
sg29
I0
sg33
I0
sg30
I0
sg34
I0
sg32
I0
sg65
I0
ssg15
(dp164
g45
I0
sg159
I0
sg17
I0
sg21
I0
sg11
I0
sg23
I0
sg160
I0
sg44
I0
sg161
I0
sg18
I0
sg9
I0
sg41
I0
sg24
I0
sg22
I0
sg14
I0
sg15
I0
sg8
I0
sg46
I0
sg16
I0
sg12
I0
sg42
I0
sg20
I0
sg10
I0
sg162
I0
sg43
I0
sg19
I0
sg13
I0
sg25
I0
ssg8
(dp165
g45
I0
sg17
I0
sg21
I0
sg9
I0
sg23
I0
sg11
I0
sg44
I0
sg122
I0
sg18
I0
sg123
I0
sg43
I0
sg41
I0
sg24
I0
sg22
I0
sg14
I0
sg124
I0
sg15
I0
sg8
I4
sg46
I0
sg16
I0
sg12
I0
sg42
I0
sg20
I0
sg10
I0
sg86
I0
sg19
I0
sg13
I0
sg25
I0
ssg46
(dp166
g45
I0
sg67
I0
sg68
I0
sg69
I0
sg70
I0
sg71
I0
sg44
I0
sg72
I0
sg73
I0
sg74
I0
sg75
I0
sg76
I0
sg41
I0
sg77
I0
sg78
I0
sg79
I0
sg80
I0
sg46
I4
sg81
I0
sg82
I0
sg83
I0
sg42
I0
sg84
I0
sg85
I0
sg86
I0
sg87
I0
sg43
I0
sg88
I0
sg89
I0
sg90
I0
ssg31
(dp167
g35
I0
sg27
I0
sg97
I0
sg98
I0
sg47
I0
sg99
I0
sg28
I0
sg26
I0
sg56
I0
sg36
I0
sg38
I0
sg57
I0
sg142
I0
sg100
I0
sg101
I0
sg40
I0
sg31
I4
sg62
I0
sg37
I0
sg135
I0
sg104
I0
sg39
I0
sg29
I0
sg33
I0
sg30
I0
sg34
I0
sg105
I0
sg32
I0
sg107
I0
ssg16
(dp168
g39
I0
sg109
I0
sg35
I0
sg27
I0
sg17
I4
sg21
I0
sg11
I0
sg23
I0
sg28
I0
sg112
I0
sg26
I4
sg18
I0
sg36
I0
sg38
I0
sg9
I0
sg24
I0
sg22
I0
sg14
I0
sg40
I0
sg15
I0
sg8
I0
sg114
I0
sg31
I0
sg16
I0
sg12
I0
sg37
I0
sg20
I0
sg10
I0
sg29
I0
sg33
I0
sg117
I0
sg30
I0
sg34
I0
sg19
I0
sg13
I0
sg32
I0
sg25
I0
ssg12
(dp169
g45
I0
sg17
I0
sg21
I0
sg9
I0
sg23
I0
sg11
I0
sg44
I0
sg122
I0
sg18
I0
sg123
I0
sg43
I0
sg41
I0
sg24
I0
sg22
I0
sg14
I0
sg124
I0
sg15
I0
sg8
I0
sg46
I0
sg16
I0
sg12
I4
sg42
I0
sg20
I0
sg10
I0
sg86
I0
sg19
I0
sg13
I0
sg25
I0
ssg37
(dp170
g52
I0
sg35
I0
sg27
I0
sg53
I0
sg92
I0
sg28
I0
sg47
I0
sg55
I0
sg26
I0
sg56
I0
sg36
I0
sg38
I0
sg57
I0
sg58
I0
sg93
I0
sg94
I0
sg40
I0
sg60
I0
sg31
I0
sg62
I0
sg37
I4
sg64
I0
sg39
I0
sg29
I0
sg33
I0
sg30
I0
sg34
I0
sg32
I0
sg95
I0
ssg42
(dp171
g45
I0
sg67
I0
sg70
I0
sg71
I0
sg76
I0
sg47
I0
sg44
I0
sg72
I0
sg74
I0
sg75
I0
sg43
I0
sg41
I0
sg77
I0
sg78
I0
sg79
I0
sg80
I0
sg46
I0
sg148
I0
sg82
I0
sg83
I0
sg42
I4
sg85
I0
sg86
I0
sg87
I0
sg144
I0
sg88
I0
sg90
I0
sg147
I0
ssg20
(dp172
g109
I0
sg110
I0
sg17
I0
sg21
I0
sg11
I0
sg23
I0
sg111
I0
sg112
I0
sg113
I0
sg18
I0
sg9
I0
sg24
I0
sg22
I0
sg14
I0
sg15
I0
sg8
I0
sg114
I0
sg115
I0
sg16
I0
sg12
I0
sg20
I4
sg10
I0
sg116
I0
sg117
I0
sg118
I0
sg19
I0
sg13
I0
sg119
I0
sg25
I0
ssg10
(dp173
g45
I0
sg17
I0
sg21
I0
sg9
I0
sg23
I0
sg11
I0
sg44
I0
sg122
I0
sg18
I0
sg123
I0
sg43
I0
sg41
I0
sg24
I0
sg22
I0
sg14
I0
sg124
I0
sg15
I0
sg8
I0
sg46
I0
sg16
I0
sg12
I0
sg42
I0
sg20
I0
sg10
I4
sg86
I0
sg19
I0
sg13
I0
sg25
I0
ssg29
(dp174
g45
I0
sg35
I0
sg27
I0
sg97
I0
sg98
I0
sg43
I0
sg99
I0
sg28
I0
sg70
I0
sg44
I0
sg26
I0
sg56
I0
sg36
I0
sg38
I0
sg57
I0
sg47
I0
sg41
I0
sg100
I0
sg101
I0
sg102
I0
sg40
I0
sg103
I0
sg80
I0
sg46
I0
sg85
I0
sg31
I0
sg62
I0
sg82
I0
sg37
I0
sg42
I0
sg104
I0
sg39
I0
sg29
I16
sg33
I0
sg30
I0
sg34
I0
sg105
I0
sg106
I0
sg32
I0
sg107
I0
ssg33
(dp175
g52
I0
sg35
I0
sg27
I0
sg53
I0
sg92
I0
sg28
I0
sg47
I0
sg55
I0
sg26
I0
sg56
I0
sg36
I0
sg38
I0
sg57
I0
sg58
I0
sg93
I0
sg94
I0
sg40
I0
sg60
I0
sg31
I0
sg62
I0
sg37
I0
sg64
I0
sg39
I0
sg29
I0
sg33
I0
sg30
I0
sg34
I4
sg32
I0
sg95
I0
ssg43
(dp176
g45
I0
sg67
I0
sg68
I0
sg69
I0
sg70
I0
sg71
I0
sg44
I0
sg72
I0
sg73
I0
sg74
I0
sg75
I0
sg76
I0
sg41
I0
sg77
I0
sg78
I0
sg79
I0
sg80
I0
sg46
I0
sg81
I0
sg82
I0
sg83
I0
sg42
I0
sg84
I0
sg85
I0
sg86
I0
sg87
I0
sg43
I4
sg88
I0
sg89
I0
sg90
I0
ssg30
(dp177
g35
I0
sg27
I0
sg97
I0
sg98
I0
sg47
I0
sg99
I0
sg28
I0
sg26
I0
sg56
I0
sg36
I0
sg38
I0
sg57
I0
sg142
I0
sg100
I0
sg101
I0
sg40
I0
sg31
I0
sg62
I0
sg37
I0
sg135
I0
sg104
I0
sg39
I0
sg29
I0
sg33
I0
sg30
I4
sg34
I0
sg105
I0
sg32
I0
sg107
I0
ssg34
(dp178
g52
I0
sg35
I0
sg27
I0
sg53
I0
sg92
I0
sg28
I0
sg47
I0
sg55
I0
sg26
I0
sg56
I0
sg36
I0
sg38
I0
sg57
I0
sg58
I0
sg93
I0
sg94
I0
sg40
I0
sg60
I0
sg31
I0
sg62
I0
sg37
I0
sg64
I0
sg39
I0
sg29
I0
sg33
I0
sg30
I0
sg34
I0
sg32
I0
sg95
I0
ssg19
(dp179
g109
I0
sg110
I0
sg17
I0
sg21
I0
sg11
I0
sg23
I0
sg111
I0
sg112
I0
sg113
I0
sg18
I0
sg9
I0
sg24
I0
sg22
I0
sg14
I0
sg15
I0
sg8
I0
sg114
I0
sg115
I0
sg16
I0
sg12
I0
sg20
I0
sg10
I0
sg116
I0
sg117
I0
sg118
I0
sg19
I4
sg13
I0
sg119
I0
sg25
I0
ssg13
(dp180
g45
I0
sg159
I0
sg17
I0
sg21
I0
sg11
I0
sg23
I0
sg160
I0
sg44
I0
sg161
I0
sg18
I0
sg9
I0
sg41
I0
sg24
I0
sg22
I0
sg14
I0
sg15
I0
sg8
I0
sg46
I0
sg16
I0
sg12
I0
sg42
I0
sg20
I0
sg10
I0
sg162
I0
sg43
I0
sg19
I0
sg13
I8
sg25
I0
ssg32
(dp181
g35
I0
sg27
I0
sg97
I0
sg98
I0
sg47
I0
sg99
I0
sg28
I0
sg26
I0
sg56
I0
sg36
I0
sg38
I0
sg57
I0
sg142
I0
sg100
I0
sg101
I0
sg40
I0
sg31
I0
sg62
I0
sg37
I0
sg135
I0
sg104
I0
sg39
I0
sg29
I0
sg33
I0
sg30
I0
sg34
I0
sg105
I0
sg32
I4
sg107
I0
ssg25
(dp182
g126
I0
sg110
I0
sg17
I0
sg21
I0
sg11
I0
sg23
I0
sg111
I0
sg113
I0
sg18
I0
sg127
I0
sg9
I0
sg24
I0
sg22
I0
sg14
I0
sg15
I0
sg8
I0
sg115
I0
sg16
I0
sg12
I0
sg128
I0
sg20
I0
sg10
I0
sg116
I0
sg129
I0
sg118
I0
sg130
I0
sg19
I0
sg13
I0
sg119
I0
sg25
I4
sssb.