ccopy_reg
_reconstructor
p0
(cutils.eval
ConfusionMatrix
p1
c__builtin__
object
p2
Ntp3
Rp4
(dp5
S'labels'
p6
(lp7
S'opening.n.01'
p8
aS'opening.n.10'
p9
aS'fill.v.09'
p10
aS'fill.v.01'
p11
aS'curd.n.01'
p12
aS'blender.n.01'
p13
aS'apple.n.01'
p14
aS'glass.n.02'
p15
aS'milk.n.01'
p16
aS'measuring_cup.n.01'
p17
aS'meal.n.03'
p18
aS'gap.n.03'
p19
aS'batter.n.02'
p20
aS'pan.n.03'
p21
aS'water.n.06'
p22
aS'kettle.n.01'
p23
aS'whiskey.n.01'
p24
aS'carafe.n.01'
p25
asS'instanceCount'
p26
I24
sS'matrix'
p27
(dp28
g21
(dp29
S'pan.n.03'
p30
I1
ssg24
(dp31
S'whiskey.n.01'
p32
I1
ssg19
(dp33
g19
I0
ssg10
(dp34
g11
I2
ssg13
(dp35
S'blender.n.01'
p36
I1
ssg22
(dp37
S'water.n.06'
p38
I2
ssg11
(dp39
g11
I6
ssg20
(dp40
S'batter.n.02'
p41
I1
ssg23
(dp42
S'kettle.n.01'
p43
I1
ssg17
(dp44
S'measuring_cup.n.01'
p45
I1
ssg14
(dp46
S'apple.n.01'
p47
I1
ssg12
(dp48
S'curd.n.01'
p49
I1
ssg9
(dp50
g9
I0
ssg18
(dp51
S'meal.n.03'
p52
I1
ssg25
(dp53
S'carafe.n.01'
p54
I1
ssg16
(dp55
S'milk.n.01'
p56
I1
ssg15
(dp57
S'glass.n.02'
p58
I1
ssg8
(dp59
g9
I1
sg19
I1
sssb.