ccopy_reg
_reconstructor
p0
(cutils.eval
ConfusionMatrix
p1
c__builtin__
object
p2
Ntp3
Rp4
(dp5
S'labels'
p6
(lp7
S'wok.n.01'
p8
aS'fill.v.01'
p9
aS'rice.n.01'
p10
aS'foam.n.01'
p11
aS'mug.n.04'
p12
aS'jar.n.01'
p13
aS'gravy.n.01'
p14
aS'gravy.n.02'
p15
aS'opening.n.01'
p16
aS'opening.n.10'
p17
aS'fill.v.09'
p18
aS'curd.n.01'
p19
aS'blender.n.01'
p20
aS'apple.n.01'
p21
aS'glass.n.02'
p22
aS'milk.n.01'
p23
aS'measuring_cup.n.01'
p24
aS'meal.n.03'
p25
asS'instanceCount'
p26
I23
sS'matrix'
p27
(dp28
g14
(dp29
g15
I1
ssg12
(dp30
S'mug.n.04'
p31
I1
ssg15
(dp32
g15
I0
ssg25
(dp33
S'meal.n.03'
p34
I1
ssg18
(dp35
S'fill.v.01'
p36
I1
ssg8
(dp37
S'wok.n.01'
p38
I1
ssg10
(dp39
S'rice.n.01'
p40
I1
ssg20
(dp41
S'blender.n.01'
p42
I1
ssg9
(dp43
S'fill.v.01'
p44
I7
ssg24
(dp45
S'measuring_cup.n.01'
p46
I1
ssg21
(dp47
S'apple.n.01'
p48
I1
ssg19
(dp49
S'curd.n.01'
p50
I1
ssg17
(dp51
g17
I0
ssg13
(dp52
S'jar.n.01'
p53
I2
ssg11
(dp54
S'foam.n.01'
p55
I1
ssg23
(dp56
S'milk.n.01'
p57
I1
ssg22
(dp58
S'glass.n.02'
p59
I1
ssg16
(dp60
g17
I1
sssb.