ccopy_reg
_reconstructor
p0
(cutils.eval
ConfusionMatrix
p1
c__builtin__
object
p2
Ntp3
Rp4
(dp5
S'labels'
p6
(lp7
S'slice.v.03'
p8
aS'lemon.n.01'
p9
aS'vegetable.n.01'
p10
aS'knife.n.01'
p11
aS'tomato.n.01'
p12
aS'tongue.n.03'
p13
aS'orange.n.01'
p14
aS'piece.n.08'
p15
aS'green_onion.n.01'
p16
aS'bread.n.01'
p17
aS'banana.n.02'
p18
aS'bacon.n.01'
p19
aS'cheese.n.01'
p20
aS'olive.n.01'
p21
aS'olive.n.03'
p22
aS'zucchini.n.01'
p23
aS'zucchini.n.02'
p24
asS'instanceCount'
p25
I30
sS'matrix'
p26
(dp27
g22
(dp28
g22
I0
ssg8
(dp29
S'slice.v.03'
p30
I12
ssg10
(dp31
S'vegetable.n.01'
p32
I1
ssg11
(dp33
S'knife.n.01'
p34
I2
sg13
I3
ssg13
(dp35
g13
I0
ssg18
(dp36
S'banana.n.02'
p37
I1
ssg20
(dp38
S'cheese.n.01'
p39
I1
ssg12
(dp40
S'tomato.n.01'
p41
I1
ssg21
(dp42
g22
I1
ssg19
(dp43
S'bacon.n.01'
p44
I1
ssg17
(dp45
S'bread.n.01'
p46
I1
ssg14
(dp47
S'orange.n.01'
p48
I1
ssg24
(dp49
g24
I0
ssg9
(dp50
S'lemon.n.01'
p51
I2
ssg23
(dp52
g24
I1
ssg15
(dp53
S'piece.n.08'
p54
I1
ssg16
(dp55
S'green_onion.n.01'
p56
I1
sssb.