ccopy_reg
_reconstructor
p0
(cutils.eval
ConfusionMatrix
p1
c__builtin__
object
p2
Ntp3
Rp4
(dp5
S'labels'
p6
(lp7
S'put.v.01'
p8
aS'pepper.n.03'
p9
aS'pepper.n.04'
p10
aS'salt.n.02'
p11
aS'salt.n.01'
p12
aS'egg.n.02'
p13
aS'egg.n.01'
p14
aS'cake.n.03'
p15
aS'whipped_cream.n.01'
p16
asS'instanceCount'
p17
I7
sS'matrix'
p18
(dp19
g11
(dp20
g12
I1
ssg12
(dp21
g12
I0
ssg13
(dp22
g14
I1
ssg14
(dp23
g14
I0
ssg9
(dp24
g10
I1
ssg16
(dp25
S'whipped_cream.n.01'
p26
I1
ssg15
(dp27
S'cake.n.03'
p28
I1
ssg8
(dp29
S'put.v.01'
p30
I2
ssg10
(dp31
g10
I0
sssb.