ccopy_reg
_reconstructor
p0
(cutils.eval
ConfusionMatrix
p1
c__builtin__
object
p2
Ntp3
Rp4
(dp5
S'labels'
p6
(lp7
S'put.v.01'
p8
aS'cake.n.03'
p9
aS'patty.n.01'
p10
aS'whipped_cream.n.01'
p11
aS'pan.n.03'
p12
aS'chicken.n.01'
p13
asS'instanceCount'
p14
I6
sS'matrix'
p15
(dp16
g12
(dp17
S'pan.n.03'
p18
I1
ssg13
(dp19
S'chicken.n.01'
p20
I1
ssg8
(dp21
S'put.v.01'
p22
I2
ssg10
(dp23
g10
I0
ssg11
(dp24
S'whipped_cream.n.01'
p25
I1
ssg9
(dp26
g10
I1
sssb.