ccopy_reg
_reconstructor
p0
(cutils.eval
ConfusionMatrix
p1
c__builtin__
object
p2
Ntp3
Rp4
(dp5
S'labels'
p6
(lp7
S'put.v.01'
p8
aS'pan.n.03'
p9
aS'chicken.n.01'
p10
aS'onion.n.01'
p11
aS'beef.n.02'
p12
aS'plate.n.04'
p13
aS'plate.n.08'
p14
asS'instanceCount'
p15
I7
sS'matrix'
p16
(dp17
g9
(dp18
S'pan.n.03'
p19
I1
ssg10
(dp20
S'chicken.n.01'
p21
I1
ssg12
(dp22
S'beef.n.02'
p23
I1
ssg13
(dp24
g14
I1
ssg8
(dp25
S'put.v.01'
p26
I2
ssg14
(dp27
g14
I0
ssg11
(dp28
S'onion.n.01'
p29
I1
sssb.