ccopy_reg
_reconstructor
p0
(cutils.eval
ConfusionMatrix
p1
c__builtin__
object
p2
Ntp3
Rp4
(dp5
S'labels'
p6
(lp7
S'put.v.01'
p8
aS'onion.n.01'
p9
aS'onion.n.03'
p10
aS'beef.n.02'
p11
aS'plate.n.04'
p12
aS'plate.n.11'
p13
aS'pan.n.03'
p14
aS'pizza.n.01'
p15
asS'instanceCount'
p16
I7
sS'matrix'
p17
(dp18
g13
(dp19
g13
I0
ssg11
(dp20
S'beef.n.02'
p21
I1
ssg12
(dp22
g13
I1
ssg14
(dp23
S'pan.n.03'
p24
I1
ssg8
(dp25
S'put.v.01'
p26
I2
ssg15
(dp27
S'pizza.n.01'
p28
I1
ssg9
(dp29
g10
I1
ssg10
(dp30
g10
I0
sssb.