ccopy_reg
_reconstructor
p0
(cutils.eval
ConfusionMatrix
p1
c__builtin__
object
p2
Ntp3
Rp4
(dp5
S'labels'
p6
(lp7
S'put.v.01'
p8
aS'pan.n.03'
p9
aS'chicken.n.01'
p10
aS'onion.n.01'
p11
aS'beef.n.02'
p12
aS'plate.n.04'
p13
aS'plate.n.08'
p14
aS'onion.n.03'
p15
aS'plate.n.11'
p16
aS'pizza.n.01'
p17
aS'pepper.n.03'
p18
aS'pepper.n.04'
p19
aS'salt.n.02'
p20
aS'salt.n.01'
p21
aS'egg.n.02'
p22
aS'egg.n.01'
p23
aS'cake.n.03'
p24
aS'whipped_cream.n.01'
p25
aS'patty.n.01'
p26
asS'instanceCount'
p27
I34
sS'matrix'
p28
(dp29
g20
(dp30
g20
I0
sS'pan.n.03'
p31
I0
sg19
I0
sg23
I0
sg21
I2
sg18
I0
sS'pizza.n.01'
p32
I0
sg25
I0
sg24
I0
sS'put.v.01'
p33
I0
sg22
I0
ssg9
(dp34
g20
I0
sg9
I4
sg10
I0
sS'whipped_cream.n.01'
p35
I0
sg12
I0
sg13
I0
sg19
I0
sg23
I0
sg16
I0
sg8
I0
sg17
I0
sg21
I0
sS'cake.n.03'
p36
I0
sg18
I0
sg22
I0
sg14
I0
sg26
I0
sg11
I0
sg15
I0
ssg10
(dp37
g9
I0
sg10
I2
sg12
I0
sg13
I0
sg8
I0
sg26
I0
sg35
I0
sg36
I0
sg14
I0
sg11
I0
ssg12
(dp38
g9
I0
sg10
I0
sg12
I2
sg13
I0
sg16
I0
sg8
I0
sg17
I0
sg14
I0
sg11
I0
sg15
I0
ssg13
(dp39
g9
I0
sg10
I0
sg12
I0
sg13
I0
sg16
I1
sg8
I0
sg17
I0
sg14
I1
sg11
I0
sg15
I0
ssg19
(dp40
g20
I0
sg31
I0
sg19
I0
sg23
I0
sg21
I0
sg18
I0
sg32
I0
sg25
I0
sg24
I0
sg33
I0
sg22
I0
ssg23
(dp41
g20
I0
sg31
I0
sg19
I0
sg23
I0
sg21
I0
sg18
I0
sg32
I0
sg25
I0
sg24
I0
sg33
I0
sg22
I0
ssg26
(dp42
S'pan.n.03'
p43
I0
sS'chicken.n.01'
p44
I0
sS'put.v.01'
p45
I0
sg26
I0
sg35
I0
sg36
I0
ssg16
(dp46
g16
I0
sS'beef.n.02'
p47
I0
sS'plate.n.04'
p48
I0
sS'pan.n.03'
p49
I0
sS'put.v.01'
p50
I0
sg17
I0
sS'onion.n.01'
p51
I0
sg15
I0
ssg8
(dp52
g20
I0
sg9
I0
sg10
I0
sg12
I0
sg13
I0
sg19
I0
sg23
I0
sg26
I0
sg16
I0
sg8
I10
sg17
I0
sg21
I0
sg24
I0
sg18
I0
sg22
I0
sg14
I0
sg25
I0
sg11
I0
sg15
I0
ssg17
(dp53
g20
I0
sg16
I0
sg47
I0
sg48
I0
sg19
I0
sg23
I0
sg49
I0
sg50
I0
sg17
I2
sg21
I0
sg18
I0
sg22
I0
sg51
I0
sg15
I0
ssg21
(dp54
g20
I0
sg21
I0
sg19
I0
sg23
I0
sg31
I0
sg18
I0
sg32
I0
sg25
I0
sg24
I0
sg33
I0
sg22
I0
ssg24
(dp55
S'salt.n.02'
p56
I0
sS'salt.n.01'
p57
I0
sg44
I0
sS'pepper.n.04'
p58
I0
sS'egg.n.01'
p59
I0
sg43
I0
sS'pepper.n.03'
p60
I0
sg26
I1
sg25
I0
sg24
I1
sS'put.v.01'
p61
I0
sS'egg.n.02'
p62
I0
ssg18
(dp63
g20
I0
sg31
I0
sg19
I2
sg23
I0
sg21
I0
sg33
I0
sg32
I0
sg25
I0
sg24
I0
sg18
I0
sg22
I0
ssg22
(dp64
g20
I0
sg31
I0
sg19
I0
sg23
I2
sg21
I0
sg18
I0
sg32
I0
sg25
I0
sg24
I0
sg33
I0
sg22
I0
ssg14
(dp65
g9
I0
sg10
I0
sg12
I0
sg13
I0
sg8
I0
sg14
I0
sg11
I0
ssg25
(dp66
g56
I0
sg57
I0
sg44
I0
sg58
I0
sg59
I0
sg43
I0
sg60
I0
sg26
I0
sg25
I2
sg24
I0
sg61
I0
sg62
I0
ssg11
(dp67
g9
I0
sg10
I0
sg12
I0
sg13
I0
sg16
I0
sg8
I0
sg17
I0
sg14
I0
sg11
I1
sg15
I1
ssg15
(dp68
g16
I0
sg47
I0
sg48
I0
sg49
I0
sg50
I0
sg17
I0
sg51
I0
sg15
I0
sssb.