ccopy_reg
_reconstructor
p0
(cutils.eval
ConfusionMatrix
p1
c__builtin__
object
p2
Ntp3
Rp4
(dp5
S'labels'
p6
(lp7
S'put.v.01'
p8
aS'pan.n.03'
p9
aS'pizza.n.01'
p10
aS'pepper.n.03'
p11
aS'pepper.n.04'
p12
aS'salt.n.02'
p13
aS'salt.n.01'
p14
aS'egg.n.02'
p15
aS'egg.n.01'
p16
asS'instanceCount'
p17
I7
sS'matrix'
p18
(dp19
g13
(dp20
g14
I1
ssg9
(dp21
S'pan.n.03'
p22
I1
ssg12
(dp23
g12
I0
ssg16
(dp24
g16
I0
ssg14
(dp25
g14
I0
ssg11
(dp26
g12
I1
ssg10
(dp27
S'pizza.n.01'
p28
I1
ssg8
(dp29
S'put.v.01'
p30
I2
ssg15
(dp31
g16
I1
sssb.