ccopy_reg
_reconstructor
p0
(cutils.eval
ConfusionMatrix
p1
c__builtin__
object
p2
Ntp3
Rp4
(dp5
S'labels'
p6
(lp7
S'saltcellar.n.01'
p8
aS'fill.v.01'
p9
aS'fill.v.09'
p10
aS'salt.n.02'
p11
aS'jar.n.01'
p12
aS'gravy.n.01'
p13
asS'instanceCount'
p14
I6
sS'matrix'
p15
(dp16
g13
(dp17
S'gravy.n.01'
p18
I1
ssg11
(dp19
S'salt.n.02'
p20
I1
ssg10
(dp21
g10
I0
ssg8
(dp22
S'saltcellar.n.01'
p23
I1
ssg9
(dp24
S'fill.v.01'
p25
I1
sg10
I1
ssg12
(dp26
S'jar.n.01'
p27
I1
sssb.