ccopy_reg
_reconstructor
p0
(cutils.eval
ConfusionMatrix
p1
c__builtin__
object
p2
Ntp3
Rp4
(dp5
S'labels'
p6
(lp7
S'fill.v.01'
p8
aS'occupy.v.03'
p9
aS'bottle.n.01'
p10
aS'fruit_juice.n.01'
p11
aS'jar.n.01'
p12
asS'instanceCount'
p13
I5
sS'matrix'
p14
(dp15
g10
(dp16
S'bottle.n.01'
p17
I1
ssg11
(dp18
S'fruit_juice.n.01'
p19
I1
ssg9
(dp20
g9
I0
ssg12
(dp21
S'jar.n.01'
p22
I1
ssg8
(dp23
g9
I1
sS'fill.v.01'
p24
I1
sssb.