ccopy_reg
_reconstructor
p0
(cutils.eval
ConfusionMatrix
p1
c__builtin__
object
p2
Ntp3
Rp4
(dp5
S'labels'
p6
(lp7
S'opening.n.01'
p8
aS'opening.n.10'
p9
aS'fill.v.09'
p10
aS'curd.n.01'
p11
aS'gap.n.05'
p12
aS'batter.n.02'
p13
asS'instanceCount'
p14
I6
sS'matrix'
p15
(dp16
g12
(dp17
g12
I0
ssg10
(dp18
S'fill.v.09'
p19
I2
ssg13
(dp20
S'batter.n.02'
p21
I1
ssg11
(dp22
S'curd.n.01'
p23
I1
ssg9
(dp24
g9
I0
ssg8
(dp25
g9
I1
sg12
I1
sssb.