ccopy_reg
_reconstructor
p0
(cutils.eval
ConfusionMatrix
p1
c__builtin__
object
p2
Ntp3
Rp4
(dp5
S'labels'
p6
(lp7
S'fill.v.01'
p8
aS'fill.v.09'
p9
aS'measuring_cup.n.01'
p10
aS'meal.n.03'
p11
aS'meal.n.02'
p12
aS'cup.n.01'
p13
aS'cup.n.02'
p14
aS'cola.n.02'
p15
asS'instanceCount'
p16
I6
sS'matrix'
p17
(dp18
g15
(dp19
S'cola.n.02'
p20
I1
ssg9
(dp21
g9
I0
ssg14
(dp22
g14
I0
ssg13
(dp23
g14
I1
ssg10
(dp24
S'measuring_cup.n.01'
p25
I1
ssg8
(dp26
S'fill.v.01'
p27
I1
sg9
I1
ssg12
(dp28
g12
I0
ssg11
(dp29
g12
I1
sssb.