ccopy_reg
_reconstructor
p0
(cutils.eval
ConfusionMatrix
p1
c__builtin__
object
p2
Ntp3
Rp4
(dp5
S'labels'
p6
(lp7
S'fill.v.01'
p8
aS'fill.v.09'
p9
aS'blender.n.01'
p10
aS'apple.n.01'
p11
aS'foam.n.01'
p12
aS'mug.n.04'
p13
aS'saltcellar.n.01'
p14
aS'salt.n.02'
p15
aS'jar.n.01'
p16
aS'gravy.n.01'
p17
aS'pot.n.01'
p18
aS'toilet.n.02'
p19
aS'water.n.06'
p20
aS'wok.n.01'
p21
aS'occupy.v.03'
p22
aS'rice.n.01'
p23
aS'rice.n.02'
p24
aS'ice.n.01'
p25
aS'ice_rink.n.01'
p26
aS'bowl.n.01'
p27
aS'bowling_ball.n.01'
p28
aS'thermos.n.01'
p29
aS'coffee.n.01'
p30
aS'coffee_bean.n.01'
p31
aS'glass.n.02'
p32
aS'glass.n.07'
p33
aS'milk.n.01'
p34
aS'pan.n.01'
p35
aS'whiskey.n.01'
p36
aS'carafe.n.01'
p37
aS'pitcher.n.02'
p38
aS'pitcher.n.03'
p39
aS'measuring_cup.n.01'
p40
aS'meal.n.03'
p41
aS'meal.n.02'
p42
aS'cup.n.01'
p43
aS'cup.n.02'
p44
aS'cola.n.02'
p45
aS'bottle.n.01'
p46
aS'fruit_juice.n.01'
p47
aS'teapot.n.01'
p48
aS'kettle.n.01'
p49
aS'kettle.n.02'
p50
aS'opening.n.01'
p51
aS'opening.n.10'
p52
aS'curd.n.01'
p53
aS'gap.n.05'
p54
aS'batter.n.02'
p55
asS'instanceCount'
p56
I59
sS'matrix'
p57
(dp58
g19
(dp59
g19
I0
sg23
I0
sg21
I0
sg22
I0
sg18
I0
sg20
I0
sS'fill.v.01'
p60
I0
sg24
I0
ssg29
(dp61
S'occupy.v.03'
p62
I0
sg31
I0
sg28
I0
sS'fill.v.09'
p63
I0
sg26
I0
sg29
I1
sg30
I0
sS'fill.v.01'
p64
I0
sg25
I0
sg27
I0
ssg31
(dp65
g29
I0
sg31
I0
sg28
I0
sg63
I0
sg26
I0
sg62
I0
sg30
I0
sg64
I0
sg25
I0
sg27
I0
ssg28
(dp66
g29
I0
sg31
I0
sg28
I0
sg63
I0
sg26
I0
sg62
I0
sg30
I0
sg64
I0
sg25
I0
sg27
I0
ssg26
(dp67
g29
I0
sg31
I0
sg28
I0
sg63
I0
sg26
I0
sg62
I0
sg30
I0
sg64
I0
sg25
I0
sg27
I0
ssg44
(dp68
g45
I0
sS'fill.v.09'
p69
I0
sg44
I0
sS'fill.v.01'
p70
I0
sg40
I0
sg43
I0
sg42
I0
sg41
I0
ssg27
(dp71
g29
I0
sg31
I0
sg28
I1
sg63
I0
sg26
I0
sg62
I0
sg30
I0
sg64
I0
sg25
I0
sg27
I0
ssg55
(dp72
g54
I0
sS'fill.v.09'
p73
I0
sg55
I1
sg53
I0
sg52
I0
sg51
I0
ssg52
(dp74
g54
I0
sg73
I0
sg55
I0
sg53
I0
sg52
I0
sg51
I0
ssg11
(dp75
g13
I0
sg9
I0
sg10
I0
sg8
I0
sg11
I1
sg12
I0
ssg12
(dp76
g13
I0
sg9
I0
sg10
I0
sg8
I0
sg11
I0
sg12
I1
ssg34
(dp77
g35
I0
sg39
I0
sS'fill.v.09'
p78
I0
sS'water.n.06'
p79
I0
sS'fill.v.01'
p80
I0
sg36
I0
sg38
I0
sg33
I0
sg37
I0
sg34
I2
sg32
I0
ssg35
(dp81
g35
I1
sg79
I0
sg80
I0
sg33
I0
sg34
I0
sg32
I0
ssg50
(dp82
g50
I0
sS'water.n.06'
p83
I0
sg49
I0
sg48
I0
sS'fill.v.01'
p84
I0
ssg54
(dp85
g54
I0
sg73
I0
sg55
I0
sg53
I0
sg52
I0
sg51
I0
ssg45
(dp86
g45
I1
sg69
I0
sg44
I0
sg70
I0
sg40
I0
sg43
I0
sg42
I0
sg41
I0
ssg14
(dp87
g17
I0
sg15
I0
sS'fill.v.09'
p88
I0
sg14
I1
sS'fill.v.01'
p89
I0
sg16
I0
ssg46
(dp90
g46
I1
sg47
I0
sS'occupy.v.03'
p91
I0
sS'jar.n.01'
p92
I0
sS'fill.v.01'
p93
I0
ssg18
(dp94
g19
I1
sg23
I0
sg21
I0
sg22
I0
sg18
I0
sg20
I0
sg60
I0
sg24
I0
ssg8
(dp95
g19
I0
sg29
I0
sg31
I0
sg28
I0
sg26
I0
sg44
I0
sg27
I0
sg11
I0
sg12
I0
sg34
I0
sg35
I0
sg50
I0
sg45
I0
sg14
I0
sg46
I0
sg18
I0
sg8
I9
sg39
I0
sg9
I6
sg40
I0
sg33
I0
sg32
I0
sg17
I0
sg15
I0
sg21
I0
sg30
I0
sg36
I0
sg13
I0
sg47
I0
sg48
I0
sg10
I0
sg24
I0
sg22
I3
sg20
I0
sg25
I0
sg43
I0
sg49
I0
sg16
I0
sg41
I0
sg37
I0
sg38
I0
sg42
I0
sg23
I0
ssg39
(dp96
g78
I0
sS'milk.n.01'
p97
I0
sS'fill.v.01'
p98
I0
sg39
I0
sg38
I0
sg37
I0
sg36
I0
ssg9
(dp99
g29
I0
sg31
I0
sg28
I0
sg26
I0
sg27
I0
sg55
I0
sg52
I0
sg11
I0
sg12
I0
sg97
I0
sg54
I0
sg45
I0
sg14
I0
sg44
I0
sg8
I0
sg39
I0
sg9
I2
sg40
I0
sg17
I0
sg15
I0
sg30
I0
sg36
I0
sg51
I0
sg13
I0
sg10
I0
sg62
I0
sg43
I0
sg25
I0
sg53
I0
sg16
I0
sg37
I0
sg38
I0
sg42
I0
sg41
I0
ssg40
(dp100
g45
I0
sg69
I0
sg44
I0
sg43
I0
sg40
I1
sg70
I0
sg42
I0
sg41
I0
ssg33
(dp101
g35
I0
sg79
I0
sg80
I0
sg33
I0
sg34
I0
sg32
I0
ssg32
(dp102
g35
I0
sg79
I0
sg80
I0
sg33
I1
sg34
I0
sg32
I0
ssg17
(dp103
g17
I1
sg15
I0
sg88
I0
sg14
I0
sg89
I0
sg16
I0
ssg15
(dp104
g17
I0
sg15
I1
sg88
I0
sg14
I0
sg89
I0
sg16
I0
ssg21
(dp105
g19
I0
sg23
I0
sg21
I1
sg22
I0
sg18
I0
sg20
I0
sg60
I0
sg24
I0
ssg30
(dp106
g29
I0
sg31
I1
sg28
I0
sg63
I0
sg26
I0
sg62
I0
sg30
I0
sg64
I0
sg25
I0
sg27
I0
ssg36
(dp107
g78
I0
sg97
I0
sg98
I0
sg39
I0
sg38
I0
sg37
I0
sg36
I1
ssg51
(dp108
g54
I1
sg73
I0
sg55
I0
sg53
I0
sg52
I1
sg51
I0
ssg13
(dp109
g13
I1
sg9
I0
sg10
I0
sg8
I0
sg11
I0
sg12
I0
ssg47
(dp110
g46
I0
sg47
I1
sg91
I0
sg92
I0
sg93
I0
ssg48
(dp111
g83
I0
sg50
I0
sg49
I0
sg48
I1
sg84
I0
ssg10
(dp112
g13
I0
sg9
I0
sg10
I1
sg8
I0
sg11
I0
sg12
I0
ssg24
(dp113
g19
I0
sg23
I0
sg24
I0
sg22
I0
sg18
I0
sg20
I0
sg60
I0
sg21
I0
ssg22
(dp114
g19
I0
sg23
I0
sg31
I0
sg28
I0
sg26
I0
sg63
I0
sg21
I0
sg30
I0
sg47
I0
sg22
I0
sg18
I0
sg20
I0
sg46
I0
sg60
I0
sg25
I0
sg24
I0
sg27
I0
sg29
I0
sg92
I0
ssg20
(dp115
g35
I0
sg19
I0
sg23
I0
sg48
I0
sg21
I0
sg22
I0
sg18
I0
sg20
I4
sg60
I0
sg50
I0
sg24
I0
sg49
I0
sg33
I0
sg34
I0
sg32
I0
ssg25
(dp116
g29
I0
sg31
I0
sg28
I0
sg63
I0
sg26
I1
sg62
I0
sg30
I0
sg64
I0
sg25
I0
sg27
I0
ssg43
(dp117
g45
I0
sg69
I0
sg44
I1
sg70
I0
sg40
I0
sg43
I0
sg42
I0
sg41
I0
ssg49
(dp118
g83
I0
sg50
I1
sg49
I0
sg48
I0
sg84
I0
ssg53
(dp119
g54
I0
sg73
I0
sg55
I0
sg53
I1
sg52
I0
sg51
I0
ssg16
(dp120
g17
I0
sg15
I0
sg47
I0
sg91
I0
sg88
I0
sg46
I0
sg14
I0
sg89
I0
sg16
I2
ssg41
(dp121
g45
I0
sg69
I0
sg44
I0
sg43
I0
sg40
I0
sg70
I0
sg42
I1
sg41
I0
ssg37
(dp122
g78
I0
sg97
I0
sg98
I0
sg39
I0
sg38
I0
sg37
I1
sg36
I0
ssg38
(dp123
g78
I0
sg97
I0
sg98
I0
sg39
I1
sg38
I0
sg37
I0
sg36
I0
ssg42
(dp124
g45
I0
sg69
I0
sg44
I0
sg43
I0
sg40
I0
sg70
I0
sg42
I0
sg41
I0
ssg23
(dp125
g19
I0
sg22
I0
sg21
I0
sg23
I0
sg18
I0
sg20
I0
sg60
I0
sg24
I1
sssb.