ccopy_reg
_reconstructor
p0
(cutils.eval
ConfusionMatrix
p1
c__builtin__
object
p2
Ntp3
Rp4
(dp5
S'labels'
p6
(lp7
S'ice.n.01'
p8
aS'ice_rink.n.01'
p9
aS'fill.v.01'
p10
aS'fill.v.09'
p11
aS'bowl.n.01'
p12
aS'bowling_ball.n.01'
p13
aS'occupy.v.03'
p14
aS'thermos.n.01'
p15
aS'coffee.n.01'
p16
aS'coffee_bean.n.01'
p17
asS'instanceCount'
p18
I6
sS'matrix'
p19
(dp20
g15
(dp21
S'thermos.n.01'
p22
I1
ssg17
(dp23
g17
I0
ssg13
(dp24
g13
I0
ssg11
(dp25
g11
I0
ssg9
(dp26
g9
I0
ssg14
(dp27
g14
I0
ssg16
(dp28
g17
I1
ssg10
(dp29
g14
I1
sg11
I1
ssg8
(dp30
g9
I1
ssg12
(dp31
g13
I1
sssb.