ccopy_reg
_reconstructor
p0
(cutils.eval
ConfusionMatrix
p1
c__builtin__
object
p2
Ntp3
Rp4
(dp5
S'labels'
p6
(lp7
S'fill.v.01'
p8
aS'fill.v.09'
p9
aS'blender.n.01'
p10
aS'apple.n.01'
p11
aS'foam.n.01'
p12
aS'mug.n.04'
p13
asS'instanceCount'
p14
I6
sS'matrix'
p15
(dp16
g13
(dp17
S'mug.n.04'
p18
I1
ssg9
(dp19
g9
I0
ssg10
(dp20
S'blender.n.01'
p21
I1
ssg8
(dp22
g9
I2
ssg11
(dp23
S'apple.n.01'
p24
I1
ssg12
(dp25
S'foam.n.01'
p26
I1
sssb.