ccopy_reg
_reconstructor
p0
(cutils.eval
ConfusionMatrix
p1
c__builtin__
object
p2
Ntp3
Rp4
(dp5
S'labels'
p6
(lp7
S'ObjectToBeSpilled'
p8
aS'Goal'
p9
aS'ActionCause'
p10
aS'Amount'
p11
asS'instanceCount'
p12
I10
sS'matrix'
p13
(dp14
g10
(dp15
S'ActionCause'
p16
I3
ssg11
(dp17
S'Amount'
p18
I1
sS'Goal'
p19
I1
ssg8
(dp20
S'ObjectToBeSpilled'
p21
I2
ssg9
(dp22
g19
I3
sssb.