ccopy_reg
_reconstructor
p0
(cutils.eval
ConfusionMatrix
p1
c__builtin__
object
p2
Ntp3
Rp4
(dp5
S'labels'
p6
(lp7
S'ObjectToBeSpilled'
p8
aS'Goal'
p9
aS'ActionCause'
p10
asS'instanceCount'
p11
I9
sS'matrix'
p12
(dp13
g10
(dp14
S'ActionCause'
p15
I3
ssg8
(dp16
S'ObjectToBeSpilled'
p17
I3
ssg9
(dp18
S'Goal'
p19
I3
sssb.