ccopy_reg
_reconstructor
p0
(cutils.eval
ConfusionMatrix
p1
c__builtin__
object
p2
Ntp3
Rp4
(dp5
S'labels'
p6
(lp7
S'ObjectToBeSpilled'
p8
aS'Goal'
p9
aS'ActionCause'
p10
aS'Amount'
p11
asS'instanceCount'
p12
I77
sS'matrix'
p13
(dp14
g10
(dp15
g10
I23
sg11
I0
sg8
I0
sg9
I0
ssg11
(dp16
S'ActionCause'
p17
I0
sg11
I8
sS'ObjectToBeSpilled'
p18
I0
sS'Goal'
p19
I1
ssg8
(dp20
g10
I0
sg11
I0
sg8
I22
sg9
I0
ssg9
(dp21
g10
I0
sg11
I0
sg8
I0
sg9
I23
sssb.