ccopy_reg
_reconstructor
p0
(cutils.eval
ConfusionMatrix
p1
c__builtin__
object
p2
Ntp3
Rp4
(dp5
S'labels'
p6
(lp7
S'Goal'
p8
aS'Amount'
p9
aS'ActionCause'
p10
aS'ObjectToBeSpilled'
p11
asS'instanceCount'
p12
I10
sS'matrix'
p13
(dp14
g10
(dp15
S'ActionCause'
p16
I3
ssg9
(dp17
S'Amount'
p18
I1
ssg11
(dp19
S'ObjectToBeSpilled'
p20
I3
ssg8
(dp21
S'Goal'
p22
I3
sssb.