ccopy_reg
_reconstructor
p0
(cutils.eval
ConfusionMatrix
p1
c__builtin__
object
p2
Ntp3
Rp4
(dp5
S'labels'
p6
(lp7
S'fill.v.01'
p8
aS'kettle.n.01'
p9
aS'water.n.06'
p10
aS'strawberry.n.01'
p11
aS'cut.v.01'
p12
aS'edit.v.03'
p13
aS'piece.n.08'
p14
aS'slice.n.06'
p15
aS'blend.v.03'
p16
aS'mix.v.05'
p17
aS'avocado.n.01'
p18
aS'teapot.n.01'
p19
aS'opening.n.01'
p20
aS'opening.n.10'
p21
aS'fill.v.09'
p22
aS'curd.n.01'
p23
aS'pot.n.01'
p24
aS'rum.n.01'
p25
aS'shaker.n.03'
p26
aS'take.v.04'
p27
aS'bring.v.01'
p28
aS'decant.v.01'
p29
aS'pour.v.01'
p30
aS'pepper.n.03'
p31
aS'salt.n.02'
p32
aS'salt.n.04'
p33
aS'egg.n.02'
p34
aS'egg.n.01'
p35
aS'cut.v.32'
p36
aS'squash.n.02'
p37
aS'squash.n.01'
p38
aS'glass.n.02'
p39
aS'milk.n.01'
p40
aS'cheese.n.01'
p41
aS'slice.v.03'
p42
aS'flesh.n.01'
p43
aS'human_body.n.01'
p44
aS'slice.v.02'
p45
aS'ice.n.01'
p46
aS'ice.n.05'
p47
aS'bowl.n.01'
p48
aS'add.v.01'
p49
aS'lend.v.01'
p50
aS'tomato.n.01'
p51
aS'tomato.n.02'
p52
aS'slice.n.04'
p53
aS'onion.n.03'
p54
aS'onion.n.02'
p55
aS'mustard.n.02'
p56
aS'foam.n.01'
p57
aS'mug.n.04'
p58
aS'mixing_bowl.n.01'
p59
aS'butter.n.01'
p60
aS'sugar.n.01'
p61
aS'boodle.n.01'
p62
aS'water_system.n.02'
p63
aS'rice.n.01'
p64
aS'concoction.n.01'
p65
aS'mix.n.03'
p66
aS'pitcher.n.02'
p67
aS'bread.n.01'
p68
aS'pan.n.01'
p69
aS'put.v.01'
p70
aS'put.v.02'
p71
aS'onion.n.01'
p72
aS'beef.n.02'
p73
aS'gripe.n.01'
p74
aS'plate.n.04'
p75
aS'plate.n.13'
p76
aS'chicken.n.01'
p77
aS'wimp.n.01'
p78
aS'corn.n.02'
p79
aS'corn.n.03'
p80
aS'chop.v.01'
p81
aS'chop.v.05'
p82
aS'saltcellar.n.01'
p83
aS'butter.n.02'
p84
aS'dough.n.01'
p85
aS'mix.v.04'
p86
aS'jar.n.01'
p87
aS'gravy.n.01'
p88
aS'gravy.n.02'
p89
aS'measuring_cup.n.01'
p90
aS'meal.n.03'
p91
aS'fork.n.01'
p92
aS'crotch.n.02'
p93
aS'bowl.n.08'
p94
aS'sauce.n.01'
p95
aS'oven.n.01'
p96
aS'lodge.v.02'
p97
aS'stick.v.08'
p98
aS'pizza.n.01'
p99
aS'pan.n.03'
p100
aS'knife.n.01'
p101
aS'tongue.n.03'
p102
aS'banana.n.02'
p103
aS'serve.v.05'
p104
aS'serve.v.11'
p105
aS'cover.v.01'
p106
aS'cover.v.16'
p107
aS'rib.n.03'
p108
aS'rib.n.01'
p109
aS'cut.n.16'
p110
aS'bag.n.01'
p111
aS'bag.n.04'
p112
aS'blend.v.01'
p113
aS'carve.v.03'
p114
aS'hack.v.07'
p115
aS'pepper.n.04'
p116
aS'walnut.n.01'
p117
aS'walnut.n.03'
p118
aS'get.v.01'
p119
aS'make.v.02'
p120
aS'pear.n.01'
p121
aS'bleu.n.01'
p122
aS'bottle.n.01'
p123
aS'fruit_juice.n.01'
p124
aS'vanilla.n.02'
p125
aS'vanilla.n.01'
p126
aS'burner.n.02'
p127
aS'burner.n.01'
p128
aS'vanilla.n.03'
p129
aS'gap.n.03'
p130
aS'batter.n.02'
p131
aS'whiskey.n.01'
p132
aS'carafe.n.01'
p133
aS'liquid.n.01'
p134
aS'sink.n.01'
p135
aS'cesspool.n.01'
p136
aS'cup.n.01'
p137
aS'cola.n.02'
p138
asS'instanceCount'
p139
I145
sS'matrix'
p140
(dp141
g48
(dp142
S'bowl.n.01'
p143
I1
sg94
I3
ssg57
(dp144
S'foam.n.01'
p145
I1
ssg12
(dp146
g13
I2
sg36
I1
ssg106
(dp147
g107
I1
ssg90
(dp148
S'measuring_cup.n.01'
p149
I1
ssg88
(dp150
g89
I1
ssg89
(dp151
g89
I0
ssg108
(dp152
g109
I1
ssg109
(dp153
g109
I0
ssg118
(dp154
g118
I0
ssg92
(dp155
g93
I1
ssg117
(dp156
g118
I1
ssg105
(dp157
g105
I0
ssg44
(dp158
g44
I0
ssg28
(dp159
g28
I0
ssg132
(dp160
S'whiskey.n.01'
p161
I1
ssg20
(dp162
g21
I1
sg130
I1
ssg43
(dp163
g44
I1
ssg71
(dp164
g71
I0
ssg70
(dp165
g71
I4
ssg30
(dp166
g30
I2
sS'decant.v.01'
p167
I1
ssg95
(dp168
S'sauce.n.01'
p169
I1
ssg102
(dp170
g102
I0
ssg87
(dp171
S'jar.n.01'
p172
I1
ssg133
(dp173
S'carafe.n.01'
p174
I1
ssg29
(dp175
g30
I1
ssg77
(dp176
g78
I1
ssg135
(dp177
g136
I1
ssg15
(dp178
g15
I0
ssg122
(dp179
S'bleu.n.01'
p180
I1
ssg10
(dp181
g63
I1
sS'water.n.06'
p182
I4
ssg98
(dp183
g98
I0
ssg18
(dp184
S'avocado.n.01'
p185
I1
ssg21
(dp186
g21
I0
ssg99
(dp187
S'pizza.n.01'
p188
I1
ssg49
(dp189
g50
I7
ssg69
(dp190
S'pan.n.01'
p191
I3
sg100
I1
ssg100
(dp192
g100
I0
ssg94
(dp193
g94
I0
ssg103
(dp194
S'banana.n.02'
p195
I1
ssg137
(dp196
S'cup.n.01'
p197
I1
ssg126
(dp198
g126
I0
ssg129
(dp199
g129
I0
ssg125
(dp200
g126
I1
sg129
I1
ssg45
(dp201
g45
I0
ssg42
(dp202
g45
I2
sS'slice.v.03'
p203
I1
ssg85
(dp204
S'dough.n.01'
p205
I1
ssg119
(dp206
g120
I1
ssg116
(dp207
S'pepper.n.03'
p208
I1
ssg31
(dp209
S'pepper.n.03'
p210
I1
ssg25
(dp211
S'rum.n.01'
p212
I1
ssg26
(dp213
S'shaker.n.03'
p214
I1
ssg124
(dp215
S'fruit_juice.n.01'
p216
I1
ssg19
(dp217
S'teapot.n.01'
p218
I1
ssg46
(dp219
g47
I1
ssg9
(dp220
S'kettle.n.01'
p221
I1
ssg47
(dp222
g47
I0
ssg66
(dp223
g66
I1
ssg23
(dp224
S'curd.n.01'
p225
I1
ssg72
(dp226
S'onion.n.01'
p227
I1
sS'onion.n.03'
p228
I1
ssg54
(dp229
g55
I1
ssg91
(dp230
S'meal.n.03'
p231
I1
ssg11
(dp232
S'strawberry.n.01'
p233
I1
ssg80
(dp234
g80
I0
ssg79
(dp235
g80
I1
ssg73
(dp236
g74
I1
ssg114
(dp237
g115
I1
ssg97
(dp238
g98
I1
ssg120
(dp239
g120
I0
ssg59
(dp240
S'mixing_bowl.n.01'
p241
I1
ssg27
(dp242
g28
I1
ssg56
(dp243
S'mustard.n.02'
p244
I1
ssg22
(dp245
S'fill.v.01'
p246
I2
ssg123
(dp247
S'bottle.n.01'
p248
I1
ssg24
(dp249
S'pot.n.01'
p250
I1
ssg8
(dp251
S'fill.v.01'
p252
I14
ssg74
(dp253
g74
I0
ssg67
(dp254
S'pitcher.n.02'
p255
I1
ssg121
(dp256
S'pear.n.01'
p257
I1
ssg38
(dp258
g38
I0
ssg37
(dp259
g38
I1
ssg65
(dp260
S'concoction.n.01'
p261
I1
sg66
I1
ssg32
(dp262
S'salt.n.02'
p263
I1
sg33
I1
ssg101
(dp264
g102
I1
ssg33
(dp265
g33
I0
ssg75
(dp266
g76
I1
ssg96
(dp267
S'oven.n.01'
p268
I1
ssg58
(dp269
S'mug.n.04'
p270
I1
ssg63
(dp271
g63
I0
ssg104
(dp272
g105
I1
ssg53
(dp273
g53
I0
ssg51
(dp274
g52
I1
ssg84
(dp275
g84
I0
ssg110
(dp276
S'edit.v.03'
p277
I1
ssg127
(dp278
g128
I1
ssg128
(dp279
g128
I0
ssg76
(dp280
g76
I0
ssg41
(dp281
S'cheese.n.01'
p282
I1
ssg115
(dp283
g115
I0
ssg68
(dp284
S'bread.n.01'
p285
I2
ssg131
(dp286
S'batter.n.02'
p287
I1
ssg78
(dp288
g78
I0
ssg40
(dp289
S'milk.n.01'
p290
I2
ssg138
(dp291
S'cola.n.02'
p292
I1
ssg83
(dp293
S'saltcellar.n.01'
p294
I1
ssg34
(dp295
g35
I3
ssg35
(dp296
g35
I0
ssg93
(dp297
g93
I0
ssg112
(dp298
g112
I0
ssg82
(dp299
g82
I0
ssg111
(dp300
g112
I1
ssg81
(dp301
g82
I1
ssg86
(dp302
S'mix.v.05'
p303
I1
ssg17
(dp304
g17
I0
ssg39
(dp305
S'glass.n.02'
p306
I1
ssg16
(dp307
g17
I4
ssg113
(dp308
S'blend.v.01'
p309
I1
ssg50
(dp310
g50
I0
ssg13
(dp311
g13
I0
ssg62
(dp312
g62
I0
ssg14
(dp313
S'piece.n.08'
p314
I1
sg15
I3
sg53
I1
ssg136
(dp315
g136
I0
ssg130
(dp316
g130
I0
ssg64
(dp317
S'rice.n.01'
p318
I1
ssg36
(dp319
g36
I0
ssg107
(dp320
g107
I0
ssg52
(dp321
g52
I0
ssg134
(dp322
S'liquid.n.01'
p323
I1
ssg55
(dp324
g55
I0
ssg60
(dp325
g84
I1
sS'butter.n.01'
p326
I2
ssg61
(dp327
g62
I1
sssb.