ccopy_reg
_reconstructor
p0
(cutils.eval
ConfusionMatrix
p1
c__builtin__
object
p2
Ntp3
Rp4
(dp5
S'labels'
p6
(lp7
S'carve.v.03'
p8
aS'hack.v.07'
p9
aS'pepper.n.04'
p10
aS'pepper.n.03'
p11
aS'onion.n.01'
p12
aS'bread.n.01'
p13
aS'piece.n.08'
p14
aS'slice.n.06'
p15
aS'walnut.n.01'
p16
aS'walnut.n.03'
p17
aS'get.v.01'
p18
aS'make.v.02'
p19
aS'pear.n.01'
p20
aS'blend.v.03'
p21
aS'mix.v.05'
p22
aS'bowl.n.01'
p23
aS'bowl.n.08'
p24
aS'bleu.n.01'
p25
aS'fill.v.01'
p26
aS'bottle.n.01'
p27
aS'fruit_juice.n.01'
p28
aS'add.v.01'
p29
aS'lend.v.01'
p30
aS'vanilla.n.02'
p31
aS'vanilla.n.01'
p32
aS'egg.n.02'
p33
aS'egg.n.01'
p34
aS'concoction.n.01'
p35
aS'burner.n.02'
p36
aS'burner.n.01'
p37
aS'pan.n.01'
p38
aS'butter.n.01'
p39
aS'opening.n.01'
p40
aS'gap.n.03'
p41
aS'fill.v.09'
p42
aS'batter.n.02'
p43
aS'whiskey.n.01'
p44
aS'carafe.n.01'
p45
aS'liquid.n.01'
p46
aS'pour.v.01'
p47
aS'sink.n.01'
p48
aS'cesspool.n.01'
p49
aS'cup.n.01'
p50
aS'cola.n.02'
p51
aS'thermos.n.01'
p52
aS'coffee.n.01'
p53
aS'wok.n.01'
p54
aS'rice.n.01'
p55
aS'jar.n.01'
p56
aS'blender.n.01'
p57
aS'apple.n.01'
p58
aS'pizza.n.01'
p59
aS'slice.v.03'
p60
aS'kettle.n.01'
p61
aS'water.n.06'
p62
aS'strawberry.n.01'
p63
aS'cut.v.01'
p64
aS'edit.v.03'
p65
aS'avocado.n.01'
p66
aS'teapot.n.01'
p67
aS'opening.n.10'
p68
aS'curd.n.01'
p69
aS'pot.n.01'
p70
aS'rum.n.01'
p71
aS'shaker.n.03'
p72
aS'take.v.04'
p73
aS'aim.v.01'
p74
aS'decant.v.01'
p75
aS'pour.v.05'
p76
aS'capsicum.n.01'
p77
aS'salt.n.02'
p78
aS'salt.n.04'
p79
aS'cut.v.32'
p80
aS'squash.n.02'
p81
aS'squash.n.01'
p82
aS'glass.n.02'
p83
aS'milk.n.01'
p84
aS'cheese.n.01'
p85
aS'tall_mallow.n.01'
p86
aS'slice.v.02'
p87
aS'flesh.n.01'
p88
aS'human_body.n.01'
p89
aS'ice.n.01'
p90
aS'ice.n.05'
p91
aS'tomato.n.01'
p92
aS'onion.n.03'
p93
aS'onion.n.02'
p94
aS'mustard.n.02'
p95
aS'foam.n.01'
p96
aS'mug.n.04'
p97
aS'mixing_bowl.n.01'
p98
aS'butter.n.02'
p99
aS'sugar.n.01'
p100
aS'water_system.n.02'
p101
aS'rice.n.02'
p102
aS'mixture.n.01'
p103
aS'pitcher.n.02'
p104
aS'boodle.n.01'
p105
aS'mix.n.03'
p106
aS'mix.n.01'
p107
aS'put.v.01'
p108
aS'put.v.02'
p109
aS'beef.n.02'
p110
aS'plate.n.04'
p111
aS'denture.n.01'
p112
aS'chicken.n.01'
p113
aS'wimp.n.01'
p114
aS'corn.n.02'
p115
aS'corn_whiskey.n.01'
p116
aS'chop.v.01'
p117
aS'chop.v.05'
p118
aS'saltcellar.n.01'
p119
aS'dough.n.01'
p120
aS'mix.v.04'
p121
aS'gravy.n.01'
p122
aS'gravy.n.02'
p123
aS'measuring_cup.n.01'
p124
aS'meal.n.03'
p125
aS'meal.n.01'
p126
aS'fork.n.01'
p127
aS'fork.n.04'
p128
aS'sauce.n.01'
p129
aS'oven.n.01'
p130
aS'lodge.v.02'
p131
aS'stick.v.08'
p132
aS'knife.n.01'
p133
aS'banana.n.02'
p134
asS'instanceCount'
p135
I145
sS'matrix'
p136
(dp137
g23
(dp138
S'bowl.n.01'
p139
I1
sg24
I2
ssg24
(dp140
g24
I0
ssg64
(dp141
g65
I1
sg80
I1
ssg134
(dp142
S'banana.n.02'
p143
I1
ssg116
(dp144
g116
I0
ssg112
(dp145
g112
I0
ssg122
(dp146
g123
I1
ssg123
(dp147
g123
I0
ssg128
(dp148
g128
I0
ssg17
(dp149
g17
I0
ssg127
(dp150
g128
I1
ssg16
(dp151
g17
I1
ssg89
(dp152
g89
I0
ssg86
(dp153
g86
I0
ssg44
(dp154
S'whiskey.n.01'
p155
I1
ssg40
(dp156
g68
I1
sg41
I1
ssg88
(dp157
g89
I1
ssg57
(dp158
S'blender.n.01'
p159
I1
ssg62
(dp160
g101
I1
sS'water.n.06'
p161
I3
ssg108
(dp162
g109
I3
ssg76
(dp163
g76
I0
ssg47
(dp164
S'pour.v.01'
p165
I3
ssg129
(dp166
S'sauce.n.01'
p167
I1
ssg56
(dp168
S'jar.n.01'
p169
I2
ssg45
(dp170
S'carafe.n.01'
p171
I1
ssg75
(dp172
g76
I1
ssg113
(dp173
g114
I1
ssg48
(dp174
g49
I1
ssg101
(dp175
g101
I0
ssg25
(dp176
S'bleu.n.01'
p177
I1
ssg109
(dp178
g109
I0
ssg132
(dp179
g132
I0
ssg66
(dp180
S'avocado.n.01'
p181
I1
ssg68
(dp182
g68
I0
ssg59
(dp183
S'pizza.n.01'
p184
I2
ssg29
(dp185
g30
I6
ssg38
(dp186
S'pan.n.01'
p187
I3
ssg96
(dp188
S'foam.n.01'
p189
I1
ssg41
(dp190
g41
I0
ssg50
(dp191
S'cup.n.01'
p192
I1
ssg77
(dp193
g77
I0
ssg32
(dp194
g32
I0
ssg31
(dp195
g32
I1
sS'vanilla.n.02'
p196
I1
ssg87
(dp197
g87
I0
ssg60
(dp198
g87
I3
sS'slice.v.03'
p199
I1
ssg120
(dp200
S'dough.n.01'
p201
I1
ssg18
(dp202
g19
I1
ssg54
(dp203
S'wok.n.01'
p204
I1
ssg10
(dp205
g11
I1
ssg11
(dp206
g77
I1
sg11
I0
ssg71
(dp207
S'rum.n.01'
p208
I1
ssg72
(dp209
S'shaker.n.03'
p210
I1
ssg28
(dp211
S'fruit_juice.n.01'
p212
I1
ssg67
(dp213
S'teapot.n.01'
p214
I1
ssg90
(dp215
g91
I1
ssg61
(dp216
S'kettle.n.01'
p217
I1
ssg91
(dp218
g91
I0
ssg107
(dp219
g107
I0
ssg30
(dp220
g30
I0
ssg69
(dp221
S'curd.n.01'
p222
I1
ssg12
(dp223
S'onion.n.01'
p224
I2
ssg126
(dp225
g126
I0
ssg93
(dp226
g94
I1
ssg94
(dp227
g94
I0
ssg63
(dp228
S'strawberry.n.01'
p229
I1
ssg115
(dp230
g116
I1
ssg110
(dp231
S'beef.n.02'
p232
I1
ssg8
(dp233
g9
I1
ssg131
(dp234
g132
I1
ssg19
(dp235
g19
I0
ssg98
(dp236
S'mixing_bowl.n.01'
p237
I1
ssg73
(dp238
g74
I1
ssg95
(dp239
S'mustard.n.02'
p240
I1
ssg42
(dp241
S'fill.v.01'
p242
I2
ssg27
(dp243
S'bottle.n.01'
p244
I1
ssg70
(dp245
S'pot.n.01'
p246
I1
ssg26
(dp247
S'fill.v.01'
p248
I17
ssg104
(dp249
S'pitcher.n.02'
p250
I1
ssg20
(dp251
S'pear.n.01'
p252
I1
ssg82
(dp253
g82
I0
ssg81
(dp254
g82
I1
ssg35
(dp255
S'concoction.n.01'
p256
I1
sg103
I1
ssg78
(dp257
S'salt.n.02'
p258
I1
sg79
I1
ssg133
(dp259
S'knife.n.01'
p260
I1
ssg79
(dp261
g79
I0
ssg111
(dp262
g112
I1
ssg103
(dp263
g103
I0
ssg53
(dp264
S'coffee.n.01'
p265
I1
ssg130
(dp266
S'oven.n.01'
p267
I1
ssg124
(dp268
S'measuring_cup.n.01'
p269
I1
ssg97
(dp270
S'mug.n.04'
p271
I1
ssg15
(dp272
g15
I0
ssg92
(dp273
S'tomato.n.01'
p274
I1
ssg36
(dp275
g37
I1
ssg37
(dp276
g37
I0
ssg85
(dp277
g86
I1
ssg52
(dp278
S'thermos.n.01'
p279
I1
ssg9
(dp280
g9
I0
ssg114
(dp281
g114
I0
ssg13
(dp282
g105
I1
sS'bread.n.01'
p283
I1
ssg43
(dp284
S'batter.n.02'
p285
I1
ssg58
(dp286
S'apple.n.01'
p287
I1
ssg84
(dp288
S'milk.n.01'
p289
I2
ssg51
(dp290
S'cola.n.02'
p291
I1
ssg74
(dp292
g74
I0
ssg119
(dp293
S'saltcellar.n.01'
p294
I1
ssg33
(dp295
S'egg.n.02'
p296
I1
sg34
I2
ssg34
(dp297
g34
I0
ssg118
(dp298
g118
I0
ssg117
(dp299
g118
I1
ssg121
(dp300
S'mix.v.05'
p301
I1
ssg22
(dp302
g22
I0
ssg83
(dp303
S'glass.n.02'
p304
I1
ssg21
(dp305
g22
I4
ssg106
(dp306
g107
I1
ssg65
(dp307
g65
I0
ssg105
(dp308
g105
I0
ssg14
(dp309
g15
I5
ssg49
(dp310
g49
I0
ssg102
(dp311
g102
I0
ssg55
(dp312
g102
I1
sS'rice.n.01'
p313
I1
ssg80
(dp314
g80
I0
ssg99
(dp315
g99
I0
ssg46
(dp316
S'liquid.n.01'
p317
I1
ssg125
(dp318
g126
I1
ssg39
(dp319
g99
I2
sS'butter.n.01'
p320
I1
ssg100
(dp321
S'sugar.n.01'
p322
I1
sssb.