ccopy_reg
_reconstructor
p0
(cutils.eval
ConfusionMatrix
p1
c__builtin__
object
p2
Ntp3
Rp4
(dp5
S'labels'
p6
(lp7
S'put.v.01'
p8
aS'jam.n.01'
p9
aS'refrigerator.n.01'
p10
aS'coca_cola.n.01'
p11
aS'electric_refrigerator.n.01'
p12
aS'onion.n.01'
p13
aS'onion.n.03'
p14
aS'beef.n.02'
p15
aS'gripe.n.01'
p16
aS'plate.n.04'
p17
aS'plate.n.13'
p18
aS'pan.n.03'
p19
aS'chicken.n.01'
p20
aS'pepper.n.03'
p21
aS'capsicum.n.01'
p22
aS'salt.n.02'
p23
aS'salt.n.04'
p24
aS'egg.n.02'
p25
aS'salmon.n.03'
p26
aS'mug.n.04'
p27
aS'countenance.n.03'
p28
aS'microwave.n.02'
p29
aS'spread.n.05'
p30
aS'paste.n.03'
p31
aS'bread.n.01'
p32
aS'bowl.n.01'
p33
aS'bowl.n.08'
p34
aS'cherry.n.03'
p35
aS'cake.n.03'
p36
aS'patty.n.01'
p37
aS'whipped_cream.n.01'
p38
aS'rib.n.03'
p39
aS'rib.n.01'
p40
aS'rice.n.01'
p41
asS'instanceCount'
p42
I38
sS'matrix'
p43
(dp44
g18
(dp45
g18
I0
ssg41
(dp46
S'rice.n.01'
p47
I1
ssg20
(dp48
S'chicken.n.01'
p49
I1
ssg15
(dp50
g16
I1
ssg10
(dp51
S'refrigerator.n.01'
p52
I1
ssg32
(dp53
S'bread.n.01'
p54
I1
ssg33
(dp55
g34
I2
ssg11
(dp56
S'coca_cola.n.01'
p57
I1
ssg26
(dp58
S'salmon.n.03'
p59
I1
ssg19
(dp60
S'pan.n.03'
p61
I1
ssg34
(dp62
g34
I0
ssg29
(dp63
S'microwave.n.02'
p64
I1
ssg25
(dp65
S'egg.n.02'
p66
I1
ssg12
(dp67
S'electric_refrigerator.n.01'
p68
I1
ssg22
(dp69
g22
I0
ssg23
(dp70
S'salt.n.02'
p71
I1
sg24
I1
ssg28
(dp72
g28
I0
ssg24
(dp73
g24
I0
ssg17
(dp74
g18
I2
ssg40
(dp75
g40
I0
ssg21
(dp76
g22
I1
ssg30
(dp77
g31
I1
ssg38
(dp78
S'whipped_cream.n.01'
p79
I1
ssg16
(dp80
g16
I0
ssg31
(dp81
g31
I0
ssg27
(dp82
g28
I1
ssg39
(dp83
g40
I1
ssg9
(dp84
S'jam.n.01'
p85
I1
ssg8
(dp86
S'put.v.01'
p87
I12
ssg36
(dp88
g37
I1
ssg37
(dp89
g37
I0
ssg35
(dp90
S'cherry.n.03'
p91
I1
ssg13
(dp92
g14
I1
ssg14
(dp93
g14
I0
sssb.