ccopy_reg
_reconstructor
p0
(cutils.eval
ConfusionMatrix
p1
c__builtin__
object
p2
Ntp3
Rp4
(dp5
S'labels'
p6
(lp7
S'put.v.01'
p8
aS'bowl.n.01'
p9
aS'bowl.n.03'
p10
aS'cherry.n.03'
p11
aS'cake.n.03'
p12
aS'patty.n.01'
p13
aS'whipped_cream.n.01'
p14
aS'rib.n.03'
p15
aS'rib.n.01'
p16
aS'salt.n.02'
p17
aS'rice.n.01'
p18
aS'pan.n.03'
p19
aS'pizza.n.01'
p20
aS'soup.n.01'
p21
aS'microwave.n.02'
p22
aS'spoon.n.01'
p23
aS'batter.n.02'
p24
aS'dish.n.02'
p25
aS'oven.n.01'
p26
aS'steak.n.01'
p27
aS'dressing.n.01'
p28
aS'dressing.n.04'
p29
aS'salad.n.01'
p30
aS'french_fries.n.01'
p31
aS'blender.n.01'
p32
aS'banana.n.02'
p33
asS'instanceCount'
p34
I35
sS'matrix'
p35
(dp36
g21
(dp37
S'soup.n.01'
p38
I1
ssg10
(dp39
g10
I0
ssg9
(dp40
g10
I2
ssg25
(dp41
S'dish.n.02'
p42
I1
ssg28
(dp43
g29
I1
ssg19
(dp44
S'pan.n.03'
p45
I1
ssg22
(dp46
S'microwave.n.02'
p47
I1
ssg13
(dp48
g13
I0
ssg23
(dp49
S'spoon.n.01'
p50
I1
ssg17
(dp51
S'salt.n.02'
p52
I1
ssg33
(dp53
S'banana.n.02'
p54
I1
ssg15
(dp55
g16
I1
ssg16
(dp56
g16
I0
ssg14
(dp57
S'whipped_cream.n.01'
p58
I1
ssg26
(dp59
S'oven.n.01'
p60
I2
ssg32
(dp61
S'blender.n.01'
p62
I1
ssg29
(dp63
g29
I0
ssg18
(dp64
S'rice.n.01'
p65
I1
ssg8
(dp66
S'put.v.01'
p67
I12
ssg20
(dp68
S'pizza.n.01'
p69
I1
ssg27
(dp70
S'steak.n.01'
p71
I1
ssg12
(dp72
g13
I1
ssg31
(dp73
S'french_fries.n.01'
p74
I1
ssg11
(dp75
S'cherry.n.03'
p76
I1
ssg30
(dp77
S'salad.n.01'
p78
I1
ssg24
(dp79
S'batter.n.02'
p80
I1
sssb.