ccopy_reg
_reconstructor
p0
(cutils.eval
ConfusionMatrix
p1
c__builtin__
object
p2
Ntp3
Rp4
(dp5
S'labels'
p6
(lp7
S'put.v.01'
p8
aS'mug.n.04'
p9
aS'countenance.n.03'
p10
aS'microwave.n.02'
p11
aS'spread.n.05'
p12
aS'bread.n.01'
p13
aS'bowl.n.01'
p14
aS'bowl.n.03'
p15
aS'cherry.n.03'
p16
aS'cake.n.03'
p17
aS'whipped_cream.n.01'
p18
aS'rib.n.03'
p19
aS'rib.n.01'
p20
aS'salt.n.02'
p21
aS'rice.n.01'
p22
aS'pan.n.03'
p23
aS'pizza.n.01'
p24
aS'soup.n.01'
p25
aS'spoon.n.01'
p26
aS'batter.n.02'
p27
aS'dish.n.02'
p28
aS'oven.n.01'
p29
aS'steak.n.01'
p30
aS'dressing.n.01'
p31
aS'dressing.n.04'
p32
aS'salad.n.01'
p33
asS'instanceCount'
p34
I36
sS'matrix'
p35
(dp36
g25
(dp37
S'soup.n.01'
p38
I1
ssg13
(dp39
S'bread.n.01'
p40
I1
ssg15
(dp41
g15
I0
ssg14
(dp42
g15
I2
ssg28
(dp43
S'dish.n.02'
p44
I1
ssg31
(dp45
g32
I1
ssg23
(dp46
S'pan.n.03'
p47
I1
ssg11
(dp48
S'microwave.n.02'
p49
I2
ssg26
(dp50
S'spoon.n.01'
p51
I1
ssg21
(dp52
S'salt.n.02'
p53
I1
ssg10
(dp54
g10
I0
ssg19
(dp55
g20
I1
ssg20
(dp56
g20
I0
ssg12
(dp57
S'spread.n.05'
p58
I1
ssg18
(dp59
S'whipped_cream.n.01'
p60
I1
ssg29
(dp61
S'oven.n.01'
p62
I2
ssg9
(dp63
g10
I1
ssg32
(dp64
g32
I0
ssg22
(dp65
S'rice.n.01'
p66
I1
ssg8
(dp67
S'put.v.01'
p68
I12
ssg24
(dp69
S'pizza.n.01'
p70
I1
ssg30
(dp71
S'steak.n.01'
p72
I1
ssg17
(dp73
S'cake.n.03'
p74
I1
ssg16
(dp75
S'cherry.n.03'
p76
I1
ssg33
(dp77
S'salad.n.01'
p78
I1
ssg27
(dp79
S'batter.n.02'
p80
I1
sssb.