ccopy_reg
_reconstructor
p0
(cutils.eval
ConfusionMatrix
p1
c__builtin__
object
p2
Ntp3
Rp4
(dp5
S'labels'
p6
(lp7
S'put.v.01'
p8
aS'pan.n.03'
p9
aS'pizza.n.01'
p10
aS'soup.n.01'
p11
aS'microwave.n.02'
p12
aS'spoon.n.01'
p13
aS'batter.n.02'
p14
aS'dish.n.02'
p15
aS'oven.n.01'
p16
aS'steak.n.01'
p17
aS'dressing.n.01'
p18
aS'dressing.n.04'
p19
aS'salad.n.01'
p20
aS'french_fries.n.01'
p21
aS'blender.n.01'
p22
aS'banana.n.02'
p23
aS'jam.n.01'
p24
aS'refrigerator.n.01'
p25
aS'coca_cola.n.01'
p26
aS'coke.n.01'
p27
aS'electric_refrigerator.n.01'
p28
aS'onion.n.01'
p29
aS'onion.n.03'
p30
aS'beef.n.02'
p31
aS'gripe.n.01'
p32
aS'plate.n.04'
p33
aS'plate.n.13'
p34
aS'chicken.n.01'
p35
asS'instanceCount'
p36
I36
sS'matrix'
p37
(dp38
g27
(dp39
g27
I0
ssg34
(dp40
g34
I0
ssg35
(dp41
S'chicken.n.01'
p42
I1
ssg31
(dp43
g32
I1
ssg11
(dp44
S'soup.n.01'
p45
I1
ssg25
(dp46
S'refrigerator.n.01'
p47
I1
ssg14
(dp48
S'batter.n.02'
p49
I1
ssg18
(dp50
g19
I1
ssg26
(dp51
g27
I1
ssg9
(dp52
S'pan.n.03'
p53
I2
ssg12
(dp54
S'microwave.n.02'
p55
I1
ssg28
(dp56
S'electric_refrigerator.n.01'
p57
I1
ssg13
(dp58
S'spoon.n.01'
p59
I1
ssg23
(dp60
S'banana.n.02'
p61
I1
ssg33
(dp62
g34
I1
ssg32
(dp63
g32
I0
ssg17
(dp64
S'steak.n.01'
p65
I1
ssg16
(dp66
S'oven.n.01'
p67
I2
ssg22
(dp68
S'blender.n.01'
p69
I1
ssg20
(dp70
S'salad.n.01'
p71
I1
ssg19
(dp72
g19
I0
ssg24
(dp73
S'jam.n.01'
p74
I1
ssg8
(dp75
S'put.v.01'
p76
I12
ssg10
(dp77
S'pizza.n.01'
p78
I1
ssg21
(dp79
S'french_fries.n.01'
p80
I1
ssg29
(dp81
g30
I1
ssg30
(dp82
g30
I0
ssg15
(dp83
S'dish.n.02'
p84
I1
sssb.