ccopy_reg
_reconstructor
p0
(cutils.eval
ConfusionMatrix
p1
c__builtin__
object
p2
Ntp3
Rp4
(dp5
S'labels'
p6
(lp7
S'put.v.01'
p8
aS'spoon.n.01'
p9
aS'batter.n.02'
p10
aS'dish.n.02'
p11
aS'oven.n.01'
p12
aS'steak.n.01'
p13
aS'dressing.n.01'
p14
aS'dressing.n.04'
p15
aS'salad.n.01'
p16
aS'french_fries.n.01'
p17
aS'blender.n.01'
p18
aS'banana.n.02'
p19
aS'jam.n.01'
p20
aS'refrigerator.n.01'
p21
aS'coca_cola.n.01'
p22
aS'coke.n.01'
p23
aS'electric_refrigerator.n.01'
p24
aS'onion.n.01'
p25
aS'onion.n.03'
p26
aS'beef.n.02'
p27
aS'gripe.n.01'
p28
aS'plate.n.04'
p29
aS'plate.n.13'
p30
aS'pan.n.03'
p31
aS'chicken.n.01'
p32
aS'pepper.n.03'
p33
aS'salt.n.02'
p34
aS'salt.n.04'
p35
aS'egg.n.02'
p36
aS'egg.n.01'
p37
aS'salmon.n.03'
p38
aS'plate.n.08'
p39
aS'capsicum.n.01'
p40
aS'mug.n.04'
p41
aS'countenance.n.03'
p42
aS'microwave.n.02'
p43
aS'spread.n.05'
p44
aS'paste.n.03'
p45
aS'bread.n.01'
p46
aS'bowl.n.01'
p47
aS'cherry.n.03'
p48
aS'cherry.n.01'
p49
aS'cake.n.03'
p50
aS'patty.n.01'
p51
aS'whipped_cream.n.01'
p52
aS'pepper.n.04'
p53
aS'bowl.n.03'
p54
aS'rib.n.03'
p55
aS'rib.n.01'
p56
aS'bowl.n.08'
p57
aS'rice.n.01'
p58
aS'pizza.n.01'
p59
aS'soup.n.01'
p60
asS'instanceCount'
p61
I366
sS'matrix'
p62
(dp63
g23
(dp64
g23
I0
sg30
I0
sS'rice.n.01'
p65
I0
sg32
I0
sg27
I0
sS'soup.n.01'
p66
I0
sg21
I0
sS'bread.n.01'
p67
I0
sS'bowl.n.03'
p68
I0
sS'bowl.n.01'
p69
I0
sS'pizza.n.01'
p70
I0
sg10
I0
sg22
I0
sg38
I0
sg31
I0
sS'countenance.n.03'
p71
I0
sS'microwave.n.02'
p72
I0
sg36
I0
sg37
I0
sg24
I0
sg9
I0
sS'capsicum.n.01'
p73
I0
sg34
I0
sg19
I0
sg35
I0
sg29
I0
sS'rib.n.01'
p74
I0
sg28
I0
sS'spread.n.05'
p75
I0
sg13
I0
sg12
I0
sg33
I0
sS'paste.n.03'
p76
I0
sS'mug.n.04'
p77
I0
sg18
I0
sS'rib.n.03'
p78
I0
sg16
I0
sg15
I0
sg20
I0
sg8
I0
sg14
I0
sg17
I0
sg25
I0
sg26
I0
sg11
I0
ssg30
(dp79
g30
I0
sg23
I0
sg58
I0
sg32
I0
sg27
I0
sg60
I0
sg21
I0
sg46
I0
sg54
I0
sg47
I0
sg59
I0
sg10
I0
sg22
I0
sg38
I0
sg31
I0
sg57
I0
sg42
I0
sg43
I0
sg36
I0
sg37
I0
sg24
I0
sg9
I0
sg40
I0
sg34
I0
sg39
I0
sg19
I0
sg35
I0
sg29
I0
sg53
I0
sg56
I0
sg28
I0
sg44
I0
sg13
I0
sg12
I0
sg33
I0
sg45
I0
sg41
I0
sg18
I0
sg55
I0
sg16
I0
sg15
I0
sg20
I0
sg8
I0
sg14
I0
sg52
I0
sg50
I0
sg17
I0
sg51
I0
sg49
I0
sg48
I0
sg25
I0
sg26
I0
sg11
I0
ssg58
(dp80
S'plate.n.13'
p81
I0
sS'coke.n.01'
p82
I0
sS'jam.n.01'
p83
I0
sS'chicken.n.01'
p84
I0
sS'beef.n.02'
p85
I0
sg60
I0
sS'refrigerator.n.01'
p86
I0
sS'bread.n.01'
p87
I0
sg54
I0
sS'bowl.n.01'
p88
I0
sS'batter.n.02'
p89
I0
sS'dressing.n.01'
p90
I0
sg57
I0
sS'salmon.n.03'
p91
I0
sS'pan.n.03'
p92
I0
sS'coca_cola.n.01'
p93
I0
sS'banana.n.02'
p94
I0
sS'microwave.n.02'
p95
I0
sS'egg.n.02'
p96
I0
sS'egg.n.01'
p97
I0
sS'electric_refrigerator.n.01'
p98
I0
sS'spoon.n.01'
p99
I0
sg55
I0
sS'salt.n.02'
p100
I0
sS'countenance.n.03'
p101
I0
sS'salt.n.04'
p102
I0
sS'plate.n.04'
p103
I0
sg53
I0
sg56
I0
sS'pepper.n.03'
p104
I0
sS'spread.n.05'
p105
I0
sS'whipped_cream.n.01'
p106
I0
sS'oven.n.01'
p107
I0
sS'gripe.n.01'
p108
I0
sS'capsicum.n.01'
p109
I0
sS'paste.n.03'
p110
I0
sS'mug.n.04'
p111
I0
sS'blender.n.01'
p112
I0
sS'salad.n.01'
p113
I0
sS'dressing.n.04'
p114
I0
sg58
I6
sS'put.v.01'
p115
I0
sg59
I0
sS'steak.n.01'
p116
I0
sS'cake.n.03'
p117
I0
sS'french_fries.n.01'
p118
I0
sS'patty.n.01'
p119
I0
sS'cherry.n.03'
p120
I0
sS'onion.n.01'
p121
I0
sS'onion.n.03'
p122
I0
sS'dish.n.02'
p123
I0
ssg32
(dp124
g23
I0
sg30
I0
sS'rice.n.01'
p125
I0
sg32
I6
sg27
I0
sS'soup.n.01'
p126
I0
sg21
I0
sg46
I0
sg47
I0
sS'pizza.n.01'
p127
I0
sg10
I0
sg22
I0
sg38
I0
sg31
I0
sS'bowl.n.08'
p128
I0
sg42
I0
sg43
I0
sg36
I0
sg37
I0
sg24
I0
sg9
I0
sg40
I0
sg34
I0
sg39
I0
sg19
I0
sg35
I0
sg29
I0
sS'rib.n.01'
p129
I0
sg28
I0
sg44
I0
sg13
I0
sg12
I0
sg33
I0
sg45
I0
sg41
I0
sg18
I0
sS'rib.n.03'
p130
I0
sg16
I0
sg15
I0
sg20
I0
sg8
I0
sg14
I0
sg52
I0
sg50
I0
sg17
I0
sg51
I0
sg49
I0
sg48
I0
sg25
I0
sg26
I0
sg11
I0
ssg27
(dp131
g23
I0
sg30
I0
sg125
I0
sg32
I0
sg27
I0
sg126
I0
sg21
I0
sg46
I0
sg47
I0
sg127
I0
sg11
I0
sg22
I0
sg38
I0
sg31
I0
sg128
I0
sg42
I0
sg43
I0
sg36
I0
sg37
I0
sg24
I0
sg9
I0
sg40
I0
sg34
I0
sg39
I0
sg19
I0
sg35
I0
sg29
I0
sg129
I0
sg28
I6
sg44
I0
sg13
I0
sg12
I0
sg33
I0
sg45
I0
sg41
I0
sg18
I0
sg130
I0
sg16
I0
sg15
I0
sg20
I0
sg8
I0
sg14
I0
sg52
I0
sg50
I0
sg17
I0
sg51
I0
sg49
I0
sg48
I0
sg25
I0
sg26
I0
sg10
I0
ssg60
(dp132
g81
I0
sS'coke.n.01'
p133
I0
sS'jam.n.01'
p134
I0
sS'chicken.n.01'
p135
I0
sS'beef.n.02'
p136
I0
sg60
I6
sS'refrigerator.n.01'
p137
I0
sg87
I0
sg54
I0
sg88
I0
sg89
I0
sg90
I0
sg57
I0
sg91
I0
sg92
I0
sS'coca_cola.n.01'
p138
I0
sg94
I0
sg95
I0
sg96
I0
sg97
I0
sS'patty.n.01'
p139
I0
sg99
I0
sg55
I0
sg100
I0
sg101
I0
sS'salt.n.04'
p140
I0
sg103
I0
sg53
I0
sg56
I0
sg104
I0
sg105
I0
sg106
I0
sg107
I0
sS'gripe.n.01'
p141
I0
sS'capsicum.n.01'
p142
I0
sS'paste.n.03'
p143
I0
sg111
I0
sg112
I0
sS'onion.n.01'
p144
I0
sg114
I0
sg58
I0
sg115
I0
sg59
I0
sS'electric_refrigerator.n.01'
p145
I0
sg116
I0
sg117
I0
sg118
I0
sg120
I0
sg113
I0
sS'onion.n.03'
p146
I0
sg123
I0
ssg21
(dp147
g23
I0
sg30
I0
sg125
I0
sg32
I0
sg27
I0
sg66
I0
sg21
I6
sg46
I0
sg68
I0
sg47
I0
sg70
I0
sg10
I0
sg22
I0
sg38
I0
sg31
I0
sg128
I0
sg42
I0
sg43
I0
sg36
I0
sg37
I0
sg24
I0
sg9
I0
sg40
I0
sg34
I0
sg39
I0
sg19
I0
sg35
I0
sg29
I0
sg129
I0
sg28
I0
sg44
I0
sg13
I0
sg12
I0
sg33
I0
sg45
I0
sg41
I0
sg18
I0
sg130
I0
sg16
I0
sg15
I0
sg20
I0
sg8
I0
sg14
I0
sg52
I0
sg50
I0
sg17
I0
sg51
I0
sg49
I0
sg48
I0
sg25
I0
sg26
I0
sg11
I0
ssg46
(dp148
S'plate.n.13'
p149
I0
sS'coke.n.01'
p150
I0
sg58
I0
sS'chicken.n.01'
p151
I0
sS'beef.n.02'
p152
I0
sg60
I0
sS'refrigerator.n.01'
p153
I0
sg46
I6
sg54
I0
sg47
I0
sg89
I0
sg90
I0
sS'coca_cola.n.01'
p154
I0
sS'salmon.n.03'
p155
I0
sS'pan.n.03'
p156
I0
sg57
I0
sg42
I0
sg43
I0
sS'egg.n.02'
p157
I0
sg97
I0
sS'electric_refrigerator.n.01'
p158
I0
sg99
I0
sg40
I0
sS'salt.n.02'
p159
I0
sg39
I0
sS'banana.n.02'
p160
I0
sS'salt.n.04'
p161
I0
sS'plate.n.04'
p162
I0
sg53
I0
sg56
I0
sS'pepper.n.03'
p163
I0
sg44
I0
sg52
I0
sg107
I0
sS'gripe.n.01'
p164
I0
sg45
I0
sg41
I0
sS'blender.n.01'
p165
I0
sg55
I0
sg113
I0
sg114
I0
sS'jam.n.01'
p166
I0
sS'put.v.01'
p167
I0
sg59
I0
sg116
I0
sg50
I0
sS'french_fries.n.01'
p168
I0
sg51
I0
sg49
I0
sg48
I0
sS'onion.n.01'
p169
I0
sg122
I0
sg123
I0
ssg54
(dp170
g81
I0
sg82
I0
sS'jam.n.01'
p171
I0
sg60
I0
sS'refrigerator.n.01'
p172
I0
sg87
I0
sg54
I0
sg88
I0
sg89
I0
sg90
I0
sg57
I0
sg91
I0
sg92
I0
sS'coca_cola.n.01'
p173
I0
sg94
I0
sg95
I0
sg96
I0
sg97
I0
sg139
I0
sg99
I0
sg55
I0
sg100
I0
sg101
I0
sg103
I0
sg53
I0
sg56
I0
sg104
I0
sg105
I0
sg106
I0
sg107
I0
sg111
I0
sg112
I0
sg114
I0
sg58
I0
sg115
I0
sg59
I0
sS'electric_refrigerator.n.01'
p174
I0
sg116
I0
sg117
I0
sg118
I0
sg120
I0
sg113
I0
sg123
I0
ssg47
(dp175
g149
I0
sg82
I0
sg58
I0
sg151
I0
sg152
I0
sg60
I0
sg153
I0
sg46
I0
sg54
I6
sg47
I1
sg89
I0
sg90
I0
sg154
I0
sg155
I0
sg156
I0
sg57
I5
sg42
I0
sg43
I0
sg157
I0
sg97
I0
sg158
I0
sg99
I0
sg40
I0
sg159
I0
sg39
I0
sg160
I0
sg161
I0
sg162
I0
sg53
I0
sg56
I0
sg163
I0
sg44
I0
sg52
I0
sg107
I0
sg164
I0
sg45
I0
sg41
I0
sg165
I0
sg55
I0
sg113
I0
sg114
I0
sg166
I0
sg167
I0
sg59
I0
sg116
I0
sg50
I0
sg168
I0
sg51
I0
sg49
I0
sg48
I0
sg169
I0
sg122
I0
sg123
I0
ssg59
(dp176
g81
I0
sg133
I0
sg134
I0
sg135
I0
sg136
I0
sg60
I0
sg137
I0
sg87
I0
sg54
I0
sg88
I0
sg89
I0
sg90
I0
sg57
I0
sg91
I0
sg92
I0
sg138
I0
sg94
I0
sg95
I0
sg96
I0
sg97
I0
sg139
I0
sg99
I0
sg55
I0
sg100
I0
sg101
I0
sg140
I0
sg103
I0
sg53
I0
sg56
I0
sg104
I0
sg105
I0
sg106
I0
sg107
I0
sg141
I0
sg142
I0
sg143
I0
sg111
I0
sg112
I0
sg144
I0
sg114
I0
sg58
I0
sg115
I0
sg59
I6
sg145
I0
sg116
I0
sg117
I0
sg118
I0
sg120
I0
sg113
I0
sg146
I0
sg123
I0
ssg10
(dp177
g23
I0
sg30
I0
sg58
I0
sg32
I0
sg27
I0
sg60
I0
sg21
I0
sg87
I0
sg54
I0
sg88
I0
sg59
I0
sg10
I6
sg22
I0
sg38
I0
sg31
I0
sg57
I0
sg101
I0
sg95
I0
sg36
I0
sg37
I0
sg24
I0
sg9
I0
sg55
I0
sg34
I0
sg19
I0
sg35
I0
sg29
I0
sg53
I0
sg56
I0
sg28
I0
sg105
I0
sg13
I0
sg12
I0
sg33
I0
sg111
I0
sg18
I0
sg16
I0
sg15
I0
sg20
I0
sg8
I0
sg14
I0
sg106
I0
sg117
I0
sg17
I0
sg139
I0
sg120
I0
sg25
I0
sg26
I0
sg11
I0
ssg22
(dp178
g23
I4
sg30
I0
sg125
I0
sg32
I0
sg27
I0
sg66
I0
sg21
I0
sg46
I0
sg68
I0
sg47
I0
sg70
I0
sg10
I0
sg22
I2
sg38
I0
sg31
I0
sg128
I0
sg42
I0
sg43
I0
sg36
I0
sg37
I0
sg24
I0
sg9
I0
sg40
I0
sg34
I0
sg39
I0
sg19
I0
sg35
I0
sg29
I0
sg129
I0
sg28
I0
sg44
I0
sg13
I0
sg12
I0
sg33
I0
sg45
I0
sg41
I0
sg18
I0
sg130
I0
sg16
I0
sg15
I0
sg20
I0
sg8
I0
sg14
I0
sg52
I0
sg50
I0
sg17
I0
sg51
I0
sg49
I0
sg48
I0
sg25
I0
sg26
I0
sg11
I0
ssg38
(dp179
g23
I0
sg30
I0
sg58
I0
sg32
I0
sg27
I0
sg60
I0
sg21
I0
sg46
I0
sg54
I0
sg47
I0
sg59
I0
sg10
I0
sg22
I0
sg38
I6
sg31
I0
sg57
I0
sg42
I0
sg43
I0
sg36
I0
sg37
I0
sg24
I0
sg9
I0
sg40
I0
sg34
I0
sg39
I0
sg19
I0
sg35
I0
sg29
I0
sg53
I0
sg56
I0
sg28
I0
sg44
I0
sg13
I0
sg12
I0
sg33
I0
sg45
I0
sg41
I0
sg18
I0
sg55
I0
sg25
I0
sg15
I0
sg20
I0
sg8
I0
sg14
I0
sg52
I0
sg50
I0
sg17
I0
sg51
I0
sg49
I0
sg48
I0
sg16
I0
sg26
I0
sg11
I0
ssg31
(dp180
g23
I0
sg30
I0
sg58
I0
sg32
I0
sg27
I0
sg60
I0
sg21
I0
sg46
I0
sg54
I0
sg47
I0
sg59
I0
sg10
I0
sg22
I0
sg38
I0
sg31
I12
sg57
I0
sg42
I0
sg43
I0
sg36
I0
sg37
I0
sg24
I0
sg9
I0
sg40
I0
sg34
I0
sg39
I0
sg19
I0
sg35
I0
sg29
I0
sg53
I0
sg56
I0
sg28
I0
sg44
I0
sg13
I0
sg12
I0
sg33
I0
sg45
I0
sg41
I0
sg18
I0
sg55
I0
sg16
I0
sg15
I0
sg20
I0
sg8
I0
sg14
I0
sg52
I0
sg50
I0
sg17
I0
sg51
I0
sg49
I0
sg48
I0
sg25
I0
sg26
I0
sg11
I0
ssg57
(dp181
g81
I0
sg83
I0
sg84
I0
sg85
I0
sg60
I0
sg86
I0
sg87
I0
sg54
I0
sg88
I0
sg89
I0
sg57
I0
sg91
I0
sg92
I0
sg93
I0
sg95
I0
sg96
I0
sg97
I0
sg98
I0
sg99
I0
sg55
I0
sg100
I0
sg101
I0
sg102
I0
sg103
I0
sg53
I0
sg56
I0
sg104
I0
sg105
I0
sg106
I0
sg107
I0
sg108
I0
sg109
I0
sg110
I0
sg111
I0
sg58
I0
sg115
I0
sg59
I0
sg117
I0
sg119
I0
sg120
I0
sg121
I0
sg122
I0
sg123
I0
ssg42
(dp182
g149
I0
sg150
I0
sg58
I0
sg151
I0
sg152
I0
sg60
I0
sg153
I0
sg46
I0
sg54
I0
sg47
I0
sg89
I0
sg90
I0
sg154
I0
sg155
I0
sg156
I0
sg57
I0
sg160
I0
sg43
I0
sg157
I0
sg97
I0
sg158
I0
sg99
I0
sg40
I0
sg159
I0
sg39
I0
sg42
I0
sg161
I0
sg162
I0
sg53
I0
sg56
I0
sg164
I0
sg44
I0
sg52
I0
sg107
I0
sg163
I0
sg45
I0
sg41
I0
sg165
I0
sg55
I0
sg113
I0
sg114
I0
sg166
I0
sg167
I0
sg59
I0
sg116
I0
sg50
I0
sg168
I0
sg51
I0
sg49
I0
sg48
I0
sg169
I0
sg122
I0
sg123
I0
ssg43
(dp183
g149
I0
sg150
I0
sg58
I0
sg151
I0
sg152
I0
sg60
I0
sg153
I0
sg46
I0
sg54
I0
sg47
I0
sg89
I0
sg90
I0
sg154
I0
sg155
I0
sg156
I0
sg57
I0
sg42
I0
sg43
I12
sg157
I0
sg97
I0
sg158
I0
sg99
I0
sg40
I0
sg159
I0
sg39
I0
sg160
I0
sg161
I0
sg162
I0
sg53
I0
sg56
I0
sg163
I0
sg44
I0
sg52
I0
sg107
I0
sg164
I0
sg45
I0
sg41
I0
sg165
I0
sg55
I0
sg113
I0
sg114
I0
sg166
I0
sg167
I0
sg59
I0
sg116
I0
sg50
I0
sg168
I0
sg51
I0
sg49
I0
sg48
I0
sg169
I0
sg122
I0
sg123
I0
ssg36
(dp184
g23
I0
sg30
I0
sg58
I0
sg32
I0
sg27
I0
sg60
I0
sg21
I0
sg46
I0
sg54
I0
sg47
I0
sg59
I0
sg10
I0
sg22
I0
sg38
I0
sg31
I0
sg57
I0
sg42
I0
sg43
I0
sg36
I4
sg37
I2
sg24
I0
sg9
I0
sg40
I0
sg34
I0
sg39
I0
sg19
I0
sg35
I0
sg29
I0
sg53
I0
sg56
I0
sg28
I0
sg44
I0
sg13
I0
sg12
I0
sg33
I0
sg45
I0
sg41
I0
sg18
I0
sg55
I0
sg16
I0
sg15
I0
sg20
I0
sg8
I0
sg14
I0
sg52
I0
sg50
I0
sg17
I0
sg51
I0
sg49
I0
sg48
I0
sg25
I0
sg26
I0
sg11
I0
ssg37
(dp185
g23
I0
sg30
I0
sg58
I0
sg32
I0
sg27
I0
sg60
I0
sg21
I0
sg87
I0
sg54
I0
sg88
I0
sg59
I0
sg10
I0
sg22
I0
sg38
I0
sg31
I0
sg57
I0
sg101
I0
sg95
I0
sg36
I0
sg37
I0
sg24
I0
sg9
I0
sg55
I0
sg34
I0
sg19
I0
sg35
I0
sg29
I0
sg53
I0
sg56
I0
sg28
I0
sg105
I0
sg13
I0
sg12
I0
sg33
I0
sg111
I0
sg18
I0
sg16
I0
sg15
I0
sg20
I0
sg8
I0
sg14
I0
sg106
I0
sg117
I0
sg17
I0
sg120
I0
sg25
I0
sg26
I0
sg11
I0
ssg24
(dp186
g23
I0
sg30
I0
sg125
I0
sg32
I0
sg27
I0
sg66
I0
sg21
I0
sg46
I0
sg68
I0
sg47
I0
sg70
I0
sg11
I0
sg22
I0
sg38
I0
sg31
I0
sg128
I0
sg42
I0
sg43
I0
sg36
I0
sg37
I0
sg24
I6
sg9
I0
sg40
I0
sg34
I0
sg39
I0
sg19
I0
sg35
I0
sg29
I0
sg129
I0
sg28
I0
sg44
I0
sg13
I0
sg12
I0
sg33
I0
sg45
I0
sg41
I0
sg18
I0
sg130
I0
sg16
I0
sg15
I0
sg20
I0
sg8
I0
sg14
I0
sg52
I0
sg50
I0
sg17
I0
sg51
I0
sg49
I0
sg48
I0
sg25
I0
sg26
I0
sg10
I0
ssg9
(dp187
g23
I0
sg30
I0
sg58
I0
sg32
I0
sg27
I0
sg60
I0
sg21
I0
sg87
I0
sg54
I0
sg88
I0
sg59
I0
sg10
I0
sg22
I0
sg38
I0
sg31
I0
sg57
I0
sg101
I0
sg95
I0
sg36
I0
sg37
I0
sg24
I0
sg9
I6
sg55
I0
sg34
I0
sg19
I0
sg35
I0
sg29
I0
sg53
I0
sg56
I0
sg28
I0
sg105
I0
sg13
I0
sg12
I0
sg33
I0
sg111
I0
sg18
I0
sg16
I0
sg15
I0
sg20
I0
sg8
I0
sg14
I0
sg106
I0
sg117
I0
sg17
I0
sg139
I0
sg120
I0
sg25
I0
sg26
I0
sg11
I0
ssg40
(dp188
g149
I0
sg150
I0
sg125
I0
sg151
I0
sg152
I0
sg126
I0
sg153
I0
sg46
I0
sg47
I0
sg127
I0
sg154
I0
sg155
I0
sg156
I0
sg128
I0
sg42
I0
sg43
I0
sg157
I0
sg158
I0
sg40
I0
sg159
I0
sg39
I0
sg160
I0
sg161
I0
sg162
I0
sg129
I0
sg163
I0
sg44
I0
sg52
I0
sS'oven.n.01'
p189
I0
sg164
I0
sg45
I0
sg41
I0
sg165
I0
sg130
I0
sS'salad.n.01'
p190
I0
sS'dressing.n.04'
p191
I0
sg166
I0
sg167
I0
sS'dressing.n.01'
p192
I0
sS'steak.n.01'
p193
I0
sg50
I0
sg168
I0
sg51
I0
sg49
I0
sg48
I0
sg169
I0
sg122
I0
ssg34
(dp194
g23
I0
sg30
I0
sg58
I0
sg32
I0
sg27
I0
sg60
I0
sg21
I0
sg46
I0
sg54
I0
sg47
I0
sg59
I0
sg10
I0
sg22
I0
sg38
I0
sg31
I0
sg57
I0
sg42
I0
sg43
I0
sg36
I0
sg37
I0
sg24
I0
sg9
I0
sg40
I0
sg34
I7
sg39
I0
sg19
I0
sg35
I5
sg29
I0
sg53
I0
sg56
I0
sg28
I0
sg44
I0
sg13
I0
sg12
I0
sg33
I0
sg45
I0
sg41
I0
sg18
I0
sg55
I0
sg16
I0
sg15
I0
sg20
I0
sg8
I0
sg14
I0
sg52
I0
sg50
I0
sg17
I0
sg51
I0
sg49
I0
sg48
I0
sg25
I0
sg26
I0
sg11
I0
ssg39
(dp195
g149
I0
sg151
I0
sg152
I0
sg153
I0
sg46
I0
sg47
I0
sg154
I0
sg155
I0
sg156
I0
sg42
I0
sg43
I0
sg157
I0
sg158
I0
sg40
I0
sg159
I0
sg39
I0
sg160
I0
sg161
I0
sg162
I0
sg163
I0
sg44
I0
sg52
I0
sg164
I0
sg45
I0
sg41
I0
sg165
I0
sg166
I0
sg167
I0
sg50
I0
sg168
I0
sg51
I0
sg49
I0
sg48
I0
sg169
I0
ssg19
(dp196
g23
I0
sg30
I0
sS'rice.n.01'
p197
I0
sg32
I0
sg27
I0
sS'soup.n.01'
p198
I0
sg21
I0
sg46
I0
sS'bowl.n.03'
p199
I0
sg47
I0
sS'pizza.n.01'
p200
I0
sg11
I0
sg22
I0
sg38
I0
sg31
I0
sg42
I0
sg43
I0
sg36
I0
sg37
I0
sg24
I0
sg9
I0
sg40
I0
sg34
I0
sg39
I0
sg19
I6
sg35
I0
sg29
I0
sS'rib.n.01'
p201
I0
sg28
I0
sg44
I0
sg13
I0
sg12
I0
sg33
I0
sg45
I0
sg41
I0
sg18
I0
sS'rib.n.03'
p202
I0
sg16
I0
sg15
I0
sg20
I0
sg8
I0
sg14
I0
sg52
I0
sg50
I0
sg17
I0
sg51
I0
sg49
I0
sg48
I0
sg25
I0
sg26
I0
sg10
I0
ssg35
(dp203
g23
I0
sg30
I0
sg125
I0
sg32
I0
sg27
I0
sg126
I0
sg21
I0
sg46
I0
sg47
I0
sg127
I0
sg11
I0
sg22
I0
sg38
I0
sg31
I0
sg128
I0
sg42
I0
sg43
I0
sg36
I0
sg37
I0
sg24
I0
sg9
I0
sg40
I0
sg34
I0
sg39
I0
sg19
I0
sg35
I0
sg29
I0
sg129
I0
sg28
I0
sg44
I0
sg13
I0
sg12
I0
sg33
I0
sg45
I0
sg41
I0
sg18
I0
sg130
I0
sg16
I0
sg15
I0
sg20
I0
sg8
I0
sg14
I0
sg52
I0
sg50
I0
sg17
I0
sg51
I0
sg49
I0
sg48
I0
sg25
I0
sg26
I0
sg10
I0
ssg29
(dp204
g23
I0
sg30
I11
sg58
I0
sg32
I0
sg27
I0
sg60
I0
sg21
I0
sg46
I0
sg54
I0
sg47
I0
sg59
I0
sg10
I0
sg22
I0
sg38
I0
sg31
I0
sg57
I0
sg42
I0
sg43
I0
sg36
I0
sg37
I0
sg24
I0
sg9
I0
sg40
I0
sg34
I0
sg39
I1
sg19
I0
sg35
I0
sg29
I0
sg53
I0
sg56
I0
sg28
I0
sg44
I0
sg13
I0
sg12
I0
sg33
I0
sg45
I0
sg41
I0
sg18
I0
sg55
I0
sg16
I0
sg15
I0
sg20
I0
sg8
I0
sg14
I0
sg52
I0
sg50
I0
sg17
I0
sg51
I0
sg49
I0
sg48
I0
sg25
I0
sg26
I0
sg11
I0
ssg53
(dp205
g81
I0
sg60
I0
sg87
I0
sg54
I0
sg88
I0
sg89
I0
sg57
I0
sg91
I0
sg92
I0
sg95
I0
sg96
I0
sg97
I0
sg99
I0
sg55
I0
sg100
I0
sg101
I0
sg103
I0
sg53
I0
sg56
I0
sg104
I0
sg105
I0
sg106
I0
sg107
I0
sg111
I0
sg58
I0
sg115
I0
sg59
I0
sg117
I0
sg120
I0
sg123
I0
ssg56
(dp206
g81
I0
sg82
I0
sg83
I0
sg84
I0
sg85
I0
sg60
I0
sg86
I0
sg87
I0
sg54
I0
sg88
I0
sg89
I0
sg90
I0
sg57
I0
sg91
I0
sg92
I0
sg93
I0
sg94
I0
sg95
I0
sg96
I0
sg97
I0
sg98
I0
sg99
I0
sg55
I0
sg100
I0
sg101
I0
sg102
I0
sg103
I0
sg53
I0
sg56
I0
sg104
I0
sg105
I0
sg106
I0
sg107
I0
sg108
I0
sg109
I0
sg110
I0
sg111
I0
sg112
I0
sg113
I0
sg114
I0
sg58
I0
sg115
I0
sg59
I0
sg116
I0
sg117
I0
sg118
I0
sg119
I0
sg120
I0
sg121
I0
sg122
I0
sg123
I0
ssg28
(dp207
g23
I0
sg30
I0
sg125
I0
sg32
I0
sg27
I0
sg126
I0
sg21
I0
sg46
I0
sg47
I0
sg127
I0
sg11
I0
sg22
I0
sg38
I0
sg31
I0
sg128
I0
sg42
I0
sg43
I0
sg36
I0
sg37
I0
sg24
I0
sg9
I0
sg40
I0
sg34
I0
sg39
I0
sg19
I0
sg35
I0
sg29
I0
sg129
I0
sg28
I0
sg44
I0
sg13
I0
sg12
I0
sg33
I0
sg45
I0
sg41
I0
sg18
I0
sg130
I0
sg16
I0
sg15
I0
sg20
I0
sg8
I0
sg14
I0
sg52
I0
sg50
I0
sg17
I0
sg51
I0
sg49
I0
sg48
I0
sg25
I0
sg26
I0
sg10
I0
ssg44
(dp208
g149
I0
sg150
I0
sg58
I0
sg151
I0
sg152
I0
sg60
I0
sg153
I0
sg46
I0
sg54
I0
sg47
I0
sg89
I0
sg90
I0
sg154
I0
sg155
I0
sg156
I0
sg57
I0
sg42
I0
sg43
I0
sg157
I0
sg97
I0
sg158
I0
sg99
I0
sg40
I0
sg159
I0
sg39
I0
sg160
I0
sg161
I0
sg162
I0
sg53
I0
sg56
I0
sg163
I0
sg44
I2
sg52
I0
sg107
I0
sg164
I0
sg45
I4
sg41
I0
sg165
I0
sg55
I0
sg113
I0
sg114
I0
sg166
I0
sg167
I0
sg59
I0
sg116
I0
sg50
I0
sg168
I0
sg51
I0
sg49
I0
sg48
I0
sg169
I0
sg122
I0
sg123
I0
ssg13
(dp209
g23
I0
sg30
I0
sS'rice.n.01'
p210
I0
sg32
I0
sg27
I0
sS'soup.n.01'
p211
I0
sg21
I0
sS'bread.n.01'
p212
I0
sS'bowl.n.03'
p213
I0
sS'bowl.n.01'
p214
I0
sS'pizza.n.01'
p215
I0
sg10
I0
sg22
I0
sg38
I0
sg31
I0
sS'countenance.n.03'
p216
I0
sS'microwave.n.02'
p217
I0
sg36
I0
sg37
I0
sg24
I0
sg9
I0
sS'rib.n.03'
p218
I0
sg34
I0
sg19
I0
sg35
I0
sg29
I0
sS'rib.n.01'
p219
I0
sg28
I0
sS'spread.n.05'
p220
I0
sg13
I6
sg12
I0
sg33
I0
sg73
I0
sg76
I0
sS'mug.n.04'
p221
I0
sg18
I0
sg16
I0
sg15
I0
sg20
I0
sg8
I0
sg14
I0
sS'whipped_cream.n.01'
p222
I0
sS'cake.n.03'
p223
I0
sg17
I0
sg139
I0
sS'cherry.n.03'
p224
I0
sg25
I0
sg26
I0
sg11
I0
ssg12
(dp225
g23
I0
sg30
I0
sg58
I0
sg32
I0
sg27
I0
sg60
I0
sg21
I0
sg87
I0
sg54
I0
sg88
I0
sg59
I0
sg10
I0
sg22
I0
sg38
I0
sg31
I0
sg57
I0
sg101
I0
sg95
I0
sg36
I0
sg37
I0
sg24
I0
sg9
I0
sg55
I0
sg34
I0
sg19
I0
sg35
I0
sg29
I0
sg53
I0
sg56
I0
sg28
I0
sg105
I0
sg13
I0
sg12
I12
sg33
I0
sg73
I0
sg76
I0
sg111
I0
sg18
I0
sg16
I0
sg15
I0
sg20
I0
sg8
I0
sg14
I0
sg106
I0
sg117
I0
sg17
I0
sg139
I0
sg120
I0
sg25
I0
sg26
I0
sg11
I0
ssg33
(dp226
g23
I0
sg30
I0
sg58
I0
sg32
I0
sg27
I0
sg60
I0
sg21
I0
sg46
I0
sg54
I0
sg47
I0
sg59
I0
sg11
I0
sg22
I0
sg38
I0
sg31
I0
sg57
I0
sg42
I0
sg43
I0
sg36
I0
sg37
I0
sg24
I0
sg9
I0
sg40
I4
sg34
I0
sg39
I0
sg19
I0
sg35
I0
sg29
I0
sg53
I1
sg56
I0
sg33
I1
sg44
I0
sg13
I0
sg12
I0
sg28
I0
sg45
I0
sg41
I0
sg18
I0
sg55
I0
sg16
I0
sg15
I0
sg20
I0
sg8
I0
sg14
I0
sg52
I0
sg50
I0
sg17
I0
sg51
I0
sg49
I0
sg48
I0
sg25
I0
sg26
I0
sg10
I0
ssg45
(dp227
g149
I0
sg150
I0
sg125
I0
sg151
I0
sg152
I0
sg126
I0
sg153
I0
sg46
I0
sg47
I0
sg127
I0
sg154
I0
sg155
I0
sg156
I0
sg128
I0
sg42
I0
sg43
I0
sg157
I0
sg158
I0
sg40
I0
sg159
I0
sg39
I0
sg160
I0
sg161
I0
sg162
I0
sg129
I0
sg163
I0
sg44
I0
sg52
I0
sg189
I0
sg164
I0
sg45
I0
sg41
I0
sg165
I0
sg130
I0
sg190
I0
sg191
I0
sg166
I0
sg167
I0
sg192
I0
sg193
I0
sg50
I0
sg168
I0
sg51
I0
sg49
I0
sg48
I0
sg169
I0
sg122
I0
ssg41
(dp228
g149
I0
sg150
I0
sg58
I0
sg151
I0
sg152
I0
sg60
I0
sg153
I0
sg46
I0
sg54
I0
sg47
I0
sg89
I0
sg90
I0
sg154
I0
sg155
I0
sg156
I0
sg57
I0
sg42
I6
sg43
I0
sg157
I0
sg97
I0
sg158
I0
sg99
I0
sg40
I0
sg159
I0
sg39
I0
sg160
I0
sg161
I0
sg162
I0
sg53
I0
sg56
I0
sg163
I0
sg44
I0
sg52
I0
sg107
I0
sg164
I0
sg45
I0
sg41
I0
sg165
I0
sg55
I0
sg113
I0
sg114
I0
sg166
I0
sg167
I0
sg59
I0
sg116
I0
sg50
I0
sg168
I0
sg51
I0
sg49
I0
sg48
I0
sg169
I0
sg122
I0
sg123
I0
ssg18
(dp229
g23
I0
sg30
I0
sg197
I0
sg32
I0
sg27
I0
sg198
I0
sg21
I0
sg46
I0
sg199
I0
sg47
I0
sg200
I0
sg11
I0
sg22
I0
sg38
I0
sg31
I0
sg42
I0
sg43
I0
sg36
I0
sg37
I0
sg24
I0
sg9
I0
sg40
I0
sg34
I0
sg39
I0
sg19
I0
sg35
I0
sg29
I0
sg201
I0
sg28
I0
sg44
I0
sg13
I0
sg12
I0
sg33
I0
sg45
I0
sg41
I0
sg18
I6
sg202
I0
sg16
I0
sg15
I0
sg20
I0
sg8
I0
sg14
I0
sg52
I0
sg50
I0
sg17
I0
sg51
I0
sg49
I0
sg48
I0
sg25
I0
sg26
I0
sg10
I0
ssg55
(dp230
g81
I0
sg82
I0
sg83
I0
sg84
I0
sg85
I0
sg60
I0
sg86
I0
sg87
I0
sg54
I0
sg88
I0
sg89
I0
sg90
I0
sg57
I0
sg91
I0
sg92
I0
sg93
I0
sg94
I0
sg95
I0
sg96
I0
sg97
I0
sg98
I0
sg99
I0
sg103
I0
sg100
I0
sg101
I0
sg102
I0
sg55
I0
sg53
I0
sg56
I6
sg104
I0
sg105
I0
sg106
I0
sg107
I0
sg108
I0
sg109
I0
sg110
I0
sg111
I0
sg112
I0
sg113
I0
sg114
I0
sg58
I0
sg115
I0
sg59
I0
sg116
I0
sg117
I0
sg118
I0
sg119
I0
sg120
I0
sg121
I0
sg122
I0
sg123
I0
ssg16
(dp231
g23
I0
sg30
I0
sg210
I0
sg32
I0
sg27
I0
sg211
I0
sg21
I0
sg212
I0
sg213
I0
sg214
I0
sg215
I0
sg10
I0
sg22
I0
sg38
I0
sg31
I0
sg216
I0
sg217
I0
sg36
I0
sg37
I0
sg24
I0
sg9
I0
sg218
I0
sg34
I0
sg19
I0
sg35
I0
sg29
I0
sg219
I0
sg28
I0
sg220
I0
sg13
I0
sg12
I0
sg33
I0
sg73
I0
sg76
I0
sg221
I0
sg18
I0
sg16
I6
sg15
I0
sg20
I0
sg8
I0
sg14
I0
sg222
I0
sg223
I0
sg17
I0
sg139
I0
sg224
I0
sg25
I0
sg26
I0
sg11
I0
ssg15
(dp232
g23
I0
sg30
I0
sg210
I0
sg32
I0
sg27
I0
sg211
I0
sg21
I0
sg212
I0
sg213
I0
sg214
I0
sg215
I0
sg10
I0
sg22
I0
sg38
I0
sg31
I0
sg216
I0
sg217
I0
sg36
I0
sg37
I0
sg24
I0
sg9
I0
sg218
I0
sg34
I0
sg19
I0
sg35
I0
sg29
I0
sg219
I0
sg28
I0
sg220
I0
sg13
I0
sg12
I0
sg33
I0
sg73
I0
sg76
I0
sg221
I0
sg18
I0
sg16
I0
sg15
I0
sg20
I0
sg8
I0
sg14
I0
sg222
I0
sg223
I0
sg17
I0
sg139
I0
sg224
I0
sg25
I0
sg26
I0
sg11
I0
ssg20
(dp233
g23
I0
sg30
I0
sg125
I0
sg32
I0
sg27
I0
sg66
I0
sg21
I0
sg46
I0
sg68
I0
sg47
I0
sg70
I0
sg10
I0
sg22
I0
sg38
I0
sg31
I0
sg128
I0
sg42
I0
sg43
I0
sg36
I0
sg37
I0
sg24
I0
sg9
I0
sg40
I0
sg34
I0
sg39
I0
sg19
I0
sg35
I0
sg29
I0
sg129
I0
sg28
I0
sg44
I0
sg13
I0
sg12
I0
sg33
I0
sg45
I0
sg41
I0
sg18
I0
sg130
I0
sg16
I0
sg15
I0
sg20
I6
sg8
I0
sg14
I0
sg52
I0
sg50
I0
sg17
I0
sg51
I0
sg49
I0
sg48
I0
sg25
I0
sg26
I0
sg11
I0
ssg8
(dp234
g23
I0
sg30
I0
sg58
I0
sg32
I0
sg27
I0
sg60
I0
sg21
I0
sg46
I0
sg54
I0
sg47
I0
sg59
I0
sg10
I0
sg22
I0
sg38
I0
sg31
I0
sg57
I0
sg42
I0
sg43
I0
sg36
I0
sg37
I0
sg24
I0
sg9
I0
sg40
I0
sg34
I0
sg39
I0
sg19
I0
sg35
I0
sg29
I0
sg53
I0
sg56
I0
sg28
I0
sg44
I0
sg13
I0
sg12
I0
sg33
I0
sg45
I0
sg41
I0
sg18
I0
sg55
I0
sg16
I0
sg15
I0
sg20
I0
sg8
I120
sg14
I0
sg52
I0
sg50
I0
sg17
I0
sg51
I0
sg49
I0
sg48
I0
sg25
I0
sg26
I0
sg11
I0
ssg14
(dp235
g23
I0
sg30
I0
sg210
I0
sg32
I0
sg27
I0
sg211
I0
sg21
I0
sg212
I0
sg213
I0
sg214
I0
sg215
I0
sg11
I0
sg22
I0
sg38
I0
sg31
I0
sg216
I0
sg217
I0
sg36
I0
sg37
I0
sg24
I0
sg9
I0
sg218
I0
sg34
I0
sg19
I0
sg35
I0
sg29
I0
sg219
I0
sg28
I0
sg220
I0
sg13
I0
sg12
I0
sg33
I0
sg73
I0
sg76
I0
sg221
I0
sg18
I0
sg16
I0
sg15
I6
sg20
I0
sg8
I0
sg14
I0
sg222
I0
sg223
I0
sg17
I0
sg139
I0
sg224
I0
sg25
I0
sg26
I0
sg10
I0
ssg52
(dp236
g149
I0
sg58
I0
sg151
I0
sg152
I0
sg60
I0
sg153
I0
sg46
I0
sg54
I0
sg47
I0
sg89
I0
sg90
I0
sg154
I0
sg155
I0
sg156
I0
sg57
I0
sg42
I0
sg43
I0
sg157
I0
sg97
I0
sg158
I0
sg99
I0
sg40
I0
sg159
I0
sg39
I0
sg160
I0
sg161
I0
sg162
I0
sg53
I0
sg56
I0
sg163
I0
sg44
I0
sg52
I6
sg107
I0
sg164
I0
sg45
I0
sg41
I0
sg165
I0
sg55
I0
sg113
I0
sg114
I0
sg166
I0
sg167
I0
sg59
I0
sg116
I0
sg50
I0
sg168
I0
sg51
I0
sg49
I0
sg48
I0
sg169
I0
sg122
I0
sg123
I0
ssg50
(dp237
g149
I0
sg58
I0
sg151
I0
sg152
I0
sg60
I0
sg153
I0
sg46
I0
sg54
I0
sg47
I0
sg89
I0
sg90
I0
sg154
I0
sg155
I0
sg156
I0
sg57
I0
sg42
I0
sg43
I0
sg157
I0
sg97
I0
sg158
I0
sg99
I0
sg40
I0
sg159
I0
sg39
I0
sg160
I0
sg161
I0
sg162
I0
sg53
I0
sg56
I0
sg163
I0
sg44
I0
sg52
I0
sg107
I0
sg164
I0
sg45
I0
sg41
I0
sg165
I0
sg55
I0
sg113
I0
sg114
I0
sg166
I0
sg167
I0
sg59
I0
sg116
I0
sg50
I2
sg168
I0
sg51
I4
sg49
I0
sg48
I0
sg169
I0
sg122
I0
sg123
I0
ssg17
(dp238
g23
I0
sg30
I0
sg197
I0
sg32
I0
sg27
I0
sg198
I0
sg21
I0
sg46
I0
sg199
I0
sg47
I0
sg200
I0
sg11
I0
sg22
I0
sg38
I0
sg31
I0
sg42
I0
sg43
I0
sg36
I0
sg37
I0
sg24
I0
sg9
I0
sg40
I0
sg34
I0
sg39
I0
sg19
I0
sg35
I0
sg29
I0
sg201
I0
sg28
I0
sg44
I0
sg13
I0
sg12
I0
sg33
I0
sg45
I0
sg41
I0
sg18
I0
sg202
I0
sg16
I0
sg15
I0
sg20
I0
sg8
I0
sg14
I0
sg52
I0
sg50
I0
sg17
I6
sg51
I0
sg49
I0
sg48
I0
sg25
I0
sg26
I0
sg10
I0
ssg51
(dp239
g149
I0
sg125
I0
sg151
I0
sg152
I0
sg198
I0
sg153
I0
sg46
I0
sg199
I0
sg47
I0
sS'batter.n.02'
p240
I0
sS'dressing.n.01'
p241
I0
sg158
I0
sg155
I0
sS'spoon.n.01'
p242
I0
sg156
I0
sg154
I0
sg42
I0
sg43
I0
sg157
I0
sg51
I0
sg128
I0
sg40
I0
sg159
I0
sg39
I0
sg160
I0
sg161
I0
sg162
I0
sg129
I0
sg163
I0
sg44
I0
sg52
I0
sS'oven.n.01'
p243
I0
sg164
I0
sg45
I0
sg41
I0
sg165
I0
sg130
I0
sS'salad.n.01'
p244
I0
sS'dressing.n.04'
p245
I0
sg166
I0
sg167
I0
sg200
I0
sS'steak.n.01'
p246
I0
sg50
I0
sg168
I0
sg49
I0
sg48
I0
sg169
I0
sg122
I0
sS'dish.n.02'
p247
I0
ssg49
(dp248
g149
I0
sg151
I0
sg152
I0
sg153
I0
sg46
I0
sg47
I0
sg154
I0
sg155
I0
sg156
I0
sg42
I0
sg43
I0
sg157
I0
sg158
I0
sg40
I0
sg159
I0
sg39
I0
sg160
I0
sg161
I0
sg162
I0
sg163
I0
sg44
I0
sg52
I0
sg164
I0
sg45
I0
sg41
I0
sg165
I0
sg166
I0
sg167
I0
sg50
I0
sg168
I0
sg51
I0
sg49
I0
sg48
I0
sg169
I0
ssg48
(dp249
g149
I0
sg58
I0
sg151
I0
sg152
I0
sg60
I0
sg153
I0
sg46
I0
sg54
I0
sg47
I0
sg89
I0
sg90
I0
sg154
I0
sg155
I0
sg156
I0
sg57
I0
sg42
I0
sg43
I0
sg157
I0
sg97
I0
sg158
I0
sg99
I0
sg40
I0
sg159
I0
sg39
I0
sg160
I0
sg161
I0
sg162
I0
sg53
I0
sg56
I0
sg163
I0
sg44
I0
sg52
I0
sg107
I0
sg164
I0
sg45
I0
sg41
I0
sg165
I0
sg55
I0
sg113
I0
sg114
I0
sg166
I0
sg167
I0
sg59
I0
sg116
I0
sg50
I0
sg168
I0
sg51
I0
sg49
I1
sg48
I5
sg169
I0
sg122
I0
sg123
I0
ssg25
(dp250
g23
I0
sg30
I0
sg125
I0
sg32
I0
sg27
I0
sg126
I0
sg21
I0
sg46
I0
sg47
I0
sg127
I0
sg10
I0
sg22
I0
sg38
I0
sg31
I0
sg128
I0
sg42
I0
sg43
I0
sg36
I0
sg37
I0
sg24
I0
sg9
I0
sg40
I0
sg34
I0
sg39
I0
sg19
I0
sg35
I0
sg29
I0
sg129
I0
sg28
I0
sg44
I0
sg13
I0
sg12
I0
sg33
I0
sg45
I0
sg41
I0
sg18
I0
sg130
I0
sg25
I1
sg15
I0
sg20
I0
sg8
I0
sg14
I0
sg52
I0
sg50
I0
sg17
I0
sg51
I0
sg49
I0
sg48
I0
sg16
I0
sg26
I5
sg11
I0
ssg26
(dp251
g23
I0
sg30
I0
sg125
I0
sg32
I0
sg27
I0
sg126
I0
sg21
I0
sS'bread.n.01'
p252
I0
sS'bowl.n.01'
p253
I0
sg127
I0
sg11
I0
sg22
I0
sg38
I0
sg31
I0
sg128
I0
sS'countenance.n.03'
p254
I0
sS'microwave.n.02'
p255
I0
sg36
I0
sg37
I0
sg24
I0
sg9
I0
sg109
I0
sg34
I0
sg19
I0
sg35
I0
sg29
I0
sg129
I0
sg28
I0
sS'spread.n.05'
p256
I0
sg13
I0
sg12
I0
sg33
I0
sg110
I0
sS'mug.n.04'
p257
I0
sg18
I0
sg130
I0
sg16
I0
sg15
I0
sg20
I0
sg8
I0
sg14
I0
sS'whipped_cream.n.01'
p258
I0
sS'cake.n.03'
p259
I0
sg17
I0
sg119
I0
sS'cherry.n.03'
p260
I0
sg25
I0
sg26
I0
sg10
I0
ssg11
(dp261
g23
I0
sg30
I0
sg58
I0
sg32
I0
sg27
I0
sg60
I0
sg21
I0
sg87
I0
sg54
I0
sg88
I0
sg59
I0
sg11
I6
sg22
I0
sg38
I0
sg31
I0
sg57
I0
sg101
I0
sg95
I0
sg36
I0
sg37
I0
sg24
I0
sg9
I0
sg55
I0
sg34
I0
sg19
I0
sg35
I0
sg29
I0
sg53
I0
sg56
I0
sg28
I0
sg105
I0
sg13
I0
sg12
I0
sg33
I0
sg111
I0
sg18
I0
sg16
I0
sg15
I0
sg20
I0
sg8
I0
sg14
I0
sg106
I0
sg117
I0
sg17
I0
sg139
I0
sg120
I0
sg25
I0
sg26
I0
sg10
I0
sssb.