ccopy_reg
_reconstructor
p0
(cutils.eval
ConfusionMatrix
p1
c__builtin__
object
p2
Ntp3
Rp4
(dp5
S'labels'
p6
(lp7
S'AC_ADD'
p8
aS'AC_FILL'
p9
aS'AC_CUT'
p10
aS'AC_SLICE'
p11
aS'AC_PUT'
p12
aS'AC_STIR'
p13
asS'instanceCount'
p14
I30
sS'matrix'
p15
(dp16
g12
(dp17
S'AC_PUT'
p18
I3
ssg9
(dp19
S'AC_FILL'
p20
I5
ssg13
(dp21
S'AC_STIR'
p22
I3
ssg8
(dp23
S'AC_ADD'
p24
I9
ssg11
(dp25
g11
I5
ssg10
(dp26
g24
I1
sg11
I4
sssb.