ccopy_reg
_reconstructor
p0
(cutils.eval
ConfusionMatrix
p1
c__builtin__
object
p2
Ntp3
Rp4
(dp5
S'labels'
p6
(lp7
S'add.v.01'
p8
aS'ingredient.n.03'
p9
aS'lend.v.01'
p10
aS'salt.n.02'
p11
aS'meat.n.01'
p12
aS'kernel.n.03'
p13
asS'instanceCount'
p14
I5
sS'matrix'
p15
(dp16
g11
(dp17
S'salt.n.02'
p18
I1
ssg13
(dp19
g13
I0
ssg9
(dp20
S'ingredient.n.03'
p21
I1
ssg12
(dp22
g13
I1
ssg10
(dp23
g10
I0
ssg8
(dp24
S'add.v.01'
p25
I1
sg10
I1
sssb.