ccopy_reg
_reconstructor
p0
(cutils.eval
ConfusionMatrix
p1
c__builtin__
object
p2
Ntp3
Rp4
(dp5
S'labels'
p6
(lp7
S'pot.n.01'
p8
aS'toilet.n.02'
p9
aS'add.v.01'
p10
aS'lend.v.01'
p11
aS'bean.n.01'
p12
aS'attic.n.03'
p13
aS'add.v.06'
p14
aS'rib.n.03'
p15
asS'instanceCount'
p16
I5
sS'matrix'
p17
(dp18
g9
(dp19
g9
I0
ssg15
(dp20
S'rib.n.03'
p21
I1
ssg8
(dp22
g9
I1
ssg13
(dp23
g13
I0
ssg11
(dp24
g11
I0
ssg12
(dp25
g13
I1
ssg14
(dp26
g14
I0
ssg10
(dp27
g14
I1
sg11
I1
sssb.