ccopy_reg
_reconstructor
p0
(cutils.eval
ConfusionMatrix
p1
c__builtin__
object
p2
Ntp3
Rp4
(dp5
S'labels'
p6
(lp7
S'AC_STIR'
p8
aS'AC_STIR_2'
p9
asS'instanceCount'
p10
I20
sS'matrix'
p11
(dp12
g9
(dp13
g9
I10
sS'AC_STIR'
p14
I0
ssg8
(dp15
g9
I0
sg8
I10
sssb.