ccopy_reg
_reconstructor
p0
(cutils.eval
ConfusionMatrix
p1
c__builtin__
object
p2
Ntp3
Rp4
(dp5
S'labels'
p6
(lp7
S'wok.n.01'
p8
aS'fill.v.01'
p9
aS'rice.n.01'
p10
aS'jar.n.01'
p11
aS'gravy.n.01'
p12
aS'gravy.n.02'
p13
aS'saltcellar.n.01'
p14
aS'salt.n.02'
p15
aS'whiskey.n.01'
p16
aS'carafe.n.01'
p17
aS'measuring_cup.n.01'
p18
aS'meal.n.03'
p19
aS'glass.n.02'
p20
aS'milk.n.01'
p21
aS'blender.n.01'
p22
aS'apple.n.01'
p23
aS'ice.n.01'
p24
aS'ice.n.05'
p25
aS'bowl.n.01'
p26
aS'teapot.n.01'
p27
aS'water.n.06'
p28
aS'opening.n.01'
p29
aS'gap.n.03'
p30
aS'fill.v.09'
p31
aS'batter.n.02'
p32
aS'pot.n.01'
p33
asS'instanceCount'
p34
I35
sS'matrix'
p35
(dp36
g26
(dp37
S'bowl.n.01'
p38
I1
ssg32
(dp39
S'batter.n.02'
p40
I1
ssg23
(dp41
S'apple.n.01'
p42
I1
ssg21
(dp43
S'milk.n.01'
p44
I1
ssg30
(dp45
g30
I0
ssg14
(dp46
S'saltcellar.n.01'
p47
I1
ssg33
(dp48
S'pot.n.01'
p49
I1
ssg9
(dp50
S'fill.v.01'
p51
I11
ssg31
(dp52
S'fill.v.01'
p53
I1
ssg18
(dp54
S'measuring_cup.n.01'
p55
I1
ssg20
(dp56
S'glass.n.02'
p57
I1
ssg12
(dp58
g13
I1
ssg15
(dp59
S'salt.n.02'
p60
I1
ssg13
(dp61
g13
I0
ssg8
(dp62
S'wok.n.01'
p63
I1
ssg16
(dp64
S'whiskey.n.01'
p65
I1
ssg29
(dp66
g30
I1
ssg27
(dp67
S'teapot.n.01'
p68
I1
ssg22
(dp69
S'blender.n.01'
p70
I1
ssg10
(dp71
S'rice.n.01'
p72
I1
ssg28
(dp73
S'water.n.06'
p74
I2
ssg24
(dp75
g25
I1
ssg25
(dp76
g25
I0
ssg11
(dp77
S'jar.n.01'
p78
I2
ssg17
(dp79
S'carafe.n.01'
p80
I1
ssg19
(dp81
S'meal.n.03'
p82
I1
sssb.