ccopy_reg
_reconstructor
p0
(cutils.eval
ConfusionMatrix
p1
c__builtin__
object
p2
Ntp3
Rp4
(dp5
S'labels'
p6
(lp7
S'opening.n.01'
p8
aS'opening.n.10'
p9
aS'fill.v.09'
p10
aS'fill.v.01'
p11
aS'curd.n.01'
p12
aS'foam.n.01'
p13
aS'mug.n.04'
p14
aS'cup.n.01'
p15
aS'cola.n.02'
p16
aS'bottle.n.01'
p17
aS'fruit_juice.n.01'
p18
aS'pan.n.01'
p19
aS'pan.n.03'
p20
aS'water.n.06'
p21
aS'thermos.n.01'
p22
aS'coffee.n.01'
p23
aS'pitcher.n.02'
p24
aS'milk.n.01'
p25
aS'kettle.n.01'
p26
aS'wok.n.01'
p27
aS'rice.n.01'
p28
aS'jar.n.01'
p29
aS'gravy.n.01'
p30
aS'gravy.n.02'
p31
aS'saltcellar.n.01'
p32
aS'salt.n.02'
p33
asS'instanceCount'
p34
I35
sS'matrix'
p35
(dp36
g22
(dp37
S'thermos.n.01'
p38
I1
ssg9
(dp39
g9
I0
ssg11
(dp40
g11
I11
ssg25
(dp41
S'milk.n.01'
p42
I1
ssg19
(dp43
g20
I1
ssg20
(dp44
g20
I0
ssg13
(dp45
S'foam.n.01'
p46
I1
ssg16
(dp47
S'cola.n.02'
p48
I1
ssg32
(dp49
S'saltcellar.n.01'
p50
I1
ssg10
(dp51
g11
I1
ssg17
(dp52
S'bottle.n.01'
p53
I1
ssg15
(dp54
S'cup.n.01'
p55
I1
ssg24
(dp56
S'pitcher.n.02'
p57
I1
ssg30
(dp58
g31
I1
ssg33
(dp59
S'salt.n.02'
p60
I1
ssg31
(dp61
g31
I0
ssg27
(dp62
S'wok.n.01'
p63
I1
ssg23
(dp64
S'coffee.n.01'
p65
I1
ssg8
(dp66
g9
I1
ssg14
(dp67
S'mug.n.04'
p68
I1
ssg18
(dp69
S'fruit_juice.n.01'
p70
I1
ssg28
(dp71
S'rice.n.01'
p72
I1
ssg21
(dp73
S'water.n.06'
p74
I2
ssg26
(dp75
S'kettle.n.01'
p76
I1
ssg12
(dp77
S'curd.n.01'
p78
I1
ssg29
(dp79
S'jar.n.01'
p80
I2
sssb.