ccopy_reg
_reconstructor
p0
(cutils.eval
ConfusionMatrix
p1
c__builtin__
object
p2
Ntp3
Rp4
(dp5
S'labels'
p6
(lp7
S'opening.n.01'
p8
aS'opening.n.10'
p9
aS'fill.v.09'
p10
aS'fill.v.01'
p11
aS'curd.n.01'
p12
aS'jar.n.01'
p13
aS'gravy.n.01'
p14
aS'gravy.n.02'
p15
aS'thermos.n.01'
p16
aS'coffee.n.01'
p17
aS'cup.n.01'
p18
aS'cola.n.02'
p19
aS'bottle.n.01'
p20
aS'fruit_juice.n.01'
p21
aS'wok.n.01'
p22
aS'rice.n.01'
p23
aS'measuring_cup.n.01'
p24
aS'meal.n.03'
p25
aS'saltcellar.n.01'
p26
aS'salt.n.02'
p27
aS'whiskey.n.01'
p28
aS'carafe.n.01'
p29
aS'kettle.n.01'
p30
aS'water.n.06'
p31
aS'blender.n.01'
p32
aS'apple.n.01'
p33
aS'foam.n.01'
p34
aS'mug.n.04'
p35
aS'pan.n.03'
p36
aS'ice.n.01'
p37
aS'ice.n.05'
p38
aS'bowl.n.01'
p39
aS'pitcher.n.02'
p40
aS'milk.n.01'
p41
aS'gap.n.03'
p42
aS'batter.n.02'
p43
aS'pot.n.01'
p44
asS'instanceCount'
p45
I53
sS'matrix'
p46
(dp47
g16
(dp48
S'thermos.n.01'
p49
I1
ssg39
(dp50
S'bowl.n.01'
p51
I1
ssg43
(dp52
S'batter.n.02'
p53
I1
ssg33
(dp54
S'apple.n.01'
p55
I1
ssg9
(dp56
g9
I0
ssg18
(dp57
S'cup.n.01'
p58
I1
ssg41
(dp59
S'milk.n.01'
p60
I1
ssg36
(dp61
S'pan.n.03'
p62
I1
ssg34
(dp63
S'foam.n.01'
p64
I1
ssg19
(dp65
S'cola.n.02'
p66
I1
ssg42
(dp67
g42
I0
ssg10
(dp68
g11
I2
ssg20
(dp69
S'bottle.n.01'
p70
I1
ssg44
(dp71
S'pot.n.01'
p72
I1
ssg11
(dp73
g11
I16
ssg40
(dp74
S'pitcher.n.02'
p75
I1
ssg24
(dp76
S'measuring_cup.n.01'
p77
I1
ssg14
(dp78
g15
I1
ssg27
(dp79
S'salt.n.02'
p80
I1
ssg15
(dp81
g15
I0
ssg22
(dp82
S'wok.n.01'
p83
I1
ssg17
(dp84
S'coffee.n.01'
p85
I1
ssg23
(dp86
S'rice.n.01'
p87
I1
ssg28
(dp88
S'whiskey.n.01'
p89
I1
ssg8
(dp90
g9
I1
sg42
I1
ssg35
(dp91
S'mug.n.04'
p92
I1
ssg21
(dp93
S'fruit_juice.n.01'
p94
I1
ssg32
(dp95
S'blender.n.01'
p96
I1
ssg26
(dp97
S'saltcellar.n.01'
p98
I1
ssg31
(dp99
S'water.n.06'
p100
I3
ssg37
(dp101
g38
I1
ssg30
(dp102
S'kettle.n.01'
p103
I1
ssg38
(dp104
g38
I0
ssg12
(dp105
S'curd.n.01'
p106
I1
ssg13
(dp107
S'jar.n.01'
p108
I2
ssg29
(dp109
S'carafe.n.01'
p110
I1
ssg25
(dp111
S'meal.n.03'
p112
I1
sssb.