ccopy_reg
_reconstructor
p0
(cutils.eval
ConfusionMatrix
p1
c__builtin__
object
p2
Ntp3
Rp4
(dp5
S'labels'
p6
(lp7
S'fill.v.01'
p8
aS'measuring_cup.n.01'
p9
aS'meal.n.03'
p10
aS'saltcellar.n.01'
p11
aS'salt.n.02'
p12
aS'whiskey.n.01'
p13
aS'carafe.n.01'
p14
aS'kettle.n.01'
p15
aS'water.n.06'
p16
aS'jar.n.01'
p17
aS'blender.n.01'
p18
aS'apple.n.01'
p19
aS'foam.n.01'
p20
aS'mug.n.04'
p21
aS'pan.n.03'
p22
aS'ice.n.01'
p23
aS'ice.n.05'
p24
aS'bowl.n.01'
p25
aS'pitcher.n.02'
p26
aS'milk.n.01'
p27
aS'opening.n.01'
p28
aS'gap.n.03'
p29
aS'fill.v.09'
p30
aS'batter.n.02'
p31
aS'pot.n.01'
p32
aS'teapot.n.01'
p33
aS'glass.n.02'
p34
aS'opening.n.10'
p35
aS'curd.n.01'
p36
aS'gravy.n.01'
p37
aS'gravy.n.02'
p38
aS'thermos.n.01'
p39
aS'coffee.n.01'
p40
aS'cup.n.01'
p41
aS'cola.n.02'
p42
asS'instanceCount'
p43
I53
sS'matrix'
p44
(dp45
g39
(dp46
S'thermos.n.01'
p47
I1
ssg25
(dp48
S'bowl.n.01'
p49
I1
ssg31
(dp50
S'batter.n.02'
p51
I1
ssg35
(dp52
g35
I0
ssg19
(dp53
S'apple.n.01'
p54
I1
ssg20
(dp55
S'foam.n.01'
p56
I1
ssg27
(dp57
S'milk.n.01'
p58
I2
ssg22
(dp59
S'pan.n.03'
p60
I1
ssg42
(dp61
S'cola.n.02'
p62
I1
ssg29
(dp63
g29
I0
ssg11
(dp64
S'saltcellar.n.01'
p65
I1
ssg32
(dp66
S'pot.n.01'
p67
I1
ssg8
(dp68
S'fill.v.01'
p69
I16
ssg26
(dp70
S'pitcher.n.02'
p71
I1
ssg9
(dp72
S'measuring_cup.n.01'
p73
I1
ssg34
(dp74
S'glass.n.02'
p75
I1
ssg37
(dp76
g38
I1
ssg12
(dp77
S'salt.n.02'
p78
I1
ssg38
(dp79
g38
I0
ssg40
(dp80
S'coffee.n.01'
p81
I1
ssg13
(dp82
S'whiskey.n.01'
p83
I1
ssg28
(dp84
g35
I1
sg29
I1
ssg21
(dp85
S'mug.n.04'
p86
I1
ssg33
(dp87
S'teapot.n.01'
p88
I1
ssg18
(dp89
S'blender.n.01'
p90
I1
ssg30
(dp91
S'fill.v.01'
p92
I2
ssg16
(dp93
S'water.n.06'
p94
I4
ssg23
(dp95
g24
I1
ssg41
(dp96
S'cup.n.01'
p97
I1
ssg15
(dp98
S'kettle.n.01'
p99
I1
ssg24
(dp100
g24
I0
ssg36
(dp101
S'curd.n.01'
p102
I1
ssg17
(dp103
S'jar.n.01'
p104
I2
ssg14
(dp105
S'carafe.n.01'
p106
I1
ssg10
(dp107
S'meal.n.03'
p108
I1
sssb.