ccopy_reg
_reconstructor
p0
(cutils.eval
ConfusionMatrix
p1
c__builtin__
object
p2
Ntp3
Rp4
(dp5
S'labels'
p6
(lp7
S'fill.v.01'
p8
aS'foam.n.01'
p9
aS'mug.n.04'
p10
aS'pan.n.03'
p11
aS'water.n.06'
p12
aS'water_system.n.02'
p13
aS'ice.n.01'
p14
aS'bowl.n.01'
p15
aS'pitcher.n.02'
p16
aS'milk.n.01'
p17
aS'milk.n.04'
p18
aS'opening.n.01'
p19
aS'gap.n.03'
p20
aS'fill.v.09'
p21
aS'batter.n.02'
p22
aS'batter.n.01'
p23
aS'pot.n.01'
p24
aS'teapot.n.01'
p25
aS'glass.n.02'
p26
aS'opening.n.10'
p27
aS'curd.n.01'
p28
aS'jar.n.01'
p29
aS'gravy.n.01'
p30
aS'gravy.n.02'
p31
aS'thermos.n.01'
p32
aS'coffee.n.01'
p33
aS'coffee_bean.n.01'
p34
aS'cup.n.01'
p35
aS'cola.n.02'
p36
aS'colon.n.04'
p37
aS'bottle.n.01'
p38
aS'fruit_juice.n.01'
p39
aS'wok.n.01'
p40
aS'rice.n.01'
p41
aS'rice.n.03'
p42
aS'measuring_cup.n.01'
p43
aS'meal.n.03'
p44
aS'meal.n.01'
p45
aS'saltcellar.n.01'
p46
aS'salt.n.02'
p47
aS'salt.n.01'
p48
aS'whiskey.n.01'
p49
aS'carafe.n.01'
p50
aS'kettle.n.01'
p51
asS'instanceCount'
p52
I54
sS'matrix'
p53
(dp54
g46
(dp55
S'saltcellar.n.01'
p56
I1
ssg41
(dp57
g42
I1
ssg34
(dp58
g34
I0
ssg15
(dp59
S'bowl.n.01'
p60
I1
ssg37
(dp61
g37
I0
ssg22
(dp62
g23
I1
ssg23
(dp63
g23
I0
ssg18
(dp64
g18
I0
ssg27
(dp65
g27
I0
ssg9
(dp66
S'foam.n.01'
p67
I1
ssg17
(dp68
g18
I1
sS'milk.n.01'
p69
I1
ssg11
(dp70
S'pan.n.03'
p71
I1
ssg36
(dp72
g37
I1
ssg20
(dp73
g20
I0
ssg21
(dp74
S'fill.v.01'
p75
I2
ssg38
(dp76
S'bottle.n.01'
p77
I1
ssg24
(dp78
S'pot.n.01'
p79
I1
ssg8
(dp80
S'fill.v.01'
p81
I16
ssg16
(dp82
S'pitcher.n.02'
p83
I1
ssg43
(dp84
S'measuring_cup.n.01'
p85
I1
ssg26
(dp86
S'glass.n.02'
p87
I1
ssg30
(dp88
g31
I1
ssg47
(dp89
g48
I1
ssg48
(dp90
g48
I0
ssg31
(dp91
g31
I0
ssg40
(dp92
S'wok.n.01'
p93
I1
ssg33
(dp94
g34
I1
ssg49
(dp95
S'whiskey.n.01'
p96
I1
ssg19
(dp97
g27
I1
sg20
I1
ssg10
(dp98
S'mug.n.04'
p99
I1
ssg39
(dp100
S'fruit_juice.n.01'
p101
I1
ssg25
(dp102
S'teapot.n.01'
p103
I1
ssg42
(dp104
g42
I0
ssg32
(dp105
S'thermos.n.01'
p106
I1
ssg13
(dp107
g13
I0
ssg12
(dp108
g13
I4
ssg14
(dp109
S'ice.n.01'
p110
I1
ssg35
(dp111
S'cup.n.01'
p112
I1
ssg51
(dp113
S'kettle.n.01'
p114
I1
ssg28
(dp115
S'curd.n.01'
p116
I1
ssg29
(dp117
S'jar.n.01'
p118
I1
ssg50
(dp119
S'carafe.n.01'
p120
I1
ssg45
(dp121
g45
I0
ssg44
(dp122
g45
I1
sssb.