ccopy_reg
_reconstructor
p0
(cutils.eval
ConfusionMatrix
p1
c__builtin__
object
p2
Ntp3
Rp4
(dp5
S'labels'
p6
(lp7
S'fill.v.01'
p8
aS'teapot.n.01'
p9
aS'water.n.06'
p10
aS'kettle.n.01'
p11
aS'jar.n.01'
p12
aS'cup.n.01'
p13
aS'cola.n.02'
p14
aS'pitcher.n.02'
p15
aS'milk.n.01'
p16
aS'whiskey.n.01'
p17
aS'carafe.n.01'
p18
aS'pan.n.03'
p19
aS'ice.n.01'
p20
aS'ice.n.05'
p21
aS'bowl.n.01'
p22
aS'saltcellar.n.01'
p23
aS'salt.n.02'
p24
aS'foam.n.01'
p25
aS'mug.n.04'
p26
aS'blender.n.01'
p27
aS'apple.n.01'
p28
aS'opening.n.01'
p29
aS'gap.n.03'
p30
aS'fill.v.09'
p31
aS'batter.n.02'
p32
aS'measuring_cup.n.01'
p33
aS'meal.n.03'
p34
aS'opening.n.10'
p35
aS'curd.n.01'
p36
asS'instanceCount'
p37
I41
sS'matrix'
p38
(dp39
g22
(dp40
S'bowl.n.01'
p41
I1
ssg32
(dp42
S'batter.n.02'
p43
I1
ssg35
(dp44
g35
I0
ssg28
(dp45
S'apple.n.01'
p46
I1
ssg25
(dp47
S'foam.n.01'
p48
I1
ssg16
(dp49
S'milk.n.01'
p50
I1
ssg8
(dp51
S'fill.v.01'
p52
I12
ssg19
(dp53
S'pan.n.03'
p54
I1
ssg14
(dp55
S'cola.n.02'
p56
I1
ssg30
(dp57
g30
I0
ssg23
(dp58
S'saltcellar.n.01'
p59
I1
ssg13
(dp60
S'cup.n.01'
p61
I1
ssg15
(dp62
S'pitcher.n.02'
p63
I1
ssg33
(dp64
S'measuring_cup.n.01'
p65
I1
ssg24
(dp66
S'salt.n.02'
p67
I1
ssg17
(dp68
S'whiskey.n.01'
p69
I1
ssg29
(dp70
g35
I1
sg30
I1
ssg26
(dp71
S'mug.n.04'
p72
I1
ssg9
(dp73
S'teapot.n.01'
p74
I1
ssg27
(dp75
S'blender.n.01'
p76
I1
ssg31
(dp77
S'fill.v.01'
p78
I2
ssg10
(dp79
S'water.n.06'
p80
I3
ssg20
(dp81
g21
I1
ssg11
(dp82
S'kettle.n.01'
p83
I1
ssg21
(dp84
g21
I0
ssg36
(dp85
S'curd.n.01'
p86
I1
ssg12
(dp87
S'jar.n.01'
p88
I1
ssg18
(dp89
S'carafe.n.01'
p90
I1
ssg34
(dp91
S'meal.n.03'
p92
I1
sssb.