ccopy_reg
_reconstructor
p0
(cutils.eval
ConfusionMatrix
p1
c__builtin__
object
p2
Ntp3
Rp4
(dp5
S'labels'
p6
(lp7
S'jar.n.01'
p8
aS'fill.v.01'
p9
aS'cup.n.01'
p10
aS'cola.n.02'
p11
aS'pitcher.n.02'
p12
aS'milk.n.01'
p13
aS'whiskey.n.01'
p14
aS'carafe.n.01'
p15
aS'pan.n.03'
p16
aS'pan.n.01'
p17
aS'water.n.06'
p18
aS'ice.n.01'
p19
aS'ice.n.05'
p20
aS'bowl.n.01'
p21
aS'saltcellar.n.01'
p22
aS'salt.n.02'
p23
aS'foam.n.01'
p24
aS'mug.n.04'
p25
aS'blender.n.01'
p26
aS'apple.n.01'
p27
aS'opening.n.01'
p28
aS'gap.n.03'
p29
aS'fill.v.09'
p30
aS'batter.n.02'
p31
aS'measuring_cup.n.01'
p32
aS'meal.n.03'
p33
aS'opening.n.10'
p34
aS'curd.n.01'
p35
aS'bottle.n.01'
p36
aS'fruit_juice.n.01'
p37
aS'juice.n.01'
p38
aS'glass.n.02'
p39
asS'instanceCount'
p40
I41
sS'matrix'
p41
(dp42
g21
(dp43
S'bowl.n.01'
p44
I1
ssg31
(dp45
S'batter.n.02'
p46
I1
ssg34
(dp47
g34
I0
ssg27
(dp48
S'apple.n.01'
p49
I1
ssg24
(dp50
S'foam.n.01'
p51
I1
ssg13
(dp52
S'milk.n.01'
p53
I2
ssg17
(dp54
g17
I0
ssg9
(dp55
S'fill.v.01'
p56
I12
ssg16
(dp57
g17
I1
ssg11
(dp58
S'cola.n.02'
p59
I1
ssg29
(dp60
g29
I0
ssg22
(dp61
S'saltcellar.n.01'
p62
I1
ssg36
(dp63
S'bottle.n.01'
p64
I1
ssg10
(dp65
S'cup.n.01'
p66
I1
ssg12
(dp67
S'pitcher.n.02'
p68
I1
ssg32
(dp69
S'measuring_cup.n.01'
p70
I1
ssg39
(dp71
S'glass.n.02'
p72
I1
ssg23
(dp73
S'salt.n.02'
p74
I1
ssg14
(dp75
S'whiskey.n.01'
p76
I1
ssg28
(dp77
g34
I1
sg29
I1
ssg25
(dp78
S'mug.n.04'
p79
I1
ssg37
(dp80
g38
I1
ssg26
(dp81
S'blender.n.01'
p82
I1
ssg30
(dp83
S'fill.v.01'
p84
I2
ssg18
(dp85
S'water.n.06'
p86
I1
ssg19
(dp87
g20
I1
ssg20
(dp88
g20
I0
ssg35
(dp89
S'curd.n.01'
p90
I1
ssg8
(dp91
S'jar.n.01'
p92
I1
ssg15
(dp93
S'carafe.n.01'
p94
I1
ssg38
(dp95
g38
I0
ssg33
(dp96
S'meal.n.03'
p97
I1
sssb.