ccopy_reg
_reconstructor
p0
(cutils.eval
ConfusionMatrix
p1
c__builtin__
object
p2
Ntp3
Rp4
(dp5
S'labels'
p6
(lp7
S'fill.v.01'
p8
aS'measuring_cup.n.01'
p9
aS'meal.n.03'
p10
aS'opening.n.01'
p11
aS'opening.n.10'
p12
aS'fill.v.09'
p13
aS'curd.n.01'
p14
aS'bottle.n.01'
p15
aS'fruit_juice.n.01'
p16
aS'glass.n.02'
p17
aS'milk.n.01'
p18
aS'jar.n.01'
p19
aS'gravy.n.01'
p20
aS'gravy.n.02'
p21
aS'pot.n.01'
p22
aS'pot.n.04'
p23
aS'water.n.06'
p24
aS'thermos.n.01'
p25
aS'coffee.n.01'
p26
aS'wok.n.01'
p27
aS'rice.n.01'
p28
aS'teapot.n.01'
p29
aS'kettle.n.01'
p30
aS'cup.n.01'
p31
aS'cola.n.02'
p32
aS'pitcher.n.02'
p33
aS'whiskey.n.01'
p34
aS'carafe.n.01'
p35
asS'instanceCount'
p36
I41
sS'matrix'
p37
(dp38
g25
(dp39
S'thermos.n.01'
p40
I1
ssg12
(dp41
g12
I0
ssg31
(dp42
S'cup.n.01'
p43
I1
ssg18
(dp44
S'milk.n.01'
p45
I2
ssg32
(dp46
S'cola.n.02'
p47
I1
ssg13
(dp48
S'fill.v.01'
p49
I1
ssg15
(dp50
S'bottle.n.01'
p51
I1
ssg23
(dp52
g23
I0
ssg22
(dp53
g23
I1
ssg8
(dp54
S'fill.v.01'
p55
I13
ssg33
(dp56
S'pitcher.n.02'
p57
I1
ssg9
(dp58
S'measuring_cup.n.01'
p59
I1
ssg17
(dp60
S'glass.n.02'
p61
I1
ssg20
(dp62
g21
I1
ssg21
(dp63
g21
I0
ssg27
(dp64
S'wok.n.01'
p65
I1
ssg26
(dp66
S'coffee.n.01'
p67
I1
ssg34
(dp68
S'whiskey.n.01'
p69
I1
ssg11
(dp70
g12
I1
ssg16
(dp71
S'fruit_juice.n.01'
p72
I1
ssg29
(dp73
S'teapot.n.01'
p74
I1
ssg28
(dp75
S'rice.n.01'
p76
I1
ssg24
(dp77
S'water.n.06'
p78
I3
ssg30
(dp79
S'kettle.n.01'
p80
I1
ssg14
(dp81
S'curd.n.01'
p82
I1
ssg19
(dp83
S'jar.n.01'
p84
I2
ssg35
(dp85
S'carafe.n.01'
p86
I1
ssg10
(dp87
S'meal.n.03'
p88
I1
sssb.