ccopy_reg
_reconstructor
p0
(cutils.eval
ConfusionMatrix
p1
c__builtin__
object
p2
Ntp3
Rp4
(dp5
S'labels'
p6
(lp7
S'jar.n.01'
p8
aS'fill.v.01'
p9
aS'gravy.n.01'
p10
aS'gravy.n.02'
p11
aS'pot.n.01'
p12
aS'pot.n.04'
p13
aS'water.n.06'
p14
aS'thermos.n.01'
p15
aS'coffee.n.01'
p16
aS'wok.n.01'
p17
aS'rice.n.01'
p18
aS'teapot.n.01'
p19
aS'kettle.n.01'
p20
aS'cup.n.01'
p21
aS'cola.n.02'
p22
aS'pitcher.n.02'
p23
aS'milk.n.01'
p24
aS'whiskey.n.01'
p25
aS'carafe.n.01'
p26
aS'pan.n.03'
p27
aS'ice.n.01'
p28
aS'ice.n.05'
p29
aS'bowl.n.01'
p30
aS'bowl.n.08'
p31
aS'saltcellar.n.01'
p32
aS'salt.n.02'
p33
aS'foam.n.01'
p34
aS'mug.n.04'
p35
aS'blender.n.01'
p36
aS'apple.n.01'
p37
aS'opening.n.01'
p38
aS'gap.n.03'
p39
aS'fill.v.09'
p40
aS'batter.n.02'
p41
aS'measuring_cup.n.01'
p42
aS'meal.n.03'
p43
aS'opening.n.10'
p44
aS'curd.n.01'
p45
aS'bottle.n.01'
p46
aS'fruit_juice.n.01'
p47
aS'glass.n.02'
p48
aS'pan.n.01'
p49
aS'juice.n.01'
p50
aS'methamphetamine.n.01'
p51
asS'instanceCount'
p52
I413
sS'matrix'
p53
(dp54
g18
(dp55
g15
I0
sg51
I0
sg30
I0
sS'batter.n.02'
p56
I0
sS'opening.n.10'
p57
I0
sS'apple.n.01'
p58
I0
sg21
I0
sg24
I0
sg27
I0
sg31
I0
sg22
I0
sS'gap.n.03'
p59
I0
sg32
I0
sS'bottle.n.01'
p60
I0
sg13
I0
sg12
I0
sg9
I0
sg23
I0
sS'measuring_cup.n.01'
p61
I0
sS'glass.n.02'
p62
I0
sg10
I0
sg33
I0
sg11
I0
sg17
I0
sg16
I0
sS'fill.v.09'
p63
I0
sg34
I0
sg25
I0
sS'opening.n.01'
p64
I0
sg35
I0
sS'fruit_juice.n.01'
p65
I0
sg19
I0
sS'blender.n.01'
p66
I0
sg18
I7
sg14
I0
sg28
I0
sg20
I0
sg29
I0
sS'curd.n.01'
p67
I0
sg8
I0
sg26
I0
sS'juice.n.01'
p68
I0
sS'meal.n.03'
p69
I0
ssg51
(dp70
S'thermos.n.01'
p71
I0
sg51
I0
sS'bowl.n.01'
p72
I0
sS'batter.n.02'
p73
I0
sS'apple.n.01'
p74
I0
sS'opening.n.10'
p75
I0
sS'foam.n.01'
p76
I0
sS'milk.n.01'
p77
I0
sS'pan.n.03'
p78
I0
sS'gap.n.03'
p79
I0
sS'saltcellar.n.01'
p80
I0
sS'bottle.n.01'
p81
I0
sS'pot.n.01'
p82
I0
sS'fill.v.01'
p83
I0
sS'measuring_cup.n.01'
p84
I0
sS'glass.n.02'
p85
I0
sS'gravy.n.01'
p86
I0
sS'salt.n.02'
p87
I0
sS'gravy.n.02'
p88
I0
sS'wok.n.01'
p89
I0
sS'coffee.n.01'
p90
I0
sS'rice.n.01'
p91
I0
sS'opening.n.01'
p92
I0
sS'mug.n.04'
p93
I0
sS'fruit_juice.n.01'
p94
I0
sS'blender.n.01'
p95
I0
sS'fill.v.09'
p96
I0
sS'water.n.06'
p97
I0
sS'ice.n.01'
p98
I0
sS'curd.n.01'
p99
I0
sS'jar.n.01'
p100
I0
sS'meal.n.03'
p101
I0
ssg30
(dp102
g18
I0
sg51
I0
sg30
I5
sg41
I0
sg44
I0
sg37
I0
sg21
I0
sg24
I0
sg49
I0
sg27
I0
sg31
I2
sg22
I0
sg39
I0
sg32
I0
sg46
I0
sg13
I0
sg12
I0
sg9
I0
sg23
I0
sg42
I0
sg48
I0
sg10
I0
sg33
I0
sg11
I0
sg17
I0
sg16
I0
sg40
I0
sg34
I0
sg25
I0
sg38
I0
sg35
I0
sg47
I0
sg19
I0
sg36
I0
sg15
I0
sg14
I0
sg28
I0
sg20
I0
sg29
I0
sg45
I0
sg8
I0
sg26
I0
sg50
I0
sg43
I0
ssg41
(dp103
S'thermos.n.01'
p104
I0
sg51
I0
sS'bowl.n.01'
p105
I0
sg41
I7
sg44
I0
sg37
I0
sS'foam.n.01'
p106
I0
sS'milk.n.01'
p107
I0
sg49
I0
sS'pan.n.03'
p108
I0
sS'cola.n.02'
p109
I0
sg39
I0
sS'saltcellar.n.01'
p110
I0
sg46
I0
sS'pot.n.01'
p111
I0
sS'fill.v.01'
p112
I0
sS'pitcher.n.02'
p113
I0
sg42
I0
sg48
I0
sS'gravy.n.01'
p114
I0
sS'salt.n.02'
p115
I0
sS'gravy.n.02'
p116
I0
sS'wok.n.01'
p117
I0
sS'coffee.n.01'
p118
I0
sS'rice.n.01'
p119
I0
sS'whiskey.n.01'
p120
I0
sg38
I0
sS'mug.n.04'
p121
I0
sg47
I0
sS'teapot.n.01'
p122
I0
sg36
I0
sg40
I0
sS'water.n.06'
p123
I0
sS'ice.n.01'
p124
I0
sS'cup.n.01'
p125
I0
sS'kettle.n.01'
p126
I0
sS'ice.n.05'
p127
I0
sg45
I0
sS'jar.n.01'
p128
I0
sS'carafe.n.01'
p129
I0
sg50
I0
sg43
I0
ssg44
(dp130
S'thermos.n.01'
p131
I0
sg51
I0
sg105
I0
sg41
I0
sg44
I0
sg37
I0
sg106
I0
sg107
I0
sg49
I0
sg108
I0
sg109
I0
sg39
I0
sg110
I0
sg46
I0
sS'pot.n.04'
p132
I0
sg111
I0
sg112
I0
sg113
I0
sg42
I0
sg48
I0
sg114
I0
sg115
I0
sg116
I0
sS'wok.n.01'
p133
I0
sS'coffee.n.01'
p134
I0
sS'rice.n.01'
p135
I0
sg120
I0
sg38
I0
sg121
I0
sg47
I0
sg122
I0
sg36
I0
sg40
I0
sg123
I0
sg124
I0
sg125
I0
sg126
I0
sg127
I0
sg45
I0
sg128
I0
sg129
I0
sg50
I0
sg43
I0
ssg37
(dp136
g104
I0
sg51
I0
sg105
I0
sg41
I0
sg44
I0
sg37
I7
sg106
I0
sg107
I0
sg49
I0
sg108
I0
sg109
I0
sg39
I0
sg110
I0
sg46
I0
sg111
I0
sg112
I0
sg113
I0
sg42
I0
sg48
I0
sg114
I0
sg115
I0
sg116
I0
sg117
I0
sg118
I0
sg119
I0
sg120
I0
sg38
I0
sg121
I0
sg47
I0
sg122
I0
sg36
I0
sg40
I0
sg123
I0
sg124
I0
sg125
I0
sg126
I0
sg127
I0
sg45
I0
sg128
I0
sg129
I0
sg50
I0
sg43
I0
ssg21
(dp137
g18
I0
sg30
I0
sS'batter.n.02'
p138
I0
sS'opening.n.10'
p139
I0
sS'apple.n.01'
p140
I0
sg21
I7
sg24
I0
sg49
I0
sg27
I0
sg31
I0
sg22
I0
sS'gap.n.03'
p141
I0
sg32
I0
sS'bottle.n.01'
p142
I0
sg13
I0
sg12
I0
sg9
I0
sg23
I0
sS'measuring_cup.n.01'
p143
I0
sS'glass.n.02'
p144
I0
sg10
I0
sg33
I0
sg11
I0
sg17
I0
sg16
I0
sS'fill.v.09'
p145
I0
sg34
I0
sg25
I0
sS'opening.n.01'
p146
I0
sg35
I0
sS'fruit_juice.n.01'
p147
I0
sg19
I0
sS'blender.n.01'
p148
I0
sg15
I0
sg14
I0
sg28
I0
sg20
I0
sg29
I0
sS'curd.n.01'
p149
I0
sg8
I0
sg26
I0
sg50
I0
sS'meal.n.03'
p150
I0
ssg24
(dp151
g18
I0
sg51
I0
sg30
I0
sg41
I0
sg44
I0
sg37
I0
sg21
I0
sg24
I14
sg49
I0
sg27
I0
sg31
I0
sg22
I0
sg39
I0
sg32
I0
sg46
I0
sg13
I0
sg12
I0
sg9
I0
sg23
I0
sg42
I0
sg48
I0
sg10
I0
sg33
I0
sg11
I0
sg17
I0
sg16
I0
sg40
I0
sg34
I0
sg25
I0
sg38
I0
sg35
I0
sg47
I0
sg19
I0
sg36
I0
sg15
I0
sg14
I0
sg28
I0
sg20
I0
sg29
I0
sg45
I0
sg8
I0
sg26
I0
sg50
I0
sg43
I0
ssg49
(dp152
S'bowl.n.01'
p153
I0
sS'batter.n.02'
p154
I0
sS'opening.n.10'
p155
I0
sS'apple.n.01'
p156
I0
sS'foam.n.01'
p157
I0
sS'milk.n.01'
p158
I0
sg49
I0
sS'fill.v.01'
p159
I0
sS'pan.n.03'
p160
I0
sS'cola.n.02'
p161
I0
sS'gap.n.03'
p162
I0
sS'saltcellar.n.01'
p163
I0
sg142
I0
sS'cup.n.01'
p164
I0
sS'pitcher.n.02'
p165
I0
sS'measuring_cup.n.01'
p166
I0
sg144
I0
sS'salt.n.02'
p167
I0
sS'whiskey.n.01'
p168
I0
sS'opening.n.01'
p169
I0
sS'mug.n.04'
p170
I0
sg147
I0
sS'blender.n.01'
p171
I0
sS'fill.v.09'
p172
I0
sS'water.n.06'
p173
I0
sS'ice.n.01'
p174
I0
sS'ice.n.05'
p175
I0
sS'curd.n.01'
p176
I0
sS'jar.n.01'
p177
I0
sS'carafe.n.01'
p178
I0
sg50
I0
sS'meal.n.03'
p179
I0
ssg27
(dp180
g18
I0
sg51
I0
sg30
I0
sg41
I0
sg44
I0
sg37
I0
sg21
I0
sg24
I0
sg49
I1
sg27
I6
sg31
I0
sg22
I0
sg39
I0
sg32
I0
sg46
I0
sg13
I0
sg12
I0
sg9
I0
sg23
I0
sg42
I0
sg48
I0
sg10
I0
sg33
I0
sg11
I0
sg17
I0
sg16
I0
sg40
I0
sg34
I0
sg25
I0
sg38
I0
sg35
I0
sg47
I0
sg19
I0
sg36
I0
sg15
I0
sg14
I0
sg28
I0
sg20
I0
sg29
I0
sg45
I0
sg8
I0
sg26
I0
sg50
I0
sg43
I0
ssg31
(dp181
g18
I0
sg30
I0
sg21
I0
sg24
I0
sg27
I0
sg31
I0
sg22
I0
sg32
I0
sS'bottle.n.01'
p182
I0
sg13
I0
sg12
I0
sg9
I0
sg23
I0
sS'glass.n.02'
p183
I0
sg10
I0
sg33
I0
sg11
I0
sg17
I0
sg16
I0
sg34
I0
sg25
I0
sg35
I0
sS'fruit_juice.n.01'
p184
I0
sg19
I0
sg15
I0
sg14
I0
sg28
I0
sg20
I0
sg29
I0
sg8
I0
sg26
I0
sg68
I0
ssg22
(dp185
g18
I0
sg30
I0
sg138
I0
sg139
I0
sg140
I0
sg21
I0
sg24
I0
sg49
I0
sg27
I0
sg31
I0
sg22
I7
sg141
I0
sg32
I0
sg142
I0
sg13
I0
sg12
I0
sg9
I0
sg23
I0
sg143
I0
sg144
I0
sg10
I0
sg33
I0
sg11
I0
sg17
I0
sg16
I0
sg145
I0
sg34
I0
sg25
I0
sg146
I0
sg35
I0
sg147
I0
sg19
I0
sg148
I0
sg15
I0
sg14
I0
sg28
I0
sg20
I0
sg29
I0
sg149
I0
sg8
I0
sg26
I0
sg50
I0
sg150
I0
ssg39
(dp186
g104
I0
sg51
I0
sg105
I0
sg41
I0
sg44
I0
sg37
I0
sg106
I0
sg107
I0
sg49
I0
sg108
I0
sg109
I0
sg39
I0
sg110
I0
sg46
I0
sg111
I0
sg112
I0
sg113
I0
sg42
I0
sg48
I0
sg114
I0
sg115
I0
sg116
I0
sg117
I0
sg118
I0
sg119
I0
sg120
I0
sg38
I0
sg121
I0
sg47
I0
sg122
I0
sg36
I0
sg40
I0
sg123
I0
sg124
I0
sg125
I0
sg126
I0
sg127
I0
sg45
I0
sg128
I0
sg129
I0
sg50
I0
sg43
I0
ssg32
(dp187
g18
I0
sg51
I0
sg30
I0
sg41
I0
sg44
I0
sg37
I0
sg21
I0
sg24
I0
sg49
I0
sg27
I0
sg31
I0
sg22
I0
sg39
I0
sg32
I7
sg46
I0
sg13
I0
sg12
I0
sg9
I0
sg23
I0
sg42
I0
sg48
I0
sg10
I0
sg33
I0
sg11
I0
sg17
I0
sg16
I0
sg40
I0
sg34
I0
sg25
I0
sg38
I0
sg35
I0
sg47
I0
sg19
I0
sg36
I0
sg15
I0
sg14
I0
sg28
I0
sg20
I0
sg29
I0
sg45
I0
sg8
I0
sg26
I0
sg50
I0
sg43
I0
ssg46
(dp188
g131
I0
sg51
I0
sg105
I0
sg41
I0
sg44
I0
sg37
I0
sg106
I0
sg107
I0
sg49
I0
sg108
I0
sS'bowl.n.08'
p189
I0
sg161
I0
sg39
I0
sg110
I0
sg46
I7
sg132
I0
sg111
I0
sg112
I0
sg113
I0
sg42
I0
sg48
I0
sg114
I0
sg115
I0
sg116
I0
sg133
I0
sg134
I0
sg135
I0
sg120
I0
sg38
I0
sg121
I0
sg47
I0
sS'teapot.n.01'
p190
I0
sg36
I0
sg40
I0
sg123
I0
sg124
I0
sg164
I0
sS'kettle.n.01'
p191
I0
sg127
I0
sg45
I0
sg128
I0
sg129
I0
sg50
I0
sg43
I0
ssg13
(dp192
g18
I0
sg30
I0
sg57
I0
sg21
I0
sg24
I0
sg27
I0
sg31
I0
sg22
I0
sg32
I0
sg60
I0
sg13
I0
sg12
I0
sg9
I0
sg23
I0
sg61
I0
sg62
I0
sg10
I0
sg33
I0
sg11
I0
sg17
I0
sg16
I0
sS'fill.v.09'
p193
I0
sg34
I0
sg25
I0
sS'opening.n.01'
p194
I0
sg35
I0
sg65
I0
sg19
I0
sg15
I0
sg14
I0
sg28
I0
sg20
I0
sg29
I0
sg67
I0
sg8
I0
sg26
I0
sg69
I0
ssg12
(dp195
g18
I0
sg51
I0
sg30
I0
sg41
I0
sg44
I0
sg37
I0
sg21
I0
sg24
I0
sg27
I0
sg31
I0
sg22
I0
sg39
I0
sg32
I0
sg46
I0
sg13
I2
sg12
I5
sg9
I0
sg23
I0
sg42
I0
sg48
I0
sg10
I0
sg33
I0
sg11
I0
sg17
I0
sg16
I0
sg40
I0
sg34
I0
sg25
I0
sg38
I0
sg35
I0
sg47
I0
sg19
I0
sg36
I0
sg15
I0
sg14
I0
sg28
I0
sg20
I0
sg29
I0
sg45
I0
sg8
I0
sg26
I0
sg68
I0
sg43
I0
ssg9
(dp196
g18
I0
sg51
I0
sg30
I0
sg41
I0
sg44
I0
sg37
I0
sg21
I0
sg24
I0
sg49
I0
sg27
I0
sg31
I0
sg22
I0
sg39
I0
sg32
I0
sg46
I0
sg13
I0
sg12
I0
sg9
I126
sg23
I0
sg42
I0
sg48
I0
sg10
I0
sg33
I0
sg11
I0
sg17
I0
sg16
I0
sg40
I0
sg34
I0
sg25
I0
sg38
I0
sg35
I0
sg47
I0
sg19
I0
sg36
I0
sg15
I0
sg14
I0
sg28
I0
sg20
I0
sg29
I0
sg45
I0
sg8
I0
sg26
I0
sg50
I0
sg43
I0
ssg23
(dp197
g18
I0
sg30
I0
sg41
I0
sg44
I0
sg37
I0
sg21
I0
sg24
I0
sg49
I0
sg27
I0
sg31
I0
sg22
I0
sg39
I0
sg32
I0
sg46
I0
sg13
I0
sg12
I0
sg9
I0
sg23
I7
sg42
I0
sg48
I0
sg10
I0
sg33
I0
sg11
I0
sg17
I0
sg16
I0
sg40
I0
sg34
I0
sg25
I0
sg38
I0
sg35
I0
sg47
I0
sg19
I0
sg36
I0
sg15
I0
sg14
I0
sg28
I0
sg20
I0
sg29
I0
sg45
I0
sg8
I0
sg26
I0
sg50
I0
sg43
I0
ssg42
(dp198
g131
I0
sg51
I0
sg105
I0
sg41
I0
sg44
I0
sg37
I0
sg106
I0
sg107
I0
sg49
I0
sg108
I0
sg109
I0
sg39
I0
sg110
I0
sg46
I0
sg132
I0
sg111
I0
sg112
I0
sg113
I0
sg42
I7
sg48
I0
sg114
I0
sg115
I0
sg116
I0
sg133
I0
sg134
I0
sg135
I0
sg120
I0
sg38
I0
sg121
I0
sg47
I0
sg122
I0
sg36
I0
sg40
I0
sg123
I0
sg124
I0
sg125
I0
sg126
I0
sg127
I0
sg45
I0
sg128
I0
sg129
I0
sg50
I0
sg43
I0
ssg48
(dp199
g131
I0
sg51
I0
sg105
I0
sg41
I0
sg44
I0
sg37
I0
sg106
I0
sg107
I0
sg49
I0
sg108
I0
sg189
I0
sg161
I0
sg39
I0
sg110
I0
sg46
I0
sg132
I0
sg111
I0
sg112
I0
sg113
I0
sg42
I0
sg48
I7
sg114
I0
sg115
I0
sg116
I0
sg133
I0
sg134
I0
sg135
I0
sg120
I0
sg38
I0
sg121
I0
sg47
I0
sg190
I0
sg36
I0
sg40
I0
sg123
I0
sg124
I0
sg164
I0
sg191
I0
sg127
I0
sg45
I0
sg128
I0
sg129
I0
sg50
I0
sg43
I0
ssg10
(dp200
g18
I0
sg51
I0
sg30
I0
sg41
I0
sg44
I0
sg37
I0
sg21
I0
sg24
I0
sg27
I0
sg31
I0
sg22
I0
sg39
I0
sg32
I0
sg46
I0
sg13
I0
sg12
I0
sg9
I0
sg23
I0
sg42
I0
sg48
I0
sg10
I0
sg33
I0
sg11
I7
sg17
I0
sg16
I0
sg40
I0
sg34
I0
sg25
I0
sg38
I0
sg35
I0
sg47
I0
sg19
I0
sg36
I0
sg15
I0
sg14
I0
sg28
I0
sg20
I0
sg29
I0
sg45
I0
sg8
I0
sg26
I0
sg68
I0
sg43
I0
ssg33
(dp201
g18
I0
sg51
I0
sg30
I0
sg41
I0
sg44
I0
sg37
I0
sg21
I0
sg24
I0
sg49
I0
sg27
I0
sg31
I0
sg22
I0
sg39
I0
sg32
I0
sg46
I0
sg13
I0
sg12
I0
sg9
I0
sg23
I0
sg42
I0
sg48
I0
sg10
I0
sg33
I7
sg11
I0
sg17
I0
sg16
I0
sg40
I0
sg34
I0
sg25
I0
sg38
I0
sg35
I0
sg47
I0
sg19
I0
sg36
I0
sg15
I0
sg14
I0
sg28
I0
sg20
I0
sg29
I0
sg45
I0
sg8
I0
sg26
I0
sg50
I0
sg43
I0
ssg11
(dp202
g18
I0
sg51
I0
sg30
I0
sg41
I0
sg44
I0
sg37
I0
sg21
I0
sg24
I0
sg27
I0
sg31
I0
sg22
I0
sg39
I0
sg32
I0
sg46
I0
sg13
I0
sg12
I0
sg9
I0
sg23
I0
sg42
I0
sg48
I0
sg10
I0
sg33
I0
sg11
I0
sg17
I0
sg16
I0
sg40
I0
sg34
I0
sg25
I0
sg38
I0
sg35
I0
sg47
I0
sg19
I0
sg36
I0
sg15
I0
sg14
I0
sg28
I0
sg20
I0
sg29
I0
sg45
I0
sg8
I0
sg26
I0
sg68
I0
sg43
I0
ssg17
(dp203
g18
I0
sg51
I0
sg30
I0
sg56
I0
sg57
I0
sg58
I0
sg21
I0
sg24
I0
sg27
I0
sg31
I0
sg22
I0
sg59
I0
sg32
I0
sg60
I0
sg13
I0
sg12
I0
sg9
I0
sg23
I0
sg61
I0
sg62
I0
sg10
I0
sg33
I0
sg11
I0
sg17
I7
sg16
I0
sg63
I0
sg34
I0
sg25
I0
sg64
I0
sg35
I0
sg65
I0
sg19
I0
sg66
I0
sg15
I0
sg14
I0
sg28
I0
sg20
I0
sg29
I0
sg67
I0
sg8
I0
sg26
I0
sg68
I0
sg69
I0
ssg16
(dp204
g18
I0
sg51
I0
sg30
I0
sg56
I0
sg57
I0
sg58
I0
sg21
I0
sg24
I0
sg27
I0
sg31
I0
sg22
I0
sg59
I0
sg32
I0
sg60
I0
sg13
I0
sg12
I0
sg9
I0
sg23
I0
sg61
I0
sg62
I0
sg10
I0
sg33
I0
sg11
I0
sg17
I0
sg16
I7
sg63
I0
sg34
I0
sg25
I0
sg64
I0
sg35
I0
sg65
I0
sg19
I0
sg66
I0
sg15
I0
sg14
I0
sg28
I0
sg20
I0
sg29
I0
sg67
I0
sg8
I0
sg26
I0
sg68
I0
sg69
I0
ssg40
(dp205
g104
I0
sg51
I0
sg105
I0
sg41
I0
sg44
I0
sg37
I0
sg106
I0
sg107
I0
sg49
I0
sg108
I0
sg109
I0
sg39
I0
sg40
I0
sg46
I0
sg132
I0
sg111
I0
sg112
I14
sg113
I0
sg42
I0
sg48
I0
sg114
I0
sg115
I0
sg116
I0
sg117
I0
sg118
I0
sg119
I0
sg120
I0
sg38
I0
sg121
I0
sg47
I0
sg122
I0
sg36
I0
sg110
I0
sg123
I0
sg124
I0
sg125
I0
sg126
I0
sg127
I0
sg45
I0
sg128
I0
sg129
I0
sg50
I0
sg43
I0
ssg34
(dp206
g18
I0
sg51
I0
sg30
I0
sg41
I0
sg44
I0
sg37
I0
sg21
I0
sg24
I0
sg49
I0
sg27
I0
sg34
I7
sg22
I0
sg39
I0
sg32
I0
sg46
I0
sg13
I0
sg12
I0
sg9
I0
sg31
I0
sg23
I0
sg42
I0
sg48
I0
sg10
I0
sg33
I0
sg11
I0
sg17
I0
sg16
I0
sg40
I0
sg25
I0
sg38
I0
sg35
I0
sg47
I0
sg19
I0
sg36
I0
sg15
I0
sg14
I0
sg28
I0
sg20
I0
sg29
I0
sg45
I0
sg8
I0
sg26
I0
sg50
I0
sg43
I0
ssg25
(dp207
g18
I0
sg30
I0
sg41
I0
sg44
I0
sg37
I0
sg21
I0
sg24
I0
sg49
I0
sg27
I0
sg31
I0
sg22
I0
sg39
I0
sg32
I0
sg46
I0
sg13
I0
sg12
I0
sg9
I0
sg23
I0
sg42
I0
sg48
I0
sg10
I0
sg33
I0
sg11
I0
sg17
I0
sg16
I0
sg40
I0
sg34
I0
sg25
I7
sg38
I0
sg35
I0
sg47
I0
sg19
I0
sg36
I0
sg15
I0
sg14
I0
sg28
I0
sg20
I0
sg29
I0
sg45
I0
sg8
I0
sg26
I0
sg50
I0
sg43
I0
ssg38
(dp208
g104
I0
sg51
I0
sg105
I0
sg41
I0
sg44
I7
sg37
I0
sg106
I0
sg107
I0
sg49
I0
sg108
I0
sg109
I0
sg39
I7
sg110
I0
sg46
I0
sg132
I0
sg111
I0
sg112
I0
sg113
I0
sg42
I0
sg48
I0
sg114
I0
sg115
I0
sg116
I0
sg117
I0
sg118
I0
sg119
I0
sg120
I0
sg38
I0
sg121
I0
sg47
I0
sg122
I0
sg36
I0
sg40
I0
sg123
I0
sg124
I0
sg125
I0
sg126
I0
sg127
I0
sg45
I0
sg128
I0
sg129
I0
sg50
I0
sg43
I0
ssg35
(dp209
g18
I0
sg51
I0
sg30
I0
sg41
I0
sg44
I0
sg37
I0
sg21
I0
sg24
I0
sg49
I0
sg27
I0
sg31
I0
sg22
I0
sg39
I0
sg32
I0
sg46
I0
sg13
I0
sg12
I0
sg9
I0
sg23
I0
sg42
I0
sg48
I0
sg10
I0
sg33
I0
sg11
I0
sg17
I0
sg16
I0
sg40
I0
sg34
I0
sg25
I0
sg38
I0
sg35
I7
sg47
I0
sg19
I0
sg36
I0
sg15
I0
sg14
I0
sg28
I0
sg20
I0
sg29
I0
sg45
I0
sg8
I0
sg26
I0
sg50
I0
sg43
I0
ssg47
(dp210
g131
I0
sg51
I0
sg105
I0
sg41
I0
sg44
I0
sg37
I0
sg106
I0
sg107
I0
sg49
I0
sg108
I0
sg189
I0
sg161
I0
sg39
I0
sg110
I0
sg46
I0
sg132
I0
sg111
I0
sg112
I0
sg113
I0
sg42
I0
sg48
I0
sg114
I0
sg115
I0
sg116
I0
sg133
I0
sg134
I0
sg135
I0
sg120
I0
sg38
I0
sg121
I0
sg47
I5
sg190
I0
sg36
I0
sg40
I0
sg123
I0
sg124
I0
sg164
I0
sg191
I0
sg127
I0
sg45
I0
sg128
I0
sg129
I0
sg50
I2
sg43
I0
ssg19
(dp211
g18
I0
sg30
I0
sg138
I0
sg139
I0
sg140
I0
sg21
I0
sg24
I0
sg27
I0
sg31
I0
sg22
I0
sg141
I0
sg32
I0
sg60
I0
sg13
I0
sg12
I0
sg9
I0
sg23
I0
sg143
I0
sg62
I0
sg10
I0
sg33
I0
sg11
I0
sg17
I0
sg16
I0
sg145
I0
sg34
I0
sg25
I0
sg146
I0
sg35
I0
sg65
I0
sg19
I7
sg148
I0
sg15
I0
sg14
I0
sg28
I0
sg20
I0
sg29
I0
sg149
I0
sg8
I0
sg26
I0
sg68
I0
sg150
I0
ssg36
(dp212
g104
I0
sg51
I0
sg105
I0
sg41
I0
sg44
I0
sg37
I0
sg106
I0
sg107
I0
sg49
I0
sg108
I0
sg109
I0
sg39
I0
sg110
I0
sg46
I0
sg111
I0
sg112
I0
sg113
I0
sg42
I0
sg48
I0
sg114
I0
sg115
I0
sg116
I0
sg117
I0
sg118
I0
sg119
I0
sg120
I0
sg38
I0
sg121
I0
sg47
I0
sg122
I0
sg36
I7
sg40
I0
sg123
I0
sg124
I0
sg125
I0
sg126
I0
sg127
I0
sg45
I0
sg128
I0
sg129
I0
sg50
I0
sg43
I0
ssg15
(dp213
g18
I0
sg51
I0
sg30
I0
sg56
I0
sg57
I0
sg58
I0
sg21
I0
sg24
I0
sg27
I0
sg31
I0
sg22
I0
sg59
I0
sg32
I0
sg60
I0
sg13
I0
sg12
I0
sg9
I0
sg23
I0
sg61
I0
sg62
I0
sg10
I0
sg33
I0
sg11
I0
sg17
I0
sg16
I0
sg63
I0
sg34
I0
sg25
I0
sg64
I0
sg35
I0
sg65
I0
sg19
I0
sg66
I0
sg15
I7
sg14
I0
sg28
I0
sg20
I0
sg29
I0
sg67
I0
sg8
I0
sg26
I0
sg68
I0
sg69
I0
ssg14
(dp214
g18
I0
sg51
I0
sg30
I0
sg41
I0
sg44
I0
sg37
I0
sg21
I0
sg24
I0
sg49
I0
sg27
I0
sg31
I0
sg22
I0
sg39
I0
sg32
I0
sg46
I0
sg13
I0
sg12
I0
sg9
I0
sg23
I0
sg42
I0
sg48
I0
sg10
I0
sg33
I0
sg11
I0
sg17
I0
sg16
I0
sg40
I0
sg34
I0
sg25
I0
sg38
I0
sg35
I0
sg47
I0
sg19
I0
sg36
I0
sg15
I0
sg14
I28
sg28
I0
sg20
I0
sg29
I0
sg45
I0
sg8
I0
sg26
I0
sg50
I0
sg43
I0
ssg28
(dp215
g18
I0
sg51
I1
sg30
I0
sg41
I0
sg44
I0
sg37
I0
sg21
I0
sg24
I0
sg49
I0
sg27
I0
sg31
I0
sg22
I0
sg39
I0
sg32
I0
sg46
I0
sg13
I0
sg12
I0
sg9
I0
sg23
I0
sg42
I0
sg48
I0
sg10
I0
sg33
I0
sg11
I0
sg17
I0
sg16
I0
sg40
I0
sg34
I0
sg25
I0
sg38
I0
sg35
I0
sg47
I0
sg19
I0
sg36
I0
sg15
I0
sg14
I0
sg28
I0
sg20
I0
sg29
I6
sg45
I0
sg8
I0
sg26
I0
sg50
I0
sg43
I0
ssg20
(dp216
g18
I0
sg30
I0
sg138
I0
sg139
I0
sg140
I0
sg21
I0
sg24
I0
sg27
I0
sg31
I0
sg22
I0
sg141
I0
sg32
I0
sg60
I0
sg13
I0
sg12
I0
sg9
I0
sg23
I0
sg143
I0
sg62
I0
sg10
I0
sg33
I0
sg11
I0
sg17
I0
sg16
I0
sg145
I0
sg34
I0
sg25
I0
sg146
I0
sg35
I0
sg65
I0
sg19
I0
sg148
I0
sg15
I0
sg14
I0
sg28
I0
sg20
I7
sg29
I0
sg149
I0
sg8
I0
sg26
I0
sg68
I0
sg150
I0
ssg29
(dp217
g18
I0
sg30
I0
sg41
I0
sg44
I0
sg37
I0
sg21
I0
sg24
I0
sg49
I0
sg27
I0
sg31
I0
sg22
I0
sg39
I0
sg32
I0
sg46
I0
sg13
I0
sg12
I0
sg9
I0
sg23
I0
sg42
I0
sg48
I0
sg10
I0
sg33
I0
sg11
I0
sg17
I0
sg16
I0
sg40
I0
sg34
I0
sg25
I0
sg38
I0
sg35
I0
sg47
I0
sg19
I0
sg36
I0
sg15
I0
sg14
I0
sg28
I0
sg20
I0
sg29
I0
sg45
I0
sg8
I0
sg26
I0
sg50
I0
sg43
I0
ssg45
(dp218
g131
I0
sg51
I0
sg105
I0
sg41
I0
sg44
I0
sg37
I0
sg106
I0
sg107
I0
sg49
I0
sg108
I0
sg109
I0
sg39
I0
sg110
I0
sg46
I0
sg132
I0
sg111
I0
sg112
I0
sg113
I0
sg42
I0
sg48
I0
sg114
I0
sg115
I0
sg116
I0
sg133
I0
sg134
I0
sg135
I0
sg120
I0
sg38
I0
sg121
I0
sg47
I0
sg122
I0
sg36
I0
sg40
I0
sg123
I0
sg124
I0
sg125
I0
sg126
I0
sg127
I0
sg45
I7
sg128
I0
sg129
I0
sg50
I0
sg43
I0
ssg8
(dp219
g18
I0
sg51
I0
sg30
I0
sg41
I0
sg44
I0
sg37
I0
sg21
I0
sg24
I0
sg49
I0
sg27
I0
sg31
I0
sg22
I0
sg39
I0
sg32
I0
sg46
I0
sg13
I0
sg12
I0
sg9
I0
sg23
I0
sg42
I0
sg48
I0
sg10
I0
sg33
I0
sg11
I0
sg17
I0
sg16
I0
sg40
I0
sg34
I0
sg25
I0
sg38
I0
sg35
I0
sg47
I0
sg19
I0
sg36
I0
sg15
I0
sg14
I0
sg28
I0
sg20
I0
sg29
I0
sg45
I0
sg8
I14
sg26
I0
sg50
I0
sg43
I0
ssg26
(dp220
g18
I0
sg30
I0
sg41
I0
sg44
I0
sg37
I0
sg21
I0
sg24
I0
sg49
I0
sg27
I0
sg31
I0
sg22
I0
sg39
I0
sg32
I0
sg46
I0
sg13
I0
sg12
I0
sg9
I0
sg23
I0
sg42
I0
sg48
I0
sg10
I0
sg33
I0
sg11
I0
sg17
I0
sg16
I0
sg40
I0
sg34
I0
sg25
I0
sg38
I0
sg35
I0
sg47
I0
sg19
I0
sg36
I0
sg15
I0
sg14
I0
sg28
I0
sg20
I0
sg29
I0
sg45
I0
sg8
I0
sg26
I7
sg50
I0
sg43
I0
ssg50
(dp221
S'thermos.n.01'
p222
I0
sg153
I0
sg154
I0
sg155
I0
sg156
I0
sg157
I0
sg158
I0
sg49
I0
sg159
I0
sg160
I0
sg189
I0
sg161
I0
sg162
I0
sg163
I0
sg142
I0
sS'pot.n.01'
p223
I0
sg164
I0
sg165
I0
sg166
I0
sg144
I0
sS'gravy.n.01'
p224
I0
sg167
I0
sS'gravy.n.02'
p225
I0
sS'wok.n.01'
p226
I0
sS'coffee.n.01'
p227
I0
sS'rice.n.01'
p228
I0
sg168
I0
sg169
I0
sg170
I0
sg147
I0
sS'teapot.n.01'
p229
I0
sg171
I0
sg172
I0
sg173
I0
sg174
I0
sS'kettle.n.01'
p230
I0
sg175
I0
sg176
I0
sg177
I0
sg178
I0
sg50
I0
sg179
I0
ssg43
(dp231
g131
I0
sg51
I0
sg105
I0
sg41
I0
sg44
I0
sg37
I0
sg106
I0
sg107
I0
sg49
I0
sg108
I0
sg109
I0
sg39
I0
sg110
I0
sg46
I0
sg132
I0
sg111
I0
sg112
I0
sg113
I0
sg42
I0
sg48
I0
sg114
I0
sg115
I0
sg116
I0
sg133
I0
sg134
I0
sg135
I0
sg120
I0
sg38
I0
sg121
I0
sg47
I0
sg122
I0
sg36
I0
sg40
I0
sg123
I0
sg124
I0
sg125
I0
sg126
I0
sg127
I0
sg45
I0
sg128
I0
sg129
I0
sg50
I0
sg43
I7
sssb.