ccopy_reg
_reconstructor
p0
(cutils.eval
ConfusionMatrix
p1
c__builtin__
object
p2
Ntp3
Rp4
(dp5
S'labels'
p6
(lp7
S'saltcellar.n.01'
p8
aS'fill.v.01'
p9
aS'salt.n.02'
p10
aS'foam.n.01'
p11
aS'mug.n.04'
p12
aS'blender.n.01'
p13
aS'apple.n.01'
p14
aS'opening.n.01'
p15
aS'gap.n.03'
p16
aS'fill.v.09'
p17
aS'batter.n.02'
p18
aS'measuring_cup.n.01'
p19
aS'meal.n.03'
p20
aS'opening.n.10'
p21
aS'curd.n.01'
p22
aS'bottle.n.01'
p23
aS'fruit_juice.n.01'
p24
aS'glass.n.02'
p25
aS'milk.n.01'
p26
aS'jar.n.01'
p27
aS'gravy.n.01'
p28
aS'gravy.n.02'
p29
aS'pot.n.01'
p30
aS'water.n.06'
p31
aS'thermos.n.01'
p32
aS'coffee.n.01'
p33
aS'wok.n.01'
p34
aS'rice.n.01'
p35
aS'teapot.n.01'
p36
aS'kettle.n.01'
p37
asS'instanceCount'
p38
I42
sS'matrix'
p39
(dp40
g32
(dp41
S'thermos.n.01'
p42
I1
ssg18
(dp43
S'batter.n.02'
p44
I1
ssg14
(dp45
S'apple.n.01'
p46
I1
ssg21
(dp47
g21
I0
ssg11
(dp48
S'foam.n.01'
p49
I1
ssg26
(dp50
S'milk.n.01'
p51
I1
ssg16
(dp52
g16
I0
ssg8
(dp53
S'saltcellar.n.01'
p54
I1
ssg23
(dp55
S'bottle.n.01'
p56
I1
ssg30
(dp57
S'pot.n.01'
p58
I1
ssg9
(dp59
S'fill.v.01'
p60
I12
ssg19
(dp61
S'measuring_cup.n.01'
p62
I1
ssg25
(dp63
S'glass.n.02'
p64
I1
ssg28
(dp65
g29
I1
ssg10
(dp66
S'salt.n.02'
p67
I1
ssg29
(dp68
g29
I0
ssg34
(dp69
S'wok.n.01'
p70
I1
ssg33
(dp71
S'coffee.n.01'
p72
I1
ssg35
(dp73
S'rice.n.01'
p74
I1
ssg15
(dp75
g21
I1
sg16
I1
ssg12
(dp76
S'mug.n.04'
p77
I1
ssg24
(dp78
S'fruit_juice.n.01'
p79
I1
ssg36
(dp80
S'teapot.n.01'
p81
I1
ssg13
(dp82
S'blender.n.01'
p83
I1
ssg17
(dp84
S'fill.v.01'
p85
I2
ssg31
(dp86
S'water.n.06'
p87
I3
ssg37
(dp88
S'kettle.n.01'
p89
I1
ssg22
(dp90
S'curd.n.01'
p91
I1
ssg27
(dp92
S'jar.n.01'
p93
I1
ssg20
(dp94
S'meal.n.03'
p95
I1
sssb.