ccopy_reg
_reconstructor
p0
(cutils.eval
ConfusionMatrix
p1
c__builtin__
object
p2
Ntp3
Rp4
(dp5
S'labels'
p6
(lp7
S'put.v.01'
p8
aS'onion.n.01'
p9
aS'onion.n.03'
p10
aS'beef.n.02'
p11
aS'gripe.n.01'
p12
aS'plate.n.04'
p13
aS'plate.n.13'
p14
aS'dish.n.02'
p15
aS'oven.n.01'
p16
aS'rib.n.03'
p17
aS'rib.n.01'
p18
aS'salt.n.02'
p19
aS'cake.n.03'
p20
aS'whipped_cream.n.01'
p21
aS'pepper.n.03'
p22
aS'pepper.n.04'
p23
aS'egg.n.02'
p24
aS'egg.n.01'
p25
aS'soup.n.01'
p26
aS'microwave.n.02'
p27
aS'pan.n.03'
p28
aS'pizza.n.01'
p29
aS'bowl.n.01'
p30
aS'bowl.n.08'
p31
aS'cherry.n.03'
p32
aS'jam.n.01'
p33
aS'refrigerator.n.01'
p34
aS'salmon.n.03'
p35
aS'rice.n.01'
p36
aS'spoon.n.01'
p37
aS'batter.n.02'
p38
aS'dressing.n.01'
p39
aS'dressing.n.04'
p40
aS'salad.n.01'
p41
aS'steak.n.01'
p42
aS'coca_cola.n.01'
p43
aS'coke.n.01'
p44
aS'electric_refrigerator.n.01'
p45
aS'mug.n.04'
p46
aS'microwave.n.01'
p47
asS'instanceCount'
p48
I50
sS'matrix'
p49
(dp50
g14
(dp51
g14
I0
ssg44
(dp52
g44
I0
ssg36
(dp53
S'rice.n.01'
p54
I1
ssg11
(dp55
g12
I1
ssg26
(dp56
S'soup.n.01'
p57
I1
ssg34
(dp58
S'refrigerator.n.01'
p59
I1
ssg30
(dp60
g31
I2
ssg15
(dp61
S'dish.n.02'
p62
I1
ssg39
(dp63
g40
I1
ssg31
(dp64
g31
I0
ssg35
(dp65
S'salmon.n.03'
p66
I1
ssg28
(dp67
S'pan.n.03'
p68
I1
ssg43
(dp69
g44
I1
ssg47
(dp70
g47
I0
ssg27
(dp71
g47
I1
sS'microwave.n.02'
p72
I1
ssg24
(dp73
g25
I1
ssg25
(dp74
g25
I0
ssg45
(dp75
S'electric_refrigerator.n.01'
p76
I1
ssg37
(dp77
S'spoon.n.01'
p78
I1
ssg17
(dp79
g18
I1
ssg19
(dp80
S'salt.n.02'
p81
I2
ssg13
(dp82
g14
I2
ssg23
(dp83
g23
I0
ssg18
(dp84
g18
I0
ssg12
(dp85
g12
I0
ssg21
(dp86
S'whipped_cream.n.01'
p87
I1
ssg16
(dp88
S'oven.n.01'
p89
I2
ssg22
(dp90
g23
I1
ssg46
(dp91
S'mug.n.04'
p92
I1
ssg41
(dp93
S'salad.n.01'
p94
I1
ssg40
(dp95
g40
I0
ssg33
(dp96
S'jam.n.01'
p97
I1
ssg8
(dp98
S'put.v.01'
p99
I16
ssg29
(dp100
S'pizza.n.01'
p101
I1
ssg42
(dp102
S'steak.n.01'
p103
I1
ssg20
(dp104
S'cake.n.03'
p105
I1
ssg32
(dp106
S'cherry.n.03'
p107
I1
ssg9
(dp108
g10
I1
ssg10
(dp109
g10
I0
ssg38
(dp110
S'batter.n.02'
p111
I1
sssb.