ccopy_reg
_reconstructor
p0
(cutils.eval
ConfusionMatrix
p1
c__builtin__
object
p2
Ntp3
Rp4
(dp5
S'labels'
p6
(lp7
S'put.v.01'
p8
aS'pan.n.03'
p9
aS'pizza.n.01'
p10
aS'bowl.n.01'
p11
aS'stadium.n.01'
p12
aS'cherry.n.03'
p13
aS'jam.n.01'
p14
aS'refrigerator.n.01'
p15
aS'salmon.n.03'
p16
aS'plate.n.04'
p17
aS'plate.n.11'
p18
aS'rice.n.01'
p19
aS'spoon.n.01'
p20
aS'batter.n.02'
p21
aS'dressing.n.01'
p22
aS'dressing.n.04'
p23
aS'salad.n.01'
p24
aS'steak.n.01'
p25
aS'oven.n.01'
p26
aS'coca_cola.n.01'
p27
aS'coke.n.01'
p28
aS'electric_refrigerator.n.01'
p29
aS'mug.n.04'
p30
aS'countenance.n.03'
p31
aS'microwave.n.02'
p32
aS'french_fries.n.01'
p33
aS'blender.n.01'
p34
aS'banana.n.02'
p35
aS'chicken.n.01'
p36
aS'spread.n.05'
p37
aS'bread.n.01'
p38
aS'onion.n.01'
p39
aS'beef.n.02'
p40
aS'plate.n.08'
p41
aS'dish.n.02'
p42
asS'instanceCount'
p43
I48
sS'matrix'
p44
(dp45
g28
(dp46
g28
I0
ssg18
(dp47
g18
I0
ssg14
(dp48
S'jam.n.01'
p49
I1
ssg36
(dp50
S'chicken.n.01'
p51
I1
ssg40
(dp52
S'beef.n.02'
p53
I1
ssg15
(dp54
S'refrigerator.n.01'
p55
I1
ssg38
(dp56
S'bread.n.01'
p57
I1
ssg11
(dp58
g12
I2
ssg21
(dp59
S'batter.n.02'
p60
I1
ssg22
(dp61
g23
I1
ssg27
(dp62
g28
I1
ssg16
(dp63
S'salmon.n.03'
p64
I1
ssg9
(dp65
S'pan.n.03'
p66
I2
ssg35
(dp67
S'banana.n.02'
p68
I1
ssg32
(dp69
S'microwave.n.02'
p70
I1
ssg29
(dp71
S'electric_refrigerator.n.01'
p72
I1
ssg20
(dp73
S'spoon.n.01'
p74
I1
ssg41
(dp75
g41
I0
ssg31
(dp76
g31
I0
ssg17
(dp77
g18
I1
sg41
I1
ssg37
(dp78
S'spread.n.05'
p79
I1
ssg25
(dp80
S'steak.n.01'
p81
I1
ssg26
(dp82
S'oven.n.01'
p83
I2
ssg12
(dp84
g12
I0
ssg30
(dp85
g31
I1
ssg34
(dp86
S'blender.n.01'
p87
I1
ssg39
(dp88
S'onion.n.01'
p89
I1
ssg23
(dp90
g23
I0
ssg19
(dp91
S'rice.n.01'
p92
I1
ssg8
(dp93
S'put.v.01'
p94
I16
ssg10
(dp95
S'pizza.n.01'
p96
I1
ssg33
(dp97
S'french_fries.n.01'
p98
I1
ssg13
(dp99
S'cherry.n.03'
p100
I1
ssg24
(dp101
S'salad.n.01'
p102
I1
ssg42
(dp103
S'dish.n.02'
p104
I1
sssb.