ccopy_reg
_reconstructor
p0
(cutils.eval
ConfusionMatrix
p1
c__builtin__
object
p2
Ntp3
Rp4
(dp5
S'labels'
p6
(lp7
S'put.v.01'
p8
aS'pepper.n.03'
p9
aS'pepper.n.04'
p10
aS'salt.n.02'
p11
aS'egg.n.02'
p12
aS'egg.n.01'
p13
aS'soup.n.01'
p14
aS'microwave.n.02'
p15
aS'pan.n.03'
p16
aS'pizza.n.01'
p17
aS'bowl.n.01'
p18
aS'bowl.n.03'
p19
aS'cherry.n.03'
p20
aS'jam.n.01'
p21
aS'refrigerator.n.01'
p22
aS'salmon.n.03'
p23
aS'plate.n.04'
p24
aS'rice.n.01'
p25
aS'spoon.n.01'
p26
aS'batter.n.02'
p27
aS'dressing.n.01'
p28
aS'dressing.n.04'
p29
aS'salad.n.01'
p30
aS'steak.n.01'
p31
aS'oven.n.01'
p32
aS'coca_cola.n.01'
p33
aS'coke.n.01'
p34
aS'electric_refrigerator.n.01'
p35
aS'mug.n.04'
p36
aS'countenance.n.03'
p37
aS'french_fries.n.01'
p38
aS'blender.n.01'
p39
aS'banana.n.02'
p40
aS'chicken.n.01'
p41
aS'spread.n.05'
p42
aS'bread.n.01'
p43
asS'instanceCount'
p44
I48
sS'matrix'
p45
(dp46
g34
(dp47
g34
I0
ssg21
(dp48
S'jam.n.01'
p49
I1
ssg41
(dp50
S'chicken.n.01'
p51
I1
ssg14
(dp52
S'soup.n.01'
p53
I1
ssg22
(dp54
S'refrigerator.n.01'
p55
I1
ssg43
(dp56
S'bread.n.01'
p57
I1
ssg19
(dp58
g19
I0
ssg18
(dp59
g19
I2
ssg27
(dp60
S'batter.n.02'
p61
I1
ssg28
(dp62
g29
I1
ssg23
(dp63
S'salmon.n.03'
p64
I1
ssg16
(dp65
S'pan.n.03'
p66
I2
ssg33
(dp67
g34
I1
ssg40
(dp68
S'banana.n.02'
p69
I1
ssg15
(dp70
S'microwave.n.02'
p71
I2
ssg12
(dp72
g13
I1
ssg13
(dp73
g13
I0
ssg35
(dp74
S'electric_refrigerator.n.01'
p75
I1
ssg26
(dp76
S'spoon.n.01'
p77
I1
ssg11
(dp78
S'salt.n.02'
p79
I1
ssg37
(dp80
g37
I0
ssg24
(dp81
S'plate.n.04'
p82
I1
ssg10
(dp83
g10
I0
ssg9
(dp84
g10
I1
ssg42
(dp85
S'spread.n.05'
p86
I1
ssg31
(dp87
S'steak.n.01'
p88
I1
ssg32
(dp89
S'oven.n.01'
p90
I1
ssg36
(dp91
g37
I1
ssg39
(dp92
S'blender.n.01'
p93
I1
ssg29
(dp94
g29
I0
ssg25
(dp95
S'rice.n.01'
p96
I1
ssg8
(dp97
S'put.v.01'
p98
I16
ssg17
(dp99
S'pizza.n.01'
p100
I1
ssg38
(dp101
S'french_fries.n.01'
p102
I1
ssg20
(dp103
S'cherry.n.03'
p104
I1
ssg30
(dp105
S'salad.n.01'
p106
I1
sssb.