ccopy_reg
_reconstructor
p0
(cutils.eval
ConfusionMatrix
p1
c__builtin__
object
p2
Ntp3
Rp4
(dp5
S'labels'
p6
(lp7
S'coca_cola.n.01'
p8
aS'put.v.01'
p9
aS'electric_refrigerator.n.01'
p10
aS'mug.n.04'
p11
aS'countenance.n.03'
p12
aS'microwave.n.02'
p13
aS'french_fries.n.01'
p14
aS'blender.n.01'
p15
aS'banana.n.02'
p16
aS'pan.n.03'
p17
aS'chicken.n.01'
p18
aS'spread.n.05'
p19
aS'paste.n.03'
p20
aS'bread.n.01'
p21
aS'onion.n.01'
p22
aS'onion.n.03'
p23
aS'beef.n.02'
p24
aS'gripe.n.01'
p25
aS'plate.n.04'
p26
aS'plate.n.13'
p27
aS'dish.n.02'
p28
aS'oven.n.01'
p29
aS'rib.n.03'
p30
aS'rib.n.01'
p31
aS'salt.n.02'
p32
aS'cake.n.03'
p33
aS'patty.n.01'
p34
aS'whipped_cream.n.01'
p35
aS'pepper.n.03'
p36
aS'capsicum.n.01'
p37
aS'salt.n.04'
p38
aS'egg.n.02'
p39
aS'soup.n.01'
p40
aS'pizza.n.01'
p41
aS'bowl.n.01'
p42
aS'cherry.n.03'
p43
aS'cherry.n.01'
p44
aS'jam.n.01'
p45
aS'refrigerator.n.01'
p46
aS'salmon.n.03'
p47
aS'pepper.n.04'
p48
aS'egg.n.01'
p49
aS'bowl.n.08'
p50
aS'rice.n.01'
p51
aS'spoon.n.01'
p52
aS'batter.n.02'
p53
aS'dressing.n.01'
p54
aS'dressing.n.04'
p55
aS'salad.n.01'
p56
aS'steak.n.01'
p57
aS'bowl.n.03'
p58
aS'coke.n.01'
p59
aS'microwave.n.01'
p60
aS'stadium.n.01'
p61
aS'plate.n.11'
p62
aS'plate.n.08'
p63
aS'boodle.n.01'
p64
aS'onion.n.02'
p65
asS'instanceCount'
p66
I488
sS'matrix'
p67
(dp68
g27
(dp69
g27
I0
sS'coke.n.01'
p70
I0
sg51
I0
sg18
I0
sg24
I0
sg40
I0
sg46
I0
sg21
I0
sS'bowl.n.03'
p71
I0
sg42
I0
sg28
I0
sg54
I0
sg8
I0
sg47
I0
sg52
I0
sg17
I0
sg50
I0
sg60
I0
sg12
I0
sg13
I0
sg39
I0
sg49
I0
sg10
I0
sg36
I0
sg30
I0
sg32
I0
sg16
I0
sg38
I0
sg26
I0
sg48
I0
sg31
I0
sg25
I0
sg19
I0
sg35
I0
sg29
I0
sg34
I0
sg37
I0
sg64
I0
sg20
I0
sg11
I0
sg15
I0
sg56
I0
sg55
I0
sg45
I0
sg9
I0
sg41
I0
sg57
I0
sg33
I0
sg14
I0
sg44
I0
sg43
I0
sg22
I0
sg23
I0
sg53
I0
ssg59
(dp72
g59
I0
sS'plate.n.13'
p73
I0
sg62
I0
sS'jam.n.01'
p74
I0
sS'chicken.n.01'
p75
I0
sS'beef.n.02'
p76
I0
sS'soup.n.01'
p77
I0
sS'refrigerator.n.01'
p78
I0
sS'bread.n.01'
p79
I0
sg58
I0
sS'bowl.n.01'
p80
I0
sS'batter.n.02'
p81
I0
sS'dressing.n.01'
p82
I0
sS'salmon.n.03'
p83
I0
sS'pan.n.03'
p84
I0
sS'coca_cola.n.01'
p85
I0
sg60
I0
sS'banana.n.02'
p86
I0
sS'microwave.n.02'
p87
I0
sS'egg.n.02'
p88
I0
sS'egg.n.01'
p89
I0
sS'electric_refrigerator.n.01'
p90
I0
sS'spoon.n.01'
p91
I0
sS'rib.n.03'
p92
I0
sS'salt.n.02'
p93
I0
sg63
I0
sS'countenance.n.03'
p94
I0
sS'salt.n.04'
p95
I0
sS'plate.n.04'
p96
I0
sS'pepper.n.04'
p97
I0
sS'rib.n.01'
p98
I0
sS'pepper.n.03'
p99
I0
sS'spread.n.05'
p100
I0
sS'steak.n.01'
p101
I0
sS'oven.n.01'
p102
I0
sS'gripe.n.01'
p103
I0
sS'capsicum.n.01'
p104
I0
sS'paste.n.03'
p105
I0
sg61
I0
sS'mug.n.04'
p106
I0
sS'blender.n.01'
p107
I0
sS'onion.n.01'
p108
I0
sS'dressing.n.04'
p109
I0
sS'rice.n.01'
p110
I0
sS'put.v.01'
p111
I0
sS'pizza.n.01'
p112
I0
sS'whipped_cream.n.01'
p113
I0
sS'cake.n.03'
p114
I0
sS'bowl.n.08'
p115
I0
sS'french_fries.n.01'
p116
I0
sS'patty.n.01'
p117
I0
sS'cherry.n.03'
p118
I0
sS'salad.n.01'
p119
I0
sS'onion.n.03'
p120
I0
sS'dish.n.02'
p121
I0
ssg62
(dp122
S'coke.n.01'
p123
I0
sg62
I0
sS'jam.n.01'
p124
I0
sS'chicken.n.01'
p125
I0
sS'beef.n.02'
p126
I0
sS'soup.n.01'
p127
I0
sS'refrigerator.n.01'
p128
I0
sS'bread.n.01'
p129
I0
sS'bowl.n.01'
p130
I0
sS'batter.n.02'
p131
I0
sS'dressing.n.01'
p132
I0
sS'coca_cola.n.01'
p133
I0
sS'salmon.n.03'
p134
I0
sS'pan.n.03'
p135
I0
sS'bowl.n.08'
p136
I0
sS'banana.n.02'
p137
I0
sS'microwave.n.02'
p138
I0
sS'egg.n.02'
p139
I0
sS'electric_refrigerator.n.01'
p140
I0
sS'spoon.n.01'
p141
I0
sS'rib.n.03'
p142
I0
sg65
I0
sS'salt.n.02'
p143
I0
sg63
I0
sS'countenance.n.03'
p144
I0
sS'salt.n.04'
p145
I0
sS'plate.n.04'
p146
I0
sS'rib.n.01'
p147
I0
sS'pepper.n.03'
p148
I0
sS'spread.n.05'
p149
I0
sS'steak.n.01'
p150
I0
sS'oven.n.01'
p151
I0
sS'patty.n.01'
p152
I0
sS'capsicum.n.01'
p153
I0
sg61
I0
sS'mug.n.04'
p154
I0
sS'blender.n.01'
p155
I0
sS'onion.n.01'
p156
I0
sS'dressing.n.04'
p157
I0
sS'rice.n.01'
p158
I0
sS'put.v.01'
p159
I0
sS'pizza.n.01'
p160
I0
sS'whipped_cream.n.01'
p161
I0
sS'cake.n.03'
p162
I0
sS'french_fries.n.01'
p163
I0
sS'cherry.n.03'
p164
I0
sS'salad.n.01'
p165
I0
sS'dish.n.02'
p166
I0
ssg51
(dp167
S'plate.n.13'
p168
I0
sg59
I0
sg62
I0
sS'jam.n.01'
p169
I0
sS'chicken.n.01'
p170
I0
sS'beef.n.02'
p171
I0
sS'soup.n.01'
p172
I0
sS'refrigerator.n.01'
p173
I0
sS'bread.n.01'
p174
I0
sg58
I0
sS'bowl.n.01'
p175
I0
sS'dish.n.02'
p176
I0
sg54
I0
sg50
I0
sS'salmon.n.03'
p177
I0
sS'pan.n.03'
p178
I0
sg85
I0
sg60
I0
sg86
I0
sS'microwave.n.02'
p179
I0
sS'egg.n.02'
p180
I0
sg49
I0
sg90
I0
sg52
I0
sS'rib.n.03'
p181
I0
sg65
I0
sS'salt.n.02'
p182
I0
sg63
I0
sg94
I0
sg145
I0
sS'plate.n.04'
p183
I0
sg48
I0
sS'rib.n.01'
p184
I0
sS'pepper.n.03'
p185
I0
sS'spread.n.05'
p186
I0
sS'whipped_cream.n.01'
p187
I0
sS'oven.n.01'
p188
I0
sS'gripe.n.01'
p189
I0
sg153
I0
sg64
I0
sg105
I0
sg61
I0
sg106
I0
sg107
I0
sg56
I0
sg55
I0
sg51
I8
sS'put.v.01'
p190
I0
sS'pizza.n.01'
p191
I0
sg57
I0
sS'cake.n.03'
p192
I0
sg116
I0
sS'patty.n.01'
p193
I0
sS'cherry.n.03'
p194
I0
sS'onion.n.01'
p195
I0
sS'onion.n.03'
p196
I0
sg53
I0
ssg18
(dp197
g27
I0
sg59
I0
sg62
I0
sg51
I0
sg18
I8
sg24
I0
sg40
I0
sg46
I0
sg21
I0
sg58
I0
sg42
I0
sg28
I0
sg54
I0
sg8
I0
sg47
I0
sg52
I0
sg17
I0
sg50
I0
sS'microwave.n.01'
p198
I0
sg12
I0
sg13
I0
sg39
I0
sg49
I0
sg10
I0
sg36
I0
sg30
I0
sg65
I0
sg32
I0
sg63
I0
sg16
I0
sg38
I0
sg26
I0
sg48
I0
sg31
I0
sg25
I0
sg19
I0
sg35
I0
sg29
I0
sg34
I0
sg37
I0
sg64
I0
sg20
I0
sg61
I0
sg11
I0
sg15
I0
sg56
I0
sg55
I0
sg45
I0
sg9
I0
sg41
I0
sg57
I0
sg33
I0
sg14
I0
sg44
I0
sg43
I0
sg22
I0
sg23
I0
sg53
I0
ssg24
(dp199
g27
I0
sg70
I0
sg62
I0
sg51
I0
sg18
I0
sg24
I2
sg40
I0
sg46
I0
sg21
I0
sg71
I0
sg42
I0
sg28
I0
sg54
I0
sg8
I0
sg47
I0
sg52
I0
sg17
I0
sg50
I0
sg60
I0
sg12
I0
sg13
I0
sg39
I0
sg49
I0
sg10
I0
sg36
I0
sg30
I0
sg65
I0
sg32
I0
sg63
I0
sg16
I0
sg38
I0
sg26
I0
sg48
I0
sg31
I0
sg25
I6
sg19
I0
sg35
I0
sg29
I0
sg34
I0
sg37
I0
sg64
I0
sg20
I0
sg61
I0
sg11
I0
sg15
I0
sg56
I0
sg55
I0
sg45
I0
sg9
I0
sg41
I0
sg57
I0
sg33
I0
sg14
I0
sg44
I0
sg43
I0
sg22
I0
sg23
I0
sg53
I0
ssg40
(dp200
g27
I0
sg59
I0
sS'plate.n.11'
p201
I0
sg51
I0
sg18
I0
sg24
I0
sg40
I8
sg46
I0
sg21
I0
sg58
I0
sg42
I0
sg28
I0
sg54
I0
sg8
I0
sg47
I0
sg52
I0
sg17
I0
sg50
I0
sg60
I0
sg12
I0
sg13
I0
sg39
I0
sg49
I0
sg10
I0
sg36
I0
sg30
I0
sg65
I0
sg32
I0
sg16
I0
sg38
I0
sg26
I0
sg48
I0
sg31
I0
sg25
I0
sg19
I0
sg35
I0
sg29
I0
sg34
I0
sg37
I0
sg20
I0
sg11
I0
sg15
I0
sg56
I0
sg55
I0
sg45
I0
sg9
I0
sg41
I0
sg57
I0
sg33
I0
sg14
I0
sg44
I0
sg43
I0
sg22
I0
sg23
I0
sg53
I0
ssg46
(dp202
g27
I0
sg59
I0
sg62
I0
sg51
I0
sg18
I0
sg24
I0
sg40
I0
sg46
I8
sg21
I0
sg58
I0
sg42
I0
sg28
I0
sg54
I0
sg8
I0
sg47
I0
sg52
I0
sg17
I0
sg50
I0
sg60
I0
sg12
I0
sg13
I0
sg39
I0
sg49
I0
sg10
I0
sg36
I0
sg30
I0
sg65
I0
sg32
I0
sg63
I0
sg16
I0
sg38
I0
sg26
I0
sg48
I0
sg31
I0
sg25
I0
sg19
I0
sg35
I0
sg29
I0
sg34
I0
sg37
I0
sg64
I0
sg20
I0
sg61
I0
sg11
I0
sg15
I0
sg56
I0
sg55
I0
sg45
I0
sg9
I0
sg41
I0
sg57
I0
sg33
I0
sg14
I0
sg44
I0
sg43
I0
sg22
I0
sg23
I0
sg53
I0
ssg21
(dp203
g27
I0
sg59
I0
sg62
I0
sg51
I0
sg18
I0
sg24
I0
sg40
I0
sg46
I0
sg21
I7
sg58
I0
sg42
I0
sg28
I0
sg54
I0
sg8
I0
sg47
I0
sg52
I0
sg17
I0
sg50
I0
sg198
I0
sg12
I0
sg13
I0
sg39
I0
sg49
I0
sg10
I0
sg36
I0
sg30
I0
sg65
I0
sg32
I0
sg63
I0
sg16
I0
sg38
I0
sg26
I0
sg48
I0
sg31
I0
sg25
I0
sg19
I0
sg35
I0
sg29
I0
sg34
I0
sg37
I0
sg64
I1
sg20
I0
sg61
I0
sg11
I0
sg15
I0
sg56
I0
sg55
I0
sg45
I0
sg9
I0
sg41
I0
sg57
I0
sg33
I0
sg14
I0
sg44
I0
sg43
I0
sg22
I0
sg23
I0
sg53
I0
ssg58
(dp204
g59
I0
sS'plate.n.13'
p205
I0
sg74
I0
sg75
I0
sS'beef.n.02'
p206
I0
sg77
I0
sg78
I0
sg79
I0
sg58
I0
sg80
I0
sg81
I0
sg82
I0
sg83
I0
sg84
I0
sg85
I0
sS'microwave.n.01'
p207
I0
sg86
I0
sg87
I0
sg88
I0
sg89
I0
sg90
I0
sg91
I0
sS'rib.n.03'
p208
I0
sg93
I0
sg94
I0
sg95
I0
sg96
I0
sg97
I0
sS'rib.n.01'
p209
I0
sg99
I0
sg100
I0
sg101
I0
sg102
I0
sS'gripe.n.01'
p210
I0
sg104
I0
sg105
I0
sg106
I0
sg107
I0
sS'onion.n.01'
p211
I0
sg109
I0
sg110
I0
sg111
I0
sg112
I0
sS'whipped_cream.n.01'
p212
I0
sS'cake.n.03'
p213
I0
sg116
I0
sg117
I0
sg118
I0
sg119
I0
sS'onion.n.03'
p214
I0
sS'dish.n.02'
p215
I0
ssg42
(dp216
g27
I0
sg59
I0
sg62
I0
sg51
I0
sg18
I0
sg24
I0
sg40
I0
sg46
I0
sg21
I0
sg58
I5
sg42
I3
sg28
I0
sg54
I0
sg8
I0
sg47
I0
sg52
I0
sg17
I0
sg50
I6
sg60
I0
sg12
I0
sg13
I0
sg39
I0
sg49
I0
sg10
I0
sg36
I0
sg30
I0
sg65
I0
sg32
I0
sg63
I0
sg16
I0
sg38
I0
sg26
I0
sg48
I0
sg31
I0
sg25
I0
sg19
I0
sg35
I0
sg29
I0
sg34
I0
sg37
I0
sg64
I0
sg20
I0
sg61
I2
sg11
I0
sg15
I0
sg56
I0
sg55
I0
sg45
I0
sg9
I0
sg41
I0
sg57
I0
sg33
I0
sg14
I0
sg44
I0
sg43
I0
sg22
I0
sg23
I0
sg53
I0
ssg28
(dp217
g27
I0
sg70
I0
sg62
I0
sg51
I0
sg18
I0
sg24
I0
sg40
I0
sg46
I0
sg21
I0
sg71
I0
sg42
I0
sg28
I8
sg54
I0
sg8
I0
sg47
I0
sg52
I0
sg17
I0
sg50
I0
sg60
I0
sg12
I0
sg13
I0
sg39
I0
sg49
I0
sg10
I0
sg36
I0
sg30
I0
sg65
I0
sg32
I0
sg63
I0
sg16
I0
sg38
I0
sg26
I0
sg48
I0
sg31
I0
sg25
I0
sg19
I0
sg35
I0
sg29
I0
sg34
I0
sg37
I0
sg64
I0
sg20
I0
sg61
I0
sg11
I0
sg15
I0
sg56
I0
sg55
I0
sg45
I0
sg9
I0
sg41
I0
sg57
I0
sg33
I0
sg14
I0
sg44
I0
sg43
I0
sg22
I0
sg23
I0
sg53
I0
ssg54
(dp218
g168
I0
sg59
I0
sg62
I0
sg51
I0
sg170
I0
sg171
I0
sg172
I0
sg173
I0
sg174
I0
sg58
I0
sg175
I0
sg176
I0
sg191
I0
sg177
I0
sg178
I0
sg50
I0
sg60
I0
sg86
I0
sg179
I0
sg180
I0
sg49
I0
sg90
I0
sg52
I0
sg181
I0
sg182
I0
sg85
I0
sg63
I0
sg94
I0
sg95
I0
sg183
I0
sg48
I0
sg184
I0
sg185
I0
sg186
I0
sg187
I0
sg188
I0
sg189
I0
sg104
I0
sg64
I0
sS'paste.n.03'
p219
I0
sg61
I0
sg106
I0
sg107
I0
sg56
I0
sg55
I8
sg169
I0
sg190
I0
sg54
I0
sg57
I0
sg192
I0
sg116
I0
sg193
I0
sS'cherry.n.01'
p220
I0
sg194
I0
sg195
I0
sg196
I0
sg53
I0
ssg8
(dp221
g27
I0
sg59
I5
sg62
I0
sg110
I0
sg18
I0
sg24
I0
sg40
I0
sg46
I0
sg21
I0
sg58
I0
sg42
I0
sg28
I0
sg82
I0
sg8
I3
sg47
I0
sg91
I0
sg17
I0
sg115
I0
sg60
I0
sg12
I0
sg13
I0
sg39
I0
sg89
I0
sg10
I0
sg36
I0
sg30
I0
sg32
I0
sg63
I0
sg16
I0
sg38
I0
sg26
I0
sg97
I0
sg31
I0
sg25
I0
sg19
I0
sg35
I0
sg29
I0
sg34
I0
sg37
I0
sg64
I0
sg20
I0
sg61
I0
sg11
I0
sg15
I0
sg119
I0
sg109
I0
sg45
I0
sg9
I0
sg41
I0
sg101
I0
sg33
I0
sg14
I0
sg44
I0
sg43
I0
sg22
I0
sg23
I0
sg81
I0
ssg47
(dp222
g27
I0
sg59
I0
sg62
I0
sg51
I0
sg18
I0
sg24
I0
sg40
I0
sg46
I0
sg21
I0
sg58
I0
sg42
I0
sg28
I0
sg54
I0
sg8
I0
sg47
I8
sg52
I0
sg17
I0
sg50
I0
sg60
I0
sg12
I0
sg13
I0
sg39
I0
sg49
I0
sg10
I0
sg36
I0
sg30
I0
sg65
I0
sg32
I0
sg63
I0
sg16
I0
sg38
I0
sg26
I0
sg48
I0
sg31
I0
sg25
I0
sg19
I0
sg35
I0
sg29
I0
sg34
I0
sg37
I0
sg64
I0
sg20
I0
sg61
I0
sg11
I0
sg15
I0
sg56
I0
sg55
I0
sg45
I0
sg9
I0
sg41
I0
sg57
I0
sg33
I0
sg14
I0
sg44
I0
sg43
I0
sg22
I0
sg23
I0
sg53
I0
ssg52
(dp223
g168
I0
sg59
I0
sg62
I0
sg51
I0
sg170
I0
sg171
I0
sg172
I0
sg173
I0
sg174
I0
sg58
I0
sg175
I0
sg176
I0
sg54
I0
sg50
I0
sg177
I0
sg178
I0
sg85
I0
sg60
I0
sg86
I0
sg179
I0
sg180
I0
sg49
I0
sg90
I0
sg52
I8
sg181
I0
sg65
I0
sg182
I0
sg63
I0
sg94
I0
sg145
I0
sg183
I0
sg48
I0
sg184
I0
sg185
I0
sg186
I0
sg187
I0
sg188
I0
sg189
I0
sg153
I0
sg64
I0
sg105
I0
sg61
I0
sg106
I0
sg107
I0
sg56
I0
sg55
I0
sg169
I0
sg190
I0
sg191
I0
sg57
I0
sg192
I0
sg116
I0
sg193
I0
sg194
I0
sg195
I0
sg196
I0
sg53
I0
ssg17
(dp224
g27
I0
sg59
I0
sg62
I0
sg51
I0
sg18
I0
sg24
I0
sg40
I0
sg46
I0
sg21
I0
sg58
I0
sg42
I0
sg28
I0
sg54
I0
sg8
I0
sg47
I0
sg52
I0
sg17
I16
sg50
I0
sg60
I0
sg12
I0
sg13
I0
sg39
I0
sg49
I0
sg10
I0
sg36
I0
sg30
I0
sg65
I0
sg32
I0
sg63
I0
sg16
I0
sg38
I0
sg26
I0
sg48
I0
sg31
I0
sg25
I0
sg19
I0
sg35
I0
sg29
I0
sg34
I0
sg37
I0
sg64
I0
sg20
I0
sg61
I0
sg11
I0
sg15
I0
sg56
I0
sg55
I0
sg45
I0
sg9
I0
sg41
I0
sg57
I0
sg33
I0
sg14
I0
sg44
I0
sg43
I0
sg22
I0
sg23
I0
sg53
I0
ssg50
(dp225
g168
I0
sg70
I0
sg201
I0
sg51
I0
sg170
I0
sg171
I0
sg172
I0
sg173
I0
sg174
I0
sg175
I0
sg176
I0
sg54
I0
sg50
I0
sg177
I0
sg178
I0
sS'coca_cola.n.01'
p226
I0
sg60
I0
sg179
I0
sg180
I0
sg49
I0
sS'electric_refrigerator.n.01'
p227
I0
sg52
I0
sg181
I0
sg65
I0
sg182
I0
sS'banana.n.02'
p228
I0
sg145
I0
sg183
I0
sg48
I0
sg184
I0
sg185
I0
sg186
I0
sg187
I0
sg188
I0
sg189
I0
sg153
I0
sS'mug.n.04'
p229
I0
sS'blender.n.01'
p230
I0
sg56
I0
sg55
I0
sg169
I0
sg190
I0
sg191
I0
sg57
I0
sg192
I0
sS'french_fries.n.01'
p231
I0
sg152
I0
sg194
I0
sg195
I0
sg196
I0
sg53
I0
ssg60
(dp232
g73
I0
sg70
I0
sS'rice.n.01'
p233
I0
sS'chicken.n.01'
p234
I0
sg76
I0
sS'soup.n.01'
p235
I0
sS'refrigerator.n.01'
p236
I0
sS'bread.n.01'
p237
I0
sg71
I0
sS'bowl.n.01'
p238
I0
sg121
I0
sS'dressing.n.01'
p239
I0
sg115
I0
sS'salmon.n.03'
p240
I0
sS'pan.n.03'
p241
I0
sg226
I0
sg60
I0
sS'microwave.n.02'
p242
I0
sS'egg.n.02'
p243
I0
sS'egg.n.01'
p244
I0
sg227
I0
sS'spoon.n.01'
p245
I0
sg92
I0
sS'salt.n.02'
p246
I0
sS'banana.n.02'
p247
I0
sS'salt.n.04'
p248
I0
sS'plate.n.04'
p249
I0
sS'pepper.n.04'
p250
I0
sg98
I0
sg103
I0
sS'spread.n.05'
p251
I0
sg113
I0
sS'oven.n.01'
p252
I0
sS'pepper.n.03'
p253
I0
sS'capsicum.n.01'
p254
I0
sg219
I0
sg229
I0
sS'blender.n.01'
p255
I0
sS'salad.n.01'
p256
I0
sS'dressing.n.04'
p257
I0
sS'jam.n.01'
p258
I0
sS'put.v.01'
p259
I0
sS'pizza.n.01'
p260
I0
sS'steak.n.01'
p261
I0
sg114
I0
sS'french_fries.n.01'
p262
I0
sS'patty.n.01'
p263
I0
sg220
I0
sS'cherry.n.03'
p264
I0
sg108
I0
sg120
I0
sS'batter.n.02'
p265
I0
ssg12
(dp266
g27
I0
sg59
I0
sg62
I0
sg110
I0
sg18
I0
sg24
I0
sg40
I0
sg46
I0
sg21
I0
sg58
I0
sg42
I0
sg28
I0
sg82
I0
sg8
I0
sg47
I0
sg91
I0
sg17
I0
sg12
I0
sg13
I0
sg39
I0
sg89
I0
sg10
I0
sg36
I0
sg30
I0
sg32
I0
sg63
I0
sg16
I0
sg38
I0
sg26
I0
sg97
I0
sg31
I0
sg25
I0
sg19
I0
sg35
I0
sg29
I0
sg34
I0
sg37
I0
sg64
I0
sg20
I0
sg61
I0
sg11
I0
sg15
I0
sg119
I0
sg109
I0
sg45
I0
sg9
I0
sg41
I0
sg101
I0
sg33
I0
sg14
I0
sg44
I0
sg43
I0
sg22
I0
sg23
I0
sg81
I0
ssg13
(dp267
g27
I0
sg59
I0
sg62
I0
sg51
I0
sg18
I0
sg24
I0
sg40
I0
sg46
I0
sg21
I0
sg58
I0
sg42
I0
sg28
I0
sg54
I0
sg8
I0
sg47
I0
sg52
I0
sg17
I0
sg50
I0
sg60
I3
sg12
I0
sg13
I13
sg39
I0
sg49
I0
sg10
I0
sg36
I0
sg30
I0
sg65
I0
sg32
I0
sg63
I0
sg16
I0
sg38
I0
sg26
I0
sg48
I0
sg31
I0
sg25
I0
sg19
I0
sg35
I0
sg29
I0
sg34
I0
sg37
I0
sg64
I0
sg20
I0
sg61
I0
sg11
I0
sg15
I0
sg56
I0
sg55
I0
sg45
I0
sg9
I0
sg41
I0
sg57
I0
sg33
I0
sg14
I0
sg44
I0
sg43
I0
sg22
I0
sg23
I0
sg53
I0
ssg39
(dp268
g27
I0
sg59
I0
sg201
I0
sg51
I0
sg18
I0
sg24
I0
sg40
I0
sg46
I0
sg21
I0
sg58
I0
sg42
I0
sg28
I0
sg54
I0
sg8
I0
sg47
I0
sg52
I0
sg17
I0
sg50
I0
sg60
I0
sg12
I0
sg13
I0
sg39
I5
sg49
I3
sg10
I0
sg36
I0
sg30
I0
sg65
I0
sg32
I0
sg16
I0
sg38
I0
sg26
I0
sg48
I0
sg31
I0
sg25
I0
sg19
I0
sg35
I0
sg29
I0
sg34
I0
sg37
I0
sg20
I0
sg11
I0
sg15
I0
sg56
I0
sg55
I0
sg45
I0
sg9
I0
sg41
I0
sg57
I0
sg33
I0
sg14
I0
sg44
I0
sg43
I0
sg22
I0
sg23
I0
sg53
I0
ssg49
(dp269
g168
I0
sg59
I0
sg51
I0
sg170
I0
sg171
I0
sg172
I0
sg173
I0
sg174
I0
sg58
I0
sg175
I0
sg176
I0
sg54
I0
sg50
I0
sg177
I0
sg178
I0
sg85
I0
sg60
I0
sg86
I0
sg179
I0
sg180
I0
sg49
I0
sg90
I0
sg52
I0
sg181
I0
sg182
I0
sg94
I0
sg183
I0
sg48
I0
sg184
I0
sg185
I0
sg186
I0
sg187
I0
sg188
I0
sg189
I0
sg106
I0
sg107
I0
sg56
I0
sg55
I0
sg169
I0
sg190
I0
sg191
I0
sg57
I0
sg192
I0
sg116
I0
sg194
I0
sg195
I0
sg196
I0
sg53
I0
ssg10
(dp270
g27
I0
sg59
I0
sg62
I0
sg110
I0
sg18
I0
sg24
I0
sg40
I0
sg46
I0
sg21
I0
sg58
I0
sg42
I0
sg28
I0
sg82
I0
sg8
I0
sg47
I0
sg91
I0
sg17
I0
sg115
I0
sg60
I0
sg12
I0
sg13
I0
sg39
I0
sg89
I0
sg10
I8
sg36
I0
sg30
I0
sg32
I0
sg63
I0
sg16
I0
sg38
I0
sg26
I0
sg97
I0
sg31
I0
sg25
I0
sg19
I0
sg35
I0
sg29
I0
sg34
I0
sg37
I0
sg64
I0
sg20
I0
sg61
I0
sg11
I0
sg15
I0
sg119
I0
sg109
I0
sg45
I0
sg9
I0
sg41
I0
sg101
I0
sg33
I0
sg14
I0
sg44
I0
sg43
I0
sg22
I0
sg23
I0
sg81
I0
ssg36
(dp271
g27
I0
sg59
I0
sg201
I0
sg51
I0
sg18
I0
sg24
I0
sg40
I0
sg34
I0
sg21
I0
sg58
I0
sg42
I0
sg28
I0
sg54
I0
sg8
I0
sg47
I0
sg17
I0
sg50
I0
sg60
I0
sg12
I0
sg13
I0
sg39
I0
sg49
I0
sg10
I0
sg52
I0
sg30
I0
sg48
I3
sg65
I0
sg32
I0
sg16
I0
sg38
I0
sg26
I0
sg46
I0
sg31
I0
sg36
I0
sg19
I0
sg35
I0
sg29
I0
sg25
I0
sg37
I5
sg20
I0
sg11
I0
sg15
I0
sg56
I0
sg55
I0
sg45
I0
sg9
I0
sg41
I0
sg57
I0
sg33
I0
sg14
I0
sg44
I0
sg43
I0
sg22
I0
sg23
I0
sg53
I0
ssg30
(dp272
g27
I0
sg70
I0
sg201
I0
sg51
I0
sg18
I0
sg24
I0
sg40
I0
sg46
I0
sg21
I0
sS'bowl.n.03'
p273
I0
sg42
I0
sg28
I0
sg54
I0
sg8
I0
sg47
I0
sg52
I0
sg17
I0
sg50
I0
sg60
I0
sg12
I0
sg13
I0
sg39
I0
sg49
I0
sg10
I0
sg36
I0
sg26
I0
sg65
I0
sg32
I0
sg16
I0
sg38
I0
sg30
I0
sg48
I0
sg31
I8
sg25
I0
sg19
I0
sg35
I0
sg29
I0
sg34
I0
sg37
I0
sg64
I0
sg20
I0
sg11
I0
sg15
I0
sg56
I0
sg55
I0
sg45
I0
sg9
I0
sg41
I0
sg57
I0
sg33
I0
sg14
I0
sg44
I0
sg43
I0
sg22
I0
sg23
I0
sg53
I0
ssg65
(dp274
g201
I0
sS'jam.n.01'
p275
I0
sS'chicken.n.01'
p276
I0
sS'beef.n.02'
p277
I0
sg127
I0
sS'refrigerator.n.01'
p278
I0
sS'bread.n.01'
p279
I0
sS'bowl.n.01'
p280
I0
sS'dish.n.02'
p281
I0
sg136
I0
sS'salmon.n.03'
p282
I0
sS'pan.n.03'
p283
I0
sg153
I0
sg139
I0
sg152
I0
sS'spoon.n.01'
p284
I0
sg142
I0
sg143
I0
sg228
I0
sg145
I0
sS'plate.n.04'
p285
I0
sg147
I0
sg148
I0
sS'spread.n.05'
p286
I0
sg161
I0
sS'oven.n.01'
p287
I0
sS'batter.n.02'
p288
I0
sS'rice.n.01'
p289
I0
sg230
I0
sS'microwave.n.02'
p290
I0
sS'put.v.01'
p291
I0
sS'pizza.n.01'
p292
I0
sg162
I0
sg231
I0
sS'cherry.n.03'
p293
I0
sS'onion.n.01'
p294
I0
sg65
I0
ssg32
(dp295
g27
I0
sg59
I0
sg201
I0
sg51
I0
sg18
I0
sg24
I0
sg40
I0
sg46
I0
sg21
I0
sg58
I0
sg42
I0
sg28
I0
sg54
I0
sg8
I0
sg47
I0
sg52
I0
sg17
I0
sg50
I0
sg60
I0
sg12
I0
sg13
I0
sg39
I0
sg49
I0
sg10
I0
sg36
I0
sg30
I0
sg65
I0
sg32
I11
sg16
I0
sg38
I5
sg26
I0
sg48
I0
sg31
I0
sg25
I0
sg19
I0
sg35
I0
sg29
I0
sg34
I0
sg37
I0
sg64
I0
sg20
I0
sg11
I0
sg15
I0
sg56
I0
sg55
I0
sg45
I0
sg9
I0
sg41
I0
sg57
I0
sg33
I0
sg14
I0
sg44
I0
sg43
I0
sg22
I0
sg23
I0
sg53
I0
ssg63
(dp296
g123
I0
sg62
I0
sg124
I0
sg125
I0
sg126
I0
sg128
I0
sg129
I0
sg130
I0
sg131
I0
sg132
I0
sg134
I0
sg135
I0
sg133
I0
sg137
I0
sg138
I0
sg140
I0
sg141
I0
sg63
I0
sg144
I0
sg146
I0
sg149
I0
sg150
I0
sg151
I0
sg61
I0
sg154
I0
sg155
I0
sg156
I0
sg157
I0
sg158
I0
sg159
I0
sg160
I0
sg163
I0
sg164
I0
sg165
I0
sg166
I0
ssg16
(dp297
g27
I0
sg59
I0
sg62
I0
sg110
I0
sg18
I0
sg24
I0
sg40
I0
sg46
I0
sg21
I0
sg58
I0
sg42
I0
sg28
I0
sg82
I0
sg8
I0
sg47
I0
sg91
I0
sg17
I0
sg136
I0
sg198
I0
sg12
I0
sg13
I0
sg39
I0
sg89
I0
sg10
I0
sg36
I0
sg30
I0
sg65
I0
sg32
I0
sg63
I0
sg16
I8
sg38
I0
sg26
I0
sg97
I0
sg31
I0
sg25
I0
sg19
I0
sg35
I0
sg29
I0
sg34
I0
sg37
I0
sg64
I0
sg20
I0
sg61
I0
sg11
I0
sg15
I0
sg119
I0
sg109
I0
sg45
I0
sg9
I0
sg41
I0
sg101
I0
sg33
I0
sg14
I0
sg44
I0
sg43
I0
sg22
I0
sg23
I0
sg81
I0
ssg38
(dp298
g27
I0
sS'coke.n.01'
p299
I0
sg201
I0
sg289
I0
sg18
I0
sg24
I0
sg40
I0
sg46
I0
sg21
I0
sg273
I0
sg42
I0
sg28
I0
sS'dressing.n.01'
p300
I0
sg8
I0
sg47
I0
sg284
I0
sg17
I0
sg136
I0
sg198
I0
sg12
I0
sg13
I0
sg39
I0
sg10
I0
sg36
I0
sg30
I0
sg32
I0
sg16
I0
sg38
I0
sg26
I0
sg31
I0
sg25
I0
sg19
I0
sg35
I0
sg29
I0
sg34
I0
sg288
I0
sg37
I0
sg20
I0
sg11
I0
sg15
I0
sS'salad.n.01'
p301
I0
sS'dressing.n.04'
p302
I0
sg45
I0
sg9
I0
sg41
I0
sS'steak.n.01'
p303
I0
sg33
I0
sg14
I0
sg44
I0
sg43
I0
sg22
I0
sg23
I0
sg65
I0
ssg26
(dp304
g27
I9
sg59
I0
sg62
I3
sg51
I0
sg18
I0
sg24
I0
sg40
I0
sg46
I0
sg21
I0
sg58
I0
sg42
I0
sg28
I0
sg54
I0
sg8
I0
sg47
I0
sg52
I0
sg17
I0
sg50
I0
sg60
I0
sg12
I0
sg13
I0
sg39
I0
sg49
I0
sg10
I0
sg36
I0
sg30
I0
sg65
I0
sg32
I0
sg63
I1
sg16
I0
sg38
I0
sg26
I3
sg48
I0
sg31
I0
sg25
I0
sg19
I0
sg35
I0
sg29
I0
sg34
I0
sg37
I0
sg64
I0
sg20
I0
sg61
I0
sg11
I0
sg15
I0
sg56
I0
sg55
I0
sg45
I0
sg9
I0
sg41
I0
sg57
I0
sg33
I0
sg14
I0
sg44
I0
sg43
I0
sg22
I0
sg23
I0
sg53
I0
ssg48
(dp305
g168
I0
sg59
I0
sg51
I0
sg170
I0
sg171
I0
sg172
I0
sg173
I0
sg174
I0
sg58
I0
sg175
I0
sg176
I0
sg54
I0
sg50
I0
sg177
I0
sg178
I0
sg85
I0
sg60
I0
sg86
I0
sg179
I0
sg180
I0
sg49
I0
sg90
I0
sg52
I0
sg181
I0
sg182
I0
sg94
I0
sg183
I0
sg48
I0
sg184
I0
sg185
I0
sg186
I0
sg187
I0
sg188
I0
sg189
I0
sg106
I0
sg107
I0
sg56
I0
sg55
I0
sg169
I0
sg190
I0
sg191
I0
sg57
I0
sg192
I0
sg116
I0
sg194
I0
sg195
I0
sg196
I0
sg53
I0
ssg31
(dp306
g27
I0
sg70
I0
sg201
I0
sg51
I0
sg18
I0
sg24
I0
sg40
I0
sg46
I0
sg21
I0
sg273
I0
sg42
I0
sg28
I0
sg54
I0
sg8
I0
sg47
I0
sg52
I0
sg17
I0
sg50
I0
sg60
I0
sg12
I0
sg13
I0
sg39
I0
sg49
I0
sg10
I0
sg36
I0
sg30
I0
sg65
I0
sg32
I0
sg16
I0
sg38
I0
sg26
I0
sg48
I0
sg31
I0
sg25
I0
sg19
I0
sg35
I0
sg29
I0
sg34
I0
sg37
I0
sg64
I0
sg20
I0
sg11
I0
sg15
I0
sg56
I0
sg55
I0
sg45
I0
sg9
I0
sg41
I0
sg57
I0
sg33
I0
sg14
I0
sg44
I0
sg43
I0
sg22
I0
sg23
I0
sg53
I0
ssg25
(dp307
g27
I0
sg70
I0
sg51
I0
sg18
I0
sg24
I0
sg40
I0
sg46
I0
sg21
I0
sg71
I0
sg42
I0
sg28
I0
sg54
I0
sg8
I0
sg47
I0
sg52
I0
sg17
I0
sg50
I0
sg60
I0
sg12
I0
sg13
I0
sg39
I0
sg49
I0
sg10
I0
sg36
I0
sg30
I0
sg32
I0
sg16
I0
sg38
I0
sg26
I0
sg48
I0
sg31
I0
sg25
I0
sg19
I0
sg35
I0
sg29
I0
sg34
I0
sg37
I0
sg64
I0
sg20
I0
sg11
I0
sg15
I0
sg56
I0
sg55
I0
sg45
I0
sg9
I0
sg41
I0
sg57
I0
sg33
I0
sg14
I0
sg44
I0
sg43
I0
sg22
I0
sg23
I0
sg53
I0
ssg19
(dp308
g27
I0
sg59
I0
sg62
I0
sg51
I0
sg18
I0
sg24
I0
sg40
I0
sg46
I0
sg21
I0
sg58
I0
sg42
I0
sg28
I0
sg54
I0
sg8
I0
sg47
I0
sg52
I0
sg17
I0
sg50
I0
sg198
I0
sg12
I0
sg13
I0
sg39
I0
sg49
I0
sg10
I0
sg36
I0
sg30
I0
sg65
I0
sg32
I0
sg63
I0
sg16
I0
sg38
I0
sg26
I0
sg48
I0
sg31
I0
sg25
I0
sg19
I5
sg35
I0
sg29
I0
sg34
I0
sg37
I0
sg64
I0
sg20
I3
sg61
I0
sg11
I0
sg15
I0
sg56
I0
sg55
I0
sg45
I0
sg9
I0
sg41
I0
sg57
I0
sg33
I0
sg14
I0
sg44
I0
sg43
I0
sg22
I0
sg23
I0
sg53
I0
ssg35
(dp309
g27
I0
sg70
I0
sg201
I0
sg51
I0
sg18
I0
sg24
I0
sg40
I0
sg46
I0
sg21
I0
sg273
I0
sg42
I0
sg28
I0
sg54
I0
sg8
I0
sg47
I0
sg52
I0
sg17
I0
sg50
I0
sg60
I0
sg12
I0
sg13
I0
sg39
I0
sg49
I0
sg10
I0
sg36
I0
sg30
I0
sg65
I0
sg32
I0
sg16
I0
sg38
I0
sg26
I0
sg48
I0
sg31
I0
sg25
I0
sg19
I0
sg35
I8
sg29
I0
sg34
I0
sg37
I0
sg64
I0
sg20
I0
sg11
I0
sg15
I0
sg56
I0
sg55
I0
sg45
I0
sg9
I0
sg41
I0
sg57
I0
sg33
I0
sg14
I0
sg44
I0
sg43
I0
sg22
I0
sg23
I0
sg53
I0
ssg29
(dp310
g27
I0
sg59
I0
sg62
I0
sg51
I0
sg18
I0
sg24
I0
sg40
I0
sg46
I0
sg21
I0
sg58
I0
sg42
I0
sg28
I0
sg54
I0
sg8
I0
sg47
I0
sg52
I0
sg17
I0
sg50
I0
sg60
I0
sg12
I0
sg13
I0
sg39
I0
sg49
I0
sg10
I0
sg36
I0
sg30
I0
sg65
I0
sg32
I0
sg63
I0
sg16
I0
sg38
I0
sg26
I0
sg48
I0
sg31
I0
sg25
I0
sg19
I0
sg35
I0
sg29
I16
sg34
I0
sg37
I0
sg64
I0
sg20
I0
sg61
I0
sg11
I0
sg15
I0
sg56
I0
sg55
I0
sg45
I0
sg9
I0
sg41
I0
sg57
I0
sg33
I0
sg14
I0
sg44
I0
sg43
I0
sg22
I0
sg23
I0
sg53
I0
ssg34
(dp311
g27
I0
sS'coke.n.01'
p312
I0
sg201
I0
sS'rice.n.01'
p313
I0
sg18
I0
sg24
I0
sg40
I0
sg46
I0
sg21
I0
sg71
I0
sg42
I0
sg28
I0
sS'dressing.n.01'
p314
I0
sg34
I0
sg47
I0
sg17
I0
sg8
I0
sg198
I0
sg12
I0
sg13
I0
sg39
I0
sg10
I0
sS'spoon.n.01'
p315
I0
sg30
I0
sg65
I0
sg32
I0
sg16
I0
sg38
I0
sg26
I0
sg31
I0
sg25
I0
sg19
I0
sg35
I0
sg29
I0
sg36
I0
sg37
I0
sg64
I0
sg20
I0
sg11
I0
sg15
I0
sS'salad.n.01'
p316
I0
sS'dressing.n.04'
p317
I0
sg45
I0
sg9
I0
sg41
I0
sS'steak.n.01'
p318
I0
sg33
I0
sg136
I0
sg14
I0
sg44
I0
sg43
I0
sg22
I0
sg23
I0
sS'batter.n.02'
p319
I0
ssg37
(dp320
g27
I0
sg299
I0
sg201
I0
sg289
I0
sg18
I0
sg24
I0
sg40
I0
sg46
I0
sg21
I0
sg273
I0
sg42
I0
sg28
I0
sg300
I0
sg8
I0
sg47
I0
sg284
I0
sg17
I0
sg136
I0
sg198
I0
sg12
I0
sg13
I0
sg39
I0
sg10
I0
sg36
I0
sg37
I0
sg32
I0
sg16
I0
sg38
I0
sg26
I0
sg31
I0
sg25
I0
sg19
I0
sg35
I0
sg29
I0
sg34
I0
sg288
I0
sg20
I0
sg11
I0
sg15
I0
sg30
I0
sg301
I0
sg302
I0
sg45
I0
sg9
I0
sg41
I0
sg303
I0
sg33
I0
sg14
I0
sg44
I0
sg43
I0
sg22
I0
sg23
I0
sg65
I0
ssg64
(dp321
S'plate.n.13'
p322
I0
sS'jam.n.01'
p323
I0
sS'chicken.n.01'
p324
I0
sS'beef.n.02'
p325
I0
sS'refrigerator.n.01'
p326
I0
sS'bread.n.01'
p327
I0
sS'bowl.n.01'
p328
I0
sg319
I0
sS'coca_cola.n.01'
p329
I0
sS'salmon.n.03'
p330
I0
sS'pan.n.03'
p331
I0
sS'banana.n.02'
p332
I0
sS'microwave.n.02'
p333
I0
sS'electric_refrigerator.n.01'
p334
I0
sg315
I0
sS'rib.n.03'
p335
I0
sS'salt.n.02'
p336
I0
sS'countenance.n.03'
p337
I0
sS'plate.n.04'
p338
I0
sS'rib.n.01'
p339
I0
sS'gripe.n.01'
p340
I0
sg64
I0
sg318
I0
sS'oven.n.01'
p341
I0
sg193
I0
sS'spread.n.05'
p342
I0
sS'mug.n.04'
p343
I0
sS'blender.n.01'
p344
I0
sS'onion.n.01'
p345
I0
sg317
I0
sg313
I0
sS'put.v.01'
p346
I0
sg314
I0
sS'whipped_cream.n.01'
p347
I0
sS'cake.n.03'
p348
I0
sS'french_fries.n.01'
p349
I0
sg316
I0
sS'onion.n.03'
p350
I0
sS'dish.n.02'
p351
I0
ssg20
(dp352
g27
I0
sg312
I0
sS'rice.n.01'
p353
I0
sg18
I0
sg24
I0
sg40
I0
sg46
I0
sg21
I0
sg71
I0
sg42
I0
sg28
I0
sS'dressing.n.01'
p354
I0
sg8
I0
sg47
I0
sS'spoon.n.01'
p355
I0
sg17
I0
sg198
I0
sg12
I0
sg13
I0
sg39
I0
sg10
I0
sg36
I0
sg30
I0
sg32
I0
sg16
I0
sg38
I0
sg26
I0
sg31
I0
sg25
I0
sg19
I0
sg35
I0
sg29
I0
sg34
I0
sg37
I0
sg20
I0
sg11
I0
sg15
I0
sS'salad.n.01'
p356
I0
sS'dressing.n.04'
p357
I0
sg45
I0
sg9
I0
sg41
I0
sS'steak.n.01'
p358
I0
sg33
I0
sg14
I0
sg44
I0
sg43
I0
sg22
I0
sg23
I0
sS'batter.n.02'
p359
I0
ssg61
(dp360
g123
I0
sg62
I0
sg124
I0
sg125
I0
sg126
I0
sg128
I0
sg129
I0
sg130
I0
sg131
I0
sg132
I0
sg133
I0
sg134
I0
sg135
I0
sg137
I0
sg138
I0
sg140
I0
sg141
I0
sg63
I0
sg144
I0
sg146
I0
sg149
I0
sg150
I0
sg151
I0
sg61
I0
sg154
I0
sg155
I0
sg156
I0
sg157
I0
sg158
I0
sg159
I0
sg160
I0
sg163
I0
sg164
I0
sg165
I0
sg166
I0
ssg11
(dp361
g27
I0
sg59
I0
sg62
I0
sg110
I0
sg18
I0
sg24
I0
sg40
I0
sg46
I0
sg21
I0
sg58
I0
sg42
I0
sg28
I0
sg82
I0
sg8
I0
sg47
I0
sg91
I0
sg17
I0
sg115
I0
sg60
I0
sg12
I5
sg13
I0
sg39
I0
sg89
I0
sg10
I0
sg36
I0
sg30
I0
sg32
I0
sg63
I0
sg16
I0
sg38
I0
sg26
I0
sg97
I0
sg31
I0
sg25
I0
sg19
I0
sg35
I0
sg29
I0
sg34
I0
sg37
I0
sg64
I0
sg20
I0
sg61
I0
sg11
I3
sg15
I0
sg119
I0
sg109
I0
sg45
I0
sg9
I0
sg41
I0
sg101
I0
sg33
I0
sg14
I0
sg44
I0
sg43
I0
sg22
I0
sg23
I0
sg81
I0
ssg15
(dp362
g27
I0
sg59
I0
sg62
I0
sg110
I0
sg18
I0
sg24
I0
sg40
I0
sg46
I0
sg21
I0
sg58
I0
sg42
I0
sg28
I0
sg82
I0
sg8
I0
sg47
I0
sg91
I0
sg17
I0
sg136
I0
sg198
I0
sg12
I0
sg13
I0
sg39
I0
sg89
I0
sg10
I0
sg36
I0
sg30
I0
sg65
I0
sg32
I0
sg63
I0
sg16
I0
sg38
I0
sg26
I0
sg97
I0
sg31
I0
sg25
I0
sg19
I0
sg35
I0
sg29
I0
sg34
I0
sg37
I0
sg64
I0
sg20
I0
sg61
I0
sg11
I0
sg15
I8
sg119
I0
sg109
I0
sg45
I0
sg9
I0
sg41
I0
sg101
I0
sg33
I0
sg14
I0
sg44
I0
sg43
I0
sg22
I0
sg23
I0
sg81
I0
ssg56
(dp363
g168
I0
sg59
I0
sg62
I0
sg51
I0
sg170
I0
sg171
I0
sg172
I0
sg173
I0
sg174
I0
sg58
I0
sg175
I0
sg176
I0
sg54
I0
sg50
I0
sg177
I0
sg178
I0
sg85
I0
sg60
I0
sg86
I0
sg179
I0
sg180
I0
sg49
I0
sg90
I0
sg52
I0
sg181
I0
sg182
I0
sg63
I0
sg94
I0
sg95
I0
sg183
I0
sg48
I0
sg184
I0
sg185
I0
sg186
I0
sg187
I0
sg188
I0
sg189
I0
sg104
I0
sg64
I0
sg219
I0
sg61
I0
sg106
I0
sg107
I0
sg56
I8
sg55
I0
sg169
I0
sg190
I0
sg191
I0
sg57
I0
sg192
I0
sg116
I0
sg193
I0
sg220
I0
sg194
I0
sg195
I0
sg196
I0
sg53
I0
ssg55
(dp364
g168
I0
sg59
I0
sg62
I0
sg51
I0
sg170
I0
sg171
I0
sg172
I0
sg173
I0
sg174
I0
sg58
I0
sg175
I0
sg176
I0
sg54
I0
sg50
I0
sg177
I0
sg178
I0
sg85
I0
sg60
I0
sg86
I0
sg179
I0
sg180
I0
sg49
I0
sg90
I0
sg52
I0
sg181
I0
sg182
I0
sg63
I0
sg94
I0
sg95
I0
sg183
I0
sg48
I0
sg184
I0
sg185
I0
sg186
I0
sg187
I0
sg188
I0
sg189
I0
sg104
I0
sg64
I0
sg219
I0
sg61
I0
sg106
I0
sg107
I0
sg56
I0
sg55
I0
sg169
I0
sg190
I0
sg191
I0
sg57
I0
sg192
I0
sg116
I0
sg193
I0
sg220
I0
sg194
I0
sg195
I0
sg196
I0
sg53
I0
ssg45
(dp365
g27
I0
sg59
I0
sg62
I0
sg51
I0
sg18
I0
sg24
I0
sg40
I0
sg46
I0
sg21
I0
sg58
I0
sg42
I0
sg28
I0
sg54
I0
sg8
I0
sg47
I0
sg52
I0
sg17
I0
sg50
I0
sg60
I0
sg12
I0
sg13
I0
sg39
I0
sg49
I0
sg10
I0
sg36
I0
sg30
I0
sg65
I0
sg32
I0
sg63
I0
sg16
I0
sg38
I0
sg26
I0
sg48
I0
sg31
I0
sg25
I0
sg19
I0
sg35
I0
sg29
I0
sg34
I0
sg37
I0
sg64
I0
sg20
I0
sg61
I0
sg11
I0
sg15
I0
sg56
I0
sg55
I0
sg45
I8
sg9
I0
sg41
I0
sg57
I0
sg33
I0
sg14
I0
sg44
I0
sg43
I0
sg22
I0
sg23
I0
sg53
I0
ssg9
(dp366
g27
I0
sg59
I0
sg62
I0
sg51
I0
sg18
I0
sg24
I0
sg40
I0
sg46
I0
sg21
I0
sg58
I0
sg42
I0
sg28
I0
sg54
I0
sg8
I0
sg47
I0
sg52
I0
sg17
I0
sg50
I0
sg60
I0
sg12
I0
sg13
I0
sg39
I0
sg49
I0
sg10
I0
sg36
I0
sg30
I0
sg65
I0
sg32
I0
sg63
I0
sg16
I0
sg38
I0
sg26
I0
sg48
I0
sg31
I0
sg25
I0
sg19
I0
sg35
I0
sg29
I0
sg34
I0
sg37
I0
sg64
I0
sg20
I0
sg61
I0
sg11
I0
sg15
I0
sg56
I0
sg55
I0
sg45
I0
sg9
I160
sg41
I0
sg57
I0
sg33
I0
sg14
I0
sg44
I0
sg43
I0
sg22
I0
sg23
I0
sg53
I0
ssg41
(dp367
g27
I0
sg59
I0
sg62
I0
sg51
I0
sg18
I0
sg24
I0
sg40
I0
sg46
I0
sg21
I0
sg58
I0
sg42
I0
sg28
I0
sg54
I0
sg8
I0
sg47
I0
sg52
I0
sg17
I0
sg50
I0
sg60
I0
sg12
I0
sg13
I0
sg39
I0
sg49
I0
sg10
I0
sg36
I0
sg30
I0
sg65
I0
sg32
I0
sg63
I0
sg16
I0
sg38
I0
sg26
I0
sg48
I0
sg31
I0
sg25
I0
sg19
I0
sg35
I0
sg29
I0
sg34
I0
sg37
I0
sg20
I0
sg61
I0
sg11
I0
sg15
I0
sg56
I0
sg55
I0
sg45
I0
sg9
I0
sg41
I8
sg57
I0
sg33
I0
sg14
I0
sg44
I0
sg43
I0
sg22
I0
sg23
I0
sg53
I0
ssg57
(dp368
g168
I0
sg59
I0
sg62
I0
sg51
I0
sg170
I0
sg171
I0
sg172
I0
sg173
I0
sg174
I0
sg58
I0
sg175
I0
sg176
I0
sg54
I0
sg50
I0
sg177
I0
sg178
I0
sg85
I0
sg60
I0
sg86
I0
sg179
I0
sg180
I0
sg49
I0
sg90
I0
sg52
I0
sg181
I0
sg182
I0
sg63
I0
sg94
I0
sg95
I0
sg183
I0
sg48
I0
sg184
I0
sg185
I0
sg186
I0
sg187
I0
sg188
I0
sg189
I0
sg104
I0
sg64
I0
sg219
I0
sg61
I0
sg106
I0
sg107
I0
sg56
I0
sg55
I0
sg169
I0
sg190
I0
sg191
I0
sg57
I8
sg192
I0
sg116
I0
sg193
I0
sg220
I0
sg194
I0
sg195
I0
sg196
I0
sg53
I0
ssg33
(dp369
g27
I0
sg70
I0
sg201
I0
sg51
I0
sg18
I0
sg24
I0
sg40
I0
sg46
I0
sg21
I0
sg273
I0
sg42
I0
sg28
I0
sg54
I0
sg8
I0
sg47
I0
sg52
I0
sg17
I0
sg50
I0
sg60
I0
sg12
I0
sg13
I0
sg39
I0
sg49
I0
sg10
I0
sg36
I0
sg30
I0
sg65
I0
sg32
I0
sg16
I0
sg38
I0
sg26
I0
sg48
I0
sg31
I0
sg25
I0
sg19
I0
sg35
I0
sg29
I0
sg34
I5
sg37
I0
sg64
I0
sg20
I0
sg11
I0
sg15
I0
sg56
I0
sg55
I0
sg45
I0
sg9
I0
sg41
I0
sg57
I0
sg33
I3
sg14
I0
sg44
I0
sg43
I0
sg22
I0
sg23
I0
sg53
I0
ssg14
(dp370
g27
I0
sg59
I0
sg62
I0
sg110
I0
sg18
I0
sg24
I0
sg40
I0
sg46
I0
sg21
I0
sg58
I0
sg42
I0
sg28
I0
sg82
I0
sg8
I0
sg47
I0
sg91
I0
sg17
I0
sg136
I0
sg198
I0
sg12
I0
sg13
I0
sg39
I0
sg89
I0
sg10
I0
sg36
I0
sg30
I0
sg65
I0
sg32
I0
sg63
I0
sg16
I0
sg38
I0
sg26
I0
sg97
I0
sg31
I0
sg25
I0
sg19
I0
sg35
I0
sg29
I0
sg34
I0
sg37
I0
sg64
I0
sg20
I0
sg61
I0
sg11
I0
sg15
I0
sg119
I0
sg109
I0
sg45
I0
sg9
I0
sg41
I0
sg101
I0
sg33
I0
sg14
I8
sg44
I0
sg43
I0
sg22
I0
sg23
I0
sg81
I0
ssg44
(dp371
g27
I0
sg18
I0
sg24
I0
sg40
I0
sg46
I0
sg21
I0
sg42
I0
sg28
I0
sg354
I0
sg8
I0
sg47
I0
sg17
I0
sg198
I0
sg12
I0
sg13
I0
sg39
I0
sg10
I0
sg36
I0
sg30
I0
sg32
I0
sg16
I0
sg38
I0
sg26
I0
sg31
I0
sg25
I0
sg19
I0
sg35
I0
sg29
I0
sg34
I0
sg37
I0
sg20
I0
sg11
I0
sg15
I0
sg356
I0
sg357
I0
sg45
I0
sg9
I0
sg41
I0
sg358
I0
sg33
I0
sg14
I0
sg44
I0
sg43
I0
sg22
I0
sg23
I0
ssg43
(dp372
g27
I0
sg59
I0
sg62
I0
sg51
I0
sg18
I0
sg24
I0
sg40
I0
sg46
I0
sg21
I0
sg58
I0
sg42
I0
sg28
I0
sg54
I0
sg8
I0
sg47
I0
sg52
I0
sg17
I0
sg50
I0
sg60
I0
sg12
I0
sg13
I0
sg39
I0
sg49
I0
sg10
I0
sg36
I0
sg30
I0
sg65
I0
sg32
I0
sg63
I0
sg16
I0
sg38
I0
sg26
I0
sg48
I0
sg31
I0
sg25
I0
sg19
I0
sg35
I0
sg29
I0
sg34
I0
sg37
I0
sg20
I0
sg61
I0
sg11
I0
sg15
I0
sg56
I0
sg55
I0
sg45
I0
sg9
I0
sg41
I0
sg57
I0
sg33
I0
sg14
I0
sg44
I2
sg43
I6
sg22
I0
sg23
I0
sg53
I0
ssg22
(dp373
g27
I0
sg70
I0
sg62
I0
sg51
I0
sg18
I0
sg24
I0
sg40
I0
sg46
I0
sg21
I0
sg71
I0
sg42
I0
sg28
I0
sg54
I0
sg8
I0
sg47
I0
sg52
I0
sg17
I0
sg50
I0
sg60
I0
sg12
I0
sg13
I0
sg39
I0
sg49
I0
sg10
I0
sg36
I0
sg30
I0
sg65
I1
sg32
I0
sg63
I0
sg16
I0
sg38
I0
sg26
I0
sg48
I0
sg31
I0
sg25
I0
sg19
I0
sg35
I0
sg29
I0
sg34
I0
sg37
I0
sg64
I0
sg20
I0
sg61
I0
sg11
I0
sg15
I0
sg56
I0
sg55
I0
sg45
I0
sg9
I0
sg41
I0
sg57
I0
sg33
I0
sg14
I0
sg44
I0
sg43
I0
sg22
I1
sg23
I6
sg53
I0
ssg23
(dp374
g27
I0
sg70
I0
sg51
I0
sg18
I0
sg24
I0
sg40
I0
sg46
I0
sg21
I0
sg71
I0
sg42
I0
sg28
I0
sg54
I0
sg8
I0
sg47
I0
sg52
I0
sg17
I0
sg50
I0
sg60
I0
sg12
I0
sg13
I0
sg39
I0
sg49
I0
sg10
I0
sg36
I0
sg30
I0
sg32
I0
sg16
I0
sg38
I0
sg26
I0
sg48
I0
sg31
I0
sg25
I0
sg19
I0
sg35
I0
sg29
I0
sg34
I0
sg37
I0
sg64
I0
sg20
I0
sg11
I0
sg15
I0
sg56
I0
sg55
I0
sg45
I0
sg9
I0
sg41
I0
sg57
I0
sg33
I0
sg14
I0
sg44
I0
sg43
I0
sg22
I0
sg23
I0
sg53
I0
ssg53
(dp375
g168
I0
sg59
I0
sg62
I0
sg51
I0
sg170
I0
sg171
I0
sg172
I0
sg173
I0
sg174
I0
sg58
I0
sg175
I0
sg53
I8
sg54
I0
sg50
I0
sg177
I0
sg178
I0
sg85
I0
sg60
I0
sg86
I0
sg179
I0
sg180
I0
sg49
I0
sg90
I0
sg52
I0
sg181
I0
sg65
I0
sg182
I0
sg63
I0
sg94
I0
sg145
I0
sg183
I0
sg48
I0
sg184
I0
sg185
I0
sg186
I0
sg187
I0
sg188
I0
sg189
I0
sg153
I0
sg64
I0
sg105
I0
sg61
I0
sg106
I0
sg107
I0
sg56
I0
sg55
I0
sg169
I0
sg190
I0
sg191
I0
sg57
I0
sg192
I0
sg116
I0
sg193
I0
sg194
I0
sg195
I0
sg196
I0
sg176
I0
sssb.