ccopy_reg
_reconstructor
p0
(cutils.eval
ConfusionMatrix
p1
c__builtin__
object
p2
Ntp3
Rp4
(dp5
S'labels'
p6
(lp7
S'put.v.01'
p8
aS'rib.n.03'
p9
aS'rib.n.01'
p10
aS'salt.n.02'
p11
aS'cake.n.03'
p12
aS'whipped_cream.n.01'
p13
aS'pepper.n.03'
p14
aS'capsicum.n.01'
p15
aS'salt.n.04'
p16
aS'egg.n.02'
p17
aS'soup.n.01'
p18
aS'microwave.n.02'
p19
aS'pan.n.03'
p20
aS'pizza.n.01'
p21
aS'bowl.n.01'
p22
aS'bowl.n.03'
p23
aS'cherry.n.03'
p24
aS'jam.n.01'
p25
aS'refrigerator.n.01'
p26
aS'salmon.n.03'
p27
aS'plate.n.04'
p28
aS'rice.n.01'
p29
aS'spoon.n.01'
p30
aS'batter.n.02'
p31
aS'dressing.n.01'
p32
aS'dressing.n.04'
p33
aS'salad.n.01'
p34
aS'steak.n.01'
p35
aS'oven.n.01'
p36
aS'coca_cola.n.01'
p37
aS'coke.n.01'
p38
aS'electric_refrigerator.n.01'
p39
aS'mug.n.04'
p40
aS'countenance.n.03'
p41
aS'french_fries.n.01'
p42
aS'blender.n.01'
p43
aS'banana.n.02'
p44
asS'instanceCount'
p45
I48
sS'matrix'
p46
(dp47
g38
(dp48
g38
I0
ssg29
(dp49
S'rice.n.01'
p50
I1
ssg18
(dp51
S'soup.n.01'
p52
I1
ssg26
(dp53
S'refrigerator.n.01'
p54
I1
ssg23
(dp55
g23
I0
ssg22
(dp56
g23
I2
ssg31
(dp57
S'batter.n.02'
p58
I1
ssg32
(dp59
g33
I1
ssg27
(dp60
S'salmon.n.03'
p61
I1
ssg20
(dp62
S'pan.n.03'
p63
I1
ssg37
(dp64
g38
I1
ssg44
(dp65
S'banana.n.02'
p66
I1
ssg19
(dp67
S'microwave.n.02'
p68
I2
ssg17
(dp69
S'egg.n.02'
p70
I1
ssg39
(dp71
S'electric_refrigerator.n.01'
p72
I1
ssg30
(dp73
S'spoon.n.01'
p74
I1
ssg9
(dp75
g10
I1
ssg11
(dp76
S'salt.n.02'
p77
I1
sg16
I1
ssg41
(dp78
g41
I0
ssg16
(dp79
g16
I0
ssg28
(dp80
S'plate.n.04'
p81
I1
ssg10
(dp82
g10
I0
ssg14
(dp83
g15
I1
ssg13
(dp84
S'whipped_cream.n.01'
p85
I1
ssg36
(dp86
S'oven.n.01'
p87
I1
ssg15
(dp88
g15
I0
ssg40
(dp89
g41
I1
ssg43
(dp90
S'blender.n.01'
p91
I1
ssg33
(dp92
g33
I0
ssg25
(dp93
S'jam.n.01'
p94
I1
ssg8
(dp95
S'put.v.01'
p96
I16
ssg21
(dp97
S'pizza.n.01'
p98
I1
ssg35
(dp99
S'steak.n.01'
p100
I1
ssg12
(dp101
S'cake.n.03'
p102
I1
ssg42
(dp103
S'french_fries.n.01'
p104
I1
ssg24
(dp105
S'cherry.n.03'
p106
I1
ssg34
(dp107
S'salad.n.01'
p108
I1
sssb.