ccopy_reg
_reconstructor
p0
(cutils.eval
ConfusionMatrix
p1
c__builtin__
object
p2
Ntp3
Rp4
(dp5
S'labels'
p6
(lp7
S'put.v.01'
p8
aS'dressing.n.01'
p9
aS'dressing.n.04'
p10
aS'salad.n.01'
p11
aS'steak.n.01'
p12
aS'oven.n.01'
p13
aS'coca_cola.n.01'
p14
aS'electric_refrigerator.n.01'
p15
aS'mug.n.04'
p16
aS'microwave.n.02'
p17
aS'microwave.n.01'
p18
aS'french_fries.n.01'
p19
aS'blender.n.01'
p20
aS'banana.n.02'
p21
aS'pan.n.03'
p22
aS'chicken.n.01'
p23
aS'spread.n.05'
p24
aS'paste.n.03'
p25
aS'bread.n.01'
p26
aS'onion.n.01'
p27
aS'onion.n.03'
p28
aS'beef.n.02'
p29
aS'gripe.n.01'
p30
aS'plate.n.04'
p31
aS'dish.n.02'
p32
aS'rib.n.03'
p33
aS'rib.n.01'
p34
aS'salt.n.02'
p35
aS'cake.n.03'
p36
aS'patty.n.01'
p37
aS'whipped_cream.n.01'
p38
aS'pepper.n.03'
p39
aS'capsicum.n.01'
p40
aS'salt.n.04'
p41
aS'egg.n.02'
p42
aS'soup.n.01'
p43
aS'pizza.n.01'
p44
aS'bowl.n.01'
p45
aS'cherry.n.03'
p46
aS'cherry.n.01'
p47
asS'instanceCount'
p48
I49
sS'matrix'
p49
(dp50
g23
(dp51
S'chicken.n.01'
p52
I1
ssg29
(dp53
g30
I1
ssg43
(dp54
S'soup.n.01'
p55
I1
ssg26
(dp56
S'bread.n.01'
p57
I1
ssg45
(dp58
S'bowl.n.01'
p59
I1
ssg44
(dp60
S'pizza.n.01'
p61
I1
ssg32
(dp62
S'dish.n.02'
p63
I1
ssg14
(dp64
S'coca_cola.n.01'
p65
I1
ssg22
(dp66
S'pan.n.03'
p67
I2
ssg18
(dp68
g18
I0
ssg17
(dp69
g18
I1
sS'microwave.n.02'
p70
I1
ssg42
(dp71
S'egg.n.02'
p72
I1
ssg15
(dp73
S'electric_refrigerator.n.01'
p74
I1
ssg39
(dp75
g40
I1
ssg33
(dp76
g34
I1
ssg35
(dp77
S'salt.n.02'
p78
I1
sg41
I1
ssg21
(dp79
S'banana.n.02'
p80
I1
ssg41
(dp81
g41
I0
ssg31
(dp82
S'plate.n.04'
p83
I1
ssg34
(dp84
g34
I0
ssg30
(dp85
g30
I0
ssg24
(dp86
g25
I1
ssg12
(dp87
S'steak.n.01'
p88
I1
ssg13
(dp89
S'oven.n.01'
p90
I2
ssg37
(dp91
g37
I0
ssg40
(dp92
g40
I0
ssg25
(dp93
g25
I0
ssg16
(dp94
S'mug.n.04'
p95
I1
ssg20
(dp96
S'blender.n.01'
p97
I1
ssg11
(dp98
S'salad.n.01'
p99
I1
ssg10
(dp100
g10
I0
ssg8
(dp101
S'put.v.01'
p102
I16
ssg9
(dp103
g10
I1
ssg38
(dp104
S'whipped_cream.n.01'
p105
I1
ssg36
(dp106
g37
I1
ssg19
(dp107
S'french_fries.n.01'
p108
I1
ssg47
(dp109
g47
I0
ssg46
(dp110
g47
I1
ssg27
(dp111
g28
I1
ssg28
(dp112
g28
I0
sssb.