ccopy_reg
_reconstructor
p0
(cutils.eval
ConfusionMatrix
p1
c__builtin__
object
p2
Ntp3
Rp4
(dp5
S'labels'
p6
(lp7
S'fill.v.01'
p8
aS'pan.n.01'
p9
aS'pan.n.03'
p10
aS'water.n.06'
p11
aS'kettle.n.01'
p12
aS'measuring_cup.n.01'
p13
aS'meal.n.03'
p14
aS'foam.n.01'
p15
aS'mug.n.04'
p16
aS'wok.n.01'
p17
aS'rice.n.01'
p18
aS'cup.n.01'
p19
aS'cola.n.02'
p20
aS'thermos.n.01'
p21
aS'coffee.n.01'
p22
aS'ice.n.01'
p23
aS'ice.n.05'
p24
aS'bowl.n.01'
p25
aS'jar.n.01'
p26
aS'gravy.n.01'
p27
aS'gravy.n.02'
p28
aS'opening.n.01'
p29
aS'gap.n.03'
p30
aS'fill.v.09'
p31
aS'batter.n.02'
p32
aS'blender.n.01'
p33
aS'apple.n.01'
p34
aS'opening.n.10'
p35
aS'curd.n.01'
p36
aS'bottle.n.01'
p37
aS'fruit_juice.n.01'
p38
aS'whiskey.n.01'
p39
aS'carafe.n.01'
p40
aS'glass.n.02'
p41
aS'milk.n.01'
p42
asS'instanceCount'
p43
I47
sS'matrix'
p44
(dp45
g18
(dp46
S'rice.n.01'
p47
I1
ssg25
(dp48
S'bowl.n.01'
p49
I1
ssg32
(dp50
S'batter.n.02'
p51
I1
ssg35
(dp52
g35
I0
ssg34
(dp53
S'apple.n.01'
p54
I1
ssg19
(dp55
S'cup.n.01'
p56
I1
ssg42
(dp57
S'milk.n.01'
p58
I1
ssg9
(dp59
g10
I1
ssg10
(dp60
g10
I0
ssg15
(dp61
S'foam.n.01'
p62
I1
ssg20
(dp63
S'cola.n.02'
p64
I1
ssg30
(dp65
g30
I0
ssg31
(dp66
S'fill.v.01'
p67
I2
ssg37
(dp68
S'bottle.n.01'
p69
I1
ssg8
(dp70
S'fill.v.01'
p71
I14
ssg13
(dp72
S'measuring_cup.n.01'
p73
I1
ssg41
(dp74
S'glass.n.02'
p75
I1
ssg27
(dp76
g28
I1
ssg28
(dp77
g28
I0
ssg17
(dp78
S'wok.n.01'
p79
I1
ssg22
(dp80
S'coffee.n.01'
p81
I1
ssg39
(dp82
S'whiskey.n.01'
p83
I1
ssg29
(dp84
g35
I1
sg30
I1
ssg16
(dp85
S'mug.n.04'
p86
I1
ssg38
(dp87
S'fruit_juice.n.01'
p88
I1
ssg33
(dp89
S'blender.n.01'
p90
I1
ssg21
(dp91
S'thermos.n.01'
p92
I1
ssg11
(dp93
S'water.n.06'
p94
I2
ssg23
(dp95
g24
I1
ssg12
(dp96
S'kettle.n.01'
p97
I1
ssg24
(dp98
g24
I0
ssg36
(dp99
S'curd.n.01'
p100
I1
ssg26
(dp101
S'jar.n.01'
p102
I2
ssg40
(dp103
S'carafe.n.01'
p104
I1
ssg14
(dp105
S'meal.n.03'
p106
I1
sssb.