ccopy_reg
_reconstructor
p0
(cutils.eval
ConfusionMatrix
p1
c__builtin__
object
p2
Ntp3
Rp4
(dp5
S'labels'
p6
(lp7
S'jar.n.01'
p8
aS'fill.v.01'
p9
aS'gravy.n.01'
p10
aS'gravy.n.02'
p11
aS'opening.n.01'
p12
aS'gap.n.03'
p13
aS'fill.v.09'
p14
aS'batter.n.02'
p15
aS'blender.n.01'
p16
aS'apple.n.01'
p17
aS'opening.n.10'
p18
aS'curd.n.01'
p19
aS'bottle.n.01'
p20
aS'fruit_juice.n.01'
p21
aS'whiskey.n.01'
p22
aS'carafe.n.01'
p23
aS'glass.n.02'
p24
aS'milk.n.01'
p25
aS'saltcellar.n.01'
p26
aS'salt.n.02'
p27
aS'teapot.n.01'
p28
aS'water.n.06'
p29
aS'pot.n.01'
p30
aS'pitcher.n.02'
p31
aS'pan.n.01'
p32
aS'pan.n.03'
p33
aS'kettle.n.01'
p34
aS'measuring_cup.n.01'
p35
aS'meal.n.03'
p36
aS'foam.n.01'
p37
aS'mug.n.04'
p38
asS'instanceCount'
p39
I47
sS'matrix'
p40
(dp41
g15
(dp42
S'batter.n.02'
p43
I1
ssg17
(dp44
S'apple.n.01'
p45
I1
ssg18
(dp46
g18
I0
ssg37
(dp47
S'foam.n.01'
p48
I1
ssg25
(dp49
S'milk.n.01'
p50
I2
ssg32
(dp51
g33
I1
ssg33
(dp52
g33
I0
ssg13
(dp53
g13
I0
ssg14
(dp54
S'fill.v.01'
p55
I2
ssg20
(dp56
S'bottle.n.01'
p57
I1
ssg30
(dp58
S'pot.n.01'
p59
I1
ssg9
(dp60
S'fill.v.01'
p61
I14
ssg31
(dp62
S'pitcher.n.02'
p63
I1
ssg35
(dp64
S'measuring_cup.n.01'
p65
I1
ssg24
(dp66
S'glass.n.02'
p67
I1
ssg10
(dp68
g11
I1
ssg27
(dp69
S'salt.n.02'
p70
I1
ssg11
(dp71
g11
I0
ssg22
(dp72
S'whiskey.n.01'
p73
I1
ssg12
(dp74
g18
I1
sg13
I1
ssg38
(dp75
S'mug.n.04'
p76
I1
ssg21
(dp77
S'fruit_juice.n.01'
p78
I1
ssg28
(dp79
S'teapot.n.01'
p80
I1
ssg16
(dp81
S'blender.n.01'
p82
I1
ssg26
(dp83
S'saltcellar.n.01'
p84
I1
ssg29
(dp85
S'water.n.06'
p86
I4
ssg34
(dp87
S'kettle.n.01'
p88
I1
ssg19
(dp89
S'curd.n.01'
p90
I1
ssg8
(dp91
S'jar.n.01'
p92
I2
ssg23
(dp93
S'carafe.n.01'
p94
I1
ssg36
(dp95
S'meal.n.03'
p96
I1
sssb.