ccopy_reg
_reconstructor
p0
(cutils.eval
ConfusionMatrix
p1
c__builtin__
object
p2
Ntp3
Rp4
(dp5
S'labels'
p6
(lp7
S'fill.v.01'
p8
aS'bottle.n.01'
p9
aS'fruit_juice.n.01'
p10
aS'juice.n.01'
p11
aS'jar.n.01'
p12
aS'whiskey.n.01'
p13
aS'carafe.n.01'
p14
aS'glass.n.02'
p15
aS'milk.n.01'
p16
aS'milk.n.04'
p17
aS'saltcellar.n.01'
p18
aS'salt.n.02'
p19
aS'teapot.n.01'
p20
aS'water.n.06'
p21
aS'pot.n.01'
p22
aS'pitcher.n.02'
p23
aS'pan.n.01'
p24
aS'pan.n.03'
p25
aS'kettle.n.01'
p26
aS'measuring_cup.n.01'
p27
aS'meal.n.03'
p28
aS'foam.n.01'
p29
aS'mug.n.04'
p30
aS'wok.n.01'
p31
aS'rice.n.01'
p32
aS'cup.n.01'
p33
aS'cola.n.02'
p34
aS'thermos.n.01'
p35
aS'coffee.n.01'
p36
aS'ice.n.01'
p37
aS'ice.n.05'
p38
aS'bowl.n.01'
p39
aS'bowl.n.08'
p40
asS'instanceCount'
p41
I47
sS'matrix'
p42
(dp43
g35
(dp44
S'thermos.n.01'
p45
I1
ssg39
(dp46
g40
I1
ssg17
(dp47
g17
I0
ssg29
(dp48
S'foam.n.01'
p49
I1
ssg16
(dp50
g17
I1
sS'milk.n.01'
p51
I1
ssg24
(dp52
g25
I1
ssg25
(dp53
g25
I0
ssg40
(dp54
g40
I0
ssg34
(dp55
S'cola.n.02'
p56
I1
ssg18
(dp57
S'saltcellar.n.01'
p58
I1
ssg9
(dp59
S'bottle.n.01'
p60
I1
ssg22
(dp61
S'pot.n.01'
p62
I1
ssg8
(dp63
S'fill.v.01'
p64
I16
ssg23
(dp65
S'pitcher.n.02'
p66
I1
ssg27
(dp67
S'measuring_cup.n.01'
p68
I1
ssg15
(dp69
S'glass.n.02'
p70
I1
ssg19
(dp71
S'salt.n.02'
p72
I1
ssg31
(dp73
S'wok.n.01'
p74
I1
ssg36
(dp75
S'coffee.n.01'
p76
I1
ssg13
(dp77
S'whiskey.n.01'
p78
I1
ssg30
(dp79
S'mug.n.04'
p80
I1
ssg10
(dp81
g11
I1
ssg20
(dp82
S'teapot.n.01'
p83
I1
ssg32
(dp84
S'rice.n.01'
p85
I1
ssg21
(dp86
S'water.n.06'
p87
I4
ssg37
(dp88
g38
I1
ssg33
(dp89
S'cup.n.01'
p90
I1
ssg26
(dp91
S'kettle.n.01'
p92
I1
ssg38
(dp93
g38
I0
ssg12
(dp94
S'jar.n.01'
p95
I1
ssg14
(dp96
S'carafe.n.01'
p97
I1
ssg11
(dp98
g11
I0
ssg28
(dp99
S'meal.n.03'
p100
I1
sssb.