ccopy_reg
_reconstructor
p0
(cutils.eval
ConfusionMatrix
p1
c__builtin__
object
p2
Ntp3
Rp4
(dp5
S'labels'
p6
(lp7
S'slice.v.03'
p8
aS'slice.v.02'
p9
aS'onion.n.01'
p10
aS'pepper.n.04'
p11
aS'piece.n.08'
p12
aS'slice.n.01'
p13
aS'pizza.n.01'
p14
aS'fill.v.01'
p15
aS'meet.v.04'
p16
aS'kettle.n.01'
p17
aS'kettle.n.02'
p18
aS'water.n.06'
p19
aS'water.n.03'
p20
aS'fill.v.09'
p21
aS'pan.n.01'
p22
aS'opening.n.01'
p23
aS'gap.n.05'
p24
aS'batter.n.02'
p25
aS'put.v.01'
p26
aS'invest.v.01'
p27
aS'beef.n.02'
p28
aS'beef.n.01'
p29
aS'plate.n.04'
p30
aS'plate.n.12'
p31
asS'instanceCount'
p32
I19
sS'matrix'
p33
(dp34
g31
(dp35
g31
I0
ssg27
(dp36
g27
I0
ssg29
(dp37
g29
I0
ssg28
(dp38
g29
I1
ssg25
(dp39
S'batter.n.02'
p40
I1
ssg22
(dp41
S'pan.n.01'
p42
I1
ssg24
(dp43
g24
I0
ssg21
(dp44
g21
I1
ssg15
(dp45
g16
I1
sg21
I1
ssg9
(dp46
g9
I0
ssg8
(dp47
g9
I2
ssg30
(dp48
g31
I1
ssg11
(dp49
S'pepper.n.04'
p50
I1
ssg16
(dp51
g16
I0
ssg12
(dp52
g13
I1
ssg23
(dp53
g24
I1
ssg20
(dp54
g20
I0
ssg13
(dp55
g13
I0
ssg19
(dp56
g20
I2
ssg26
(dp57
g27
I1
ssg14
(dp58
S'pizza.n.01'
p59
I1
ssg18
(dp60
g18
I0
ssg17
(dp61
g18
I1
ssg10
(dp62
S'onion.n.01'
p63
I2
sssb.