ccopy_reg
_reconstructor
p0
(cutils.eval
ConfusionMatrix
p1
c__builtin__
object
p2
Ntp3
Rp4
(dp5
S'labels'
p6
(lp7
S'fill.v.01'
p8
aS'fill.v.09'
p9
aS'pitcher.n.02'
p10
aS'pitcher.n.03'
p11
aS'milk.n.01'
p12
aS'milk.n.04'
p13
aS'put.v.01'
p14
aS'invest.v.01'
p15
aS'pan.n.03'
p16
aS'pan.n.01'
p17
aS'chicken.n.01'
p18
aS'slice.v.03'
p19
aS'slice.v.02'
p20
aS'onion.n.01'
p21
aS'pepper.n.04'
p22
aS'piece.n.08'
p23
aS'slice.n.01'
p24
aS'pizza.n.01'
p25
aS'meet.v.04'
p26
aS'kettle.n.01'
p27
aS'kettle.n.02'
p28
aS'water.n.06'
p29
aS'water.n.03'
p30
asS'instanceCount'
p31
I18
sS'matrix'
p32
(dp33
g15
(dp34
g15
I0
ssg18
(dp35
S'chicken.n.01'
p36
I1
ssg13
(dp37
g13
I0
ssg12
(dp38
g13
I1
ssg17
(dp39
g17
I1
ssg16
(dp40
g17
I1
ssg9
(dp41
g9
I0
ssg8
(dp42
g26
I1
sg9
I2
ssg11
(dp43
g11
I0
ssg10
(dp44
g11
I1
ssg20
(dp45
g20
I0
ssg19
(dp46
g20
I2
ssg22
(dp47
S'pepper.n.04'
p48
I1
ssg26
(dp49
g26
I0
ssg23
(dp50
g24
I1
ssg30
(dp51
g30
I0
ssg24
(dp52
g24
I0
ssg29
(dp53
g30
I2
ssg14
(dp54
g15
I1
ssg25
(dp55
S'pizza.n.01'
p56
I1
ssg28
(dp57
g28
I0
ssg27
(dp58
g28
I1
ssg21
(dp59
S'onion.n.01'
p60
I1
sssb.