ccopy_reg
_reconstructor
p0
(cutils.eval
ConfusionMatrix
p1
c__builtin__
object
p2
Ntp3
Rp4
(dp5
S'labels'
p6
(lp7
S'fill.v.01'
p8
aS'meet.v.04'
p9
aS'kettle.n.01'
p10
aS'kettle.n.02'
p11
aS'water.n.06'
p12
aS'water.n.03'
p13
aS'fill.v.09'
p14
aS'pan.n.01'
p15
aS'opening.n.01'
p16
aS'gap.n.05'
p17
aS'batter.n.02'
p18
aS'put.v.01'
p19
aS'invest.v.01'
p20
aS'onion.n.01'
p21
aS'beef.n.02'
p22
aS'beef.n.01'
p23
aS'plate.n.04'
p24
aS'plate.n.12'
p25
aS'knife.n.01'
p26
aS'banana.n.02'
p27
aS'slice.v.03'
p28
aS'slice.v.02'
p29
aS'foam.n.01'
p30
aS'mug.n.04'
p31
asS'instanceCount'
p32
I19
sS'matrix'
p33
(dp34
g25
(dp35
g25
I0
ssg20
(dp36
g20
I0
ssg23
(dp37
g23
I0
ssg22
(dp38
g23
I1
ssg18
(dp39
S'batter.n.02'
p40
I1
ssg30
(dp41
S'foam.n.01'
p42
I1
ssg15
(dp43
S'pan.n.01'
p44
I1
ssg17
(dp45
g17
I0
ssg14
(dp46
g14
I1
ssg8
(dp47
g9
I1
sg14
I2
ssg29
(dp48
g29
I0
ssg28
(dp49
g29
I1
ssg26
(dp50
S'knife.n.01'
p51
I1
ssg27
(dp52
S'banana.n.02'
p53
I1
ssg24
(dp54
g25
I1
ssg9
(dp55
g9
I0
ssg16
(dp56
g17
I1
ssg31
(dp57
S'mug.n.04'
p58
I1
ssg13
(dp59
g13
I0
ssg12
(dp60
g13
I2
ssg19
(dp61
g20
I1
ssg11
(dp62
g11
I0
ssg10
(dp63
g11
I1
ssg21
(dp64
S'onion.n.01'
p65
I1
sssb.