ccopy_reg
_reconstructor
p0
(cutils.eval
ConfusionMatrix
p1
c__builtin__
object
p2
Ntp3
Rp4
(dp5
S'labels'
p6
(lp7
S'cut.v.01'
p8
aS'swerve.v.01'
p9
aS'bread.n.01'
p10
aS'knife.n.01'
p11
aS'bacon.n.01'
p12
aS'bacon.n.03'
p13
aS'lemon.n.01'
p14
aS'lemon.n.04'
p15
aS'put.v.01'
p16
aS'invest.v.01'
p17
aS'pan.n.03'
p18
aS'pan.n.01'
p19
aS'pizza.n.01'
p20
aS'cabbage.n.01'
p21
aS'cake.n.03'
p22
aS'patty.n.01'
p23
aS'whipped_cream.n.01'
p24
asS'instanceCount'
p25
I15
sS'matrix'
p26
(dp27
g19
(dp28
g19
I0
ssg17
(dp29
g17
I0
ssg18
(dp30
g19
I1
ssg8
(dp31
g9
I4
ssg11
(dp32
S'knife.n.01'
p33
I1
ssg21
(dp34
S'cabbage.n.01'
p35
I1
ssg24
(dp36
S'whipped_cream.n.01'
p37
I1
ssg13
(dp38
g13
I0
ssg12
(dp39
g13
I1
ssg10
(dp40
S'bread.n.01'
p41
I1
ssg15
(dp42
g15
I0
ssg22
(dp43
g23
I1
ssg16
(dp44
g17
I2
ssg14
(dp45
g15
I1
ssg23
(dp46
g23
I0
ssg9
(dp47
g9
I0
ssg20
(dp48
S'pizza.n.01'
p49
I1
sssb.