ccopy_reg
_reconstructor
p0
(cutils.eval
ConfusionMatrix
p1
c__builtin__
object
p2
Ntp3
Rp4
(dp5
S'labels'
p6
(lp7
S'cut.v.01'
p8
aS'swerve.v.01'
p9
aS'lemon.n.01'
p10
aS'lemon.n.04'
p11
aS'put.v.01'
p12
aS'invest.v.01'
p13
aS'pan.n.03'
p14
aS'pan.n.01'
p15
aS'pizza.n.01'
p16
aS'cabbage.n.01'
p17
aS'cake.n.03'
p18
aS'patty.n.01'
p19
aS'whipped_cream.n.01'
p20
aS'frame.v.04'
p21
aS'pepper.n.03'
p22
aS'pepper.n.04'
p23
aS'salt.n.02'
p24
aS'egg.n.02'
p25
aS'testis.n.01'
p26
aS'flesh.n.01'
p27
aS'slice.v.03'
p28
aS'slice.v.02'
p29
asS'instanceCount'
p30
I16
sS'matrix'
p31
(dp32
g13
(dp33
g13
I0
ssg9
(dp34
g9
I0
ssg28
(dp35
g29
I1
ssg15
(dp36
g15
I0
ssg14
(dp37
g15
I1
ssg8
(dp38
g9
I2
ssg21
(dp39
g21
I0
ssg25
(dp40
g26
I1
ssg26
(dp41
g26
I0
ssg19
(dp42
g19
I0
ssg29
(dp43
g29
I0
ssg24
(dp44
S'salt.n.02'
p45
I1
ssg17
(dp46
S'cabbage.n.01'
p47
I1
ssg23
(dp48
g23
I0
ssg22
(dp49
g23
I1
ssg20
(dp50
S'whipped_cream.n.01'
p51
I1
ssg27
(dp52
S'flesh.n.01'
p53
I1
ssg12
(dp54
g13
I2
sg21
I1
ssg16
(dp55
S'pizza.n.01'
p56
I1
ssg11
(dp57
g11
I0
ssg18
(dp58
g19
I1
ssg10
(dp59
g11
I1
sssb.