ccopy_reg
_reconstructor
p0
(cutils.eval
ConfusionMatrix
p1
c__builtin__
object
p2
Ntp3
Rp4
(dp5
S'labels'
p6
(lp7
S'put.v.01'
p8
aS'frame.v.04'
p9
aS'pepper.n.03'
p10
aS'pepper.n.04'
p11
aS'salt.n.02'
p12
aS'egg.n.02'
p13
aS'testis.n.01'
p14
aS'flesh.n.01'
p15
aS'slice.v.03'
p16
aS'slice.v.02'
p17
aS'cut.v.01'
p18
aS'swerve.v.01'
p19
aS'meat.n.01'
p20
aS'kernel.n.01'
p21
aS'cleaver.n.01'
p22
aS'cheese.n.01'
p23
aS'fill.v.01'
p24
aS'fill.v.09'
p25
aS'pitcher.n.02'
p26
aS'pitcher.n.03'
p27
aS'milk.n.01'
p28
aS'milk.n.04'
p29
aS'invest.v.01'
p30
aS'pan.n.03'
p31
aS'pan.n.01'
p32
aS'chicken.n.01'
p33
asS'instanceCount'
p34
I17
sS'matrix'
p35
(dp36
g23
(dp37
S'cheese.n.01'
p38
I1
ssg19
(dp39
g19
I0
ssg21
(dp40
g21
I0
ssg29
(dp41
g29
I0
ssg33
(dp42
S'chicken.n.01'
p43
I1
ssg28
(dp44
g29
I1
ssg32
(dp45
g32
I0
ssg31
(dp46
g32
I1
ssg18
(dp47
g19
I1
ssg9
(dp48
g9
I0
ssg25
(dp49
g25
I0
ssg13
(dp50
g14
I1
ssg14
(dp51
g14
I0
ssg24
(dp52
g25
I1
ssg27
(dp53
g27
I0
ssg26
(dp54
g27
I1
ssg22
(dp55
S'cleaver.n.01'
p56
I1
ssg20
(dp57
g21
I1
ssg17
(dp58
g17
I0
ssg12
(dp59
S'salt.n.02'
p60
I1
ssg11
(dp61
g11
I0
ssg10
(dp62
g11
I1
ssg15
(dp63
S'flesh.n.01'
p64
I1
ssg8
(dp65
g30
I1
sg9
I1
ssg30
(dp66
g30
I0
ssg16
(dp67
g17
I2
sssb.