ccopy_reg
_reconstructor
p0
(cutils.eval
ConfusionMatrix
p1
c__builtin__
object
p2
Ntp3
Rp4
(dp5
S'labels'
p6
(lp7
S'opening.n.01'
p8
aS'gap.n.05'
p9
aS'fill.v.09'
p10
aS'batter.n.02'
p11
aS'put.v.01'
p12
aS'invest.v.01'
p13
aS'onion.n.01'
p14
aS'beef.n.02'
p15
aS'beef.n.01'
p16
aS'plate.n.04'
p17
aS'plate.n.12'
p18
aS'knife.n.01'
p19
aS'banana.n.02'
p20
aS'slice.v.03'
p21
aS'slice.v.02'
p22
aS'fill.v.01'
p23
aS'foam.n.01'
p24
aS'mug.n.04'
p25
aS'cut.v.01'
p26
aS'swerve.v.01'
p27
aS'bread.n.01'
p28
aS'bacon.n.01'
p29
aS'bacon.n.03'
p30
asS'instanceCount'
p31
I18
sS'matrix'
p32
(dp33
g18
(dp34
g18
I0
ssg16
(dp35
g16
I0
ssg13
(dp36
g13
I0
ssg28
(dp37
S'bread.n.01'
p38
I1
ssg11
(dp39
S'batter.n.02'
p40
I1
ssg27
(dp41
g27
I0
ssg24
(dp42
S'foam.n.01'
p43
I1
ssg9
(dp44
g9
I0
ssg10
(dp45
S'fill.v.09'
p46
I1
ssg15
(dp47
g16
I1
ssg30
(dp48
g30
I0
ssg29
(dp49
g30
I1
ssg23
(dp50
S'fill.v.09'
p51
I1
ssg22
(dp52
g22
I0
ssg21
(dp53
g22
I1
ssg19
(dp54
S'knife.n.01'
p55
I2
ssg20
(dp56
S'banana.n.02'
p57
I1
ssg17
(dp58
g18
I1
ssg26
(dp59
g27
I2
ssg8
(dp60
g9
I1
ssg25
(dp61
S'mug.n.04'
p62
I1
ssg12
(dp63
g13
I1
ssg14
(dp64
S'onion.n.01'
p65
I1
sssb.