ccopy_reg
_reconstructor
p0
(cutils.eval
ConfusionMatrix
p1
c__builtin__
object
p2
Ntp3
Rp4
(dp5
S'labels'
p6
(lp7
S'knife.n.01'
p8
aS'banana.n.02'
p9
aS'slice.v.03'
p10
aS'slice.v.02'
p11
aS'fill.v.01'
p12
aS'fill.v.09'
p13
aS'foam.n.01'
p14
aS'mug.n.04'
p15
aS'cut.v.01'
p16
aS'swerve.v.01'
p17
aS'bread.n.01'
p18
aS'bacon.n.01'
p19
aS'bacon.n.03'
p20
aS'lemon.n.01'
p21
aS'lemon.n.04'
p22
aS'put.v.01'
p23
aS'invest.v.01'
p24
aS'pan.n.03'
p25
aS'pan.n.01'
p26
aS'pizza.n.01'
p27
asS'instanceCount'
p28
I16
sS'matrix'
p29
(dp30
g11
(dp31
g11
I0
ssg10
(dp32
g11
I1
ssg25
(dp33
g26
I1
ssg16
(dp34
g17
I3
ssg8
(dp35
S'knife.n.01'
p36
I2
ssg9
(dp37
S'banana.n.02'
p38
I1
ssg13
(dp39
g13
I0
ssg20
(dp40
g20
I0
ssg19
(dp41
g20
I1
ssg12
(dp42
g13
I1
ssg24
(dp43
g24
I0
ssg26
(dp44
g26
I0
ssg22
(dp45
g22
I0
ssg18
(dp46
S'bread.n.01'
p47
I1
ssg23
(dp48
g24
I1
ssg21
(dp49
g22
I1
ssg17
(dp50
g17
I0
ssg27
(dp51
S'pizza.n.01'
p52
I1
ssg14
(dp53
S'foam.n.01'
p54
I1
ssg15
(dp55
S'mug.n.04'
p56
I1
sssb.