ccopy_reg
_reconstructor
p0
(cutils.eval
ConfusionMatrix
p1
c__builtin__
object
p2
Ntp3
Rp4
(dp5
S'labels'
p6
(lp7
S'add.v.01'
p8
aS'egg.n.02'
p9
aS'pan.n.03'
p10
aS'butter.n.01'
p11
aS'vanilla.n.02'
p12
aS'mixing_bowl.n.01'
p13
aS'sugar.n.01'
p14
asS'instanceCount'
p15
I22
sS'matrix'
p16
(dp17
g10
(dp18
S'pan.n.03'
p19
I2
ssg9
(dp20
S'egg.n.02'
p21
I1
ssg11
(dp22
S'butter.n.01'
p23
I5
ssg13
(dp24
S'mixing_bowl.n.01'
p25
I3
ssg12
(dp26
S'vanilla.n.02'
p27
I2
ssg8
(dp28
S'add.v.01'
p29
I6
ssg14
(dp30
S'sugar.n.01'
p31
I3
sssb.