ccopy_reg
_reconstructor
p0
(cutils.eval
ConfusionMatrix
p1
c__builtin__
object
p2
Ntp3
Rp4
(dp5
S'labels'
p6
(lp7
S'fill.v.01'
p8
aS'pitcher.n.02'
p9
aS'milk.n.01'
p10
aS'fill.v.09'
p11
aS'foam.n.01'
p12
aS'mug.n.04'
p13
aS'chump.n.01'
p14
asS'instanceCount'
p15
I6
sS'matrix'
p16
(dp17
g13
(dp18
g14
I1
ssg14
(dp19
g14
I0
ssg11
(dp20
g11
I0
ssg8
(dp21
g11
I1
sS'fill.v.01'
p22
I1
ssg9
(dp23
S'pitcher.n.02'
p24
I1
ssg12
(dp25
S'foam.n.01'
p26
I1
ssg10
(dp27
S'milk.n.01'
p28
I1
sssb.