ccopy_reg
_reconstructor
p0
(cutils.eval
ConfusionMatrix
p1
c__builtin__
object
p2
Ntp3
Rp4
(dp5
S'labels'
p6
(lp7
S'fill.v.01'
p8
aS'pan.n.01'
p9
aS'pan.n.03'
p10
aS'water.n.06'
p11
aS'opening.n.01'
p12
aS'break.n.13'
p13
aS'fill.v.09'
p14
aS'batter.n.02'
p15
asS'instanceCount'
p16
I6
sS'matrix'
p17
(dp18
g9
(dp19
g10
I1
ssg10
(dp20
g10
I0
ssg14
(dp21
S'fill.v.01'
p22
I1
ssg11
(dp23
S'water.n.06'
p24
I1
ssg8
(dp25
S'fill.v.01'
p26
I1
ssg15
(dp27
S'batter.n.02'
p28
I1
ssg13
(dp29
g13
I0
ssg12
(dp30
g13
I1
sssb.