ccopy_reg
_reconstructor
p0
(cutils.eval
ConfusionMatrix
p1
c__builtin__
object
p2
Ntp3
Rp4
(dp5
S'labels'
p6
(lp7
S'fill.v.01'
p8
aS'pitcher.n.02'
p9
aS'milk.n.01'
p10
aS'water.n.06'
p11
aS'water_system.n.02'
p12
aS'rice.n.01'
p13
aS'pour.v.01'
p14
aS'concoction.n.01'
p15
aS'mix.n.03'
p16
aS'add.v.01'
p17
aS'lend.v.01'
p18
aS'chicken.n.01'
p19
aS'wimp.n.01'
p20
aS'corn.n.02'
p21
aS'corn.n.03'
p22
aS'chop.v.01'
p23
aS'chop.v.05'
p24
aS'burner.n.02'
p25
aS'burner.n.01'
p26
aS'pan.n.01'
p27
aS'pan.n.02'
p28
aS'butter.n.01'
p29
aS'vanilla.n.02'
p30
aS'vanilla.n.03'
p31
aS'egg.n.02'
p32
aS'egg.n.01'
p33
aS'dough.n.01'
p34
aS'boodle.n.01'
p35
aS'mix.v.04'
p36
aS'mix.v.05'
p37
asS'instanceCount'
p38
I21
sS'matrix'
p39
(dp40
g22
(dp41
g22
I0
ssg21
(dp42
g22
I1
ssg19
(dp43
g20
I1
ssg20
(dp44
g20
I0
ssg17
(dp45
g18
I3
ssg10
(dp46
S'milk.n.01'
p47
I1
ssg27
(dp48
g28
I1
ssg28
(dp49
g28
I0
ssg32
(dp50
g33
I1
ssg29
(dp51
S'butter.n.01'
p52
I2
ssg8
(dp53
S'fill.v.01'
p54
I1
ssg9
(dp55
S'pitcher.n.02'
p56
I1
ssg24
(dp57
g24
I0
ssg23
(dp58
g24
I1
ssg30
(dp59
g31
I1
ssg36
(dp60
g37
I1
ssg15
(dp61
g16
I1
ssg31
(dp62
g31
I0
ssg34
(dp63
g35
I1
ssg18
(dp64
g18
I0
ssg35
(dp65
g35
I0
ssg37
(dp66
g37
I0
ssg33
(dp67
g33
I0
ssg13
(dp68
S'rice.n.01'
p69
I1
ssg12
(dp70
g12
I0
ssg11
(dp71
g12
I1
ssg14
(dp72
S'pour.v.01'
p73
I1
ssg16
(dp74
g16
I0
ssg25
(dp75
g26
I1
ssg26
(dp76
g26
I0
sssb.