ccopy_reg
_reconstructor
p0
(cutils.eval
ConfusionMatrix
p1
c__builtin__
object
p2
Ntp3
Rp4
(dp5
S'labels'
p6
(lp7
S'carve.v.03'
p8
aS'hack.v.07'
p9
aS'pepper.n.04'
p10
aS'pepper.n.03'
p11
aS'onion.n.01'
p12
aS'fill.v.01'
p13
aS'glass.n.02'
p14
aS'milk.n.01'
p15
aS'piece.n.08'
p16
aS'slice.n.06'
p17
aS'pizza.n.01'
p18
aS'slice.v.03'
p19
aS'rum.n.01'
p20
aS'shaker.n.03'
p21
aS'take.v.04'
p22
aS'bring.v.01'
p23
aS'decant.v.01'
p24
aS'pour.v.01'
p25
aS'jar.n.01'
p26
asS'instanceCount'
p27
I15
sS'matrix'
p28
(dp29
g9
(dp30
g9
I0
ssg19
(dp31
S'slice.v.03'
p32
I1
ssg8
(dp33
g9
I1
ssg10
(dp34
g11
I1
ssg17
(dp35
g17
I0
ssg11
(dp36
g11
I0
ssg13
(dp37
S'fill.v.01'
p38
I2
ssg22
(dp39
g23
I1
ssg26
(dp40
S'jar.n.01'
p41
I1
ssg25
(dp42
g25
I0
ssg21
(dp43
S'shaker.n.03'
p44
I1
ssg24
(dp45
g25
I1
ssg20
(dp46
S'rum.n.01'
p47
I1
ssg16
(dp48
g17
I1
ssg18
(dp49
S'pizza.n.01'
p50
I1
ssg12
(dp51
S'onion.n.01'
p52
I1
ssg15
(dp53
S'milk.n.01'
p54
I1
ssg14
(dp55
S'glass.n.02'
p56
I1
ssg23
(dp57
g23
I0
sssb.