ccopy_reg
_reconstructor
p0
(cutils.eval
ConfusionMatrix
p1
c__builtin__
object
p2
Ntp3
Rp4
(dp5
S'labels'
p6
(lp7
S'fill.v.01'
p8
aS'thermos.n.01'
p9
aS'coffee.n.01'
p10
aS'bread.n.01'
p11
aS'piece.n.08'
p12
aS'slice.n.06'
p13
aS'add.v.01'
p14
aS'lend.v.01'
p15
aS'cover.v.01'
p16
aS'cover.v.16'
p17
aS'rib.n.03'
p18
aS'rib.n.01'
p19
aS'cut.v.01'
p20
aS'cut.v.32'
p21
aS'squash.n.02'
p22
aS'squash.n.01'
p23
aS'tomato.n.01'
p24
aS'tomato.n.02'
p25
aS'slice.n.04'
p26
aS'onion.n.03'
p27
aS'onion.n.02'
p28
aS'mustard.n.02'
p29
aS'opening.n.01'
p30
aS'opening.n.10'
p31
aS'fill.v.09'
p32
aS'curd.n.01'
p33
aS'strawberry.n.01'
p34
aS'edit.v.03'
p35
aS'whiskey.n.01'
p36
aS'carafe.n.01'
p37
aS'put.v.01'
p38
aS'put.v.02'
p39
aS'sauce.n.01'
p40
aS'bottle.n.01'
p41
aS'fruit_juice.n.01'
p42
aS'wok.n.01'
p43
aS'rice.n.01'
p44
aS'pan.n.01'
p45
aS'pan.n.03'
p46
aS'water.n.06'
p47
aS'cheese.n.01'
p48
aS'slice.v.03'
p49
aS'mixing_bowl.n.01'
p50
aS'butter.n.01'
p51
aS'sugar.n.01'
p52
aS'boodle.n.01'
p53
aS'measuring_cup.n.01'
p54
aS'meal.n.03'
p55
aS'pepper.n.03'
p56
aS'salt.n.02'
p57
aS'salt.n.04'
p58
aS'egg.n.02'
p59
aS'egg.n.01'
p60
aS'onion.n.01'
p61
aS'beef.n.02'
p62
aS'gripe.n.01'
p63
aS'plate.n.04'
p64
aS'plate.n.13'
p65
aS'cup.n.01'
p66
aS'cola.n.02'
p67
aS'teapot.n.01'
p68
aS'walnut.n.01'
p69
aS'walnut.n.02'
p70
aS'get.v.01'
p71
aS'make.v.02'
p72
aS'pear.n.01'
p73
aS'pear.n.02'
p74
aS'blend.v.03'
p75
aS'mix.v.05'
p76
aS'bowl.n.01'
p77
aS'bowl.n.08'
p78
aS'blend.v.01'
p79
aS'knife.n.01'
p80
aS'tongue.n.03'
p81
aS'banana.n.02'
p82
aS'fork.n.01'
p83
aS'branching.n.01'
p84
aS'kettle.n.01'
p85
aS'vanilla.n.02'
p86
aS'vanilla.n.03'
p87
aS'concoction.n.01'
p88
aS'ice.n.01'
p89
aS'ice.n.05'
p90
aS'cut.n.16'
p91
aS'bag.n.01'
p92
aS'bag.n.04'
p93
aS'gap.n.03'
p94
aS'batter.n.02'
p95
aS'flesh.n.01'
p96
aS'human_body.n.01'
p97
aS'jar.n.01'
p98
aS'gravy.n.01'
p99
aS'gravy.n.02'
p100
aS'carve.v.03'
p101
aS'hack.v.07'
p102
aS'pepper.n.04'
p103
aS'glass.n.02'
p104
aS'milk.n.01'
p105
aS'pizza.n.01'
p106
aS'rum.n.01'
p107
aS'shaker.n.03'
p108
aS'take.v.04'
p109
aS'bring.v.01'
p110
aS'decant.v.01'
p111
aS'pour.v.01'
p112
aS'pitcher.n.02'
p113
aS'water_system.n.02'
p114
aS'mix.n.03'
p115
aS'chicken.n.01'
p116
aS'wimp.n.01'
p117
aS'corn.n.02'
p118
aS'corn.n.03'
p119
aS'chop.v.01'
p120
aS'chop.v.05'
p121
aS'burner.n.02'
p122
aS'burner.n.01'
p123
aS'pan.n.02'
p124
aS'dough.n.01'
p125
aS'mix.v.04'
p126
aS'liquid.n.01'
p127
aS'sink.n.01'
p128
aS'cesspool.n.01'
p129
aS'apple.n.01'
p130
aS'serve.v.05'
p131
aS'serve.v.11'
p132
aS'pot.n.01'
p133
aS'lodge.v.02'
p134
aS'stick.v.08'
p135
aS'mug.n.04'
p136
aS'saltcellar.n.01'
p137
aS'avocado.n.01'
p138
asS'instanceCount'
p139
I155
sS'matrix'
p140
(dp141
g77
(dp142
g65
I0
sg62
I0
sg72
I0
sg94
I0
sS'water.n.06'
p143
I0
sg77
I1
sg95
I0
sg80
I0
sS'fill.v.01'
p144
I0
sS'add.v.01'
p145
I0
sg78
I3
sg67
I0
sg82
I0
sS'fill.v.09'
p146
I0
sg59
I0
sg60
I0
sg71
I0
sg66
I0
sg93
I0
sg74
I0
sg73
I0
sg92
I0
sg87
I0
sg86
I0
sg76
I0
sg83
I0
sg99
I0
sg57
I0
sg100
I0
sg75
I0
sg79
I0
sg58
I0
sg64
I0
sS'edit.v.03'
p147
I0
sg70
I0
sg56
I0
sg69
I0
sg97
I0
sg63
I0
sg88
I0
sg98
I0
sS'opening.n.01'
p148
I0
sg68
I0
sg96
I0
sS'put.v.02'
p149
I0
sS'put.v.01'
p150
I0
sg89
I0
sg85
I0
sg90
I0
sg81
I0
sS'lend.v.01'
p151
I0
sS'slice.v.03'
p152
I0
sg91
I0
sg61
I0
sS'onion.n.03'
p153
I0
sg84
I0
ssg78
(dp154
g65
I0
sg62
I0
sg72
I0
sg143
I0
sg77
I0
sg80
I0
sg66
I0
sg145
I0
sg78
I0
sg67
I0
sg82
I0
sg59
I0
sg60
I0
sg71
I0
sg144
I0
sg74
I0
sg73
I0
sg87
I0
sg86
I0
sg76
I0
sg83
I0
sg57
I0
sg75
I0
sg79
I0
sg58
I0
sg64
I0
sg70
I0
sg56
I0
sg69
I0
sg63
I0
sg88
I0
sg68
I0
sg149
I0
sg150
I0
sg85
I0
sg81
I0
sg151
I0
sg152
I0
sg61
I0
sg153
I0
sg84
I0
ssg20
(dp155
g34
I0
sg128
I0
sg11
I0
sg131
I0
sg38
I0
sg130
I0
sg31
I0
sg14
I0
sS'pan.n.01'
p156
I0
sg29
I0
sg20
I0
sg32
I0
sg41
I0
sg25
I0
sg24
I0
sg8
I0
sg23
I0
sg22
I0
sg40
I0
sg16
I0
sg18
I0
sg35
I2
sg19
I0
sS'mix.n.03'
p157
I0
sg10
I0
sS'pan.n.03'
p158
I0
sg127
I0
sg12
I0
sg36
I0
sg129
I0
sg30
I0
sg42
I0
sg39
I0
sg132
I0
sg9
I0
sg13
I0
sg21
I1
sg26
I0
sS'pour.v.01'
p159
I0
sg17
I0
sg15
I0
sg33
I0
sg37
I0
sg27
I0
sg28
I0
ssg16
(dp160
g11
I0
sg14
I0
sg29
I0
sg20
I0
sg25
I0
sg24
I0
sg8
I0
sg23
I0
sg22
I0
sg16
I0
sg18
I0
sg19
I0
sg10
I0
sg12
I0
sg9
I0
sg13
I0
sg21
I0
sg26
I0
sg17
I1
sg15
I0
sg27
I0
sg28
I0
ssg54
(dp161
g45
I0
sg48
I0
sg46
I0
sg55
I0
sg49
I0
sg43
I0
sg51
I0
sg44
I0
sg50
I0
sg47
I0
sS'fill.v.01'
p162
I0
sS'lend.v.01'
p163
I0
sg54
I1
sg53
I0
sS'add.v.01'
p164
I0
sg52
I0
ssg99
(dp165
g99
I0
sg93
I0
sg100
I1
sg94
I0
sg146
I0
sg96
I0
sg147
I0
sg97
I0
sS'fill.v.01'
p166
I0
sg89
I0
sS'bowl.n.01'
p167
I0
sg90
I0
sg92
I0
sg95
I0
sS'slice.v.03'
p168
I0
sg91
I0
sg98
I0
sg148
I0
ssg100
(dp169
g99
I0
sg93
I0
sg100
I0
sg94
I0
sg146
I0
sg96
I0
sg147
I0
sg97
I0
sg166
I0
sg89
I0
sg167
I0
sg90
I0
sg92
I0
sg95
I0
sg168
I0
sg91
I0
sg98
I0
sg148
I0
ssg18
(dp170
g11
I0
sg14
I0
sg29
I0
sg20
I0
sg25
I0
sg24
I0
sg8
I0
sg23
I0
sg22
I0
sg16
I0
sg18
I0
sg19
I1
sg10
I0
sg12
I0
sg9
I0
sg13
I0
sg21
I0
sg26
I0
sg17
I0
sg15
I0
sg27
I0
sg28
I0
ssg19
(dp171
g11
I0
sg14
I0
sg29
I0
sg20
I0
sg25
I0
sg24
I0
sg8
I0
sg23
I0
sg22
I0
sg16
I0
sg18
I0
sg19
I0
sg10
I0
sg12
I0
sg9
I0
sg13
I0
sg21
I0
sg26
I0
sg17
I0
sg15
I0
sg27
I0
sg28
I0
ssg70
(dp172
g65
I0
sg62
I0
sg72
I0
sg143
I0
sg77
I0
sg144
I0
sg78
I0
sg67
I0
sg59
I0
sg60
I0
sg71
I0
sg66
I0
sg74
I0
sg73
I0
sg76
I0
sg57
I0
sg75
I0
sg58
I0
sg64
I0
sg70
I0
sg56
I0
sg69
I0
sg63
I0
sg68
I0
sg149
I0
sg150
I0
sg61
I0
sg153
I0
ssg83
(dp173
S'put.v.02'
p174
I0
sS'bowl.n.01'
p175
I0
sS'blend.v.03'
p176
I0
sS'bowl.n.08'
p177
I0
sg145
I0
sg79
I0
sS'egg.n.02'
p178
I0
sS'egg.n.01'
p179
I0
sS'fill.v.01'
p180
I0
sg87
I0
sg86
I0
sS'mix.v.05'
p181
I0
sg152
I0
sg80
I0
sg82
I0
sg83
I0
sg84
I1
sg88
I0
sS'water.n.06'
p182
I0
sS'put.v.01'
p183
I0
sg85
I0
sg81
I0
sg151
I0
ssg69
(dp184
g65
I0
sg62
I0
sg72
I0
sg143
I0
sg77
I0
sg66
I0
sg78
I0
sg67
I0
sg59
I0
sg60
I0
sg71
I0
sg144
I0
sg74
I0
sg73
I0
sg76
I0
sg57
I0
sg75
I0
sg58
I0
sg64
I0
sg70
I1
sg56
I0
sg69
I0
sg63
I0
sg68
I0
sg149
I0
sg150
I0
sg61
I0
sg153
I0
ssg126
(dp185
g119
I0
sg118
I0
sg116
I0
sg117
I0
sS'add.v.01'
p186
I0
sS'milk.n.01'
p187
I0
sS'pan.n.01'
p188
I0
sg124
I0
sS'egg.n.02'
p189
I0
sS'butter.n.01'
p190
I0
sS'fill.v.01'
p191
I0
sg113
I0
sg121
I0
sg120
I0
sS'vanilla.n.02'
p192
I0
sg126
I0
sS'concoction.n.01'
p193
I0
sS'vanilla.n.03'
p194
I0
sg125
I0
sS'lend.v.01'
p195
I0
sS'boodle.n.01'
p196
I0
sS'mix.v.05'
p197
I1
sS'egg.n.01'
p198
I0
sS'rice.n.01'
p199
I0
sg114
I0
sS'water.n.06'
p200
I0
sS'pour.v.01'
p201
I0
sg115
I0
sg122
I0
sg123
I0
ssg97
(dp202
g99
I0
sg93
I0
sg100
I0
sg94
I0
sg146
I0
sg96
I0
sg147
I0
sg167
I0
sg166
I0
sg89
I0
sg97
I0
sg90
I0
sg92
I0
sg95
I0
sg168
I0
sg91
I0
sg98
I0
sg148
I0
ssg110
(dp203
g102
I0
sS'slice.v.03'
p204
I0
sg101
I0
sg103
I0
sS'slice.n.06'
p205
I0
sS'pepper.n.03'
p206
I0
sS'fill.v.01'
p207
I0
sg108
I0
sg109
I0
sS'jar.n.01'
p208
I0
sg112
I0
sg110
I0
sg111
I0
sg107
I0
sS'piece.n.08'
p209
I0
sg106
I0
sS'onion.n.01'
p210
I0
sg105
I0
sg104
I0
ssg36
(dp211
g34
I0
sg42
I0
sS'cut.v.01'
p212
I0
sg32
I0
sg41
I0
sS'slice.n.06'
p213
I0
sg35
I0
sg39
I0
sg38
I0
sS'fill.v.01'
p214
I0
sg33
I0
sg31
I0
sS'piece.n.08'
p215
I0
sg37
I0
sg36
I1
sg40
I0
sg30
I0
ssg30
(dp216
g34
I0
sg167
I0
sg95
I0
sg31
I1
sg212
I0
sg94
I1
sg32
I0
sg41
I0
sg214
I0
sg93
I0
sg92
I0
sg40
I0
sg99
I0
sg168
I0
sg100
I0
sg35
I0
sg97
I0
sg215
I0
sg36
I0
sg30
I0
sg42
I0
sg96
I0
sg213
I0
sg39
I0
sg38
I0
sg89
I0
sg90
I0
sg33
I0
sg98
I0
sg91
I0
sg37
I0
ssg96
(dp217
g99
I0
sg93
I0
sg100
I0
sg94
I0
sg96
I0
sg146
I0
sg147
I0
sg97
I1
sg166
I0
sg89
I0
sg167
I0
sg90
I0
sg92
I0
sg95
I0
sg168
I0
sg91
I0
sg98
I0
sg148
I0
ssg47
(dp218
g65
I0
sg48
I0
sg119
I0
sg118
I0
sg116
I0
sg84
I0
sg57
I0
sg134
I0
sg72
I0
sg50
I0
sg71
I0
sg149
I0
sg77
I0
sS'pizza.n.01'
p219
I0
sg117
I0
sg135
I0
sg80
I0
sg66
I0
sg164
I0
sg113
I0
sg45
I0
sg46
I0
sg78
I0
sg67
I0
sg82
I0
sg138
I0
sg74
I0
sg59
I0
sg51
I0
sg62
I0
sg133
I0
sg121
I0
sg162
I0
sg64
I0
sg73
I0
sg87
I0
sg86
I0
sg126
I0
sg54
I0
sg125
I0
sg83
I0
sg88
I0
sg137
I0
sg49
I0
sg75
I0
sg120
I0
sg79
I0
sg58
I0
sg43
I0
sg115
I0
sg70
I0
sg56
I0
sg53
I0
sg124
I0
sg63
I0
sg76
I0
sg69
I0
sg136
I0
sg68
I0
sg187
I0
sg44
I0
sg114
I1
sg47
I4
sg150
I0
sg122
I0
sg85
I0
sg201
I0
sg123
I0
sg81
I0
sg163
I0
sg52
I0
sg61
I0
sg60
I0
sg153
I0
sg55
I0
ssg38
(dp220
g65
I0
sg34
I0
sg62
I0
sg134
I0
sg72
I0
sg143
I0
sg77
I0
sg135
I0
sg31
I0
sg66
I0
sg145
I0
sS'pan.n.01'
p221
I0
sS'pan.n.03'
p222
I0
sg212
I0
sg67
I0
sg82
I0
sg138
I0
sg32
I0
sg41
I0
sg59
I0
sg60
I0
sg71
I0
sg133
I0
sg214
I0
sg78
I0
sg74
I0
sg73
I0
sg87
I0
sg86
I0
sg76
I0
sg83
I0
sg40
I0
sg80
I0
sg57
I0
sg75
I0
sg79
I0
sg58
I0
sg64
I0
sg70
I0
sg35
I0
sg56
I0
sg69
I0
sg63
I0
sg88
I0
sg215
I0
sg36
I0
sg30
I0
sg136
I0
sg42
I0
sg68
I0
sg61
I0
sg137
I0
sg213
I0
sg39
I4
sg38
I0
sg219
I0
sg85
I0
sg81
I0
sg151
I0
sg33
I0
sg152
I0
sg37
I0
sg153
I0
sg84
I0
ssg108
(dp223
g102
I0
sg204
I0
sg101
I0
sg103
I0
sg205
I0
sg206
I0
sg207
I0
sg109
I0
sg208
I0
sg112
I0
sg108
I1
sg111
I0
sg107
I0
sg209
I0
sg106
I0
sg210
I0
sg105
I0
sg104
I0
sg110
I0
ssg112
(dp224
g119
I0
sg118
I0
sg116
I0
sg128
I0
sg204
I0
sg101
I0
sg205
I0
sS'bread.n.01'
p225
I0
sg131
I0
sg117
I0
sg109
I0
sg130
I0
sg186
I0
sg105
I0
sg188
I0
sg158
I0
sg124
I0
sg189
I0
sg190
I0
sg207
I0
sg113
I0
sg121
I0
sg120
I0
sg192
I0
sg126
I0
sg193
I0
sg104
I0
sg102
I0
sg194
I0
sg125
I0
sg103
I0
sg195
I0
sS'edit.v.03'
p226
I0
sg206
I0
sg107
I0
sg132
I0
sS'cut.v.01'
p227
I0
sg108
I0
sg122
I0
sg197
I0
sg209
I0
sg196
I0
sg129
I0
sg198
I0
sg199
I0
sg114
I0
sg200
I0
sg106
I0
sg112
I3
sg115
I0
sg127
I0
sg208
I0
sg210
I0
sg111
I0
sg123
I0
sg110
I0
ssg104
(dp228
g102
I0
sg204
I0
sg101
I0
sg103
I0
sg205
I0
sg206
I0
sg207
I0
sg109
I0
sg208
I0
sg112
I0
sg108
I0
sg111
I0
sg107
I0
sg209
I0
sg106
I0
sg210
I0
sg105
I0
sg104
I1
sg110
I0
ssg81
(dp229
g174
I0
sg175
I0
sg176
I0
sg177
I0
sg145
I0
sg79
I0
sg178
I0
sg179
I0
sg180
I0
sg87
I0
sg86
I0
sg181
I0
sg152
I0
sg80
I0
sg82
I0
sg83
I0
sg84
I0
sg88
I0
sg182
I0
sg183
I0
sg85
I0
sg81
I0
sg151
I0
ssg98
(dp230
g102
I0
sg101
I0
sg167
I0
sg95
I0
sg109
I0
sg105
I0
sg94
I0
sg146
I0
sg166
I0
sg93
I0
sg92
I0
sg112
I0
sg104
I0
sg99
I0
sg168
I0
sg100
I0
sg103
I0
sg147
I0
sg206
I0
sg107
I0
sg97
I0
sg108
I0
sg209
I0
sg148
I0
sg96
I0
sg205
I0
sg106
I0
sg89
I0
sg90
I0
sg98
I2
sg91
I0
sg210
I0
sg111
I0
sg110
I0
ssg37
(dp231
g34
I0
sg42
I0
sg212
I0
sg32
I0
sg41
I0
sg213
I0
sg35
I0
sg39
I0
sg38
I0
sg214
I0
sg33
I0
sg31
I0
sg215
I0
sg37
I1
sg36
I0
sg40
I0
sg30
I0
ssg111
(dp232
g102
I0
sg204
I0
sg101
I0
sg103
I0
sg205
I0
sg206
I0
sg207
I0
sg109
I0
sg208
I0
sg105
I0
sg108
I0
sg107
I0
sg112
I1
sg209
I0
sg106
I0
sg210
I0
sg111
I0
sg104
I0
sg110
I0
ssg125
(dp233
g119
I0
sg118
I0
sg116
I0
sg117
I0
sg186
I0
sg187
I0
sg188
I0
sg124
I0
sg189
I0
sg190
I0
sg191
I0
sg113
I0
sg121
I0
sg120
I0
sg192
I0
sg126
I0
sg193
I0
sg194
I0
sg125
I0
sg195
I0
sg196
I1
sg197
I0
sg198
I0
sg199
I0
sg114
I0
sg200
I0
sg201
I0
sg115
I0
sg122
I0
sg123
I0
ssg116
(dp234
g119
I0
sg118
I0
sg116
I0
sg117
I1
sg186
I0
sg187
I0
sg188
I0
sg124
I0
sg189
I0
sg190
I0
sg191
I0
sg113
I0
sg121
I0
sg120
I0
sg192
I0
sg126
I0
sg193
I0
sg194
I0
sg125
I0
sg195
I0
sg196
I0
sg197
I0
sg198
I0
sg199
I0
sg114
I0
sg200
I0
sg201
I0
sg115
I0
sg122
I0
sg123
I0
ssg128
(dp235
g156
I0
sg158
I0
sg227
I0
sg128
I0
sg226
I0
sg157
I0
sS'slice.n.06'
p236
I0
sg225
I0
sg132
I0
sg131
I0
sg159
I0
sS'lend.v.01'
p237
I0
sg127
I0
sg130
I0
sS'piece.n.08'
p238
I0
sS'fill.v.01'
p239
I0
sS'add.v.01'
p240
I0
sg129
I1
ssg114
(dp241
g119
I0
sg118
I0
sg116
I0
sg117
I0
sg186
I0
sg187
I0
sg188
I0
sg124
I0
sg189
I0
sg190
I0
sg191
I0
sg113
I0
sg121
I0
sg120
I0
sg192
I0
sg126
I0
sg193
I0
sg194
I0
sg125
I0
sg195
I0
sg196
I0
sg197
I0
sg198
I0
sg199
I0
sg114
I0
sg200
I0
sg201
I0
sg115
I0
sg122
I0
sg123
I0
ssg39
(dp242
g65
I0
sg34
I0
sg62
I0
sg134
I0
sg72
I0
sg143
I0
sg77
I0
sg135
I0
sg31
I0
sg66
I0
sg145
I0
sg221
I0
sg222
I0
sg212
I0
sg67
I0
sg82
I0
sg138
I0
sg32
I0
sg41
I0
sg59
I0
sg60
I0
sg71
I0
sg133
I0
sg214
I0
sg78
I0
sg74
I0
sg73
I0
sg87
I0
sg86
I0
sg76
I0
sg83
I0
sg40
I0
sg80
I0
sg57
I0
sg75
I0
sg79
I0
sg58
I0
sg64
I0
sg70
I0
sg35
I0
sg56
I0
sg69
I0
sg63
I0
sg88
I0
sg215
I0
sg36
I0
sg30
I0
sg136
I0
sg42
I0
sg68
I0
sg61
I0
sg137
I0
sg213
I0
sg39
I0
sg38
I0
sg219
I0
sg85
I0
sg81
I0
sg151
I0
sg33
I0
sg152
I0
sg37
I0
sg153
I0
sg84
I0
ssg135
(dp243
g221
I0
sg136
I0
sg222
I0
sS'blend.v.03'
p244
I0
sg137
I0
sg134
I0
sg133
I0
sS'put.v.02'
p245
I0
sS'put.v.01'
p246
I0
sS'water.n.06'
p247
I0
sg138
I0
sg219
I0
sg135
I0
sS'mix.v.05'
p248
I0
sS'fill.v.01'
p249
I0
sS'salt.n.02'
p250
I0
ssg131
(dp251
g156
I0
sg158
I0
sg227
I0
sg128
I0
sg226
I0
sg157
I0
sg236
I0
sg225
I0
sg132
I1
sg131
I0
sg159
I0
sg237
I0
sg127
I0
sg130
I0
sg238
I0
sg239
I0
sg240
I0
sg129
I0
ssg31
(dp252
g34
I0
sg42
I0
sg212
I0
sg32
I0
sg41
I0
sg213
I0
sg35
I0
sg39
I0
sg38
I0
sg214
I0
sg33
I0
sg31
I0
sg215
I0
sg37
I0
sg36
I0
sg40
I0
sg30
I0
ssg14
(dp253
g55
I0
sg48
I0
sg119
I0
sg44
I0
sg116
I0
sg128
I0
sg120
I0
sg114
I0
sg50
I0
sg11
I0
sg175
I0
sg118
I0
sg131
I0
sg183
I0
sg117
I0
sg176
I0
sg177
I0
sg14
I0
sg187
I0
sg45
I0
sg29
I0
sg20
I0
sg82
I0
sg113
I0
sg25
I0
sg24
I0
sg121
I0
sg8
I0
sg43
I0
sg178
I0
sg23
I0
sg22
I0
sg86
I0
sg126
I0
sg54
I0
sg125
I0
sg81
I0
sg49
I0
sg80
I0
sg16
I0
sg79
I0
sg18
I0
sg226
I0
sg19
I0
sg115
I0
sg10
I0
sg46
I0
sg83
I0
sg47
I0
sg132
I0
sg179
I0
sg84
I0
sg181
I0
sg130
I0
sg12
I0
sg53
I0
sg129
I0
sg87
I0
sg124
I0
sg174
I0
sg88
I0
sg9
I0
sg13
I0
sg21
I0
sg26
I0
sg122
I0
sg85
I0
sg201
I0
sg123
I0
sg17
I0
sg15
I7
sg127
I0
sg52
I0
sg51
I0
sg27
I0
sg28
I0
ssg45
(dp254
g48
I0
sg119
I0
sg118
I0
sg116
I0
sg128
I0
sg250
I0
sg236
I0
sg50
I0
sg225
I0
sg131
I0
sg117
I0
sg135
I0
sg197
I0
sg164
I0
sg187
I0
sg45
I0
sg46
I3
sg124
I1
sg138
I0
sg137
I0
sg189
I0
sg51
I0
sg133
I0
sg162
I0
sg113
I0
sg121
I0
sg120
I0
sg192
I0
sg126
I0
sg193
I0
sg49
I0
sg244
I0
sg194
I0
sg125
I0
sg43
I0
sg115
I0
sg226
I0
sg53
I0
sg132
I0
sg227
I0
sg134
I0
sg54
I0
sg130
I0
sg238
I0
sg129
I0
sg198
I0
sg136
I0
sg245
I0
sg44
I0
sg114
I0
sg47
I0
sg246
I0
sg219
I0
sg201
I0
sg163
I0
sg127
I0
sg52
I0
sg122
I0
sg123
I0
sg55
I0
ssg46
(dp255
g48
I0
sg128
I0
sg250
I0
sg134
I0
sg50
I0
sg225
I0
sg131
I0
sg135
I0
sg130
I0
sg164
I0
sg45
I0
sg46
I0
sg227
I0
sg138
I0
sg137
I0
sg51
I0
sg133
I0
sg162
I0
sg54
I0
sg49
I0
sg244
I0
sg43
I0
sg157
I0
sg226
I0
sg53
I0
sg132
I0
sg248
I0
sg238
I0
sg129
I0
sg136
I0
sg245
I0
sg44
I0
sg236
I0
sg47
I0
sg246
I0
sg219
I0
sg159
I0
sg163
I0
sg127
I0
sg52
I0
sg55
I0
ssg124
(dp256
g119
I0
sg118
I0
sg116
I0
sg117
I0
sg186
I0
sg187
I0
sg188
I0
sg124
I0
sg189
I0
sg190
I0
sg191
I0
sg113
I0
sg121
I0
sg120
I0
sg192
I0
sg126
I0
sg193
I0
sg194
I0
sg125
I0
sg195
I0
sg196
I0
sg197
I0
sg198
I0
sg199
I0
sg114
I0
sg200
I0
sg201
I0
sg115
I0
sg122
I0
sg123
I0
ssg94
(dp257
g99
I0
sg93
I0
sg100
I0
sg94
I0
sg146
I0
sg96
I0
sg147
I0
sg97
I0
sg166
I0
sg89
I0
sg167
I0
sg90
I0
sg92
I0
sg95
I0
sg168
I0
sg91
I0
sg98
I0
sg148
I0
ssg66
(dp258
g65
I0
sg62
I0
sg72
I0
sg143
I0
sg77
I0
sg144
I0
sg78
I0
sg67
I0
sg59
I0
sg60
I0
sg71
I0
sg66
I1
sg74
I0
sg73
I0
sg76
I0
sg57
I0
sg75
I0
sg58
I0
sg64
I0
sg70
I0
sg56
I0
sg69
I0
sg63
I0
sg68
I0
sg149
I0
sg150
I0
sg61
I0
sg153
I0
ssg87
(dp259
g125
I0
sg119
I0
sg118
I0
sg116
I0
sg174
I0
sg175
I0
sg117
I0
sg176
I0
sg177
I0
sg145
I0
sg187
I0
sg188
I0
sg124
I0
sg82
I0
sg178
I0
sg179
I0
sg180
I0
sg113
I0
sg121
I0
sg87
I0
sg86
I0
sg190
I0
sg181
I0
sg152
I0
sg80
I0
sg120
I0
sg79
I0
sg115
I0
sg83
I0
sg196
I0
sg126
I0
sg84
I0
sg88
I0
sg199
I0
sg114
I0
sg182
I0
sg183
I0
sg85
I0
sg201
I0
sg81
I0
sg151
I0
sg122
I0
sg123
I0
ssg86
(dp260
g125
I0
sg119
I0
sg118
I0
sg116
I0
sg174
I0
sg175
I0
sg117
I0
sg176
I0
sg177
I0
sg145
I0
sg187
I0
sg188
I0
sg124
I0
sg79
I0
sg178
I0
sg179
I0
sg180
I0
sg113
I0
sg121
I0
sg87
I2
sg86
I0
sg190
I0
sg181
I0
sg152
I0
sg80
I0
sg120
I0
sg82
I0
sg115
I0
sg83
I0
sg196
I0
sg126
I0
sg84
I0
sg88
I0
sg199
I0
sg114
I0
sg182
I0
sg183
I0
sg85
I0
sg201
I0
sg81
I0
sg151
I0
sg122
I0
sg123
I0
ssg49
(dp261
g48
I0
sg108
I0
sg206
I0
sg102
I0
sg101
I0
sg50
I0
sg47
I0
sg112
I0
sg175
I0
sg95
I0
sg111
I0
sg109
I0
sg176
I0
sg177
I0
sg164
I0
sg105
I0
sg45
I0
sg46
I0
sg82
I0
sg146
I0
sg178
I0
sg51
I0
sg162
I0
sg93
I0
sg94
I0
sg92
I0
sg87
I0
sg86
I0
sg54
I0
sg88
I0
sg104
I0
sg99
I0
sg49
I4
sg100
I0
sg80
I0
sg79
I0
sg43
I0
sg103
I0
sg147
I0
sg83
I0
sg53
I0
sg97
I0
sg84
I0
sg181
I0
sg209
I0
sg107
I0
sg148
I0
sg91
I0
sg96
I0
sg44
I0
sg205
I0
sg174
I0
sg183
I0
sg106
I0
sg89
I0
sg110
I0
sg85
I0
sg90
I0
sg81
I0
sg163
I0
sg98
I0
sg52
I0
sg210
I0
sg179
I0
sg55
I0
ssg82
(dp262
g174
I0
sg175
I0
sg176
I0
sg177
I0
sg145
I0
sg79
I0
sg178
I0
sg179
I0
sg180
I0
sg87
I0
sg86
I0
sg181
I0
sg152
I0
sg80
I0
sg82
I1
sg83
I0
sg84
I0
sg88
I0
sg182
I0
sg183
I0
sg85
I0
sg81
I0
sg151
I0
ssg71
(dp263
g65
I0
sg62
I0
sg72
I1
sg143
I0
sg77
I0
sg144
I0
sg78
I0
sg67
I0
sg59
I0
sg60
I0
sg71
I0
sg66
I0
sg74
I0
sg73
I0
sg76
I0
sg57
I0
sg75
I0
sg58
I0
sg64
I0
sg70
I0
sg56
I0
sg69
I0
sg63
I0
sg68
I0
sg149
I0
sg150
I0
sg61
I0
sg153
I0
ssg43
(dp264
g45
I0
sg48
I0
sg46
I0
sg55
I0
sg49
I0
sg43
I1
sg51
I0
sg44
I0
sg50
I0
sg47
I0
sg162
I0
sg163
I0
sg54
I0
sg53
I0
sg164
I0
sg52
I0
ssg103
(dp265
g102
I0
sg204
I0
sg101
I0
sg103
I0
sg205
I0
sg206
I1
sg207
I0
sg109
I0
sg208
I0
sg112
I0
sg108
I0
sg111
I0
sg107
I0
sg209
I0
sg106
I0
sg210
I0
sg105
I0
sg104
I0
sg110
I0
ssg56
(dp266
g65
I0
sg62
I0
sg101
I0
sg72
I0
sg143
I0
sg77
I0
sg109
I0
sg144
I0
sg105
I0
sg78
I0
sg67
I0
sg59
I0
sg60
I0
sg71
I0
sg102
I0
sg66
I0
sg74
I0
sg73
I0
sg76
I0
sg104
I0
sg57
I0
sg75
I0
sg58
I0
sg64
I0
sg103
I0
sg70
I0
sg63
I0
sg69
I0
sg56
I1
sg209
I0
sg107
I0
sg208
I0
sg68
I0
sg205
I0
sg149
I0
sg150
I0
sg106
I0
sg108
I0
sg112
I0
sg204
I0
sg61
I0
sg111
I0
sg153
I0
sg110
I0
ssg107
(dp267
g102
I0
sg204
I0
sg101
I0
sg103
I0
sg205
I0
sg206
I0
sg107
I1
sg208
I0
sg106
I0
sg112
I0
sg108
I0
sg111
I0
sg109
I0
sg209
I0
sg207
I0
sg210
I0
sg105
I0
sg104
I0
sg110
I0
ssg63
(dp268
g65
I0
sg62
I0
sg72
I0
sg143
I0
sg77
I0
sg144
I0
sg78
I0
sg67
I0
sg59
I0
sg60
I0
sg71
I0
sg66
I0
sg74
I0
sg73
I0
sg76
I0
sg57
I0
sg75
I0
sg58
I0
sg64
I0
sg70
I0
sg56
I0
sg69
I0
sg63
I0
sg68
I0
sg149
I0
sg150
I0
sg61
I0
sg153
I0
ssg42
(dp269
g34
I0
sg42
I1
sg212
I0
sg32
I0
sg41
I0
sg213
I0
sg35
I0
sg39
I0
sg38
I0
sg214
I0
sg33
I0
sg31
I0
sg215
I0
sg37
I0
sg36
I0
sg40
I0
sg30
I0
ssg68
(dp270
g65
I0
sg62
I0
sg72
I0
sg143
I0
sg77
I0
sg144
I0
sg78
I0
sg67
I0
sg59
I0
sg60
I0
sg71
I0
sg66
I0
sg74
I0
sg73
I0
sg76
I0
sg57
I0
sg75
I0
sg58
I0
sg64
I0
sg70
I0
sg56
I0
sg69
I0
sg63
I0
sg68
I1
sg149
I0
sg150
I0
sg61
I0
sg153
I0
ssg89
(dp271
g99
I0
sg93
I0
sg100
I0
sg94
I0
sg146
I0
sg96
I0
sg147
I0
sg97
I0
sg166
I0
sg89
I0
sg167
I0
sg90
I1
sg92
I0
sg95
I0
sg168
I0
sg91
I0
sg98
I0
sg148
I0
ssg85
(dp272
g174
I0
sg175
I0
sg176
I0
sg177
I0
sg145
I0
sg79
I0
sg178
I0
sg179
I0
sg180
I0
sg87
I0
sg86
I0
sg181
I0
sg152
I0
sg80
I0
sg82
I0
sg83
I0
sg84
I0
sg88
I0
sg182
I0
sg183
I0
sg85
I1
sg81
I0
sg151
I0
ssg90
(dp273
g99
I0
sg93
I0
sg100
I0
sg94
I0
sg146
I0
sg96
I0
sg147
I0
sg97
I0
sg166
I0
sg89
I0
sg167
I0
sg90
I0
sg92
I0
sg95
I0
sg168
I0
sg91
I0
sg98
I0
sg148
I0
ssg15
(dp274
g55
I0
sg48
I0
sg119
I0
sg44
I0
sg116
I0
sg128
I0
sg120
I0
sg114
I0
sg50
I0
sg11
I0
sg175
I0
sg118
I0
sg131
I0
sg183
I0
sg117
I0
sg176
I0
sg177
I0
sg14
I0
sg187
I0
sg45
I0
sg29
I0
sg20
I0
sg82
I0
sg113
I0
sg25
I0
sg24
I0
sg121
I0
sg8
I0
sg43
I0
sg178
I0
sg23
I0
sg22
I0
sg86
I0
sg126
I0
sg54
I0
sg125
I0
sg81
I0
sg49
I0
sg80
I0
sg16
I0
sg79
I0
sg18
I0
sg226
I0
sg19
I0
sg115
I0
sg10
I0
sg46
I0
sg83
I0
sg47
I0
sg132
I0
sg179
I0
sg84
I0
sg181
I0
sg130
I0
sg12
I0
sg53
I0
sg129
I0
sg87
I0
sg124
I0
sg174
I0
sg88
I0
sg9
I0
sg13
I0
sg21
I0
sg26
I0
sg122
I0
sg85
I0
sg201
I0
sg123
I0
sg17
I0
sg15
I0
sg127
I0
sg52
I0
sg51
I0
sg27
I0
sg28
I0
ssg33
(dp275
g34
I0
sg42
I0
sg212
I0
sg32
I0
sg41
I0
sg213
I0
sg35
I0
sg39
I0
sg38
I0
sg214
I0
sg33
I1
sg31
I0
sg215
I0
sg37
I0
sg36
I0
sg40
I0
sg30
I0
ssg61
(dp276
g65
I0
sg62
I0
sg101
I0
sg72
I0
sg143
I0
sg77
I0
sg109
I0
sg144
I0
sg105
I0
sg78
I0
sg67
I0
sg59
I0
sg60
I0
sg71
I0
sg102
I0
sg66
I0
sg74
I0
sg73
I0
sg76
I0
sg104
I0
sg57
I0
sg75
I0
sg58
I0
sg64
I0
sg103
I0
sg70
I0
sg56
I0
sg69
I0
sg63
I0
sg209
I0
sg107
I0
sg208
I0
sg68
I0
sg205
I0
sg149
I0
sg150
I0
sg106
I0
sg108
I0
sg112
I0
sg204
I0
sg61
I1
sg111
I0
sg153
I1
sg110
I0
ssg27
(dp277
g65
I0
sg62
I0
sg72
I0
sg11
I0
sg77
I0
sg150
I0
sg66
I0
sg14
I0
sg29
I0
sg20
I0
sg67
I0
sg74
I0
sg25
I0
sg24
I0
sg71
I0
sg8
I0
sg78
I0
sg64
I0
sg73
I0
sg23
I0
sg22
I0
sg76
I0
sg149
I0
sg57
I0
sg75
I0
sg16
I0
sg58
I0
sg18
I0
sg70
I0
sg19
I0
sg10
I0
sg56
I0
sg143
I0
sg63
I0
sg12
I0
sg69
I0
sg68
I0
sg59
I0
sg9
I0
sg13
I0
sg21
I0
sg26
I0
sg17
I0
sg15
I0
sg61
I0
sg60
I0
sg27
I0
sg28
I1
ssg55
(dp278
g45
I0
sg48
I0
sg46
I0
sg53
I0
sg49
I0
sg43
I0
sg51
I0
sg44
I0
sg50
I0
sg47
I0
sg162
I0
sg163
I0
sg54
I0
sg52
I0
sg164
I0
sg55
I1
ssg34
(dp279
g34
I1
sg42
I0
sg212
I0
sg32
I0
sg41
I0
sg213
I0
sg35
I0
sg39
I0
sg38
I0
sg214
I0
sg33
I0
sg31
I0
sg215
I0
sg37
I0
sg36
I0
sg40
I0
sg30
I0
ssg119
(dp280
g119
I0
sg118
I0
sg116
I0
sg117
I0
sg186
I0
sg187
I0
sg188
I0
sg124
I0
sg189
I0
sg190
I0
sg191
I0
sg113
I0
sg121
I0
sg120
I0
sg192
I0
sg126
I0
sg193
I0
sg194
I0
sg125
I0
sg195
I0
sg196
I0
sg197
I0
sg198
I0
sg199
I0
sg114
I0
sg200
I0
sg201
I0
sg115
I0
sg122
I0
sg123
I0
ssg118
(dp281
g119
I1
sg118
I0
sg116
I0
sg117
I0
sg186
I0
sg187
I0
sg188
I0
sg124
I0
sg189
I0
sg190
I0
sg191
I0
sg113
I0
sg121
I0
sg120
I0
sg192
I0
sg126
I0
sg193
I0
sg194
I0
sg125
I0
sg195
I0
sg196
I0
sg197
I0
sg198
I0
sg199
I0
sg114
I0
sg200
I0
sg201
I0
sg115
I0
sg122
I0
sg123
I0
ssg62
(dp282
g65
I0
sg62
I0
sg72
I0
sg143
I0
sg77
I0
sg144
I0
sg78
I0
sg67
I0
sg59
I0
sg60
I0
sg71
I0
sg66
I0
sg74
I0
sg73
I0
sg76
I0
sg57
I0
sg75
I0
sg58
I0
sg64
I0
sg70
I0
sg56
I0
sg69
I0
sg63
I1
sg68
I0
sg149
I0
sg150
I0
sg61
I0
sg153
I0
ssg101
(dp283
g102
I1
sg204
I0
sg101
I0
sg103
I0
sg205
I0
sg206
I0
sg207
I0
sg109
I0
sg208
I0
sg112
I0
sg108
I0
sg111
I0
sg107
I0
sg209
I0
sg106
I0
sg210
I0
sg105
I0
sg104
I0
sg110
I0
ssg134
(dp284
g221
I0
sg136
I0
sg222
I0
sg244
I0
sg137
I0
sg134
I0
sg133
I0
sg245
I0
sg246
I0
sg247
I0
sg138
I0
sg219
I0
sg135
I1
sg248
I0
sg249
I0
sg250
I0
ssg72
(dp285
g65
I0
sg62
I0
sg72
I0
sg143
I0
sg77
I0
sg144
I0
sg78
I0
sg67
I0
sg59
I0
sg60
I0
sg71
I0
sg66
I0
sg74
I0
sg73
I0
sg76
I0
sg57
I0
sg75
I0
sg58
I0
sg64
I0
sg70
I0
sg56
I0
sg69
I0
sg63
I0
sg68
I0
sg149
I0
sg150
I0
sg61
I0
sg153
I0
ssg50
(dp286
g45
I0
sg48
I0
sg46
I0
sg55
I0
sg49
I0
sg43
I0
sg51
I0
sg44
I0
sg50
I1
sg47
I0
sg162
I0
sg163
I0
sg54
I0
sg53
I0
sg164
I0
sg52
I0
ssg109
(dp287
g102
I0
sg204
I0
sg101
I0
sg103
I0
sg205
I0
sg107
I0
sg206
I0
sg207
I0
sg208
I0
sg112
I0
sg108
I0
sg111
I0
sg109
I0
sg209
I0
sg106
I0
sg210
I0
sg105
I0
sg104
I0
sg110
I1
ssg29
(dp288
g11
I0
sg14
I0
sg29
I1
sg20
I0
sg25
I0
sg24
I0
sg8
I0
sg23
I0
sg22
I0
sg16
I0
sg18
I0
sg19
I0
sg10
I0
sg12
I0
sg9
I0
sg13
I0
sg21
I0
sg26
I0
sg17
I0
sg15
I0
sg27
I0
sg28
I0
ssg32
(dp289
g34
I0
sg167
I0
sg95
I0
sg31
I0
sg212
I0
sg94
I0
sg32
I0
sg41
I0
sg214
I2
sg93
I0
sg92
I0
sg40
I0
sg99
I0
sg168
I0
sg100
I0
sg35
I0
sg97
I0
sg215
I0
sg36
I0
sg30
I0
sg42
I0
sg96
I0
sg213
I0
sg39
I0
sg38
I0
sg89
I0
sg90
I0
sg33
I0
sg98
I0
sg91
I0
sg37
I0
ssg41
(dp290
g34
I0
sg42
I0
sg212
I0
sg32
I0
sg41
I1
sg213
I0
sg35
I0
sg39
I0
sg38
I0
sg214
I0
sg33
I0
sg31
I0
sg215
I0
sg37
I0
sg36
I0
sg40
I0
sg30
I0
ssg137
(dp291
g247
I0
sg221
I0
sg222
I0
sg244
I0
sg137
I1
sg134
I0
sg133
I0
sg245
I0
sg246
I0
sg249
I0
sg138
I0
sg135
I0
sg248
I0
sg219
I0
sg250
I0
sg136
I0
ssg133
(dp292
g221
I0
sg136
I0
sg222
I0
sg244
I0
sg137
I0
sg134
I0
sg133
I1
sg245
I0
sg246
I0
sg247
I0
sg138
I0
sg219
I0
sg135
I0
sg248
I0
sg249
I0
sg250
I0
ssg8
(dp293
g77
I0
sg78
I0
sg20
I0
sg16
I0
sg54
I0
sg99
I0
sg100
I0
sg18
I0
sg19
I0
sg70
I0
sg83
I0
sg69
I0
sg126
I0
sg97
I0
sg110
I0
sg36
I0
sg30
I0
sg96
I0
sg47
I0
sg38
I0
sg108
I0
sg112
I0
sg104
I0
sg81
I0
sg98
I0
sg37
I0
sg111
I0
sg125
I0
sg116
I0
sg128
I0
sg114
I0
sg39
I0
sg135
I0
sg131
I0
sg31
I0
sg14
I0
sg45
I0
sg46
I0
sg124
I0
sg94
I0
sg66
I0
sg87
I0
sg86
I0
sg49
I0
sg82
I0
sg71
I0
sg43
I0
sg103
I0
sg56
I0
sg107
I0
sg63
I0
sg42
I0
sg68
I0
sg89
I0
sg85
I0
sg90
I0
sg15
I0
sg33
I0
sg61
I0
sg27
I0
sg55
I0
sg34
I0
sg119
I0
sg118
I0
sg62
I0
sg101
I0
sg134
I0
sg72
I0
sg50
I0
sg109
I0
sg29
I0
sg32
I0
sg41
I0
sg137
I0
sg133
I0
sg8
I18
sg74
I0
sg73
I0
sg23
I0
sg22
I0
sg88
I0
sg57
I0
sg80
I0
sg58
I0
sg64
I0
sg10
I0
sg84
I0
sg130
I0
sg136
I0
sg13
I0
sg138
I0
sg26
I0
sg106
I0
sg91
I0
sg122
I0
sg123
I0
sg65
I0
sg48
I0
sg9
I0
sg102
I0
sg11
I0
sg95
I0
sg117
I0
sg105
I0
sg67
I0
sg113
I0
sg25
I0
sg24
I0
sg93
I0
sg121
I0
sg92
I0
sg120
I0
sg51
I0
sg76
I0
sg40
I0
sg75
I0
sg79
I0
sg115
I0
sg35
I0
sg53
I0
sg12
I0
sg129
I0
sg132
I0
sg44
I0
sg21
I0
sg17
I0
sg59
I0
sg127
I0
sg28
I0
sg60
I0
sg52
I0
ssg74
(dp294
g65
I0
sg62
I0
sg72
I0
sg143
I0
sg77
I0
sg144
I0
sg78
I0
sg67
I0
sg59
I0
sg60
I0
sg71
I0
sg66
I0
sg74
I0
sg73
I0
sg76
I0
sg57
I0
sg75
I0
sg58
I0
sg64
I0
sg70
I0
sg56
I0
sg69
I0
sg63
I0
sg68
I0
sg149
I0
sg150
I0
sg61
I0
sg153
I0
ssg73
(dp295
g65
I0
sg62
I0
sg72
I0
sg143
I0
sg77
I0
sg144
I0
sg78
I0
sg67
I0
sg59
I0
sg60
I0
sg71
I0
sg66
I0
sg74
I1
sg73
I0
sg76
I0
sg57
I0
sg75
I0
sg58
I0
sg64
I0
sg70
I0
sg56
I0
sg69
I0
sg63
I0
sg68
I0
sg149
I0
sg150
I0
sg61
I0
sg153
I0
ssg23
(dp296
g11
I0
sg14
I0
sg29
I0
sg20
I0
sg25
I0
sg24
I0
sg8
I0
sg23
I0
sg22
I0
sg16
I0
sg18
I0
sg19
I0
sg10
I0
sg12
I0
sg9
I0
sg13
I0
sg21
I0
sg26
I0
sg17
I0
sg15
I0
sg27
I0
sg28
I0
ssg22
(dp297
g11
I0
sg14
I0
sg29
I0
sg20
I0
sg25
I0
sg24
I0
sg8
I0
sg23
I1
sg16
I0
sg22
I0
sg18
I0
sg19
I0
sg10
I0
sg12
I0
sg9
I0
sg13
I0
sg21
I0
sg26
I0
sg17
I0
sg15
I0
sg27
I0
sg28
I0
ssg88
(dp298
g125
I0
sg119
I0
sg118
I0
sg116
I0
sg174
I0
sg175
I0
sg117
I0
sg176
I0
sg177
I0
sg145
I0
sg187
I0
sg188
I0
sg124
I0
sg79
I0
sg178
I0
sg179
I0
sg180
I0
sg113
I0
sg121
I0
sg87
I0
sg86
I0
sg190
I0
sg181
I0
sg152
I0
sg80
I0
sg120
I0
sg82
I0
sg115
I1
sg83
I0
sg196
I0
sg126
I0
sg84
I0
sg88
I1
sg199
I0
sg114
I0
sg182
I0
sg183
I0
sg85
I0
sg201
I0
sg81
I0
sg151
I0
sg122
I0
sg123
I0
ssg57
(dp299
g65
I0
sg62
I0
sg134
I0
sg72
I0
sg143
I0
sg77
I0
sg135
I0
sg144
I0
sg221
I0
sg222
I0
sg78
I0
sg67
I0
sg138
I0
sg137
I0
sg59
I0
sg60
I0
sg71
I0
sg133
I0
sg66
I0
sg74
I0
sg73
I0
sg76
I0
sg57
I1
sg75
I0
sg58
I1
sg64
I0
sg70
I0
sg63
I0
sg69
I0
sg56
I0
sg136
I0
sg68
I0
sg149
I0
sg150
I0
sg219
I0
sg61
I0
sg153
I0
ssg80
(dp300
g174
I0
sg175
I0
sg176
I0
sg177
I0
sg145
I0
sg79
I0
sg178
I0
sg179
I0
sg180
I0
sg87
I0
sg86
I0
sg181
I0
sg152
I0
sg80
I0
sg82
I0
sg83
I0
sg84
I0
sg88
I0
sg182
I0
sg183
I0
sg85
I0
sg81
I1
sg151
I0
ssg58
(dp301
g65
I0
sg62
I0
sg72
I0
sg143
I0
sg77
I0
sg144
I0
sg78
I0
sg67
I0
sg59
I0
sg60
I0
sg71
I0
sg66
I0
sg74
I0
sg73
I0
sg76
I0
sg57
I0
sg75
I0
sg58
I0
sg64
I0
sg70
I0
sg63
I0
sg69
I0
sg56
I0
sg68
I0
sg149
I0
sg150
I0
sg61
I0
sg153
I0
ssg64
(dp302
g65
I1
sg62
I0
sg72
I0
sg143
I0
sg77
I0
sg144
I0
sg78
I0
sg67
I0
sg59
I0
sg60
I0
sg71
I0
sg66
I0
sg74
I0
sg73
I0
sg76
I0
sg57
I0
sg75
I0
sg58
I0
sg64
I0
sg70
I0
sg56
I0
sg69
I0
sg63
I0
sg68
I0
sg149
I0
sg150
I0
sg61
I0
sg153
I0
ssg10
(dp303
g11
I0
sg14
I0
sg29
I0
sg20
I0
sg25
I0
sg24
I0
sg8
I0
sg23
I0
sg22
I0
sg16
I0
sg18
I0
sg19
I0
sg10
I1
sg12
I0
sg9
I0
sg13
I0
sg21
I0
sg26
I0
sg17
I0
sg15
I0
sg27
I0
sg28
I0
ssg84
(dp304
g174
I0
sg175
I0
sg176
I0
sg177
I0
sg145
I0
sg79
I0
sg178
I0
sg179
I0
sg180
I0
sg87
I0
sg86
I0
sg181
I0
sg152
I0
sg80
I0
sg82
I0
sg83
I0
sg84
I0
sg88
I0
sg182
I0
sg183
I0
sg85
I0
sg81
I0
sg151
I0
ssg130
(dp305
g156
I0
sg158
I0
sg227
I0
sg128
I0
sg226
I0
sg157
I0
sg236
I0
sg225
I0
sg132
I0
sg131
I0
sg159
I0
sg237
I0
sg127
I0
sg130
I1
sg238
I0
sg239
I0
sg240
I0
sg129
I0
ssg136
(dp306
g221
I0
sg136
I1
sg222
I0
sg244
I0
sg137
I0
sg134
I0
sg133
I0
sg245
I0
sg246
I0
sg247
I0
sg138
I0
sg219
I0
sg135
I0
sg248
I0
sg249
I0
sg250
I0
ssg13
(dp307
g34
I0
sg128
I0
sg204
I0
sg101
I0
sg11
I0
sg131
I0
sg38
I0
sg130
I0
sg109
I0
sg31
I0
sg14
I0
sg105
I0
sg156
I0
sg29
I0
sg20
I0
sg32
I0
sg41
I0
sg25
I0
sg24
I0
sg8
I0
sg23
I0
sg22
I0
sg103
I0
sg40
I0
sg102
I0
sg16
I0
sg18
I0
sg35
I0
sg19
I0
sg157
I0
sg10
I0
sg158
I0
sg206
I0
sg107
I0
sg127
I0
sg108
I0
sg12
I0
sg36
I0
sg129
I0
sg30
I0
sg42
I0
sg39
I0
sg132
I0
sg210
I0
sg9
I0
sg13
I0
sg21
I0
sg26
I0
sg106
I0
sg110
I0
sg112
I0
sg104
I0
sg17
I0
sg15
I0
sg33
I0
sg208
I0
sg37
I0
sg111
I0
sg27
I0
sg28
I0
ssg138
(dp308
g221
I0
sg136
I0
sg222
I0
sg244
I0
sg137
I0
sg134
I0
sg133
I0
sg245
I0
sg246
I0
sg247
I0
sg138
I1
sg219
I0
sg135
I0
sg248
I0
sg249
I0
sg250
I0
ssg26
(dp309
g11
I0
sg14
I0
sg29
I0
sg20
I0
sg25
I0
sg24
I0
sg8
I0
sg23
I0
sg22
I0
sg16
I0
sg18
I0
sg19
I0
sg10
I0
sg12
I0
sg9
I0
sg13
I0
sg21
I0
sg26
I0
sg17
I0
sg15
I0
sg27
I0
sg28
I0
ssg106
(dp310
g204
I0
sg101
I0
sg134
I0
sg245
I0
sg135
I0
sg138
I0
sg109
I0
sg105
I0
sg221
I0
sg222
I0
sg137
I0
sg133
I0
sg207
I0
sg248
I0
sg104
I0
sg102
I0
sg244
I0
sg103
I0
sg206
I0
sg107
I0
sg108
I0
sg209
I0
sg250
I0
sg136
I0
sg205
I0
sg247
I0
sg246
I0
sg106
I2
sg112
I0
sg208
I0
sg210
I0
sg111
I0
sg110
I0
ssg91
(dp311
g99
I0
sg93
I0
sg100
I0
sg94
I0
sg146
I0
sg96
I0
sg147
I1
sg97
I0
sg166
I0
sg89
I0
sg167
I0
sg90
I0
sg92
I0
sg95
I0
sg168
I0
sg91
I0
sg98
I0
sg148
I0
ssg122
(dp312
g119
I0
sg118
I0
sg116
I0
sg117
I0
sg186
I0
sg187
I0
sg188
I0
sg124
I0
sg189
I0
sg190
I0
sg191
I0
sg113
I0
sg121
I0
sg120
I0
sg192
I0
sg126
I0
sg193
I0
sg194
I0
sg125
I0
sg195
I0
sg196
I0
sg197
I0
sg198
I0
sg199
I0
sg114
I0
sg200
I0
sg201
I0
sg115
I0
sg122
I0
sg123
I1
ssg123
(dp313
g119
I0
sg118
I0
sg116
I0
sg117
I0
sg186
I0
sg187
I0
sg188
I0
sg124
I0
sg189
I0
sg190
I0
sg191
I0
sg113
I0
sg121
I0
sg120
I0
sg192
I0
sg126
I0
sg193
I0
sg194
I0
sg125
I0
sg195
I0
sg196
I0
sg197
I0
sg198
I0
sg199
I0
sg114
I0
sg200
I0
sg201
I0
sg115
I0
sg122
I0
sg123
I0
ssg65
(dp314
g65
I0
sg62
I0
sg72
I0
sg143
I0
sg77
I0
sg144
I0
sg78
I0
sg67
I0
sg59
I0
sg60
I0
sg71
I0
sg66
I0
sg74
I0
sg73
I0
sg76
I0
sg57
I0
sg75
I0
sg58
I0
sg64
I0
sg70
I0
sg56
I0
sg69
I0
sg63
I0
sg68
I0
sg149
I0
sg150
I0
sg61
I0
sg153
I0
ssg48
(dp315
g45
I0
sg48
I1
sg46
I0
sg55
I0
sg49
I0
sg43
I0
sg51
I0
sg44
I0
sg50
I0
sg47
I0
sg162
I0
sg163
I0
sg54
I0
sg53
I0
sg164
I0
sg52
I0
ssg9
(dp316
g11
I0
sg14
I0
sg29
I0
sg20
I0
sg25
I0
sg24
I0
sg8
I0
sg23
I0
sg22
I0
sg16
I0
sg18
I0
sg19
I0
sg10
I0
sg12
I0
sg9
I1
sg13
I0
sg21
I0
sg26
I0
sg17
I0
sg15
I0
sg27
I0
sg28
I0
ssg102
(dp317
g102
I0
sg204
I0
sg101
I0
sg103
I0
sg205
I0
sg206
I0
sg207
I0
sg109
I0
sg208
I0
sg112
I0
sg108
I0
sg111
I0
sg107
I0
sg209
I0
sg106
I0
sg210
I0
sg105
I0
sg104
I0
sg110
I0
ssg11
(dp318
g128
I0
sg11
I2
sg131
I0
sg130
I0
sg14
I0
sg156
I0
sg29
I0
sg20
I0
sg25
I0
sg24
I0
sg8
I0
sg23
I0
sg22
I0
sg16
I0
sg18
I0
sg226
I0
sg19
I0
sg157
I0
sg10
I0
sg158
I0
sg132
I0
sg12
I0
sg129
I0
sg9
I0
sg13
I0
sg21
I0
sg26
I0
sg159
I0
sg17
I0
sg15
I0
sg127
I0
sg27
I0
sg28
I0
ssg95
(dp319
g99
I0
sg93
I0
sg100
I0
sg94
I0
sg146
I0
sg168
I0
sg96
I0
sg147
I0
sg97
I0
sg166
I0
sg89
I0
sg167
I0
sg90
I0
sg95
I1
sg148
I0
sg91
I0
sg98
I0
sg92
I0
ssg117
(dp320
g119
I0
sg118
I0
sg116
I0
sg117
I0
sg186
I0
sg187
I0
sg188
I0
sg124
I0
sg189
I0
sg190
I0
sg191
I0
sg113
I0
sg121
I0
sg120
I0
sg192
I0
sg126
I0
sg193
I0
sg194
I0
sg125
I0
sg195
I0
sg196
I0
sg197
I0
sg198
I0
sg199
I0
sg114
I0
sg200
I0
sg201
I0
sg115
I0
sg122
I0
sg123
I0
ssg105
(dp321
g119
I0
sg118
I0
sg116
I0
sg204
I0
sg101
I0
sg205
I0
sg117
I0
sg109
I0
sg186
I0
sg105
I2
sg188
I0
sg124
I0
sg189
I0
sg190
I0
sg207
I0
sg113
I0
sg121
I0
sg120
I0
sg192
I0
sg126
I0
sg193
I0
sg104
I0
sg102
I0
sg194
I0
sg125
I0
sg103
I0
sg195
I0
sg206
I0
sg107
I0
sg108
I0
sg122
I0
sg197
I0
sg209
I0
sg196
I0
sg198
I0
sg199
I0
sg114
I0
sg200
I0
sg106
I0
sg112
I0
sg115
I0
sg208
I0
sg210
I0
sg111
I0
sg123
I0
sg110
I0
ssg67
(dp322
g65
I0
sg62
I0
sg72
I0
sg143
I0
sg77
I0
sg144
I0
sg78
I0
sg67
I1
sg59
I0
sg60
I0
sg71
I0
sg66
I0
sg74
I0
sg73
I0
sg76
I0
sg57
I0
sg75
I0
sg58
I0
sg64
I0
sg70
I0
sg56
I0
sg69
I0
sg63
I0
sg68
I0
sg149
I0
sg150
I0
sg61
I0
sg153
I0
ssg113
(dp323
g119
I0
sg118
I0
sg116
I0
sg117
I0
sg186
I0
sg187
I0
sg188
I0
sg124
I0
sg189
I0
sg190
I0
sg191
I0
sg113
I1
sg121
I0
sg120
I0
sg192
I0
sg126
I0
sg193
I0
sg194
I0
sg125
I0
sg195
I0
sg196
I0
sg197
I0
sg198
I0
sg199
I0
sg114
I0
sg200
I0
sg201
I0
sg115
I0
sg122
I0
sg123
I0
ssg25
(dp324
g11
I0
sg14
I0
sg29
I0
sg20
I0
sg25
I0
sg24
I0
sg8
I0
sg23
I0
sg22
I0
sg16
I0
sg18
I0
sg19
I0
sg10
I0
sg12
I0
sg9
I0
sg13
I0
sg21
I0
sg26
I0
sg17
I0
sg15
I0
sg27
I0
sg28
I0
ssg24
(dp325
g11
I0
sg14
I0
sg29
I0
sg20
I0
sg25
I1
sg24
I0
sg8
I0
sg23
I0
sg22
I0
sg16
I0
sg18
I0
sg19
I0
sg10
I0
sg12
I0
sg9
I0
sg13
I0
sg21
I0
sg26
I0
sg17
I0
sg15
I0
sg27
I0
sg28
I0
ssg93
(dp326
g99
I0
sg89
I0
sg100
I0
sg94
I0
sg146
I0
sg96
I0
sg147
I0
sg97
I0
sg166
I0
sg93
I0
sg167
I0
sg90
I0
sg92
I0
sg95
I0
sg168
I0
sg91
I0
sg98
I0
sg148
I0
ssg121
(dp327
g119
I0
sg118
I0
sg116
I0
sg117
I0
sg186
I0
sg187
I0
sg188
I0
sg124
I0
sg189
I0
sg190
I0
sg191
I0
sg113
I0
sg121
I0
sg120
I0
sg192
I0
sg126
I0
sg193
I0
sg194
I0
sg125
I0
sg195
I0
sg196
I0
sg197
I0
sg198
I0
sg199
I0
sg114
I0
sg200
I0
sg201
I0
sg115
I0
sg122
I0
sg123
I0
ssg92
(dp328
g99
I0
sg93
I1
sg100
I0
sg94
I0
sg146
I0
sg96
I0
sg147
I0
sg97
I0
sg166
I0
sg89
I0
sg167
I0
sg90
I0
sg92
I0
sg95
I0
sg168
I0
sg91
I0
sg98
I0
sg148
I0
ssg120
(dp329
g119
I0
sg118
I0
sg116
I0
sg117
I0
sg186
I0
sg187
I0
sg188
I0
sg124
I0
sg189
I0
sg190
I0
sg191
I0
sg113
I0
sg121
I1
sg120
I0
sg192
I0
sg126
I0
sg193
I0
sg194
I0
sg125
I0
sg195
I0
sg196
I0
sg197
I0
sg198
I0
sg199
I0
sg114
I0
sg200
I0
sg201
I0
sg115
I0
sg122
I0
sg123
I0
ssg51
(dp330
g48
I0
sg119
I0
sg118
I0
sg116
I0
sg50
I0
sg117
I0
sg197
I0
sg164
I0
sg187
I0
sg45
I0
sg46
I0
sg124
I0
sg189
I0
sg51
I3
sg162
I0
sg113
I0
sg121
I0
sg120
I0
sg192
I0
sg126
I0
sg193
I0
sg49
I0
sg194
I0
sg125
I0
sg43
I0
sg115
I0
sg53
I0
sg54
I0
sg198
I0
sg44
I0
sg114
I0
sg47
I0
sg201
I0
sg163
I0
sg52
I0
sg122
I0
sg123
I0
sg55
I0
ssg76
(dp331
g65
I0
sg119
I0
sg118
I0
sg116
I0
sg62
I0
sg134
I0
sg72
I0
sg143
I0
sg77
I0
sg117
I0
sg135
I0
sg80
I0
sg144
I0
sg145
I0
sg187
I0
sg188
I0
sg222
I0
sg78
I0
sg67
I0
sg82
I0
sg138
I0
sg113
I0
sg59
I0
sg60
I0
sg71
I0
sg133
I0
sg121
I0
sg66
I0
sg74
I0
sg73
I0
sg87
I0
sg86
I0
sg190
I0
sg76
I0
sg125
I0
sg83
I0
sg137
I0
sg57
I0
sg75
I0
sg120
I0
sg79
I0
sg58
I0
sg64
I0
sg115
I0
sg70
I0
sg56
I0
sg69
I0
sg126
I0
sg124
I0
sg63
I0
sg88
I0
sg196
I0
sg136
I0
sg68
I0
sg199
I0
sg114
I0
sg149
I0
sg150
I0
sg219
I0
sg85
I0
sg201
I0
sg123
I0
sg81
I0
sg151
I0
sg152
I0
sg61
I0
sg122
I0
sg153
I0
sg84
I0
ssg40
(dp332
g34
I0
sg42
I0
sg212
I0
sg32
I0
sg41
I0
sg213
I0
sg35
I0
sg39
I0
sg38
I0
sg214
I0
sg33
I0
sg31
I0
sg215
I0
sg37
I0
sg36
I0
sg40
I1
sg30
I0
ssg75
(dp333
g65
I0
sg62
I0
sg134
I0
sg72
I0
sg143
I0
sg77
I0
sg135
I0
sg80
I0
sg144
I0
sg145
I0
sg221
I0
sg222
I0
sg78
I0
sg67
I0
sg82
I0
sg138
I0
sg137
I0
sg59
I0
sg60
I0
sg71
I0
sg133
I0
sg66
I0
sg74
I0
sg73
I0
sg87
I0
sg86
I0
sg76
I4
sg83
I0
sg57
I0
sg75
I0
sg79
I0
sg58
I0
sg64
I0
sg70
I0
sg56
I0
sg69
I0
sg63
I0
sg88
I0
sg136
I0
sg68
I0
sg149
I0
sg150
I0
sg219
I0
sg85
I0
sg81
I0
sg151
I0
sg152
I0
sg61
I0
sg153
I0
sg84
I0
ssg79
(dp334
g174
I0
sg175
I0
sg176
I0
sg177
I0
sg145
I0
sg79
I1
sg178
I0
sg179
I0
sg180
I0
sg87
I0
sg86
I0
sg181
I0
sg152
I0
sg80
I0
sg82
I0
sg83
I0
sg84
I0
sg88
I0
sg182
I0
sg183
I0
sg85
I0
sg81
I0
sg151
I0
ssg115
(dp335
g119
I0
sg118
I0
sg116
I0
sg128
I0
sg236
I0
sg225
I0
sg131
I0
sg117
I0
sg130
I0
sg186
I0
sg187
I0
sg188
I0
sg158
I0
sg124
I0
sg189
I0
sg190
I0
sg191
I0
sg113
I0
sg121
I0
sg120
I0
sg192
I0
sg126
I0
sg193
I0
sg194
I0
sg125
I0
sg195
I0
sg226
I0
sg196
I0
sg132
I0
sg227
I0
sg197
I0
sg238
I0
sg129
I0
sg198
I0
sg199
I0
sg114
I0
sg200
I0
sg201
I0
sg115
I1
sg127
I0
sg122
I0
sg123
I0
ssg35
(dp336
g34
I0
sg128
I0
sg225
I0
sg167
I0
sg95
I0
sg130
I0
sg31
I0
sg240
I0
sg156
I0
sg158
I0
sg212
I0
sg94
I0
sg32
I0
sg41
I0
sg214
I0
sg93
I0
sg92
I0
sg132
I0
sg159
I0
sg40
I0
sg99
I0
sg168
I0
sg100
I0
sg157
I0
sg35
I0
sg127
I0
sg97
I0
sg215
I0
sg36
I0
sg129
I0
sg30
I0
sg42
I0
sg131
I0
sg96
I0
sg213
I0
sg39
I0
sg38
I0
sg89
I0
sg90
I0
sg237
I0
sg33
I0
sg98
I0
sg91
I0
sg37
I0
ssg53
(dp337
g48
I0
sg119
I0
sg118
I0
sg116
I0
sg50
I0
sg117
I0
sg197
I0
sg164
I0
sg187
I0
sg45
I0
sg46
I0
sg124
I0
sg189
I0
sg51
I0
sg162
I0
sg113
I0
sg121
I0
sg120
I0
sg192
I0
sg126
I0
sg193
I0
sg49
I0
sg194
I0
sg125
I0
sg43
I0
sg115
I0
sg53
I0
sg54
I0
sg198
I0
sg44
I0
sg114
I0
sg47
I0
sg201
I0
sg163
I0
sg52
I0
sg122
I0
sg123
I0
sg55
I0
ssg12
(dp338
g34
I0
sg128
I0
sg204
I0
sg101
I0
sg11
I0
sg131
I0
sg38
I0
sg130
I0
sg109
I0
sg31
I0
sg14
I0
sg105
I0
sg156
I0
sg29
I0
sg20
I0
sg32
I0
sg41
I0
sg25
I0
sg24
I0
sg8
I0
sg23
I0
sg22
I0
sg103
I0
sg40
I0
sg102
I0
sg16
I0
sg18
I0
sg35
I0
sg19
I0
sg157
I0
sg10
I0
sg158
I0
sg206
I0
sg107
I0
sg127
I0
sg108
I0
sg12
I0
sg36
I0
sg129
I0
sg30
I0
sg42
I0
sg39
I0
sg132
I0
sg210
I0
sg9
I0
sg13
I5
sg21
I0
sg26
I1
sg106
I0
sg110
I0
sg112
I0
sg104
I0
sg17
I0
sg15
I0
sg33
I0
sg208
I0
sg37
I0
sg111
I0
sg27
I0
sg28
I0
ssg129
(dp339
g156
I0
sg158
I0
sg227
I0
sg128
I0
sg226
I0
sg157
I0
sg236
I0
sg225
I0
sg132
I0
sg131
I0
sg159
I0
sg237
I0
sg127
I0
sg130
I0
sg238
I0
sg239
I0
sg240
I0
sg129
I0
ssg132
(dp340
g156
I0
sg158
I0
sg227
I0
sg128
I0
sg226
I0
sg157
I0
sg236
I0
sg225
I0
sg132
I0
sg131
I0
sg159
I0
sg237
I0
sg127
I0
sg130
I0
sg238
I0
sg239
I0
sg240
I0
sg129
I0
ssg44
(dp341
g48
I0
sg119
I0
sg118
I0
sg116
I0
sg50
I0
sg117
I0
sg197
I0
sg164
I0
sg187
I0
sg45
I0
sg46
I0
sg124
I0
sg189
I0
sg51
I0
sg162
I0
sg113
I0
sg121
I0
sg120
I0
sg192
I0
sg126
I0
sg193
I0
sg49
I0
sg194
I0
sg125
I0
sg43
I0
sg115
I0
sg53
I0
sg54
I0
sg198
I0
sg44
I2
sg114
I0
sg47
I0
sg201
I0
sg163
I0
sg52
I0
sg122
I0
sg123
I0
sg55
I0
ssg21
(dp342
g11
I0
sg14
I0
sg29
I0
sg20
I0
sg25
I0
sg24
I0
sg8
I0
sg23
I0
sg22
I0
sg16
I0
sg18
I0
sg19
I0
sg10
I0
sg12
I0
sg9
I0
sg13
I0
sg21
I0
sg26
I0
sg17
I0
sg15
I0
sg27
I0
sg28
I0
ssg17
(dp343
g11
I0
sg14
I0
sg29
I0
sg20
I0
sg25
I0
sg24
I0
sg8
I0
sg23
I0
sg22
I0
sg16
I0
sg18
I0
sg19
I0
sg10
I0
sg12
I0
sg9
I0
sg13
I0
sg21
I0
sg26
I0
sg17
I0
sg15
I0
sg27
I0
sg28
I0
ssg59
(dp344
g65
I0
sg119
I0
sg118
I0
sg116
I0
sg62
I0
sg72
I0
sg143
I0
sg77
I0
sg117
I0
sg80
I0
sg144
I0
sg145
I0
sg187
I0
sg188
I0
sg78
I0
sg67
I0
sg82
I0
sg113
I0
sg59
I0
sg60
I3
sg71
I0
sg121
I0
sg66
I0
sg74
I0
sg73
I0
sg87
I0
sg86
I0
sg190
I0
sg76
I0
sg125
I0
sg83
I0
sg57
I0
sg75
I0
sg120
I0
sg79
I0
sg58
I0
sg64
I0
sg115
I0
sg70
I0
sg63
I0
sg69
I0
sg126
I0
sg124
I0
sg56
I0
sg88
I0
sg196
I0
sg68
I0
sg199
I0
sg114
I0
sg149
I0
sg150
I0
sg85
I0
sg201
I0
sg123
I0
sg81
I0
sg151
I0
sg152
I0
sg61
I0
sg122
I0
sg153
I0
sg84
I0
ssg127
(dp345
g156
I0
sg158
I0
sg227
I0
sg128
I0
sg226
I0
sg157
I0
sg236
I0
sg225
I0
sg132
I0
sg131
I0
sg159
I0
sg237
I0
sg127
I1
sg130
I0
sg238
I0
sg239
I0
sg240
I0
sg129
I0
ssg28
(dp346
g11
I0
sg14
I0
sg29
I0
sg20
I0
sg25
I0
sg24
I0
sg8
I0
sg23
I0
sg22
I0
sg16
I0
sg18
I0
sg19
I0
sg10
I0
sg12
I0
sg9
I0
sg13
I0
sg21
I0
sg26
I0
sg17
I0
sg15
I0
sg27
I0
sg28
I0
ssg60
(dp347
g65
I0
sg119
I0
sg118
I0
sg116
I0
sg62
I0
sg72
I0
sg143
I0
sg77
I0
sg117
I0
sg80
I0
sg144
I0
sg145
I0
sg187
I0
sg188
I0
sg78
I0
sg67
I0
sg82
I0
sg113
I0
sg59
I0
sg60
I0
sg71
I0
sg121
I0
sg66
I0
sg74
I0
sg73
I0
sg87
I0
sg86
I0
sg190
I0
sg76
I0
sg125
I0
sg83
I0
sg57
I0
sg75
I0
sg120
I0
sg79
I0
sg58
I0
sg64
I0
sg115
I0
sg70
I0
sg63
I0
sg69
I0
sg126
I0
sg124
I0
sg56
I0
sg88
I0
sg196
I0
sg68
I0
sg199
I0
sg114
I0
sg149
I0
sg150
I0
sg85
I0
sg201
I0
sg123
I0
sg81
I0
sg151
I0
sg152
I0
sg61
I0
sg122
I0
sg153
I0
sg84
I0
ssg52
(dp348
g45
I0
sg48
I0
sg46
I0
sg55
I0
sg49
I0
sg43
I0
sg51
I0
sg44
I0
sg50
I0
sg47
I0
sg162
I0
sg163
I0
sg54
I0
sg53
I1
sg164
I0
sg52
I0
sssb.