ccopy_reg
_reconstructor
p0
(cutils.eval
ConfusionMatrix
p1
c__builtin__
object
p2
Ntp3
Rp4
(dp5
S'labels'
p6
(lp7
S'pepper.n.03'
p8
aS'salt.n.02'
p9
aS'salt.n.04'
p10
aS'egg.n.02'
p11
aS'egg.n.01'
p12
aS'put.v.01'
p13
aS'put.v.02'
p14
aS'onion.n.01'
p15
aS'onion.n.03'
p16
aS'beef.n.02'
p17
aS'gripe.n.01'
p18
aS'plate.n.04'
p19
aS'plate.n.13'
p20
aS'cup.n.01'
p21
aS'fill.v.01'
p22
aS'cola.n.02'
p23
aS'teapot.n.01'
p24
aS'water.n.06'
p25
aS'walnut.n.01'
p26
aS'walnut.n.02'
p27
aS'get.v.01'
p28
aS'make.v.02'
p29
aS'pear.n.01'
p30
aS'pear.n.02'
p31
aS'blend.v.03'
p32
aS'mix.v.05'
p33
aS'bowl.n.01'
p34
aS'bowl.n.08'
p35
asS'instanceCount'
p36
I18
sS'matrix'
p37
(dp38
g20
(dp39
g20
I0
ssg17
(dp40
g18
I1
ssg29
(dp41
g29
I0
ssg25
(dp42
S'water.n.06'
p43
I1
ssg34
(dp44
g35
I1
ssg22
(dp45
S'fill.v.01'
p46
I2
ssg35
(dp47
g35
I0
ssg23
(dp48
S'cola.n.02'
p49
I1
ssg11
(dp50
g12
I1
ssg12
(dp51
g12
I0
ssg28
(dp52
g29
I1
ssg21
(dp53
S'cup.n.01'
p54
I1
ssg31
(dp55
g31
I0
ssg30
(dp56
g31
I1
ssg33
(dp57
g33
I0
ssg9
(dp58
g10
I1
ssg32
(dp59
g33
I1
ssg10
(dp60
g10
I0
ssg19
(dp61
g20
I1
ssg27
(dp62
g27
I0
ssg18
(dp63
g18
I0
ssg26
(dp64
g27
I1
ssg8
(dp65
S'pepper.n.03'
p66
I1
ssg24
(dp67
S'teapot.n.01'
p68
I1
ssg14
(dp69
g14
I0
ssg13
(dp70
g14
I1
ssg15
(dp71
g16
I1
ssg16
(dp72
g16
I0
sssb.