ccopy_reg
_reconstructor
p0
(cutils.eval
ConfusionMatrix
p1
c__builtin__
object
p2
Ntp3
Rp4
(dp5
S'labels'
p6
(lp7
S'ice.n.01'
p8
aS'ice.n.05'
p9
aS'fill.v.01'
p10
aS'bowl.n.01'
p11
aS'cut.n.16'
p12
aS'edit.v.03'
p13
aS'bag.n.01'
p14
aS'bag.n.04'
p15
aS'opening.n.01'
p16
aS'gap.n.03'
p17
aS'fill.v.09'
p18
aS'batter.n.02'
p19
aS'flesh.n.01'
p20
aS'human_body.n.01'
p21
aS'slice.v.03'
p22
aS'jar.n.01'
p23
aS'gravy.n.01'
p24
aS'gravy.n.02'
p25
asS'instanceCount'
p26
I13
sS'matrix'
p27
(dp28
g24
(dp29
g25
I1
ssg15
(dp30
g15
I0
ssg25
(dp31
g25
I0
ssg17
(dp32
g17
I0
ssg18
(dp33
S'fill.v.01'
p34
I1
ssg20
(dp35
g21
I1
ssg13
(dp36
g13
I0
ssg21
(dp37
g21
I0
ssg10
(dp38
S'fill.v.01'
p39
I2
ssg8
(dp40
g9
I1
ssg11
(dp41
S'bowl.n.01'
p42
I1
ssg9
(dp43
g9
I0
ssg14
(dp44
g15
I1
ssg19
(dp45
S'batter.n.02'
p46
I1
ssg22
(dp47
S'slice.v.03'
p48
I1
ssg12
(dp49
g13
I1
ssg23
(dp50
S'jar.n.01'
p51
I1
ssg16
(dp52
g17
I1
sssb.