ccopy_reg
_reconstructor
p0
(cutils.eval
ConfusionMatrix
p1
c__builtin__
object
p2
Ntp3
Rp4
(dp5
S'labels'
p6
(lp7
S'ActionCause'
p8
aS'CuttingTool'
p9
aS'ObjectToBeCutted'
p10
aS'Piece'
p11
asS'instanceCount'
p12
I65
sS'matrix'
p13
(dp14
g8
(dp15
g8
I25
sg9
I0
sg11
I0
sg10
I0
ssg9
(dp16
g8
I1
sg9
I8
sg11
I0
sg10
I0
ssg11
(dp17
S'ActionCause'
p18
I0
sS'CuttingTool'
p19
I0
sg11
I3
sS'ObjectToBeCutted'
p20
I3
ssg10
(dp21
g8
I0
sg9
I0
sg11
I0
sg10
I25
sssb.