ccopy_reg
_reconstructor
p0
(cutils.eval
ConfusionMatrix
p1
c__builtin__
object
p2
Ntp3
Rp4
(dp5
S'labels'
p6
(lp7
S'ObjectToBeCutted'
p8
aS'ActionCause'
p9
asS'instanceCount'
p10
I6
sS'matrix'
p11
(dp12
g9
(dp13
S'ActionCause'
p14
I3
ssg8
(dp15
S'ObjectToBeCutted'
p16
I3
sssb.