ccopy_reg
_reconstructor
p0
(cutils.eval
ConfusionMatrix
p1
c__builtin__
object
p2
Ntp3
Rp4
(dp5
S'labels'
p6
(lp7
S'ActionCause'
p8
aS'Piece'
p9
aS'CuttingTool'
p10
aS'ObjectToBeCutted'
p11
asS'instanceCount'
p12
I9
sS'matrix'
p13
(dp14
g8
(dp15
S'ActionCause'
p16
I3
ssg10
(dp17
S'CuttingTool'
p18
I2
ssg9
(dp19
S'Piece'
p20
I1
ssg11
(dp21
S'ObjectToBeCutted'
p22
I3
sssb.