ccopy_reg
_reconstructor
p0
(cutils.eval
ConfusionMatrix
p1
c__builtin__
object
p2
Ntp3
Rp4
(dp5
S'labels'
p6
(lp7
S'AC_FILL_CHEMICAL_L'
p8
aS'AC_FILL_INGREDIENT_ML'
p9
aS'AC_FILL_INGREDIENT_L'
p10
aS'AC_FILL_CHEMICAL_ML'
p11
asS'instanceCount'
p12
I8
sS'matrix'
p13
(dp14
g11
(dp15
g11
I2
sg10
I0
ssg9
(dp16
g9
I1
sS'AC_FILL_CHEMICAL_L'
p17
I1
ssg8
(dp18
g9
I0
sg8
I2
ssg10
(dp19
g11
I1
sg10
I1
sssb.