ccopy_reg
_reconstructor
p0
(cutils.eval
ConfusionMatrix
p1
c__builtin__
object
p2
Ntp3
Rp4
(dp5
S'labels'
p6
(lp7
S'add.v.01'
p8
aS'rib.n.03'
p9
aS'mixing_bowl.n.01'
p10
aS'butter.n.01'
p11
aS'sugar.n.01'
p12
aS'pan.n.03'
p13
aS'vanilla.n.02'
p14
aS'egg.n.02'
p15
asS'instanceCount'
p16
I420
sS'matrix'
p17
(dp18
g13
(dp19
g13
I56
sg9
I0
sg15
I0
sg11
I0
sg10
I0
sg14
I0
sg8
I0
sg12
I0
ssg9
(dp20
g13
I0
sg9
I28
sg15
I0
sg11
I0
sg10
I0
sg14
I0
sg8
I0
sg12
I0
ssg15
(dp21
g13
I0
sg9
I0
sg15
I28
sg11
I0
sg10
I0
sg14
I0
sg8
I0
sg12
I0
ssg11
(dp22
g13
I0
sg9
I0
sg15
I0
sg11
I84
sg10
I0
sg14
I0
sg8
I0
sg12
I0
ssg10
(dp23
g13
I0
sg9
I0
sg15
I0
sg11
I0
sg10
I28
sg14
I0
sg8
I0
sg12
I0
ssg14
(dp24
g13
I0
sg9
I0
sg15
I0
sg11
I0
sg10
I0
sg14
I28
sg8
I0
sg12
I0
ssg8
(dp25
g13
I0
sg9
I0
sg15
I0
sg11
I0
sg10
I0
sg14
I0
sg8
I140
sg12
I0
ssg12
(dp26
g13
I0
sg9
I0
sg15
I0
sg11
I0
sg10
I0
sg14
I0
sg8
I0
sg12
I28
sssb.