ccopy_reg
_reconstructor
p0
(cutils.eval
ConfusionMatrix
p1
c__builtin__
object
p2
Ntp3
Rp4
(dp5
S'labels'
p6
(lp7
S'fill.v.01'
p8
aS'teapot.n.01'
p9
aS'water.n.06'
p10
aS'glass.n.02'
p11
aS'milk.n.01'
p12
aS'pan.n.01'
p13
aS'pan.n.03'
p14
aS'pitcher.n.02'
p15
aS'pot.n.01'
p16
aS'whiskey.n.01'
p17
aS'carafe.n.01'
p18
asS'instanceCount'
p19
I18
sS'matrix'
p20
(dp21
g13
(dp22
g14
I1
ssg14
(dp23
g14
I0
ssg9
(dp24
S'teapot.n.01'
p25
I1
ssg16
(dp26
S'pot.n.01'
p27
I1
ssg10
(dp28
S'water.n.06'
p29
I3
ssg8
(dp30
S'fill.v.01'
p31
I6
ssg17
(dp32
S'whiskey.n.01'
p33
I1
ssg15
(dp34
S'pitcher.n.02'
p35
I1
ssg18
(dp36
S'carafe.n.01'
p37
I1
ssg12
(dp38
S'milk.n.01'
p39
I2
ssg11
(dp40
S'glass.n.02'
p41
I1
sssb.