ccopy_reg
_reconstructor
p0
(cutils.eval
ConfusionMatrix
p1
c__builtin__
object
p2
Ntp3
Rp4
(dp5
S'labels'
p6
(lp7
S'fill.v.01'
p8
aS'bottle.n.01'
p9
aS'fruit_juice.n.01'
p10
aS'opening.n.01'
p11
aS'gap.n.03'
p12
aS'fill.v.09'
p13
aS'batter.n.02'
p14
aS'saltcellar.n.01'
p15
aS'salt.n.02'
p16
aS'measuring_cup.n.01'
p17
aS'meal.n.03'
p18
aS'cup.n.01'
p19
aS'cola.n.02'
p20
aS'ice.n.01'
p21
aS'ice.n.05'
p22
aS'bowl.n.01'
p23
asS'instanceCount'
p24
I18
sS'matrix'
p25
(dp26
g16
(dp27
S'salt.n.02'
p28
I1
ssg10
(dp29
S'fruit_juice.n.01'
p30
I1
ssg20
(dp31
S'cola.n.02'
p32
I1
ssg12
(dp33
g12
I0
ssg13
(dp34
S'fill.v.01'
p35
I1
ssg9
(dp36
S'bottle.n.01'
p37
I1
ssg15
(dp38
S'saltcellar.n.01'
p39
I1
ssg19
(dp40
S'cup.n.01'
p41
I1
ssg8
(dp42
S'fill.v.01'
p43
I5
ssg21
(dp44
g22
I1
ssg23
(dp45
S'bowl.n.01'
p46
I1
ssg22
(dp47
g22
I0
ssg14
(dp48
S'batter.n.02'
p49
I1
ssg17
(dp50
S'measuring_cup.n.01'
p51
I1
ssg18
(dp52
S'meal.n.03'
p53
I1
ssg11
(dp54
g12
I1
sssb.