ccopy_reg
_reconstructor
p0
(cutils.eval
ConfusionMatrix
p1
c__builtin__
object
p2
Ntp3
Rp4
(dp5
S'labels'
p6
(lp7
S'piece.n.08'
p8
aS'slice.n.05'
p9
aS'pizza.n.01'
p10
aS'slice.v.03'
p11
aS'slice.v.02'
p12
asS'instanceCount'
p13
I3
sS'matrix'
p14
(dp15
g12
(dp16
g12
I0
ssg11
(dp17
g12
I1
ssg8
(dp18
g9
I1
ssg10
(dp19
S'pizza.n.01'
p20
I1
ssg9
(dp21
g9
I0
sssb.