ccopy_reg
_reconstructor
p0
(cutils.eval
ConfusionMatrix
p1
c__builtin__
object
p2
Ntp3
Rp4
(dp5
S'labels'
p6
(lp7
S'fill.v.01'
p8
aS'pan.n.01'
p9
aS'water.n.06'
p10
aS'flesh.n.01'
p11
aS'human_body.n.01'
p12
aS'slice.v.03'
p13
aS'slice.v.02'
p14
aS'cut.v.01'
p15
aS'bacon.n.01'
p16
aS'foam.n.01'
p17
aS'mug.n.04'
p18
aS'onion.n.01'
p19
aS'onion.n.03'
p20
aS'pepper.n.04'
p21
aS'opening.n.01'
p22
aS'gap.n.03'
p23
aS'fill.v.09'
p24
aS'batter.n.02'
p25
aS'bread.n.01'
p26
aS'knife.n.01'
p27
aS'knife.n.02'
p28
aS'put.v.01'
p29
aS'pepper.n.03'
p30
aS'salt.n.02'
p31
aS'salt.n.01'
p32
aS'egg.n.02'
p33
aS'egg.n.01'
p34
aS'piece.n.08'
p35
aS'slice.n.05'
p36
aS'pizza.n.01'
p37
aS'pitcher.n.02'
p38
aS'milk.n.01'
p39
aS'put.v.02'
p40
aS'pan.n.03'
p41
aS'beef.n.02'
p42
aS'plate.n.04'
p43
aS'plate.n.11'
p44
aS'lemon.n.01'
p45
aS'banana.n.02'
p46
aS'chicken.n.01'
p47
aS'meat.n.01'
p48
aS'cleaver.n.01'
p49
aS'helicopter.n.01'
p50
asS'instanceCount'
p51
I47
sS'matrix'
p52
(dp53
g44
(dp54
g44
I0
ssg47
(dp55
S'chicken.n.01'
p56
I1
ssg31
(dp57
g32
I1
ssg26
(dp58
S'bread.n.01'
p59
I1
ssg37
(dp60
S'pizza.n.01'
p61
I2
ssg25
(dp62
S'batter.n.02'
p63
I1
ssg17
(dp64
S'foam.n.01'
p65
I1
ssg39
(dp66
S'milk.n.01'
p67
I1
ssg9
(dp68
S'pan.n.01'
p69
I1
ssg41
(dp70
S'pan.n.01'
p71
I1
sS'pan.n.03'
p72
I1
ssg15
(dp73
S'cut.v.01'
p74
I4
ssg23
(dp75
g23
I0
ssg24
(dp76
S'fill.v.01'
p77
I1
ssg33
(dp78
g34
I1
ssg34
(dp79
g34
I0
ssg42
(dp80
S'beef.n.02'
p81
I1
ssg16
(dp82
S'bacon.n.01'
p83
I1
ssg8
(dp84
S'fill.v.01'
p85
I3
ssg38
(dp86
S'pitcher.n.02'
p87
I1
ssg48
(dp88
S'meat.n.01'
p89
I1
ssg49
(dp90
g50
I1
ssg14
(dp91
g14
I0
ssg13
(dp92
g14
I1
sS'slice.v.03'
p93
I3
ssg32
(dp94
g32
I0
ssg27
(dp95
g28
I2
ssg46
(dp96
S'banana.n.02'
p97
I1
ssg28
(dp98
g28
I0
ssg43
(dp99
g44
I1
ssg21
(dp100
S'pepper.n.04'
p101
I1
ssg30
(dp102
S'pepper.n.04'
p103
I1
ssg12
(dp104
g12
I0
ssg35
(dp105
g36
I1
ssg22
(dp106
g23
I1
ssg18
(dp107
S'mug.n.04'
p108
I1
ssg11
(dp109
g12
I1
ssg50
(dp110
g50
I0
ssg10
(dp111
S'water.n.06'
p112
I1
ssg29
(dp113
g40
I1
sS'put.v.01'
p114
I3
ssg36
(dp115
g36
I0
ssg45
(dp116
S'lemon.n.01'
p117
I1
ssg19
(dp118
g20
I2
ssg20
(dp119
g20
I0
ssg40
(dp120
g40
I0
sssb.