ccopy_reg
_reconstructor
p0
(cutils.eval
ConfusionMatrix
p1
c__builtin__
object
p2
Ntp3
Rp4
(dp5
S'labels'
p6
(lp7
S'slice.v.03'
p8
aS'onion.n.01'
p9
aS'onion.n.03'
p10
aS'pepper.n.04'
p11
aS'pepper.n.01'
p12
aS'opening.n.01'
p13
aS'fill.v.09'
p14
aS'fill.v.01'
p15
aS'batter.n.02'
p16
aS'batter.n.01'
p17
aS'cut.v.01'
p18
aS'edit.v.03'
p19
aS'bread.n.01'
p20
aS'knife.n.01'
p21
aS'put.v.01'
p22
aS'put.v.02'
p23
aS'pepper.n.03'
p24
aS'capsicum.n.01'
p25
aS'salt.n.02'
p26
aS'strategic_arms_limitation_talks.n.01'
p27
aS'egg.n.02'
p28
aS'piece.n.08'
p29
aS'slice.n.05'
p30
aS'pitcher.n.02'
p31
aS'milk.n.01'
p32
aS'milk.n.02'
p33
aS'pan.n.03'
p34
aS'pan.n.01'
p35
aS'pizza.n.01'
p36
aS'beef.n.02'
p37
aS'gripe.n.01'
p38
aS'plate.n.04'
p39
aS'plate.n.13'
p40
aS'lemon.n.01'
p41
aS'lemon.n.05'
p42
aS'tongue.n.03'
p43
aS'banana.n.02'
p44
aS'chicken.n.01'
p45
aS'chicken.n.04'
p46
aS'meat.n.01'
p47
aS'kernel.n.03'
p48
aS'cleaver.n.01'
p49
aS'cake.n.03'
p50
aS'cake.n.01'
p51
aS'whipped_cream.n.01'
p52
aS'cheese.n.01'
p53
aS'cabbage.n.01'
p54
aS'cabbage.n.03'
p55
aS'cut.v.32'
p56
aS'kettle.n.01'
p57
aS'water.n.06'
p58
asS'instanceCount'
p59
I46
sS'matrix'
p60
(dp61
g40
(dp62
g40
I0
ssg46
(dp63
g46
I0
ssg48
(dp64
g48
I0
ssg45
(dp65
g46
I1
ssg26
(dp66
g27
I1
ssg51
(dp67
g51
I0
ssg19
(dp68
g19
I0
ssg20
(dp69
S'bread.n.01'
p70
I1
ssg53
(dp71
S'cheese.n.01'
p72
I1
ssg16
(dp73
g17
I1
ssg17
(dp74
g17
I0
ssg54
(dp75
g55
I1
ssg36
(dp76
S'pizza.n.01'
p77
I1
ssg29
(dp78
g30
I1
ssg33
(dp79
g33
I0
ssg35
(dp80
g35
I0
ssg34
(dp81
g35
I2
ssg18
(dp82
g19
I3
sg56
I1
ssg55
(dp83
g55
I0
ssg14
(dp84
g15
I1
ssg28
(dp85
S'egg.n.02'
p86
I1
ssg37
(dp87
g38
I1
ssg15
(dp88
g15
I2
ssg25
(dp89
g25
I0
ssg47
(dp90
g48
I1
ssg56
(dp91
g56
I0
ssg49
(dp92
S'cleaver.n.01'
p93
I1
ssg8
(dp94
S'slice.v.03'
p95
I4
ssg21
(dp96
S'knife.n.01'
p97
I1
sg43
I1
ssg43
(dp98
g43
I0
ssg44
(dp99
S'banana.n.02'
p100
I1
ssg39
(dp101
g40
I1
ssg11
(dp102
g12
I1
ssg12
(dp103
g12
I0
ssg24
(dp104
g25
I1
ssg58
(dp105
S'water.n.06'
p106
I1
ssg52
(dp107
S'whipped_cream.n.01'
p108
I1
ssg38
(dp109
g38
I0
ssg27
(dp110
g27
I0
ssg13
(dp111
S'opening.n.01'
p112
I1
ssg32
(dp113
g33
I1
ssg23
(dp114
g23
I0
ssg22
(dp115
g23
I5
ssg30
(dp116
g30
I0
ssg42
(dp117
g42
I0
ssg57
(dp118
S'kettle.n.01'
p119
I1
ssg50
(dp120
g51
I1
ssg41
(dp121
g42
I1
ssg9
(dp122
g10
I2
ssg31
(dp123
S'pitcher.n.02'
p124
I1
ssg10
(dp125
g10
I0
sssb.