ccopy_reg
_reconstructor
p0
(cutils.eval
ConfusionMatrix
p1
c__builtin__
object
p2
Ntp3
Rp4
(dp5
S'labels'
p6
(lp7
S'cut.v.01'
p8
aS'cut.v.32'
p9
aS'bacon.n.01'
p10
aS'bacon.n.02'
p11
aS'fill.v.01'
p12
aS'foam.n.01'
p13
aS'mug.n.04'
p14
aS'slice.v.03'
p15
aS'onion.n.01'
p16
aS'onion.n.03'
p17
aS'pepper.n.04'
p18
aS'pepper.n.01'
p19
aS'opening.n.01'
p20
aS'gap.n.03'
p21
aS'fill.v.09'
p22
aS'batter.n.02'
p23
aS'edit.v.03'
p24
aS'bread.n.01'
p25
aS'knife.n.01'
p26
aS'put.v.01'
p27
aS'put.v.02'
p28
aS'pepper.n.03'
p29
aS'capsicum.n.01'
p30
aS'salt.n.02'
p31
aS'egg.n.02'
p32
aS'egg.n.01'
p33
aS'piece.n.08'
p34
aS'slice.n.06'
p35
aS'pizza.n.01'
p36
aS'slit.v.01'
p37
aS'pitcher.n.02'
p38
aS'milk.n.01'
p39
aS'pan.n.03'
p40
aS'pan.n.01'
p41
aS'beef.n.02'
p42
aS'plate.n.04'
p43
aS'plate.n.13'
p44
aS'lemon.n.01'
p45
aS'lemon.n.05'
p46
aS'banana.n.02'
p47
aS'chicken.n.01'
p48
aS'wimp.n.01'
p49
aS'meat.n.01'
p50
aS'cleaver.n.01'
p51
aS'cake.n.03'
p52
aS'cake.n.01'
p53
aS'whipped_cream.n.01'
p54
aS'cheese.n.01'
p55
asS'instanceCount'
p56
I47
sS'matrix'
p57
(dp58
g44
(dp59
g44
I0
ssg55
(dp60
S'cheese.n.01'
p61
I1
ssg48
(dp62
g49
I1
ssg31
(dp63
S'salt.n.02'
p64
I1
ssg25
(dp65
S'bread.n.01'
p66
I1
ssg23
(dp67
S'batter.n.02'
p68
I1
ssg49
(dp69
g49
I0
ssg13
(dp70
S'foam.n.01'
p71
I1
ssg39
(dp72
S'milk.n.01'
p73
I1
ssg41
(dp74
g41
I0
ssg40
(dp75
g41
I2
ssg8
(dp76
g24
I3
sg9
I1
ssg21
(dp77
g21
I0
ssg22
(dp78
S'fill.v.01'
p79
I1
ssg32
(dp80
g33
I1
ssg33
(dp81
g33
I0
ssg42
(dp82
S'beef.n.02'
p83
I1
ssg11
(dp84
g11
I0
ssg10
(dp85
g11
I1
ssg12
(dp86
S'fill.v.01'
p87
I2
ssg30
(dp88
g30
I0
ssg50
(dp89
S'meat.n.01'
p90
I1
ssg18
(dp91
g19
I1
ssg51
(dp92
S'cleaver.n.01'
p93
I1
ssg15
(dp94
g37
I1
sS'slice.v.03'
p95
I3
ssg26
(dp96
S'knife.n.01'
p97
I2
ssg53
(dp98
g53
I0
ssg47
(dp99
S'banana.n.02'
p100
I1
ssg43
(dp101
g44
I1
ssg24
(dp102
g24
I0
ssg19
(dp103
g19
I0
ssg29
(dp104
g30
I1
ssg54
(dp105
S'whipped_cream.n.01'
p106
I1
ssg34
(dp107
g35
I1
ssg20
(dp108
g21
I1
ssg14
(dp109
S'mug.n.04'
p110
I1
ssg35
(dp111
g35
I0
ssg9
(dp112
g9
I0
ssg27
(dp113
g28
I5
ssg36
(dp114
S'pizza.n.01'
p115
I2
ssg37
(dp116
g37
I0
ssg46
(dp117
g46
I0
ssg52
(dp118
g53
I1
ssg45
(dp119
g46
I1
ssg16
(dp120
S'onion.n.01'
p121
I1
sg17
I1
ssg38
(dp122
S'pitcher.n.02'
p123
I1
ssg17
(dp124
g17
I0
ssg28
(dp125
g28
I0
sssb.