ccopy_reg
_reconstructor
p0
(cutils.eval
ConfusionMatrix
p1
c__builtin__
object
p2
Ntp3
Rp4
(dp5
S'labels'
p6
(lp7
S'put.v.01'
p8
aS'pan.n.03'
p9
aS'pizza.n.01'
p10
aS'onion.n.01'
p11
aS'onion.n.03'
p12
aS'beef.n.02'
p13
aS'plate.n.04'
p14
aS'plate.n.08'
p15
aS'cut.v.01'
p16
aS'lemon.n.01'
p17
aS'lemon.n.05'
p18
aS'knife.n.01'
p19
aS'banana.n.02'
p20
aS'slice.v.03'
p21
aS'chicken.n.01'
p22
aS'meat.n.01'
p23
aS'cleaver.n.01'
p24
aS'cake.n.03'
p25
aS'patty.n.01'
p26
aS'whipped_cream.n.01'
p27
aS'cheese.n.01'
p28
aS'cabbage.n.01'
p29
aS'fill.v.01'
p30
aS'kettle.n.01'
p31
aS'water.n.06'
p32
aS'pan.n.01'
p33
aS'flesh.n.01'
p34
aS'human_body.n.01'
p35
aS'slice.v.02'
p36
aS'bacon.n.01'
p37
aS'bacon.n.02'
p38
aS'foam.n.01'
p39
aS'mug.n.04'
p40
aS'pepper.n.04'
p41
aS'pepper.n.03'
p42
aS'opening.n.01'
p43
aS'gap.n.03'
p44
aS'fill.v.09'
p45
aS'batter.n.02'
p46
asS'instanceCount'
p47
I44
sS'matrix'
p48
(dp49
g28
(dp50
S'cheese.n.01'
p51
I1
ssg22
(dp52
S'chicken.n.01'
p53
I1
ssg13
(dp54
S'beef.n.02'
p55
I1
ssg46
(dp56
S'batter.n.02'
p57
I1
ssg29
(dp58
S'cabbage.n.01'
p59
I1
ssg30
(dp60
S'fill.v.01'
p61
I3
ssg33
(dp62
S'pan.n.03'
p63
I1
ssg9
(dp64
S'pan.n.03'
p65
I2
ssg16
(dp66
S'cut.v.01'
p67
I4
ssg44
(dp68
g44
I0
ssg45
(dp69
S'fill.v.01'
p70
I1
ssg38
(dp71
g38
I0
ssg37
(dp72
g38
I1
ssg26
(dp73
g26
I0
ssg23
(dp74
S'meat.n.01'
p75
I1
ssg24
(dp76
S'cleaver.n.01'
p77
I1
ssg36
(dp78
g36
I0
ssg21
(dp79
g36
I1
sS'slice.v.03'
p80
I3
ssg15
(dp81
g15
I0
ssg20
(dp82
S'banana.n.02'
p83
I1
ssg14
(dp84
g15
I1
ssg41
(dp85
g42
I1
ssg42
(dp86
g42
I0
ssg19
(dp87
S'knife.n.01'
p88
I1
ssg39
(dp89
S'foam.n.01'
p90
I1
ssg35
(dp91
g35
I0
ssg27
(dp92
S'whipped_cream.n.01'
p93
I1
ssg43
(dp94
g44
I1
ssg40
(dp95
S'mug.n.04'
p96
I1
ssg34
(dp97
g35
I1
ssg32
(dp98
S'water.n.06'
p99
I2
ssg8
(dp100
S'put.v.01'
p101
I4
ssg10
(dp102
S'pizza.n.01'
p103
I1
ssg18
(dp104
g18
I0
ssg31
(dp105
S'kettle.n.01'
p106
I1
ssg25
(dp107
g26
I1
ssg17
(dp108
g18
I1
ssg11
(dp109
g12
I2
ssg12
(dp110
g12
I0
sssb.