ccopy_reg
_reconstructor
p0
(cutils.eval
ConfusionMatrix
p1
c__builtin__
object
p2
Ntp3
Rp4
(dp5
S'labels'
p6
(lp7
S'put.v.01'
p8
aS'pan.n.03'
p9
aS'pizza.n.01'
p10
aS'onion.n.01'
p11
aS'onion.n.03'
p12
aS'beef.n.02'
p13
aS'plate.n.04'
p14
aS'plate.n.08'
p15
aS'cut.v.01'
p16
aS'lemon.n.01'
p17
aS'lemon.n.05'
p18
aS'knife.n.01'
p19
aS'banana.n.02'
p20
aS'slice.v.03'
p21
aS'chicken.n.01'
p22
aS'meat.n.01'
p23
aS'cleaver.n.01'
p24
aS'cake.n.03'
p25
aS'patty.n.01'
p26
aS'whipped_cream.n.01'
p27
aS'cheese.n.01'
p28
aS'cabbage.n.01'
p29
aS'fill.v.01'
p30
aS'kettle.n.01'
p31
aS'water.n.06'
p32
aS'pan.n.01'
p33
aS'flesh.n.01'
p34
aS'human_body.n.01'
p35
aS'slice.v.02'
p36
aS'bacon.n.01'
p37
aS'bacon.n.02'
p38
aS'foam.n.01'
p39
aS'mug.n.04'
p40
aS'pepper.n.04'
p41
aS'pepper.n.03'
p42
aS'opening.n.01'
p43
aS'gap.n.03'
p44
aS'fill.v.09'
p45
aS'batter.n.02'
p46
aS'knife.n.02'
p47
aS'helicopter.n.01'
p48
aS'cut.v.29'
p49
aS'countenance.n.03'
p50
aS'bread.n.01'
p51
aS'salt.n.02'
p52
aS'salt.n.01'
p53
aS'egg.n.02'
p54
aS'egg.n.01'
p55
aS'meet.v.04'
p56
aS'water.n.03'
p57
aS'piece.n.08'
p58
aS'slice.n.06'
p59
aS'pitcher.n.02'
p60
aS'milk.n.01'
p61
aS'milk.n.04'
p62
aS'plate.n.13'
p63
aS'slice.n.05'
p64
aS'pitcher.n.01'
p65
aS'kettle_hole.n.01'
p66
aS'chump.n.01'
p67
aS'kettle.n.02'
p68
aS'pan.n.02'
p69
aS'pulp.n.02'
p70
aS'gap.n.05'
p71
aS'pitcher.n.05'
p72
aS'put.v.02'
p73
aS'plate.n.11'
p74
aS'cut.v.32'
p75
aS'pepper.n.01'
p76
aS'edit.v.03'
p77
aS'capsicum.n.01'
p78
aS'slit.v.01'
p79
aS'wimp.n.01'
p80
aS'cake.n.01'
p81
aS'batter.n.01'
p82
aS'strategic_arms_limitation_talks.n.01'
p83
aS'milk.n.02'
p84
aS'gripe.n.01'
p85
aS'tongue.n.03'
p86
aS'chicken.n.04'
p87
aS'kernel.n.03'
p88
aS'cabbage.n.03'
p89
aS'kernel.n.01'
p90
aS'water_system.n.02'
p91
asS'instanceCount'
p92
I453
sS'matrix'
p93
(dp94
g63
(dp95
g63
I0
sS'cheese.n.01'
p96
I0
sS'slice.n.05'
p97
I0
sS'chicken.n.01'
p98
I0
sS'salt.n.02'
p99
I0
sg91
I0
sg77
I0
sS'bread.n.01'
p100
I0
sg88
I0
sS'batter.n.02'
p101
I0
sg82
I0
sg80
I0
sg62
I0
sS'knife.n.01'
p102
I0
sS'foam.n.01'
p103
I0
sg69
I0
sg61
I0
sg84
I0
sS'pan.n.01'
p104
I0
sg79
I0
sS'pan.n.03'
p105
I0
sS'cut.v.01'
p106
I0
sS'gap.n.03'
p107
I0
sS'fill.v.09'
p108
I0
sS'egg.n.02'
p109
I0
sS'egg.n.01'
p110
I0
sS'beef.n.02'
p111
I0
sS'bacon.n.02'
p112
I0
sS'bacon.n.01'
p113
I0
sS'fill.v.01'
p114
I0
sg60
I0
sS'meat.n.01'
p115
I0
sg72
I0
sg83
I0
sg75
I0
sg86
I0
sS'cleaver.n.01'
p116
I0
sS'slice.v.02'
p117
I0
sS'slice.v.03'
p118
I0
sS'salt.n.01'
p119
I0
sS'cabbage.n.01'
p120
I0
sg81
I0
sS'banana.n.02'
p121
I0
sS'knife.n.02'
p122
I0
sS'plate.n.04'
p123
I0
sS'pepper.n.04'
p124
I0
sg56
I0
sS'pepper.n.03'
p125
I0
sS'human_body.n.01'
p126
I0
sS'whipped_cream.n.01'
p127
I0
sg85
I0
sg78
I0
sg58
I0
sS'opening.n.01'
p128
I0
sg71
I0
sS'mug.n.04'
p129
I0
sg89
I0
sS'flesh.n.01'
p130
I0
sg57
I0
sS'helicopter.n.01'
p131
I0
sg59
I0
sS'water.n.06'
p132
I0
sS'put.v.01'
p133
I0
sS'pizza.n.01'
p134
I0
sg68
I0
sg90
I0
sS'lemon.n.05'
p135
I0
sS'kettle.n.01'
p136
I0
sS'cake.n.03'
p137
I0
sg70
I0
sS'lemon.n.01'
p138
I0
sg87
I0
sg76
I0
sS'onion.n.01'
p139
I0
sS'onion.n.03'
p140
I0
sS'put.v.02'
p141
I0
ssg28
(dp142
S'plate.n.13'
p143
I0
sg28
I8
sg64
I0
sg22
I0
sg13
I0
sg91
I0
sg77
I0
sg67
I0
sg51
I0
sg88
I0
sg46
I0
sg82
I0
sg80
I0
sS'milk.n.04'
p144
I0
sg29
I0
sg30
I0
sg69
I0
sS'milk.n.01'
p145
I0
sg84
I0
sg33
I0
sg79
I0
sg9
I0
sg16
I0
sg44
I0
sg45
I0
sg54
I0
sg55
I0
sg38
I0
sg37
I0
sg26
I0
sS'pitcher.n.02'
p146
I0
sg65
I0
sg23
I0
sg72
I0
sg83
I0
sg49
I0
sg90
I0
sg75
I0
sg86
I0
sg52
I0
sg24
I0
sg36
I0
sg21
I0
sg53
I0
sg15
I0
sg81
I0
sg20
I0
sg47
I0
sg14
I0
sg41
I0
sS'meet.v.04'
p147
I0
sg42
I0
sg19
I0
sg39
I0
sg35
I0
sg27
I0
sg85
I0
sg78
I0
sS'piece.n.08'
p148
I0
sg50
I0
sg43
I0
sg71
I0
sg40
I0
sg89
I0
sg34
I0
sS'water.n.03'
p149
I0
sg48
I0
sS'slice.n.06'
p150
I0
sg32
I0
sg8
I0
sg10
I0
sg68
I0
sg66
I0
sg18
I0
sg31
I0
sg25
I0
sg70
I0
sg17
I0
sg87
I0
sg76
I0
sg11
I0
sg12
I0
sg141
I0
ssg74
(dp151
g74
I0
sS'chicken.n.01'
p152
I0
sS'salt.n.02'
p153
I0
sS'bread.n.01'
p154
I0
sS'pizza.n.01'
p155
I0
sS'batter.n.02'
p156
I0
sS'foam.n.01'
p157
I0
sS'milk.n.01'
p158
I0
sS'pan.n.01'
p159
I0
sS'pan.n.03'
p160
I0
sS'cut.v.01'
p161
I0
sS'gap.n.03'
p162
I0
sS'fill.v.09'
p163
I0
sS'egg.n.02'
p164
I0
sS'egg.n.01'
p165
I0
sS'beef.n.02'
p166
I0
sS'bacon.n.01'
p167
I0
sS'fill.v.01'
p168
I0
sS'pitcher.n.02'
p169
I0
sS'meat.n.01'
p170
I0
sS'cleaver.n.01'
p171
I0
sS'slice.v.02'
p172
I0
sS'slice.v.03'
p173
I0
sS'salt.n.01'
p174
I0
sS'knife.n.01'
p175
I0
sS'banana.n.02'
p176
I0
sS'knife.n.02'
p177
I0
sS'plate.n.04'
p178
I0
sS'pepper.n.04'
p179
I0
sS'pepper.n.03'
p180
I0
sS'human_body.n.01'
p181
I0
sS'piece.n.08'
p182
I0
sS'opening.n.01'
p183
I0
sS'mug.n.04'
p184
I0
sS'flesh.n.01'
p185
I0
sS'helicopter.n.01'
p186
I0
sS'water.n.06'
p187
I0
sS'put.v.01'
p188
I0
sS'slice.n.05'
p189
I0
sS'lemon.n.01'
p190
I0
sS'onion.n.01'
p191
I0
sS'onion.n.03'
p192
I0
sg73
I0
ssg64
(dp193
S'plate.n.13'
p194
I0
sS'cheese.n.01'
p195
I0
sg74
I0
sg88
I0
sS'chicken.n.01'
p196
I0
sS'beef.n.02'
p197
I0
sS'cake.n.01'
p198
I0
sS'edit.v.03'
p199
I0
sg174
I0
sg154
I0
sg156
I0
sg82
I0
sS'wimp.n.01'
p200
I0
sg144
I0
sS'knife.n.01'
p201
I0
sS'pizza.n.01'
p202
I0
sg145
I0
sg84
I0
sS'pan.n.01'
p203
I0
sS'pan.n.03'
p204
I0
sS'cut.v.01'
p205
I0
sg162
I0
sS'fill.v.09'
p206
I0
sS'cabbage.n.01'
p207
I0
sg164
I0
sg165
I0
sS'bacon.n.01'
p208
I0
sS'fill.v.01'
p209
I0
sg85
I0
sg146
I0
sg65
I0
sS'meat.n.01'
p210
I0
sg83
I0
sg90
I0
sS'cut.v.32'
p211
I0
sg153
I0
sS'cleaver.n.01'
p212
I0
sg172
I0
sS'slice.v.03'
p213
I0
sg67
I0
sS'plate.n.08'
p214
I0
sg86
I0
sS'banana.n.02'
p215
I0
sg177
I0
sS'plate.n.04'
p216
I0
sg179
I0
sS'pepper.n.01'
p217
I0
sg180
I0
sS'foam.n.01'
p218
I0
sS'human_body.n.01'
p219
I0
sS'whipped_cream.n.01'
p220
I0
sS'patty.n.01'
p221
I0
sS'capsicum.n.01'
p222
I0
sg148
I0
sg183
I0
sS'mug.n.04'
p223
I0
sg89
I0
sS'flesh.n.01'
p224
I0
sg186
I0
sg91
I0
sS'water.n.06'
p225
I0
sS'put.v.01'
p226
I0
sg64
I0
sg66
I0
sS'lemon.n.05'
p227
I0
sS'kettle.n.01'
p228
I0
sS'cake.n.03'
p229
I0
sS'pulp.n.02'
p230
I0
sS'lemon.n.01'
p231
I0
sg87
I0
sS'onion.n.01'
p232
I0
sS'onion.n.03'
p233
I0
sg73
I0
ssg22
(dp234
S'plate.n.13'
p235
I0
sg28
I0
sg74
I0
sg64
I0
sg22
I4
sg13
I0
sg91
I0
sg77
I0
sg67
I0
sg51
I0
sg88
I0
sg46
I0
sg82
I0
sg80
I3
sg144
I0
sg15
I0
sg30
I0
sg145
I0
sg84
I0
sg33
I0
sg9
I0
sg16
I0
sg44
I0
sg45
I0
sg54
I0
sg55
I0
sg38
I0
sg37
I0
sg26
I0
sg146
I0
sg65
I0
sg24
I0
sg83
I0
sg49
I0
sg90
I0
sg75
I0
sg86
I0
sg52
I0
sg23
I0
sg36
I0
sg21
I0
sg53
I0
sg29
I0
sg81
I0
sg20
I0
sg47
I0
sg14
I0
sg41
I0
sg76
I0
sg42
I0
sg19
I0
sg39
I0
sg35
I0
sg27
I0
sg85
I0
sg78
I0
sg148
I0
sg50
I0
sg43
I0
sg40
I0
sg89
I0
sg34
I0
sg48
I0
sS'meet.v.04'
p236
I0
sS'slice.n.06'
p237
I0
sg32
I0
sg8
I0
sg10
I0
sg79
I0
sg66
I0
sg18
I0
sg31
I0
sg25
I0
sg230
I0
sg17
I0
sg87
I1
sg11
I0
sg12
I0
sg73
I0
ssg13
(dp238
g63
I0
sg28
I0
sg74
I0
sg64
I0
sg22
I0
sg13
I7
sg91
I0
sg77
I0
sg67
I0
sg100
I0
sg88
I0
sg46
I0
sg82
I0
sg80
I0
sg62
I0
sg29
I0
sg30
I0
sg69
I0
sg61
I0
sg84
I0
sg33
I0
sg79
I0
sg9
I0
sg16
I0
sg44
I0
sg45
I0
sg109
I0
sg110
I0
sg38
I0
sg37
I0
sg26
I0
sg60
I0
sg65
I0
sg23
I0
sg72
I0
sg83
I0
sg90
I0
sg75
I0
sg86
I0
sg99
I0
sg24
I0
sg36
I0
sg21
I0
sg119
I0
sg15
I0
sg81
I0
sg20
I0
sg177
I0
sg14
I0
sg41
I0
sg56
I0
sg42
I0
sg19
I0
sg39
I0
sg35
I0
sg27
I0
sg85
I1
sg78
I0
sg58
I0
sg43
I0
sg71
I0
sg40
I0
sg89
I0
sg34
I0
sg57
I0
sg186
I0
sg59
I0
sg32
I0
sg8
I0
sg10
I0
sg68
I0
sg66
I0
sg18
I0
sg31
I0
sg25
I0
sg70
I0
sg17
I0
sg87
I0
sg76
I0
sg11
I0
sg12
I0
sg73
I0
ssg91
(dp239
S'plate.n.13'
p240
I0
sg90
I0
sS'chicken.n.01'
p241
I0
sS'slice.v.03'
p242
I0
sS'cake.n.01'
p243
I0
sS'bread.n.01'
p244
I0
sS'cheese.n.01'
p245
I0
sg200
I0
sS'cabbage.n.01'
p246
I0
sS'pizza.n.01'
p247
I0
sS'milk.n.01'
p248
I0
sS'milk.n.02'
p249
I0
sS'pan.n.01'
p250
I0
sS'pan.n.03'
p251
I0
sS'cut.v.01'
p252
I0
sS'cabbage.n.03'
p253
I0
sS'pitcher.n.02'
p254
I0
sS'egg.n.02'
p255
I0
sS'beef.n.02'
p256
I0
sS'fill.v.01'
p257
I0
sS'capsicum.n.01'
p258
I0
sS'meat.n.01'
p259
I0
sS'cut.v.32'
p260
I0
sS'cleaver.n.01'
p261
I0
sS'slice.v.02'
p262
I0
sS'salt.n.02'
p263
I0
sS'knife.n.01'
p264
I0
sS'tongue.n.03'
p265
I0
sS'banana.n.02'
p266
I0
sg122
I0
sS'plate.n.04'
p267
I0
sS'edit.v.03'
p268
I0
sS'pepper.n.03'
p269
I0
sS'water.n.06'
p270
I0
sS'whipped_cream.n.01'
p271
I0
sS'strategic_arms_limitation_talks.n.01'
p272
I0
sS'flesh.n.01'
p273
I0
sg131
I0
sg91
I0
sS'put.v.02'
p274
I0
sS'put.v.01'
p275
I0
sS'slice.n.05'
p276
I0
sS'piece.n.08'
p277
I0
sS'lemon.n.05'
p278
I0
sS'kettle.n.01'
p279
I0
sS'cake.n.03'
p280
I0
sS'lemon.n.01'
p281
I0
sS'onion.n.01'
p282
I0
sg230
I0
ssg77
(dp283
g235
I0
sS'cheese.n.01'
p284
I0
sg97
I0
sg98
I0
sS'salt.n.02'
p285
I0
sg91
I0
sS'bread.n.01'
p286
I0
sg88
I0
sS'batter.n.02'
p287
I0
sg82
I0
sg80
I0
sg83
I0
sS'cabbage.n.01'
p288
I0
sS'foam.n.01'
p289
I0
sS'milk.n.01'
p290
I0
sg84
I0
sS'pan.n.01'
p291
I0
sS'pan.n.03'
p292
I0
sS'cut.v.01'
p293
I0
sS'gap.n.03'
p294
I0
sS'fill.v.09'
p295
I0
sS'egg.n.02'
p296
I0
sS'egg.n.01'
p297
I0
sS'beef.n.02'
p298
I0
sg112
I0
sS'bacon.n.01'
p299
I0
sS'fill.v.01'
p300
I0
sg78
I0
sg115
I0
sS'pepper.n.04'
p301
I0
sg86
I0
sg116
I0
sg262
I0
sS'slice.v.03'
p302
I0
sS'knife.n.01'
p303
I0
sg81
I0
sS'banana.n.02'
p304
I0
sg122
I0
sS'plate.n.04'
p305
I0
sg76
I0
sg77
I0
sS'pepper.n.03'
p306
I0
sS'water.n.06'
p307
I0
sS'whipped_cream.n.01'
p308
I0
sg85
I0
sS'piece.n.08'
p309
I0
sS'opening.n.01'
p310
I0
sS'mug.n.04'
p311
I0
sg89
I0
sg273
I0
sg131
I0
sg237
I0
sg75
I0
sS'put.v.01'
p312
I0
sS'pizza.n.01'
p313
I0
sg79
I0
sg90
I0
sg135
I0
sS'kettle.n.01'
p314
I0
sS'cake.n.03'
p315
I0
sg230
I0
sS'lemon.n.01'
p316
I0
sg87
I0
sS'onion.n.01'
p317
I0
sS'pitcher.n.02'
p318
I0
sS'onion.n.03'
p319
I0
sg141
I0
ssg67
(dp320
g195
I0
sg196
I0
sg197
I0
sg144
I0
sg201
I0
sg202
I0
sg145
I0
sg203
I0
sg204
I0
sg205
I0
sg206
I0
sg207
I0
sg208
I0
sg209
I0
sg146
I0
sg65
I0
sg210
I0
sg212
I0
sg213
I0
sg67
I0
sg214
I0
sg215
I0
sg216
I0
sg218
I0
sg219
I0
sg220
I0
sg221
I0
sg148
I0
sg223
I0
sg224
I0
sg225
I0
sg226
I0
sg64
I0
sg66
I0
sg228
I0
sg229
I0
sg231
I0
sg232
I0
sg233
I0
ssg51
(dp321
g63
I0
sS'cheese.n.01'
p322
I0
sg74
I0
sg189
I0
sS'chicken.n.01'
p323
I0
sg52
I0
sg91
I0
sg77
I0
sg51
I8
sg88
I0
sS'batter.n.02'
p324
I0
sg82
I0
sg80
I0
sg62
I0
sS'cabbage.n.01'
p325
I0
sS'patty.n.01'
p326
I0
sg69
I0
sg61
I0
sg84
I0
sS'pan.n.01'
p327
I0
sg79
I0
sS'pan.n.03'
p328
I0
sS'cut.v.01'
p329
I0
sg49
I0
sS'fill.v.09'
p330
I0
sg54
I0
sg55
I0
sg111
I0
sS'bacon.n.02'
p331
I0
sS'bacon.n.01'
p332
I0
sS'fill.v.01'
p333
I0
sS'gap.n.03'
p334
I0
sS'meat.n.01'
p335
I0
sg72
I0
sg83
I0
sg75
I0
sg86
I0
sS'cleaver.n.01'
p336
I0
sS'slice.v.02'
p337
I0
sS'slice.v.03'
p338
I0
sg53
I0
sS'knife.n.01'
p339
I0
sg81
I0
sS'banana.n.02'
p340
I0
sg47
I0
sg123
I0
sS'pepper.n.04'
p341
I0
sg56
I0
sS'pepper.n.03'
p342
I0
sS'foam.n.01'
p343
I0
sS'human_body.n.01'
p344
I0
sS'whipped_cream.n.01'
p345
I0
sg85
I0
sg78
I0
sg58
I0
sg50
I0
sS'opening.n.01'
p346
I0
sg71
I0
sS'mug.n.04'
p347
I0
sg89
I0
sS'flesh.n.01'
p348
I0
sg57
I0
sg48
I0
sg59
I0
sS'water.n.06'
p349
I0
sS'put.v.01'
p350
I0
sg134
I0
sg68
I0
sg90
I0
sS'lemon.n.05'
p351
I0
sS'kettle.n.01'
p352
I0
sS'cake.n.03'
p353
I0
sg70
I0
sS'lemon.n.01'
p354
I0
sg87
I0
sg76
I0
sS'onion.n.01'
p355
I0
sg60
I0
sg140
I0
sg73
I0
ssg88
(dp356
g194
I0
sg87
I0
sg88
I0
sS'chicken.n.01'
p357
I0
sS'salt.n.02'
p358
I0
sg198
I0
sg199
I0
sS'bread.n.01'
p359
I0
sS'cheese.n.01'
p360
I0
sS'batter.n.02'
p361
I0
sg82
I0
sg288
I0
sS'pizza.n.01'
p362
I0
sS'piece.n.08'
p363
I0
sg84
I0
sS'pan.n.01'
p364
I0
sS'pan.n.03'
p365
I0
sS'cut.v.01'
p366
I0
sg89
I0
sS'fill.v.09'
p367
I0
sS'egg.n.02'
p368
I0
sS'beef.n.02'
p369
I0
sS'fill.v.01'
p370
I0
sg222
I0
sS'meat.n.01'
p371
I0
sg211
I0
sS'cleaver.n.01'
p372
I0
sS'slice.v.03'
p373
I0
sS'knife.n.01'
p374
I0
sg86
I0
sS'banana.n.02'
p375
I0
sS'plate.n.04'
p376
I0
sS'pepper.n.04'
p377
I0
sg217
I0
sS'pepper.n.03'
p378
I0
sg307
I0
sS'whipped_cream.n.01'
p379
I0
sg85
I0
sg83
I0
sS'opening.n.01'
p380
I0
sS'milk.n.01'
p381
I0
sS'put.v.02'
p382
I0
sS'put.v.01'
p383
I0
sg97
I0
sg227
I0
sg314
I0
sS'cake.n.03'
p384
I0
sS'lemon.n.01'
p385
I0
sS'onion.n.01'
p386
I0
sS'pitcher.n.02'
p387
I0
sS'onion.n.03'
p388
I0
ssg46
(dp389
g63
I0
sg28
I0
sg74
I0
sg189
I0
sg22
I0
sg13
I0
sg77
I0
sg51
I0
sg88
I0
sg46
I7
sg82
I1
sg80
I0
sg62
I0
sg19
I0
sg30
I0
sg69
I0
sg61
I0
sg84
I0
sg33
I0
sg79
I0
sg9
I0
sg16
I0
sg44
I0
sg45
I0
sg29
I0
sg54
I0
sg55
I0
sg38
I0
sg37
I0
sg26
I0
sg60
I0
sg24
I0
sg72
I0
sg83
I0
sg49
I0
sg75
I0
sg86
I0
sg52
I0
sg23
I0
sg36
I0
sg21
I0
sg53
I0
sg15
I0
sg81
I0
sg20
I0
sg47
I0
sg14
I0
sg41
I0
sg56
I0
sg42
I0
sg39
I0
sg35
I0
sg27
I0
sg85
I0
sg78
I0
sg58
I0
sg50
I0
sg43
I0
sg71
I0
sg40
I0
sg89
I0
sg34
I0
sg57
I0
sg48
I0
sg59
I0
sg32
I0
sg8
I0
sg10
I0
sg68
I0
sS'kernel.n.01'
p390
I0
sg18
I0
sg31
I0
sg25
I0
sg70
I0
sg17
I0
sg87
I0
sg76
I0
sg11
I0
sg12
I0
sg73
I0
ssg82
(dp391
g194
I0
sg87
I0
sg88
I0
sg357
I0
sg358
I0
sg198
I0
sg199
I0
sg359
I0
sg360
I0
sg361
I0
sg82
I0
sg288
I0
sg362
I0
sg363
I0
sg84
I0
sg364
I0
sg365
I0
sg366
I0
sg89
I0
sg367
I0
sg368
I0
sg369
I0
sg370
I0
sg222
I0
sg371
I0
sg211
I0
sg372
I0
sg373
I0
sg374
I0
sg86
I0
sg375
I0
sg376
I0
sg377
I0
sg217
I0
sg378
I0
sg307
I0
sg379
I0
sg85
I0
sg83
I0
sg380
I0
sg381
I0
sg382
I0
sg383
I0
sg97
I0
sg227
I0
sg314
I0
sg384
I0
sg385
I0
sg386
I0
sg387
I0
sg388
I0
ssg80
(dp392
g235
I0
sg284
I0
sg276
I0
sg98
I0
sg285
I0
sg91
I0
sg77
I0
sg286
I0
sg287
I0
sg80
I0
sg272
I0
sg246
I0
sg289
I0
sg290
I0
sg249
I0
sg291
I0
sg292
I0
sg293
I0
sg294
I0
sg295
I0
sg296
I0
sg297
I0
sg298
I0
sg112
I0
sg299
I0
sg300
I0
sg78
I0
sg115
I0
sg75
I0
sg265
I0
sg116
I0
sg262
I0
sg302
I0
sS'salt.n.01'
p393
I0
sg303
I0
sg81
I0
sg304
I0
sg122
I0
sg305
I0
sg301
I0
sg76
I0
sg306
I0
sg270
I0
sS'human_body.n.01'
p394
I0
sg308
I0
sg309
I0
sg310
I0
sg311
I0
sg253
I0
sg273
I0
sg131
I0
sg236
I0
sg237
I0
sg141
I0
sg312
I0
sg313
I0
sg79
I0
sg135
I0
sg279
I0
sg315
I0
sg230
I0
sg316
I0
sg317
I0
sg318
I0
sg319
I0
sg90
I0
ssg62
(dp395
g63
I0
sg195
I0
sg64
I0
sg196
I0
sg99
I0
sg67
I0
sg100
I0
sg101
I0
sg62
I0
sg102
I0
sg103
I0
sg69
I0
sg61
I0
sg104
I0
sg105
I0
sg106
I0
sg107
I0
sg108
I0
sg109
I0
sg110
I0
sg111
I0
sg113
I0
sg114
I0
sg60
I0
sg65
I0
sg210
I0
sg72
I0
sg212
I0
sg117
I0
sg118
I0
sg119
I0
sg120
I0
sg121
I0
sg123
I0
sg124
I0
sg56
I0
sg125
I0
sg126
I0
sg220
I0
sg221
I0
sg58
I0
sg214
I0
sg128
I0
sg71
I0
sg129
I0
sg130
I0
sg57
I0
sg59
I0
sg132
I0
sg133
I0
sg134
I0
sg68
I0
sg66
I0
sg136
I0
sg229
I0
sg70
I0
sg138
I0
sg139
I0
sg140
I0
ssg29
(dp396
g63
I0
sg28
I0
sg64
I0
sg22
I0
sg13
I0
sg198
I0
sg91
I0
sg199
I0
sg67
I0
sg51
I0
sg88
I0
sg46
I0
sg82
I0
sg200
I0
sg62
I0
sg15
I0
sg30
I0
sg69
I0
sg61
I0
sg84
I0
sg33
I0
sg9
I0
sg16
I0
sg44
I0
sg45
I0
sg54
I0
sg55
I0
sg38
I0
sg37
I0
sg26
I0
sg60
I0
sg65
I0
sg24
I0
sg72
I0
sg83
I0
sg49
I0
sg90
I0
sg211
I0
sg52
I0
sg23
I0
sg36
I0
sg21
I0
sg53
I0
sg29
I6
sg86
I0
sg20
I0
sg47
I0
sg14
I0
sg41
I0
sg56
I0
sg42
I0
sg19
I0
sg39
I0
sg35
I0
sg27
I0
sg85
I0
sg222
I0
sg58
I0
sg50
I0
sg43
I0
sg71
I0
sg40
I0
sg89
I2
sg34
I0
sg57
I0
sg48
I0
sg59
I0
sg32
I0
sg8
I0
sg10
I0
sg68
I0
sg66
I0
sg18
I0
sg31
I0
sg25
I0
sg70
I0
sg17
I0
sg87
I0
sg217
I0
sg11
I0
sg12
I0
sg382
I0
ssg30
(dp397
g63
I0
sg28
I0
sg74
I0
sg64
I0
sg22
I0
sg13
I0
sg91
I0
sg77
I0
sg67
I0
sg51
I0
sg88
I0
sg46
I0
sg82
I0
sg80
I0
sg62
I0
sg19
I0
sg30
I15
sg69
I0
sg61
I0
sg84
I0
sg33
I0
sg79
I0
sg9
I0
sg16
I0
sg44
I0
sg45
I14
sg29
I0
sg54
I0
sg55
I0
sg38
I0
sg37
I0
sg26
I0
sg60
I0
sg65
I0
sg23
I0
sg72
I0
sg83
I0
sg49
I0
sg90
I0
sg75
I0
sg86
I0
sg52
I0
sg24
I0
sg36
I0
sg21
I0
sg53
I0
sg15
I0
sg81
I0
sg20
I0
sg47
I0
sg14
I0
sg41
I0
sg56
I3
sg42
I0
sg39
I0
sg35
I0
sg27
I0
sg85
I0
sg78
I0
sg58
I0
sg50
I0
sg43
I0
sg71
I0
sg40
I0
sg89
I0
sg34
I0
sg57
I0
sg48
I0
sg59
I0
sg32
I0
sg8
I0
sg10
I0
sg68
I0
sg66
I0
sg18
I0
sg31
I0
sg25
I0
sg70
I0
sg17
I0
sg87
I0
sg76
I0
sg11
I0
sg12
I0
sg73
I0
ssg69
(dp398
g143
I0
sg96
I0
sS'salt.n.02'
p399
I0
sS'bread.n.01'
p400
I0
sS'batter.n.02'
p401
I0
sS'milk.n.04'
p402
I0
sS'knife.n.01'
p403
I0
sS'milk.n.01'
p404
I0
sS'pan.n.01'
p405
I0
sS'cut.v.01'
p406
I0
sS'pan.n.03'
p407
I0
sg69
I0
sS'fill.v.09'
p408
I0
sS'egg.n.02'
p409
I0
sS'egg.n.01'
p410
I0
sS'beef.n.02'
p411
I0
sS'bacon.n.01'
p412
I0
sS'fill.v.01'
p413
I0
sS'pitcher.n.02'
p414
I0
sg72
I0
sS'slice.v.03'
p415
I0
sS'salt.n.01'
p416
I0
sS'cabbage.n.01'
p417
I0
sS'plate.n.04'
p418
I0
sS'pepper.n.04'
p419
I0
sg147
I0
sS'pepper.n.03'
p420
I0
sg127
I0
sS'piece.n.08'
p421
I0
sS'opening.n.01'
p422
I0
sg71
I0
sS'mug.n.04'
p423
I0
sS'flesh.n.01'
p424
I0
sg149
I0
sg150
I0
sS'water.n.06'
p425
I0
sS'put.v.01'
p426
I0
sS'pizza.n.01'
p427
I0
sg68
I0
sS'kettle.n.01'
p428
I0
sg137
I0
sg70
I0
sS'onion.n.01'
p429
I0
sS'onion.n.03'
p430
I0
ssg61
(dp431
g63
I0
sg195
I0
sg74
I0
sg64
I0
sg196
I0
sg99
I0
sg91
I0
sg77
I0
sg67
I0
sg100
I0
sg88
I0
sg101
I0
sg82
I0
sg80
I0
sg62
I3
sg102
I0
sg103
I0
sg69
I0
sg61
I2
sg84
I3
sg104
I0
sg79
I0
sg105
I0
sg106
I0
sg107
I0
sg108
I0
sg109
I0
sg110
I0
sg111
I0
sg112
I0
sg113
I0
sg114
I0
sg85
I0
sg60
I0
sg65
I0
sg210
I0
sg72
I0
sg83
I0
sg90
I0
sg75
I0
sg86
I0
sg212
I0
sg117
I0
sg118
I0
sg119
I0
sg120
I0
sg81
I0
sg121
I0
sg177
I0
sg123
I0
sg124
I0
sg56
I0
sg125
I0
sg126
I0
sg220
I0
sg221
I0
sg78
I0
sg58
I0
sg214
I0
sg128
I0
sg71
I0
sg129
I0
sg89
I0
sg130
I0
sg57
I0
sg186
I0
sg59
I0
sg132
I0
sg133
I0
sg134
I0
sg68
I0
sg66
I0
sg135
I0
sg136
I0
sg229
I0
sg70
I0
sg138
I0
sg87
I0
sg76
I0
sg139
I0
sg140
I0
sg73
I0
ssg84
(dp432
g194
I0
sg87
I0
sg88
I0
sg357
I0
sg358
I0
sg198
I0
sg199
I0
sg359
I0
sg360
I0
sg361
I0
sg82
I0
sg200
I0
sg288
I0
sg362
I0
sg363
I0
sg84
I0
sg364
I0
sS'gap.n.03'
p433
I0
sg365
I0
sg366
I0
sg89
I0
sg367
I0
sg368
I0
sS'egg.n.01'
p434
I0
sg369
I0
sS'bacon.n.02'
p435
I0
sS'bacon.n.01'
p436
I0
sg370
I0
sg222
I0
sg371
I0
sg211
I0
sS'slice.n.06'
p437
I0
sg372
I0
sg262
I0
sg373
I0
sg393
I0
sg374
I0
sg86
I0
sg375
I0
sg122
I0
sg376
I0
sg377
I0
sg217
I0
sg378
I0
sg307
I0
sS'foam.n.01'
p438
I0
sg394
I0
sg379
I0
sg85
I0
sg83
I0
sg380
I0
sS'mug.n.04'
p439
I0
sg273
I0
sg381
I0
sg131
I0
sg91
I0
sg382
I0
sg383
I0
sg97
I0
sg236
I0
sg227
I0
sg314
I0
sg384
I0
sg230
I0
sg385
I0
sg386
I0
sg387
I0
sg388
I0
sg90
I0
ssg33
(dp440
g63
I0
sg28
I0
sg74
I0
sg64
I0
sg22
I0
sg13
I0
sg91
I0
sg77
I0
sg67
I0
sg51
I0
sg88
I0
sg46
I0
sg82
I0
sg80
I0
sg62
I0
sg19
I0
sg30
I0
sg69
I1
sg61
I0
sg84
I0
sg33
I1
sg79
I0
sg9
I6
sg16
I0
sg44
I0
sg45
I0
sg29
I0
sg54
I0
sg55
I0
sg38
I0
sg37
I0
sg26
I0
sg60
I0
sg65
I0
sg23
I0
sg72
I0
sg83
I0
sg49
I0
sg90
I0
sg75
I0
sg86
I0
sg52
I0
sg24
I0
sg36
I0
sg21
I0
sg53
I0
sg15
I0
sg81
I0
sg20
I0
sg47
I0
sg14
I0
sg41
I0
sg56
I0
sg42
I0
sg39
I0
sg35
I0
sg27
I0
sg85
I0
sg78
I0
sg58
I0
sg50
I0
sg43
I0
sg71
I0
sg40
I0
sg89
I0
sg34
I0
sg57
I0
sg48
I0
sg59
I0
sg32
I0
sg8
I0
sg10
I0
sg68
I0
sg66
I0
sg18
I0
sg31
I0
sg25
I0
sg70
I0
sg17
I0
sg87
I0
sg76
I0
sg11
I0
sg12
I0
sg73
I0
ssg79
(dp441
g235
I0
sg284
I0
sg98
I0
sg285
I0
sg286
I0
sg287
I0
sg80
I0
sg289
I0
sg290
I0
sg291
I0
sg292
I0
sg293
I0
sg294
I0
sg295
I0
sg296
I0
sg297
I0
sg298
I0
sg112
I0
sg299
I0
sg300
I0
sg78
I0
sg115
I0
sg301
I0
sg116
I0
sg302
I0
sg303
I0
sg81
I0
sg304
I0
sg305
I0
sg77
I0
sg76
I0
sg306
I0
sg308
I0
sg309
I0
sg310
I0
sg311
I0
sg237
I0
sg75
I0
sg312
I0
sg313
I0
sg79
I0
sg135
I0
sg315
I0
sg316
I0
sg317
I0
sg318
I0
sg319
I0
sg141
I0
ssg9
(dp442
g63
I0
sg28
I0
sg74
I0
sg64
I0
sg22
I0
sg13
I0
sg91
I0
sg77
I0
sg67
I0
sg51
I0
sg88
I0
sg46
I0
sg82
I0
sg80
I0
sg62
I0
sg29
I0
sg30
I0
sg69
I0
sg61
I0
sg84
I0
sg33
I5
sg79
I0
sg9
I11
sg16
I0
sg44
I0
sg45
I0
sg54
I0
sg55
I0
sg38
I0
sg37
I0
sg26
I0
sg60
I0
sg65
I0
sg23
I0
sg72
I0
sg83
I0
sg49
I0
sg90
I0
sg75
I0
sg86
I0
sg52
I0
sg24
I0
sg36
I0
sg21
I0
sg53
I0
sg15
I0
sg81
I0
sg20
I0
sg47
I0
sg14
I0
sg41
I0
sg56
I0
sg42
I0
sg19
I0
sg39
I0
sg35
I0
sg27
I0
sg85
I0
sg78
I0
sg58
I0
sg50
I0
sg43
I0
sg71
I0
sg40
I0
sg89
I0
sg34
I0
sg57
I0
sg48
I0
sg59
I0
sg32
I0
sg8
I0
sg10
I0
sg68
I0
sg66
I0
sg18
I0
sg31
I0
sg25
I0
sg70
I0
sg17
I0
sg87
I0
sg76
I0
sg11
I0
sg12
I0
sg73
I0
ssg16
(dp443
g63
I0
sg28
I0
sg74
I0
sg64
I0
sg22
I0
sg13
I0
sg91
I0
sg77
I9
sg67
I0
sg51
I0
sg88
I0
sg46
I0
sg82
I0
sg80
I0
sg62
I0
sg29
I0
sg30
I0
sg69
I0
sg61
I0
sg84
I0
sg33
I0
sg79
I0
sg9
I0
sg16
I27
sg44
I0
sg45
I0
sg54
I0
sg55
I0
sg38
I0
sg37
I0
sg26
I0
sg60
I0
sg65
I0
sg23
I0
sg72
I0
sg83
I0
sg49
I1
sg90
I0
sg75
I3
sg86
I0
sg52
I0
sg24
I0
sg36
I0
sg21
I0
sg53
I0
sg15
I0
sg81
I0
sg20
I0
sg47
I0
sg14
I0
sg41
I0
sg56
I0
sg42
I0
sg19
I0
sg39
I0
sg35
I0
sg27
I0
sg85
I0
sg78
I0
sg58
I0
sg50
I0
sg43
I0
sg71
I0
sg40
I0
sg89
I0
sg34
I0
sg57
I0
sg48
I0
sg59
I0
sg32
I0
sg8
I0
sg10
I0
sg68
I0
sg66
I0
sg18
I0
sg31
I0
sg25
I0
sg70
I0
sg17
I0
sg87
I0
sg76
I0
sg11
I0
sg12
I0
sg73
I0
ssg44
(dp444
g63
I0
sg28
I0
sg74
I0
sg189
I0
sg22
I0
sg13
I0
sg77
I0
sg51
I0
sg46
I0
sg80
I0
sg62
I0
sg19
I0
sg30
I0
sg61
I0
sS'milk.n.02'
p445
I0
sg33
I0
sg9
I0
sg16
I0
sg44
I0
sg45
I0
sg29
I0
sg54
I0
sg55
I0
sg38
I0
sg37
I0
sg26
I0
sg60
I0
sg23
I0
sg49
I0
sg75
I0
sg52
I0
sg24
I0
sg36
I0
sg21
I0
sg53
I0
sg15
I0
sg81
I0
sg20
I0
sg47
I0
sg14
I0
sg41
I0
sg56
I0
sg42
I0
sg39
I0
sg35
I0
sg27
I0
sg78
I0
sg58
I0
sg50
I0
sg43
I0
sg40
I0
sg34
I0
sg57
I0
sg48
I0
sg59
I0
sg32
I0
sg8
I0
sg10
I0
sg79
I0
sg390
I0
sg18
I0
sg31
I0
sg25
I0
sg17
I0
sg76
I0
sg11
I0
sg12
I0
sg73
I0
ssg45
(dp446
g63
I0
sg28
I0
sg74
I0
sg64
I0
sg22
I0
sg13
I0
sg77
I0
sg67
I0
sg51
I0
sg88
I0
sg46
I0
sg82
I0
sg80
I0
sg62
I0
sg19
I0
sg30
I5
sg69
I0
sg61
I0
sg84
I0
sg33
I0
sg79
I0
sg9
I0
sg16
I0
sg44
I0
sg45
I3
sg29
I0
sg54
I0
sg55
I0
sg38
I0
sg37
I0
sg26
I0
sg60
I0
sg65
I0
sg23
I0
sg72
I0
sg83
I0
sg49
I0
sg390
I0
sg75
I0
sg86
I0
sg52
I0
sg24
I0
sg36
I0
sg21
I0
sg53
I0
sg15
I0
sg81
I0
sg20
I0
sg47
I0
sg14
I0
sg41
I0
sg56
I0
sg42
I0
sg39
I0
sg35
I0
sg27
I0
sg85
I0
sg78
I0
sg58
I0
sg50
I0
sg43
I0
sg71
I0
sg40
I0
sg89
I0
sg34
I0
sg57
I0
sg48
I0
sg59
I0
sg32
I0
sg8
I0
sg10
I0
sg68
I0
sg66
I0
sg18
I0
sg31
I0
sg25
I0
sg70
I0
sg17
I0
sg87
I0
sg76
I0
sg11
I0
sg12
I0
sg73
I0
ssg54
(dp447
g63
I0
sg322
I0
sg74
I0
sg189
I0
sg323
I0
sg52
I0
sg91
I0
sg77
I0
sg51
I0
sg88
I0
sg324
I0
sg82
I0
sg80
I0
sg62
I0
sg325
I0
sg333
I0
sg69
I0
sg61
I0
sg84
I0
sg327
I0
sg79
I0
sg328
I0
sg329
I0
sg49
I0
sg330
I0
sg54
I2
sg55
I6
sg111
I0
sg331
I0
sg332
I0
sg326
I0
sg334
I0
sg335
I0
sg72
I0
sg83
I0
sg75
I0
sg86
I0
sg336
I0
sg337
I0
sg338
I0
sg53
I0
sg339
I0
sg81
I0
sg340
I0
sg47
I0
sg123
I0
sg341
I0
sg56
I0
sg342
I0
sg343
I0
sg344
I0
sg345
I0
sg85
I0
sg78
I0
sg58
I0
sg50
I0
sg346
I0
sg71
I0
sg347
I0
sg89
I0
sg348
I0
sg57
I0
sg48
I0
sg59
I0
sg349
I0
sg350
I0
sg134
I0
sg68
I0
sg90
I0
sg351
I0
sg352
I0
sg353
I0
sg70
I0
sg354
I0
sg87
I0
sg76
I0
sg355
I0
sg60
I0
sg140
I0
sg73
I0
ssg55
(dp448
g63
I0
sg322
I0
sg74
I0
sg189
I0
sg323
I0
sg52
I0
sg77
I0
sg51
I0
sg324
I0
sg80
I0
sg62
I0
sg325
I0
sg333
I0
sg69
I0
sg61
I0
sg445
I0
sg327
I0
sg79
I0
sg328
I0
sg329
I0
sg49
I0
sg330
I0
sg54
I0
sg55
I0
sg111
I0
sg331
I0
sg332
I0
sg326
I0
sg334
I0
sg335
I0
sg72
I0
sg75
I0
sg336
I0
sg337
I0
sg338
I0
sg53
I0
sg339
I0
sg81
I0
sg340
I0
sg47
I0
sg123
I0
sg341
I0
sg56
I0
sg342
I0
sg343
I0
sg344
I0
sg345
I0
sg78
I0
sg58
I0
sg50
I0
sg346
I0
sg71
I0
sg347
I0
sg348
I0
sg57
I0
sg48
I0
sg59
I0
sg349
I0
sg350
I0
sg134
I0
sg68
I0
sg390
I0
sg351
I0
sg352
I0
sg353
I0
sg70
I0
sg354
I0
sg76
I0
sg355
I0
sg60
I0
sg140
I0
sg73
I0
ssg38
(dp449
g235
I0
sg28
I0
sg22
I0
sg13
I0
sg77
I0
sg51
I0
sg46
I0
sg80
I0
sg19
I0
sg30
I0
sg290
I0
sg445
I0
sg33
I0
sg9
I0
sg16
I0
sg44
I0
sg45
I0
sg29
I0
sg54
I0
sg55
I0
sg38
I0
sg37
I0
sg26
I0
sg78
I0
sg23
I0
sg49
I0
sg75
I0
sg52
I0
sg24
I0
sg36
I0
sg21
I0
sg53
I0
sg15
I0
sg81
I0
sg20
I0
sg47
I0
sg14
I0
sg41
I0
sg76
I0
sg42
I0
sg39
I0
sg35
I0
sg27
I0
sg309
I0
sg50
I0
sg43
I0
sg40
I0
sg34
I0
sg48
I0
sg236
I0
sg237
I0
sg32
I0
sg8
I0
sg10
I0
sg79
I0
sg390
I0
sg18
I0
sg31
I0
sg25
I0
sg17
I0
sg11
I0
sg318
I0
sg12
I0
sg141
I0
ssg37
(dp450
g63
I0
sg28
I0
sg74
I0
sg64
I0
sg22
I0
sg445
I0
sg13
I0
sg77
I0
sg67
I0
sg51
I0
sg46
I0
sg80
I0
sg62
I0
sg19
I0
sg30
I0
sg69
I0
sg61
I0
sg390
I0
sg33
I0
sg79
I0
sg9
I0
sg16
I0
sg44
I0
sg45
I0
sg29
I0
sg54
I0
sg55
I0
sg38
I4
sg37
I4
sg26
I0
sg60
I0
sg65
I0
sg24
I0
sg72
I0
sg49
I0
sg75
I0
sg52
I0
sg23
I0
sg36
I0
sg21
I0
sg53
I0
sg15
I0
sg81
I0
sg20
I0
sg47
I0
sg14
I0
sg41
I0
sg56
I0
sg42
I0
sg39
I0
sg35
I0
sg27
I0
sg78
I0
sg58
I0
sg50
I0
sg43
I0
sg71
I0
sg40
I0
sg34
I0
sg57
I0
sg48
I0
sg59
I0
sg32
I0
sg8
I0
sg10
I0
sg68
I0
sg66
I0
sg18
I0
sg31
I0
sg25
I0
sg70
I0
sg17
I0
sg76
I0
sg11
I0
sg12
I0
sg73
I0
ssg26
(dp451
g28
I0
sg64
I0
sg22
I0
sg13
I0
sg67
I0
sg51
I0
sg46
I0
sg144
I0
sg29
I0
sg30
I0
sg145
I0
sg33
I0
sg9
I0
sg16
I0
sg44
I0
sg45
I0
sg54
I0
sg55
I0
sg38
I0
sg37
I0
sg26
I0
sg146
I0
sg65
I0
sg23
I0
sg49
I0
sg52
I0
sg24
I0
sg36
I0
sg21
I0
sg53
I0
sg15
I0
sg20
I0
sg47
I0
sg14
I0
sg41
I0
sg42
I0
sg19
I0
sg39
I0
sg35
I0
sg27
I0
sg148
I0
sg50
I0
sg43
I0
sg40
I0
sg34
I0
sg48
I0
sg32
I0
sg8
I0
sg10
I0
sg66
I0
sg18
I0
sg31
I0
sg25
I0
sg17
I0
sg11
I0
sg12
I0
ssg60
(dp452
g63
I0
sg195
I0
sg74
I0
sg64
I0
sg196
I0
sg99
I0
sg91
I0
sg77
I0
sg67
I0
sg100
I0
sg88
I0
sg101
I0
sg82
I0
sg80
I0
sg62
I0
sg102
I0
sg103
I0
sg69
I0
sg61
I0
sg84
I0
sg104
I0
sg79
I0
sg105
I0
sg106
I0
sg107
I0
sg108
I0
sg109
I0
sg110
I0
sg111
I0
sg112
I0
sg113
I0
sg114
I0
sg85
I0
sg60
I6
sg65
I1
sg210
I0
sg72
I1
sg83
I0
sg90
I0
sg75
I0
sg86
I0
sg212
I0
sg117
I0
sg118
I0
sg119
I0
sg120
I0
sg81
I0
sg121
I0
sg177
I0
sg123
I0
sg124
I0
sg56
I0
sg125
I0
sg126
I0
sg220
I0
sg221
I0
sg78
I0
sg58
I0
sg214
I0
sg128
I0
sg71
I0
sg129
I0
sg89
I0
sg130
I0
sg57
I0
sg186
I0
sg59
I0
sg132
I0
sg133
I0
sg134
I0
sg68
I0
sg66
I0
sg135
I0
sg136
I0
sg229
I0
sg70
I0
sg138
I0
sg87
I0
sg76
I0
sg139
I0
sg140
I0
sg73
I0
ssg65
(dp453
g195
I0
sg196
I0
sg197
I0
sg144
I0
sg201
I0
sg202
I0
sg145
I0
sg203
I0
sg204
I0
sg205
I0
sg206
I0
sg207
I0
sg208
I0
sg209
I0
sg146
I0
sg65
I0
sg210
I0
sg212
I0
sg213
I0
sg67
I0
sg214
I0
sg215
I0
sg216
I0
sg218
I0
sg219
I0
sg220
I0
sg221
I0
sg148
I0
sg223
I0
sg224
I0
sg225
I0
sg226
I0
sg64
I0
sg66
I0
sg228
I0
sg229
I0
sg231
I0
sg232
I0
sg233
I0
ssg23
(dp454
g235
I0
sg28
I0
sg74
I0
sg64
I0
sg22
I0
sg13
I0
sg91
I0
sg77
I0
sg67
I0
sg51
I0
sg88
I1
sg46
I0
sg82
I0
sg80
I0
sg144
I0
sg29
I0
sg30
I0
sg145
I0
sg84
I0
sg33
I0
sg9
I0
sg16
I0
sg44
I0
sg45
I0
sg54
I0
sg55
I0
sg38
I0
sg37
I0
sg26
I0
sg146
I0
sg65
I0
sg23
I5
sg83
I0
sg49
I0
sg90
I2
sg75
I0
sg86
I0
sg52
I0
sg24
I0
sg36
I0
sg21
I0
sg53
I0
sg15
I0
sg81
I0
sg20
I0
sg47
I0
sg14
I0
sg41
I0
sg76
I0
sg42
I0
sg19
I0
sg39
I0
sg35
I0
sg27
I0
sg85
I0
sg78
I0
sg148
I0
sg50
I0
sg43
I0
sg40
I0
sg89
I0
sg34
I0
sg48
I0
sg236
I0
sg237
I0
sg32
I0
sg8
I0
sg10
I0
sg79
I0
sg66
I0
sg18
I0
sg31
I0
sg25
I0
sg230
I0
sg17
I0
sg87
I0
sg11
I0
sg12
I0
sg73
I0
ssg72
(dp455
g143
I0
sg96
I0
sg399
I0
sg400
I0
sg69
I0
sg402
I0
sg403
I0
sg404
I0
sg405
I0
sg407
I0
sg406
I0
sg408
I0
sg409
I0
sg410
I0
sg411
I0
sg412
I0
sg413
I0
sg414
I0
sg72
I0
sg415
I0
sg416
I0
sg417
I0
sg418
I0
sg419
I0
sg147
I0
sg420
I0
sg127
I0
sg421
I0
sg422
I0
sg71
I0
sg423
I0
sg424
I0
sg149
I0
sg150
I0
sg425
I0
sg426
I0
sg427
I0
sg68
I0
sg428
I0
sg137
I0
sg430
I0
sg429
I0
sg70
I0
sg401
I0
ssg83
(dp456
g194
I0
sg87
I0
sg88
I0
sg357
I0
sg358
I0
sg198
I0
sg199
I0
sg359
I0
sg360
I0
sg361
I0
sg82
I0
sg200
I0
sg288
I0
sg362
I0
sg363
I0
sg84
I0
sg364
I0
sg365
I0
sg366
I0
sg89
I0
sg367
I0
sg368
I0
sg369
I0
sg370
I0
sg222
I0
sg371
I0
sg211
I0
sg372
I0
sg262
I0
sg373
I0
sg374
I0
sg86
I0
sg375
I0
sg122
I0
sg376
I0
sg377
I0
sg217
I0
sg378
I0
sg307
I0
sg379
I0
sg85
I0
sg83
I0
sg380
I0
sg273
I0
sg381
I0
sg131
I0
sg91
I0
sg382
I0
sg383
I0
sg97
I0
sg227
I0
sg314
I0
sg384
I0
sg230
I0
sg385
I0
sg386
I0
sg387
I0
sg388
I0
sg90
I0
ssg49
(dp457
g322
I0
sg323
I0
sg52
I0
sg51
I0
sg324
I0
sg325
I0
sg333
I0
sg327
I0
sg328
I0
sg329
I0
sg49
I0
sg330
I0
sg54
I0
sg55
I0
sg331
I0
sg332
I0
sg326
I0
sg334
I0
sg335
I0
sg336
I0
sg337
I0
sg338
I0
sg53
I0
sg339
I0
sg340
I0
sg47
I0
sg341
I0
sg342
I0
sg343
I0
sg344
I0
sg345
I0
sg50
I0
sg346
I0
sg347
I0
sg348
I0
sg48
I0
sg349
I0
sg350
I0
sg351
I0
sg352
I0
sg353
I0
sg354
I0
sg355
I0
ssg90
(dp458
g240
I0
sg90
I0
sg241
I0
sg263
I0
sg243
I0
sg433
I0
sg244
I0
sg245
I0
sS'batter.n.02'
p459
I0
sg200
I0
sg246
I0
sg247
I0
sg248
I0
sg249
I0
sg250
I0
sg251
I0
sg252
I0
sg253
I0
sg254
I0
sg255
I0
sg434
I0
sg256
I0
sg435
I0
sg436
I0
sg257
I0
sg258
I0
sg259
I0
sS'pepper.n.04'
p460
I0
sg260
I0
sg437
I0
sg261
I0
sg262
I0
sg242
I0
sg393
I0
sg264
I0
sg265
I0
sg266
I0
sg122
I0
sg267
I0
sg236
I0
sg268
I0
sg269
I0
sg270
I0
sg438
I0
sg394
I0
sg271
I0
sg272
I0
sS'opening.n.01'
p461
I0
sg439
I0
sg273
I0
sg131
I0
sS'fill.v.09'
p462
I0
sg91
I0
sg274
I0
sg275
I0
sg276
I0
sg277
I0
sg278
I0
sg279
I0
sg280
I0
sg281
I0
sS'pepper.n.01'
p463
I0
sg282
I0
sg230
I0
ssg75
(dp464
g235
I0
sg284
I0
sg97
I0
sg98
I0
sg285
I0
sg91
I0
sg286
I0
sg88
I0
sg287
I0
sg82
I0
sg80
I0
sg83
I0
sg288
I0
sg289
I0
sg290
I0
sg84
I0
sg291
I0
sg292
I0
sg293
I0
sg294
I0
sg295
I0
sg296
I0
sg297
I0
sg298
I0
sg112
I0
sg299
I0
sg300
I0
sg78
I0
sg115
I0
sg301
I0
sg86
I0
sg116
I0
sg262
I0
sg302
I0
sg303
I0
sg81
I0
sg304
I0
sg122
I0
sg305
I0
sg77
I0
sg76
I0
sg306
I0
sg307
I0
sg308
I0
sg85
I0
sg309
I0
sg310
I0
sg311
I0
sg89
I0
sg273
I0
sg131
I0
sg237
I0
sg75
I0
sg312
I0
sg313
I0
sg79
I0
sg90
I0
sg135
I0
sg314
I0
sg315
I0
sg230
I0
sg316
I0
sg87
I0
sg317
I0
sg318
I0
sg319
I0
sg141
I0
ssg86
(dp465
g194
I0
sg87
I0
sg88
I0
sg357
I0
sg358
I0
sg198
I0
sg199
I0
sg359
I0
sg360
I0
sg361
I0
sg82
I0
sg200
I0
sg288
I0
sg362
I0
sg363
I0
sg84
I0
sg364
I0
sg365
I0
sg366
I0
sg89
I0
sg367
I0
sg368
I0
sg369
I0
sg370
I0
sg222
I0
sg371
I0
sg211
I0
sg372
I0
sg262
I0
sg373
I0
sg374
I0
sg385
I0
sg375
I0
sg122
I0
sg376
I0
sg377
I0
sg217
I0
sg378
I0
sg307
I0
sg379
I0
sg85
I0
sg83
I0
sg380
I0
sg273
I0
sg381
I0
sg131
I0
sg91
I0
sg382
I0
sg383
I0
sg97
I0
sg227
I0
sg314
I0
sg384
I0
sg230
I0
sg86
I0
sg386
I0
sg387
I0
sg388
I0
sg90
I0
ssg52
(dp466
g63
I0
sg322
I0
sg74
I0
sg189
I0
sg323
I0
sg338
I0
sg91
I0
sg77
I0
sg51
I0
sg88
I0
sg324
I0
sg82
I0
sg80
I0
sg62
I0
sg325
I0
sg333
I0
sg69
I0
sg61
I0
sg84
I0
sg327
I0
sg79
I0
sg328
I0
sg329
I0
sg49
I0
sg330
I0
sg54
I0
sg55
I0
sg111
I0
sg331
I0
sg332
I0
sg326
I0
sg334
I0
sg335
I0
sg72
I0
sg83
I2
sg75
I0
sg86
I0
sg336
I0
sg337
I0
sg52
I1
sg53
I5
sg339
I0
sg81
I0
sg340
I0
sg47
I0
sg123
I0
sg341
I0
sg56
I0
sg342
I0
sg343
I0
sg344
I0
sg345
I0
sg85
I0
sg78
I0
sg58
I0
sg50
I0
sg346
I0
sg71
I0
sg347
I0
sg89
I0
sg348
I0
sg57
I0
sg48
I0
sg59
I0
sg349
I0
sg350
I0
sg134
I0
sg68
I0
sg90
I0
sg351
I0
sg352
I0
sg353
I0
sg70
I0
sg354
I0
sg87
I0
sg76
I0
sg355
I0
sg60
I0
sg140
I0
sg73
I0
ssg24
(dp467
g235
I0
sg28
I0
sg74
I0
sg64
I0
sg22
I0
sg13
I0
sg91
I0
sg77
I0
sg67
I0
sg51
I0
sg88
I0
sg46
I0
sg82
I0
sg80
I0
sg144
I0
sg29
I0
sg30
I0
sg145
I0
sg84
I0
sg33
I0
sg9
I0
sg16
I0
sg44
I0
sg45
I0
sg54
I0
sg55
I0
sg38
I0
sg37
I0
sg26
I0
sg146
I0
sg65
I0
sg24
I5
sg83
I0
sg49
I0
sg90
I0
sg75
I0
sg86
I0
sg52
I0
sg23
I0
sg36
I0
sg21
I0
sg53
I0
sg15
I0
sg81
I0
sg20
I0
sg47
I0
sg14
I0
sg41
I0
sg76
I0
sg42
I0
sg19
I0
sg39
I0
sg35
I0
sg27
I0
sg85
I0
sg78
I0
sg148
I0
sg50
I0
sg43
I0
sg40
I0
sg89
I0
sg34
I0
sg48
I3
sg236
I0
sg237
I0
sg32
I0
sg8
I0
sg10
I0
sg79
I0
sg66
I0
sg18
I0
sg31
I0
sg25
I0
sg230
I0
sg17
I0
sg87
I0
sg11
I0
sg12
I0
sg73
I0
ssg36
(dp468
g63
I0
sg28
I0
sg74
I0
sg189
I0
sg22
I0
sg13
I0
sg243
I0
sg91
I0
sg268
I0
sg51
I0
sg46
I0
sg200
I0
sg62
I0
sg19
I0
sg30
I0
sg61
I0
sg249
I0
sg33
I0
sg9
I0
sg16
I0
sg44
I0
sg45
I0
sg29
I0
sg54
I0
sg55
I0
sg38
I0
sg37
I0
sg26
I0
sg60
I0
sg23
I0
sg272
I0
sg49
I0
sg260
I0
sg52
I0
sg24
I0
sg36
I0
sg21
I0
sg53
I0
sg15
I0
sg265
I0
sg20
I0
sg47
I0
sg14
I0
sg41
I0
sg56
I0
sg42
I0
sg39
I0
sg35
I0
sg27
I0
sg258
I0
sg58
I0
sg50
I0
sg43
I0
sg40
I0
sg253
I0
sg34
I0
sg57
I0
sg48
I0
sg59
I0
sg32
I0
sg8
I0
sg10
I0
sg90
I0
sg18
I0
sg31
I0
sg25
I0
sg230
I0
sg17
I0
sg11
I0
sg12
I0
sg73
I0
ssg21
(dp469
g63
I0
sg28
I0
sg74
I0
sg64
I0
sg22
I0
sg13
I0
sg91
I0
sg77
I0
sg67
I0
sg51
I0
sg88
I0
sg46
I0
sg82
I0
sg80
I0
sg62
I0
sg29
I0
sg30
I0
sg69
I0
sg61
I0
sg84
I0
sg33
I0
sg79
I1
sg9
I0
sg16
I0
sg44
I0
sg45
I0
sg54
I0
sg55
I0
sg38
I0
sg37
I0
sg26
I0
sg60
I0
sg65
I0
sg23
I0
sg72
I0
sg83
I0
sg49
I0
sg90
I0
sg75
I0
sg86
I0
sg52
I0
sg24
I0
sg36
I6
sg21
I33
sg53
I0
sg15
I0
sg81
I0
sg20
I0
sg47
I0
sg14
I0
sg41
I0
sg56
I0
sg42
I0
sg19
I0
sg39
I0
sg35
I0
sg27
I0
sg85
I0
sg78
I0
sg58
I0
sg50
I0
sg43
I0
sg71
I0
sg40
I0
sg89
I0
sg34
I0
sg57
I0
sg48
I0
sg59
I0
sg32
I0
sg8
I0
sg10
I0
sg68
I0
sg66
I0
sg18
I0
sg31
I0
sg25
I0
sg70
I0
sg17
I0
sg87
I0
sg76
I0
sg11
I0
sg12
I0
sg73
I0
ssg53
(dp470
g63
I0
sg322
I0
sg74
I0
sg189
I0
sg323
I0
sg52
I0
sg51
I0
sg324
I0
sS'wimp.n.01'
p471
I0
sg62
I0
sg325
I0
sg333
I0
sg69
I0
sg61
I0
sg445
I0
sg327
I0
sg328
I0
sg329
I0
sg49
I0
sg330
I0
sg54
I0
sg55
I0
sg111
I0
sg331
I0
sg332
I0
sg326
I0
sg334
I0
sg335
I0
sg72
I0
sg336
I0
sg337
I0
sg338
I0
sg53
I0
sg339
I0
sS'cake.n.01'
p472
I0
sg340
I0
sg47
I0
sg123
I0
sg341
I0
sg56
I0
sg342
I0
sg343
I0
sg344
I0
sg345
I0
sS'capsicum.n.01'
p473
I0
sg58
I0
sg50
I0
sg346
I0
sg71
I0
sg347
I0
sg348
I0
sg57
I0
sg48
I0
sg59
I0
sg349
I0
sg350
I0
sg134
I0
sg68
I0
sg390
I0
sg351
I0
sg352
I0
sg353
I0
sg70
I0
sg354
I0
sg463
I0
sg355
I0
sg60
I0
sg140
I0
sg73
I0
ssg15
(dp474
g28
I0
sg64
I0
sg22
I0
sg13
I0
sg46
I0
sg144
I0
sg29
I0
sg30
I0
sg145
I0
sg33
I0
sg9
I0
sg16
I0
sg44
I0
sg45
I0
sg38
I0
sg37
I0
sg26
I0
sg146
I0
sg65
I0
sg23
I0
sg24
I0
sg36
I0
sg21
I0
sg67
I0
sg15
I0
sg20
I0
sg14
I0
sg41
I0
sg42
I0
sg19
I0
sg39
I0
sg35
I0
sg27
I0
sg148
I0
sg43
I0
sg40
I0
sg34
I0
sg32
I0
sg8
I0
sg10
I0
sg66
I0
sg18
I0
sg31
I0
sg25
I0
sg17
I0
sg11
I0
sg12
I0
ssg81
(dp475
g235
I0
sg284
I0
sg97
I0
sg98
I0
sg285
I0
sg91
I0
sg77
I0
sg286
I0
sg88
I0
sg287
I0
sg82
I0
sg80
I0
sg83
I0
sg288
I0
sg289
I0
sg290
I0
sg84
I0
sg291
I0
sg292
I0
sg293
I0
sg294
I0
sg295
I0
sg296
I0
sg297
I0
sg298
I0
sg112
I0
sg299
I0
sg300
I0
sg78
I0
sg115
I0
sg75
I0
sg86
I0
sg116
I0
sg262
I0
sg302
I0
sg393
I0
sg303
I0
sg316
I0
sg304
I0
sg122
I0
sg305
I0
sg301
I0
sg76
I0
sg306
I0
sg307
I0
sg394
I0
sg308
I0
sg85
I0
sg309
I0
sg310
I0
sg311
I0
sg89
I0
sg273
I0
sg131
I0
sg236
I0
sg237
I0
sg141
I0
sg312
I0
sg313
I0
sg79
I0
sg135
I0
sg314
I0
sg315
I0
sg230
I0
sg81
I0
sg87
I0
sg317
I0
sg318
I0
sg319
I0
sg90
I0
ssg20
(dp476
g63
I0
sg28
I0
sg74
I0
sg64
I0
sg22
I0
sg13
I0
sg91
I0
sg77
I0
sg67
I0
sg51
I0
sg88
I0
sg46
I0
sg82
I0
sg80
I0
sg62
I0
sg29
I0
sg30
I0
sg61
I0
sg84
I0
sg33
I0
sg9
I0
sg16
I0
sg44
I0
sg45
I0
sg54
I0
sg55
I0
sg38
I0
sg37
I0
sg26
I0
sg60
I0
sg65
I0
sg23
I0
sg83
I0
sg49
I0
sg90
I0
sg75
I0
sg86
I0
sg52
I0
sg24
I0
sg36
I0
sg21
I0
sg53
I0
sg15
I0
sg81
I0
sg20
I8
sg47
I0
sg14
I0
sg41
I0
sg56
I0
sg42
I0
sg19
I0
sg39
I0
sg35
I0
sg27
I0
sg85
I0
sg78
I0
sg58
I0
sg50
I0
sg43
I0
sg40
I0
sg89
I0
sg34
I0
sg57
I0
sg48
I0
sg59
I0
sg32
I0
sg8
I0
sg10
I0
sg79
I0
sg66
I0
sg18
I0
sg31
I0
sg25
I0
sg230
I0
sg17
I0
sg87
I0
sg76
I0
sg11
I0
sg12
I0
sg73
I0
ssg47
(dp477
g240
I0
sg322
I0
sg74
I0
sg323
I0
sg52
I0
sg243
I0
sg51
I0
sg155
I0
sg324
I0
sg200
I0
sg272
I0
sg325
I0
sg333
I0
sg158
I0
sg249
I0
sg327
I0
sg328
I0
sg329
I0
sg49
I0
sg330
I0
sg54
I0
sg55
I0
sg166
I0
sg331
I0
sg332
I0
sg326
I0
sg334
I0
sg335
I0
sg260
I0
sg336
I0
sg337
I0
sg338
I0
sg53
I0
sg339
I0
sg265
I0
sg340
I0
sg47
I0
sg178
I0
sg341
I0
sg268
I0
sg342
I0
sg343
I0
sg344
I0
sg345
I0
sg258
I0
sg182
I0
sg50
I0
sg346
I0
sg347
I0
sg253
I0
sg348
I0
sg48
I0
sg91
I0
sg349
I0
sg350
I0
sg189
I0
sg90
I0
sg351
I0
sg352
I0
sg353
I0
sg230
I0
sg354
I0
sg355
I0
sg169
I0
sg192
I0
sg73
I0
ssg14
(dp478
g63
I5
sg28
I0
sg74
I1
sg64
I0
sg22
I0
sg13
I0
sg91
I0
sg77
I0
sg67
I0
sg100
I0
sg88
I0
sg46
I0
sg82
I0
sg80
I0
sg62
I0
sg29
I0
sg30
I0
sg69
I0
sg61
I0
sg84
I0
sg33
I0
sg79
I0
sg9
I0
sg16
I0
sg44
I0
sg45
I0
sg109
I0
sg110
I0
sg38
I0
sg37
I0
sg26
I0
sg60
I0
sg65
I0
sg23
I0
sg72
I0
sg83
I0
sg90
I0
sg75
I0
sg86
I0
sg99
I0
sg24
I0
sg36
I0
sg21
I0
sg119
I0
sg15
I2
sg81
I0
sg20
I0
sg177
I0
sg14
I0
sg41
I0
sg56
I0
sg42
I0
sg19
I0
sg39
I0
sg35
I0
sg27
I0
sg85
I0
sg78
I0
sg58
I0
sg43
I0
sg71
I0
sg40
I0
sg89
I0
sg34
I0
sg57
I0
sg186
I0
sg59
I0
sg32
I0
sg8
I0
sg10
I0
sg68
I0
sg66
I0
sg18
I0
sg31
I0
sg25
I0
sg70
I0
sg17
I0
sg87
I0
sg76
I0
sg11
I0
sg12
I0
sg73
I0
ssg41
(dp479
g63
I0
sg28
I0
sg74
I0
sg189
I0
sg22
I0
sg13
I0
sg77
I0
sg51
I0
sg88
I0
sg46
I0
sg82
I0
sg80
I0
sg62
I0
sg19
I0
sg30
I0
sg69
I0
sg61
I0
sg84
I0
sg33
I0
sg79
I0
sg9
I0
sg16
I0
sg44
I0
sg45
I0
sg29
I0
sg54
I0
sg55
I0
sg38
I0
sg37
I0
sg26
I0
sg60
I0
sg23
I0
sg72
I0
sg83
I0
sg49
I0
sg75
I0
sg86
I0
sg52
I0
sg24
I0
sg36
I0
sg21
I0
sg53
I0
sg15
I0
sg81
I0
sg20
I0
sg47
I0
sg14
I0
sg41
I3
sg56
I0
sg42
I2
sg39
I0
sg35
I0
sg27
I0
sg85
I0
sg78
I0
sg58
I0
sg50
I0
sg43
I0
sg71
I0
sg40
I0
sg89
I0
sg34
I0
sg57
I0
sg48
I0
sg59
I0
sg32
I0
sg8
I0
sg10
I0
sg68
I0
sg390
I0
sg18
I0
sg31
I0
sg25
I0
sg70
I0
sg17
I0
sg87
I0
sg76
I3
sg11
I0
sg12
I0
sg73
I0
ssg56
(dp480
g63
I0
sg96
I0
sS'chicken.n.01'
p481
I0
sg99
I0
sg100
I0
sg101
I0
sg471
I0
sg62
I0
sg102
I0
sg103
I0
sg69
I0
sg61
I0
sg445
I0
sg104
I0
sg105
I0
sg106
I0
sg107
I0
sg108
I0
sg109
I0
sg110
I0
sg111
I0
sg435
I0
sg113
I0
sg114
I0
sg60
I0
sS'meat.n.01'
p482
I0
sg72
I0
sS'cleaver.n.01'
p483
I0
sg117
I0
sg118
I0
sg119
I0
sg120
I0
sg472
I0
sg121
I0
sg123
I0
sg124
I0
sg56
I0
sg125
I0
sg126
I0
sg127
I0
sg473
I0
sg58
I0
sg128
I0
sg71
I0
sg129
I0
sg130
I0
sg57
I0
sg59
I0
sg132
I0
sg133
I0
sg134
I0
sg68
I0
sg136
I0
sg137
I0
sg70
I0
sg138
I0
sg463
I0
sg139
I0
sg140
I0
sg390
I0
ssg42
(dp484
g63
I0
sg28
I0
sg74
I0
sg189
I0
sg22
I0
sg13
I0
sg91
I0
sg77
I0
sg51
I0
sg88
I0
sg46
I0
sg82
I0
sg80
I0
sg62
I0
sg19
I0
sg30
I0
sg69
I0
sg61
I0
sg84
I0
sg33
I0
sg79
I0
sg9
I0
sg16
I0
sg44
I0
sg45
I0
sg29
I0
sg54
I0
sg55
I0
sg38
I0
sg37
I0
sg26
I0
sg60
I0
sg24
I0
sg72
I0
sg83
I0
sg49
I0
sg75
I0
sg86
I0
sg52
I0
sg23
I0
sg36
I0
sg21
I0
sg53
I0
sg15
I0
sg81
I0
sg20
I0
sg47
I0
sg14
I0
sg41
I3
sg56
I0
sg42
I1
sg39
I0
sg35
I0
sg27
I0
sg85
I0
sg78
I4
sg58
I0
sg50
I0
sg43
I0
sg71
I0
sg40
I0
sg89
I0
sg34
I0
sg57
I0
sg48
I0
sg59
I0
sg32
I0
sg8
I0
sg10
I0
sg68
I0
sg90
I0
sg18
I0
sg31
I0
sg25
I0
sg70
I0
sg17
I0
sg87
I0
sg76
I0
sg11
I0
sg12
I0
sg73
I0
ssg19
(dp485
g63
I0
sg28
I0
sg74
I0
sg64
I0
sg22
I0
sg13
I0
sg91
I0
sg77
I0
sg67
I0
sg51
I0
sg88
I0
sg46
I0
sg82
I0
sg80
I0
sg62
I0
sg29
I0
sg30
I0
sg69
I0
sg61
I0
sg84
I0
sg33
I0
sg79
I0
sg9
I0
sg16
I0
sg44
I0
sg45
I0
sg54
I0
sg55
I0
sg38
I0
sg37
I0
sg26
I0
sg60
I0
sg65
I0
sg23
I0
sg72
I0
sg83
I0
sg49
I0
sg90
I0
sg75
I0
sg86
I2
sg52
I0
sg24
I0
sg36
I0
sg21
I0
sg53
I0
sg19
I9
sg81
I0
sg20
I0
sg47
I5
sg14
I0
sg41
I0
sg56
I0
sg42
I0
sg39
I0
sg35
I0
sg27
I0
sg85
I0
sg78
I0
sg58
I0
sg15
I0
sg50
I0
sg43
I0
sg71
I0
sg40
I0
sg89
I0
sg34
I0
sg57
I0
sg48
I0
sg59
I0
sg32
I0
sg8
I0
sg10
I0
sg68
I0
sg66
I0
sg18
I0
sg31
I0
sg25
I0
sg70
I0
sg17
I0
sg87
I0
sg76
I0
sg11
I0
sg12
I0
sg73
I0
ssg39
(dp486
g63
I0
sg28
I0
sg74
I0
sg64
I0
sg22
I0
sg445
I0
sg13
I0
sg77
I0
sg67
I0
sg51
I0
sg46
I0
sg80
I0
sg62
I0
sg19
I0
sg39
I7
sg61
I0
sg390
I0
sg33
I0
sg30
I0
sg9
I0
sg16
I0
sg44
I0
sg45
I0
sg29
I0
sg54
I0
sg55
I0
sg38
I0
sg37
I0
sg26
I0
sg60
I0
sg65
I0
sg23
I0
sg49
I0
sg75
I0
sg52
I0
sg24
I0
sg36
I0
sg21
I0
sg53
I0
sg15
I0
sg81
I0
sg20
I0
sg47
I0
sg14
I0
sg41
I0
sg56
I0
sg42
I0
sg35
I0
sg27
I0
sg78
I0
sg58
I0
sg50
I0
sg43
I0
sg40
I0
sg34
I0
sg57
I0
sg48
I0
sg59
I0
sg32
I0
sg8
I0
sg10
I0
sg79
I0
sg66
I0
sg18
I0
sg31
I0
sg25
I0
sg17
I0
sg76
I0
sg11
I0
sg12
I0
sg73
I0
ssg35
(dp487
g63
I0
sg28
I0
sg74
I0
sg64
I0
sg22
I0
sg445
I0
sg13
I0
sg67
I0
sg51
I0
sg46
I0
sg471
I0
sg62
I0
sg19
I0
sg30
I0
sg61
I0
sg390
I0
sg33
I0
sg9
I0
sg16
I0
sg44
I0
sg45
I0
sg29
I0
sg54
I0
sg55
I0
sg38
I0
sg37
I0
sg26
I0
sg60
I0
sg65
I0
sg23
I0
sg49
I0
sg52
I0
sg24
I0
sg36
I0
sg21
I0
sg53
I0
sg15
I0
sg472
I0
sg20
I0
sg47
I0
sg14
I0
sg41
I0
sg56
I0
sg42
I0
sg39
I0
sg35
I0
sg27
I0
sg473
I0
sg58
I0
sg50
I0
sg43
I0
sg40
I0
sg34
I0
sg57
I0
sg48
I0
sg59
I0
sg32
I0
sg8
I0
sg10
I0
sg66
I0
sg18
I0
sg31
I0
sg25
I0
sg17
I0
sg463
I0
sg11
I0
sg12
I0
sg73
I0
ssg27
(dp488
g143
I0
sg28
I0
sg64
I0
sg22
I0
sg13
I0
sg91
I0
sg77
I0
sg67
I0
sg51
I0
sg88
I0
sg46
I0
sg82
I0
sg80
I0
sg144
I0
sg29
I0
sg30
I0
sg69
I0
sg145
I0
sg84
I0
sg33
I0
sg79
I0
sg9
I0
sg16
I0
sg44
I0
sg45
I0
sg54
I0
sg55
I0
sg38
I0
sg37
I0
sg26
I0
sg146
I0
sg65
I0
sg23
I0
sg72
I0
sg83
I0
sg49
I0
sg90
I0
sg75
I0
sg86
I0
sg52
I0
sg24
I0
sg36
I0
sg21
I0
sg53
I0
sg15
I0
sg81
I0
sg20
I0
sg47
I0
sg14
I0
sg41
I0
sg147
I0
sg42
I0
sg19
I0
sg39
I0
sg35
I0
sg27
I8
sg85
I0
sg78
I0
sg148
I0
sg50
I0
sg43
I0
sg71
I0
sg40
I0
sg89
I0
sg34
I0
sg149
I0
sg48
I0
sg150
I0
sg32
I0
sg8
I0
sg10
I0
sg68
I0
sg66
I0
sg18
I0
sg31
I0
sg25
I0
sg70
I0
sg17
I0
sg87
I0
sg76
I0
sg11
I0
sg12
I0
sg141
I0
ssg85
(dp489
g194
I0
sg87
I0
sg88
I0
sg357
I0
sg358
I0
sg198
I0
sg199
I0
sg359
I0
sg360
I0
sg361
I0
sg82
I0
sg288
I0
sg362
I0
sg363
I0
sg84
I0
sg364
I0
sg365
I0
sg366
I0
sg89
I0
sg367
I0
sg368
I0
sg369
I0
sg370
I0
sg222
I0
sg371
I0
sg211
I0
sg372
I0
sg373
I0
sg374
I0
sg86
I0
sg375
I0
sg376
I0
sg377
I0
sg217
I0
sg85
I0
sg307
I0
sg379
I0
sg378
I0
sg83
I0
sg380
I0
sg381
I0
sg382
I0
sg383
I0
sg97
I0
sg227
I0
sg314
I0
sg384
I0
sg385
I0
sg386
I0
sg387
I0
sg388
I0
ssg78
(dp490
g235
I0
sg284
I0
sg97
I0
sg98
I0
sg285
I0
sg91
I0
sg141
I0
sg88
I0
sg287
I0
sg82
I0
sg80
I0
sg83
I0
sg288
I0
sg289
I0
sg290
I0
sg84
I0
sg291
I0
sg292
I0
sg293
I0
sg294
I0
sg295
I0
sg296
I0
sg297
I0
sg298
I0
sg112
I0
sg299
I0
sg300
I0
sg78
I0
sg115
I0
sg301
I0
sg86
I0
sg116
I0
sg262
I0
sg302
I0
sg393
I0
sg303
I0
sg81
I0
sg304
I0
sg122
I0
sg305
I0
sg76
I0
sg77
I0
sg306
I0
sg307
I0
sg394
I0
sg308
I0
sg85
I0
sg309
I0
sg286
I0
sg310
I0
sg311
I0
sg89
I0
sg273
I0
sg131
I0
sg236
I0
sg237
I0
sg75
I0
sg312
I0
sg313
I0
sg79
I0
sg135
I0
sg314
I0
sg315
I0
sg230
I0
sg316
I0
sg87
I0
sg317
I0
sg318
I0
sg319
I0
sg90
I0
ssg58
(dp491
g63
I0
sg195
I0
sg74
I0
sg64
I4
sg196
I0
sg99
I0
sg91
I0
sg77
I0
sg67
I0
sg100
I0
sg88
I0
sg101
I0
sg82
I0
sg80
I0
sg62
I0
sg102
I0
sg103
I0
sg69
I0
sg61
I0
sg84
I0
sg104
I0
sg79
I0
sg105
I0
sg106
I0
sg107
I0
sg108
I0
sg109
I0
sg110
I0
sg111
I0
sg112
I0
sg113
I0
sg114
I0
sg85
I0
sg60
I0
sg65
I0
sg210
I0
sg72
I0
sg83
I0
sg90
I0
sg75
I0
sg86
I0
sg212
I0
sg117
I0
sg118
I0
sg119
I0
sg120
I0
sg81
I0
sg121
I0
sg177
I0
sg123
I0
sg124
I0
sg56
I0
sg125
I0
sg126
I0
sg220
I0
sg221
I0
sg78
I0
sg58
I0
sg214
I0
sg128
I0
sg71
I0
sg129
I0
sg89
I0
sg130
I0
sg57
I0
sg186
I0
sg59
I4
sg132
I0
sg133
I0
sg134
I0
sg68
I0
sg66
I0
sg135
I0
sg136
I0
sg229
I0
sg70
I0
sg138
I0
sg87
I0
sg76
I0
sg139
I0
sg140
I0
sg73
I0
ssg50
(dp492
g322
I0
sg323
I0
sg52
I0
sg51
I0
sg324
I0
sg325
I0
sg326
I0
sg327
I0
sg328
I0
sg329
I0
sg50
I0
sg330
I0
sg54
I0
sg55
I0
sg331
I0
sg332
I0
sg333
I0
sg334
I0
sg335
I0
sg346
I0
sg336
I0
sg337
I0
sg338
I0
sg53
I0
sg339
I0
sg340
I0
sg47
I0
sg341
I0
sg342
I0
sg343
I0
sg344
I0
sg345
I0
sg49
I0
sg347
I0
sg348
I0
sg48
I0
sg349
I0
sg350
I0
sg351
I0
sg352
I0
sg353
I0
sg354
I0
sg355
I0
ssg43
(dp493
g63
I0
sg28
I0
sg74
I0
sg189
I0
sg22
I0
sg13
I0
sg77
I0
sg51
I0
sg88
I0
sg46
I0
sg82
I0
sg80
I0
sg62
I0
sg19
I0
sg30
I0
sg69
I0
sg61
I0
sg84
I0
sg33
I0
sg79
I0
sg9
I0
sg16
I0
sg44
I6
sg45
I0
sg29
I0
sg54
I0
sg55
I0
sg38
I0
sg37
I0
sg26
I0
sg60
I0
sg24
I0
sg72
I0
sg83
I0
sg49
I0
sg75
I0
sg86
I0
sg52
I0
sg23
I0
sg36
I0
sg21
I0
sg53
I0
sg15
I0
sg81
I0
sg20
I0
sg47
I0
sg14
I0
sg41
I0
sg56
I0
sg42
I0
sg39
I0
sg35
I0
sg27
I0
sg85
I0
sg78
I0
sg58
I0
sg50
I0
sg43
I1
sg71
I1
sg40
I0
sg89
I0
sg34
I0
sg57
I0
sg48
I0
sg59
I0
sg32
I0
sg8
I0
sg10
I0
sg68
I0
sg390
I0
sg18
I0
sg31
I0
sg25
I0
sg70
I0
sg17
I0
sg87
I0
sg76
I0
sg11
I0
sg12
I0
sg73
I0
ssg71
(dp494
g143
I0
sg96
I0
sg399
I0
sg400
I0
sg69
I0
sg402
I0
sg403
I0
sg404
I0
sg405
I0
sg406
I0
sg407
I0
sg71
I0
sg408
I0
sg409
I0
sg410
I0
sg411
I0
sg412
I0
sg413
I0
sg414
I0
sg72
I0
sg415
I0
sg416
I0
sg417
I0
sg418
I0
sg419
I0
sg147
I0
sg420
I0
sg127
I0
sg421
I0
sg422
I0
sg423
I0
sg424
I0
sg149
I0
sg150
I0
sg425
I0
sg426
I0
sg427
I0
sg68
I0
sg428
I0
sg137
I0
sg430
I0
sg429
I0
sg70
I0
sg401
I0
ssg40
(dp495
g63
I0
sg28
I0
sg74
I0
sg64
I0
sg22
I0
sg445
I0
sg13
I0
sg77
I0
sg67
I1
sg51
I0
sg46
I0
sg80
I0
sg62
I0
sg19
I0
sg30
I0
sg69
I0
sg61
I0
sg390
I0
sg33
I0
sg79
I0
sg9
I0
sg16
I0
sg44
I0
sg45
I0
sg29
I0
sg54
I0
sg55
I0
sg38
I0
sg37
I0
sg26
I0
sg60
I0
sg65
I0
sg23
I0
sg72
I0
sg49
I0
sg75
I0
sg52
I0
sg24
I0
sg36
I0
sg21
I0
sg53
I0
sg15
I0
sg81
I0
sg20
I0
sg47
I0
sg14
I0
sg41
I0
sg56
I0
sg42
I0
sg39
I0
sg35
I0
sg27
I0
sg78
I0
sg58
I0
sg50
I1
sg43
I0
sg71
I0
sg40
I6
sg34
I0
sg57
I0
sg48
I0
sg59
I0
sg32
I0
sg8
I0
sg10
I0
sg68
I0
sg66
I0
sg18
I0
sg31
I0
sg25
I0
sg70
I0
sg17
I0
sg76
I0
sg11
I0
sg12
I0
sg73
I0
ssg89
(dp496
g194
I0
sg87
I0
sg88
I0
sg357
I0
sg358
I0
sg198
I0
sg199
I0
sg359
I0
sg360
I0
sg361
I0
sg82
I0
sg200
I0
sg288
I0
sg362
I0
sg363
I0
sg84
I0
sg364
I0
sg365
I0
sg366
I0
sg375
I0
sg367
I0
sg368
I0
sg369
I0
sg370
I0
sg222
I0
sg371
I0
sg211
I0
sg372
I0
sg262
I0
sg373
I0
sg374
I0
sg86
I0
sg89
I0
sg122
I0
sg376
I0
sg377
I0
sg217
I0
sg378
I0
sg307
I0
sg379
I0
sg85
I0
sg83
I0
sg380
I0
sg273
I0
sg381
I0
sg131
I0
sg91
I0
sg382
I0
sg383
I0
sg97
I0
sg227
I0
sg314
I0
sg384
I0
sg230
I0
sg385
I0
sg386
I0
sg387
I0
sg388
I0
sg90
I0
ssg34
(dp497
g63
I0
sg28
I0
sg74
I0
sg64
I0
sg22
I0
sg13
I0
sg243
I0
sg91
I0
sg268
I0
sg67
I0
sg51
I0
sg46
I0
sg200
I0
sg62
I0
sg19
I0
sg30
I0
sg69
I0
sg61
I0
sg249
I0
sg33
I0
sg9
I0
sg16
I0
sg44
I0
sg45
I0
sg29
I0
sg54
I0
sg55
I0
sg38
I0
sg37
I0
sg26
I0
sg60
I0
sg65
I0
sg23
I0
sg72
I0
sg272
I0
sg49
I0
sg90
I0
sg260
I0
sg52
I0
sg24
I0
sg36
I0
sg21
I0
sg53
I0
sg15
I0
sg265
I0
sg20
I0
sg47
I0
sg14
I0
sg41
I0
sg56
I0
sg42
I0
sg39
I0
sg35
I6
sg27
I0
sg258
I0
sg58
I0
sg50
I0
sg43
I0
sg71
I0
sg40
I0
sg253
I0
sg34
I0
sg57
I0
sg48
I0
sg59
I0
sg32
I0
sg8
I0
sg10
I0
sg68
I0
sg66
I0
sg18
I0
sg31
I0
sg25
I0
sg70
I2
sg17
I0
sg463
I0
sg11
I0
sg12
I0
sg73
I0
ssg57
(dp498
g63
I0
sg96
I0
sg99
I0
sg100
I0
sg101
I0
sg62
I0
sg102
I0
sg103
I0
sg69
I0
sg61
I0
sg104
I0
sg105
I0
sg106
I0
sg107
I0
sg108
I0
sg109
I0
sg110
I0
sg111
I0
sg113
I0
sg114
I0
sg60
I0
sg72
I0
sg117
I0
sg118
I0
sg119
I0
sg120
I0
sg121
I0
sg123
I0
sg124
I0
sg56
I0
sg125
I0
sg126
I0
sg127
I0
sg58
I0
sg128
I0
sg71
I0
sg129
I0
sg130
I0
sg57
I0
sg59
I0
sg132
I0
sg133
I0
sg134
I0
sg68
I0
sg136
I0
sg137
I0
sg70
I0
sg138
I0
sg139
I0
sg140
I0
ssg48
(dp499
g240
I0
sg322
I0
sg74
I0
sg323
I0
sg52
I0
sg243
I0
sg51
I0
sg155
I0
sg324
I0
sg200
I0
sg272
I0
sg325
I0
sg333
I0
sg158
I0
sg249
I0
sg327
I0
sg328
I0
sg329
I0
sg49
I0
sg330
I0
sg54
I0
sg55
I0
sg166
I0
sg331
I0
sg332
I0
sg326
I0
sg334
I0
sg335
I0
sg260
I0
sg336
I0
sg337
I0
sg338
I0
sg53
I0
sg339
I0
sg265
I0
sg340
I0
sg47
I0
sg178
I0
sg341
I0
sg268
I0
sg342
I0
sg343
I0
sg344
I0
sg345
I0
sg258
I0
sg182
I0
sg50
I0
sg346
I0
sg347
I0
sg253
I0
sg348
I0
sg48
I0
sg91
I0
sg349
I0
sg350
I0
sg189
I0
sg90
I0
sg351
I0
sg352
I0
sg353
I0
sg230
I0
sg354
I0
sg355
I0
sg169
I0
sg192
I0
sg73
I0
ssg59
(dp500
g63
I0
sg96
I0
sg98
I0
sg99
I0
sg77
I0
sg100
I0
sg101
I0
sg80
I0
sg62
I0
sg102
I0
sg103
I0
sg69
I0
sg61
I0
sg445
I0
sg104
I0
sg79
I0
sg105
I0
sg106
I0
sg107
I0
sg108
I0
sg109
I0
sg110
I0
sg111
I0
sg112
I0
sg113
I0
sg114
I0
sg60
I0
sg115
I0
sg72
I0
sg75
I0
sg116
I0
sg117
I0
sg118
I0
sg119
I0
sg120
I0
sg81
I0
sg121
I0
sg123
I0
sg124
I0
sg56
I0
sg125
I0
sg126
I0
sg127
I0
sg78
I0
sg58
I0
sg128
I0
sg71
I0
sg129
I0
sg130
I0
sg57
I0
sg59
I0
sg132
I0
sg133
I0
sg134
I0
sg68
I0
sg390
I0
sg135
I0
sg136
I0
sg137
I0
sg70
I0
sg138
I0
sg76
I0
sg139
I0
sg140
I0
sg141
I0
ssg32
(dp501
g63
I0
sg28
I0
sg74
I0
sg64
I0
sg22
I0
sg13
I0
sg198
I0
sg91
I2
sg199
I0
sg67
I0
sg51
I0
sg88
I0
sg46
I0
sg82
I0
sg200
I0
sg62
I0
sg19
I0
sg30
I0
sg69
I0
sg61
I0
sg84
I0
sg33
I0
sg9
I0
sg16
I0
sg44
I0
sg45
I0
sg29
I0
sg54
I0
sg55
I0
sg38
I0
sg37
I0
sg26
I0
sg60
I0
sg65
I0
sg23
I0
sg72
I0
sg83
I0
sg49
I0
sg90
I0
sg211
I0
sg52
I0
sg24
I0
sg36
I0
sg21
I0
sg53
I0
sg15
I0
sg86
I0
sg20
I0
sg47
I0
sg14
I0
sg41
I0
sg56
I0
sg42
I0
sg39
I0
sg35
I0
sg27
I0
sg85
I0
sg222
I0
sg58
I0
sg50
I0
sg43
I0
sg71
I0
sg40
I0
sg89
I0
sg34
I0
sg57
I4
sg48
I0
sg59
I0
sg32
I10
sg8
I0
sg10
I0
sg68
I0
sg66
I0
sg18
I0
sg31
I0
sg25
I0
sg70
I0
sg17
I0
sg87
I0
sg217
I0
sg11
I0
sg12
I0
sg73
I0
ssg8
(dp502
g63
I0
sg28
I0
sg74
I0
sg64
I0
sg22
I0
sg13
I0
sg91
I0
sg77
I0
sg67
I0
sg51
I0
sg88
I0
sg46
I0
sg82
I0
sg80
I0
sg62
I0
sg29
I0
sg30
I0
sg69
I0
sg61
I0
sg84
I0
sg33
I0
sg79
I0
sg9
I0
sg16
I0
sg44
I0
sg45
I0
sg54
I0
sg55
I0
sg38
I0
sg37
I0
sg26
I0
sg60
I0
sg65
I0
sg23
I0
sg72
I0
sg83
I0
sg49
I0
sg90
I0
sg75
I0
sg86
I0
sg52
I0
sg24
I0
sg36
I0
sg21
I0
sg53
I0
sg15
I0
sg81
I0
sg20
I0
sg47
I0
sg14
I0
sg41
I0
sg56
I0
sg42
I0
sg19
I0
sg39
I0
sg35
I0
sg27
I0
sg85
I0
sg78
I0
sg58
I0
sg50
I0
sg43
I0
sg71
I0
sg40
I0
sg89
I0
sg34
I0
sg57
I0
sg48
I0
sg59
I0
sg32
I0
sg8
I24
sg10
I0
sg68
I0
sg66
I0
sg18
I0
sg31
I0
sg25
I0
sg70
I0
sg17
I0
sg87
I0
sg76
I0
sg11
I0
sg12
I0
sg73
I16
ssg10
(dp503
g63
I0
sg28
I0
sg74
I0
sg64
I0
sg22
I0
sg13
I0
sg91
I0
sg77
I0
sg67
I0
sg100
I0
sg88
I0
sg46
I0
sg82
I0
sg80
I0
sg62
I0
sg29
I0
sg30
I0
sg69
I0
sg61
I0
sg84
I0
sg33
I0
sg79
I0
sg9
I0
sg16
I0
sg44
I0
sg45
I0
sg109
I0
sg110
I0
sg38
I0
sg37
I0
sg26
I0
sg60
I0
sg65
I0
sg23
I0
sg72
I0
sg83
I0
sg90
I0
sg75
I0
sg86
I0
sg99
I0
sg24
I0
sg36
I0
sg21
I0
sg119
I0
sg15
I0
sg81
I0
sg20
I0
sg177
I0
sg14
I0
sg41
I0
sg56
I0
sg42
I0
sg19
I0
sg39
I0
sg35
I0
sg27
I0
sg85
I0
sg78
I0
sg58
I0
sg43
I0
sg71
I0
sg40
I0
sg89
I0
sg34
I0
sg57
I0
sg186
I0
sg59
I0
sg32
I0
sg8
I0
sg10
I14
sg68
I0
sg66
I0
sg18
I0
sg31
I0
sg25
I0
sg70
I0
sg17
I0
sg87
I0
sg76
I0
sg11
I0
sg12
I0
sg73
I0
ssg68
(dp504
g143
I0
sg96
I0
sg399
I0
sg400
I0
sg69
I0
sg402
I0
sg403
I0
sg404
I0
sg405
I0
sg407
I0
sg406
I0
sg408
I0
sg409
I0
sg410
I0
sg411
I0
sg412
I0
sg413
I0
sg414
I0
sg72
I0
sg415
I0
sg416
I0
sg417
I0
sg418
I0
sg419
I0
sg147
I0
sg420
I0
sg127
I0
sg421
I0
sg422
I0
sg71
I0
sg423
I0
sg424
I0
sg149
I0
sg150
I0
sg425
I0
sg426
I0
sg427
I0
sg68
I0
sg428
I0
sg137
I0
sg70
I0
sg429
I0
sg430
I0
sg401
I0
ssg66
(dp505
g195
I0
sg196
I0
sg197
I0
sg144
I0
sg201
I0
sg202
I0
sg145
I0
sg203
I0
sg204
I0
sg205
I0
sg206
I0
sg207
I0
sg208
I0
sg209
I0
sg146
I0
sg65
I0
sg210
I0
sg212
I0
sg213
I0
sg67
I0
sg214
I0
sg215
I0
sg216
I0
sg218
I0
sg219
I0
sg220
I0
sg221
I0
sg148
I0
sg223
I0
sg224
I0
sg225
I0
sg226
I0
sg64
I0
sg66
I0
sg228
I0
sg229
I0
sg231
I0
sg232
I0
sg233
I0
ssg18
(dp506
g235
I0
sg28
I0
sg97
I0
sg22
I0
sg13
I0
sg91
I0
sg77
I0
sg51
I0
sg88
I0
sg46
I0
sg82
I0
sg80
I0
sg83
I0
sg29
I0
sg30
I0
sg290
I0
sg84
I0
sg33
I0
sg9
I0
sg16
I0
sg44
I0
sg45
I0
sg54
I0
sg55
I0
sg38
I0
sg37
I0
sg26
I0
sg78
I0
sg23
I0
sg49
I0
sg75
I0
sg86
I0
sg52
I0
sg24
I0
sg36
I0
sg21
I0
sg53
I0
sg15
I0
sg81
I0
sg20
I0
sg47
I0
sg14
I0
sg41
I0
sg76
I0
sg42
I0
sg19
I0
sg39
I0
sg35
I0
sg27
I0
sg85
I0
sg309
I0
sg50
I0
sg43
I0
sg40
I0
sg89
I0
sg34
I0
sg48
I0
sg237
I0
sg32
I0
sg8
I0
sg10
I0
sg79
I0
sg90
I0
sg18
I0
sg31
I0
sg25
I0
sg230
I0
sg17
I0
sg87
I0
sg11
I0
sg318
I0
sg12
I0
sg141
I0
ssg31
(dp507
g63
I0
sg28
I0
sg64
I0
sg22
I0
sg13
I0
sg198
I0
sg91
I0
sg199
I0
sg67
I0
sg51
I0
sg88
I0
sg46
I0
sg82
I0
sg200
I0
sg62
I0
sg19
I0
sg30
I0
sg69
I0
sg61
I0
sg84
I0
sg33
I0
sg9
I0
sg16
I0
sg44
I0
sg45
I0
sg29
I0
sg54
I0
sg55
I0
sg38
I0
sg37
I0
sg26
I0
sg60
I0
sg65
I0
sg23
I0
sg72
I0
sg83
I0
sg49
I0
sg90
I0
sg211
I0
sg52
I0
sg24
I0
sg36
I0
sg21
I0
sg53
I0
sg15
I0
sg86
I0
sg20
I0
sg47
I0
sg14
I0
sg41
I0
sg56
I0
sg42
I0
sg39
I0
sg35
I0
sg27
I0
sg85
I0
sg222
I0
sg58
I0
sg50
I0
sg43
I0
sg71
I0
sg40
I0
sg89
I0
sg34
I0
sg57
I0
sg48
I0
sg59
I0
sg32
I0
sg8
I0
sg10
I0
sg68
I1
sg66
I1
sg18
I0
sg31
I6
sg25
I0
sg70
I0
sg17
I0
sg87
I0
sg217
I0
sg11
I0
sg12
I0
sg382
I0
ssg25
(dp508
g143
I0
sg28
I0
sg64
I0
sg22
I0
sg13
I0
sg91
I0
sg77
I0
sg67
I0
sg51
I0
sg88
I0
sg46
I0
sg82
I0
sg80
I0
sg144
I0
sg29
I0
sg30
I0
sg69
I0
sg145
I0
sg84
I0
sg33
I0
sg79
I0
sg9
I0
sg16
I0
sg44
I0
sg45
I0
sg54
I0
sg55
I0
sg38
I0
sg37
I0
sg26
I3
sg146
I0
sg65
I0
sg23
I0
sg72
I0
sg83
I0
sg49
I0
sg90
I0
sg75
I0
sg86
I0
sg52
I0
sg24
I0
sg36
I0
sg21
I0
sg53
I0
sg15
I0
sg81
I4
sg20
I0
sg47
I0
sg14
I0
sg41
I0
sg147
I0
sg42
I0
sg19
I0
sg39
I0
sg35
I0
sg27
I0
sg85
I0
sg78
I0
sg148
I0
sg50
I0
sg43
I0
sg71
I0
sg40
I0
sg89
I0
sg34
I0
sg149
I0
sg48
I0
sg150
I0
sg32
I0
sg8
I0
sg10
I0
sg68
I0
sg66
I0
sg18
I0
sg31
I0
sg25
I1
sg70
I0
sg17
I0
sg87
I0
sg76
I0
sg11
I0
sg12
I0
sg141
I0
ssg70
(dp509
g143
I0
sg96
I0
sg272
I0
sg399
I0
sg243
I0
sg91
I0
sg268
I0
sg400
I0
sg69
I0
sg200
I0
sg402
I0
sg403
I0
sg276
I0
sg404
I0
sg249
I0
sg405
I0
sg407
I0
sg406
I0
sg253
I0
sg408
I0
sg409
I0
sg410
I0
sg411
I0
sg412
I0
sg413
I0
sg414
I0
sg259
I0
sg72
I0
sg260
I0
sg261
I0
sg262
I0
sg415
I0
sg416
I0
sg417
I0
sg265
I0
sg266
I0
sg122
I0
sg418
I0
sg419
I0
sg147
I0
sg420
I0
sg241
I0
sg127
I0
sg258
I0
sg421
I0
sg422
I0
sg71
I0
sg423
I0
sg274
I0
sg424
I0
sg149
I0
sg131
I0
sg150
I0
sg425
I0
sg426
I0
sg427
I0
sg68
I0
sg90
I0
sg278
I0
sg428
I0
sg137
I0
sg70
I0
sg281
I0
sg429
I0
sg430
I0
sg401
I0
ssg17
(dp510
g63
I0
sg28
I0
sg74
I0
sg64
I0
sg22
I0
sg13
I0
sg91
I0
sg77
I0
sg67
I0
sg51
I0
sg88
I0
sg46
I0
sg82
I0
sg80
I0
sg62
I0
sg29
I0
sg30
I0
sg61
I0
sg84
I0
sg33
I0
sg9
I0
sg16
I0
sg44
I0
sg45
I0
sg54
I0
sg55
I0
sg38
I0
sg37
I0
sg26
I0
sg60
I0
sg65
I0
sg23
I0
sg83
I0
sg49
I0
sg90
I0
sg75
I0
sg86
I0
sg52
I0
sg24
I0
sg36
I0
sg21
I0
sg53
I0
sg15
I0
sg81
I0
sg20
I0
sg47
I0
sg14
I0
sg41
I0
sg56
I0
sg42
I0
sg19
I0
sg39
I0
sg35
I0
sg27
I0
sg85
I0
sg78
I0
sg58
I0
sg50
I0
sg43
I0
sg40
I0
sg89
I0
sg34
I0
sg57
I0
sg48
I0
sg59
I0
sg32
I0
sg8
I0
sg10
I0
sg79
I0
sg66
I0
sg18
I5
sg31
I0
sg25
I0
sg230
I0
sg17
I3
sg87
I0
sg76
I0
sg11
I0
sg12
I0
sg73
I0
ssg87
(dp511
g194
I0
sg87
I0
sg88
I0
sg357
I0
sg373
I0
sg198
I0
sg199
I0
sg359
I0
sg360
I0
sg361
I0
sg82
I0
sg288
I0
sg362
I0
sg363
I0
sg84
I0
sg364
I0
sg365
I0
sg366
I0
sg89
I0
sg367
I0
sg368
I0
sg369
I0
sg370
I0
sg222
I0
sg371
I0
sg211
I0
sg372
I0
sg358
I0
sg374
I0
sg86
I0
sg375
I0
sg376
I0
sg377
I0
sg217
I0
sg378
I0
sg307
I0
sg379
I0
sg85
I0
sg83
I0
sg380
I0
sg381
I0
sg382
I0
sg383
I0
sg97
I0
sg227
I0
sg314
I0
sg384
I0
sg385
I0
sg386
I0
sg387
I0
sg388
I0
ssg76
(dp512
g235
I0
sg284
I0
sg97
I0
sg98
I0
sg285
I0
sg286
I0
sg88
I0
sg287
I0
sg82
I0
sg80
I0
sg83
I0
sg288
I0
sg289
I0
sg290
I0
sg84
I0
sg291
I0
sg292
I0
sg293
I0
sg294
I0
sg295
I0
sg296
I0
sg297
I0
sg298
I0
sg112
I0
sg299
I0
sg300
I0
sg78
I0
sg115
I0
sg301
I0
sg86
I0
sg116
I0
sg302
I0
sg393
I0
sg303
I0
sg81
I0
sg304
I0
sg305
I0
sg77
I0
sg76
I0
sg306
I0
sg307
I0
sg394
I0
sg308
I0
sg85
I0
sg309
I0
sg310
I0
sg311
I0
sg89
I0
sS'flesh.n.01'
p513
I0
sg236
I0
sg237
I0
sg75
I0
sg312
I0
sg313
I0
sg79
I0
sg390
I0
sg135
I0
sg314
I0
sg315
I0
sg316
I0
sg87
I0
sg317
I0
sg318
I0
sg319
I0
sg141
I0
ssg11
(dp514
g63
I0
sg28
I0
sg74
I0
sg64
I0
sg22
I0
sg13
I0
sg91
I0
sg77
I0
sg67
I0
sg51
I0
sg88
I0
sg46
I0
sg82
I0
sg80
I0
sg62
I0
sg29
I0
sg30
I0
sg69
I0
sg61
I0
sg84
I0
sg33
I0
sg79
I0
sg9
I0
sg16
I0
sg44
I0
sg45
I0
sg54
I0
sg55
I0
sg38
I0
sg37
I0
sg26
I0
sg60
I0
sg65
I0
sg23
I0
sg72
I0
sg83
I0
sg49
I0
sg90
I0
sg75
I0
sg86
I0
sg52
I0
sg24
I0
sg36
I0
sg21
I0
sg53
I0
sg15
I0
sg81
I0
sg20
I0
sg47
I0
sg14
I0
sg41
I0
sg56
I0
sg42
I0
sg19
I0
sg39
I0
sg35
I0
sg27
I0
sg85
I0
sg78
I0
sg58
I0
sg50
I0
sg43
I0
sg71
I0
sg40
I0
sg89
I0
sg34
I0
sg57
I0
sg48
I0
sg59
I0
sg32
I0
sg8
I0
sg10
I0
sg68
I0
sg66
I0
sg18
I0
sg31
I0
sg25
I0
sg70
I0
sg17
I0
sg87
I0
sg76
I0
sg11
I5
sg12
I11
sg73
I0
ssg12
(dp515
g63
I0
sg28
I0
sg74
I0
sg64
I0
sg22
I0
sg13
I0
sg77
I0
sg67
I0
sg100
I0
sg88
I0
sg46
I0
sg82
I0
sg80
I0
sg62
I0
sg29
I0
sg30
I0
sg69
I0
sg61
I0
sg84
I0
sg33
I0
sg79
I0
sg9
I0
sg16
I0
sg44
I0
sg45
I0
sg109
I0
sg110
I0
sg38
I0
sg37
I0
sg26
I0
sg60
I0
sg65
I0
sg23
I0
sg72
I0
sg83
I0
sg75
I0
sg86
I0
sg99
I0
sg24
I0
sg36
I0
sg21
I0
sg119
I0
sg15
I0
sg81
I0
sg20
I0
sg177
I0
sg14
I0
sg41
I0
sg56
I0
sg42
I0
sg19
I0
sg39
I0
sg35
I0
sg27
I0
sg85
I0
sg78
I0
sg58
I0
sg43
I0
sg71
I0
sg40
I0
sg89
I0
sg34
I0
sg57
I0
sg186
I0
sg59
I0
sg32
I0
sg8
I0
sg10
I0
sg68
I0
sg66
I0
sg18
I0
sg31
I0
sg25
I0
sg70
I0
sg17
I0
sg87
I0
sg76
I0
sg11
I0
sg12
I0
sg73
I0
ssg73
(dp516
g235
I0
sg284
I0
sg74
I0
sg88
I0
sg152
I0
sg153
I0
sg91
I0
sg77
I0
sg154
I0
sg155
I0
sg156
I0
sg82
I0
sg80
I0
sg83
I0
sg288
I0
sg157
I0
sg158
I0
sg84
I0
sg159
I0
sg160
I0
sg161
I0
sg162
I0
sg163
I0
sg164
I0
sg165
I0
sg166
I0
sg112
I0
sg167
I0
sg168
I0
sg169
I0
sg170
I0
sg75
I0
sg86
I0
sg171
I0
sg172
I0
sg173
I0
sg174
I0
sg175
I0
sg81
I0
sg176
I0
sg177
I0
sg178
I0
sg179
I0
sg76
I0
sg180
I0
sg181
I0
sg308
I0
sg85
I0
sg78
I0
sg182
I0
sg183
I0
sg184
I0
sg89
I0
sg185
I0
sg186
I0
sg237
I0
sg187
I0
sg188
I0
sg189
I0
sg79
I0
sg90
I0
sg135
I0
sg314
I0
sg315
I0
sg230
I0
sg190
I0
sg87
I0
sg191
I0
sg192
I0
sg73
I0
sssb.