ccopy_reg
_reconstructor
p0
(cutils.eval
ConfusionMatrix
p1
c__builtin__
object
p2
Ntp3
Rp4
(dp5
S'labels'
p6
(lp7
S'put.v.01'
p8
aS'pan.n.03'
p9
aS'chicken.n.01'
p10
aS'wimp.n.01'
p11
aS'cut.v.01'
p12
aS'meat.n.01'
p13
aS'kernel.n.01'
p14
aS'cleaver.n.01'
p15
aS'cake.n.03'
p16
aS'cake.n.01'
p17
aS'whipped_cream.n.01'
p18
aS'cheese.n.01'
p19
aS'slice.v.03'
p20
aS'cabbage.n.01'
p21
aS'fill.v.01'
p22
aS'meet.v.04'
p23
aS'kettle.n.01'
p24
aS'water.n.06'
p25
aS'fill.v.09'
p26
aS'pan.n.01'
p27
aS'flesh.n.01'
p28
aS'human_body.n.01'
p29
aS'bacon.n.01'
p30
aS'bacon.n.02'
p31
aS'foam.n.01'
p32
aS'mug.n.04'
p33
aS'onion.n.01'
p34
aS'pepper.n.04'
p35
aS'pepper.n.01'
p36
aS'opening.n.01'
p37
aS'gap.n.03'
p38
aS'batter.n.02'
p39
aS'bread.n.01'
p40
aS'knife.n.01'
p41
aS'pepper.n.03'
p42
aS'capsicum.n.01'
p43
aS'salt.n.02'
p44
aS'salt.n.01'
p45
aS'egg.n.02'
p46
aS'egg.n.01'
p47
aS'piece.n.08'
p48
aS'slice.n.06'
p49
aS'pizza.n.01'
p50
aS'pitcher.n.02'
p51
aS'milk.n.01'
p52
aS'milk.n.02'
p53
asS'instanceCount'
p54
I45
sS'matrix'
p55
(dp56
g14
(dp57
g14
I0
ssg10
(dp58
g11
I1
ssg19
(dp59
S'cheese.n.01'
p60
I1
ssg40
(dp61
S'bread.n.01'
p62
I1
ssg39
(dp63
S'batter.n.02'
p64
I1
ssg11
(dp65
g11
I0
ssg41
(dp66
S'knife.n.01'
p67
I1
ssg32
(dp68
S'foam.n.01'
p69
I1
ssg52
(dp70
g53
I1
ssg53
(dp71
g53
I0
ssg27
(dp72
S'pan.n.03'
p73
I1
ssg9
(dp74
S'pan.n.03'
p75
I1
ssg12
(dp76
S'cut.v.01'
p77
I4
ssg38
(dp78
g38
I0
ssg26
(dp79
g26
I1
ssg46
(dp80
g47
I1
ssg47
(dp81
g47
I0
ssg31
(dp82
g31
I0
ssg30
(dp83
g31
I1
ssg22
(dp84
g23
I1
sg26
I3
ssg43
(dp85
g43
I0
ssg13
(dp86
g14
I1
ssg44
(dp87
g45
I1
ssg15
(dp88
S'cleaver.n.01'
p89
I1
ssg20
(dp90
S'slice.v.03'
p91
I4
ssg45
(dp92
g45
I0
ssg21
(dp93
S'cabbage.n.01'
p94
I1
ssg35
(dp95
g36
I1
ssg23
(dp96
g23
I0
ssg42
(dp97
g43
I1
ssg29
(dp98
g29
I0
ssg18
(dp99
S'whipped_cream.n.01'
p100
I1
ssg48
(dp101
g49
I1
ssg37
(dp102
g38
I1
ssg33
(dp103
S'mug.n.04'
p104
I1
ssg28
(dp105
g29
I1
ssg49
(dp106
g49
I0
ssg25
(dp107
S'water.n.06'
p108
I2
ssg8
(dp109
S'put.v.01'
p110
I3
ssg50
(dp111
S'pizza.n.01'
p112
I1
ssg24
(dp113
S'kettle.n.01'
p114
I1
ssg16
(dp115
g17
I1
ssg17
(dp116
g17
I0
ssg36
(dp117
g36
I0
ssg34
(dp118
S'onion.n.01'
p119
I1
ssg51
(dp120
S'pitcher.n.02'
p121
I1
sssb.