ccopy_reg
_reconstructor
p0
(cutils.eval
ConfusionMatrix
p1
c__builtin__
object
p2
Ntp3
Rp4
(dp5
S'labels'
p6
(lp7
S'knife.n.01'
p8
aS'tongue.n.03'
p9
aS'banana.n.02'
p10
aS'slice.v.03'
p11
aS'fill.v.01'
p12
aS'mug.n.04'
p13
aS'put.v.01'
p14
aS'put.v.02'
p15
aS'lodge.v.02'
p16
aS'stick.v.08'
p17
aS'pizza.n.01'
p18
aS'pan.n.01'
p19
aS'pan.n.03'
p20
aS'add.v.01'
p21
aS'lend.v.01'
p22
aS'burner.n.02'
p23
aS'burner.n.01'
p24
aS'pan.n.02'
p25
aS'butter.n.01'
p26
aS'vanilla.n.02'
p27
aS'vanilla.n.03'
p28
aS'walnut.n.01'
p29
aS'walnut.n.02'
p30
aS'get.v.01'
p31
aS'make.v.02'
p32
aS'pear.n.01'
p33
aS'pear.n.02'
p34
aS'blend.v.03'
p35
aS'mix.v.05'
p36
aS'bowl.n.01'
p37
aS'bowl.n.08'
p38
aS'pepper.n.03'
p39
aS'salt.n.02'
p40
aS'salt.n.04'
p41
aS'egg.n.02'
p42
aS'egg.n.01'
p43
aS'ice.n.01'
p44
aS'ice.n.05'
p45
aS'piece.n.08'
p46
aS'slice.n.06'
p47
aS'liquid.n.01'
p48
aS'pour.v.01'
p49
aS'sink.n.01'
p50
aS'cesspool.n.01'
p51
aS'opening.n.01'
p52
aS'opening.n.10'
p53
aS'fill.v.09'
p54
aS'curd.n.01'
p55
aS'wok.n.01'
p56
aS'rice.n.01'
p57
aS'saltcellar.n.01'
p58
aS'fork.n.01'
p59
aS'branching.n.01'
p60
aS'blend.v.01'
p61
aS'cut.n.16'
p62
aS'edit.v.03'
p63
aS'bag.n.01'
p64
aS'bag.n.04'
p65
aS'teapot.n.01'
p66
aS'water.n.06'
p67
aS'mixing_bowl.n.01'
p68
aS'sugar.n.01'
p69
aS'boodle.n.01'
p70
aS'carve.v.03'
p71
aS'hack.v.07'
p72
aS'pepper.n.04'
p73
aS'onion.n.01'
p74
aS'onion.n.03'
p75
aS'beef.n.02'
p76
aS'gripe.n.01'
p77
aS'plate.n.04'
p78
aS'plate.n.13'
p79
asS'instanceCount'
p80
I64
sS'matrix'
p81
(dp82
g79
(dp83
g79
I0
ssg50
(dp84
g51
I1
ssg40
(dp85
S'salt.n.02'
p86
I1
sg41
I1
ssg71
(dp87
g72
I1
ssg16
(dp88
g17
I1
ssg32
(dp89
g32
I0
ssg68
(dp90
S'mixing_bowl.n.01'
p91
I1
ssg67
(dp92
S'water.n.06'
p93
I1
ssg49
(dp94
S'pour.v.01'
p95
I1
ssg37
(dp96
S'bowl.n.01'
p97
I1
sg38
I3
ssg53
(dp98
g53
I0
ssg17
(dp99
g17
I0
ssg35
(dp100
g36
I2
ssg73
(dp101
S'pepper.n.03'
p102
I1
ssg38
(dp103
g38
I0
ssg21
(dp104
g22
I3
ssg19
(dp105
g20
I1
sg25
I1
ssg20
(dp106
g20
I0
ssg25
(dp107
g25
I0
ssg58
(dp108
S'saltcellar.n.01'
p109
I1
ssg54
(dp110
S'fill.v.01'
p111
I1
ssg42
(dp112
g43
I1
ssg26
(dp113
S'butter.n.01'
p114
I2
ssg41
(dp115
g41
I0
ssg72
(dp116
g72
I0
ssg12
(dp117
S'fill.v.01'
p118
I5
ssg65
(dp119
g65
I0
ssg34
(dp120
g34
I0
ssg33
(dp121
g34
I1
ssg69
(dp122
g70
I1
ssg64
(dp123
g65
I1
ssg28
(dp124
g28
I0
ssg27
(dp125
g28
I1
ssg36
(dp126
g36
I0
ssg52
(dp127
g53
I1
ssg78
(dp128
g79
I1
ssg11
(dp129
S'slice.v.03'
p130
I2
ssg8
(dp131
g9
I1
ssg10
(dp132
S'banana.n.02'
p133
I1
ssg31
(dp134
g32
I1
ssg56
(dp135
S'wok.n.01'
p136
I1
ssg63
(dp137
g63
I0
ssg61
(dp138
S'blend.v.01'
p139
I1
ssg30
(dp140
g30
I0
ssg39
(dp141
S'pepper.n.03'
p142
I1
ssg29
(dp143
g30
I1
ssg76
(dp144
g77
I1
ssg55
(dp145
S'curd.n.01'
p146
I1
ssg59
(dp147
g60
I1
ssg77
(dp148
g77
I0
ssg46
(dp149
g47
I2
ssg70
(dp150
g70
I0
ssg51
(dp151
g51
I0
ssg43
(dp152
g43
I0
ssg13
(dp153
S'mug.n.04'
p154
I1
ssg66
(dp155
S'teapot.n.01'
p156
I1
ssg57
(dp157
S'rice.n.01'
p158
I1
ssg47
(dp159
g47
I0
ssg15
(dp160
g15
I0
ssg14
(dp161
g15
I3
ssg18
(dp162
S'pizza.n.01'
p163
I2
ssg44
(dp164
g45
I1
ssg45
(dp165
g45
I0
ssg75
(dp166
g75
I0
ssg9
(dp167
g9
I0
ssg22
(dp168
g22
I0
ssg48
(dp169
S'liquid.n.01'
p170
I1
ssg62
(dp171
g63
I1
ssg74
(dp172
S'onion.n.01'
p173
I1
sg75
I1
ssg23
(dp174
g24
I1
ssg24
(dp175
g24
I0
ssg60
(dp176
g60
I0
sssb.