ccopy_reg
_reconstructor
p0
(cutils.eval
ConfusionMatrix
p1
c__builtin__
object
p2
Ntp3
Rp4
(dp5
S'labels'
p6
(lp7
S'pepper.n.03'
p8
aS'salt.n.02'
p9
aS'salt.n.04'
p10
aS'egg.n.02'
p11
aS'egg.n.01'
p12
aS'ice.n.01'
p13
aS'ice.n.05'
p14
aS'fill.v.01'
p15
aS'bowl.n.01'
p16
aS'piece.n.08'
p17
aS'slice.n.06'
p18
aS'add.v.01'
p19
aS'lend.v.01'
p20
aS'liquid.n.01'
p21
aS'pour.v.01'
p22
aS'sink.n.01'
p23
aS'cesspool.n.01'
p24
aS'opening.n.01'
p25
aS'opening.n.10'
p26
aS'fill.v.09'
p27
aS'curd.n.01'
p28
aS'wok.n.01'
p29
aS'rice.n.01'
p30
aS'saltcellar.n.01'
p31
aS'fork.n.01'
p32
aS'branching.n.01'
p33
aS'bowl.n.08'
p34
aS'blend.v.03'
p35
aS'mix.v.05'
p36
aS'put.v.01'
p37
aS'put.v.02'
p38
aS'blend.v.01'
p39
aS'cut.n.16'
p40
aS'edit.v.03'
p41
aS'bag.n.01'
p42
aS'bag.n.04'
p43
aS'teapot.n.01'
p44
aS'water.n.06'
p45
aS'butter.n.01'
p46
aS'sugar.n.01'
p47
aS'boodle.n.01'
p48
aS'carve.v.03'
p49
aS'hack.v.07'
p50
aS'pepper.n.04'
p51
aS'onion.n.01'
p52
aS'onion.n.03'
p53
aS'beef.n.02'
p54
aS'gripe.n.01'
p55
aS'plate.n.04'
p56
aS'plate.n.13'
p57
aS'pizza.n.01'
p58
aS'slice.v.03'
p59
aS'rum.n.01'
p60
aS'shaker.n.03'
p61
aS'take.v.04'
p62
aS'assume.v.03'
p63
aS'decant.v.01'
p64
aS'pot.n.01'
p65
aS'measuring_cup.n.01'
p66
aS'meal.n.03'
p67
aS'pitcher.n.02'
p68
aS'milk.n.01'
p69
aS'strawberry.n.01'
p70
aS'cut.v.01'
p71
asS'instanceCount'
p72
I60
sS'matrix'
p73
(dp74
g57
(dp75
g57
I0
ssg70
(dp76
S'strawberry.n.01'
p77
I1
ssg67
(dp78
S'meal.n.03'
p79
I1
ssg61
(dp80
S'shaker.n.03'
p81
I1
ssg23
(dp82
g24
I1
ssg50
(dp83
g50
I0
ssg49
(dp84
g50
I1
ssg45
(dp85
S'water.n.06'
p86
I2
ssg16
(dp87
S'bowl.n.01'
p88
I1
sg34
I2
ssg64
(dp89
S'pour.v.01'
p90
I1
ssg62
(dp91
g63
I1
ssg26
(dp92
g26
I0
ssg34
(dp93
g34
I0
ssg19
(dp94
g20
I2
ssg68
(dp95
S'pitcher.n.02'
p96
I1
ssg71
(dp97
S'edit.v.03'
p98
I1
ssg31
(dp99
S'saltcellar.n.01'
p100
I1
ssg27
(dp101
S'fill.v.01'
p102
I1
ssg11
(dp103
g12
I1
ssg12
(dp104
g12
I0
ssg54
(dp105
g55
I1
ssg65
(dp106
S'pot.n.01'
p107
I1
ssg15
(dp108
S'fill.v.01'
p109
I7
ssg43
(dp110
g43
I0
ssg56
(dp111
g57
I1
ssg47
(dp112
g48
I1
ssg42
(dp113
g43
I1
ssg22
(dp114
S'pour.v.01'
p115
I1
ssg63
(dp116
g63
I0
ssg9
(dp117
S'salt.n.02'
p118
I1
sg10
I1
ssg35
(dp119
g36
I1
ssg39
(dp120
S'blend.v.01'
p121
I1
ssg10
(dp122
g10
I0
ssg29
(dp123
S'wok.n.01'
p124
I1
ssg51
(dp125
S'pepper.n.03'
p126
I1
ssg41
(dp127
g41
I0
ssg8
(dp128
S'pepper.n.03'
p129
I1
ssg48
(dp130
g48
I0
ssg21
(dp131
S'liquid.n.01'
p132
I1
ssg32
(dp133
g33
I1
ssg36
(dp134
g36
I0
ssg55
(dp135
g55
I0
ssg17
(dp136
g18
I3
ssg60
(dp137
S'rum.n.01'
p138
I1
ssg24
(dp139
g24
I0
ssg25
(dp140
g26
I1
ssg44
(dp141
S'teapot.n.01'
p142
I1
ssg69
(dp143
S'milk.n.01'
p144
I1
ssg30
(dp145
S'rice.n.01'
p146
I1
ssg18
(dp147
g18
I0
ssg38
(dp148
g38
I0
ssg37
(dp149
g38
I2
ssg58
(dp150
S'pizza.n.01'
p151
I1
ssg13
(dp152
g14
I1
ssg14
(dp153
g14
I0
ssg66
(dp154
S'measuring_cup.n.01'
p155
I1
ssg20
(dp156
g20
I0
ssg28
(dp157
S'curd.n.01'
p158
I1
ssg59
(dp159
S'slice.v.03'
p160
I1
ssg40
(dp161
g41
I1
ssg52
(dp162
S'onion.n.01'
p163
I1
sg53
I1
ssg46
(dp164
S'butter.n.01'
p165
I1
ssg53
(dp166
g53
I0
ssg33
(dp167
g33
I0
sssb.