ccopy_reg
_reconstructor
p0
(cutils.eval
ConfusionMatrix
p1
c__builtin__
object
p2
Ntp3
Rp4
(dp5
S'labels'
p6
(lp7
S'cheese.n.01'
p8
aS'cut.v.01'
p9
aS'olive.n.01'
p10
aS'olive.n.04'
p11
aS'lemon.n.01'
p12
aS'knife.n.01'
p13
aS'green_onion.n.01'
p14
aS'piece.n.08'
p15
aS'slice.n.06'
p16
aS'orange.n.01'
p17
aS'mushroom.n.05'
p18
aS'cabbage.n.01'
p19
aS'bread.n.01'
p20
aS'zucchini.n.01'
p21
aS'zucchini.n.02'
p22
aS'pizza.n.01'
p23
aS'egg.n.02'
p24
aS'fork.n.01'
p25
aS'fork.n.04'
p26
aS'cake.n.03'
p27
aS'potato.n.01'
p28
aS'flesh.n.01'
p29
aS'pulp.n.02'
p30
asS'instanceCount'
p31
I35
sS'matrix'
p32
(dp33
g18
(dp34
S'mushroom.n.05'
p35
I1
ssg8
(dp36
S'cheese.n.01'
p37
I1
ssg20
(dp38
S'bread.n.01'
p39
I1
ssg17
(dp40
S'orange.n.01'
p41
I1
ssg22
(dp42
g22
I0
ssg21
(dp43
g22
I1
ssg19
(dp44
S'cabbage.n.01'
p45
I1
ssg14
(dp46
S'green_onion.n.01'
p47
I1
ssg9
(dp48
S'cut.v.01'
p49
I14
ssg24
(dp50
S'egg.n.02'
p51
I1
ssg28
(dp52
S'potato.n.01'
p53
I1
ssg10
(dp54
g11
I1
ssg13
(dp55
S'knife.n.01'
p56
I2
ssg11
(dp57
g11
I0
ssg26
(dp58
g26
I0
ssg25
(dp59
g26
I1
ssg15
(dp60
g16
I4
ssg29
(dp61
g30
I1
ssg16
(dp62
g16
I0
ssg23
(dp63
S'pizza.n.01'
p64
I1
ssg27
(dp65
S'cake.n.03'
p66
I1
ssg12
(dp67
S'lemon.n.01'
p68
I1
ssg30
(dp69
g30
I0
sssb.