ccopy_reg
_reconstructor
p0
(cutils.eval
ConfusionMatrix
p1
c__builtin__
object
p2
Ntp3
Rp4
(dp5
S'labels'
p6
(lp7
S'egg.n.02'
p8
aS'cut.v.01'
p9
aS'piece.n.08'
p10
aS'fork.n.01'
p11
aS'fork.n.04'
p12
aS'cake.n.03'
p13
aS'potato.n.01'
p14
aS'flesh.n.01'
p15
aS'human_body.n.01'
p16
aS'knife.n.01'
p17
aS'banana.n.02'
p18
aS'tomato.n.01'
p19
aS'lemon.n.01'
p20
aS'vegetable.n.01'
p21
aS'meat.n.01'
p22
aS'cleaver.n.01'
p23
aS'bacon.n.01'
p24
aS'cheese.n.01'
p25
aS'olive.n.01'
p26
aS'olive.n.04'
p27
aS'green_onion.n.01'
p28
asS'instanceCount'
p29
I36
sS'matrix'
p30
(dp31
g24
(dp32
S'bacon.n.01'
p33
I1
ssg25
(dp34
S'cheese.n.01'
p35
I1
ssg21
(dp36
S'vegetable.n.01'
p37
I1
ssg9
(dp38
S'cut.v.01'
p39
I14
ssg17
(dp40
S'knife.n.01'
p41
I4
ssg27
(dp42
g27
I0
ssg18
(dp43
S'banana.n.02'
p44
I1
ssg15
(dp45
g16
I1
ssg8
(dp46
S'egg.n.02'
p47
I1
ssg19
(dp48
S'tomato.n.01'
p49
I1
ssg12
(dp50
g12
I0
ssg26
(dp51
g27
I1
ssg11
(dp52
g12
I1
ssg16
(dp53
g16
I0
ssg13
(dp54
S'cake.n.03'
p55
I1
ssg22
(dp56
S'meat.n.01'
p57
I1
ssg20
(dp58
S'lemon.n.01'
p59
I2
ssg14
(dp60
S'potato.n.01'
p61
I1
ssg10
(dp62
S'piece.n.08'
p63
I2
ssg28
(dp64
S'green_onion.n.01'
p65
I1
ssg23
(dp66
S'cleaver.n.01'
p67
I1
sssb.