ccopy_reg
_reconstructor
p0
(cutils.eval
ConfusionMatrix
p1
c__builtin__
object
p2
Ntp3
Rp4
(dp5
S'labels'
p6
(lp7
S'cut.v.01'
p8
aS'knife.n.01'
p9
aS'tongue.n.03'
p10
aS'banana.n.02'
p11
aS'tomato.n.01'
p12
aS'knife.n.02'
p13
aS'lemon.n.01'
p14
aS'vegetable.n.01'
p15
aS'meat.n.01'
p16
aS'cleaver.n.01'
p17
aS'helicopter.n.01'
p18
aS'bacon.n.01'
p19
aS'bacon.n.02'
p20
aS'cheese.n.01'
p21
aS'olive.n.01'
p22
aS'olive.n.04'
p23
aS'green_onion.n.01'
p24
aS'piece.n.08'
p25
aS'orange.n.01'
p26
aS'mushroom.n.05'
p27
aS'cabbage.n.01'
p28
aS'bread.n.01'
p29
aS'slice.n.06'
p30
aS'zucchini.n.01'
p31
aS'zucchini.n.02'
p32
aS'pizza.n.01'
p33
aS'egg.n.02'
p34
aS'fork.n.01'
p35
aS'fork.n.04'
p36
aS'cake.n.03'
p37
aS'potato.n.01'
p38
aS'flesh.n.01'
p39
aS'pulp.n.02'
p40
aS'human_body.n.01'
p41
asS'instanceCount'
p42
I357
sS'matrix'
p43
(dp44
g27
(dp45
g27
I7
sg21
I0
sg29
I0
sg26
I0
sg32
I0
sg31
I0
sg28
I0
sg24
I0
sg8
I0
sg34
I0
sg12
I0
sg23
I0
sg20
I0
sg19
I0
sg16
I0
sg38
I0
sg17
I0
sg22
I0
sg9
I0
sg10
I0
sg11
I0
sg13
I0
sg36
I0
sg35
I0
sg41
I0
sg25
I0
sg15
I0
sg39
I0
sg18
I0
sg30
I0
sg33
I0
sg37
I0
sg14
I0
sg40
I0
ssg21
(dp46
g27
I0
sg21
I7
sg29
I0
sg26
I0
sg32
I0
sg31
I0
sg28
I0
sg24
I0
sg8
I0
sg34
I0
sg12
I0
sg23
I0
sg20
I0
sg19
I0
sg16
I0
sS'potato.n.01'
p47
I0
sg17
I0
sg22
I0
sg9
I0
sg10
I0
sg11
I0
sg13
I0
sg36
I0
sg35
I0
sg41
I0
sg25
I0
sg15
I0
sS'flesh.n.01'
p48
I0
sg18
I0
sg30
I0
sg33
I0
sg37
I0
sg14
I0
sS'pulp.n.02'
p49
I0
ssg29
(dp50
g27
I0
sg21
I0
sg29
I7
sg26
I0
sg32
I0
sg31
I0
sg28
I0
sg24
I0
sg8
I0
sg34
I0
sg12
I0
sg23
I0
sg20
I0
sg19
I0
sg16
I0
sg38
I0
sg17
I0
sg22
I0
sg9
I0
sg10
I0
sg11
I0
sg13
I0
sg36
I0
sg35
I0
sg25
I0
sg15
I0
sg39
I0
sg18
I0
sg30
I0
sg33
I0
sg37
I0
sg14
I0
sg40
I0
ssg26
(dp51
g27
I0
sg21
I0
sg29
I0
sg26
I7
sg32
I0
sg31
I0
sg28
I0
sg24
I0
sg8
I0
sg34
I0
sg12
I0
sg23
I0
sg20
I0
sg19
I0
sg16
I0
sg38
I0
sg17
I0
sg22
I0
sg9
I0
sg10
I0
sg11
I0
sg13
I0
sg36
I0
sg35
I0
sg41
I0
sg25
I0
sg15
I0
sg39
I0
sg18
I0
sg30
I0
sg33
I0
sg37
I0
sg14
I0
sg40
I0
ssg32
(dp52
S'mushroom.n.05'
p53
I0
sS'cheese.n.01'
p54
I0
sS'bread.n.01'
p55
I0
sS'orange.n.01'
p56
I0
sg32
I0
sg31
I0
sS'cabbage.n.01'
p57
I0
sS'green_onion.n.01'
p58
I0
sS'cut.v.01'
p59
I0
sg34
I0
sS'tomato.n.01'
p60
I0
sS'bacon.n.01'
p61
I0
sS'meat.n.01'
p62
I0
sg38
I0
sS'cleaver.n.01'
p63
I0
sS'olive.n.01'
p64
I0
sS'knife.n.01'
p65
I0
sS'banana.n.02'
p66
I0
sS'olive.n.04'
p67
I0
sg36
I0
sg35
I0
sS'piece.n.08'
p68
I0
sS'vegetable.n.01'
p69
I0
sg39
I0
sg30
I0
sg33
I0
sg37
I0
sS'lemon.n.01'
p70
I0
sg40
I0
ssg31
(dp71
g53
I0
sg54
I0
sg55
I0
sg56
I0
sg32
I7
sg31
I0
sg57
I0
sg58
I0
sg59
I0
sg34
I0
sg60
I0
sg61
I0
sg63
I0
sg38
I0
sg62
I0
sg64
I0
sg65
I0
sg66
I0
sg67
I0
sg36
I0
sg35
I0
sg68
I0
sg69
I0
sg39
I0
sg30
I0
sg33
I0
sg37
I0
sg70
I0
sg40
I0
ssg28
(dp72
g27
I0
sg21
I0
sg29
I0
sg26
I0
sg32
I0
sg31
I0
sg28
I7
sg24
I0
sg8
I0
sg34
I0
sg12
I0
sg23
I0
sg20
I0
sg19
I0
sg16
I0
sg38
I0
sg17
I0
sg22
I0
sg9
I0
sg10
I0
sg11
I0
sg13
I0
sg36
I0
sg35
I0
sg25
I0
sg15
I0
sg39
I0
sg18
I0
sg30
I0
sg33
I0
sg37
I0
sg14
I0
sg40
I0
ssg24
(dp73
g27
I0
sg21
I0
sg29
I0
sg26
I0
sg32
I0
sg31
I0
sg28
I0
sg24
I7
sg8
I0
sg34
I0
sg12
I0
sg23
I0
sg20
I0
sg19
I0
sg16
I0
sg47
I0
sg17
I0
sg22
I0
sg9
I0
sg10
I0
sg11
I0
sg13
I0
sg36
I0
sg35
I0
sg41
I0
sg25
I0
sg15
I0
sg48
I0
sg18
I0
sg30
I0
sg33
I0
sg37
I0
sg14
I0
sg49
I0
ssg8
(dp74
g27
I0
sg21
I0
sg29
I0
sg26
I0
sg32
I0
sg31
I0
sg28
I0
sg24
I0
sg8
I140
sg34
I0
sg12
I0
sg23
I0
sg20
I0
sg19
I0
sg16
I0
sg38
I0
sg17
I0
sg22
I0
sg9
I0
sg10
I0
sg11
I0
sg13
I0
sg36
I0
sg35
I0
sg41
I0
sg25
I0
sg15
I0
sg39
I0
sg18
I0
sg30
I0
sg33
I0
sg37
I0
sg14
I0
sg40
I0
ssg34
(dp75
g53
I0
sg54
I0
sg55
I0
sg56
I0
sg32
I0
sg31
I0
sg57
I0
sg58
I0
sg59
I0
sg34
I7
sg60
I0
sg61
I0
sg62
I0
sg38
I0
sg63
I0
sg64
I0
sg65
I0
sg66
I0
sg67
I0
sg36
I0
sg35
I0
sS'human_body.n.01'
p76
I0
sg68
I0
sg69
I0
sg39
I0
sg30
I0
sg33
I0
sg37
I0
sg70
I0
sg40
I0
ssg12
(dp77
g27
I0
sg21
I0
sg29
I0
sg26
I0
sS'zucchini.n.02'
p78
I0
sS'zucchini.n.01'
p79
I0
sg28
I0
sg24
I0
sg8
I0
sS'egg.n.02'
p80
I0
sg12
I7
sg23
I0
sg20
I0
sg19
I0
sg16
I0
sg38
I0
sg17
I0
sg22
I0
sg9
I0
sg10
I0
sg11
I0
sg13
I0
sS'fork.n.04'
p81
I0
sS'fork.n.01'
p82
I0
sg41
I0
sg25
I0
sg15
I0
sg39
I0
sg18
I0
sS'slice.n.06'
p83
I0
sS'pizza.n.01'
p84
I0
sS'cake.n.03'
p85
I0
sg14
I0
sg40
I0
ssg23
(dp86
g27
I0
sg21
I0
sg29
I0
sg26
I0
sg32
I0
sg31
I0
sg28
I0
sg24
I0
sg8
I0
sg34
I0
sg12
I0
sg13
I0
sg20
I0
sg19
I0
sg16
I0
sg47
I0
sg17
I0
sg22
I0
sg9
I0
sg10
I0
sg11
I0
sg23
I0
sg36
I0
sg35
I0
sg41
I0
sg25
I0
sg15
I0
sg48
I0
sg18
I0
sg30
I0
sg33
I0
sg37
I0
sg14
I0
sg49
I0
ssg20
(dp87
g27
I0
sg21
I0
sg29
I0
sg26
I0
sg28
I0
sg24
I0
sg8
I0
sg12
I0
sg23
I0
sg20
I0
sg19
I0
sg16
I0
sg17
I0
sg22
I0
sg9
I0
sg10
I0
sg11
I0
sg13
I0
sg25
I0
sg15
I0
sg18
I0
sg14
I0
ssg19
(dp88
g27
I0
sg21
I0
sg29
I0
sg26
I0
sg32
I0
sg31
I0
sg28
I0
sg24
I0
sg8
I0
sg34
I0
sg12
I0
sg23
I0
sg20
I1
sg19
I6
sg16
I0
sS'potato.n.01'
p89
I0
sg17
I0
sg22
I0
sg9
I0
sg10
I0
sg11
I0
sg13
I0
sg36
I0
sg35
I0
sg41
I0
sg25
I0
sg15
I0
sS'flesh.n.01'
p90
I0
sg18
I0
sg30
I0
sg33
I0
sg37
I0
sg14
I0
sS'pulp.n.02'
p91
I0
ssg16
(dp92
g27
I0
sg21
I0
sg29
I0
sg26
I0
sg32
I0
sg31
I0
sg28
I0
sg24
I0
sg8
I0
sg34
I0
sg12
I0
sg23
I0
sg20
I0
sg19
I0
sg16
I7
sg89
I0
sg17
I0
sg22
I0
sg9
I0
sg10
I0
sg11
I0
sg13
I0
sg36
I0
sg35
I0
sg41
I0
sg25
I0
sg15
I0
sg90
I0
sg18
I0
sg30
I0
sg33
I0
sg37
I0
sg14
I0
sg91
I0
ssg38
(dp93
S'mushroom.n.05'
p94
I0
sS'cheese.n.01'
p95
I0
sS'bread.n.01'
p96
I0
sS'orange.n.01'
p97
I0
sg78
I0
sg79
I0
sS'knife.n.01'
p98
I0
sS'green_onion.n.01'
p99
I0
sS'cut.v.01'
p100
I0
sg80
I0
sg60
I0
sS'bacon.n.01'
p101
I0
sS'meat.n.01'
p102
I0
sg38
I7
sS'cleaver.n.01'
p103
I0
sS'olive.n.01'
p104
I0
sS'cabbage.n.01'
p105
I0
sg66
I0
sS'olive.n.04'
p106
I0
sg81
I0
sg82
I0
sg41
I0
sS'piece.n.08'
p107
I0
sg69
I0
sg39
I0
sg83
I0
sg84
I0
sg85
I0
sS'lemon.n.01'
p108
I0
sg40
I0
ssg17
(dp109
g27
I0
sg21
I0
sg29
I0
sg26
I0
sg32
I0
sg31
I0
sg28
I0
sg24
I0
sg8
I0
sg34
I0
sg12
I0
sg23
I0
sg20
I0
sg19
I0
sg17
I6
sg89
I0
sg16
I0
sg22
I0
sg9
I0
sg10
I0
sg11
I0
sg13
I0
sg36
I0
sg35
I0
sg41
I0
sg25
I0
sg15
I0
sg90
I0
sg18
I1
sg30
I0
sg33
I0
sg37
I0
sg14
I0
sg91
I0
ssg22
(dp110
g27
I0
sg21
I0
sg29
I0
sg26
I0
sg32
I0
sg31
I0
sg28
I0
sg24
I0
sg8
I0
sg34
I0
sg12
I0
sg23
I7
sg20
I0
sg19
I0
sg16
I0
sg47
I0
sg17
I0
sg22
I0
sg9
I0
sg10
I0
sg11
I0
sg13
I0
sg36
I0
sg35
I0
sg41
I0
sg25
I0
sg15
I0
sg48
I0
sg18
I0
sg30
I0
sg33
I0
sg37
I0
sg14
I0
sg49
I0
ssg9
(dp111
g27
I0
sg21
I0
sg29
I0
sg26
I0
sg32
I0
sg31
I0
sg28
I0
sg24
I0
sg8
I0
sg34
I0
sg12
I0
sg23
I0
sg20
I0
sg19
I0
sg16
I0
sg38
I0
sg17
I0
sg22
I0
sg9
I30
sg10
I1
sg11
I0
sg13
I4
sg36
I0
sg35
I0
sg41
I0
sg25
I0
sg15
I0
sg39
I0
sg18
I0
sg30
I0
sg33
I0
sg37
I0
sg14
I0
sg40
I0
ssg10
(dp112
g27
I0
sg21
I0
sg29
I0
sg26
I0
sg28
I0
sg24
I0
sg8
I0
sg12
I0
sg23
I0
sg20
I0
sg19
I0
sg16
I0
sg17
I0
sg22
I0
sg9
I0
sg10
I0
sg11
I0
sg13
I0
sg25
I0
sg15
I0
sg18
I0
sg14
I0
ssg11
(dp113
g27
I0
sg21
I0
sg29
I0
sg26
I0
sg78
I0
sg79
I0
sg28
I0
sg24
I0
sg8
I0
sg80
I0
sg12
I0
sg23
I0
sg20
I0
sg19
I0
sg16
I0
sg38
I0
sg17
I0
sg22
I0
sg9
I0
sg10
I0
sg11
I7
sg13
I0
sg81
I0
sg82
I0
sg41
I0
sg25
I0
sg15
I0
sg39
I0
sg18
I0
sg83
I0
sg84
I0
sg85
I0
sg14
I0
sg40
I0
ssg13
(dp114
g27
I0
sg21
I0
sg29
I0
sg26
I0
sg28
I0
sg24
I0
sg8
I0
sg12
I0
sg23
I0
sg20
I0
sg19
I0
sg16
I0
sg17
I0
sg22
I0
sg9
I0
sg10
I0
sg11
I0
sg13
I0
sg25
I0
sg15
I0
sg18
I0
sg14
I0
ssg36
(dp115
g53
I0
sg54
I0
sg55
I0
sg56
I0
sg32
I0
sg31
I0
sg57
I0
sg58
I0
sg59
I0
sg34
I0
sg60
I0
sg61
I0
sg62
I0
sg38
I0
sg63
I0
sg64
I0
sg65
I0
sg66
I0
sg67
I0
sg36
I0
sg35
I0
sg76
I0
sg68
I0
sg69
I0
sg39
I0
sg30
I0
sg33
I0
sg37
I0
sg70
I0
sg40
I0
ssg35
(dp116
g53
I0
sg54
I0
sg55
I0
sg56
I0
sg32
I0
sg31
I0
sg57
I0
sg58
I0
sg59
I0
sg34
I0
sg60
I0
sg61
I0
sg62
I0
sg38
I0
sg63
I0
sg64
I0
sg65
I0
sg66
I0
sg67
I0
sg36
I7
sg35
I0
sg76
I0
sg68
I0
sg69
I0
sg39
I0
sg30
I0
sg33
I0
sg37
I0
sg70
I0
sg40
I0
ssg41
(dp117
S'mushroom.n.05'
p118
I0
sS'cheese.n.01'
p119
I0
sS'orange.n.01'
p120
I0
sS'green_onion.n.01'
p121
I0
sS'cut.v.01'
p122
I0
sS'egg.n.02'
p123
I0
sS'tomato.n.01'
p124
I0
sS'bacon.n.01'
p125
I0
sS'meat.n.01'
p126
I0
sS'potato.n.01'
p127
I0
sS'cleaver.n.01'
p128
I0
sS'olive.n.01'
p129
I0
sS'knife.n.01'
p130
I0
sS'banana.n.02'
p131
I0
sS'olive.n.04'
p132
I0
sS'fork.n.04'
p133
I0
sS'fork.n.01'
p134
I0
sg41
I0
sS'piece.n.08'
p135
I0
sS'vegetable.n.01'
p136
I0
sS'flesh.n.01'
p137
I0
sS'cake.n.03'
p138
I0
sS'lemon.n.01'
p139
I0
ssg25
(dp140
g27
I0
sg21
I0
sg29
I0
sg26
I0
sg32
I0
sg31
I0
sg28
I0
sg24
I0
sg8
I0
sg34
I0
sg12
I0
sg23
I0
sg20
I0
sg19
I0
sg16
I0
sg38
I0
sg17
I0
sg22
I0
sg9
I0
sg10
I0
sg11
I0
sg13
I0
sg36
I0
sg35
I0
sg41
I0
sg25
I8
sg15
I0
sg39
I0
sg18
I0
sg30
I20
sg33
I0
sg37
I0
sg14
I0
sg40
I0
ssg15
(dp141
g27
I0
sg21
I0
sg29
I0
sg26
I0
sg78
I0
sg79
I0
sg28
I0
sg24
I0
sg8
I0
sg80
I0
sg12
I0
sg23
I0
sg20
I0
sg19
I0
sg16
I0
sg38
I0
sg17
I0
sg22
I0
sg9
I0
sg10
I0
sg11
I0
sg13
I0
sg81
I0
sg82
I0
sg41
I0
sg25
I0
sg15
I7
sg39
I0
sg18
I0
sg83
I0
sg84
I0
sg85
I0
sg14
I0
sg40
I0
ssg39
(dp142
g94
I0
sg95
I0
sg96
I0
sg97
I0
sg78
I0
sg79
I0
sg98
I0
sg99
I0
sg100
I0
sg80
I0
sg60
I0
sg101
I0
sg102
I0
sg38
I0
sg103
I0
sg104
I0
sg105
I0
sg66
I0
sg106
I0
sg81
I0
sg82
I0
sg41
I2
sg107
I0
sg69
I0
sg39
I0
sg83
I0
sg84
I0
sg85
I0
sg108
I0
sg40
I5
ssg18
(dp143
g27
I0
sg21
I0
sg29
I0
sg26
I0
sg28
I0
sg24
I0
sg8
I0
sg12
I0
sg23
I0
sg20
I0
sg19
I0
sg16
I0
sg17
I0
sg22
I0
sg9
I0
sg10
I0
sg11
I0
sg13
I0
sg25
I0
sg15
I0
sg18
I0
sg14
I0
ssg30
(dp144
g53
I0
sg54
I0
sg55
I0
sg56
I0
sg32
I0
sg31
I0
sg57
I0
sg58
I0
sg59
I0
sg34
I0
sg60
I0
sg61
I0
sg62
I0
sg38
I0
sg63
I0
sg64
I0
sg65
I0
sg66
I0
sg67
I0
sg36
I0
sg35
I0
sg68
I0
sg69
I0
sg39
I0
sg30
I0
sg33
I0
sg37
I0
sg70
I0
sg40
I0
ssg33
(dp145
g53
I0
sg54
I0
sg55
I0
sg56
I0
sg32
I0
sg31
I0
sg57
I0
sg58
I0
sg59
I0
sg34
I0
sg60
I0
sg61
I0
sg63
I0
sg38
I0
sg62
I0
sg64
I0
sg65
I0
sg66
I0
sg67
I0
sg36
I0
sg35
I0
sg68
I0
sg69
I0
sg39
I0
sg30
I0
sg33
I7
sg37
I0
sg70
I0
sg40
I0
ssg37
(dp146
g53
I0
sg54
I0
sg55
I0
sg56
I0
sg32
I0
sg31
I0
sg57
I0
sg58
I0
sg59
I0
sg34
I0
sg60
I0
sg61
I0
sg62
I0
sg38
I0
sg63
I0
sg64
I0
sg65
I0
sg66
I0
sg67
I0
sg36
I0
sg35
I0
sg76
I0
sg68
I0
sg69
I0
sg39
I0
sg30
I0
sg33
I0
sg37
I7
sg70
I0
sg40
I0
ssg14
(dp147
g27
I0
sg21
I0
sg29
I0
sg26
I0
sg32
I0
sg31
I0
sg28
I0
sg24
I0
sg8
I0
sg34
I0
sg12
I0
sg23
I0
sg20
I0
sg19
I0
sg16
I0
sg38
I0
sg17
I0
sg22
I0
sg9
I0
sg10
I0
sg11
I0
sg13
I0
sg36
I0
sg35
I0
sg41
I0
sg25
I0
sg15
I0
sg39
I0
sg18
I0
sg30
I0
sg33
I0
sg37
I0
sg14
I14
sg40
I0
ssg40
(dp148
g94
I0
sg95
I0
sg96
I0
sg97
I0
sg78
I0
sg79
I0
sg98
I0
sg99
I0
sg100
I0
sg80
I0
sg60
I0
sg101
I0
sg102
I0
sg38
I0
sg103
I0
sg104
I0
sg105
I0
sg66
I0
sg106
I0
sg81
I0
sg82
I0
sg107
I0
sg69
I0
sg39
I0
sg83
I0
sg84
I0
sg85
I0
sg108
I0
sg40
I0
sssb.