ccopy_reg
_reconstructor
p0
(cutils.eval
ConfusionMatrix
p1
c__builtin__
object
p2
Ntp3
Rp4
(dp5
S'labels'
p6
(lp7
S'cut.v.01'
p8
aS'meat.n.01'
p9
aS'cleaver.n.01'
p10
aS'bacon.n.01'
p11
aS'cheese.n.01'
p12
aS'olive.n.01'
p13
aS'olive.n.04'
p14
aS'lemon.n.01'
p15
aS'knife.n.01'
p16
aS'green_onion.n.01'
p17
aS'piece.n.08'
p18
aS'slice.n.06'
p19
aS'orange.n.01'
p20
aS'mushroom.n.05'
p21
aS'cabbage.n.01'
p22
aS'bread.n.01'
p23
aS'zucchini.n.01'
p24
aS'zucchini.n.02'
p25
aS'pizza.n.01'
p26
aS'egg.n.02'
p27
aS'fork.n.01'
p28
aS'fork.n.04'
p29
aS'cake.n.03'
p30
asS'instanceCount'
p31
I35
sS'matrix'
p32
(dp33
g21
(dp34
S'mushroom.n.05'
p35
I1
ssg12
(dp36
S'cheese.n.01'
p37
I1
ssg23
(dp38
S'bread.n.01'
p39
I1
ssg20
(dp40
S'orange.n.01'
p41
I1
ssg25
(dp42
g25
I0
ssg24
(dp43
g25
I1
ssg22
(dp44
S'cabbage.n.01'
p45
I1
ssg17
(dp46
S'green_onion.n.01'
p47
I1
ssg8
(dp48
S'cut.v.01'
p49
I14
ssg27
(dp50
S'egg.n.02'
p51
I1
ssg11
(dp52
S'bacon.n.01'
p53
I1
ssg9
(dp54
S'meat.n.01'
p55
I1
ssg10
(dp56
S'cleaver.n.01'
p57
I1
ssg13
(dp58
g14
I1
ssg16
(dp59
S'knife.n.01'
p60
I2
ssg14
(dp61
g14
I0
ssg29
(dp62
g29
I0
ssg28
(dp63
g29
I1
ssg18
(dp64
S'piece.n.08'
p65
I1
sg19
I2
ssg19
(dp66
g19
I0
ssg26
(dp67
S'pizza.n.01'
p68
I1
ssg30
(dp69
S'cake.n.03'
p70
I1
ssg15
(dp71
S'lemon.n.01'
p72
I1
sssb.