ccopy_reg
_reconstructor
p0
(cutils.eval
ConfusionMatrix
p1
c__builtin__
object
p2
Ntp3
Rp4
(dp5
S'labels'
p6
(lp7
S'cabbage.n.01'
p8
aS'cut.v.01'
p9
aS'bread.n.01'
p10
aS'knife.n.01'
p11
aS'zucchini.n.01'
p12
aS'zucchini.n.02'
p13
aS'piece.n.08'
p14
aS'slice.n.06'
p15
aS'pizza.n.01'
p16
aS'egg.n.02'
p17
aS'fork.n.01'
p18
aS'fork.n.04'
p19
aS'cake.n.03'
p20
aS'potato.n.01'
p21
aS'flesh.n.01'
p22
aS'pulp.n.02'
p23
aS'banana.n.02'
p24
aS'tomato.n.01'
p25
aS'lemon.n.01'
p26
aS'vegetable.n.01'
p27
aS'meat.n.01'
p28
aS'cleaver.n.01'
p29
aS'bacon.n.01'
p30
asS'instanceCount'
p31
I37
sS'matrix'
p32
(dp33
g10
(dp34
S'bread.n.01'
p35
I1
ssg13
(dp36
g13
I0
ssg12
(dp37
g13
I1
ssg8
(dp38
S'cabbage.n.01'
p39
I1
ssg9
(dp40
S'cut.v.01'
p41
I14
ssg17
(dp42
S'egg.n.02'
p43
I1
ssg25
(dp44
S'tomato.n.01'
p45
I1
ssg30
(dp46
S'bacon.n.01'
p47
I1
ssg28
(dp48
S'meat.n.01'
p49
I1
ssg21
(dp50
S'potato.n.01'
p51
I1
ssg29
(dp52
S'cleaver.n.01'
p53
I1
ssg11
(dp54
S'knife.n.01'
p55
I4
ssg24
(dp56
S'banana.n.02'
p57
I1
ssg19
(dp58
g19
I0
ssg18
(dp59
g19
I1
ssg14
(dp60
g15
I3
ssg27
(dp61
S'vegetable.n.01'
p62
I1
ssg22
(dp63
g23
I1
ssg15
(dp64
g15
I0
ssg16
(dp65
S'pizza.n.01'
p66
I1
ssg20
(dp67
S'cake.n.03'
p68
I1
ssg26
(dp69
S'lemon.n.01'
p70
I1
ssg23
(dp71
g23
I0
sssb.