ccopy_reg
_reconstructor
p0
(cutils.eval
ConfusionMatrix
p1
c__builtin__
object
p2
Ntp3
Rp4
(dp5
S'labels'
p6
(lp7
S'olive.n.01'
p8
aS'olive.n.04'
p9
aS'cut.v.01'
p10
aS'cabbage.n.01'
p11
aS'piece.n.08'
p12
aS'slice.n.06'
p13
aS'pizza.n.01'
p14
aS'tomato.n.01'
p15
aS'knife.n.01'
p16
aS'banana.n.02'
p17
aS'meat.n.01'
p18
aS'cleaver.n.01'
p19
aS'fork.n.01'
p20
aS'fork.n.04'
p21
aS'cake.n.03'
p22
aS'orange.n.01'
p23
asS'instanceCount'
p24
I22
sS'matrix'
p25
(dp26
g8
(dp27
g9
I1
ssg10
(dp28
S'cut.v.01'
p29
I8
ssg11
(dp30
S'cabbage.n.01'
p31
I1
ssg17
(dp32
S'banana.n.02'
p33
I1
ssg9
(dp34
g9
I0
ssg15
(dp35
S'tomato.n.01'
p36
I1
ssg21
(dp37
g21
I0
ssg13
(dp38
g13
I0
ssg20
(dp39
g21
I1
ssg14
(dp40
S'pizza.n.01'
p41
I1
ssg23
(dp42
S'orange.n.01'
p43
I1
ssg22
(dp44
S'cake.n.03'
p45
I1
ssg18
(dp46
S'meat.n.01'
p47
I1
ssg16
(dp48
S'knife.n.01'
p49
I2
ssg12
(dp50
g13
I2
ssg19
(dp51
S'cleaver.n.01'
p52
I1
sssb.