ccopy_reg
_reconstructor
p0
(cutils.eval
ConfusionMatrix
p1
c__builtin__
object
p2
Ntp3
Rp4
(dp5
S'labels'
p6
(lp7
S'zucchini.n.01'
p8
aS'zucchini.n.02'
p9
aS'cut.v.01'
p10
aS'piece.n.08'
p11
aS'slice.n.06'
p12
aS'potato.n.01'
p13
aS'lemon.n.01'
p14
aS'bread.n.01'
p15
aS'knife.n.01'
p16
aS'vegetable.n.01'
p17
aS'olive.n.01'
p18
aS'olive.n.04'
p19
aS'cabbage.n.01'
p20
asS'instanceCount'
p21
I19
sS'matrix'
p22
(dp23
g17
(dp24
S'vegetable.n.01'
p25
I1
ssg10
(dp26
S'cut.v.01'
p27
I8
ssg16
(dp28
S'knife.n.01'
p29
I2
ssg19
(dp30
g19
I0
ssg8
(dp31
g9
I1
ssg12
(dp32
g12
I0
ssg18
(dp33
g19
I1
ssg15
(dp34
S'bread.n.01'
p35
I1
ssg9
(dp36
g9
I0
ssg14
(dp37
S'lemon.n.01'
p38
I2
ssg13
(dp39
S'potato.n.01'
p40
I1
ssg20
(dp41
S'cabbage.n.01'
p42
I1
ssg11
(dp43
g12
I1
sssb.