ccopy_reg
_reconstructor
p0
(cutils.eval
ConfusionMatrix
p1
c__builtin__
object
p2
Ntp3
Rp4
(dp5
S'labels'
p6
(lp7
S'cut.v.01'
p8
aS'lemon.n.01'
p9
aS'vegetable.n.01'
p10
aS'knife.n.01'
p11
aS'olive.n.01'
p12
aS'olive.n.04'
p13
aS'cabbage.n.01'
p14
aS'piece.n.08'
p15
aS'pizza.n.01'
p16
aS'tomato.n.01'
p17
aS'banana.n.02'
p18
aS'meat.n.01'
p19
aS'cleaver.n.01'
p20
asS'instanceCount'
p21
I21
sS'matrix'
p22
(dp23
g10
(dp24
S'vegetable.n.01'
p25
I1
ssg8
(dp26
S'cut.v.01'
p27
I8
ssg11
(dp28
S'knife.n.01'
p29
I3
ssg18
(dp30
S'banana.n.02'
p31
I1
ssg13
(dp32
g13
I0
ssg17
(dp33
S'tomato.n.01'
p34
I1
ssg12
(dp35
g13
I1
ssg16
(dp36
S'pizza.n.01'
p37
I1
ssg19
(dp38
S'meat.n.01'
p39
I1
ssg9
(dp40
S'lemon.n.01'
p41
I1
ssg14
(dp42
S'cabbage.n.01'
p43
I1
ssg15
(dp44
S'piece.n.08'
p45
I1
ssg20
(dp46
S'cleaver.n.01'
p47
I1
sssb.