ccopy_reg
_reconstructor
p0
(cutils.eval
ConfusionMatrix
p1
c__builtin__
object
p2
Ntp3
Rp4
(dp5
S'labels'
p6
(lp7
S'cut.v.01'
p8
aS'knife.n.01'
p9
aS'banana.n.02'
p10
aS'meat.n.01'
p11
aS'cleaver.n.01'
p12
aS'fork.n.01'
p13
aS'fork.n.04'
p14
aS'cake.n.03'
p15
aS'piece.n.08'
p16
aS'slice.n.06'
p17
aS'orange.n.01'
p18
aS'cheese.n.01'
p19
aS'flesh.n.01'
p20
aS'pulp.n.02'
p21
aS'egg.n.02'
p22
aS'mushroom.n.05'
p23
asS'instanceCount'
p24
I21
sS'matrix'
p25
(dp26
g23
(dp27
S'mushroom.n.05'
p28
I1
ssg19
(dp29
S'cheese.n.01'
p30
I1
ssg8
(dp31
S'cut.v.01'
p32
I8
ssg9
(dp33
S'knife.n.01'
p34
I1
ssg10
(dp35
S'banana.n.02'
p36
I1
ssg20
(dp37
g21
I1
ssg22
(dp38
S'egg.n.02'
p39
I1
ssg14
(dp40
g14
I0
ssg17
(dp41
g17
I0
ssg13
(dp42
g14
I1
ssg18
(dp43
S'orange.n.01'
p44
I1
ssg15
(dp45
S'cake.n.03'
p46
I1
ssg11
(dp47
S'meat.n.01'
p48
I1
ssg16
(dp49
g17
I2
ssg21
(dp50
g21
I0
ssg12
(dp51
S'cleaver.n.01'
p52
I1
sssb.