ccopy_reg
_reconstructor
p0
(cutils.eval
ConfusionMatrix
p1
c__builtin__
object
p2
Ntp3
Rp4
(dp5
S'labels'
p6
(lp7
S'fill.v.01'
p8
aS'bottle.n.01'
p9
aS'fruit_juice.n.01'
p10
aS'thermos.n.01'
p11
aS'coffee.n.01'
p12
asS'instanceCount'
p13
I6
sS'matrix'
p14
(dp15
g9
(dp16
S'bottle.n.01'
p17
I1
ssg10
(dp18
S'fruit_juice.n.01'
p19
I1
ssg11
(dp20
S'thermos.n.01'
p21
I1
ssg12
(dp22
S'coffee.n.01'
p23
I1
ssg8
(dp24
S'fill.v.01'
p25
I2
sssb.