ccopy_reg
_reconstructor
p0
(cutils.eval
ConfusionMatrix
p1
c__builtin__
object
p2
Ntp3
Rp4
(dp5
S'labels'
p6
(lp7
S'pot.n.01'
p8
aS'fill.v.01'
p9
aS'water.n.06'
p10
aS'wok.n.01'
p11
aS'rice.n.01'
p12
aS'cup.n.01'
p13
aS'cola.n.02'
p14
aS'saltcellar.n.01'
p15
aS'salt.n.02'
p16
aS'bottle.n.01'
p17
aS'fruit_juice.n.01'
p18
aS'thermos.n.01'
p19
aS'coffee.n.01'
p20
aS'jar.n.01'
p21
aS'pan.n.03'
p22
aS'opening.n.01'
p23
aS'gap.n.03'
p24
aS'fill.v.09'
p25
aS'batter.n.02'
p26
aS'opening.n.10'
p27
aS'curd.n.01'
p28
aS'gravy.n.01'
p29
aS'gravy.n.02'
p30
aS'pitcher.n.02'
p31
aS'milk.n.01'
p32
aS'whiskey.n.01'
p33
aS'carafe.n.01'
p34
aS'ice.n.01'
p35
aS'ice.n.05'
p36
aS'bowl.n.01'
p37
aS'teapot.n.01'
p38
aS'kettle.n.01'
p39
aS'foam.n.01'
p40
aS'mug.n.04'
p41
aS'glass.n.02'
p42
aS'measuring_cup.n.01'
p43
aS'meal.n.03'
p44
aS'blender.n.01'
p45
aS'apple.n.01'
p46
asS'instanceCount'
p47
I59
sS'matrix'
p48
(dp49
g12
(dp50
g11
I0
sg12
I1
sg8
I0
sg10
I0
sg9
I0
ssg37
(dp51
S'fill.v.01'
p52
I0
sg35
I0
sg37
I1
sg36
I0
sg34
I0
sg33
I0
ssg26
(dp53
g24
I0
sg25
I0
sS'fill.v.01'
p54
I0
sg26
I1
sg28
I0
sg27
I0
sg23
I0
ssg46
(dp55
g46
I1
sg44
I0
sg43
I0
sg45
I0
sS'fill.v.01'
p56
I0
ssg27
(dp57
g24
I0
sg25
I0
sg54
I0
sg26
I0
sg28
I0
sg27
I0
sg23
I0
ssg9
(dp58
g12
I0
sg37
I0
sg26
I0
sg46
I0
sg27
I0
sg9
I18
sg32
I0
sg22
I0
sg40
I0
sg14
I0
sg24
I0
sg15
I0
sg17
I0
sg8
I0
sg13
I0
sg25
I0
sg43
I0
sg42
I0
sg29
I0
sg16
I0
sg30
I0
sg11
I0
sg20
I0
sg33
I0
sg23
I0
sg41
I0
sg18
I0
sg38
I0
sg45
I0
sg19
I0
sg10
I0
sg35
I0
sg39
I0
sg36
I0
sg28
I0
sg21
I0
sg34
I0
sg31
I0
sg44
I0
ssg32
(dp59
g29
I0
sg41
I0
sg30
I0
sS'fill.v.01'
p60
I0
sg31
I0
sS'jar.n.01'
p61
I0
sg40
I0
sg32
I2
sg42
I0
ssg22
(dp62
S'water.n.06'
p63
I0
sg22
I1
sg21
I0
sS'fill.v.01'
p64
I0
ssg40
(dp65
g41
I0
sg40
I1
sS'milk.n.01'
p66
I0
sg42
I0
sS'fill.v.01'
p67
I0
ssg14
(dp68
g16
I0
sS'fill.v.01'
p69
I0
sg14
I1
sg15
I0
sg13
I0
ssg24
(dp70
g24
I0
sg25
I0
sg54
I0
sg26
I0
sg28
I0
sg27
I0
sg23
I0
ssg15
(dp71
g69
I0
sg13
I0
sg14
I0
sg16
I0
sg15
I1
ssg17
(dp72
g17
I1
sg18
I0
sg19
I0
sg20
I0
sS'fill.v.01'
p73
I0
ssg8
(dp74
g11
I0
sg12
I0
sg8
I1
sg10
I0
sg9
I0
ssg13
(dp75
g16
I0
sg69
I0
sg14
I0
sg15
I0
sg13
I1
ssg25
(dp76
g24
I0
sg25
I0
sg54
I2
sg26
I0
sg28
I0
sg27
I0
sg23
I0
ssg43
(dp77
g46
I0
sg43
I1
sg44
I0
sg45
I0
sg56
I0
ssg42
(dp78
g41
I0
sg40
I0
sg66
I0
sg42
I1
sg67
I0
ssg29
(dp79
g29
I0
sg30
I1
sg60
I0
sg31
I0
sg61
I0
sg32
I0
ssg16
(dp80
g16
I1
sg69
I0
sg14
I0
sg15
I0
sg13
I0
ssg30
(dp81
g29
I0
sg30
I0
sg60
I0
sg31
I0
sg61
I0
sg32
I0
ssg11
(dp82
g11
I1
sg12
I0
sg8
I0
sg10
I0
sg9
I0
ssg20
(dp83
g17
I0
sg18
I0
sg19
I0
sg20
I1
sg73
I0
ssg33
(dp84
g52
I0
sg35
I0
sg37
I0
sg36
I0
sg34
I0
sg33
I1
ssg23
(dp85
g24
I1
sg25
I0
sg54
I0
sg26
I0
sg28
I0
sg27
I1
sg23
I0
ssg41
(dp86
g41
I1
sg40
I0
sg66
I0
sg42
I0
sg67
I0
ssg18
(dp87
g17
I0
sg18
I1
sg19
I0
sg20
I0
sg73
I0
ssg38
(dp88
S'water.n.06'
p89
I0
sg39
I0
sg38
I1
sS'fill.v.01'
p90
I0
ssg45
(dp91
g44
I0
sg43
I0
sg56
I0
sg46
I0
sg45
I1
ssg19
(dp92
g17
I0
sg18
I0
sg19
I1
sg20
I0
sg73
I0
ssg10
(dp93
g22
I0
sg38
I0
sg11
I0
sg12
I0
sg8
I0
sg10
I4
sg9
I0
sg39
I0
sg21
I0
ssg35
(dp94
g52
I0
sg35
I0
sg37
I0
sg36
I1
sg34
I0
sg33
I0
ssg39
(dp95
g89
I0
sg39
I1
sg38
I0
sg90
I0
ssg36
(dp96
g52
I0
sg35
I0
sg37
I0
sg36
I0
sg34
I0
sg33
I0
ssg28
(dp97
g24
I0
sg25
I0
sg54
I0
sg26
I0
sg28
I1
sg27
I0
sg23
I0
ssg21
(dp98
g29
I0
sg22
I0
sg30
I0
sg63
I0
sg64
I0
sg31
I0
sg21
I2
sg32
I0
ssg34
(dp99
g52
I0
sg35
I0
sg37
I0
sg36
I0
sg34
I1
sg33
I0
ssg31
(dp100
g29
I0
sg30
I0
sg60
I0
sg31
I1
sg61
I0
sg32
I0
ssg44
(dp101
g46
I0
sg43
I0
sg56
I0
sg45
I0
sg44
I1
sssb.