ccopy_reg
_reconstructor
p0
(cutils.eval
ConfusionMatrix
p1
c__builtin__
object
p2
Ntp3
Rp4
(dp5
S'labels'
p6
(lp7
S'stir.v.01'
p8
aS'champagne.n.01'
p9
aS'stir.v.08'
p10
aS'tomato.n.01'
p11
aS'apple.n.01'
p12
aS'vegetable.n.01'
p13
aS'salt.n.02'
p14
aS'juice.n.01'
p15
aS'fruit_juice.n.01'
p16
aS'whiskey.n.01'
p17
aS'water.n.06'
p18
aS'coffee.n.01'
p19
aS'coca_cola.n.01'
p20
aS'cream.n.02'
p21
aS'tea.n.01'
p22
aS'milk.n.01'
p23
aS'sugar.n.01'
p24
aS'cappuccino.n.01'
p25
aS'banana.n.02'
p26
aS'peanut.n.04'
p27
aS'peanut.n.03'
p28
aS'wine.n.01'
p29
aS'egg.n.02'
p30
aS'butter.n.01'
p31
asS'instanceCount'
p32
I160
sS'matrix'
p33
(dp34
g29
(dp35
S'vegetable.n.01'
p36
I0
sg26
I0
sg29
I4
sg30
I0
sg31
I0
sg25
I0
sS'cream.n.02'
p37
I0
sS'tomato.n.01'
p38
I0
sS'tea.n.01'
p39
I0
sS'stir.v.08'
p40
I0
sS'champagne.n.01'
p41
I0
sS'apple.n.01'
p42
I0
sS'stir.v.01'
p43
I0
sg28
I0
sg27
I0
sg23
I0
sg24
I0
ssg31
(dp44
S'salt.n.02'
p45
I0
sS'vegetable.n.01'
p46
I0
sS'fruit_juice.n.01'
p47
I0
sS'banana.n.02'
p48
I0
sS'wine.n.01'
p49
I0
sg30
I0
sg31
I4
sS'cappuccino.n.01'
p50
I0
sg38
I0
sS'juice.n.01'
p51
I0
sg41
I0
sS'stir.v.08'
p52
I0
sS'apple.n.01'
p53
I0
sS'stir.v.01'
p54
I0
sS'peanut.n.03'
p55
I0
sS'peanut.n.04'
p56
I0
sS'milk.n.01'
p57
I0
sS'sugar.n.01'
p58
I0
ssg10
(dp59
g29
I0
sg31
I0
sg10
I34
sg12
I0
sg8
I6
sg20
I0
sg23
I0
sg30
I0
sg11
I0
sg17
I0
sg14
I0
sg26
I0
sg19
I0
sg21
I0
sg16
I0
sg22
I0
sg13
I0
sg25
I0
sg18
I0
sg9
I0
sg28
I0
sg27
I0
sg15
I0
sg24
I0
ssg12
(dp60
g18
I0
sg14
I0
sg13
I0
sS'peanut.n.03'
p61
I0
sS'wine.n.01'
p62
I0
sS'egg.n.02'
p63
I0
sg11
I0
sS'coffee.n.01'
p64
I0
sg16
I0
sg9
I0
sg10
I0
sS'butter.n.01'
p65
I0
sg12
I4
sg8
I0
sS'coca_cola.n.01'
p66
I0
sS'peanut.n.04'
p67
I0
sg15
I0
sg17
I0
ssg8
(dp68
g29
I0
sg31
I0
sg10
I0
sg12
I0
sg8
I40
sg20
I0
sg23
I0
sg30
I0
sg11
I0
sg17
I0
sg14
I0
sg26
I0
sg19
I0
sg21
I0
sg16
I0
sg22
I0
sg13
I0
sg25
I0
sg18
I0
sg9
I0
sg28
I0
sg27
I0
sg15
I0
sg24
I0
ssg20
(dp69
S'salt.n.02'
p70
I0
sS'fruit_juice.n.01'
p71
I0
sS'banana.n.02'
p72
I0
sS'milk.n.01'
p73
I0
sg21
I0
sS'cappuccino.n.01'
p74
I0
sg19
I0
sS'water.n.06'
p75
I0
sS'whiskey.n.01'
p76
I0
sS'stir.v.08'
p77
I0
sS'vegetable.n.01'
p78
I0
sS'apple.n.01'
p79
I0
sS'stir.v.01'
p80
I0
sg20
I4
sS'juice.n.01'
p81
I0
sg22
I0
sS'sugar.n.01'
p82
I0
ssg23
(dp83
S'coca_cola.n.01'
p84
I0
sg26
I0
sg29
I0
sS'coffee.n.01'
p85
I0
sg31
I0
sg25
I0
sg37
I0
sS'water.n.06'
p86
I0
sg39
I0
sg40
I0
sg30
I0
sg43
I0
sg28
I0
sg27
I0
sg23
I4
sS'whiskey.n.01'
p87
I0
sg24
I0
ssg30
(dp88
g45
I0
sg46
I0
sg47
I0
sg48
I0
sg49
I0
sg30
I4
sg31
I0
sg50
I0
sg38
I0
sg51
I0
sg41
I0
sg52
I0
sg53
I0
sg54
I0
sg55
I0
sg56
I0
sg57
I0
sg58
I0
ssg11
(dp89
g18
I0
sg14
I0
sg13
I0
sS'banana.n.02'
p90
I0
sS'wine.n.01'
p91
I0
sS'egg.n.02'
p92
I0
sg11
I4
sS'cappuccino.n.01'
p93
I0
sg16
I0
sg9
I0
sg10
I0
sS'butter.n.01'
p94
I0
sg12
I0
sg8
I0
sS'peanut.n.03'
p95
I0
sS'peanut.n.04'
p96
I0
sg15
I0
sg17
I0
ssg17
(dp97
g18
I0
sg14
I0
sg13
I0
sg20
I0
sg73
I0
sg21
I0
sg11
I0
sg19
I0
sg16
I0
sg9
I0
sg10
I0
sg12
I0
sg8
I0
sg15
I0
sg17
I4
sg22
I0
sg82
I0
ssg14
(dp98
g18
I0
sg14
I4
sg13
I0
sg21
I0
sg11
I0
sg19
I0
sg16
I0
sg22
I0
sg9
I0
sg10
I0
sg63
I0
sg65
I0
sg12
I0
sg8
I0
sg20
I0
sg15
I0
sg17
I0
ssg26
(dp99
S'coca_cola.n.01'
p100
I0
sg26
I4
sg29
I0
sS'coffee.n.01'
p101
I0
sg30
I0
sg31
I0
sg25
I0
sg37
I0
sg38
I0
sg23
I0
sg40
I0
sg41
I0
sg43
I0
sg28
I0
sg27
I0
sg39
I0
sg24
I0
ssg19
(dp102
g70
I0
sg71
I0
sg72
I0
sg73
I0
sg21
I0
sg74
I0
sg19
I4
sg75
I0
sg76
I0
sg77
I0
sg78
I0
sg79
I0
sg80
I0
sg20
I0
sg81
I0
sg22
I0
sg82
I0
ssg21
(dp103
g70
I0
sg71
I0
sg28
I0
sg26
I0
sg29
I0
sg23
I0
sg19
I0
sg25
I0
sg21
I4
sg75
I0
sg76
I0
sg77
I0
sg80
I0
sg20
I0
sg27
I0
sg81
I0
sg22
I0
sg24
I0
ssg16
(dp104
g18
I0
sg14
I0
sg16
I0
sg21
I0
sg11
I0
sg19
I0
sg13
I0
sg22
I0
sg9
I0
sg10
I0
sg63
I0
sg65
I0
sg12
I0
sg8
I0
sg20
I0
sg15
I0
sg17
I0
ssg22
(dp105
g70
I0
sg71
I0
sg28
I0
sg26
I0
sg29
I0
sg23
I0
sg21
I0
sg25
I0
sg19
I0
sg75
I0
sg81
I0
sg77
I0
sg80
I0
sg20
I0
sg27
I0
sg22
I4
sg76
I0
sg24
I0
ssg13
(dp106
g18
I0
sg14
I0
sg13
I4
sg61
I0
sg62
I0
sg63
I0
sg11
I0
sg64
I0
sg16
I0
sg9
I0
sg10
I0
sg65
I0
sg12
I0
sg8
I0
sg66
I0
sg67
I0
sg15
I0
sg17
I0
ssg25
(dp107
g100
I0
sg26
I0
sg29
I0
sg101
I0
sg30
I0
sg31
I0
sg25
I4
sg37
I0
sg38
I0
sg23
I0
sg40
I0
sg41
I0
sg43
I0
sg28
I0
sg27
I0
sg39
I0
sg24
I0
ssg18
(dp108
g14
I0
sg13
I0
sg73
I0
sg16
I0
sg11
I0
sg19
I0
sg18
I4
sg22
I0
sg9
I0
sg10
I0
sg21
I0
sg12
I0
sg8
I0
sg20
I0
sg15
I0
sg17
I0
sg82
I0
ssg9
(dp109
g18
I0
sg14
I0
sg13
I0
sg90
I0
sg91
I0
sg92
I0
sg11
I0
sg93
I0
sg16
I0
sg9
I4
sg10
I0
sg94
I0
sg12
I0
sg8
I0
sg95
I0
sg96
I0
sg15
I0
sg17
I0
ssg28
(dp110
g36
I0
sg26
I0
sg29
I0
sg30
I0
sg31
I0
sg25
I0
sg37
I0
sg38
I0
sg23
I0
sg40
I0
sg41
I0
sg42
I0
sg43
I0
sg28
I0
sg27
I0
sg39
I0
sg24
I0
ssg27
(dp111
g36
I0
sg26
I0
sg29
I0
sg30
I0
sg31
I0
sg25
I0
sg37
I0
sg38
I0
sg23
I0
sg40
I0
sg41
I0
sg42
I0
sg43
I0
sg28
I4
sg27
I0
sg39
I0
sg24
I0
ssg15
(dp112
g18
I0
sg14
I0
sg13
I0
sg21
I0
sg11
I0
sg19
I0
sg16
I4
sg22
I0
sg9
I0
sg10
I0
sg63
I0
sg65
I0
sg12
I0
sg8
I0
sg20
I0
sg15
I0
sg17
I0
ssg24
(dp113
g84
I0
sg26
I0
sg29
I0
sg85
I0
sg31
I0
sg25
I0
sg37
I0
sg86
I0
sg39
I0
sg40
I0
sg30
I0
sg43
I0
sg28
I0
sg27
I0
sg23
I0
sg87
I0
sg24
I4
sssb.