ccopy_reg
_reconstructor
p0
(cutils.eval
ConfusionMatrix
p1
c__builtin__
object
p2
Ntp3
Rp4
(dp5
S'labels'
p6
(lp7
S'stir.v.08'
p8
aS'peanut.n.04'
p9
aS'peanut.n.03'
p10
aS'stir.v.01'
p11
aS'wine.n.01'
p12
aS'egg.n.02'
p13
aS'butter.n.01'
p14
aS'champagne.n.01'
p15
aS'tomato.n.01'
p16
aS'apple.n.01'
p17
aS'vegetable.n.01'
p18
asS'instanceCount'
p19
I16
sS'matrix'
p20
(dp21
g18
(dp22
S'vegetable.n.01'
p23
I1
ssg12
(dp24
S'wine.n.01'
p25
I1
ssg13
(dp26
S'egg.n.02'
p27
I1
ssg14
(dp28
S'butter.n.01'
p29
I1
ssg15
(dp30
S'champagne.n.01'
p31
I1
ssg8
(dp32
S'stir.v.01'
p33
I2
sS'stir.v.08'
p34
I4
ssg17
(dp35
S'apple.n.01'
p36
I1
ssg11
(dp37
S'stir.v.01'
p38
I2
ssg10
(dp39
g10
I0
ssg9
(dp40
g10
I1
ssg16
(dp41
S'tomato.n.01'
p42
I1
sssb.