ccopy_reg
_reconstructor
p0
(cutils.eval
ConfusionMatrix
p1
c__builtin__
object
p2
Ntp3
Rp4
(dp5
S'labels'
p6
(lp7
S'stir.v.01'
p8
aS'champagne.n.01'
p9
aS'stir.v.08'
p10
aS'tomato.n.01'
p11
aS'apple.n.01'
p12
aS'vegetable.n.01'
p13
aS'salt.n.02'
p14
aS'juice.n.01'
p15
aS'fruit_juice.n.01'
p16
aS'whiskey.n.01'
p17
aS'water.n.06'
p18
asS'instanceCount'
p19
I16
sS'matrix'
p20
(dp21
g18
(dp22
S'water.n.06'
p23
I1
ssg14
(dp24
S'salt.n.02'
p25
I1
ssg13
(dp26
S'vegetable.n.01'
p27
I1
ssg11
(dp28
S'tomato.n.01'
p29
I1
ssg16
(dp30
g16
I0
ssg9
(dp31
S'champagne.n.01'
p32
I1
ssg10
(dp33
S'stir.v.08'
p34
I4
ssg12
(dp35
S'apple.n.01'
p36
I1
ssg8
(dp37
S'stir.v.01'
p38
I4
ssg15
(dp39
g16
I1
ssg17
(dp40
S'whiskey.n.01'
p41
I1
sssb.