ccopy_reg
_reconstructor
p0
(cutils.eval
ConfusionMatrix
p1
c__builtin__
object
p2
Ntp3
Rp4
(dp5
S'labels'
p6
(lp7
S'stir.v.01'
p8
aS'milk.n.01'
p9
aS'stir.v.08'
p10
aS'sugar.n.01'
p11
aS'cappuccino.n.01'
p12
aS'banana.n.02'
p13
aS'peanut.n.04'
p14
aS'peanut.n.03'
p15
aS'wine.n.01'
p16
aS'egg.n.02'
p17
aS'butter.n.01'
p18
asS'instanceCount'
p19
I16
sS'matrix'
p20
(dp21
g13
(dp22
S'banana.n.02'
p23
I1
ssg16
(dp24
S'wine.n.01'
p25
I1
ssg17
(dp26
S'egg.n.02'
p27
I1
ssg18
(dp28
S'butter.n.01'
p29
I1
ssg12
(dp30
S'cappuccino.n.01'
p31
I1
ssg10
(dp32
S'stir.v.01'
p33
I1
sS'stir.v.08'
p34
I4
ssg8
(dp35
S'stir.v.01'
p36
I3
ssg15
(dp37
g15
I0
ssg14
(dp38
g15
I1
ssg9
(dp39
S'milk.n.01'
p40
I1
ssg11
(dp41
S'sugar.n.01'
p42
I1
sssb.