ccopy_reg
_reconstructor
p0
(cutils.eval
ConfusionMatrix
p1
c__builtin__
object
p2
Ntp3
Rp4
(dp5
S'labels'
p6
(lp7
S'stir.v.08'
p8
aS'apple.n.01'
p9
aS'vegetable.n.01'
p10
aS'salt.n.02'
p11
aS'stir.v.01'
p12
aS'juice.n.01'
p13
aS'fruit_juice.n.01'
p14
aS'whiskey.n.01'
p15
aS'water.n.06'
p16
aS'coffee.n.01'
p17
aS'coca_cola.n.01'
p18
asS'instanceCount'
p19
I16
sS'matrix'
p20
(dp21
g16
(dp22
S'water.n.06'
p23
I1
ssg11
(dp24
S'salt.n.02'
p25
I1
ssg10
(dp26
S'vegetable.n.01'
p27
I1
ssg17
(dp28
S'coffee.n.01'
p29
I1
ssg14
(dp30
g14
I0
ssg15
(dp31
S'whiskey.n.01'
p32
I1
ssg8
(dp33
S'stir.v.08'
p34
I3
ssg9
(dp35
S'apple.n.01'
p36
I1
ssg12
(dp37
S'stir.v.01'
p38
I5
ssg18
(dp39
S'coca_cola.n.01'
p40
I1
ssg13
(dp41
g14
I1
sssb.