ccopy_reg
_reconstructor
p0
(cutils.eval
ConfusionMatrix
p1
c__builtin__
object
p2
Ntp3
Rp4
(dp5
S'labels'
p6
(lp7
S'put.v.01'
p8
aS'invest.v.01'
p9
aS'pan.n.03'
p10
aS'pan.n.01'
p11
aS'chicken.n.01'
p12
aS'slice.v.03'
p13
aS'slice.v.02'
p14
aS'onion.n.01'
p15
aS'pepper.n.04'
p16
aS'cheese.n.01'
p17
aS'cut.v.01'
p18
aS'swerve.v.01'
p19
aS'bacon.n.01'
p20
aS'bacon.n.03'
p21
aS'meat.n.01'
p22
aS'kernel.n.01'
p23
aS'cleaver.n.01'
p24
aS'bread.n.01'
p25
aS'knife.n.01'
p26
aS'lemon.n.01'
p27
aS'lemon.n.04'
p28
aS'pizza.n.01'
p29
aS'piece.n.08'
p30
aS'slice.n.01'
p31
aS'banana.n.02'
p32
aS'cake.n.03'
p33
aS'patty.n.01'
p34
aS'whipped_cream.n.01'
p35
aS'beef.n.02'
p36
aS'beef.n.01'
p37
aS'plate.n.04'
p38
aS'plate.n.12'
p39
aS'fill.v.01'
p40
aS'fill.v.09'
p41
aS'foam.n.01'
p42
aS'mug.n.04'
p43
aS'flesh.n.01'
p44
aS'meet.v.04'
p45
aS'kettle.n.01'
p46
aS'kettle.n.02'
p47
aS'water.n.06'
p48
aS'water.n.03'
p49
aS'frame.v.04'
p50
aS'pepper.n.03'
p51
aS'salt.n.02'
p52
aS'egg.n.02'
p53
aS'testis.n.01'
p54
aS'cabbage.n.01'
p55
aS'opening.n.01'
p56
aS'gap.n.05'
p57
aS'batter.n.02'
p58
aS'pitcher.n.02'
p59
aS'pitcher.n.03'
p60
aS'milk.n.01'
p61
aS'milk.n.04'
p62
asS'instanceCount'
p63
I228
sS'matrix'
p64
(dp65
g39
(dp66
g39
I0
sg37
I0
sg36
I0
sS'bread.n.01'
p67
I0
sS'swerve.v.01'
p68
I0
sg42
I0
sS'pan.n.01'
p69
I0
sg47
I0
sS'pan.n.03'
p70
I0
sS'cut.v.01'
p71
I0
sg50
I0
sg41
I0
sS'cabbage.n.01'
p72
I0
sg53
I0
sg54
I0
sg40
I0
sS'lemon.n.04'
p73
I0
sS'meat.n.01'
p74
I0
sg52
I0
sS'cleaver.n.01'
p75
I0
sS'slice.v.02'
p76
I0
sS'slice.v.03'
p77
I0
sS'knife.n.01'
p78
I0
sg32
I0
sg38
I0
sS'pepper.n.04'
p79
I0
sg45
I0
sg51
I0
sg35
I0
sg34
I0
sg30
I0
sg43
I0
sg44
I0
sg49
I0
sg31
I0
sg48
I0
sS'put.v.01'
p80
I0
sS'pizza.n.01'
p81
I0
sS'invest.v.01'
p82
I0
sg46
I0
sg33
I0
sS'lemon.n.01'
p83
I0
sS'onion.n.01'
p84
I0
sS'kernel.n.01'
p85
I0
ssg9
(dp86
g39
I0
sg9
I0
sg12
I0
sg37
I0
sg17
I0
sg54
I0
sg25
I0
sg58
I0
sg62
I0
sg19
I0
sg40
I0
sg61
I0
sg11
I0
sg10
I0
sg18
I0
sg50
I0
sg41
I0
sg55
I0
sg53
I0
sg36
I0
sg21
I0
sg20
I0
sg34
I0
sg60
I0
sg59
I0
sg46
I0
sg24
I0
sg33
I0
sg52
I0
sg22
I0
sg14
I0
sg13
I0
sg26
I0
sg32
I0
sg38
I0
sg16
I0
sg45
I0
sg51
I0
sg42
I0
sg35
I0
sg30
I0
sg56
I0
sg43
I0
sg44
I0
sg49
I0
sg31
I0
sg48
I0
sg8
I0
sg29
I0
sg47
I0
sg28
I0
sg23
I0
sg57
I0
sg27
I0
sg15
I0
ssg12
(dp87
g9
I0
sg12
I4
sg17
I0
sS'testis.n.01'
p88
I0
sg25
I0
sg58
I0
sg62
I0
sg19
I0
sg61
I0
sg11
I0
sg10
I0
sg18
I0
sS'frame.v.04'
p89
I0
sS'fill.v.09'
p90
I0
sg55
I0
sS'egg.n.02'
p91
I0
sg21
I0
sg20
I0
sS'fill.v.01'
p92
I0
sg60
I0
sg59
I0
sS'kettle.n.01'
p93
I0
sg24
I0
sS'salt.n.02'
p94
I0
sg22
I0
sg14
I0
sg13
I0
sg26
I0
sg16
I0
sS'meet.v.04'
p95
I0
sS'pepper.n.03'
p96
I0
sg57
I0
sg56
I0
sS'water.n.03'
p97
I0
sS'water.n.06'
p98
I0
sg8
I0
sg29
I0
sS'kettle.n.02'
p99
I0
sg28
I0
sg23
I0
sg27
I0
sg15
I0
ssg37
(dp100
g39
I0
sg37
I0
sg82
I0
sg67
I0
sg68
I0
sg34
I0
sg69
I0
sg71
I0
sg70
I0
sg42
I0
sg50
I0
sg41
I0
sg72
I0
sg53
I0
sg36
I0
sg54
I0
sg40
I0
sg73
I0
sg74
I0
sg52
I0
sg75
I0
sg76
I0
sg77
I0
sg78
I0
sg32
I0
sg38
I0
sg79
I0
sg45
I0
sg51
I0
sg35
I0
sg30
I0
sg43
I0
sg44
I0
sg49
I0
sg31
I0
sg48
I0
sg80
I0
sg81
I0
sg47
I0
sg46
I0
sg33
I0
sg83
I0
sg84
I0
sg85
I0
ssg17
(dp101
g17
I4
sg12
I0
sg9
I0
sg25
I0
sg58
I0
sg62
I0
sg19
I0
sg61
I0
sg11
I0
sg10
I0
sg18
I0
sg90
I0
sg55
I0
sg21
I0
sg20
I0
sg92
I0
sg60
I0
sg59
I0
sg24
I0
sg22
I0
sg14
I0
sg13
I0
sg26
I0
sS'banana.n.02'
p102
I0
sg16
I0
sg57
I0
sS'piece.n.08'
p103
I0
sg56
I0
sg97
I0
sS'slice.n.01'
p104
I0
sg98
I0
sg8
I0
sg29
I0
sg28
I0
sg23
I0
sg27
I0
sg15
I0
ssg54
(dp105
g39
I0
sg37
I0
sg82
I0
sS'batter.n.02'
p106
I0
sS'milk.n.04'
p107
I0
sS'cabbage.n.01'
p108
I0
sg34
I0
sS'milk.n.01'
p109
I0
sS'pan.n.01'
p110
I0
sS'cut.v.01'
p111
I0
sS'pan.n.03'
p112
I0
sg42
I0
sg50
I0
sg41
I0
sg53
I0
sg36
I0
sg54
I0
sg40
I0
sS'pitcher.n.03'
p113
I0
sS'pitcher.n.02'
p114
I0
sg52
I0
sg76
I0
sg77
I0
sg78
I0
sg32
I0
sg38
I0
sg79
I0
sg45
I0
sg51
I0
sS'chicken.n.01'
p115
I0
sg35
I0
sS'swerve.v.01'
p116
I0
sg30
I0
sS'opening.n.01'
p117
I0
sg43
I0
sg44
I0
sg49
I0
sg31
I0
sg48
I0
sg80
I0
sg81
I0
sg47
I0
sg46
I0
sg33
I0
sS'gap.n.05'
p118
I0
sg84
I0
ssg25
(dp119
S'plate.n.12'
p120
I0
sg9
I0
sg12
I0
sS'beef.n.01'
p121
I0
sg17
I0
sg25
I4
sS'batter.n.02'
p122
I0
sS'milk.n.04'
p123
I0
sg19
I0
sS'fill.v.01'
p124
I0
sS'milk.n.01'
p125
I0
sg11
I0
sg10
I0
sg18
I0
sS'fill.v.09'
p126
I0
sS'beef.n.02'
p127
I0
sg21
I0
sg20
I0
sS'patty.n.01'
p128
I0
sS'pitcher.n.03'
p129
I0
sS'pitcher.n.02'
p130
I0
sg24
I0
sS'cake.n.03'
p131
I0
sg22
I0
sg14
I0
sg13
I0
sg26
I0
sS'banana.n.02'
p132
I0
sS'plate.n.04'
p133
I0
sg16
I0
sS'whipped_cream.n.01'
p134
I0
sS'piece.n.08'
p135
I0
sS'opening.n.01'
p136
I0
sS'slice.n.01'
p137
I0
sg8
I0
sg29
I0
sg28
I0
sg23
I0
sS'gap.n.05'
p138
I0
sg27
I0
sg15
I0
ssg58
(dp139
S'invest.v.01'
p140
I0
sS'chicken.n.01'
p141
I0
sS'cheese.n.01'
p142
I0
sS'testis.n.01'
p143
I0
sS'bread.n.01'
p144
I0
sg58
I4
sg62
I0
sS'swerve.v.01'
p145
I0
sS'foam.n.01'
p146
I0
sg61
I0
sS'pan.n.01'
p147
I0
sS'pan.n.03'
p148
I0
sS'cut.v.01'
p149
I0
sS'frame.v.04'
p150
I0
sg90
I0
sS'egg.n.02'
p151
I0
sS'bacon.n.03'
p152
I0
sS'bacon.n.01'
p153
I0
sg92
I0
sg60
I0
sg59
I0
sS'meat.n.01'
p154
I0
sS'salt.n.02'
p155
I0
sS'cleaver.n.01'
p156
I0
sS'slice.v.02'
p157
I0
sS'slice.v.03'
p158
I0
sg55
I0
sS'knife.n.01'
p159
I0
sS'pepper.n.04'
p160
I0
sS'meet.v.04'
p161
I0
sS'pepper.n.03'
p162
I0
sg57
I0
sg56
I0
sS'mug.n.04'
p163
I0
sS'flesh.n.01'
p164
I0
sg97
I0
sg98
I0
sS'put.v.01'
p165
I0
sS'kettle.n.02'
p166
I0
sS'kettle.n.01'
p167
I0
sS'kernel.n.01'
p168
I0
sS'onion.n.01'
p169
I0
ssg62
(dp170
g140
I0
sg141
I0
sg142
I0
sg143
I0
sg144
I0
sg58
I0
sg62
I0
sg145
I0
sg146
I0
sg61
I0
sg147
I0
sg148
I0
sg149
I0
sg150
I0
sg90
I0
sg151
I0
sg152
I0
sg153
I0
sg92
I0
sg60
I0
sg59
I0
sg154
I0
sg155
I0
sg156
I0
sg157
I0
sg158
I0
sg55
I0
sg159
I0
sg160
I0
sg161
I0
sg162
I0
sg57
I0
sg56
I0
sg163
I0
sg164
I0
sg97
I0
sg98
I0
sg165
I0
sg166
I0
sg167
I0
sg168
I0
sg169
I0
ssg19
(dp171
g120
I0
sg9
I0
sg19
I0
sg121
I0
sg17
I0
sg143
I0
sg25
I0
sg58
I0
sg62
I0
sg12
I0
sS'fill.v.01'
p172
I0
sg61
I0
sg11
I0
sg10
I0
sg18
I0
sg150
I0
sS'fill.v.09'
p173
I0
sg55
I0
sg151
I0
sg127
I0
sg21
I0
sg20
I0
sg128
I0
sg60
I0
sg59
I0
sg167
I0
sg24
I0
sg131
I0
sg155
I0
sg22
I0
sg14
I0
sg13
I0
sg26
I0
sg132
I0
sg133
I0
sg16
I0
sg161
I0
sg162
I0
sS'foam.n.01'
p174
I0
sg134
I0
sg135
I0
sg56
I0
sS'mug.n.04'
p175
I0
sS'flesh.n.01'
p176
I0
sg97
I0
sg137
I0
sg98
I0
sg8
I0
sg29
I0
sg166
I0
sg28
I0
sg23
I0
sg57
I0
sg27
I0
sg15
I0
ssg40
(dp177
g39
I0
sg37
I0
sg82
I0
sg152
I0
sg144
I0
sg142
I0
sg58
I0
sg62
I0
sS'swerve.v.01'
p178
I0
sg40
I0
sg61
I0
sS'pan.n.01'
p179
I0
sS'cut.v.01'
p180
I0
sS'pan.n.03'
p181
I0
sg42
I0
sg50
I0
sg41
I12
sg55
I0
sg53
I0
sg36
I0
sg54
I0
sg153
I0
sg34
I0
sg60
I0
sg59
I0
sS'lemon.n.04'
p182
I0
sg154
I0
sg52
I0
sg156
I0
sg76
I0
sg77
I0
sg78
I0
sg32
I0
sg38
I0
sg79
I0
sg45
I4
sg51
I0
sg141
I0
sg35
I0
sg30
I0
sg56
I0
sg43
I0
sg44
I0
sg49
I0
sg31
I0
sg48
I0
sg80
I0
sg81
I0
sg47
I0
sg46
I0
sg33
I0
sg57
I0
sS'lemon.n.01'
p183
I0
sg84
I0
sg168
I0
ssg61
(dp184
g140
I0
sg141
I0
sg142
I0
sg143
I0
sg144
I0
sg58
I0
sg62
I4
sg145
I0
sg146
I0
sg61
I0
sg147
I0
sg148
I0
sg149
I0
sg150
I0
sg90
I0
sg151
I0
sg152
I0
sg153
I0
sg92
I0
sg60
I0
sg59
I0
sg154
I0
sg155
I0
sg156
I0
sg157
I0
sg158
I0
sg55
I0
sg159
I0
sg160
I0
sg161
I0
sg162
I0
sg57
I0
sg56
I0
sg163
I0
sg164
I0
sg97
I0
sg98
I0
sg165
I0
sg166
I0
sg167
I0
sg168
I0
sg169
I0
ssg11
(dp185
g120
I0
sg9
I0
sg12
I0
sg121
I0
sg17
I0
sg143
I0
sg25
I0
sg58
I0
sg62
I0
sg19
I0
sg172
I0
sg61
I0
sg11
I4
sg10
I0
sg18
I0
sg150
I0
sg173
I0
sg55
I0
sg151
I0
sg127
I0
sg21
I0
sg20
I0
sg128
I0
sg60
I0
sg59
I0
sg167
I0
sg24
I0
sg131
I0
sg155
I0
sg22
I0
sg14
I0
sg13
I0
sg26
I0
sg132
I0
sg133
I0
sg16
I0
sg161
I0
sg162
I0
sg174
I0
sg134
I0
sg135
I0
sg56
I0
sg175
I0
sg176
I0
sg97
I0
sg137
I0
sg98
I0
sg8
I0
sg29
I0
sg166
I0
sg28
I0
sg23
I0
sg57
I0
sg27
I0
sg15
I0
ssg10
(dp186
g120
I0
sg9
I0
sg12
I0
sg121
I0
sg17
I0
sg88
I0
sg25
I0
sg58
I0
sg62
I0
sg19
I0
sg172
I0
sg61
I0
sg11
I8
sg10
I0
sg18
I0
sg89
I0
sg173
I0
sg55
I0
sg91
I0
sg127
I0
sg21
I0
sg20
I0
sg128
I0
sg60
I0
sg59
I0
sg93
I0
sg24
I0
sg131
I0
sg94
I0
sg22
I0
sg14
I0
sg13
I0
sg26
I0
sg132
I0
sg133
I0
sg16
I0
sg95
I0
sg96
I0
sg174
I0
sg134
I0
sg135
I0
sg56
I0
sg175
I0
sg176
I0
sg97
I0
sg137
I0
sg98
I0
sg8
I0
sg29
I0
sg99
I0
sg28
I0
sg23
I0
sg57
I0
sg27
I0
sg15
I0
ssg18
(dp187
g120
I0
sg9
I0
sg12
I0
sg121
I0
sg17
I0
sg143
I0
sg25
I0
sg58
I0
sg62
I0
sg19
I20
sg172
I0
sg61
I0
sg11
I0
sg10
I0
sg18
I0
sg150
I0
sg173
I0
sg55
I0
sg151
I0
sg127
I0
sg21
I0
sg20
I0
sg128
I0
sg60
I0
sg59
I0
sg167
I0
sg24
I0
sg131
I0
sg155
I0
sg22
I0
sg14
I0
sg13
I0
sg26
I0
sg132
I0
sg133
I0
sg16
I0
sg161
I0
sg162
I0
sg174
I0
sg134
I0
sg135
I0
sg56
I0
sg175
I0
sg176
I0
sg97
I0
sg137
I0
sg98
I0
sg8
I0
sg29
I0
sg166
I0
sg28
I0
sg23
I0
sg57
I0
sg27
I0
sg15
I0
ssg50
(dp188
g39
I0
sg37
I0
sg82
I0
sg106
I0
sg107
I0
sg108
I0
sg34
I0
sg109
I0
sg110
I0
sg111
I0
sg112
I0
sg42
I0
sg50
I0
sg41
I0
sg53
I0
sg36
I0
sg54
I0
sg40
I0
sg113
I0
sg114
I0
sg52
I0
sg76
I0
sg77
I0
sg78
I0
sg32
I0
sg38
I0
sg79
I0
sg45
I0
sg51
I0
sg115
I0
sg35
I0
sg116
I0
sg30
I0
sg117
I0
sg43
I0
sg44
I0
sg49
I0
sg31
I0
sg48
I0
sg80
I0
sg81
I0
sg47
I0
sg46
I0
sg33
I0
sg118
I0
sg84
I0
ssg41
(dp189
g39
I0
sg37
I0
sg36
I0
sg152
I0
sg180
I0
sg144
I0
sg142
I0
sg58
I0
sg62
I0
sg178
I0
sg34
I0
sg61
I0
sg179
I0
sg47
I0
sg181
I0
sg42
I0
sg50
I0
sg41
I4
sg55
I0
sg53
I0
sg54
I0
sg153
I0
sg40
I0
sg60
I0
sg59
I0
sg182
I0
sg154
I0
sg52
I0
sg156
I0
sg76
I0
sg77
I0
sg78
I0
sg32
I0
sg38
I0
sg79
I0
sg45
I0
sg51
I0
sg141
I0
sg35
I0
sg30
I0
sg56
I0
sg43
I0
sg44
I0
sg49
I0
sg31
I0
sg48
I0
sg80
I0
sg81
I0
sg82
I0
sg46
I0
sg33
I0
sg57
I0
sg183
I0
sg84
I0
sg168
I0
ssg55
(dp190
S'plate.n.12'
p191
I0
sg140
I0
sg141
I0
sg142
I0
sg143
I0
sg58
I0
sg62
I0
sg145
I0
sg146
I0
sg61
I0
sg147
I0
sg148
I0
sg149
I0
sg150
I0
sg90
I0
sg151
I0
sS'whipped_cream.n.01'
p192
I0
sS'beef.n.02'
p193
I0
sg152
I0
sg153
I0
sg92
I0
sg60
I0
sg59
I0
sg155
I0
sg157
I0
sg158
I0
sg55
I4
sS'plate.n.04'
p194
I0
sg160
I0
sg161
I0
sg162
I0
sg57
I0
sS'patty.n.01'
p195
I0
sg56
I0
sg163
I0
sg164
I0
sg97
I0
sg98
I0
sg165
I0
sg166
I0
sg167
I0
sS'cake.n.03'
p196
I0
sS'beef.n.01'
p197
I0
sg169
I0
ssg53
(dp198
g39
I0
sg37
I0
sg82
I0
sg106
I0
sg107
I0
sg108
I0
sg34
I0
sg109
I0
sg110
I0
sg111
I0
sg112
I0
sg42
I0
sg50
I0
sg41
I0
sg53
I0
sg36
I0
sg54
I4
sg40
I0
sg113
I0
sg114
I0
sg52
I0
sg76
I0
sg77
I0
sg78
I0
sg32
I0
sg38
I0
sg79
I0
sg45
I0
sg51
I0
sg115
I0
sg35
I0
sg116
I0
sg30
I0
sg117
I0
sg43
I0
sg44
I0
sg49
I0
sg31
I0
sg48
I0
sg80
I0
sg81
I0
sg47
I0
sg46
I0
sg33
I0
sg118
I0
sg84
I0
ssg36
(dp199
g39
I0
sg37
I4
sg36
I0
sg71
I0
sg67
I0
sg68
I0
sg34
I0
sg69
I0
sg47
I0
sg70
I0
sg42
I0
sg50
I0
sg41
I0
sg72
I0
sg53
I0
sg54
I0
sg40
I0
sg73
I0
sg74
I0
sg52
I0
sg75
I0
sg76
I0
sg77
I0
sg78
I0
sg32
I0
sg38
I0
sg79
I0
sg45
I0
sg51
I0
sg35
I0
sg30
I0
sg43
I0
sg44
I0
sg49
I0
sg31
I0
sg48
I0
sg80
I0
sg81
I0
sg82
I0
sg46
I0
sg33
I0
sg83
I0
sg84
I0
sg85
I0
ssg21
(dp200
g9
I0
sg12
I0
sg17
I0
sg25
I0
sg58
I0
sg62
I0
sg19
I0
sg61
I0
sg11
I0
sg10
I0
sg18
I0
sg90
I0
sg55
I0
sg21
I0
sg20
I0
sg92
I0
sg60
I0
sg59
I0
sg24
I0
sg22
I0
sg14
I0
sg13
I0
sg26
I0
sg102
I0
sg16
I0
sg57
I0
sg103
I0
sg56
I0
sg97
I0
sg104
I0
sg98
I0
sg8
I0
sg29
I0
sg28
I0
sg23
I0
sg27
I0
sg15
I0
ssg20
(dp201
g9
I0
sg12
I0
sg17
I0
sg25
I0
sg58
I0
sg62
I0
sg19
I0
sg61
I0
sg11
I0
sg10
I0
sg18
I0
sg90
I0
sg55
I0
sg21
I4
sg20
I0
sg92
I0
sg60
I0
sg59
I0
sg24
I0
sg22
I0
sg14
I0
sg13
I0
sg26
I0
sg102
I0
sg16
I0
sg57
I0
sg103
I0
sg56
I0
sg97
I0
sg104
I0
sg98
I0
sg8
I0
sg29
I0
sg28
I0
sg23
I0
sg27
I0
sg15
I0
ssg34
(dp202
g39
I0
sg37
I0
sg82
I0
sg67
I0
sg68
I0
sg34
I0
sg69
I0
sg71
I0
sg70
I0
sg42
I0
sg50
I0
sg41
I0
sg72
I0
sg53
I0
sg36
I0
sg54
I0
sg40
I0
sg73
I0
sg74
I0
sg52
I0
sg75
I0
sg76
I0
sg77
I0
sg78
I0
sg32
I0
sg38
I0
sg79
I0
sg45
I0
sg51
I0
sg35
I0
sg30
I0
sg43
I0
sg44
I0
sg49
I0
sg31
I0
sg48
I0
sg80
I0
sg81
I0
sg47
I0
sg46
I0
sg33
I0
sg83
I0
sg84
I0
sg85
I0
ssg60
(dp203
g140
I0
sg141
I0
sg142
I0
sg143
I0
sg144
I0
sg58
I0
sg62
I0
sg145
I0
sg146
I0
sg61
I0
sg147
I0
sg148
I0
sg149
I0
sg150
I0
sg90
I0
sg151
I0
sg152
I0
sg153
I0
sg92
I0
sg60
I0
sg59
I0
sg154
I0
sg155
I0
sg156
I0
sg157
I0
sg158
I0
sg55
I0
sg159
I0
sg160
I0
sg161
I0
sg162
I0
sg57
I0
sg56
I0
sg163
I0
sg164
I0
sg97
I0
sg98
I0
sg165
I0
sg166
I0
sg167
I0
sg168
I0
sg169
I0
ssg59
(dp204
g140
I0
sg141
I0
sg142
I0
sg143
I0
sg144
I0
sg58
I0
sg62
I0
sg145
I0
sg146
I0
sg61
I0
sg147
I0
sg148
I0
sg149
I0
sg150
I0
sg90
I0
sg151
I0
sg152
I0
sg153
I0
sg92
I0
sg60
I4
sg59
I0
sg154
I0
sg155
I0
sg156
I0
sg157
I0
sg158
I0
sg55
I0
sg159
I0
sg160
I0
sg161
I0
sg162
I0
sg57
I0
sg56
I0
sg163
I0
sg164
I0
sg97
I0
sg98
I0
sg165
I0
sg166
I0
sg167
I0
sg168
I0
sg169
I0
ssg46
(dp205
g39
I0
sg37
I0
sg82
I0
sg106
I0
sg107
I0
sg108
I0
sg34
I0
sg109
I0
sg110
I0
sg111
I0
sg112
I0
sg42
I0
sg50
I0
sg41
I0
sg53
I0
sg36
I0
sg54
I0
sg40
I0
sg113
I0
sg114
I0
sg52
I0
sg76
I0
sg77
I0
sg78
I0
sg32
I0
sg38
I0
sg79
I0
sg45
I0
sg51
I0
sg115
I0
sg35
I0
sg116
I0
sg30
I0
sg117
I0
sg43
I0
sg44
I0
sg49
I0
sg31
I0
sg48
I0
sg80
I0
sg81
I0
sg47
I4
sg46
I0
sg33
I0
sg118
I0
sg84
I0
ssg24
(dp206
g120
I0
sg9
I0
sg12
I0
sg121
I0
sg17
I0
sg25
I0
sg122
I0
sg123
I0
sg19
I0
sg124
I0
sg125
I0
sg11
I0
sg10
I0
sg18
I0
sg126
I0
sg127
I0
sg21
I0
sg20
I0
sg128
I0
sg129
I0
sg130
I0
sg24
I4
sg131
I0
sg22
I0
sg14
I0
sg13
I0
sg26
I0
sg132
I0
sg133
I0
sg16
I0
sg134
I0
sg135
I0
sg136
I0
sg137
I0
sg8
I0
sg29
I0
sg28
I0
sg23
I0
sg138
I0
sg27
I0
sg15
I0
ssg33
(dp207
g39
I0
sg37
I0
sg82
I0
sg67
I0
sg68
I0
sg34
I4
sg69
I0
sg71
I0
sg70
I0
sg42
I0
sg50
I0
sg41
I0
sg72
I0
sg53
I0
sg36
I0
sg54
I0
sg40
I0
sg73
I0
sg74
I0
sg52
I0
sg75
I0
sg76
I0
sg77
I0
sg78
I0
sg32
I0
sg38
I0
sg79
I0
sg45
I0
sg51
I0
sg35
I0
sg30
I0
sg43
I0
sg44
I0
sg49
I0
sg31
I0
sg48
I0
sg80
I0
sg81
I0
sg47
I0
sg46
I0
sg33
I0
sg83
I0
sg84
I0
sg85
I0
ssg52
(dp208
g39
I0
sg37
I0
sg77
I0
sg111
I0
sg106
I0
sg107
I0
sg108
I0
sg34
I0
sg109
I0
sg110
I0
sg47
I0
sg112
I0
sg42
I0
sg50
I0
sg41
I0
sg53
I0
sg36
I0
sg54
I0
sg40
I0
sg113
I0
sg114
I0
sg76
I0
sg52
I4
sg78
I0
sg32
I0
sg38
I0
sg79
I0
sg45
I0
sg51
I0
sg115
I0
sg35
I0
sg116
I0
sg30
I0
sg117
I0
sg43
I0
sg44
I0
sg49
I0
sg31
I0
sg48
I0
sg80
I0
sg81
I0
sg82
I0
sg46
I0
sg33
I0
sg118
I0
sg84
I0
ssg22
(dp209
g120
I0
sg9
I0
sg12
I0
sg121
I0
sg17
I0
sg25
I0
sg122
I0
sg123
I0
sg19
I0
sg124
I0
sg125
I0
sg11
I0
sg10
I0
sg18
I0
sg126
I0
sg127
I0
sg21
I0
sg20
I0
sg128
I0
sg129
I0
sg130
I0
sg22
I0
sg131
I0
sg24
I0
sg14
I0
sg13
I0
sg26
I0
sg132
I0
sg133
I0
sg16
I0
sg134
I0
sg135
I0
sg136
I0
sg137
I0
sg8
I0
sg29
I0
sg28
I0
sg23
I4
sg138
I0
sg27
I0
sg15
I0
ssg14
(dp210
g39
I0
sg9
I0
sg12
I0
sg37
I0
sg17
I0
sg54
I0
sg25
I0
sg58
I0
sg62
I0
sg19
I0
sg40
I0
sg61
I0
sg11
I0
sg10
I0
sg18
I0
sg50
I0
sg41
I0
sg55
I0
sg53
I0
sg36
I0
sg21
I0
sg20
I0
sg34
I0
sg60
I0
sg59
I0
sg46
I0
sg24
I0
sg33
I0
sg52
I0
sg22
I0
sg14
I0
sg13
I0
sg26
I0
sg32
I0
sg38
I0
sg16
I0
sg45
I0
sg51
I0
sg42
I0
sg35
I0
sg30
I0
sg56
I0
sg43
I0
sg44
I0
sg49
I0
sg31
I0
sg48
I0
sg8
I0
sg29
I0
sg47
I0
sg28
I0
sg23
I0
sg57
I0
sg27
I0
sg15
I0
ssg13
(dp211
g39
I0
sg9
I0
sg12
I0
sg37
I0
sg17
I0
sg54
I0
sg25
I0
sg58
I0
sg62
I0
sg19
I0
sg40
I0
sg61
I0
sg11
I0
sg10
I0
sg18
I0
sg50
I0
sg41
I0
sg55
I0
sg53
I0
sg36
I0
sg21
I0
sg20
I0
sg34
I0
sg60
I0
sg59
I0
sg46
I0
sg24
I0
sg33
I0
sg52
I0
sg22
I0
sg14
I20
sg13
I0
sg26
I0
sg32
I0
sg38
I0
sg16
I0
sg45
I0
sg51
I0
sg42
I0
sg35
I0
sg30
I0
sg56
I0
sg43
I0
sg44
I0
sg49
I0
sg31
I0
sg48
I0
sg8
I0
sg29
I0
sg47
I0
sg28
I0
sg23
I0
sg57
I0
sg27
I0
sg15
I0
ssg26
(dp212
g39
I0
sg9
I0
sg19
I0
sg37
I0
sg17
I0
sg54
I0
sg25
I0
sg122
I0
sg123
I0
sg12
I0
sg40
I0
sg125
I0
sg11
I0
sg10
I0
sg18
I0
sg50
I0
sg41
I0
sg53
I0
sg36
I0
sg21
I0
sg20
I0
sg34
I0
sg129
I0
sg130
I0
sg46
I0
sg24
I0
sg33
I0
sg52
I0
sg22
I0
sg14
I0
sg13
I0
sg26
I8
sg32
I0
sg38
I0
sg16
I0
sg45
I0
sg51
I0
sg42
I0
sg35
I0
sg30
I0
sg136
I0
sg43
I0
sg44
I0
sg49
I0
sg31
I0
sg48
I0
sg8
I0
sg29
I0
sg47
I0
sg28
I0
sg23
I0
sg138
I0
sg27
I0
sg15
I0
ssg32
(dp213
g39
I0
sg37
I0
sg82
I0
sS'bacon.n.03'
p214
I0
sg67
I0
sS'cheese.n.01'
p215
I0
sg68
I0
sg34
I0
sg69
I0
sg71
I0
sg70
I0
sg42
I0
sg50
I0
sg41
I0
sg53
I0
sg36
I0
sg54
I0
sS'bacon.n.01'
p216
I0
sg40
I0
sg73
I0
sg74
I0
sg52
I0
sg75
I0
sg76
I0
sg77
I0
sg78
I0
sg32
I4
sg38
I0
sg79
I0
sg45
I0
sg51
I0
sg35
I0
sg30
I0
sg43
I0
sg44
I0
sg49
I0
sg31
I0
sg48
I0
sg80
I0
sg81
I0
sg47
I0
sg46
I0
sg33
I0
sg83
I0
sg84
I0
sg85
I0
ssg38
(dp217
g39
I4
sg37
I0
sg82
I0
sg67
I0
sg68
I0
sg34
I0
sg69
I0
sg71
I0
sg70
I0
sg42
I0
sg50
I0
sg41
I0
sg72
I0
sg53
I0
sg36
I0
sg54
I0
sg40
I0
sg73
I0
sg74
I0
sg52
I0
sg75
I0
sg76
I0
sg77
I0
sg78
I0
sg32
I0
sg38
I0
sg79
I0
sg45
I0
sg51
I0
sg35
I0
sg30
I0
sg43
I0
sg44
I0
sg49
I0
sg31
I0
sg48
I0
sg80
I0
sg81
I0
sg47
I0
sg46
I0
sg33
I0
sg83
I0
sg84
I0
sg85
I0
ssg16
(dp218
g39
I0
sg9
I0
sg12
I0
sg37
I0
sg17
I0
sg54
I0
sg25
I0
sg58
I0
sg62
I0
sg19
I0
sg40
I0
sg61
I0
sg11
I0
sg10
I0
sg18
I0
sg50
I0
sg41
I0
sg55
I0
sg53
I0
sg36
I0
sg21
I0
sg20
I0
sg34
I0
sg60
I0
sg59
I0
sg46
I0
sg24
I0
sg33
I0
sg52
I0
sg22
I0
sg14
I0
sg13
I0
sg26
I0
sg32
I0
sg38
I0
sg16
I4
sg45
I0
sg51
I0
sg42
I0
sg35
I0
sg30
I0
sg56
I0
sg43
I0
sg44
I0
sg49
I0
sg31
I0
sg48
I0
sg8
I0
sg29
I0
sg47
I0
sg28
I0
sg23
I0
sg57
I0
sg27
I0
sg15
I0
ssg45
(dp219
g39
I0
sg37
I0
sg82
I0
sg106
I0
sg107
I0
sg108
I0
sg34
I0
sg109
I0
sg110
I0
sg111
I0
sg112
I0
sg42
I0
sg50
I0
sg41
I0
sg53
I0
sg36
I0
sg54
I0
sg40
I0
sg113
I0
sg114
I0
sg52
I0
sg76
I0
sg77
I0
sg78
I0
sg32
I0
sg38
I0
sg79
I0
sg45
I0
sg51
I0
sg115
I0
sg35
I0
sg116
I0
sg30
I0
sg117
I0
sg43
I0
sg44
I0
sg49
I0
sg31
I0
sg48
I0
sg80
I0
sg81
I0
sg47
I0
sg46
I0
sg33
I0
sg118
I0
sg84
I0
ssg51
(dp220
g39
I0
sg37
I0
sg82
I0
sg106
I0
sg107
I0
sg108
I0
sg34
I0
sg109
I0
sg110
I0
sg111
I0
sg112
I0
sg42
I0
sg50
I0
sg41
I0
sg53
I0
sg36
I0
sg54
I0
sg40
I0
sg113
I0
sg114
I0
sg52
I0
sg76
I0
sg77
I0
sg78
I0
sg32
I0
sg38
I0
sg79
I4
sg45
I0
sg51
I0
sg115
I0
sg35
I0
sg116
I0
sg30
I0
sg117
I0
sg43
I0
sg44
I0
sg49
I0
sg31
I0
sg48
I0
sg80
I0
sg81
I0
sg47
I0
sg46
I0
sg33
I0
sg118
I0
sg84
I0
ssg42
(dp221
g39
I0
sg37
I0
sg82
I0
sg106
I0
sg107
I0
sg178
I0
sg34
I0
sg109
I0
sg179
I0
sg180
I0
sg181
I0
sg42
I4
sg50
I0
sg41
I0
sg108
I0
sg53
I0
sg36
I0
sg54
I0
sg40
I0
sg113
I0
sg114
I0
sg182
I0
sg52
I0
sg76
I0
sg77
I0
sg78
I0
sg32
I0
sg38
I0
sg79
I0
sg45
I0
sg51
I0
sg35
I0
sg30
I0
sg117
I0
sg43
I0
sg44
I0
sg49
I0
sg31
I0
sg48
I0
sg80
I0
sg81
I0
sg47
I0
sg46
I0
sg33
I0
sg118
I0
sg183
I0
sg84
I0
ssg35
(dp222
g39
I0
sg37
I0
sg82
I0
sg67
I0
sg68
I0
sg34
I0
sg69
I0
sg71
I0
sg70
I0
sg42
I0
sg50
I0
sg41
I0
sg72
I0
sg53
I0
sg36
I0
sg54
I0
sg40
I0
sg73
I0
sg74
I0
sg52
I0
sg75
I0
sg76
I0
sg77
I0
sg78
I0
sg32
I0
sg38
I0
sg79
I0
sg45
I0
sg51
I0
sg35
I4
sg30
I0
sg43
I0
sg44
I0
sg49
I0
sg31
I0
sg48
I0
sg80
I0
sg81
I0
sg47
I0
sg46
I0
sg33
I0
sg83
I0
sg84
I0
sg85
I0
ssg30
(dp223
g39
I0
sg37
I0
sg82
I0
sg214
I0
sg67
I0
sg215
I0
sg68
I0
sg34
I0
sg69
I0
sg71
I0
sg70
I0
sg42
I0
sg50
I0
sg41
I0
sg53
I0
sg36
I0
sg54
I0
sg216
I0
sg40
I0
sg73
I0
sg74
I0
sg52
I0
sg75
I0
sg76
I0
sg77
I0
sg78
I0
sg32
I0
sg38
I0
sg79
I0
sg45
I0
sg51
I0
sg35
I0
sg30
I0
sg43
I0
sg44
I0
sg49
I0
sg31
I4
sg48
I0
sg80
I0
sg81
I0
sg47
I0
sg46
I0
sg33
I0
sg83
I0
sg84
I0
sg85
I0
ssg56
(dp224
g140
I0
sg141
I0
sg142
I0
sg143
I0
sg144
I0
sg58
I0
sg62
I0
sg145
I0
sg146
I0
sg61
I0
sg147
I0
sg148
I0
sg149
I0
sg150
I0
sg90
I0
sg151
I0
sg152
I0
sg153
I0
sg92
I0
sg60
I0
sg59
I0
sg154
I0
sg155
I0
sg156
I0
sg157
I0
sg158
I0
sg55
I0
sg159
I0
sg160
I0
sg161
I0
sg162
I0
sg57
I4
sg56
I0
sg163
I0
sg164
I0
sg97
I0
sg98
I0
sg165
I0
sg166
I0
sg167
I0
sg168
I0
sg169
I0
ssg43
(dp225
g39
I0
sg37
I0
sg36
I0
sg180
I0
sg106
I0
sg107
I0
sg178
I0
sg34
I0
sg109
I0
sg179
I0
sg47
I0
sg181
I0
sg42
I0
sg50
I0
sg41
I0
sg108
I0
sg53
I0
sg54
I0
sg40
I0
sg113
I0
sg114
I0
sg182
I0
sg52
I0
sg76
I0
sg77
I0
sg78
I0
sg32
I0
sg38
I0
sg79
I0
sg45
I0
sg51
I0
sg35
I0
sg30
I0
sg117
I0
sg43
I4
sg44
I0
sg49
I0
sg31
I0
sg48
I0
sg80
I0
sg81
I0
sg82
I0
sg46
I0
sg33
I0
sg118
I0
sg183
I0
sg84
I0
ssg44
(dp226
g39
I0
sg37
I0
sg36
I0
sg180
I0
sg106
I0
sg107
I0
sg178
I0
sg34
I0
sg109
I0
sg179
I0
sg47
I0
sg181
I0
sg42
I0
sg50
I0
sg41
I0
sg108
I0
sg53
I0
sg54
I0
sg40
I0
sg113
I0
sg114
I0
sg182
I0
sg52
I0
sg76
I0
sg77
I0
sg78
I0
sg32
I0
sg38
I0
sg79
I0
sg45
I0
sg51
I0
sg35
I0
sg30
I0
sg117
I0
sg43
I0
sg44
I4
sg49
I0
sg31
I0
sg48
I0
sg80
I0
sg81
I0
sg82
I0
sg46
I0
sg33
I0
sg118
I0
sg183
I0
sg84
I0
ssg49
(dp227
g39
I0
sg37
I0
sg82
I0
sg152
I0
sg142
I0
sg58
I0
sg62
I0
sg55
I0
sg34
I0
sg61
I0
sg147
I0
sg149
I0
sg148
I0
sg42
I0
sg50
I0
sg41
I0
sg53
I0
sg36
I0
sg54
I0
sg153
I0
sg40
I0
sg60
I0
sg59
I0
sg52
I0
sg76
I0
sg77
I0
sg78
I0
sg32
I0
sg38
I0
sg79
I0
sg45
I0
sg51
I0
sg141
I0
sg35
I0
sg145
I0
sg30
I0
sg56
I0
sg43
I0
sg44
I0
sg49
I0
sg31
I0
sg48
I0
sg80
I0
sg81
I0
sg47
I0
sg46
I0
sg33
I0
sg57
I0
sg84
I0
ssg31
(dp228
g39
I0
sg37
I0
sg82
I0
sg214
I0
sg67
I0
sg215
I0
sg68
I0
sg34
I0
sg69
I0
sg71
I0
sg70
I0
sg42
I0
sg50
I0
sg41
I0
sg53
I0
sg36
I0
sg54
I0
sg216
I0
sg40
I0
sg73
I0
sg74
I0
sg52
I0
sg75
I0
sg76
I0
sg77
I0
sg78
I0
sg32
I0
sg38
I0
sg79
I0
sg45
I0
sg51
I0
sg35
I0
sg30
I0
sg43
I0
sg44
I0
sg49
I0
sg31
I0
sg48
I0
sg80
I0
sg81
I0
sg47
I0
sg46
I0
sg33
I0
sg83
I0
sg84
I0
sg85
I0
ssg48
(dp229
g39
I0
sg37
I0
sg82
I0
sg152
I0
sg142
I0
sg58
I0
sg62
I0
sg55
I0
sg34
I0
sg61
I0
sg147
I0
sg149
I0
sg148
I0
sg42
I0
sg50
I0
sg41
I0
sg53
I0
sg36
I0
sg54
I0
sg153
I0
sg40
I0
sg60
I0
sg59
I0
sg52
I0
sg76
I0
sg77
I0
sg78
I0
sg32
I0
sg38
I0
sg79
I0
sg45
I0
sg51
I0
sg141
I0
sg35
I0
sg145
I0
sg30
I0
sg56
I0
sg43
I0
sg44
I0
sg49
I8
sg31
I0
sg48
I0
sg80
I0
sg81
I0
sg47
I0
sg46
I0
sg33
I0
sg57
I0
sg84
I0
ssg8
(dp230
g39
I0
sg9
I16
sg12
I0
sg37
I0
sg17
I0
sg54
I0
sg25
I0
sg58
I0
sg62
I0
sg19
I0
sg40
I0
sg61
I0
sg11
I0
sg10
I0
sg18
I0
sg50
I4
sg41
I0
sg55
I0
sg53
I0
sg36
I0
sg21
I0
sg20
I0
sg34
I0
sg60
I0
sg59
I0
sg46
I0
sg24
I0
sg33
I0
sg52
I0
sg22
I0
sg14
I0
sg13
I0
sg26
I0
sg32
I0
sg38
I0
sg16
I0
sg45
I0
sg51
I0
sg42
I0
sg35
I0
sg30
I0
sg56
I0
sg43
I0
sg44
I0
sg49
I0
sg31
I0
sg48
I0
sg8
I0
sg29
I0
sg47
I0
sg28
I0
sg23
I0
sg57
I0
sg27
I0
sg15
I0
ssg29
(dp231
g39
I0
sg9
I0
sg12
I0
sg37
I0
sg17
I0
sg54
I0
sg25
I0
sg19
I0
sg40
I0
sg11
I0
sg10
I0
sg18
I0
sg50
I0
sg41
I0
sg53
I0
sg36
I0
sg21
I0
sg20
I0
sg34
I0
sg46
I0
sg24
I0
sg33
I0
sg52
I0
sg22
I0
sg14
I0
sg13
I0
sg26
I0
sg32
I0
sg38
I0
sg16
I0
sg45
I0
sg51
I0
sg42
I0
sg35
I0
sg30
I0
sg43
I0
sg44
I0
sg49
I0
sg31
I0
sg48
I0
sg8
I0
sg29
I8
sg47
I0
sg28
I0
sg23
I0
sg27
I0
sg15
I0
ssg47
(dp232
g39
I0
sg37
I0
sg82
I0
sg106
I0
sg107
I0
sg108
I0
sg34
I0
sg109
I0
sg110
I0
sg111
I0
sg112
I0
sg42
I0
sg50
I0
sg41
I0
sg53
I0
sg36
I0
sg54
I0
sg40
I0
sg113
I0
sg114
I0
sg52
I0
sg76
I0
sg77
I0
sg78
I0
sg32
I0
sg38
I0
sg79
I0
sg45
I0
sg51
I0
sg115
I0
sg35
I0
sg116
I0
sg30
I0
sg117
I0
sg43
I0
sg44
I0
sg49
I0
sg31
I0
sg48
I0
sg80
I0
sg81
I0
sg47
I0
sg46
I0
sg33
I0
sg118
I0
sg84
I0
ssg28
(dp233
g120
I0
sg9
I0
sg12
I0
sg121
I0
sg17
I0
sg25
I0
sg19
I0
sg172
I0
sg11
I0
sg10
I0
sg18
I0
sg173
I0
sg127
I0
sg21
I0
sg20
I0
sg128
I0
sg24
I0
sg131
I0
sg22
I0
sg14
I0
sg13
I0
sg26
I0
sg132
I0
sg133
I0
sg16
I0
sg174
I0
sg134
I0
sg135
I0
sg175
I0
sg176
I0
sg137
I0
sg8
I0
sg29
I0
sg28
I0
sg23
I0
sg27
I0
sg15
I0
ssg23
(dp234
g120
I0
sg23
I0
sg12
I0
sg121
I0
sg9
I0
sg25
I0
sg17
I0
sg122
I0
sg123
I0
sg19
I0
sg124
I0
sg125
I0
sg11
I0
sg10
I0
sg18
I0
sg126
I0
sg127
I0
sg21
I0
sg20
I0
sg128
I0
sg129
I0
sg130
I0
sg24
I0
sg22
I0
sg14
I0
sg13
I0
sg26
I0
sg132
I0
sg133
I0
sg16
I0
sg134
I0
sg135
I0
sg136
I0
sg137
I0
sg8
I0
sg29
I0
sg28
I0
sg131
I0
sg138
I0
sg27
I0
sg15
I0
ssg57
(dp235
g140
I0
sg141
I0
sg142
I0
sg143
I0
sg144
I0
sg58
I0
sg62
I0
sg145
I0
sg146
I0
sg61
I0
sg147
I0
sg148
I0
sg57
I0
sg150
I0
sg90
I0
sg151
I0
sg152
I0
sg153
I0
sg92
I0
sg60
I0
sg59
I0
sg154
I0
sg155
I0
sg156
I0
sg157
I0
sg158
I0
sg55
I0
sg159
I0
sg160
I0
sg161
I0
sg162
I0
sg149
I0
sg56
I0
sg163
I0
sg164
I0
sg97
I0
sg98
I0
sg165
I0
sg166
I0
sg167
I0
sg168
I0
sg169
I0
ssg27
(dp236
g120
I0
sg9
I0
sg12
I0
sg121
I0
sg17
I0
sg25
I0
sg19
I0
sg172
I0
sg11
I0
sg10
I0
sg18
I0
sg173
I0
sg127
I0
sg21
I0
sg20
I0
sg128
I0
sg24
I0
sg131
I0
sg22
I0
sg14
I0
sg13
I0
sg26
I0
sg132
I0
sg133
I0
sg16
I0
sg174
I0
sg134
I0
sg135
I0
sg175
I0
sg176
I0
sg137
I0
sg8
I0
sg29
I0
sg28
I4
sg23
I0
sg27
I0
sg15
I0
ssg15
(dp237
g39
I0
sg9
I0
sg12
I0
sg37
I0
sg17
I0
sg54
I0
sg25
I0
sg58
I0
sg62
I0
sg19
I0
sg40
I0
sg61
I0
sg11
I0
sg10
I0
sg18
I0
sg50
I0
sg41
I0
sg55
I0
sg53
I0
sg36
I0
sg21
I0
sg20
I0
sg34
I0
sg60
I0
sg59
I0
sg46
I0
sg24
I0
sg33
I0
sg52
I0
sg22
I0
sg14
I0
sg13
I0
sg26
I0
sg32
I0
sg38
I0
sg16
I0
sg45
I0
sg51
I0
sg42
I0
sg35
I0
sg30
I0
sg56
I0
sg43
I0
sg44
I0
sg49
I0
sg31
I0
sg48
I0
sg8
I0
sg29
I0
sg47
I0
sg28
I0
sg23
I0
sg57
I0
sg27
I0
sg15
I8
sssb.