ccopy_reg
_reconstructor
p0
(cutils.eval
ConfusionMatrix
p1
c__builtin__
object
p2
Ntp3
Rp4
(dp5
S'labels'
p6
(lp7
S'fill.v.01'
p8
aS'meet.v.04'
p9
aS'kettle.n.01'
p10
aS'kettle.n.02'
p11
aS'water.n.06'
p12
aS'water.n.03'
p13
aS'put.v.01'
p14
aS'frame.v.04'
p15
aS'pepper.n.03'
p16
aS'pepper.n.04'
p17
aS'salt.n.02'
p18
aS'egg.n.02'
p19
aS'testis.n.01'
p20
aS'fill.v.09'
p21
aS'pan.n.01'
p22
aS'cabbage.n.01'
p23
aS'cut.v.01'
p24
aS'swerve.v.01'
p25
aS'opening.n.01'
p26
aS'gap.n.05'
p27
aS'batter.n.02'
p28
aS'pitcher.n.02'
p29
aS'pitcher.n.03'
p30
aS'milk.n.01'
p31
aS'milk.n.04'
p32
aS'invest.v.01'
p33
aS'pan.n.03'
p34
aS'chicken.n.01'
p35
aS'slice.v.03'
p36
aS'slice.v.02'
p37
aS'onion.n.01'
p38
asS'instanceCount'
p39
I24
sS'matrix'
p40
(dp41
g33
(dp42
g33
I0
ssg25
(dp43
g25
I0
ssg36
(dp44
g37
I1
ssg28
(dp45
S'batter.n.02'
p46
I1
ssg32
(dp47
g32
I0
ssg35
(dp48
S'chicken.n.01'
p49
I1
ssg31
(dp50
g32
I1
ssg22
(dp51
S'pan.n.01'
p52
I1
ssg34
(dp53
S'pan.n.01'
p54
I1
ssg24
(dp55
g25
I1
ssg15
(dp56
g15
I0
ssg21
(dp57
g21
I1
ssg19
(dp58
g20
I1
ssg20
(dp59
g20
I0
ssg8
(dp60
g9
I1
sg21
I2
ssg30
(dp61
g30
I0
ssg29
(dp62
g30
I1
ssg37
(dp63
g37
I0
ssg18
(dp64
S'salt.n.02'
p65
I1
ssg23
(dp66
S'cabbage.n.01'
p67
I1
ssg17
(dp68
g17
I1
ssg9
(dp69
g9
I0
ssg16
(dp70
g17
I1
ssg27
(dp71
g27
I0
ssg26
(dp72
g27
I1
ssg13
(dp73
g13
I0
ssg12
(dp74
g13
I2
ssg14
(dp75
g33
I1
sg15
I1
ssg11
(dp76
g11
I0
ssg10
(dp77
g11
I1
ssg38
(dp78
S'onion.n.01'
p79
I1
sssb.