ccopy_reg
_reconstructor
p0
(cutils.eval
ConfusionMatrix
p1
c__builtin__
object
p2
Ntp3
Rp4
(dp5
S'labels'
p6
(lp7
S'fill.v.01'
p8
aS'fill.v.09'
p9
aS'pan.n.01'
p10
aS'water.n.06'
p11
aS'water.n.03'
p12
aS'cabbage.n.01'
p13
aS'cut.v.01'
p14
aS'swerve.v.01'
p15
aS'opening.n.01'
p16
aS'gap.n.05'
p17
aS'batter.n.02'
p18
aS'pitcher.n.02'
p19
aS'pitcher.n.03'
p20
aS'milk.n.01'
p21
aS'milk.n.04'
p22
aS'put.v.01'
p23
aS'invest.v.01'
p24
aS'pan.n.03'
p25
aS'chicken.n.01'
p26
aS'slice.v.03'
p27
aS'slice.v.02'
p28
aS'onion.n.01'
p29
aS'pepper.n.04'
p30
aS'cheese.n.01'
p31
aS'bacon.n.01'
p32
aS'bacon.n.03'
p33
asS'instanceCount'
p34
I21
sS'matrix'
p35
(dp36
g24
(dp37
g24
I0
ssg26
(dp38
S'chicken.n.01'
p39
I1
ssg31
(dp40
S'cheese.n.01'
p41
I1
ssg18
(dp42
S'batter.n.02'
p43
I1
ssg22
(dp44
g22
I0
ssg15
(dp45
g15
I0
ssg21
(dp46
g22
I1
ssg10
(dp47
S'pan.n.01'
p48
I1
ssg25
(dp49
S'pan.n.01'
p50
I1
ssg14
(dp51
g15
I2
ssg9
(dp52
g9
I1
ssg33
(dp53
g33
I0
ssg32
(dp54
g33
I1
ssg8
(dp55
g9
I2
ssg20
(dp56
g20
I0
ssg19
(dp57
g20
I1
ssg28
(dp58
g28
I0
ssg27
(dp59
g28
I2
ssg13
(dp60
S'cabbage.n.01'
p61
I1
ssg30
(dp62
S'pepper.n.04'
p63
I1
ssg17
(dp64
g17
I0
ssg16
(dp65
g17
I1
ssg12
(dp66
g12
I0
ssg11
(dp67
g12
I1
ssg23
(dp68
g24
I1
ssg29
(dp69
S'onion.n.01'
p70
I1
sssb.