ccopy_reg
_reconstructor
p0
(cutils.eval
ConfusionMatrix
p1
c__builtin__
object
p2
Ntp3
Rp4
(dp5
S'labels'
p6
(lp7
S'put.v.01'
p8
aS'invest.v.01'
p9
aS'pan.n.03'
p10
aS'pan.n.01'
p11
aS'chicken.n.01'
p12
aS'slice.v.03'
p13
aS'slice.v.02'
p14
aS'onion.n.01'
p15
aS'pepper.n.04'
p16
aS'cheese.n.01'
p17
aS'cut.v.01'
p18
aS'swerve.v.01'
p19
aS'bacon.n.01'
p20
aS'bacon.n.03'
p21
aS'meat.n.01'
p22
aS'kernel.n.01'
p23
aS'cleaver.n.01'
p24
aS'bread.n.01'
p25
aS'knife.n.01'
p26
aS'lemon.n.01'
p27
aS'lemon.n.04'
p28
aS'pizza.n.01'
p29
asS'instanceCount'
p30
I21
sS'matrix'
p31
(dp32
g9
(dp33
g9
I0
ssg12
(dp34
S'chicken.n.01'
p35
I1
ssg17
(dp36
S'cheese.n.01'
p37
I1
ssg25
(dp38
S'bread.n.01'
p39
I1
ssg19
(dp40
g19
I0
ssg11
(dp41
g11
I0
ssg10
(dp42
g11
I2
ssg18
(dp43
g19
I4
ssg21
(dp44
g21
I0
ssg20
(dp45
g21
I1
ssg24
(dp46
S'cleaver.n.01'
p47
I1
ssg22
(dp48
g23
I1
ssg14
(dp49
g14
I0
ssg13
(dp50
g14
I2
ssg26
(dp51
S'knife.n.01'
p52
I1
ssg16
(dp53
S'pepper.n.04'
p54
I1
ssg8
(dp55
g9
I2
ssg29
(dp56
S'pizza.n.01'
p57
I1
ssg28
(dp58
g28
I0
ssg23
(dp59
g23
I0
ssg27
(dp60
g28
I1
ssg15
(dp61
S'onion.n.01'
p62
I1
sssb.