ccopy_reg
_reconstructor
p0
(cutils.eval
ConfusionMatrix
p1
c__builtin__
object
p2
Ntp3
Rp4
(dp5
S'labels'
p6
(lp7
S'piece.n.08'
p8
aS'slice.n.01'
p9
aS'pizza.n.01'
p10
aS'slice.v.03'
p11
aS'slice.v.02'
p12
aS'knife.n.01'
p13
aS'banana.n.02'
p14
aS'put.v.01'
p15
aS'invest.v.01'
p16
aS'cake.n.03'
p17
aS'patty.n.01'
p18
aS'whipped_cream.n.01'
p19
aS'onion.n.01'
p20
aS'beef.n.02'
p21
aS'beef.n.01'
p22
aS'plate.n.04'
p23
aS'plate.n.12'
p24
aS'fill.v.01'
p25
aS'fill.v.09'
p26
aS'foam.n.01'
p27
aS'mug.n.04'
p28
aS'flesh.n.01'
p29
aS'meet.v.04'
p30
aS'kettle.n.01'
p31
aS'kettle.n.02'
p32
aS'water.n.06'
p33
aS'water.n.03'
p34
aS'frame.v.04'
p35
aS'pepper.n.03'
p36
aS'pepper.n.04'
p37
aS'salt.n.02'
p38
aS'egg.n.02'
p39
aS'testis.n.01'
p40
asS'instanceCount'
p41
I25
sS'matrix'
p42
(dp43
g24
(dp44
g24
I0
ssg22
(dp45
g22
I0
ssg16
(dp46
g16
I0
ssg18
(dp47
g18
I0
ssg27
(dp48
S'foam.n.01'
p49
I1
ssg35
(dp50
g35
I0
ssg26
(dp51
g26
I0
ssg39
(dp52
g40
I1
ssg21
(dp53
g22
I1
ssg40
(dp54
g40
I0
ssg25
(dp55
g30
I1
sg26
I1
ssg38
(dp56
S'salt.n.02'
p57
I1
ssg12
(dp58
g12
I0
ssg11
(dp59
g12
I3
ssg13
(dp60
S'knife.n.01'
p61
I1
ssg14
(dp62
S'banana.n.02'
p63
I1
ssg23
(dp64
g24
I1
ssg37
(dp65
g37
I0
ssg30
(dp66
g30
I0
ssg36
(dp67
g37
I1
ssg19
(dp68
S'whipped_cream.n.01'
p69
I1
ssg8
(dp70
g9
I1
ssg28
(dp71
S'mug.n.04'
p72
I1
ssg29
(dp73
S'flesh.n.01'
p74
I1
ssg34
(dp75
g34
I0
ssg9
(dp76
g9
I0
ssg33
(dp77
g34
I1
ssg15
(dp78
g16
I2
sg35
I1
ssg10
(dp79
S'pizza.n.01'
p80
I1
ssg32
(dp81
g32
I0
ssg31
(dp82
g32
I1
ssg17
(dp83
g18
I1
ssg20
(dp84
S'onion.n.01'
p85
I1
sssb.