ccopy_reg
_reconstructor
p0
(cutils.eval
ConfusionMatrix
p1
c__builtin__
object
p2
Ntp3
Rp4
(dp5
S'labels'
p6
(lp7
S'put.v.01'
p8
aS'invest.v.01'
p9
aS'cake.n.03'
p10
aS'patty.n.01'
p11
aS'whipped_cream.n.01'
p12
aS'onion.n.01'
p13
aS'beef.n.02'
p14
aS'beef.n.01'
p15
aS'plate.n.04'
p16
aS'plate.n.12'
p17
aS'fill.v.01'
p18
aS'fill.v.09'
p19
aS'foam.n.01'
p20
aS'mug.n.04'
p21
aS'flesh.n.01'
p22
aS'slice.v.03'
p23
aS'slice.v.02'
p24
aS'meet.v.04'
p25
aS'kettle.n.01'
p26
aS'kettle.n.02'
p27
aS'water.n.06'
p28
aS'water.n.03'
p29
aS'frame.v.04'
p30
aS'pepper.n.03'
p31
aS'pepper.n.04'
p32
aS'salt.n.02'
p33
aS'egg.n.02'
p34
aS'testis.n.01'
p35
aS'pan.n.01'
p36
aS'cabbage.n.01'
p37
aS'cut.v.01'
p38
aS'swerve.v.01'
p39
asS'instanceCount'
p40
I24
sS'matrix'
p41
(dp42
g17
(dp43
g17
I0
ssg15
(dp44
g15
I0
ssg9
(dp45
g9
I0
ssg39
(dp46
g39
I0
ssg20
(dp47
S'foam.n.01'
p48
I1
ssg36
(dp49
S'pan.n.01'
p50
I1
ssg18
(dp51
g25
I1
sg19
I2
ssg38
(dp52
g39
I1
ssg30
(dp53
g30
I0
ssg19
(dp54
g19
I0
ssg34
(dp55
g35
I1
ssg14
(dp56
g15
I1
ssg35
(dp57
g35
I0
ssg11
(dp58
g11
I0
ssg33
(dp59
S'salt.n.02'
p60
I1
ssg24
(dp61
g24
I0
ssg23
(dp62
g24
I1
ssg37
(dp63
S'cabbage.n.01'
p64
I1
ssg16
(dp65
g17
I1
ssg32
(dp66
g32
I0
ssg25
(dp67
g25
I0
ssg31
(dp68
g32
I1
ssg12
(dp69
S'whipped_cream.n.01'
p70
I1
ssg21
(dp71
S'mug.n.04'
p72
I1
ssg22
(dp73
S'flesh.n.01'
p74
I1
ssg29
(dp75
g29
I0
ssg28
(dp76
g29
I2
ssg8
(dp77
g9
I2
sg30
I1
ssg27
(dp78
g27
I0
ssg26
(dp79
g27
I1
ssg10
(dp80
g11
I1
ssg13
(dp81
S'onion.n.01'
p82
I1
sssb.