ccopy_reg
_reconstructor
p0
(cutils.eval
ConfusionMatrix
p1
c__builtin__
object
p2
Ntp3
Rp4
(dp5
S'labels'
p6
(lp7
S'cut.v.01'
p8
aS'swerve.v.01'
p9
aS'meat.n.01'
p10
aS'kernel.n.01'
p11
aS'cleaver.n.01'
p12
aS'bread.n.01'
p13
aS'knife.n.01'
p14
aS'lemon.n.01'
p15
aS'lemon.n.04'
p16
aS'put.v.01'
p17
aS'invest.v.01'
p18
aS'pan.n.03'
p19
aS'pan.n.01'
p20
aS'pizza.n.01'
p21
aS'piece.n.08'
p22
aS'slice.n.01'
p23
aS'slice.v.03'
p24
aS'slice.v.02'
p25
aS'banana.n.02'
p26
aS'cake.n.03'
p27
aS'patty.n.01'
p28
aS'whipped_cream.n.01'
p29
aS'onion.n.01'
p30
aS'beef.n.02'
p31
aS'beef.n.01'
p32
aS'plate.n.04'
p33
aS'plate.n.12'
p34
asS'instanceCount'
p35
I24
sS'matrix'
p36
(dp37
g34
(dp38
g34
I0
ssg11
(dp39
g11
I0
ssg9
(dp40
g9
I0
ssg18
(dp41
g18
I0
ssg13
(dp42
S'bread.n.01'
p43
I1
ssg32
(dp44
g32
I0
ssg20
(dp45
g20
I0
ssg19
(dp46
g20
I1
ssg8
(dp47
g9
I3
ssg31
(dp48
g32
I1
ssg28
(dp49
g28
I0
ssg10
(dp50
g11
I1
ssg12
(dp51
S'cleaver.n.01'
p52
I1
ssg25
(dp53
g25
I0
ssg24
(dp54
g25
I2
ssg14
(dp55
S'knife.n.01'
p56
I2
ssg26
(dp57
S'banana.n.02'
p58
I1
ssg33
(dp59
g34
I1
ssg29
(dp60
S'whipped_cream.n.01'
p61
I1
ssg22
(dp62
g23
I1
ssg23
(dp63
g23
I0
ssg17
(dp64
g18
I3
ssg21
(dp65
S'pizza.n.01'
p66
I2
ssg16
(dp67
g16
I0
ssg27
(dp68
g28
I1
ssg15
(dp69
g16
I1
ssg30
(dp70
S'onion.n.01'
p71
I1
sssb.