ccopy_reg
_reconstructor
p0
(cutils.eval
ConfusionMatrix
p1
c__builtin__
object
p2
Ntp3
Rp4
(dp5
S'labels'
p6
(lp7
S'fill.v.01'
p8
aS'fill.v.09'
p9
aS'foam.n.01'
p10
aS'mug.n.04'
p11
aS'flesh.n.01'
p12
aS'slice.v.03'
p13
aS'slice.v.02'
p14
aS'meet.v.04'
p15
aS'kettle.n.01'
p16
aS'kettle.n.02'
p17
aS'water.n.06'
p18
aS'water.n.03'
p19
aS'put.v.01'
p20
aS'frame.v.04'
p21
aS'pepper.n.03'
p22
aS'pepper.n.04'
p23
aS'salt.n.02'
p24
aS'egg.n.02'
p25
aS'testis.n.01'
p26
aS'pan.n.01'
p27
aS'cabbage.n.01'
p28
aS'cut.v.01'
p29
aS'swerve.v.01'
p30
aS'opening.n.01'
p31
aS'gap.n.05'
p32
aS'batter.n.02'
p33
aS'pitcher.n.02'
p34
aS'pitcher.n.03'
p35
aS'milk.n.01'
p36
aS'milk.n.04'
p37
asS'instanceCount'
p38
I23
sS'matrix'
p39
(dp40
g30
(dp41
g30
I0
ssg24
(dp42
S'salt.n.02'
p43
I1
ssg33
(dp44
S'batter.n.02'
p45
I1
ssg37
(dp46
g37
I0
ssg10
(dp47
S'foam.n.01'
p48
I1
ssg36
(dp49
g37
I1
ssg27
(dp50
S'pan.n.01'
p51
I1
ssg29
(dp52
g30
I1
ssg21
(dp53
g21
I0
ssg9
(dp54
g9
I1
ssg25
(dp55
g26
I1
ssg26
(dp56
g26
I0
ssg8
(dp57
g15
I1
sg9
I3
ssg35
(dp58
g35
I0
ssg34
(dp59
g35
I1
ssg14
(dp60
g14
I0
ssg13
(dp61
g14
I1
ssg28
(dp62
S'cabbage.n.01'
p63
I1
ssg23
(dp64
g23
I0
ssg15
(dp65
g15
I0
ssg22
(dp66
g23
I1
ssg32
(dp67
g32
I0
ssg31
(dp68
g32
I1
ssg11
(dp69
S'mug.n.04'
p70
I1
ssg12
(dp71
S'flesh.n.01'
p72
I1
ssg19
(dp73
g19
I0
ssg18
(dp74
g19
I2
ssg20
(dp75
g21
I1
ssg17
(dp76
g17
I0
ssg16
(dp77
g17
I1
sssb.