ccopy_reg
_reconstructor
p0
(cutils.eval
ConfusionMatrix
p1
c__builtin__
object
p2
Ntp3
Rp4
(dp5
S'labels'
p6
(lp7
S'cheese.n.01'
p8
aS'slice.v.03'
p9
aS'slice.v.02'
p10
aS'cut.v.01'
p11
aS'swerve.v.01'
p12
aS'bacon.n.01'
p13
aS'bacon.n.03'
p14
aS'meat.n.01'
p15
aS'kernel.n.01'
p16
aS'cleaver.n.01'
p17
aS'bread.n.01'
p18
aS'knife.n.01'
p19
aS'lemon.n.01'
p20
aS'lemon.n.04'
p21
aS'put.v.01'
p22
aS'invest.v.01'
p23
aS'pan.n.03'
p24
aS'pan.n.01'
p25
aS'pizza.n.01'
p26
aS'piece.n.08'
p27
aS'slice.n.01'
p28
aS'banana.n.02'
p29
asS'instanceCount'
p30
I21
sS'matrix'
p31
(dp32
g8
(dp33
S'cheese.n.01'
p34
I1
ssg12
(dp35
g12
I0
ssg23
(dp36
g23
I0
ssg18
(dp37
S'bread.n.01'
p38
I1
ssg25
(dp39
g25
I0
ssg24
(dp40
g25
I1
ssg11
(dp41
g12
I4
ssg14
(dp42
g14
I0
ssg13
(dp43
g14
I1
ssg15
(dp44
g16
I1
ssg17
(dp45
S'cleaver.n.01'
p46
I1
ssg10
(dp47
g10
I0
ssg9
(dp48
g10
I3
ssg19
(dp49
S'knife.n.01'
p50
I2
ssg29
(dp51
S'banana.n.02'
p52
I1
ssg27
(dp53
g28
I1
ssg28
(dp54
g28
I0
ssg22
(dp55
g23
I1
ssg26
(dp56
S'pizza.n.01'
p57
I2
ssg21
(dp58
g21
I0
ssg16
(dp59
g16
I0
ssg20
(dp60
g21
I1
sssb.