ccopy_reg
_reconstructor
p0
(cutils.eval
ConfusionMatrix
p1
c__builtin__
object
p2
Ntp3
Rp4
(dp5
S'labels'
p6
(lp7
S'cut.v.01'
p8
aS'swerve.v.01'
p9
aS'lemon.n.01'
p10
aS'lemon.n.04'
p11
aS'put.v.01'
p12
aS'invest.v.01'
p13
aS'pan.n.03'
p14
aS'pan.n.01'
p15
aS'pizza.n.01'
p16
aS'piece.n.08'
p17
aS'slice.n.01'
p18
aS'slice.v.03'
p19
aS'slice.v.02'
p20
aS'knife.n.01'
p21
aS'banana.n.02'
p22
aS'cake.n.03'
p23
aS'patty.n.01'
p24
aS'whipped_cream.n.01'
p25
aS'onion.n.01'
p26
aS'beef.n.02'
p27
aS'beef.n.01'
p28
aS'plate.n.04'
p29
aS'plate.n.12'
p30
aS'fill.v.01'
p31
aS'fill.v.09'
p32
aS'foam.n.01'
p33
aS'mug.n.04'
p34
aS'flesh.n.01'
p35
asS'instanceCount'
p36
I23
sS'matrix'
p37
(dp38
g30
(dp39
g30
I0
ssg13
(dp40
g13
I0
ssg9
(dp41
g9
I0
ssg27
(dp42
g28
I1
ssg28
(dp43
g28
I0
ssg31
(dp44
g32
I1
ssg15
(dp45
g15
I0
ssg14
(dp46
g15
I1
ssg8
(dp47
g9
I1
ssg32
(dp48
g32
I0
ssg24
(dp49
g24
I0
ssg20
(dp50
g20
I0
ssg19
(dp51
g20
I3
ssg21
(dp52
S'knife.n.01'
p53
I1
ssg22
(dp54
S'banana.n.02'
p55
I1
ssg29
(dp56
g30
I1
ssg33
(dp57
S'foam.n.01'
p58
I1
ssg25
(dp59
S'whipped_cream.n.01'
p60
I1
ssg17
(dp61
g18
I1
ssg34
(dp62
S'mug.n.04'
p63
I1
ssg35
(dp64
S'flesh.n.01'
p65
I1
ssg18
(dp66
g18
I0
ssg12
(dp67
g13
I3
ssg16
(dp68
S'pizza.n.01'
p69
I2
ssg11
(dp70
g11
I0
ssg23
(dp71
g24
I1
ssg10
(dp72
g11
I1
ssg26
(dp73
S'onion.n.01'
p74
I1
sssb.