ccopy_reg
_reconstructor
p0
(cutils.eval
ConfusionMatrix
p1
c__builtin__
object
p2
Ntp3
Rp4
(dp5
S'labels'
p6
(lp7
S'piece.n.08'
p8
aS'pizza.n.01'
p9
aS'slice.v.03'
p10
aS'knife.n.01'
p11
aS'banana.n.02'
p12
aS'bacon.n.01'
p13
aS'bread.n.01'
p14
aS'cheese.n.01'
p15
aS'orange.n.01'
p16
aS'flesh.n.01'
p17
aS'pulp.n.02'
p18
aS'cabbage.n.01'
p19
aS'tomato.n.01'
p20
aS'meat.n.01'
p21
aS'cleaver.n.01'
p22
asS'instanceCount'
p23
I26
sS'matrix'
p24
(dp25
g10
(dp26
S'slice.v.03'
p27
I10
ssg11
(dp28
S'knife.n.01'
p29
I3
ssg12
(dp30
S'banana.n.02'
p31
I1
ssg15
(dp32
S'cheese.n.01'
p33
I1
ssg20
(dp34
S'tomato.n.01'
p35
I1
ssg17
(dp36
g18
I1
ssg13
(dp37
S'bacon.n.01'
p38
I1
ssg9
(dp39
S'pizza.n.01'
p40
I1
ssg16
(dp41
S'orange.n.01'
p42
I1
ssg21
(dp43
S'meat.n.01'
p44
I1
ssg19
(dp45
S'cabbage.n.01'
p46
I1
ssg8
(dp47
S'piece.n.08'
p48
I2
ssg14
(dp49
S'bread.n.01'
p50
I1
ssg18
(dp51
g18
I0
ssg22
(dp52
S'cleaver.n.01'
p53
I1
sssb.