ccopy_reg
_reconstructor
p0
(cutils.eval
ConfusionMatrix
p1
c__builtin__
object
p2
Ntp3
Rp4
(dp5
S'labels'
p6
(lp7
S'ice.n.01'
p8
aS'ice.n.05'
p9
aS'fill.v.01'
p10
aS'bowl.n.01'
p11
aS'tomato.n.01'
p12
aS'tomato.n.02'
p13
aS'piece.n.08'
p14
aS'slice.n.04'
p15
aS'onion.n.03'
p16
aS'onion.n.02'
p17
aS'mustard.n.02'
p18
aS'cut.n.16'
p19
aS'edit.v.03'
p20
aS'bag.n.01'
p21
aS'bag.n.04'
p22
aS'serve.v.05'
p23
aS'serve.v.11'
p24
aS'cut.v.01'
p25
aS'slice.n.06'
p26
aS'kettle.n.01'
p27
aS'water.n.06'
p28
aS'jar.n.01'
p29
aS'gravy.n.01'
p30
aS'gravy.n.02'
p31
aS'thermos.n.01'
p32
aS'coffee.n.01'
p33
aS'pot.n.01'
p34
aS'add.v.01'
p35
aS'lend.v.01'
p36
aS'mixing_bowl.n.01'
p37
aS'butter.n.01'
p38
aS'sugar.n.01'
p39
aS'boodle.n.01'
p40
aS'rum.n.01'
p41
aS'shaker.n.03'
p42
aS'take.v.04'
p43
aS'bring.v.01'
p44
aS'decant.v.01'
p45
aS'pour.v.01'
p46
aS'carve.v.03'
p47
aS'hack.v.07'
p48
aS'pepper.n.04'
p49
aS'pepper.n.03'
p50
aS'onion.n.01'
p51
aS'put.v.01'
p52
aS'put.v.02'
p53
aS'blend.v.01'
p54
aS'bowl.n.08'
p55
aS'bread.n.01'
p56
aS'pan.n.01'
p57
aS'pan.n.03'
p58
aS'mix.n.03'
p59
aS'cut.v.32'
p60
aS'squash.n.02'
p61
aS'squash.n.01'
p62
aS'walnut.n.01'
p63
aS'walnut.n.02'
p64
aS'get.v.01'
p65
aS'make.v.02'
p66
aS'pear.n.01'
p67
aS'blend.v.03'
p68
aS'mix.v.05'
p69
aS'bowl.n.03'
p70
asS'instanceCount'
p71
I49
sS'matrix'
p72
(dp73
g47
(dp74
g48
I1
ssg66
(dp75
g66
I0
ssg37
(dp76
S'mixing_bowl.n.01'
p77
I1
ssg53
(dp78
g53
I0
ssg70
(dp79
g70
I0
ssg23
(dp80
g24
I1
ssg52
(dp81
g53
I1
ssg43
(dp82
g44
I1
ssg68
(dp83
g69
I1
ssg55
(dp84
g55
I0
ssg35
(dp85
g36
I1
ssg57
(dp86
g58
I1
ssg18
(dp87
S'mustard.n.02'
p88
I1
ssg25
(dp89
S'edit.v.03'
p90
I1
sg60
I1
ssg50
(dp91
g50
I0
ssg11
(dp92
g70
I1
sS'bowl.n.01'
p93
I1
sg55
I1
ssg13
(dp94
g13
I0
ssg12
(dp95
g13
I1
ssg34
(dp96
S'pot.n.01'
p97
I1
ssg67
(dp98
S'pear.n.01'
p99
I1
ssg10
(dp100
S'fill.v.01'
p101
I5
ssg22
(dp102
g22
I0
ssg63
(dp103
g64
I1
ssg39
(dp104
g40
I1
ssg21
(dp105
g22
I1
ssg61
(dp106
g62
I1
ssg49
(dp107
g50
I1
ssg46
(dp108
g46
I1
ssg60
(dp109
g60
I0
ssg62
(dp110
g62
I0
ssg30
(dp111
g31
I1
ssg48
(dp112
g48
I0
ssg31
(dp113
g31
I0
ssg56
(dp114
S'bread.n.01'
p115
I1
ssg54
(dp116
S'blend.v.01'
p117
I1
ssg65
(dp118
g66
I1
ssg33
(dp119
S'coffee.n.01'
p120
I1
ssg59
(dp121
S'mix.n.03'
p122
I1
ssg20
(dp123
g20
I0
ssg58
(dp124
g58
I0
ssg42
(dp125
S'shaker.n.03'
p126
I1
ssg40
(dp127
g40
I0
ssg64
(dp128
g64
I0
ssg24
(dp129
g24
I0
ssg44
(dp130
g44
I0
ssg69
(dp131
g69
I0
ssg14
(dp132
g26
I1
sg15
I1
ssg41
(dp133
S'rum.n.01'
p134
I1
ssg32
(dp135
S'thermos.n.01'
p136
I1
ssg26
(dp137
g26
I0
ssg28
(dp138
S'water.n.06'
p139
I2
ssg15
(dp140
g15
I0
ssg45
(dp141
g46
I1
ssg8
(dp142
g9
I1
ssg27
(dp143
S'kettle.n.01'
p144
I1
ssg9
(dp145
g9
I0
ssg36
(dp146
g36
I0
ssg29
(dp147
S'jar.n.01'
p148
I1
ssg19
(dp149
g20
I1
ssg51
(dp150
S'onion.n.01'
p151
I1
ssg38
(dp152
S'butter.n.01'
p153
I1
ssg16
(dp154
g17
I1
ssg17
(dp155
g17
I0
sssb.