ccopy_reg
_reconstructor
p0
(cutils.eval
ConfusionMatrix
p1
c__builtin__
object
p2
Ntp3
Rp4
(dp5
S'labels'
p6
(lp7
S'fill.v.01'
p8
aS'fill.v.09'
p9
aS'foam.n.01'
p10
aS'mug.n.04'
p11
aS'pan.n.01'
p12
aS'water.n.06'
p13
asS'instanceCount'
p14
I6
sS'matrix'
p15
(dp16
g12
(dp17
S'pan.n.01'
p18
I1
ssg11
(dp19
S'mug.n.04'
p20
I1
ssg9
(dp21
g9
I0
ssg13
(dp22
S'water.n.06'
p23
I1
ssg8
(dp24
g9
I2
ssg10
(dp25
S'foam.n.01'
p26
I1
sssb.