ccopy_reg
_reconstructor
p0
(cutils.eval
ConfusionMatrix
p1
c__builtin__
object
p2
Ntp3
Rp4
(dp5
S'labels'
p6
(lp7
S'Amount'
p8
aS'Liquid'
p9
aS'ActionVerb'
p10
asS'instanceCount'
p11
I37
sS'matrix'
p12
(dp13
g8
(dp14
g8
I9
sg10
I0
sg9
I0
ssg10
(dp15
g8
I0
sg10
I14
sg9
I0
ssg9
(dp16
g8
I0
sg10
I0
sg9
I14
sssb.