ccopy_reg
_reconstructor
p0
(cutils.eval
ConfusionMatrix
p1
c__builtin__
object
p2
Ntp3
Rp4
(dp5
S'labels'
p6
(lp7
S'cup.n.01'
p8
aS'fill.v.01'
p9
aS'cola.n.02'
p10
aS'measuring_cup.n.01'
p11
aS'meal.n.03'
p12
aS'piece.n.08'
p13
aS'slice.n.06'
p14
aS'pizza.n.01'
p15
aS'slice.v.03'
p16
aS'put.v.01'
p17
aS'put.v.02'
p18
aS'oven.n.01'
p19
aS'lodge.v.02'
p20
aS'stick.v.08'
p21
aS'pan.n.01'
p22
aS'pan.n.03'
p23
aS'tomato.n.01'
p24
aS'slice.n.04'
p25
aS'onion.n.03'
p26
aS'onion.n.01'
p27
aS'mustard.n.02'
p28
aS'walnut.n.01'
p29
aS'walnut.n.02'
p30
aS'get.v.01'
p31
aS'make.v.02'
p32
aS'pear.n.01'
p33
aS'pear.n.02'
p34
aS'blend.v.03'
p35
aS'mix.v.05'
p36
aS'bowl.n.01'
p37
aS'bowl.n.08'
p38
aS'bleu.n.01'
p39
aS'cut.v.01'
p40
aS'cut.v.32'
p41
aS'squash.n.02'
p42
aS'squash.n.01'
p43
aS'knife.n.01'
p44
aS'tongue.n.03'
p45
aS'banana.n.02'
p46
aS'bread.n.01'
p47
aS'ice.n.01'
p48
aS'ice.n.05'
p49
aS'rum.n.01'
p50
aS'shaker.n.03'
p51
aS'take.v.04'
p52
aS'assume.v.03'
p53
aS'decant.v.01'
p54
aS'pour.v.01'
p55
aS'pot.n.01'
p56
aS'water.n.06'
p57
aS'add.v.01'
p58
aS'lend.v.01'
p59
aS'saltcellar.n.01'
p60
aS'salt.n.02'
p61
aS'pepper.n.03'
p62
aS'salt.n.04'
p63
aS'egg.n.02'
p64
aS'egg.n.01'
p65
aS'flesh.n.01'
p66
aS'human_body.n.01'
p67
aS'jar.n.01'
p68
aS'chicken.n.01'
p69
aS'wimp.n.01'
p70
aS'corn.n.02'
p71
aS'corn.n.03'
p72
aS'chop.v.01'
p73
aS'chop.v.05'
p74
aS'whiskey.n.01'
p75
aS'carafe.n.01'
p76
aS'burner.n.02'
p77
aS'burner.n.01'
p78
aS'pan.n.02'
p79
aS'butter.n.01'
p80
aS'vanilla.n.02'
p81
aS'vanilla.n.03'
p82
aS'beef.n.02'
p83
aS'gripe.n.01'
p84
aS'plate.n.04'
p85
aS'plate.n.13'
p86
aS'liquid.n.01'
p87
aS'sink.n.01'
p88
aS'cesspool.n.01'
p89
aS'butter.n.02'
p90
aS'dough.n.01'
p91
aS'mix.v.04'
p92
aS'blender.n.01'
p93
aS'apple.n.01'
p94
aS'avocado.n.01'
p95
aS'opening.n.01'
p96
aS'gap.n.03'
p97
aS'fill.v.09'
p98
aS'batter.n.02'
p99
aS'mix.n.03'
p100
aS'fork.n.01'
p101
aS'fork.n.03'
p102
aS'kettle.n.01'
p103
aS'opening.n.10'
p104
aS'curd.n.01'
p105
aS'teapot.n.01'
p106
aS'water_system.n.02'
p107
aS'rice.n.01'
p108
aS'concoction.n.01'
p109
aS'thermos.n.01'
p110
aS'coffee.n.01'
p111
aS'mixture.n.01'
p112
asS'instanceCount'
p113
I116
sS'matrix'
p114
(dp115
g37
(dp116
S'bowl.n.01'
p117
I1
sg38
I2
ssg38
(dp118
g38
I0
ssg40
(dp119
g41
I1
ssg97
(dp120
g97
I0
ssg11
(dp121
S'measuring_cup.n.01'
p122
I1
ssg30
(dp123
g30
I0
ssg101
(dp124
g102
I1
ssg29
(dp125
g30
I1
ssg67
(dp126
g67
I0
ssg75
(dp127
S'whiskey.n.01'
p128
I1
ssg96
(dp129
g104
I1
sg97
I1
ssg66
(dp130
g67
I1
ssg107
(dp131
g107
I0
ssg93
(dp132
S'blender.n.01'
p133
I1
ssg18
(dp134
g18
I0
ssg17
(dp135
g18
I2
ssg55
(dp136
g55
I3
ssg45
(dp137
g45
I0
ssg68
(dp138
S'jar.n.01'
p139
I1
ssg76
(dp140
S'carafe.n.01'
p141
I1
ssg54
(dp142
g55
I1
ssg69
(dp143
g70
I1
ssg88
(dp144
g89
I1
ssg104
(dp145
g104
I0
ssg39
(dp146
S'bleu.n.01'
p147
I1
ssg57
(dp148
g107
I1
sS'water.n.06'
p149
I4
ssg21
(dp150
g21
I0
ssg95
(dp151
S'avocado.n.01'
p152
I1
ssg94
(dp153
S'apple.n.01'
p154
I1
ssg58
(dp155
g59
I5
ssg22
(dp156
g23
I3
sg79
I1
ssg23
(dp157
g23
I0
ssg79
(dp158
g79
I0
ssg46
(dp159
S'banana.n.02'
p160
I1
ssg8
(dp161
S'cup.n.01'
p162
I1
ssg62
(dp163
S'pepper.n.03'
p164
I1
ssg82
(dp165
g82
I0
ssg81
(dp166
g82
I1
sS'vanilla.n.02'
p167
I1
ssg16
(dp168
S'slice.v.03'
p169
I3
ssg91
(dp170
S'dough.n.01'
p171
I1
ssg31
(dp172
g32
I1
ssg84
(dp173
g84
I0
ssg50
(dp174
S'rum.n.01'
p175
I1
ssg51
(dp176
S'shaker.n.03'
p177
I1
ssg106
(dp178
S'teapot.n.01'
p179
I1
ssg48
(dp180
g49
I1
ssg103
(dp181
S'kettle.n.01'
p182
I1
ssg49
(dp183
g49
I0
ssg59
(dp184
g59
I0
ssg105
(dp185
S'curd.n.01'
p186
I1
ssg27
(dp187
g27
I0
sS'onion.n.03'
p188
I1
ssg26
(dp189
g27
I1
ssg12
(dp190
S'meal.n.03'
p191
I1
ssg72
(dp192
g72
I0
ssg71
(dp193
g72
I1
ssg83
(dp194
g84
I1
ssg20
(dp195
g21
I1
ssg32
(dp196
g32
I0
ssg52
(dp197
g53
I1
ssg28
(dp198
S'mustard.n.02'
p199
I1
ssg98
(dp200
S'fill.v.01'
p201
I2
ssg56
(dp202
S'pot.n.01'
p203
I1
ssg9
(dp204
S'fill.v.01'
p205
I12
ssg34
(dp206
g34
I0
ssg33
(dp207
g34
I1
ssg43
(dp208
g43
I0
ssg42
(dp209
g43
I1
ssg109
(dp210
g112
I1
sS'mix.n.03'
p211
I1
ssg61
(dp212
S'salt.n.02'
p213
I1
sg63
I1
ssg44
(dp214
g45
I1
ssg63
(dp215
g63
I0
ssg85
(dp216
g86
I1
ssg112
(dp217
g112
I0
ssg111
(dp218
S'coffee.n.01'
p219
I1
ssg19
(dp220
S'oven.n.01'
p221
I1
ssg14
(dp222
g14
I0
ssg25
(dp223
g25
I0
ssg15
(dp224
S'pizza.n.01'
p225
I2
ssg77
(dp226
g78
I1
ssg78
(dp227
g78
I0
ssg86
(dp228
g86
I0
ssg110
(dp229
S'thermos.n.01'
p230
I1
ssg47
(dp231
S'bread.n.01'
p232
I2
ssg99
(dp233
S'batter.n.02'
p234
I1
ssg70
(dp235
g70
I0
ssg10
(dp236
S'cola.n.02'
p237
I1
ssg60
(dp238
S'saltcellar.n.01'
p239
I1
ssg64
(dp240
g65
I3
ssg24
(dp241
S'tomato.n.01'
p242
I1
ssg53
(dp243
g53
I0
ssg74
(dp244
g74
I0
ssg73
(dp245
g74
I1
ssg92
(dp246
S'mix.v.05'
p247
I1
ssg36
(dp248
g36
I0
ssg35
(dp249
g36
I4
ssg102
(dp250
g102
I0
ssg100
(dp251
S'mix.n.03'
p252
I1
ssg13
(dp253
g14
I3
sg25
I1
ssg89
(dp254
g89
I0
ssg65
(dp255
g65
I0
ssg108
(dp256
S'rice.n.01'
p257
I1
ssg41
(dp258
g41
I0
ssg90
(dp259
g90
I0
ssg87
(dp260
S'liquid.n.01'
p261
I1
ssg80
(dp262
g90
I1
sS'butter.n.01'
p263
I1
sssb.