ccopy_reg
_reconstructor
p0
(cutils.eval
ConfusionMatrix
p1
c__builtin__
object
p2
Ntp3
Rp4
(dp5
S'labels'
p6
(lp7
S'ice.n.01'
p8
aS'ice.n.05'
p9
aS'fill.v.01'
p10
aS'bowl.n.01'
p11
aS'fork.n.01'
p12
aS'branching.n.01'
p13
aS'bowl.n.08'
p14
aS'blend.v.03'
p15
aS'mix.v.05'
p16
aS'bread.n.01'
p17
aS'piece.n.08'
p18
aS'slice.n.06'
p19
aS'jar.n.01'
p20
aS'mug.n.04'
p21
aS'opening.n.01'
p22
aS'gap.n.03'
p23
aS'fill.v.09'
p24
aS'batter.n.02'
p25
aS'knife.n.01'
p26
aS'tongue.n.03'
p27
aS'banana.n.02'
p28
aS'slice.v.03'
p29
aS'glass.n.02'
p30
aS'milk.n.01'
p31
aS'strawberry.n.01'
p32
aS'cut.v.01'
p33
aS'edit.v.03'
p34
aS'put.v.01'
p35
aS'put.v.02'
p36
aS'lodge.v.02'
p37
aS'stick.v.08'
p38
aS'pizza.n.01'
p39
aS'pan.n.01'
p40
aS'pan.n.03'
p41
aS'measuring_cup.n.01'
p42
aS'meal.n.03'
p43
aS'add.v.01'
p44
aS'lend.v.01'
p45
aS'mixing_bowl.n.01'
p46
aS'butter.n.01'
p47
aS'sugar.n.01'
p48
aS'boodle.n.01'
p49
aS'avocado.n.01'
p50
aS'thermos.n.01'
p51
aS'coffee.n.01'
p52
aS'pepper.n.03'
p53
aS'salt.n.02'
p54
aS'salt.n.04'
p55
aS'egg.n.02'
p56
aS'egg.n.01'
p57
aS'cut.v.32'
p58
aS'squash.n.02'
p59
aS'squash.n.01'
p60
aS'liquid.n.01'
p61
aS'pour.v.01'
p62
aS'sink.n.01'
p63
aS'cesspool.n.01'
p64
aS'chicken.n.01'
p65
aS'wimp.n.01'
p66
aS'corn.n.02'
p67
aS'corn.n.03'
p68
aS'chop.v.01'
p69
aS'chop.v.05'
p70
aS'vanilla.n.02'
p71
aS'vanilla.n.03'
p72
aS'concoction.n.01'
p73
aS'opening.n.10'
p74
aS'curd.n.01'
p75
aS'tomato.n.01'
p76
aS'tomato.n.02'
p77
aS'slice.n.04'
p78
aS'onion.n.03'
p79
aS'onion.n.02'
p80
aS'mustard.n.02'
p81
aS'pitcher.n.02'
p82
aS'mix.n.03'
p83
aS'cut.n.16'
p84
aS'bag.n.01'
p85
aS'bag.n.04'
p86
aS'cup.n.01'
p87
aS'cola.n.02'
p88
aS'carve.v.03'
p89
aS'hack.v.07'
p90
aS'pepper.n.04'
p91
aS'onion.n.01'
p92
aS'sauce.n.01'
p93
aS'beef.n.02'
p94
aS'gripe.n.01'
p95
aS'plate.n.04'
p96
aS'plate.n.13'
p97
aS'flesh.n.01'
p98
aS'human_body.n.01'
p99
aS'slice.v.02'
p100
aS'rum.n.01'
p101
aS'shaker.n.03'
p102
aS'take.v.04'
p103
aS'assume.v.03'
p104
aS'decant.v.01'
p105
aS'whiskey.n.01'
p106
aS'carafe.n.01'
p107
aS'cover.v.01'
p108
aS'cover.v.16'
p109
aS'rib.n.03'
p110
aS'rib.n.01'
p111
aS'teapot.n.01'
p112
aS'water.n.06'
p113
aS'apple.n.01'
p114
aS'saltcellar.n.01'
p115
aS'wok.n.01'
p116
aS'rice.n.01'
p117
aS'kettle.n.01'
p118
aS'burner.n.02'
p119
aS'burner.n.01'
p120
aS'pan.n.02'
p121
aS'cheese.n.01'
p122
aS'pot.n.01'
p123
aS'serve.v.05'
p124
aS'serve.v.11'
p125
aS'gravy.n.01'
p126
aS'gravy.n.02'
p127
aS'water_system.n.02'
p128
aS'blend.v.01'
p129
aS'bottle.n.01'
p130
aS'fruit_juice.n.01'
p131
aS'walnut.n.01'
p132
aS'walnut.n.02'
p133
aS'get.v.01'
p134
aS'make.v.02'
p135
aS'pear.n.01'
p136
aS'pear.n.02'
p137
aS'dough.n.01'
p138
aS'mix.v.04'
p139
aS'corn_whiskey.n.01'
p140
aS'slice.n.05'
p141
aS'chicken.n.02'
p142
aS'bowl.n.03'
p143
aS'cover.v.23'
p144
aS'rib.n.06'
p145
aS'stadium.n.01'
p146
aS'bring.v.04'
p147
aS'roll.n.15'
p148
aS'plate.n.10'
p149
aS'bring.v.01'
p150
aS'methamphetamine.n.01'
p151
asS'instanceCount'
p152
I928
sS'matrix'
p153
(dp154
g143
(dp155
g143
I0
sS'bowl.n.01'
p156
I0
sS'bowl.n.08'
p157
I0
sS'cut.v.01'
p158
I0
sS'measuring_cup.n.01'
p159
I0
sS'walnut.n.02'
p160
I0
sS'fork.n.01'
p161
I0
sS'walnut.n.01'
p162
I0
sS'opening.n.01'
p163
I0
sS'put.v.02'
p164
I0
sS'put.v.01'
p165
I0
sS'pour.v.01'
p166
I0
sS'tongue.n.03'
p167
I0
sS'jar.n.01'
p168
I0
sS'chicken.n.01'
p169
I0
sS'sink.n.01'
p170
I0
sS'water_system.n.02'
p171
I0
sS'water.n.06'
p172
I0
sS'avocado.n.01'
p173
I0
sS'opening.n.10'
p174
I0
sS'add.v.01'
p175
I0
sS'pan.n.01'
p176
I0
sS'banana.n.02'
p177
I0
sS'cup.n.01'
p178
I0
sS'vanilla.n.03'
p179
I0
sS'vanilla.n.02'
p180
I0
sS'slice.v.03'
p181
I0
sS'dough.n.01'
p182
I0
sS'get.v.01'
p183
I0
sS'pepper.n.03'
p184
I0
sS'egg.n.01'
p185
I0
sS'fruit_juice.n.01'
p186
I0
sS'ice.n.01'
p187
I0
sS'ice.n.05'
p188
I0
sS'lend.v.01'
p189
I0
sS'curd.n.01'
p190
I0
sS'onion.n.03'
p191
I0
sS'meal.n.03'
p192
I0
sS'strawberry.n.01'
p193
I0
sS'corn.n.03'
p194
I0
sS'corn.n.02'
p195
I0
sS'lodge.v.02'
p196
I0
sS'make.v.02'
p197
I0
sS'mixing_bowl.n.01'
p198
I0
sS'stick.v.08'
p199
I0
sS'mustard.n.02'
p200
I0
sS'fill.v.09'
p201
I0
sS'bottle.n.01'
p202
I0
sS'fill.v.01'
p203
I0
sS'pitcher.n.02'
p204
I0
sS'pear.n.01'
p205
I0
sS'squash.n.01'
p206
I0
sS'squash.n.02'
p207
I0
sS'concoction.n.01'
p208
I0
sS'salt.n.02'
p209
I0
sS'knife.n.01'
p210
I0
sS'salt.n.04'
p211
I0
sS'coffee.n.01'
p212
I0
sS'branching.n.01'
p213
I0
sS'mug.n.04'
p214
I0
sS'slice.n.06'
p215
I0
sS'slice.n.04'
p216
I0
sS'pizza.n.01'
p217
I0
sS'cut.n.16'
p218
I0
sS'rice.n.01'
p219
I0
sS'bread.n.01'
p220
I0
sS'batter.n.02'
p221
I0
sS'wimp.n.01'
p222
I0
sS'milk.n.01'
p223
I0
sS'cola.n.02'
p224
I0
sS'egg.n.02'
p225
I0
sS'butter.n.01'
p226
I0
sS'bag.n.04'
p227
I0
sS'chop.v.05'
p228
I0
sS'bag.n.01'
p229
I0
sS'chop.v.01'
p230
I0
sS'mix.v.04'
p231
I0
sS'mix.v.05'
p232
I0
sS'glass.n.02'
p233
I0
sS'blend.v.03'
p234
I0
sS'blend.v.01'
p235
I0
sS'mix.n.03'
p236
I0
sS'edit.v.03'
p237
I0
sS'boodle.n.01'
p238
I0
sS'piece.n.08'
p239
I0
sS'cesspool.n.01'
p240
I0
sS'gap.n.03'
p241
I0
sS'thermos.n.01'
p242
I0
sS'cut.v.32'
p243
I0
sS'tomato.n.02'
p244
I0
sS'liquid.n.01'
p245
I0
sS'onion.n.02'
p246
I0
sS'tomato.n.01'
p247
I0
sS'sugar.n.01'
p248
I0
ssg11
(dp249
g143
I1
sg11
I6
sg14
I13
sg33
I0
sg108
I0
sg42
I0
sg126
I0
sg127
I0
sg110
I0
sg111
I0
sg133
I0
sg145
I0
sg12
I0
sg132
I0
sg147
I0
sg125
I0
sg99
I0
sg150
I0
sg106
I0
sg22
I0
sg98
I0
sg36
I0
sg35
I0
sg102
I0
sg62
I0
sg93
I0
sg27
I0
sg20
I0
sg107
I0
sg105
I0
sg138
I0
sg65
I0
sg63
I0
sg142
I0
sg128
I0
sg151
I0
sg113
I0
sg103
I0
sg50
I0
sg74
I0
sS'slice.n.05'
p250
I0
sg44
I0
sg137
I0
sg40
I0
sg41
I0
sg121
I0
sg23
I0
sg87
I0
sg72
I0
sg71
I0
sg100
I0
sg29
I0
sg28
I0
sg134
I0
sg116
I0
sg91
I0
sg53
I0
sg101
I0
sg95
I0
sg146
I3
sg131
I0
sg112
I0
sg8
I0
sg118
I0
sg9
I0
sg83
I0
sg75
I0
sg92
I0
sg79
I0
sg80
I0
sg32
I0
sg68
I0
sg67
I0
sg94
I0
sg89
I0
sg37
I0
sg135
I0
sg46
I0
sg149
I0
sg38
I0
sg81
I0
sg24
I0
sg130
I0
sg123
I0
sg10
I0
sg82
I0
sg136
I0
sg60
I0
sg59
I0
sg73
I0
sg54
I0
sg26
I0
sg55
I0
sg96
I0
sg52
I0
sg13
I0
sS'corn_whiskey.n.01'
p251
I0
sg114
I0
sg21
I0
sg19
I0
sg124
I0
sg78
I0
sg39
I0
sg84
I0
sg119
I0
sg120
I0
sg97
I0
sg122
I0
sg117
I0
sg90
I0
sg144
I0
sg17
I0
sg25
I0
sg66
I0
sg31
I0
sg88
I0
sg115
I0
sg56
I0
sg47
I0
sg86
I0
sg104
I0
sg70
I0
sg85
I0
sg69
I0
sg139
I0
sg16
I0
sg30
I0
sg15
I0
sg129
I0
sg45
I0
sg34
I0
sg49
I0
sg18
I0
sg64
I0
sg57
I0
sg51
I0
sg58
I0
sg109
I0
sg77
I0
sg61
I0
sg43
I0
sg76
I0
sg148
I1
sg48
I0
ssg14
(dp252
g143
I0
sg11
I0
sg14
I0
sg33
I0
sg108
I0
sg42
I0
sg126
I0
sg127
I0
sg110
I0
sg111
I0
sg133
I0
sg145
I0
sg12
I0
sg132
I0
sg147
I0
sg125
I0
sg99
I0
sg150
I0
sg106
I0
sg22
I0
sg98
I0
sg36
I0
sg35
I0
sg102
I0
sg62
I0
sg93
I0
sg27
I0
sg20
I0
sg107
I0
sg105
I0
sg138
I0
sg65
I0
sg63
I0
sg142
I0
sg128
I0
sg151
I0
sg113
I0
sg103
I0
sg50
I0
sg74
I0
sg250
I0
sg44
I0
sg137
I0
sg40
I0
sg41
I0
sg121
I0
sg23
I0
sg87
I0
sg72
I0
sg71
I0
sg100
I0
sg29
I0
sg28
I0
sg134
I0
sg116
I0
sg91
I0
sg53
I0
sg101
I0
sg95
I0
sg146
I0
sg131
I0
sg112
I0
sg8
I0
sg118
I0
sg9
I0
sg83
I0
sg75
I0
sg92
I0
sg79
I0
sg80
I0
sg32
I0
sg68
I0
sg67
I0
sg94
I0
sg89
I0
sg37
I0
sg135
I0
sg46
I0
sg149
I0
sg38
I0
sg81
I0
sg24
I0
sg130
I0
sg123
I0
sg10
I0
sg82
I0
sg136
I0
sg60
I0
sg59
I0
sg73
I0
sg54
I0
sg26
I0
sg55
I0
sg96
I0
sg52
I0
sg13
I0
sg251
I0
sg114
I0
sg21
I0
sg19
I0
sg124
I0
sg78
I0
sg39
I0
sg84
I0
sg119
I0
sg120
I0
sg97
I0
sg122
I0
sg117
I0
sg90
I0
sg144
I0
sg17
I0
sg25
I0
sg66
I0
sg31
I0
sg88
I0
sg115
I0
sg56
I0
sg47
I0
sg86
I0
sg104
I0
sg70
I0
sg85
I0
sg69
I0
sg139
I0
sg16
I0
sg30
I0
sg15
I0
sg129
I0
sg45
I0
sg34
I0
sg49
I0
sg18
I0
sg64
I0
sg57
I0
sg51
I0
sg58
I0
sg109
I0
sg77
I0
sg61
I0
sg43
I0
sg76
I0
sg148
I0
sg48
I0
ssg33
(dp253
g143
I0
sg11
I0
sg14
I0
sg33
I3
sg108
I0
sg42
I0
sg126
I0
sg127
I0
sg110
I0
sg111
I0
sg133
I0
sg145
I0
sg12
I0
sg132
I0
sg147
I0
sg125
I0
sg99
I0
sg150
I0
sg106
I0
sg22
I0
sg98
I0
sg36
I0
sg35
I0
sg102
I0
sg62
I0
sg93
I0
sg27
I0
sg20
I0
sg107
I0
sg105
I0
sg138
I0
sg65
I0
sg63
I0
sg142
I0
sg128
I0
sg151
I0
sg113
I0
sg103
I0
sg50
I0
sg74
I0
sg141
I0
sg44
I0
sg137
I0
sg40
I0
sg41
I0
sg121
I0
sg23
I0
sg87
I0
sg72
I0
sg71
I0
sg100
I0
sg29
I0
sg28
I0
sg134
I0
sg116
I0
sg91
I0
sg53
I0
sg101
I0
sg95
I0
sg146
I0
sg131
I0
sg112
I0
sg8
I0
sg118
I0
sg9
I0
sg83
I0
sg75
I0
sg92
I0
sg79
I0
sg80
I0
sg32
I0
sg68
I0
sg67
I0
sg94
I0
sg89
I0
sg37
I0
sg135
I0
sg46
I0
sg149
I0
sg38
I0
sg81
I0
sg24
I0
sg130
I0
sg123
I0
sg10
I0
sg82
I0
sg136
I0
sg60
I0
sg59
I0
sg73
I0
sg54
I0
sg26
I0
sg55
I0
sg96
I0
sg52
I0
sg13
I0
sg140
I0
sg114
I0
sg21
I0
sg19
I0
sg124
I0
sg78
I0
sg39
I0
sg84
I0
sg119
I0
sg120
I0
sg97
I0
sg122
I0
sg117
I0
sg90
I0
sg144
I0
sg17
I0
sg25
I0
sg66
I0
sg31
I0
sg88
I0
sg115
I0
sg56
I0
sg47
I0
sg86
I0
sg104
I0
sg70
I0
sg85
I0
sg69
I0
sg139
I0
sg16
I0
sg30
I0
sg15
I0
sg129
I0
sg45
I0
sg34
I9
sg49
I0
sg18
I0
sg64
I0
sg57
I0
sg51
I0
sg58
I6
sg109
I0
sg77
I0
sg61
I0
sg43
I0
sg76
I0
sg148
I0
sg48
I0
ssg108
(dp254
S'bowl.n.01'
p255
I0
sS'bowl.n.08'
p256
I0
sS'cut.v.01'
p257
I0
sS'banana.n.02'
p258
I0
sg108
I0
sS'measuring_cup.n.01'
p259
I0
sg126
I0
sg127
I0
sg110
I0
sg111
I0
sg133
I0
sg145
I0
sS'fork.n.01'
p260
I0
sg132
I0
sg147
I0
sg125
I0
sS'human_body.n.01'
p261
I0
sg150
I0
sg106
I0
sS'opening.n.01'
p262
I0
sS'flesh.n.01'
p263
I0
sg113
I0
sS'put.v.01'
p264
I0
sS'shaker.n.03'
p265
I0
sS'pour.v.01'
p266
I0
sS'glass.n.02'
p267
I0
sS'tongue.n.03'
p268
I0
sS'jar.n.01'
p269
I0
sg107
I0
sS'decant.v.01'
p270
I0
sS'chicken.n.01'
p271
I0
sS'sink.n.01'
p272
I0
sS'slice.n.06'
p273
I0
sS'put.v.02'
p274
I0
sS'stick.v.08'
p275
I0
sg124
I0
sg114
I0
sg141
I0
sS'add.v.01'
p276
I0
sS'pan.n.01'
p277
I0
sS'pan.n.03'
p278
I0
sg121
I0
sS'gap.n.03'
p279
I0
sS'cup.n.01'
p280
I0
sS'vanilla.n.03'
p281
I0
sS'vanilla.n.02'
p282
I0
sS'slice.v.02'
p283
I0
sS'slice.v.03'
p284
I0
sg138
I0
sg134
I0
sg116
I0
sS'pepper.n.04'
p285
I0
sS'pepper.n.03'
p286
I0
sS'rum.n.01'
p287
I0
sS'gripe.n.01'
p288
I0
sg146
I0
sg131
I0
sg112
I0
sS'fill.v.09'
p289
I0
sS'ice.n.01'
p290
I0
sg118
I0
sS'ice.n.05'
p291
I0
sS'lend.v.01'
p292
I0
sS'curd.n.01'
p293
I0
sS'onion.n.01'
p294
I0
sS'onion.n.03'
p295
I0
sS'onion.n.02'
p296
I0
sS'strawberry.n.01'
p297
I0
sS'corn.n.03'
p298
I0
sS'corn.n.02'
p299
I0
sS'beef.n.02'
p300
I0
sS'carve.v.03'
p301
I0
sS'lodge.v.02'
p302
I0
sg135
I0
sS'mixing_bowl.n.01'
p303
I0
sg149
I0
sS'take.v.04'
p304
I0
sS'mustard.n.02'
p305
I0
sS'pitcher.n.02'
p306
I0
sg130
I0
sg123
I0
sS'fill.v.01'
p307
I0
sg137
I0
sg136
I0
sS'squash.n.01'
p308
I0
sS'squash.n.02'
p309
I0
sS'concoction.n.01'
p310
I0
sS'hack.v.07'
p311
I0
sS'knife.n.01'
p312
I0
sS'salt.n.04'
p313
I0
sS'assume.v.03'
p314
I0
sS'coffee.n.01'
p315
I0
sS'branching.n.01'
p316
I0
sg140
I0
sS'mug.n.04'
p317
I0
sg128
I0
sS'avocado.n.01'
p318
I0
sS'slice.n.04'
p319
I0
sS'pizza.n.01'
p320
I0
sS'cut.n.16'
p321
I0
sg119
I0
sg120
I0
sS'plate.n.13'
p322
I0
sg122
I0
sS'thermos.n.01'
p323
I0
sS'salt.n.02'
p324
I0
sg144
I1
sS'bread.n.01'
p325
I0
sS'batter.n.02'
p326
I0
sS'wimp.n.01'
p327
I0
sS'milk.n.01'
p328
I0
sS'opening.n.10'
p329
I0
sS'cola.n.02'
p330
I0
sg115
I0
sS'tomato.n.02'
p331
I0
sS'tomato.n.01'
p332
I0
sS'bag.n.04'
p333
I0
sS'plate.n.04'
p334
I0
sS'chop.v.05'
p335
I0
sS'bag.n.01'
p336
I0
sS'chop.v.01'
p337
I0
sg139
I0
sS'mix.v.05'
p338
I0
sS'sauce.n.01'
p339
I0
sS'blend.v.03'
p340
I0
sg129
I0
sS'mix.n.03'
p341
I0
sS'edit.v.03'
p342
I0
sS'boodle.n.01'
p343
I0
sS'piece.n.08'
p344
I0
sS'cesspool.n.01'
p345
I0
sS'egg.n.01'
p346
I0
sg117
I0
sS'cut.v.32'
p347
I0
sg109
I5
sS'egg.n.02'
p348
I0
sS'liquid.n.01'
p349
I0
sS'meal.n.03'
p350
I0
sS'butter.n.01'
p351
I0
sg148
I0
sS'sugar.n.01'
p352
I0
ssg42
(dp353
g143
I0
sg11
I0
sg14
I0
sg33
I0
sS'cover.v.01'
p354
I0
sg42
I6
sS'gravy.n.01'
p355
I0
sS'gravy.n.02'
p356
I0
sS'rib.n.03'
p357
I0
sS'rib.n.01'
p358
I0
sS'walnut.n.02'
p359
I0
sg12
I0
sS'walnut.n.01'
p360
I0
sS'bring.v.04'
p361
I0
sS'serve.v.11'
p362
I0
sg99
I0
sS'whiskey.n.01'
p363
I0
sg22
I0
sg98
I0
sg36
I0
sg35
I0
sg102
I0
sg62
I0
sg93
I0
sg27
I0
sg20
I0
sS'carafe.n.01'
p364
I0
sg105
I0
sS'dough.n.01'
p365
I0
sg65
I0
sg63
I0
sg142
I0
sS'water_system.n.02'
p366
I0
sg151
I0
sS'water.n.06'
p367
I0
sg103
I0
sg50
I0
sg74
I0
sg141
I0
sg44
I0
sS'pear.n.02'
p368
I0
sg40
I0
sg41
I0
sS'pan.n.02'
p369
I0
sg23
I0
sg87
I0
sg72
I0
sg71
I0
sg100
I0
sg29
I0
sg28
I0
sS'get.v.01'
p370
I0
sS'wok.n.01'
p371
I0
sg91
I0
sg53
I0
sg101
I0
sg95
I0
sS'stadium.n.01'
p372
I0
sS'fruit_juice.n.01'
p373
I0
sS'teapot.n.01'
p374
I0
sg8
I0
sS'kettle.n.01'
p375
I0
sg9
I0
sg83
I0
sg75
I0
sg92
I0
sg79
I0
sg80
I0
sg32
I0
sg68
I0
sg67
I0
sg94
I0
sg89
I0
sg37
I0
sS'make.v.02'
p376
I0
sg46
I0
sg38
I0
sg81
I0
sg24
I0
sS'bottle.n.01'
p377
I0
sS'pot.n.01'
p378
I0
sg10
I0
sg82
I0
sS'pear.n.01'
p379
I0
sg60
I0
sg59
I0
sg73
I0
sg54
I0
sg26
I0
sg55
I0
sg96
I0
sg52
I0
sg13
I0
sg251
I0
sS'apple.n.01'
p380
I0
sg21
I0
sg19
I0
sS'serve.v.05'
p381
I0
sg78
I0
sg39
I0
sg84
I0
sS'burner.n.02'
p382
I0
sS'burner.n.01'
p383
I0
sg97
I0
sS'cheese.n.01'
p384
I0
sS'rice.n.01'
p385
I0
sg90
I0
sg17
I0
sg25
I0
sg66
I0
sg31
I0
sg88
I0
sS'saltcellar.n.01'
p386
I0
sg56
I0
sg47
I0
sg86
I0
sg104
I0
sg70
I0
sg85
I0
sg69
I0
sS'mix.v.04'
p387
I0
sg16
I0
sg30
I0
sg15
I0
sS'blend.v.01'
p388
I0
sg45
I0
sg34
I0
sg49
I0
sg18
I0
sg64
I0
sg57
I0
sg51
I0
sg58
I0
sS'cover.v.16'
p389
I0
sg77
I0
sg61
I0
sg43
I0
sg76
I0
sg48
I0
ssg126
(dp390
g255
I0
sg256
I0
sg257
I0
sS'banana.n.02'
p391
I0
sg108
I0
sg140
I0
sg126
I0
sg127
I6
sg110
I0
sg111
I0
sg133
I0
sg145
I0
sS'fork.n.01'
p392
I0
sg132
I0
sg147
I0
sg125
I0
sg261
I0
sg150
I0
sg106
I0
sS'opening.n.01'
p393
I0
sg263
I0
sg113
I0
sg264
I0
sg265
I0
sg266
I0
sS'glass.n.02'
p394
I0
sS'tongue.n.03'
p395
I0
sg269
I0
sg107
I0
sg270
I0
sS'chicken.n.01'
p396
I0
sS'sink.n.01'
p397
I0
sg142
I0
sg273
I0
sg151
I0
sg274
I0
sS'stick.v.08'
p398
I0
sg124
I0
sg114
I0
sg250
I0
sg276
I0
sg277
I0
sg278
I0
sg121
I0
sS'gap.n.03'
p399
I0
sg280
I0
sg281
I0
sg282
I0
sg284
I0
sg138
I0
sg134
I0
sg116
I0
sg285
I0
sg286
I0
sg287
I0
sg288
I0
sg146
I0
sg131
I0
sg112
I0
sS'fill.v.09'
p400
I0
sS'ice.n.01'
p401
I0
sg118
I0
sS'ice.n.05'
p402
I0
sg292
I0
sS'curd.n.01'
p403
I0
sg294
I0
sg295
I0
sg296
I0
sS'strawberry.n.01'
p404
I0
sS'corn.n.02'
p405
I0
sg300
I0
sg301
I0
sS'lodge.v.02'
p406
I0
sg135
I0
sS'mixing_bowl.n.01'
p407
I0
sg149
I0
sg304
I0
sg305
I0
sg306
I0
sg130
I0
sg123
I0
sg307
I0
sg137
I0
sg136
I0
sS'squash.n.01'
p408
I0
sS'squash.n.02'
p409
I0
sg310
I0
sg311
I0
sS'knife.n.01'
p410
I0
sS'salt.n.04'
p411
I0
sg334
I0
sS'coffee.n.01'
p412
I0
sS'branching.n.01'
p413
I0
sS'measuring_cup.n.01'
p414
I0
sS'mug.n.04'
p415
I0
sg128
I0
sS'avocado.n.01'
p416
I0
sg319
I0
sg320
I0
sg321
I0
sg119
I0
sg120
I0
sg322
I0
sg122
I0
sS'thermos.n.01'
p417
I0
sg324
I0
sg144
I0
sg325
I0
sS'batter.n.02'
p418
I0
sS'wimp.n.01'
p419
I0
sg328
I0
sS'opening.n.10'
p420
I0
sg330
I0
sg115
I0
sg331
I0
sg332
I0
sg333
I0
sg314
I0
sS'chop.v.05'
p421
I0
sg336
I0
sS'chop.v.01'
p422
I0
sg139
I0
sg338
I0
sg339
I0
sg340
I0
sg129
I0
sg341
I0
sg342
I0
sg343
I0
sg344
I0
sS'cesspool.n.01'
p423
I0
sg346
I0
sg117
I0
sS'cut.v.32'
p424
I0
sg109
I0
sg348
I0
sS'liquid.n.01'
p425
I0
sS'meal.n.03'
p426
I0
sg351
I0
sg148
I0
sS'sugar.n.01'
p427
I0
ssg127
(dp428
g255
I0
sg256
I0
sg257
I0
sg391
I0
sg108
I0
sg140
I0
sg126
I0
sg127
I0
sg110
I0
sg111
I0
sg133
I0
sg145
I0
sg392
I0
sg132
I0
sg147
I0
sg125
I0
sg261
I0
sg150
I0
sg106
I0
sg393
I0
sg263
I0
sg113
I0
sg264
I0
sg265
I0
sg266
I0
sg394
I0
sg395
I0
sg269
I0
sg107
I0
sg270
I0
sg396
I0
sg397
I0
sg142
I0
sg273
I0
sg151
I0
sg274
I0
sg398
I0
sg124
I0
sg114
I0
sg250
I0
sg276
I0
sg277
I0
sg278
I0
sg121
I0
sg399
I0
sg280
I0
sg281
I0
sg282
I0
sg284
I0
sg138
I0
sg134
I0
sg116
I0
sg285
I0
sg286
I0
sg287
I0
sg288
I0
sg146
I0
sg131
I0
sg112
I0
sg400
I0
sg401
I0
sg118
I0
sg402
I0
sg292
I0
sg403
I0
sg294
I0
sg295
I0
sg296
I0
sg404
I0
sg405
I0
sg300
I0
sg301
I0
sg406
I0
sg135
I0
sg407
I0
sg149
I0
sg304
I0
sg305
I0
sg306
I0
sg130
I0
sg123
I0
sg307
I0
sg137
I0
sg136
I0
sg408
I0
sg409
I0
sg310
I0
sg311
I0
sg410
I0
sg411
I0
sg314
I0
sg412
I0
sg413
I0
sg414
I0
sg415
I0
sg128
I0
sg416
I0
sg319
I0
sg320
I0
sg321
I0
sg119
I0
sg120
I0
sg322
I0
sg122
I0
sg417
I0
sg324
I0
sg144
I0
sg325
I0
sg418
I0
sg419
I0
sg328
I0
sg420
I0
sg330
I0
sg115
I0
sg331
I0
sg332
I0
sg333
I0
sg334
I0
sg421
I0
sg336
I0
sg422
I0
sg139
I0
sg338
I0
sg339
I0
sg340
I0
sg129
I0
sg341
I0
sg342
I0
sg343
I0
sg344
I0
sg423
I0
sg346
I0
sg117
I0
sg424
I0
sg109
I0
sg348
I0
sg425
I0
sg426
I0
sg351
I0
sg148
I0
sg427
I0
ssg110
(dp429
g255
I0
sg256
I0
sg257
I0
sg258
I0
sg108
I0
sg259
I0
sg126
I0
sg127
I0
sg110
I0
sg111
I5
sg133
I0
sg145
I1
sg260
I0
sg132
I0
sg147
I0
sg125
I0
sg261
I0
sg150
I0
sg106
I0
sg262
I0
sg263
I0
sg113
I0
sg264
I0
sg265
I0
sg266
I0
sg267
I0
sg268
I0
sg269
I0
sg107
I0
sg270
I0
sg271
I0
sg272
I0
sg273
I0
sg274
I0
sg275
I0
sg124
I0
sg114
I0
sg141
I0
sg276
I0
sg277
I0
sg278
I0
sg121
I0
sg279
I0
sg280
I0
sg281
I0
sg282
I0
sg283
I0
sg284
I0
sg138
I0
sg134
I0
sg116
I0
sg285
I0
sg286
I0
sg287
I0
sg288
I0
sg146
I0
sg131
I0
sg112
I0
sg289
I0
sg290
I0
sg118
I0
sg291
I0
sg292
I0
sg293
I0
sg294
I0
sg295
I0
sg296
I0
sg297
I0
sg298
I0
sg299
I0
sg300
I0
sg301
I0
sg302
I0
sg135
I0
sg303
I0
sg149
I0
sg304
I0
sg305
I0
sg306
I0
sg130
I0
sg123
I0
sg307
I0
sg137
I0
sg136
I0
sg308
I0
sg309
I0
sg310
I0
sg311
I0
sg312
I0
sg313
I0
sg334
I0
sg315
I0
sg316
I0
sg140
I0
sg317
I0
sg128
I0
sg318
I0
sg319
I0
sg320
I0
sg321
I0
sg119
I0
sg120
I0
sg322
I0
sg122
I0
sg323
I0
sg324
I0
sg144
I0
sg325
I0
sg326
I0
sg327
I0
sg328
I0
sg329
I0
sg330
I0
sg115
I0
sg331
I0
sg332
I0
sg333
I0
sg314
I0
sg335
I0
sg336
I0
sg337
I0
sg139
I0
sg338
I0
sg339
I0
sg340
I0
sg129
I0
sg341
I0
sg342
I0
sg343
I0
sg344
I0
sg345
I0
sg346
I0
sg117
I0
sg347
I0
sg109
I0
sg348
I0
sg349
I0
sg350
I0
sg351
I0
sg148
I0
sg352
I0
ssg111
(dp430
g255
I0
sg256
I0
sg257
I0
sg258
I0
sg108
I0
sg259
I0
sg126
I0
sg127
I0
sg110
I0
sg111
I0
sg133
I0
sS'fork.n.01'
p431
I0
sg132
I0
sg125
I0
sg261
I0
sg150
I0
sg106
I0
sg262
I0
sg263
I0
sg113
I0
sg264
I0
sg265
I0
sg266
I0
sg267
I0
sg268
I0
sg269
I0
sg107
I0
sg270
I0
sg271
I0
sg272
I0
sg273
I0
sg274
I0
sg275
I0
sg124
I0
sg114
I0
sg141
I0
sg276
I0
sg277
I0
sg278
I0
sg121
I0
sg279
I0
sg280
I0
sg281
I0
sg282
I0
sg283
I0
sg284
I0
sg138
I0
sg134
I0
sg116
I0
sg285
I0
sg286
I0
sg287
I0
sg288
I0
sS'stadium.n.01'
p432
I0
sg131
I0
sg112
I0
sg289
I0
sS'ice.n.01'
p433
I0
sg118
I0
sS'ice.n.05'
p434
I0
sg292
I0
sg293
I0
sg294
I0
sg295
I0
sg296
I0
sg297
I0
sg298
I0
sg299
I0
sg300
I0
sg301
I0
sg302
I0
sg135
I0
sg303
I0
sg149
I0
sg304
I0
sg305
I0
sg306
I0
sg130
I0
sg123
I0
sg307
I0
sg137
I0
sg136
I0
sg308
I0
sg309
I0
sg310
I0
sg311
I0
sg312
I0
sg313
I0
sg314
I0
sg315
I0
sS'branching.n.01'
p435
I0
sg140
I0
sS'mug.n.04'
p436
I0
sg128
I0
sg318
I0
sg319
I0
sg320
I0
sg321
I0
sg119
I0
sg120
I0
sg322
I0
sg122
I0
sg323
I0
sg324
I0
sg325
I0
sg326
I0
sg327
I0
sg328
I0
sg329
I0
sg330
I0
sg115
I0
sg331
I0
sg332
I0
sg333
I0
sg334
I0
sg335
I0
sg336
I0
sg337
I0
sg139
I0
sg338
I0
sg339
I0
sg340
I0
sg129
I0
sg341
I0
sg342
I0
sg343
I0
sg344
I0
sg345
I0
sg346
I0
sg117
I0
sg347
I0
sg109
I0
sg348
I0
sg349
I0
sg350
I0
sg351
I0
sg352
I0
ssg133
(dp437
g143
I0
sg255
I0
sg256
I0
sg257
I0
sg391
I0
sg108
I0
sg414
I0
sg126
I0
sg127
I0
sg110
I0
sg111
I0
sg133
I0
sg145
I0
sg392
I0
sg132
I0
sg147
I0
sg125
I0
sg261
I0
sg150
I0
sg106
I0
sS'opening.n.01'
p438
I0
sg263
I0
sg113
I0
sg264
I0
sg265
I0
sg266
I0
sg394
I0
sg395
I0
sg269
I0
sg107
I0
sg270
I0
sS'chicken.n.01'
p439
I0
sS'sink.n.01'
p440
I0
sg142
I0
sg273
I0
sg151
I0
sg274
I0
sg398
I0
sg124
I0
sg114
I0
sg250
I0
sg276
I0
sg277
I0
sg278
I0
sg121
I0
sg399
I0
sg280
I0
sg281
I0
sg282
I0
sg284
I0
sg138
I0
sg134
I0
sg116
I0
sg285
I0
sg286
I0
sg287
I0
sg288
I0
sg146
I0
sg131
I0
sg112
I0
sS'fill.v.09'
p441
I0
sg401
I0
sg118
I0
sg402
I0
sg292
I0
sS'curd.n.01'
p442
I0
sg294
I0
sg295
I0
sg296
I0
sg404
I0
sg194
I0
sS'corn.n.02'
p443
I0
sg300
I0
sg301
I0
sg406
I0
sg135
I0
sg407
I0
sg149
I0
sg304
I0
sg305
I0
sg306
I0
sg130
I0
sg123
I0
sg307
I0
sg137
I0
sg136
I0
sS'squash.n.01'
p444
I0
sS'squash.n.02'
p445
I0
sg310
I0
sg311
I0
sg410
I0
sg411
I0
sg314
I0
sg412
I0
sg413
I0
sg251
I0
sg415
I0
sg128
I0
sg416
I0
sg319
I0
sg320
I0
sg321
I0
sg119
I0
sg120
I0
sg322
I0
sg122
I0
sg417
I0
sg324
I0
sg222
I0
sg144
I0
sg325
I0
sg418
I0
sS'opening.n.10'
p446
I0
sg328
I0
sg330
I0
sg115
I0
sg331
I0
sg332
I0
sg333
I0
sg334
I0
sS'chop.v.05'
p447
I0
sg336
I0
sS'chop.v.01'
p448
I0
sg139
I0
sg338
I0
sg339
I0
sg340
I0
sg129
I0
sg341
I0
sg342
I0
sg343
I0
sg344
I0
sS'cesspool.n.01'
p449
I0
sg346
I0
sg117
I0
sS'cut.v.32'
p450
I0
sg109
I0
sg348
I0
sS'liquid.n.01'
p451
I0
sg426
I0
sg351
I0
sg148
I0
sg427
I0
ssg145
(dp452
S'cheese.n.01'
p453
I0
sS'salt.n.02'
p454
I0
sS'water_system.n.02'
p455
I0
sS'gap.n.03'
p456
I0
sS'bread.n.01'
p457
I0
sg291
I0
sS'serve.v.05'
p458
I0
sS'slice.n.04'
p459
I0
sS'glass.n.02'
p460
I0
sS'stick.v.08'
p461
I0
sS'apple.n.01'
p462
I0
sg250
I0
sS'add.v.01'
p463
I0
sS'pear.n.02'
p464
I0
sS'pan.n.01'
p465
I0
sS'pan.n.03'
p466
I0
sS'pan.n.02'
p467
I0
sS'dough.n.01'
p468
I0
sS'saltcellar.n.01'
p469
I0
sS'bowl.n.01'
p470
I0
sS'egg.n.02'
p471
I0
sS'butter.n.01'
p472
I0
sS'pot.n.01'
p473
I0
sS'fill.v.01'
p474
I0
sS'bowl.n.08'
p475
I0
sS'wok.n.01'
p476
I0
sS'pear.n.01'
p477
I0
sS'fill.v.09'
p478
I0
sS'banana.n.02'
p479
I0
sS'cover.v.01'
p480
I0
sS'vanilla.n.02'
p481
I0
sS'mix.v.04'
p482
I0
sS'concoction.n.01'
p483
I0
sS'opening.n.01'
p484
I0
sg144
I0
sS'knife.n.01'
p485
I0
sS'gravy.n.01'
p486
I0
sS'slice.v.03'
p487
I0
sS'gravy.n.02'
p488
I0
sS'blend.v.03'
p489
I0
sS'vanilla.n.03'
p490
I0
sS'blend.v.01'
p491
I0
sS'get.v.01'
p492
I0
sS'rib.n.03'
p493
I0
sS'mix.n.03'
p494
I0
sS'walnut.n.02'
p495
I0
sg145
I0
sg260
I0
sS'walnut.n.01'
p496
I0
sg147
I0
sS'serve.v.11'
p497
I0
sS'cut.v.01'
p498
I0
sg316
I0
sS'lodge.v.02'
p499
I0
sS'mix.v.05'
p500
I0
sS'piece.n.08'
p501
I0
sS'boodle.n.01'
p502
I0
sS'whiskey.n.01'
p503
I0
sS'egg.n.01'
p504
I0
sg146
I0
sg317
I0
sS'fruit_juice.n.01'
p505
I0
sS'teapot.n.01'
p506
I0
sS'milk.n.01'
p507
I0
sS'rice.n.01'
p508
I0
sS'slice.n.06'
p509
I0
sS'water.n.06'
p510
I0
sS'put.v.01'
p511
I0
sS'pizza.n.01'
p512
I0
sg290
I0
sS'bottle.n.01'
p513
I0
sS'kettle.n.01'
p514
I0
sS'pour.v.01'
p515
I0
sg148
I0
sS'tongue.n.03'
p516
I0
sS'lend.v.01'
p517
I0
sS'strawberry.n.01'
p518
I0
sS'jar.n.01'
p519
I0
sS'carafe.n.01'
p520
I0
sS'burner.n.02'
p521
I0
sS'burner.n.01'
p522
I0
sS'batter.n.02'
p523
I0
ssg12
(dp524
g143
I0
sg11
I0
sg14
I0
sg33
I0
sg480
I0
sg42
I0
sg355
I0
sg356
I0
sg493
I0
sS'rib.n.01'
p525
I0
sg359
I0
sg145
I0
sg12
I0
sg360
I0
sg147
I0
sg362
I0
sg99
I0
sg150
I0
sg503
I0
sg22
I0
sg98
I0
sg36
I0
sg35
I0
sg102
I0
sg62
I0
sg93
I0
sg27
I0
sg20
I0
sg520
I0
sg105
I0
sg365
I0
sg65
I0
sg63
I0
sg142
I0
sg366
I0
sg151
I0
sS'water.n.06'
p526
I0
sg103
I0
sg50
I0
sg74
I0
sg250
I0
sg44
I0
sg368
I0
sg40
I0
sg41
I0
sg369
I0
sg23
I0
sg87
I0
sg72
I0
sg71
I0
sg100
I0
sg29
I0
sg28
I0
sg370
I0
sg476
I0
sg91
I0
sg53
I0
sg101
I0
sg95
I0
sg146
I0
sg373
I0
sg506
I0
sg8
I0
sg514
I0
sg9
I0
sg83
I0
sg75
I0
sg92
I0
sg79
I0
sg80
I0
sg32
I0
sg68
I0
sg67
I0
sg94
I0
sg89
I0
sg37
I0
sg376
I0
sg46
I0
sg149
I0
sg38
I0
sg81
I0
sg24
I0
sg377
I0
sg378
I0
sg10
I0
sg82
I0
sg379
I0
sg60
I0
sg59
I0
sg73
I0
sg54
I0
sg26
I0
sg55
I0
sg96
I0
sg52
I0
sg13
I6
sg251
I0
sg462
I0
sg21
I0
sg19
I0
sg381
I0
sg78
I0
sg39
I0
sg84
I0
sg382
I0
sg383
I0
sg97
I0
sg384
I0
sS'rice.n.01'
p527
I0
sg90
I0
sg144
I0
sg17
I0
sg25
I0
sg66
I0
sg31
I0
sg88
I0
sg469
I0
sg56
I0
sg47
I0
sg86
I0
sg104
I0
sg70
I0
sg85
I0
sg69
I0
sg387
I0
sg16
I0
sg30
I0
sg15
I0
sg388
I0
sg45
I0
sg34
I0
sg49
I0
sg18
I0
sg64
I0
sg57
I0
sg51
I0
sg58
I0
sS'cover.v.16'
p528
I0
sg77
I0
sg61
I0
sg43
I0
sg76
I0
sg148
I0
sg48
I0
ssg132
(dp529
g143
I0
sg255
I0
sg256
I0
sg257
I0
sg391
I0
sg108
I0
sg414
I0
sg126
I0
sg127
I0
sg110
I0
sg111
I0
sg133
I6
sg145
I0
sg392
I0
sg132
I0
sg147
I0
sg125
I0
sg261
I0
sg150
I0
sg106
I0
sg438
I0
sg263
I0
sg113
I0
sg264
I0
sg265
I0
sg266
I0
sg394
I0
sg395
I0
sg269
I0
sg107
I0
sg270
I0
sg439
I0
sg440
I0
sg142
I0
sg273
I0
sg151
I0
sg274
I0
sg398
I0
sg124
I0
sg114
I0
sg250
I0
sg276
I0
sg277
I0
sg278
I0
sg121
I0
sg399
I0
sg280
I0
sg281
I0
sg282
I0
sg284
I0
sg138
I0
sg134
I0
sg116
I0
sg285
I0
sg286
I0
sg287
I0
sg288
I0
sg146
I0
sg131
I0
sg112
I0
sg441
I0
sg401
I0
sg118
I0
sg402
I0
sg292
I0
sg442
I0
sg294
I0
sg295
I0
sg296
I0
sg404
I0
sg194
I0
sg443
I0
sg300
I0
sg301
I0
sg406
I0
sg135
I0
sg407
I0
sg149
I0
sg304
I0
sg305
I0
sg306
I0
sg130
I0
sg123
I0
sg307
I0
sg137
I0
sg136
I0
sg444
I0
sg445
I0
sg310
I0
sg311
I0
sg410
I0
sg411
I0
sg314
I0
sg412
I0
sg413
I0
sg251
I0
sg415
I0
sg128
I0
sg416
I0
sg319
I0
sg320
I0
sg321
I0
sg119
I0
sg120
I0
sg322
I0
sg122
I0
sg417
I0
sg324
I0
sg222
I0
sg144
I0
sg325
I0
sg418
I0
sg446
I0
sg328
I0
sg330
I0
sg115
I0
sg331
I0
sg332
I0
sg333
I0
sg334
I0
sg447
I0
sg336
I0
sg448
I0
sg139
I0
sg338
I0
sg339
I0
sg340
I0
sg129
I0
sg341
I0
sg342
I0
sg343
I0
sg344
I0
sg449
I0
sg346
I0
sg117
I0
sg450
I0
sg109
I0
sg348
I0
sg451
I0
sg426
I0
sg351
I0
sg148
I0
sg427
I0
ssg147
(dp530
g470
I0
sg475
I0
sg498
I0
sg479
I0
sg480
I0
sS'measuring_cup.n.01'
p531
I0
sg486
I0
sg488
I0
sg493
I0
sg495
I0
sg145
I0
sg260
I0
sg496
I0
sg147
I0
sg497
I0
sg503
I0
sg484
I0
sg510
I0
sg511
I0
sg515
I0
sg144
I0
sg516
I0
sg519
I0
sg520
I0
sg509
I0
sg151
I0
sg458
I0
sg462
I0
sg512
I0
sg463
I0
sg465
I0
sg466
I0
sg467
I0
sg456
I0
sg490
I0
sg481
I0
sg487
I0
sg468
I0
sg492
I0
sg476
I0
sS'pepper.n.03'
p532
I0
sg146
I0
sg505
I0
sg506
I0
sg290
I0
sg514
I0
sg291
I0
sg494
I0
sS'meal.n.03'
p533
I0
sg518
I0
sg499
I0
sg461
I0
sg478
I0
sg513
I0
sg473
I0
sg474
I0
sg464
I0
sg477
I0
sg483
I0
sg454
I0
sg485
I0
sS'salt.n.04'
p534
I0
sS'coffee.n.01'
p535
I0
sg316
I0
sg317
I0
sg455
I0
sS'avocado.n.01'
p536
I0
sg459
I0
sg250
I0
sg521
I0
sg522
I0
sg453
I0
sS'thermos.n.01'
p537
I0
sg457
I0
sg523
I0
sg507
I0
sg469
I0
sg471
I0
sg472
I0
sg482
I0
sg500
I0
sg460
I0
sg489
I0
sg491
I0
sg517
I0
sS'edit.v.03'
p538
I0
sg502
I0
sg501
I0
sg508
I0
sg504
I0
sg148
I0
sS'sugar.n.01'
p539
I0
ssg125
(dp540
g255
I0
sg256
I0
sg257
I0
sg391
I0
sg108
I0
sg140
I0
sg126
I0
sg127
I0
sg110
I0
sg111
I0
sg133
I0
sg145
I0
sg392
I0
sg132
I0
sg147
I0
sg125
I0
sg261
I0
sg150
I0
sg106
I0
sg393
I0
sg263
I0
sg113
I0
sg264
I0
sg265
I0
sg266
I0
sg394
I0
sg395
I0
sg269
I0
sg107
I0
sg270
I0
sg396
I0
sg397
I0
sg142
I0
sg273
I0
sg151
I0
sg274
I0
sg398
I0
sg124
I0
sg114
I0
sg250
I0
sg276
I0
sg277
I0
sg278
I0
sg121
I0
sg399
I0
sg280
I0
sg281
I0
sg282
I0
sg284
I0
sg138
I0
sg134
I0
sg116
I0
sg285
I0
sg286
I0
sg287
I0
sg288
I0
sg146
I0
sg131
I0
sg112
I0
sg400
I0
sg401
I0
sg118
I0
sg402
I0
sg292
I0
sg403
I0
sg294
I0
sg295
I0
sg296
I0
sg404
I0
sg405
I0
sg300
I0
sg301
I0
sg406
I0
sg135
I0
sg407
I0
sg149
I0
sg304
I0
sg305
I0
sg306
I0
sg130
I0
sg123
I0
sg307
I0
sg137
I0
sg136
I0
sg408
I0
sg409
I0
sg310
I0
sg311
I0
sg410
I0
sg411
I0
sg314
I0
sg412
I0
sg413
I0
sg414
I0
sg415
I0
sg128
I0
sg416
I0
sg319
I0
sg320
I0
sg321
I0
sg119
I0
sg120
I0
sg322
I0
sg122
I0
sg417
I0
sg324
I0
sg144
I0
sg325
I0
sg418
I0
sg419
I0
sg328
I0
sg420
I0
sg330
I0
sg115
I0
sg331
I0
sg332
I0
sg333
I0
sg334
I0
sg421
I0
sg336
I0
sg422
I0
sg139
I0
sg338
I0
sg339
I0
sg340
I0
sg129
I0
sg341
I0
sg342
I0
sg343
I0
sg344
I0
sg423
I0
sg346
I0
sg117
I0
sg424
I0
sg109
I0
sg348
I0
sg425
I0
sg426
I0
sg351
I0
sg148
I0
sg427
I0
ssg99
(dp541
g11
I0
sg14
I0
sg33
I0
sg108
I0
sg42
I0
sg126
I0
sg127
I0
sg110
I0
sg111
I0
sg133
I0
sg12
I0
sg132
I0
sg125
I0
sg99
I0
sg150
I0
sg106
I0
sg22
I0
sg98
I0
sg36
I0
sg35
I0
sg102
I0
sg62
I0
sg93
I0
sg27
I0
sg20
I0
sg107
I0
sg105
I0
sg138
I0
sg65
I0
sg63
I0
sg128
I0
sg113
I0
sg103
I0
sg50
I0
sg74
I0
sg141
I0
sg44
I0
sg137
I0
sg40
I0
sg41
I0
sg121
I0
sg23
I0
sg87
I0
sg72
I0
sg71
I0
sg100
I0
sg29
I0
sg28
I0
sg134
I0
sg116
I0
sg91
I0
sg53
I0
sg101
I0
sg95
I0
sg432
I0
sg131
I0
sg112
I0
sg8
I0
sg118
I0
sg9
I0
sg83
I0
sg75
I0
sg92
I0
sg79
I0
sg80
I0
sg32
I0
sg68
I0
sg67
I0
sg94
I0
sg89
I0
sg37
I0
sg135
I0
sg46
I0
sg149
I0
sg38
I0
sg81
I0
sg24
I0
sg130
I0
sg123
I0
sg10
I0
sg82
I0
sg136
I0
sg60
I0
sg59
I0
sg73
I0
sg54
I0
sg26
I0
sg55
I0
sg96
I0
sg52
I0
sg13
I0
sg140
I0
sg114
I0
sg21
I0
sg19
I0
sg124
I0
sg78
I0
sg39
I0
sg84
I0
sg119
I0
sg120
I0
sg97
I0
sg122
I0
sg117
I0
sg90
I0
sg17
I0
sg25
I0
sg66
I0
sg31
I0
sg88
I0
sg115
I0
sg56
I0
sg47
I0
sg86
I0
sg104
I0
sg70
I0
sg85
I0
sg69
I0
sg139
I0
sg16
I0
sg30
I0
sg15
I0
sg129
I0
sg45
I0
sg34
I0
sg49
I0
sg18
I0
sg64
I0
sg57
I0
sg51
I0
sg58
I0
sg109
I0
sg77
I0
sg61
I0
sg43
I0
sg76
I0
sg48
I0
ssg150
(dp542
S'bowl.n.01'
p543
I0
sS'bowl.n.08'
p544
I0
sS'cut.v.01'
p545
I0
sS'cover.v.01'
p546
I0
sS'gravy.n.01'
p547
I0
sS'gravy.n.02'
p548
I0
sS'rib.n.03'
p549
I0
sg525
I0
sS'walnut.n.02'
p550
I0
sg431
I0
sS'walnut.n.01'
p551
I0
sS'serve.v.11'
p552
I0
sS'human_body.n.01'
p553
I0
sg150
I0
sS'whiskey.n.01'
p554
I0
sS'flesh.n.01'
p555
I0
sS'put.v.02'
p556
I0
sS'put.v.01'
p557
I0
sS'shaker.n.03'
p558
I0
sS'pour.v.01'
p559
I0
sS'jar.n.01'
p560
I0
sS'carafe.n.01'
p561
I0
sS'decant.v.01'
p562
I0
sS'slice.n.06'
p563
I0
sS'water.n.06'
p564
I0
sS'serve.v.05'
p565
I0
sS'apple.n.01'
p566
I0
sS'add.v.01'
p567
I0
sS'pan.n.01'
p568
I0
sS'pan.n.03'
p569
I0
sS'pan.n.02'
p570
I0
sS'vanilla.n.03'
p571
I0
sS'vanilla.n.02'
p572
I0
sS'slice.v.03'
p573
I0
sS'dough.n.01'
p574
I0
sS'get.v.01'
p575
I0
sS'wok.n.01'
p576
I0
sS'pepper.n.04'
p577
I0
sS'pepper.n.03'
p578
I0
sS'rum.n.01'
p579
I0
sS'gripe.n.01'
p580
I0
sg432
I0
sS'fruit_juice.n.01'
p581
I0
sS'teapot.n.01'
p582
I0
sg433
I0
sS'kettle.n.01'
p583
I0
sg434
I0
sS'mix.n.03'
p584
I0
sS'onion.n.01'
p585
I0
sS'onion.n.03'
p586
I0
sS'beef.n.02'
p587
I0
sS'carve.v.03'
p588
I0
sS'make.v.02'
p589
I0
sS'take.v.04'
p590
I0
sS'bottle.n.01'
p591
I0
sS'pot.n.01'
p592
I0
sS'fill.v.01'
p593
I0
sS'pear.n.02'
p594
I0
sS'pear.n.01'
p595
I0
sS'concoction.n.01'
p596
I0
sS'hack.v.07'
p597
I0
sS'plate.n.04'
p598
I0
sg435
I0
sg436
I0
sS'water_system.n.02'
p599
I0
sS'pizza.n.01'
p600
I0
sS'burner.n.02'
p601
I0
sS'burner.n.01'
p602
I0
sS'cheese.n.01'
p603
I0
sg149
I0
sS'salt.n.02'
p604
I0
sS'bread.n.01'
p605
I0
sS'saltcellar.n.01'
p606
I0
sS'egg.n.02'
p607
I0
sS'butter.n.01'
p608
I0
sS'mix.v.04'
p609
I0
sS'mix.v.05'
p610
I0
sS'sauce.n.01'
p611
I0
sS'blend.v.03'
p612
I0
sS'blend.v.01'
p613
I0
sS'lend.v.01'
p614
I0
sS'edit.v.03'
p615
I0
sS'boodle.n.01'
p616
I0
sS'piece.n.08'
p617
I0
sS'rice.n.01'
p618
I0
sg528
I0
sS'egg.n.01'
p619
I0
ssg106
(dp620
g255
I0
sg256
I0
sg257
I0
sg258
I0
sg108
I0
sg259
I0
sg126
I0
sg127
I0
sg110
I0
sg111
I0
sg133
I0
sg145
I0
sg260
I0
sg132
I0
sg147
I0
sg125
I0
sg261
I0
sg150
I0
sg106
I6
sg262
I0
sg263
I0
sg113
I0
sg264
I0
sg265
I0
sg266
I0
sg267
I0
sg268
I0
sg269
I0
sg107
I0
sg270
I0
sg271
I0
sg272
I0
sg273
I0
sg274
I0
sg275
I0
sg124
I0
sg114
I0
sg141
I0
sg276
I0
sg277
I0
sg278
I0
sg121
I0
sg279
I0
sg280
I0
sg281
I0
sg282
I0
sg283
I0
sg284
I0
sg138
I0
sg134
I0
sg116
I0
sg285
I0
sg286
I0
sg287
I0
sg288
I0
sg146
I0
sg131
I0
sg112
I0
sg289
I0
sg290
I0
sg118
I0
sg291
I0
sg292
I0
sg293
I0
sg294
I0
sg295
I0
sg296
I0
sg297
I0
sg298
I0
sg299
I0
sg300
I0
sg301
I0
sg302
I0
sg135
I0
sg303
I0
sg149
I0
sg304
I0
sg305
I0
sg306
I0
sg130
I0
sg123
I0
sg307
I0
sg137
I0
sg136
I0
sg308
I0
sg309
I0
sg310
I0
sg311
I0
sg312
I0
sg313
I0
sg314
I0
sg315
I0
sg316
I0
sg140
I0
sg317
I0
sg128
I0
sg318
I0
sg319
I0
sg320
I0
sg321
I0
sg119
I0
sg120
I0
sg322
I0
sg122
I0
sg323
I0
sg324
I0
sg144
I0
sg325
I0
sg326
I0
sg327
I0
sg328
I0
sg329
I0
sg330
I0
sg115
I0
sg331
I0
sg332
I0
sg333
I0
sg334
I0
sg335
I0
sg336
I0
sg337
I0
sg139
I0
sg338
I0
sg339
I0
sg340
I0
sg129
I0
sg341
I0
sg342
I0
sg343
I0
sg344
I0
sg345
I0
sg346
I0
sg117
I0
sg347
I0
sg109
I0
sg348
I0
sg349
I0
sg350
I0
sg351
I0
sg148
I0
sg352
I0
ssg22
(dp621
g143
I0
sg11
I0
sg14
I0
sg33
I0
sg354
I0
sg42
I0
sS'gravy.n.01'
p622
I0
sS'gravy.n.02'
p623
I0
sg357
I0
sg358
I0
sg359
I0
sg145
I0
sg12
I0
sg360
I0
sg147
I0
sS'serve.v.11'
p624
I0
sg99
I0
sg363
I0
sg22
I0
sg98
I0
sg36
I0
sg35
I0
sg102
I0
sg62
I0
sg93
I0
sg27
I0
sg20
I0
sg364
I0
sg105
I0
sg365
I0
sg65
I0
sg63
I0
sg142
I0
sg366
I0
sg151
I0
sg367
I0
sg103
I0
sg50
I0
sg74
I6
sg141
I0
sg44
I0
sg368
I0
sg40
I0
sg41
I0
sS'pan.n.02'
p625
I0
sg23
I6
sg87
I0
sg72
I0
sg71
I0
sg100
I0
sg29
I0
sg28
I0
sg370
I0
sg371
I0
sg91
I0
sg53
I0
sg101
I0
sg95
I0
sg146
I0
sg373
I0
sg374
I0
sg8
I0
sg375
I0
sg9
I0
sg83
I0
sg75
I0
sg92
I0
sg79
I0
sg80
I0
sg32
I0
sg68
I0
sg67
I0
sg94
I0
sg89
I0
sg37
I0
sg376
I0
sg46
I0
sg38
I0
sg81
I0
sg24
I0
sg377
I0
sS'pot.n.01'
p626
I0
sg10
I0
sg82
I0
sg379
I0
sg60
I0
sg59
I0
sg73
I0
sg54
I0
sg26
I0
sg55
I0
sg96
I0
sg52
I0
sg13
I0
sg140
I0
sg380
I0
sg21
I0
sg19
I0
sS'serve.v.05'
p627
I0
sg78
I0
sg39
I0
sg84
I0
sS'burner.n.02'
p628
I0
sS'burner.n.01'
p629
I0
sg97
I0
sS'cheese.n.01'
p630
I0
sg385
I0
sg90
I0
sg144
I0
sg17
I0
sg25
I0
sg66
I0
sg31
I0
sg88
I0
sg386
I0
sg56
I0
sg47
I0
sg86
I0
sg104
I0
sg70
I0
sg85
I0
sg69
I0
sg387
I0
sg16
I0
sg30
I0
sg15
I0
sg388
I0
sg45
I0
sg34
I0
sg49
I0
sg18
I0
sg64
I0
sg57
I0
sg51
I0
sg58
I0
sg389
I0
sg77
I0
sg61
I0
sg43
I0
sg76
I0
sg148
I0
sg48
I0
ssg98
(dp631
g11
I0
sg14
I0
sg33
I0
sg108
I0
sg42
I0
sg126
I0
sg127
I0
sg110
I0
sg111
I0
sg133
I0
sg12
I0
sg132
I0
sg125
I0
sg99
I6
sg150
I0
sg106
I0
sg22
I0
sg98
I0
sg36
I0
sg35
I0
sg102
I0
sg62
I0
sg93
I0
sg27
I0
sg20
I0
sg107
I0
sg105
I0
sg138
I0
sg65
I0
sg63
I0
sg128
I0
sg113
I0
sg103
I0
sg50
I0
sg74
I0
sg141
I0
sg44
I0
sg137
I0
sg40
I0
sg41
I0
sg121
I0
sg23
I0
sg87
I0
sg72
I0
sg71
I0
sg100
I0
sg29
I0
sg28
I0
sg134
I0
sg116
I0
sg91
I0
sg53
I0
sg101
I0
sg95
I0
sg432
I0
sg131
I0
sg112
I0
sg8
I0
sg118
I0
sg9
I0
sg83
I0
sg75
I0
sg92
I0
sg79
I0
sg80
I0
sg32
I0
sg68
I0
sg67
I0
sg94
I0
sg89
I0
sg37
I0
sg135
I0
sg46
I0
sg149
I0
sg38
I0
sg81
I0
sg24
I0
sg130
I0
sg123
I0
sg10
I0
sg82
I0
sg136
I0
sg60
I0
sg59
I0
sg73
I0
sg54
I0
sg26
I0
sg55
I0
sg96
I0
sg52
I0
sg13
I0
sg140
I0
sg114
I0
sg21
I0
sg19
I0
sg124
I0
sg78
I0
sg39
I0
sg84
I0
sg119
I0
sg120
I0
sg97
I0
sg122
I0
sg117
I0
sg90
I0
sg17
I0
sg25
I0
sg66
I0
sg31
I0
sg88
I0
sg115
I0
sg56
I0
sg47
I0
sg86
I0
sg104
I0
sg70
I0
sg85
I0
sg69
I0
sg139
I0
sg16
I0
sg30
I0
sg15
I0
sg129
I0
sg45
I0
sg34
I0
sg49
I0
sg18
I0
sg64
I0
sg57
I0
sg51
I0
sg58
I0
sg109
I0
sg77
I0
sg61
I0
sg43
I0
sg76
I0
sg48
I0
ssg36
(dp632
g143
I0
sg11
I0
sg14
I0
sg33
I0
sg108
I0
sg42
I0
sg126
I0
sg127
I0
sg110
I0
sg111
I0
sg133
I0
sg12
I0
sg132
I0
sg125
I0
sg99
I0
sg150
I0
sg106
I0
sg22
I0
sg98
I0
sg36
I0
sg35
I0
sg102
I0
sg62
I0
sg93
I0
sg27
I0
sg20
I0
sg107
I0
sg105
I0
sg138
I0
sg65
I0
sg63
I0
sg142
I0
sg128
I0
sg113
I0
sg103
I0
sg50
I0
sg74
I0
sg141
I0
sg44
I0
sg137
I0
sg40
I0
sg41
I0
sg121
I0
sg23
I0
sg87
I0
sg72
I0
sg71
I0
sg100
I0
sg29
I0
sg28
I0
sg134
I0
sg116
I0
sg91
I0
sg53
I0
sg101
I0
sg95
I0
sg432
I0
sg131
I0
sg112
I0
sg8
I0
sg118
I0
sg9
I0
sg83
I0
sg75
I0
sg92
I0
sg79
I0
sg80
I0
sg32
I0
sg68
I0
sg67
I0
sg94
I0
sg89
I0
sg37
I0
sg135
I0
sg46
I0
sg149
I0
sg38
I0
sg81
I0
sg24
I0
sg130
I0
sg123
I0
sg10
I0
sg82
I0
sg136
I0
sg60
I0
sg59
I0
sg73
I0
sg54
I0
sg26
I0
sg55
I0
sg96
I0
sg52
I0
sg13
I0
sg140
I0
sg114
I0
sg21
I0
sg19
I0
sg124
I0
sg78
I0
sg39
I0
sg84
I0
sg119
I0
sg120
I0
sg97
I0
sg122
I0
sg117
I0
sg90
I0
sg17
I0
sg25
I0
sg66
I0
sg31
I0
sg88
I0
sg115
I0
sg56
I0
sg47
I0
sg86
I0
sg104
I0
sg70
I0
sg85
I0
sg69
I0
sg139
I0
sg16
I0
sg30
I0
sg15
I0
sg129
I0
sg45
I0
sg34
I0
sg49
I0
sg18
I0
sg64
I0
sg57
I0
sg51
I0
sg58
I0
sg109
I0
sg77
I0
sg61
I0
sg43
I0
sg76
I0
sg48
I0
ssg35
(dp633
g143
I0
sg11
I0
sg14
I0
sg33
I0
sg108
I0
sg42
I0
sg126
I0
sg127
I0
sg110
I0
sg111
I0
sg133
I0
sg145
I0
sg12
I0
sg132
I0
sg147
I0
sg125
I0
sg99
I0
sg150
I0
sg106
I0
sg22
I0
sg98
I0
sg36
I17
sg35
I7
sg102
I0
sg62
I0
sg93
I0
sg27
I0
sg20
I0
sg107
I0
sg105
I0
sg138
I0
sg65
I0
sg63
I0
sg142
I0
sg128
I0
sg151
I0
sg113
I0
sg103
I0
sg50
I0
sg74
I0
sg141
I0
sg44
I0
sg137
I0
sg40
I0
sg41
I0
sg121
I0
sg23
I0
sg87
I0
sg72
I0
sg71
I0
sg100
I0
sg29
I0
sg28
I0
sg134
I0
sg116
I0
sg91
I0
sg53
I0
sg101
I0
sg95
I0
sg146
I0
sg131
I0
sg112
I0
sg8
I0
sg118
I0
sg9
I0
sg83
I0
sg75
I0
sg92
I0
sg79
I0
sg80
I0
sg32
I0
sg68
I0
sg67
I0
sg94
I0
sg89
I0
sg37
I0
sg135
I0
sg46
I0
sg149
I0
sg38
I0
sg81
I0
sg24
I0
sg130
I0
sg123
I0
sg10
I0
sg82
I0
sg136
I0
sg60
I0
sg59
I0
sg73
I0
sg54
I0
sg26
I0
sg55
I0
sg96
I0
sg52
I0
sg13
I0
sg140
I0
sg114
I0
sg21
I0
sg19
I0
sg124
I0
sg78
I0
sg39
I0
sg84
I0
sg119
I0
sg120
I0
sg97
I0
sg122
I0
sg117
I0
sg90
I0
sg144
I0
sg17
I0
sg25
I0
sg66
I0
sg31
I0
sg88
I0
sg115
I0
sg56
I0
sg47
I0
sg86
I0
sg104
I0
sg70
I0
sg85
I0
sg69
I0
sg139
I0
sg16
I0
sg30
I0
sg15
I0
sg129
I0
sg45
I0
sg34
I0
sg49
I0
sg18
I0
sg64
I0
sg57
I0
sg51
I0
sg58
I0
sg109
I0
sg77
I0
sg61
I0
sg43
I0
sg76
I0
sg148
I0
sg48
I0
ssg102
(dp634
g11
I0
sg14
I0
sg33
I0
sg108
I0
sg42
I0
sg126
I0
sg127
I0
sg110
I0
sg111
I0
sg133
I0
sg12
I0
sg132
I0
sg125
I0
sg99
I0
sg150
I0
sg106
I0
sg22
I0
sg98
I0
sg36
I0
sg35
I0
sg62
I0
sg93
I0
sg27
I0
sg20
I0
sg107
I0
sg105
I0
sg138
I0
sg65
I0
sg63
I0
sg128
I0
sg113
I0
sg103
I0
sg50
I0
sg74
I0
sg141
I0
sg44
I0
sg137
I0
sg40
I0
sg41
I0
sg121
I0
sg23
I0
sg87
I0
sg72
I0
sg71
I0
sg100
I0
sg29
I0
sg28
I0
sg134
I0
sg116
I0
sg91
I0
sg53
I0
sg101
I0
sg102
I6
sg432
I0
sg131
I0
sg112
I0
sg8
I0
sg118
I0
sg9
I0
sg83
I0
sg75
I0
sg92
I0
sg79
I0
sg80
I0
sg32
I0
sg68
I0
sg67
I0
sg94
I0
sg89
I0
sg37
I0
sg135
I0
sg46
I0
sg149
I0
sg38
I0
sg81
I0
sg24
I0
sg130
I0
sg123
I0
sg10
I0
sg95
I0
sg82
I0
sg136
I0
sg60
I0
sg59
I0
sg73
I0
sg54
I0
sg26
I0
sg55
I0
sg96
I0
sg52
I0
sg13
I0
sg140
I0
sg114
I0
sg21
I0
sg19
I0
sg124
I0
sg78
I0
sg39
I0
sg84
I0
sg119
I0
sg120
I0
sg97
I0
sg122
I0
sg117
I0
sg90
I0
sg17
I0
sg25
I0
sg66
I0
sg31
I0
sg88
I0
sg115
I0
sg56
I0
sg47
I0
sg86
I0
sg104
I0
sg70
I0
sg85
I0
sg69
I0
sg139
I0
sg16
I0
sg30
I0
sg15
I0
sg129
I0
sg45
I0
sg34
I0
sg49
I0
sg18
I0
sg64
I0
sg57
I0
sg51
I0
sg58
I0
sg109
I0
sg77
I0
sg61
I0
sg43
I0
sg76
I0
sg48
I0
ssg62
(dp635
g143
I0
sg11
I0
sg14
I0
sg33
I0
sg108
I0
sg42
I0
sg126
I0
sg127
I0
sg110
I0
sg111
I0
sg133
I0
sg145
I0
sg12
I0
sg132
I0
sg147
I0
sg125
I0
sg99
I0
sg150
I0
sg106
I0
sg22
I0
sg98
I0
sg36
I0
sg35
I0
sg102
I0
sg62
I18
sg93
I0
sg27
I0
sg20
I0
sg107
I0
sg105
I0
sg138
I0
sg65
I0
sg63
I0
sg142
I0
sg128
I0
sg151
I0
sg113
I0
sg103
I0
sg50
I0
sg74
I0
sg141
I0
sg44
I0
sg137
I0
sg40
I0
sg41
I0
sg121
I0
sg23
I0
sg87
I0
sg72
I0
sg71
I0
sg100
I0
sg29
I0
sg28
I0
sg134
I0
sg116
I0
sg91
I0
sg53
I0
sg101
I0
sg95
I0
sg146
I0
sg131
I0
sg112
I0
sg8
I0
sg118
I0
sg9
I0
sg83
I0
sg75
I0
sg92
I0
sg79
I0
sg80
I0
sg32
I0
sg68
I0
sg67
I0
sg94
I0
sg89
I0
sg37
I0
sg135
I0
sg46
I0
sg149
I0
sg38
I0
sg81
I0
sg24
I0
sg130
I0
sg123
I0
sg10
I0
sg82
I0
sg136
I0
sg60
I0
sg59
I0
sg73
I0
sg54
I0
sg26
I0
sg55
I0
sg96
I0
sg52
I0
sg13
I0
sg140
I0
sg114
I0
sg21
I0
sg19
I0
sg124
I0
sg78
I0
sg39
I0
sg84
I0
sg119
I0
sg120
I0
sg97
I0
sg122
I0
sg117
I0
sg90
I0
sg144
I0
sg17
I0
sg25
I0
sg66
I0
sg31
I0
sg88
I0
sg115
I0
sg56
I0
sg47
I0
sg86
I0
sg104
I0
sg70
I0
sg85
I0
sg69
I0
sg139
I0
sg16
I0
sg30
I0
sg15
I0
sg129
I0
sg45
I0
sg34
I0
sg49
I0
sg18
I0
sg64
I0
sg57
I0
sg51
I0
sg58
I0
sg109
I0
sg77
I0
sg61
I0
sg43
I0
sg76
I0
sg148
I0
sg48
I0
ssg93
(dp636
g11
I0
sg14
I0
sg33
I0
sg108
I0
sg42
I0
sg126
I0
sg127
I0
sg110
I0
sg111
I0
sg133
I0
sg12
I0
sg132
I0
sg125
I0
sg99
I0
sg150
I0
sg106
I0
sg22
I0
sg98
I0
sg36
I0
sg35
I0
sg102
I0
sg62
I0
sg30
I0
sg27
I0
sg20
I0
sg107
I0
sg105
I0
sg138
I0
sg65
I0
sg63
I0
sg128
I0
sg113
I0
sg103
I0
sg50
I0
sg74
I0
sg141
I0
sg44
I0
sg137
I0
sg40
I0
sg41
I0
sg121
I0
sg23
I0
sg87
I0
sg72
I0
sg71
I0
sg100
I0
sg29
I0
sg28
I0
sg134
I0
sg116
I0
sg91
I0
sg53
I0
sg101
I0
sg95
I0
sg432
I0
sg131
I0
sg112
I0
sg8
I0
sg118
I0
sg9
I0
sg83
I0
sg75
I0
sg92
I0
sg79
I0
sg80
I0
sg32
I0
sg68
I0
sg67
I0
sg94
I0
sg89
I0
sg37
I0
sg135
I0
sg46
I0
sg149
I0
sg38
I0
sg81
I0
sg24
I0
sg130
I0
sg123
I0
sg10
I0
sg82
I0
sg136
I0
sg60
I0
sg59
I0
sg73
I0
sg54
I0
sg26
I0
sg55
I0
sg96
I0
sg52
I0
sg13
I0
sg140
I0
sg114
I0
sg21
I0
sg19
I0
sg124
I0
sg78
I0
sg39
I0
sg84
I0
sg119
I0
sg120
I0
sg97
I0
sg122
I0
sg117
I0
sg90
I0
sg17
I0
sg25
I0
sg66
I0
sg31
I0
sg88
I0
sg115
I0
sg56
I0
sg47
I0
sg86
I0
sg104
I0
sg70
I0
sg85
I0
sg69
I0
sg139
I0
sg16
I0
sg93
I6
sg15
I0
sg129
I0
sg45
I0
sg34
I0
sg49
I0
sg18
I0
sg64
I0
sg57
I0
sg51
I0
sg58
I0
sg109
I0
sg77
I0
sg61
I0
sg43
I0
sg76
I0
sg48
I0
ssg27
(dp637
g143
I0
sg11
I0
sg14
I0
sg33
I0
sS'cover.v.01'
p638
I0
sg42
I0
sg355
I0
sg356
I0
sS'rib.n.03'
p639
I0
sS'rib.n.01'
p640
I0
sg359
I0
sg145
I0
sg12
I0
sg360
I0
sg147
I0
sg362
I0
sg99
I0
sS'whiskey.n.01'
p641
I0
sg22
I0
sg98
I0
sg36
I0
sg35
I0
sg102
I0
sg62
I0
sg93
I0
sg27
I0
sg20
I0
sS'carafe.n.01'
p642
I0
sg105
I0
sg365
I0
sg65
I0
sg63
I0
sg142
I0
sg366
I0
sg151
I0
sS'water.n.06'
p643
I0
sg103
I0
sg50
I0
sg74
I0
sg141
I0
sg44
I0
sg368
I0
sg40
I0
sg41
I0
sg369
I0
sg23
I0
sg87
I0
sg72
I0
sg71
I0
sg100
I0
sg29
I0
sg28
I0
sg370
I0
sg476
I0
sg91
I0
sg53
I0
sg101
I0
sg95
I0
sg146
I0
sg373
I0
sS'teapot.n.01'
p644
I0
sg8
I0
sg514
I0
sg9
I0
sg83
I0
sg75
I0
sg92
I0
sg79
I0
sg80
I0
sg32
I0
sg68
I0
sg67
I0
sg94
I0
sg89
I0
sg37
I0
sg376
I0
sg46
I0
sg38
I0
sg81
I0
sg24
I0
sg377
I0
sg378
I0
sg10
I0
sg82
I0
sg379
I0
sg60
I0
sg59
I0
sg73
I0
sg54
I0
sg26
I0
sg55
I0
sg96
I0
sg52
I0
sg13
I0
sg251
I0
sg462
I0
sg21
I0
sg19
I0
sg381
I0
sg78
I0
sg39
I0
sg84
I0
sg382
I0
sg383
I0
sg97
I0
sg384
I0
sg527
I0
sg90
I0
sg144
I0
sg17
I0
sg25
I0
sg66
I0
sg31
I0
sg88
I0
sg469
I0
sg56
I0
sg47
I0
sg86
I0
sg104
I0
sg70
I0
sg85
I0
sg69
I0
sg387
I0
sg16
I0
sg30
I0
sg15
I0
sg388
I0
sg45
I0
sg34
I0
sg49
I0
sg18
I0
sg64
I0
sg57
I0
sg51
I0
sg58
I0
sS'cover.v.16'
p645
I0
sg77
I0
sg61
I0
sg43
I0
sg76
I0
sg148
I0
sg48
I0
ssg20
(dp646
g143
I0
sg11
I0
sg14
I0
sg33
I0
sg108
I0
sg42
I0
sg126
I0
sg127
I0
sg110
I0
sg111
I0
sg133
I0
sg145
I0
sg12
I0
sg132
I0
sg147
I0
sg125
I0
sg99
I0
sg150
I0
sg106
I0
sg22
I0
sg98
I0
sg36
I0
sg35
I0
sg102
I0
sg62
I0
sg93
I0
sg27
I0
sg20
I12
sg107
I0
sg105
I0
sg138
I0
sg65
I0
sg63
I0
sg142
I0
sg128
I0
sg151
I0
sg113
I0
sg103
I0
sg50
I0
sg74
I0
sg250
I0
sg44
I0
sg137
I0
sg40
I0
sg41
I0
sg121
I0
sg23
I0
sg87
I0
sg72
I0
sg71
I0
sg100
I0
sg29
I0
sg28
I0
sg134
I0
sg116
I0
sg91
I0
sg53
I0
sg101
I0
sg95
I0
sg146
I0
sg131
I0
sg112
I0
sg8
I0
sg118
I0
sg9
I0
sg83
I0
sg75
I0
sg92
I0
sg79
I0
sg80
I0
sg32
I0
sg68
I0
sg67
I0
sg94
I0
sg89
I0
sg37
I0
sg135
I0
sg46
I0
sg149
I0
sg38
I0
sg81
I0
sg24
I0
sg130
I0
sg123
I0
sg10
I0
sg82
I0
sg136
I0
sg60
I0
sg59
I0
sg73
I0
sg54
I0
sg26
I0
sg55
I0
sg96
I0
sg52
I0
sg13
I0
sg140
I0
sg114
I0
sg21
I0
sg19
I0
sg124
I0
sg78
I0
sg39
I0
sg84
I0
sg119
I0
sg120
I0
sg97
I0
sg122
I0
sg117
I0
sg90
I0
sg144
I0
sg17
I0
sg25
I0
sg66
I0
sg31
I0
sg88
I0
sg115
I0
sg56
I0
sg47
I0
sg86
I0
sg104
I0
sg70
I0
sg85
I0
sg69
I0
sg139
I0
sg16
I0
sg30
I0
sg15
I0
sg129
I0
sg45
I0
sg34
I0
sg49
I0
sg18
I0
sg64
I0
sg57
I0
sg51
I0
sg58
I0
sg109
I0
sg77
I0
sg61
I0
sg43
I0
sg76
I0
sg148
I0
sg48
I0
ssg107
(dp647
g255
I0
sg256
I0
sg257
I0
sg258
I0
sg108
I0
sg259
I0
sg126
I0
sg127
I0
sg110
I0
sg111
I0
sg133
I0
sg145
I0
sg260
I0
sg132
I0
sg147
I0
sg125
I0
sg261
I0
sg150
I0
sg106
I0
sg262
I0
sg263
I0
sg113
I0
sg264
I0
sg265
I0
sg266
I0
sg267
I0
sg268
I0
sg269
I0
sg107
I6
sg270
I0
sg271
I0
sg272
I0
sg273
I0
sg274
I0
sg275
I0
sg124
I0
sg114
I0
sg141
I0
sg276
I0
sg277
I0
sg278
I0
sg121
I0
sg279
I0
sg280
I0
sg281
I0
sg282
I0
sg283
I0
sg284
I0
sg138
I0
sg134
I0
sg116
I0
sg285
I0
sg286
I0
sg287
I0
sg288
I0
sg146
I0
sg131
I0
sg112
I0
sg289
I0
sg290
I0
sg118
I0
sg291
I0
sg292
I0
sg293
I0
sg294
I0
sg295
I0
sg296
I0
sg297
I0
sg298
I0
sg299
I0
sg300
I0
sg301
I0
sg302
I0
sg135
I0
sg303
I0
sg149
I0
sg304
I0
sg305
I0
sg306
I0
sg130
I0
sg123
I0
sg307
I0
sg137
I0
sg136
I0
sg308
I0
sg309
I0
sg310
I0
sg311
I0
sg312
I0
sg313
I0
sg314
I0
sg315
I0
sg316
I0
sg140
I0
sg317
I0
sg128
I0
sg318
I0
sg319
I0
sg320
I0
sg321
I0
sg119
I0
sg120
I0
sg322
I0
sg122
I0
sg323
I0
sg324
I0
sg144
I0
sg325
I0
sg326
I0
sg327
I0
sg328
I0
sg329
I0
sg330
I0
sg115
I0
sg331
I0
sg332
I0
sg333
I0
sg334
I0
sg335
I0
sg336
I0
sg337
I0
sg139
I0
sg338
I0
sg339
I0
sg340
I0
sg129
I0
sg341
I0
sg342
I0
sg343
I0
sg344
I0
sg345
I0
sg346
I0
sg117
I0
sg347
I0
sg109
I0
sg348
I0
sg349
I0
sg350
I0
sg351
I0
sg148
I0
sg352
I0
ssg105
(dp648
g11
I0
sg14
I0
sg33
I0
sg108
I0
sg42
I0
sg126
I0
sg127
I0
sg110
I0
sg111
I0
sg133
I0
sg12
I0
sg132
I0
sg125
I0
sg99
I0
sg150
I0
sg106
I0
sg22
I0
sg98
I0
sg36
I0
sg35
I0
sg102
I0
sg62
I6
sg93
I0
sg27
I0
sg20
I0
sg107
I0
sg105
I0
sg138
I0
sg65
I0
sg63
I0
sg128
I0
sg113
I0
sg103
I0
sg50
I0
sg74
I0
sg141
I0
sg44
I0
sg137
I0
sg40
I0
sg41
I0
sg121
I0
sg23
I0
sg87
I0
sg72
I0
sg71
I0
sg100
I0
sg29
I0
sg28
I0
sg134
I0
sg116
I0
sg91
I0
sg53
I0
sg101
I0
sg95
I0
sg432
I0
sg131
I0
sg112
I0
sg8
I0
sg118
I0
sg9
I0
sg83
I0
sg75
I0
sg92
I0
sg79
I0
sg80
I0
sg32
I0
sg68
I0
sg67
I0
sg94
I0
sg89
I0
sg37
I0
sg135
I0
sg46
I0
sg149
I0
sg38
I0
sg81
I0
sg24
I0
sg130
I0
sg123
I0
sg10
I0
sg82
I0
sg136
I0
sg60
I0
sg59
I0
sg73
I0
sg54
I0
sg26
I0
sg55
I0
sg96
I0
sg52
I0
sg13
I0
sg140
I0
sg114
I0
sg21
I0
sg19
I0
sg124
I0
sg78
I0
sg39
I0
sg84
I0
sg119
I0
sg120
I0
sg97
I0
sg122
I0
sg117
I0
sg90
I0
sg17
I0
sg25
I0
sg66
I0
sg31
I0
sg88
I0
sg115
I0
sg56
I0
sg47
I0
sg86
I0
sg104
I0
sg70
I0
sg85
I0
sg69
I0
sg139
I0
sg16
I0
sg30
I0
sg15
I0
sg129
I0
sg45
I0
sg34
I0
sg49
I0
sg18
I0
sg64
I0
sg57
I0
sg51
I0
sg58
I0
sg109
I0
sg77
I0
sg61
I0
sg43
I0
sg76
I0
sg48
I0
ssg138
(dp649
g143
I0
sg255
I0
sg256
I0
sg257
I0
sg391
I0
sg108
I0
sg414
I0
sg126
I0
sg127
I0
sg110
I0
sg111
I0
sg133
I0
sg145
I0
sg392
I0
sg132
I0
sg147
I0
sg125
I0
sg261
I0
sg150
I0
sg106
I0
sg438
I0
sg263
I0
sg113
I0
sg264
I0
sg265
I0
sg266
I0
sg394
I0
sg395
I0
sg269
I0
sg107
I0
sg270
I0
sg439
I0
sg440
I0
sg142
I0
sg273
I0
sg151
I0
sg274
I0
sg398
I0
sg124
I0
sg114
I0
sg250
I0
sg276
I0
sg277
I0
sg278
I0
sg121
I0
sg399
I0
sg280
I0
sg281
I0
sg282
I0
sg284
I0
sg138
I0
sg134
I0
sg116
I0
sg285
I0
sg286
I0
sg287
I0
sg288
I0
sg146
I0
sg131
I0
sg112
I0
sg441
I0
sg401
I0
sg118
I0
sg402
I0
sg292
I0
sg442
I0
sg294
I0
sg295
I0
sg296
I0
sg404
I0
sg194
I0
sg443
I0
sg300
I0
sg301
I0
sg406
I0
sg135
I0
sg407
I0
sg149
I0
sg304
I0
sg305
I0
sg137
I0
sg130
I0
sg123
I0
sg307
I0
sg306
I0
sg136
I0
sg444
I0
sg445
I0
sg310
I0
sg311
I0
sg410
I0
sg411
I0
sg314
I0
sg412
I0
sg413
I0
sg251
I0
sg415
I0
sg128
I0
sg416
I0
sg319
I0
sg320
I0
sg321
I0
sg119
I0
sg120
I0
sg322
I0
sg122
I0
sg417
I0
sg324
I0
sg222
I0
sg144
I0
sg325
I0
sg418
I0
sg446
I0
sg328
I0
sg330
I0
sg115
I0
sg331
I0
sg332
I0
sg333
I0
sg334
I0
sg447
I0
sg336
I0
sg448
I0
sg139
I0
sg338
I0
sg339
I0
sg340
I0
sg129
I0
sg341
I0
sg342
I0
sg343
I6
sg344
I0
sg449
I0
sg346
I0
sg117
I0
sg450
I0
sg109
I0
sg348
I0
sg451
I0
sg426
I0
sg351
I0
sg148
I0
sg427
I0
ssg65
(dp650
g143
I0
sg11
I0
sg14
I0
sg33
I0
sg354
I0
sg42
I0
sg622
I0
sg623
I0
sg357
I0
sg358
I0
sg359
I0
sg12
I0
sg360
I0
sg624
I0
sg99
I0
sg363
I0
sg22
I0
sg98
I0
sg36
I0
sg35
I0
sg102
I0
sg62
I0
sg93
I0
sg27
I0
sg20
I0
sg364
I0
sg105
I0
sg365
I0
sg65
I0
sg63
I0
sg142
I1
sg366
I0
sg367
I0
sg103
I0
sg50
I0
sg74
I0
sg141
I0
sg44
I0
sg368
I0
sg40
I0
sg41
I0
sg625
I0
sg23
I0
sg87
I0
sg72
I0
sg71
I0
sg100
I0
sg29
I0
sg28
I0
sg370
I0
sg371
I0
sg91
I0
sg53
I0
sg101
I0
sg95
I0
sg373
I0
sg374
I0
sg8
I0
sg375
I0
sg9
I0
sg83
I0
sg75
I0
sg92
I0
sg79
I0
sg80
I0
sg32
I0
sg68
I0
sg67
I0
sg94
I0
sg89
I0
sg37
I0
sg376
I0
sg46
I0
sg38
I0
sg81
I0
sg24
I0
sg377
I0
sg626
I0
sg10
I0
sg82
I0
sg379
I0
sg60
I0
sg59
I0
sg73
I0
sg54
I0
sg26
I0
sg55
I0
sg96
I0
sg52
I0
sg13
I0
sg140
I0
sg380
I0
sg21
I0
sg19
I0
sg627
I0
sg78
I0
sg39
I0
sg84
I0
sg628
I0
sg629
I0
sg97
I0
sg630
I0
sg385
I0
sg90
I0
sg17
I0
sg25
I0
sg66
I5
sg31
I0
sg88
I0
sg386
I0
sg56
I0
sg47
I0
sg86
I0
sg104
I0
sg70
I0
sg85
I0
sg69
I0
sg387
I0
sg16
I0
sg30
I0
sg15
I0
sg388
I0
sg45
I0
sg34
I0
sg49
I0
sg18
I0
sg64
I0
sg57
I0
sg51
I0
sg58
I0
sg389
I0
sg77
I0
sg61
I0
sg43
I0
sg76
I0
sg48
I0
ssg63
(dp651
g143
I0
sg11
I0
sg14
I0
sg33
I0
sg354
I0
sg42
I0
sg622
I0
sg623
I0
sg357
I0
sg358
I0
sg359
I0
sg12
I0
sg360
I0
sg624
I0
sg99
I0
sg363
I0
sg22
I0
sg98
I0
sg36
I0
sg35
I0
sg102
I0
sg62
I0
sg93
I0
sg27
I0
sg20
I0
sg364
I0
sg105
I0
sg365
I0
sg65
I0
sg63
I0
sg142
I0
sg366
I0
sg367
I0
sg103
I0
sg50
I0
sg74
I0
sg141
I0
sg44
I0
sg368
I0
sg40
I0
sg41
I0
sg625
I0
sg23
I0
sg87
I0
sg72
I0
sg71
I0
sg100
I0
sg29
I0
sg28
I0
sg370
I0
sg371
I0
sg91
I0
sg53
I0
sg101
I0
sg95
I0
sg373
I0
sg374
I0
sg8
I0
sg375
I0
sg9
I0
sg83
I0
sg75
I0
sg92
I0
sg79
I0
sg80
I0
sg32
I0
sg68
I0
sg67
I0
sg94
I0
sg89
I0
sg37
I0
sg376
I0
sg46
I0
sg38
I0
sg81
I0
sg24
I0
sg377
I0
sg626
I0
sg10
I0
sg82
I0
sg379
I0
sg60
I0
sg59
I0
sg73
I0
sg54
I0
sg26
I0
sg55
I0
sg96
I0
sg52
I0
sg13
I0
sg140
I0
sg380
I0
sg21
I0
sg19
I0
sg627
I0
sg78
I0
sg39
I0
sg84
I0
sg628
I0
sg629
I0
sg97
I0
sg630
I0
sg385
I0
sg90
I0
sg17
I0
sg25
I0
sg66
I0
sg31
I0
sg88
I0
sg386
I0
sg56
I0
sg47
I0
sg86
I0
sg104
I0
sg70
I0
sg85
I0
sg69
I0
sg387
I0
sg16
I0
sg30
I0
sg15
I0
sg388
I0
sg45
I0
sg34
I0
sg49
I0
sg18
I0
sg64
I6
sg57
I0
sg51
I0
sg58
I0
sg389
I0
sg77
I0
sg61
I0
sg43
I0
sg76
I0
sg48
I0
ssg142
(dp652
S'bowl.n.01'
p653
I0
sS'bowl.n.08'
p654
I0
sS'cut.v.01'
p655
I0
sg391
I0
sg414
I0
sg355
I0
sg356
I0
sg359
I0
sg392
I0
sg360
I0
sg362
I0
sg438
I0
sS'put.v.02'
p656
I0
sS'put.v.01'
p657
I0
sS'pour.v.01'
p658
I0
sg395
I0
sS'jar.n.01'
p659
I0
sg439
I0
sg440
I0
sg142
I0
sS'slice.n.06'
p660
I0
sg526
I0
sg381
I0
sg446
I0
sS'add.v.01'
p661
I0
sS'pan.n.01'
p662
I0
sg369
I0
sg399
I0
sS'vanilla.n.03'
p663
I0
sS'vanilla.n.02'
p664
I0
sS'slice.v.03'
p665
I0
sg365
I0
sg370
I0
sS'pepper.n.03'
p666
I0
sg373
I0
sg401
I0
sg402
I0
sS'mix.n.03'
p667
I0
sg442
I0
sg426
I0
sg404
I0
sg443
I0
sg406
I0
sg376
I0
sg407
I0
sg398
I0
sg441
I0
sg377
I0
sg378
I0
sS'fill.v.01'
p668
I0
sg368
I0
sg379
I0
sg444
I0
sg445
I0
sS'concoction.n.01'
p669
I0
sS'salt.n.02'
p670
I0
sg410
I0
sg411
I0
sg412
I0
sg413
I0
sg251
I0
sg415
I0
sg366
I0
sg416
I0
sS'pizza.n.01'
p671
I0
sg382
I0
sg383
I0
sg384
I0
sg527
I0
sS'bread.n.01'
p672
I0
sg418
I0
sS'milk.n.01'
p673
I0
sS'egg.n.02'
p674
I0
sS'butter.n.01'
p675
I0
sg447
I0
sg448
I0
sg387
I0
sS'mix.v.05'
p676
I0
sg394
I0
sS'blend.v.03'
p677
I0
sg388
I0
sS'lend.v.01'
p678
I0
sS'edit.v.03'
p679
I0
sS'boodle.n.01'
p680
I0
sS'piece.n.08'
p681
I0
sg449
I0
sg417
I0
sg450
I0
sg451
I0
sS'egg.n.01'
p682
I0
sg427
I0
ssg128
(dp683
g143
I0
sg255
I0
sg256
I0
sg257
I0
sg391
I0
sg108
I0
sg414
I0
sg126
I0
sg127
I0
sg110
I0
sg111
I0
sg133
I0
sg145
I0
sg392
I0
sg132
I0
sg147
I0
sg125
I0
sg261
I0
sg150
I0
sg106
I0
sg438
I0
sg263
I0
sg113
I0
sg264
I0
sg265
I0
sg266
I0
sg394
I0
sg395
I0
sg269
I0
sg107
I0
sg270
I0
sg439
I0
sg440
I0
sg142
I0
sg128
I0
sg151
I0
sg274
I0
sg398
I0
sg124
I0
sg114
I0
sg250
I0
sg276
I0
sg277
I0
sg278
I0
sg121
I0
sg399
I0
sg280
I0
sg281
I0
sg282
I0
sg284
I0
sg138
I0
sg134
I0
sg116
I0
sg285
I0
sg286
I0
sg287
I0
sg288
I0
sg146
I0
sg131
I0
sg112
I0
sg441
I0
sg401
I0
sg118
I0
sg402
I0
sg292
I0
sg442
I0
sg294
I0
sg295
I0
sg296
I0
sg404
I0
sg194
I0
sg443
I0
sg300
I0
sg301
I0
sg406
I0
sg135
I0
sg407
I0
sg149
I0
sg304
I0
sg305
I0
sg306
I0
sg130
I0
sg123
I0
sg307
I0
sg137
I0
sg136
I0
sg444
I0
sg445
I0
sg310
I0
sg311
I0
sg410
I0
sg411
I0
sg314
I0
sg412
I0
sg413
I0
sg251
I0
sg415
I0
sg273
I0
sg416
I0
sg319
I0
sg320
I0
sg321
I0
sg119
I0
sg120
I0
sg322
I0
sg122
I0
sg417
I0
sg324
I0
sg222
I0
sg144
I0
sg325
I0
sg418
I0
sg446
I0
sg328
I0
sg330
I0
sg115
I0
sg331
I0
sg332
I0
sg333
I0
sg334
I0
sg447
I0
sg336
I0
sg448
I0
sg139
I0
sg338
I0
sg339
I0
sg340
I0
sg129
I0
sg341
I0
sg342
I0
sg343
I0
sg344
I0
sg449
I0
sg346
I0
sg117
I0
sg450
I0
sg109
I0
sg348
I0
sg451
I0
sg426
I0
sg351
I0
sg148
I0
sg427
I0
ssg151
(dp684
S'cheese.n.01'
p685
I0
sg537
I0
sg532
I0
sS'slice.v.03'
p686
I0
sg535
I0
sS'water_system.n.02'
p687
I0
sg151
I0
sS'bread.n.01'
p688
I0
sS'strawberry.n.01'
p689
I0
sS'serve.v.05'
p690
I0
sS'pizza.n.01'
p691
I0
sS'batter.n.02'
p692
I0
sS'stick.v.08'
p693
I0
sS'apple.n.01'
p694
I0
sS'bowl.n.08'
p695
I0
sS'add.v.01'
p696
I0
sS'milk.n.01'
p697
I0
sS'pan.n.01'
p698
I0
sS'gap.n.03'
p699
I0
sS'bowl.n.01'
p700
I0
sS'pan.n.02'
p701
I0
sS'dough.n.01'
p702
I0
sg536
I0
sS'saltcellar.n.01'
p703
I0
sS'bottle.n.01'
p704
I0
sS'egg.n.02'
p705
I0
sS'butter.n.01'
p706
I0
sg534
I0
sS'pot.n.01'
p707
I0
sS'fill.v.01'
p708
I0
sS'banana.n.02'
p709
I0
sS'pear.n.02'
p710
I0
sS'pear.n.01'
p711
I0
sS'fill.v.09'
p712
I0
sS'vanilla.n.03'
p713
I0
sS'vanilla.n.02'
p714
I0
sS'mix.v.04'
p715
I0
sS'concoction.n.01'
p716
I0
sS'opening.n.01'
p717
I0
sS'glass.n.02'
p718
I0
sS'knife.n.01'
p719
I0
sS'gravy.n.01'
p720
I0
sS'salt.n.02'
p721
I0
sS'gravy.n.02'
p722
I0
sS'blend.v.03'
p723
I0
sS'blend.v.01'
p724
I0
sS'get.v.01'
p725
I0
sS'wok.n.01'
p726
I0
sS'walnut.n.02'
p727
I0
sS'mix.n.03'
p728
I0
sg538
I0
sS'fork.n.01'
p729
I0
sS'walnut.n.01'
p730
I0
sg361
I0
sS'serve.v.11'
p731
I0
sS'cut.v.01'
p732
I0
sS'branching.n.01'
p733
I0
sS'lodge.v.02'
p734
I0
sS'mix.v.05'
p735
I0
sS'piece.n.08'
p736
I0
sS'boodle.n.01'
p737
I0
sS'egg.n.01'
p738
I0
sg372
I0
sS'mug.n.04'
p739
I0
sS'fruit_juice.n.01'
p740
I0
sS'rice.n.01'
p741
I0
sS'slice.n.06'
p742
I0
sS'water.n.06'
p743
I0
sS'put.v.01'
p744
I0
sS'slice.n.05'
p745
I0
sS'ice.n.01'
p746
I0
sS'kettle.n.01'
p747
I0
sS'pour.v.01'
p748
I0
sg531
I0
sS'tongue.n.03'
p749
I0
sS'lend.v.01'
p750
I0
sS'jar.n.01'
p751
I0
sg539
I0
sS'burner.n.02'
p752
I0
sS'burner.n.01'
p753
I0
sg533
I0
ssg113
(dp754
g143
I0
sg255
I0
sg256
I0
sg257
I0
sg258
I0
sg108
I0
sg259
I0
sg126
I0
sg127
I0
sg110
I0
sg111
I0
sg133
I0
sg145
I0
sg392
I0
sg132
I0
sg147
I0
sg125
I0
sg261
I0
sg150
I0
sg106
I0
sg262
I0
sg263
I0
sg274
I0
sg264
I0
sg265
I0
sg266
I0
sg267
I0
sg268
I0
sg269
I0
sg107
I0
sg270
I0
sg271
I0
sg272
I0
sg142
I0
sg273
I0
sg151
I0
sg113
I24
sg275
I0
sg124
I0
sg114
I0
sg141
I0
sg276
I0
sg277
I0
sg278
I0
sg121
I0
sg279
I0
sg280
I0
sg281
I0
sg282
I0
sg283
I0
sg284
I0
sg138
I0
sg134
I0
sg116
I0
sg285
I0
sg286
I0
sg287
I0
sg288
I0
sg146
I0
sg131
I0
sg112
I0
sg289
I0
sg401
I0
sg118
I0
sg402
I0
sg292
I0
sg293
I0
sg294
I0
sg295
I0
sg296
I0
sg297
I0
sg298
I0
sg299
I0
sg300
I0
sg301
I0
sg302
I0
sg135
I0
sg303
I0
sg149
I0
sg304
I0
sg305
I0
sg306
I0
sg130
I0
sg123
I0
sg307
I0
sg137
I0
sg136
I0
sg308
I0
sg309
I0
sg310
I0
sg311
I0
sg312
I0
sg313
I0
sg314
I0
sg315
I0
sg413
I0
sg140
I0
sg415
I0
sg128
I6
sg318
I0
sg319
I0
sg320
I0
sg321
I0
sg119
I0
sg120
I0
sg322
I0
sg122
I0
sg323
I0
sg324
I0
sg144
I0
sg325
I0
sg326
I0
sg327
I0
sg328
I0
sg329
I0
sg330
I0
sg115
I0
sg331
I0
sg332
I0
sg333
I0
sg334
I0
sg335
I0
sg336
I0
sg337
I0
sg139
I0
sg338
I0
sg339
I0
sg340
I0
sg129
I0
sg341
I0
sg342
I0
sg343
I0
sg344
I0
sg345
I0
sg346
I0
sg117
I0
sg347
I0
sg109
I0
sg348
I0
sg349
I0
sg350
I0
sg351
I0
sg148
I0
sg352
I0
ssg103
(dp755
g11
I0
sg14
I0
sg33
I0
sg108
I0
sg42
I0
sg126
I0
sg127
I0
sg110
I0
sg111
I0
sg133
I0
sg12
I0
sg132
I0
sg125
I0
sg99
I0
sg150
I1
sg106
I0
sg22
I0
sg98
I0
sg36
I0
sg35
I0
sg102
I0
sg62
I0
sg93
I0
sg27
I0
sg20
I0
sg107
I0
sg105
I0
sg138
I0
sg65
I0
sg63
I0
sg128
I0
sg113
I0
sg103
I0
sg50
I0
sg74
I0
sg141
I0
sg44
I0
sg137
I0
sg40
I0
sg41
I0
sg121
I0
sg23
I0
sg87
I0
sg72
I0
sg71
I0
sg100
I0
sg29
I0
sg28
I0
sg134
I0
sg116
I0
sg91
I0
sg53
I0
sg101
I0
sg95
I0
sg432
I0
sg131
I0
sg112
I0
sg8
I0
sg118
I0
sg9
I0
sg83
I0
sg75
I0
sg92
I0
sg79
I0
sg80
I0
sg32
I0
sg68
I0
sg67
I0
sg94
I0
sg89
I0
sg37
I0
sg135
I0
sg46
I0
sg149
I0
sg38
I0
sg81
I0
sg24
I0
sg130
I0
sg123
I0
sg10
I0
sg82
I0
sg136
I0
sg60
I0
sg59
I0
sg73
I0
sg54
I0
sg26
I0
sg55
I0
sg96
I0
sg52
I0
sg13
I0
sg140
I0
sg114
I0
sg21
I0
sg19
I0
sg124
I0
sg78
I0
sg39
I0
sg84
I0
sg119
I0
sg120
I0
sg97
I0
sg122
I0
sg117
I0
sg90
I0
sg17
I0
sg25
I0
sg66
I0
sg31
I0
sg88
I0
sg115
I0
sg56
I0
sg47
I0
sg86
I0
sg104
I5
sg70
I0
sg85
I0
sg69
I0
sg139
I0
sg16
I0
sg30
I0
sg15
I0
sg129
I0
sg45
I0
sg34
I0
sg49
I0
sg18
I0
sg64
I0
sg57
I0
sg51
I0
sg58
I0
sg109
I0
sg77
I0
sg61
I0
sg43
I0
sg76
I0
sg48
I0
ssg50
(dp756
g143
I0
sg11
I0
sg14
I0
sg33
I0
sg354
I0
sg42
I0
sg355
I0
sg356
I0
sg357
I0
sg358
I0
sg359
I0
sg12
I0
sg360
I0
sg361
I0
sg362
I0
sg99
I0
sg363
I0
sg22
I0
sg98
I0
sg36
I0
sg35
I0
sg102
I0
sg62
I0
sg93
I0
sg27
I0
sg20
I0
sg364
I0
sg105
I0
sg365
I0
sg65
I0
sg63
I0
sg142
I0
sg366
I0
sg151
I0
sg367
I0
sg103
I0
sg50
I6
sg74
I0
sg141
I0
sg44
I0
sg368
I0
sg40
I0
sg41
I0
sg369
I0
sg23
I0
sg87
I0
sg72
I0
sg71
I0
sg100
I0
sg29
I0
sg28
I0
sg370
I0
sg371
I0
sg91
I0
sg53
I0
sg101
I0
sg95
I0
sg372
I0
sg373
I0
sg374
I0
sg8
I0
sg375
I0
sg9
I0
sg83
I0
sg75
I0
sg92
I0
sg79
I0
sg80
I0
sg32
I0
sg68
I0
sg67
I0
sg94
I0
sg89
I0
sg37
I0
sg376
I0
sg46
I0
sg38
I0
sg81
I0
sg24
I0
sg377
I0
sg378
I0
sg10
I0
sg82
I0
sg379
I0
sg60
I0
sg59
I0
sg73
I0
sg54
I0
sg26
I0
sg55
I0
sg96
I0
sg52
I0
sg13
I0
sg251
I0
sg380
I0
sg21
I0
sg19
I0
sg381
I0
sg78
I0
sg39
I0
sg84
I0
sg382
I0
sg383
I0
sg97
I0
sg384
I0
sg385
I0
sg90
I0
sg17
I0
sg25
I0
sg66
I0
sg31
I0
sg88
I0
sg386
I0
sg56
I0
sg47
I0
sg86
I0
sg104
I0
sg70
I0
sg85
I0
sg69
I0
sg387
I0
sg16
I0
sg30
I0
sg15
I0
sg388
I0
sg45
I0
sg34
I0
sg49
I0
sg18
I0
sg64
I0
sg57
I0
sg51
I0
sg58
I0
sg389
I0
sg77
I0
sg61
I0
sg43
I0
sg76
I0
sg48
I0
ssg74
(dp757
g143
I0
sg11
I0
sg14
I0
sg33
I0
sg354
I0
sg42
I0
sg622
I0
sg623
I0
sg357
I0
sg358
I0
sg359
I0
sg12
I0
sg360
I0
sg624
I0
sg99
I0
sg363
I0
sg22
I0
sg98
I0
sg36
I0
sg35
I0
sg102
I0
sg62
I0
sg93
I0
sg27
I0
sg20
I0
sg364
I0
sg105
I0
sg365
I0
sg65
I0
sg63
I0
sg142
I0
sg366
I0
sg367
I0
sg103
I0
sg50
I0
sg74
I0
sg141
I0
sg44
I0
sg368
I0
sg40
I0
sg41
I0
sg625
I0
sg23
I0
sg87
I0
sg72
I0
sg71
I0
sg100
I0
sg29
I0
sg28
I0
sg370
I0
sg371
I0
sg91
I0
sg53
I0
sg101
I0
sg95
I0
sg373
I0
sg374
I0
sg8
I0
sg375
I0
sg9
I0
sg83
I0
sg75
I0
sg92
I0
sg79
I0
sg80
I0
sg32
I0
sg68
I0
sg67
I0
sg94
I0
sg89
I0
sg37
I0
sg376
I0
sg46
I0
sg38
I0
sg81
I0
sg24
I0
sg377
I0
sg626
I0
sg10
I0
sg82
I0
sg379
I0
sg60
I0
sg59
I0
sg73
I0
sg54
I0
sg26
I0
sg55
I0
sg96
I0
sg52
I0
sg13
I0
sg140
I0
sg380
I0
sg21
I0
sg19
I0
sg627
I0
sg78
I0
sg39
I0
sg84
I0
sg628
I0
sg629
I0
sg97
I0
sg630
I0
sg385
I0
sg90
I0
sg17
I0
sg25
I0
sg66
I0
sg31
I0
sg88
I0
sg386
I0
sg56
I0
sg47
I0
sg86
I0
sg104
I0
sg70
I0
sg85
I0
sg69
I0
sg387
I0
sg16
I0
sg30
I0
sg15
I0
sg388
I0
sg45
I0
sg34
I0
sg49
I0
sg18
I0
sg64
I0
sg57
I0
sg51
I0
sg58
I0
sg389
I0
sg77
I0
sg61
I0
sg43
I0
sg76
I0
sg48
I0
ssg141
(dp758
g470
I0
sg475
I0
sS'cut.v.01'
p759
I0
sg638
I0
sS'measuring_cup.n.01'
p760
I0
sg486
I0
sg488
I0
sg639
I0
sg640
I0
sg495
I0
sg145
I0
sg260
I0
sg496
I0
sg147
I0
sg497
I0
sS'human_body.n.01'
p761
I0
sg641
I0
sS'opening.n.01'
p762
I0
sS'flesh.n.01'
p763
I0
sS'put.v.02'
p764
I0
sS'put.v.01'
p765
I0
sS'shaker.n.03'
p766
I0
sS'pour.v.01'
p767
I0
sS'sauce.n.01'
p768
I0
sg268
I0
sg519
I0
sg642
I0
sS'decant.v.01'
p769
I0
sg468
I0
sS'chicken.n.01'
p770
I0
sS'sink.n.01'
p771
I0
sg455
I0
sg151
I0
sg643
I0
sS'take.v.04'
p772
I0
sS'avocado.n.01'
p773
I0
sS'opening.n.10'
p774
I0
sS'pizza.n.01'
p775
I0
sS'add.v.01'
p776
I0
sg464
I0
sS'pan.n.01'
p777
I0
sS'pan.n.03'
p778
I0
sg467
I0
sg279
I0
sS'cup.n.01'
p779
I0
sS'vanilla.n.03'
p780
I0
sS'vanilla.n.02'
p781
I0
sg283
I0
sS'slice.v.03'
p782
I0
sg258
I0
sg492
I0
sg476
I0
sS'pepper.n.04'
p783
I0
sS'pepper.n.03'
p784
I0
sS'rum.n.01'
p785
I0
sS'gripe.n.01'
p786
I0
sg146
I0
sg505
I0
sg644
I0
sg290
I0
sg514
I0
sg291
I0
sS'mix.n.03'
p787
I0
sS'curd.n.01'
p788
I0
sS'onion.n.01'
p789
I0
sS'onion.n.03'
p790
I0
sS'onion.n.02'
p791
I0
sg297
I0
sS'corn.n.03'
p792
I0
sS'corn.n.02'
p793
I0
sS'beef.n.02'
p794
I0
sS'carve.v.03'
p795
I0
sg302
I0
sS'mixing_bowl.n.01'
p796
I0
sg275
I0
sS'mustard.n.02'
p797
I0
sS'fill.v.09'
p798
I0
sg513
I0
sg473
I0
sS'fill.v.01'
p799
I0
sS'pitcher.n.02'
p800
I0
sg477
I0
sS'squash.n.01'
p801
I0
sS'squash.n.02'
p802
I0
sS'concoction.n.01'
p803
I0
sS'salt.n.02'
p804
I0
sg312
I0
sS'salt.n.04'
p805
I0
sS'plate.n.04'
p806
I0
sS'coffee.n.01'
p807
I0
sg316
I0
sg462
I0
sg317
I0
sS'slice.n.06'
p808
I0
sg458
I0
sS'slice.n.04'
p809
I0
sg141
I0
sS'cut.n.16'
p810
I0
sg521
I0
sg522
I0
sS'plate.n.13'
p811
I0
sg453
I0
sg508
I0
sS'hack.v.07'
p812
I0
sg144
I0
sS'bread.n.01'
p813
I0
sg326
I0
sS'wimp.n.01'
p814
I0
sS'milk.n.01'
p815
I0
sS'cola.n.02'
p816
I0
sg469
I0
sS'egg.n.02'
p817
I0
sS'butter.n.01'
p818
I0
sS'bag.n.04'
p819
I0
sS'assume.v.03'
p820
I0
sS'chop.v.05'
p821
I0
sS'bag.n.01'
p822
I0
sS'chop.v.01'
p823
I0
sg482
I0
sS'mix.v.05'
p824
I0
sg267
I0
sS'blend.v.03'
p825
I0
sg491
I0
sS'lend.v.01'
p826
I0
sS'edit.v.03'
p827
I0
sS'boodle.n.01'
p828
I0
sS'piece.n.08'
p829
I0
sS'cesspool.n.01'
p830
I0
sS'egg.n.01'
p831
I0
sS'thermos.n.01'
p832
I0
sS'cut.v.32'
p833
I0
sg645
I0
sS'tomato.n.02'
p834
I0
sS'liquid.n.01'
p835
I0
sS'meal.n.03'
p836
I0
sS'tomato.n.01'
p837
I0
sg148
I0
sS'sugar.n.01'
p838
I0
ssg44
(dp839
g143
I0
sg11
I0
sg14
I0
sg33
I0
sg108
I0
sg42
I0
sg126
I0
sg127
I0
sg110
I0
sg111
I0
sg133
I0
sg145
I0
sg12
I0
sg132
I0
sg147
I0
sg125
I0
sg99
I0
sg150
I0
sg106
I0
sg22
I0
sg98
I0
sg36
I0
sg35
I0
sg102
I0
sg62
I0
sg93
I0
sg27
I0
sg20
I0
sg107
I0
sg105
I0
sg138
I0
sg65
I0
sg63
I0
sg142
I0
sg128
I0
sg151
I0
sg113
I0
sg103
I0
sg50
I0
sg74
I0
sg141
I0
sg44
I0
sg137
I0
sg40
I0
sg41
I0
sg121
I0
sg23
I0
sg87
I0
sg72
I0
sg71
I0
sg100
I0
sg29
I0
sg28
I0
sg134
I0
sg116
I0
sg91
I0
sg53
I0
sg101
I0
sg95
I0
sg146
I0
sg131
I0
sg112
I0
sg8
I0
sg118
I0
sg9
I0
sg83
I0
sg75
I0
sg92
I0
sg79
I0
sg80
I0
sg32
I0
sg68
I0
sg67
I0
sg94
I0
sg89
I0
sg37
I0
sg135
I0
sg46
I0
sg149
I0
sg38
I0
sg81
I0
sg24
I0
sg130
I0
sg123
I0
sg10
I0
sg82
I0
sg136
I0
sg60
I0
sg59
I0
sg73
I0
sg54
I0
sg26
I0
sg55
I0
sg96
I0
sg52
I0
sg13
I0
sg140
I0
sg114
I0
sg21
I0
sg19
I0
sg124
I0
sg78
I0
sg39
I0
sg84
I0
sg119
I0
sg120
I0
sg97
I0
sg122
I0
sg117
I0
sg90
I0
sg144
I0
sg17
I0
sg25
I0
sg66
I0
sg31
I0
sg88
I0
sg115
I0
sg56
I0
sg47
I0
sg86
I0
sg104
I0
sg70
I0
sg85
I0
sg69
I0
sg139
I0
sg16
I0
sg30
I0
sg15
I0
sg129
I0
sg45
I42
sg34
I0
sg49
I0
sg18
I0
sg64
I0
sg57
I0
sg51
I0
sg58
I0
sg109
I0
sg77
I0
sg61
I0
sg43
I0
sg76
I0
sg148
I0
sg48
I0
ssg137
(dp840
g255
I0
sg256
I0
sg257
I0
sg391
I0
sg108
I0
sg414
I0
sg126
I0
sg127
I0
sg110
I0
sg111
I0
sg133
I0
sg145
I0
sg392
I0
sg132
I0
sg147
I0
sg125
I0
sg261
I0
sg150
I0
sg106
I0
sg438
I0
sg263
I0
sg113
I0
sg264
I0
sg265
I0
sg266
I0
sg394
I0
sg395
I0
sg269
I0
sg107
I0
sg270
I0
sg439
I0
sg440
I0
sg142
I0
sg273
I0
sg151
I0
sg274
I0
sg398
I0
sg124
I0
sg114
I0
sg250
I0
sg276
I0
sg277
I0
sg278
I0
sg121
I0
sg399
I0
sg280
I0
sg281
I0
sg282
I0
sg284
I0
sg138
I0
sg134
I0
sg116
I0
sg285
I0
sg286
I0
sg287
I0
sg288
I0
sg146
I0
sg131
I0
sg112
I0
sg441
I0
sg401
I0
sg118
I0
sg402
I0
sg292
I0
sg442
I0
sg294
I0
sg295
I0
sg296
I0
sg404
I0
sg443
I0
sg300
I0
sg301
I0
sg406
I0
sg135
I0
sg407
I0
sg149
I0
sg304
I0
sg305
I0
sg306
I0
sg130
I0
sg123
I0
sg307
I0
sg137
I0
sg136
I0
sg444
I0
sg445
I0
sg310
I0
sg311
I0
sg410
I0
sg411
I0
sg314
I0
sg412
I0
sg413
I0
sg251
I0
sg415
I0
sg128
I0
sg416
I0
sg319
I0
sg320
I0
sg321
I0
sg119
I0
sg120
I0
sg322
I0
sg122
I0
sg417
I0
sg324
I0
sg144
I0
sg325
I0
sg418
I0
sg446
I0
sg328
I0
sg330
I0
sg115
I0
sg331
I0
sg332
I0
sg333
I0
sg334
I0
sg447
I0
sg336
I0
sg448
I0
sg139
I0
sg338
I0
sg339
I0
sg340
I0
sg129
I0
sg341
I0
sg342
I0
sg343
I0
sg344
I0
sg449
I0
sg346
I0
sg117
I0
sg450
I0
sg109
I0
sg348
I0
sg451
I0
sg426
I0
sg351
I0
sg148
I0
sg427
I0
ssg40
(dp841
g143
I0
sg11
I0
sg14
I0
sg33
I0
sg108
I0
sg42
I0
sg126
I0
sg127
I0
sg110
I0
sg111
I0
sg133
I0
sg145
I0
sg12
I0
sg132
I0
sg147
I0
sg125
I0
sg99
I0
sg150
I0
sg106
I0
sg22
I0
sg98
I0
sg36
I0
sg35
I0
sg102
I0
sg62
I0
sg93
I0
sg27
I0
sg20
I0
sg107
I0
sg105
I0
sg138
I0
sg65
I0
sg63
I0
sg142
I0
sg128
I0
sg151
I0
sg113
I0
sg103
I0
sg50
I0
sg74
I0
sg141
I0
sg44
I0
sg137
I0
sg40
I7
sg41
I11
sg121
I6
sg23
I0
sg87
I0
sg72
I0
sg71
I0
sg100
I0
sg29
I0
sg28
I0
sg134
I0
sg116
I0
sg91
I0
sg53
I0
sg101
I0
sg95
I0
sg146
I0
sg131
I0
sg112
I0
sg8
I0
sg118
I0
sg9
I0
sg83
I0
sg75
I0
sg92
I0
sg79
I0
sg80
I0
sg32
I0
sg68
I0
sg67
I0
sg94
I0
sg89
I0
sg37
I0
sg135
I0
sg46
I0
sg149
I0
sg38
I0
sg81
I0
sg24
I0
sg130
I0
sg123
I0
sg10
I0
sg82
I0
sg136
I0
sg60
I0
sg59
I0
sg73
I0
sg54
I0
sg26
I0
sg55
I0
sg96
I0
sg52
I0
sg13
I0
sg140
I0
sg114
I0
sg21
I0
sg19
I0
sg124
I0
sg78
I0
sg39
I0
sg84
I0
sg119
I0
sg120
I0
sg97
I0
sg122
I0
sg117
I0
sg90
I0
sg144
I0
sg17
I0
sg25
I0
sg66
I0
sg31
I0
sg88
I0
sg115
I0
sg56
I0
sg47
I0
sg86
I0
sg104
I0
sg70
I0
sg85
I0
sg69
I0
sg139
I0
sg16
I0
sg30
I0
sg15
I0
sg129
I0
sg45
I0
sg34
I0
sg49
I0
sg18
I0
sg64
I0
sg57
I0
sg51
I0
sg58
I0
sg109
I0
sg77
I0
sg61
I0
sg43
I0
sg76
I0
sg148
I0
sg48
I0
ssg41
(dp842
g11
I0
sg14
I0
sg33
I0
sg108
I0
sg42
I0
sg126
I0
sg127
I0
sg110
I0
sg111
I0
sg133
I0
sg145
I0
sg12
I0
sg132
I0
sg147
I0
sg125
I0
sg99
I0
sg150
I0
sg106
I0
sg22
I0
sg98
I0
sg36
I0
sg35
I0
sg102
I0
sg62
I0
sg93
I0
sg27
I0
sg20
I0
sg107
I0
sg105
I0
sg138
I0
sg65
I0
sg63
I0
sg128
I0
sg113
I0
sg103
I0
sg50
I0
sg74
I0
sg141
I0
sg44
I0
sg137
I0
sg40
I0
sg41
I0
sg121
I0
sg23
I0
sg87
I0
sg72
I0
sg71
I0
sg100
I0
sg29
I0
sg28
I0
sg134
I0
sg116
I0
sg91
I0
sg53
I0
sg101
I0
sg95
I0
sg146
I0
sg131
I0
sg112
I0
sg8
I0
sg118
I0
sg9
I0
sg83
I0
sg75
I0
sg92
I0
sg79
I0
sg80
I0
sg32
I0
sg68
I0
sg67
I0
sg94
I0
sg89
I0
sg37
I0
sg135
I0
sg46
I0
sg149
I0
sg38
I0
sg81
I0
sg24
I0
sg130
I0
sg123
I0
sg10
I0
sg82
I0
sg136
I0
sg60
I0
sg59
I0
sg73
I0
sg54
I0
sg26
I0
sg55
I0
sg96
I0
sg52
I0
sg13
I0
sg140
I0
sg114
I0
sg21
I0
sg19
I0
sg124
I0
sg78
I0
sg39
I0
sg84
I0
sg119
I0
sg120
I0
sg97
I0
sg122
I0
sg117
I0
sg90
I0
sg144
I0
sg17
I0
sg25
I0
sg66
I0
sg31
I0
sg88
I0
sg115
I0
sg56
I0
sg47
I0
sg86
I0
sg104
I0
sg70
I0
sg85
I0
sg69
I0
sg139
I0
sg16
I0
sg30
I0
sg15
I0
sg129
I0
sg45
I0
sg34
I0
sg49
I0
sg18
I0
sg64
I0
sg57
I0
sg51
I0
sg58
I0
sg109
I0
sg77
I0
sg61
I0
sg43
I0
sg76
I0
sg148
I0
sg48
I0
ssg121
(dp843
g255
I0
sg256
I0
sg257
I0
sg391
I0
sg108
I0
sg140
I0
sg126
I0
sg127
I0
sg110
I0
sg111
I0
sg133
I0
sg145
I0
sg392
I0
sg132
I0
sg147
I0
sg125
I0
sg261
I0
sg150
I0
sg106
I0
sg393
I0
sg263
I0
sg113
I0
sg264
I0
sg265
I0
sg266
I0
sg394
I0
sg395
I0
sg269
I0
sg107
I0
sg270
I0
sg396
I0
sg397
I0
sg142
I0
sg273
I0
sg151
I0
sg274
I0
sg398
I0
sg124
I0
sg114
I0
sg250
I0
sg276
I0
sg277
I0
sg278
I0
sg121
I0
sg399
I0
sg280
I0
sg281
I0
sg282
I0
sg284
I0
sg138
I0
sg134
I0
sg116
I0
sg285
I0
sg286
I0
sg287
I0
sg288
I0
sg146
I0
sg131
I0
sg112
I0
sg400
I0
sg401
I0
sg118
I0
sg402
I0
sg292
I0
sg403
I0
sg294
I0
sg295
I0
sg296
I0
sg404
I0
sg405
I0
sg300
I0
sg301
I0
sg406
I0
sg135
I0
sg407
I0
sg149
I0
sg304
I0
sg305
I0
sg306
I0
sg130
I0
sg123
I0
sg307
I0
sg137
I0
sg136
I0
sg408
I0
sg409
I0
sg310
I0
sg311
I0
sg410
I0
sg411
I0
sg314
I0
sg412
I0
sg413
I0
sg414
I0
sg415
I0
sg128
I0
sg416
I0
sg319
I0
sg320
I0
sg321
I0
sg119
I0
sg120
I0
sg322
I0
sg122
I0
sg417
I0
sg324
I0
sg144
I0
sg325
I0
sg418
I0
sg419
I0
sg328
I0
sg420
I0
sg330
I0
sg115
I0
sg331
I0
sg332
I0
sg333
I0
sg334
I0
sg421
I0
sg336
I0
sg422
I0
sg139
I0
sg338
I0
sg339
I0
sg340
I0
sg129
I0
sg341
I0
sg342
I0
sg343
I0
sg344
I0
sg423
I0
sg346
I0
sg117
I0
sg424
I0
sg109
I0
sg348
I0
sg425
I0
sg426
I0
sg351
I0
sg148
I0
sg427
I0
ssg23
(dp844
g143
I0
sg11
I0
sg14
I0
sg33
I0
sg638
I0
sg42
I0
sg355
I0
sg356
I0
sg639
I0
sg640
I0
sg359
I0
sg145
I0
sg12
I0
sg360
I0
sg147
I0
sg362
I0
sg99
I0
sg641
I0
sg22
I0
sg98
I0
sg36
I0
sg35
I0
sg102
I0
sg62
I0
sg93
I0
sg27
I0
sg20
I0
sg642
I0
sg105
I0
sg365
I0
sg65
I0
sg63
I0
sg142
I0
sg366
I0
sg151
I0
sg643
I0
sg103
I0
sg50
I0
sg74
I0
sg141
I0
sg44
I0
sg368
I0
sg40
I0
sg41
I0
sg369
I0
sg23
I0
sg87
I0
sg72
I0
sg71
I0
sg100
I0
sg29
I0
sg28
I0
sg370
I0
sg476
I0
sg91
I0
sg53
I0
sg101
I0
sg95
I0
sg146
I0
sg373
I0
sg644
I0
sg8
I0
sg514
I0
sg9
I0
sg83
I0
sg75
I0
sg92
I0
sg79
I0
sg80
I0
sg32
I0
sg68
I0
sg67
I0
sg94
I0
sg89
I0
sg37
I0
sg376
I0
sg46
I0
sg38
I0
sg81
I0
sg24
I0
sg377
I0
sg378
I0
sg10
I0
sg82
I0
sg379
I0
sg60
I0
sg59
I0
sg73
I0
sg54
I0
sg26
I0
sg55
I0
sg96
I0
sg52
I0
sg13
I0
sg251
I0
sg462
I0
sg21
I0
sg19
I0
sg381
I0
sg78
I0
sg39
I0
sg84
I0
sg382
I0
sg383
I0
sg97
I0
sg384
I0
sg527
I0
sg90
I0
sg144
I0
sg17
I0
sg25
I0
sg66
I0
sg31
I0
sg88
I0
sg469
I0
sg56
I0
sg47
I0
sg86
I0
sg104
I0
sg70
I0
sg85
I0
sg69
I0
sg387
I0
sg16
I0
sg30
I0
sg15
I0
sg388
I0
sg45
I0
sg34
I0
sg49
I0
sg18
I0
sg64
I0
sg57
I0
sg51
I0
sg58
I0
sg645
I0
sg77
I0
sg61
I0
sg43
I0
sg76
I0
sg148
I0
sg48
I0
ssg87
(dp845
g143
I0
sg11
I0
sg14
I0
sg33
I0
sg108
I0
sg42
I0
sg126
I0
sg127
I0
sg110
I0
sg111
I0
sg133
I0
sg12
I0
sg132
I0
sg125
I0
sg99
I0
sg106
I0
sg22
I0
sg98
I0
sg36
I0
sg35
I0
sg102
I0
sg62
I0
sg93
I0
sg27
I0
sg20
I0
sg107
I0
sg105
I0
sg138
I0
sg65
I0
sg63
I0
sg128
I0
sg113
I0
sg103
I0
sg50
I0
sg74
I0
sg141
I0
sg44
I0
sg137
I0
sg40
I0
sg41
I0
sg121
I0
sg23
I0
sg87
I6
sg72
I0
sg71
I0
sg100
I0
sg29
I0
sg28
I0
sg134
I0
sg116
I0
sg91
I0
sg53
I0
sg101
I0
sg95
I0
sg131
I0
sg112
I0
sg8
I0
sg118
I0
sg9
I0
sg83
I0
sg75
I0
sg92
I0
sg79
I0
sg80
I0
sg32
I0
sg68
I0
sg67
I0
sg94
I0
sg89
I0
sg37
I0
sg135
I0
sg46
I0
sg38
I0
sg81
I0
sg24
I0
sg130
I0
sg123
I0
sg10
I0
sg82
I0
sg136
I0
sg60
I0
sg59
I0
sg73
I0
sg54
I0
sg26
I0
sg55
I0
sg96
I0
sg52
I0
sg13
I0
sg140
I0
sg114
I0
sg21
I0
sg19
I0
sg124
I0
sg78
I0
sg39
I0
sg84
I0
sg119
I0
sg120
I0
sg97
I0
sg122
I0
sg117
I0
sg90
I0
sg17
I0
sg25
I0
sg66
I0
sg31
I0
sg88
I0
sg115
I0
sg56
I0
sg47
I0
sg86
I0
sg104
I0
sg70
I0
sg85
I0
sg69
I0
sg139
I0
sg16
I0
sg30
I0
sg15
I0
sg129
I0
sg45
I0
sg34
I0
sg49
I0
sg18
I0
sg64
I0
sg57
I0
sg51
I0
sg58
I0
sg109
I0
sg77
I0
sg61
I0
sg43
I0
sg76
I0
sg48
I0
ssg72
(dp846
g143
I0
sg11
I0
sg14
I0
sg33
I0
sg108
I0
sg42
I0
sg126
I0
sg127
I0
sg110
I0
sg111
I0
sg133
I0
sg145
I0
sg12
I0
sg132
I0
sg147
I0
sg125
I0
sg99
I0
sg150
I0
sg106
I0
sg22
I0
sg98
I0
sg36
I0
sg35
I0
sg102
I0
sg62
I0
sg93
I0
sg27
I0
sg20
I0
sg107
I0
sg105
I0
sg138
I0
sg65
I0
sg63
I0
sg142
I0
sg128
I0
sg151
I0
sg113
I0
sg103
I0
sg50
I0
sg74
I0
sg141
I0
sg44
I0
sg137
I0
sg40
I0
sg41
I0
sg121
I0
sg23
I0
sg87
I0
sg72
I0
sg71
I0
sg100
I0
sg29
I0
sg28
I0
sg134
I0
sg116
I0
sg91
I0
sg53
I0
sg101
I0
sg95
I0
sg146
I0
sg131
I0
sg112
I0
sg8
I0
sg118
I0
sg9
I0
sg83
I0
sg75
I0
sg92
I0
sg79
I0
sg80
I0
sg32
I0
sg68
I0
sg67
I0
sg94
I0
sg89
I0
sg37
I0
sg135
I0
sg46
I0
sg149
I0
sg38
I0
sg81
I0
sg24
I0
sg130
I0
sg123
I0
sg10
I0
sg82
I0
sg136
I0
sg60
I0
sg59
I0
sg73
I0
sg54
I0
sg26
I0
sg55
I0
sg96
I0
sg52
I0
sg13
I0
sg140
I0
sg114
I0
sg21
I0
sg19
I0
sg124
I0
sg78
I0
sg39
I0
sg84
I0
sg119
I0
sg120
I0
sg97
I0
sg122
I0
sg117
I0
sg90
I0
sg144
I0
sg17
I0
sg25
I0
sg66
I0
sg31
I0
sg88
I0
sg115
I0
sg56
I0
sg47
I0
sg86
I0
sg104
I0
sg70
I0
sg85
I0
sg69
I0
sg139
I0
sg16
I0
sg30
I0
sg15
I0
sg129
I0
sg45
I0
sg34
I0
sg49
I0
sg18
I0
sg64
I0
sg57
I0
sg51
I0
sg58
I0
sg109
I0
sg77
I0
sg61
I0
sg43
I0
sg76
I0
sg148
I0
sg48
I0
ssg71
(dp847
g143
I0
sg11
I0
sg14
I0
sg33
I0
sg108
I0
sg42
I0
sg126
I0
sg127
I0
sg110
I0
sg111
I0
sg133
I0
sg145
I0
sg12
I0
sg132
I0
sg147
I0
sg125
I0
sg99
I0
sg150
I0
sg106
I0
sg22
I0
sg98
I0
sg36
I0
sg35
I0
sg102
I0
sg62
I0
sg93
I0
sg27
I0
sg20
I0
sg107
I0
sg105
I0
sg138
I0
sg65
I0
sg63
I0
sg142
I0
sg128
I0
sg151
I0
sg113
I0
sg103
I0
sg50
I0
sg74
I0
sg141
I0
sg44
I0
sg137
I0
sg40
I0
sg41
I0
sg121
I0
sg23
I0
sg87
I0
sg72
I12
sg71
I0
sg100
I0
sg29
I0
sg28
I0
sg134
I0
sg116
I0
sg91
I0
sg53
I0
sg101
I0
sg95
I0
sg146
I0
sg131
I0
sg112
I0
sg8
I0
sg118
I0
sg9
I0
sg83
I0
sg75
I0
sg92
I0
sg79
I0
sg80
I0
sg32
I0
sg68
I0
sg67
I0
sg94
I0
sg89
I0
sg37
I0
sg135
I0
sg46
I0
sg149
I0
sg38
I0
sg81
I0
sg24
I0
sg130
I0
sg123
I0
sg10
I0
sg82
I0
sg136
I0
sg60
I0
sg59
I0
sg73
I0
sg54
I0
sg26
I0
sg55
I0
sg96
I0
sg52
I0
sg13
I0
sg140
I0
sg114
I0
sg21
I0
sg19
I0
sg124
I0
sg78
I0
sg39
I0
sg84
I0
sg119
I0
sg120
I0
sg97
I0
sg122
I0
sg117
I0
sg90
I0
sg144
I0
sg17
I0
sg25
I0
sg66
I0
sg31
I0
sg88
I0
sg115
I0
sg56
I0
sg47
I0
sg86
I0
sg104
I0
sg70
I0
sg85
I0
sg69
I0
sg139
I0
sg16
I0
sg30
I0
sg15
I0
sg129
I0
sg45
I0
sg34
I0
sg49
I0
sg18
I0
sg64
I0
sg57
I0
sg51
I0
sg58
I0
sg109
I0
sg77
I0
sg61
I0
sg43
I0
sg76
I0
sg148
I0
sg48
I0
ssg100
(dp848
g11
I0
sg14
I0
sg33
I0
sg638
I0
sg42
I0
sg639
I0
sg640
I0
sg12
I0
sg99
I0
sg641
I0
sg22
I0
sg98
I0
sg36
I0
sg35
I0
sg102
I0
sg62
I0
sg93
I0
sg27
I0
sg20
I0
sg642
I0
sg105
I0
sg65
I0
sg63
I0
sg643
I0
sg103
I0
sg50
I0
sg74
I0
sg141
I0
sg44
I0
sg40
I0
sg41
I0
sg23
I0
sg87
I0
sg72
I0
sg71
I0
sg100
I0
sg29
I0
sg28
I0
sg91
I0
sg53
I0
sg101
I0
sg95
I0
sg644
I0
sg8
I0
sg9
I0
sg83
I0
sg75
I0
sg92
I0
sg79
I0
sg80
I0
sg32
I0
sg68
I0
sg67
I0
sg94
I0
sg89
I0
sg37
I0
sg46
I0
sg38
I0
sg81
I0
sg24
I0
sg10
I0
sg82
I0
sg60
I0
sg59
I0
sg73
I0
sg54
I0
sg26
I0
sg55
I0
sg96
I0
sg52
I0
sg13
I0
sg21
I0
sg19
I0
sg78
I0
sg39
I0
sg84
I0
sg97
I0
sg90
I0
sg17
I0
sg25
I0
sg66
I0
sg31
I0
sg88
I0
sg56
I0
sg47
I0
sg86
I0
sg104
I0
sg70
I0
sg85
I0
sg69
I0
sg16
I0
sg30
I0
sg15
I0
sg45
I0
sg34
I0
sg49
I0
sg18
I0
sg64
I0
sg57
I0
sg51
I0
sg58
I0
sg645
I0
sg77
I0
sg61
I0
sg43
I0
sg76
I0
sg48
I0
ssg29
(dp849
g143
I0
sg11
I0
sg14
I0
sg33
I0
sg108
I0
sg42
I0
sg126
I0
sg127
I0
sg110
I0
sg111
I0
sg133
I0
sg145
I0
sg12
I0
sg132
I0
sg147
I0
sg125
I0
sg99
I0
sg150
I0
sg106
I0
sg22
I0
sg98
I0
sg36
I0
sg35
I0
sg102
I0
sg62
I0
sg93
I0
sg27
I0
sg20
I0
sg107
I0
sg105
I0
sg138
I0
sg65
I0
sg63
I0
sg142
I0
sg128
I0
sg151
I0
sg113
I0
sg103
I0
sg50
I0
sg74
I0
sg141
I0
sg44
I0
sg137
I0
sg40
I0
sg41
I0
sg121
I0
sg23
I0
sg87
I0
sg72
I0
sg71
I0
sg100
I2
sg29
I22
sg28
I0
sg134
I0
sg116
I0
sg91
I0
sg53
I0
sg101
I0
sg95
I0
sg146
I0
sg131
I0
sg112
I0
sg8
I0
sg118
I0
sg9
I0
sg83
I0
sg75
I0
sg92
I0
sg79
I0
sg80
I0
sg32
I0
sg68
I0
sg67
I0
sg94
I0
sg89
I0
sg37
I0
sg135
I0
sg46
I0
sg149
I0
sg38
I0
sg81
I0
sg24
I0
sg130
I0
sg123
I0
sg10
I0
sg82
I0
sg136
I0
sg60
I0
sg59
I0
sg73
I0
sg54
I0
sg26
I0
sg55
I0
sg96
I0
sg52
I0
sg13
I0
sg140
I0
sg114
I0
sg21
I0
sg19
I0
sg124
I0
sg78
I0
sg39
I0
sg84
I0
sg119
I0
sg120
I0
sg97
I0
sg122
I0
sg117
I0
sg90
I0
sg144
I0
sg17
I0
sg25
I0
sg66
I0
sg31
I0
sg88
I0
sg115
I0
sg56
I0
sg47
I0
sg86
I0
sg104
I0
sg70
I0
sg85
I0
sg69
I0
sg139
I0
sg16
I0
sg30
I0
sg15
I0
sg129
I0
sg45
I0
sg34
I0
sg49
I0
sg18
I0
sg64
I0
sg57
I0
sg51
I0
sg58
I0
sg109
I0
sg77
I0
sg61
I0
sg43
I0
sg76
I0
sg148
I0
sg48
I0
ssg28
(dp850
g143
I0
sg11
I0
sg14
I0
sg33
I0
sg638
I0
sg42
I0
sg355
I0
sg356
I0
sg639
I0
sg640
I0
sg359
I0
sg145
I0
sg12
I0
sg360
I0
sg147
I0
sg362
I0
sg99
I0
sg641
I0
sg22
I0
sg98
I0
sg36
I0
sg35
I0
sg102
I0
sg62
I0
sg93
I0
sg27
I0
sg20
I0
sg642
I0
sg105
I0
sg365
I0
sg65
I0
sg63
I0
sg142
I0
sg366
I0
sg151
I0
sg643
I0
sg103
I0
sg50
I0
sg74
I0
sg141
I0
sg44
I0
sg368
I0
sg40
I0
sg41
I0
sg369
I0
sg23
I0
sg87
I0
sg72
I0
sg71
I0
sg100
I0
sg29
I0
sg28
I6
sg370
I0
sg476
I0
sg91
I0
sg53
I0
sg101
I0
sg95
I0
sg146
I0
sg373
I0
sg644
I0
sg8
I0
sg514
I0
sg9
I0
sg83
I0
sg75
I0
sg92
I0
sg79
I0
sg80
I0
sg32
I0
sg68
I0
sg67
I0
sg94
I0
sg89
I0
sg37
I0
sg376
I0
sg46
I0
sg38
I0
sg81
I0
sg24
I0
sg377
I0
sg378
I0
sg10
I0
sg82
I0
sg379
I0
sg60
I0
sg59
I0
sg73
I0
sg54
I0
sg26
I0
sg55
I0
sg96
I0
sg52
I0
sg13
I0
sg251
I0
sg462
I0
sg21
I0
sg19
I0
sg381
I0
sg78
I0
sg39
I0
sg84
I0
sg382
I0
sg383
I0
sg97
I0
sg384
I0
sg527
I0
sg90
I0
sg144
I0
sg17
I0
sg25
I0
sg66
I0
sg31
I0
sg88
I0
sg469
I0
sg56
I0
sg47
I0
sg86
I0
sg104
I0
sg70
I0
sg85
I0
sg69
I0
sg387
I0
sg16
I0
sg30
I0
sg15
I0
sg388
I0
sg45
I0
sg34
I0
sg49
I0
sg18
I0
sg64
I0
sg57
I0
sg51
I0
sg58
I0
sg645
I0
sg77
I0
sg61
I0
sg43
I0
sg76
I0
sg148
I0
sg48
I0
ssg134
(dp851
g143
I0
sg255
I0
sg256
I0
sg257
I0
sg391
I0
sg108
I0
sg414
I0
sg126
I0
sg127
I0
sg110
I0
sg111
I0
sg133
I0
sg145
I0
sg392
I0
sg132
I0
sg147
I2
sg125
I0
sg261
I0
sg150
I0
sg106
I0
sg438
I0
sg263
I0
sg113
I0
sg264
I0
sg265
I0
sg266
I0
sg394
I0
sg395
I0
sg269
I0
sg107
I0
sg270
I0
sg439
I0
sg440
I0
sg142
I0
sg273
I0
sg151
I0
sg274
I0
sg398
I0
sg124
I0
sg114
I0
sg250
I0
sg276
I0
sg277
I0
sg278
I0
sg121
I0
sg399
I0
sg280
I0
sg281
I0
sg282
I0
sg284
I0
sg138
I0
sg134
I0
sg116
I0
sg285
I0
sg286
I0
sg287
I0
sg288
I0
sg146
I0
sg131
I0
sg112
I0
sg441
I0
sg401
I0
sg118
I0
sg402
I0
sg292
I0
sg442
I0
sg294
I0
sg295
I0
sg296
I0
sg404
I0
sg194
I0
sg443
I0
sg300
I0
sg301
I0
sg406
I0
sg135
I4
sg407
I0
sg149
I0
sg304
I0
sg305
I0
sg306
I0
sg130
I0
sg123
I0
sg307
I0
sg137
I0
sg136
I0
sg444
I0
sg445
I0
sg310
I0
sg311
I0
sg410
I0
sg411
I0
sg314
I0
sg412
I0
sg413
I0
sg251
I0
sg415
I0
sg128
I0
sg416
I0
sg319
I0
sg320
I0
sg321
I0
sg119
I0
sg120
I0
sg322
I0
sg122
I0
sg417
I0
sg324
I0
sg222
I0
sg144
I0
sg325
I0
sg418
I0
sg446
I0
sg328
I0
sg330
I0
sg115
I0
sg331
I0
sg332
I0
sg333
I0
sg334
I0
sg447
I0
sg336
I0
sg448
I0
sg139
I0
sg338
I0
sg339
I0
sg340
I0
sg129
I0
sg341
I0
sg342
I0
sg343
I0
sg344
I0
sg449
I0
sg346
I0
sg117
I0
sg450
I0
sg109
I0
sg348
I0
sg451
I0
sg426
I0
sg351
I0
sg148
I0
sg427
I0
ssg116
(dp852
g255
I0
sg256
I0
sg257
I0
sg479
I0
sg108
I0
sg259
I0
sg460
I0
sg126
I0
sg127
I0
sg110
I0
sg111
I0
sg133
I0
sg145
I0
sg260
I0
sg132
I0
sg147
I0
sg125
I0
sg261
I0
sg150
I0
sg106
I0
sg262
I0
sg263
I0
sg113
I0
sg264
I0
sg265
I0
sg266
I0
sg144
I0
sg516
I0
sg269
I0
sg107
I0
sg270
I0
sg271
I0
sg272
I0
sg273
I0
sg151
I0
sg274
I0
sg461
I0
sg124
I0
sg114
I0
sg250
I0
sg276
I0
sg277
I0
sg278
I0
sg121
I0
sg456
I0
sg280
I0
sg281
I0
sg282
I0
sg284
I0
sg138
I0
sg134
I0
sg116
I6
sg285
I0
sg286
I0
sg287
I0
sg288
I0
sg146
I0
sg131
I0
sg112
I0
sg289
I0
sg290
I0
sg118
I0
sg291
I0
sg292
I0
sg293
I0
sg294
I0
sg295
I0
sg296
I0
sg518
I0
sg298
I0
sg299
I0
sg300
I0
sg301
I0
sg499
I0
sg135
I0
sg303
I0
sg149
I0
sg304
I0
sg305
I0
sg306
I0
sg130
I0
sg123
I0
sg307
I0
sg137
I0
sg136
I0
sg308
I0
sg309
I0
sg310
I0
sg311
I0
sg485
I0
sg313
I0
sg334
I0
sg315
I0
sg316
I0
sg140
I0
sg317
I0
sg128
I0
sg318
I0
sg319
I0
sg320
I0
sg321
I0
sg119
I0
sg120
I0
sg322
I0
sg122
I0
sg323
I0
sg324
I0
sg325
I0
sg523
I0
sg327
I0
sg328
I0
sg329
I0
sg330
I0
sg115
I0
sg331
I0
sg332
I0
sg333
I0
sg314
I0
sg335
I0
sg336
I0
sg337
I0
sg139
I0
sg338
I0
sg339
I0
sg340
I0
sg129
I0
sg341
I0
sg342
I0
sg343
I0
sg344
I0
sg345
I0
sg346
I0
sg117
I0
sg347
I0
sg109
I0
sg348
I0
sg349
I0
sg350
I0
sg351
I0
sg148
I0
sg352
I0
ssg91
(dp853
g11
I0
sg14
I0
sg33
I0
sg108
I0
sg42
I0
sg126
I0
sg127
I0
sg110
I0
sg111
I0
sg133
I0
sg12
I0
sg132
I0
sg125
I0
sg99
I0
sg150
I0
sg106
I0
sg22
I0
sg98
I0
sg36
I0
sg35
I0
sg102
I0
sg62
I0
sg93
I0
sg27
I0
sg20
I0
sg107
I0
sg105
I0
sg138
I0
sg65
I0
sg63
I0
sg128
I0
sg113
I0
sg103
I0
sg50
I0
sg74
I0
sg141
I0
sg44
I0
sg137
I0
sg40
I0
sg41
I0
sg121
I0
sg23
I0
sg87
I0
sg72
I0
sg71
I0
sg100
I0
sg29
I0
sg28
I0
sg134
I0
sg116
I0
sg91
I0
sg53
I6
sg101
I0
sg95
I0
sg432
I0
sg131
I0
sg112
I0
sg8
I0
sg118
I0
sg9
I0
sg83
I0
sg75
I0
sg92
I0
sg79
I0
sg80
I0
sg32
I0
sg68
I0
sg67
I0
sg94
I0
sg89
I0
sg37
I0
sg135
I0
sg46
I0
sg149
I0
sg38
I0
sg81
I0
sg24
I0
sg130
I0
sg123
I0
sg10
I0
sg82
I0
sg136
I0
sg60
I0
sg59
I0
sg73
I0
sg54
I0
sg26
I0
sg55
I0
sg96
I0
sg52
I0
sg13
I0
sg140
I0
sg114
I0
sg21
I0
sg19
I0
sg124
I0
sg78
I0
sg39
I0
sg84
I0
sg119
I0
sg120
I0
sg97
I0
sg122
I0
sg117
I0
sg90
I0
sg17
I0
sg25
I0
sg66
I0
sg31
I0
sg88
I0
sg115
I0
sg56
I0
sg47
I0
sg86
I0
sg104
I0
sg70
I0
sg85
I0
sg69
I0
sg139
I0
sg16
I0
sg30
I0
sg15
I0
sg129
I0
sg45
I0
sg34
I0
sg49
I0
sg18
I0
sg64
I0
sg57
I0
sg51
I0
sg58
I0
sg109
I0
sg77
I0
sg61
I0
sg43
I0
sg76
I0
sg48
I0
ssg53
(dp854
g143
I0
sg11
I0
sg14
I0
sg33
I0
sg108
I0
sg42
I0
sg126
I0
sg127
I0
sg110
I0
sg111
I0
sg133
I0
sg12
I0
sg132
I0
sg361
I0
sg125
I0
sg99
I0
sg150
I0
sg106
I0
sg22
I0
sg98
I0
sg36
I0
sg35
I0
sg102
I0
sg62
I0
sg93
I0
sg27
I0
sg20
I0
sg107
I0
sg105
I0
sg138
I0
sg65
I0
sg63
I0
sg142
I0
sg128
I0
sg151
I0
sg113
I0
sg103
I0
sg50
I0
sg74
I0
sg141
I0
sg44
I0
sg137
I0
sg40
I0
sg41
I0
sg121
I0
sg23
I0
sg87
I0
sg72
I0
sg71
I0
sg100
I0
sg29
I0
sg28
I0
sg134
I0
sg116
I0
sg91
I0
sg53
I6
sg101
I0
sg95
I0
sg432
I0
sg131
I0
sg112
I0
sg8
I0
sg118
I0
sg9
I0
sg83
I0
sg75
I0
sg92
I0
sg79
I0
sg80
I0
sg32
I0
sg68
I0
sg67
I0
sg94
I0
sg89
I0
sg37
I0
sg135
I0
sg46
I0
sg149
I0
sg38
I0
sg81
I0
sg24
I0
sg130
I0
sg123
I0
sg10
I0
sg82
I0
sg136
I0
sg60
I0
sg59
I0
sg73
I0
sg54
I0
sg26
I0
sg55
I0
sg96
I0
sg52
I0
sg13
I0
sg140
I0
sg114
I0
sg21
I0
sg19
I0
sg124
I0
sg78
I0
sg39
I0
sg84
I0
sg119
I0
sg120
I0
sg97
I0
sg122
I0
sg117
I0
sg90
I0
sg17
I0
sg25
I0
sg66
I0
sg31
I0
sg88
I0
sg115
I0
sg56
I0
sg47
I0
sg86
I0
sg104
I0
sg70
I0
sg85
I0
sg69
I0
sg139
I0
sg16
I0
sg30
I0
sg15
I0
sg129
I0
sg45
I0
sg34
I0
sg49
I0
sg18
I0
sg64
I0
sg57
I0
sg51
I0
sg58
I0
sg109
I0
sg77
I0
sg61
I0
sg43
I0
sg76
I0
sg48
I0
ssg101
(dp855
g11
I0
sg14
I0
sg33
I0
sg108
I0
sg42
I0
sg126
I0
sg127
I0
sg110
I0
sg111
I0
sg133
I0
sg12
I0
sg132
I0
sg125
I0
sg99
I0
sg150
I0
sg106
I0
sg22
I0
sg98
I0
sg36
I0
sg35
I0
sg102
I0
sg62
I0
sg93
I0
sg27
I0
sg20
I0
sg107
I0
sg105
I0
sg138
I0
sg65
I0
sg63
I0
sg128
I0
sg113
I0
sg103
I0
sg50
I0
sg74
I0
sg141
I0
sg44
I0
sg137
I0
sg40
I0
sg41
I0
sg121
I0
sg23
I0
sg87
I0
sg72
I0
sg71
I0
sg100
I0
sg29
I0
sg28
I0
sg134
I0
sg116
I0
sg91
I0
sg53
I0
sg101
I6
sg95
I0
sg432
I0
sg131
I0
sg112
I0
sg8
I0
sg118
I0
sg9
I0
sg83
I0
sg75
I0
sg92
I0
sg79
I0
sg80
I0
sg32
I0
sg68
I0
sg67
I0
sg94
I0
sg89
I0
sg37
I0
sg135
I0
sg46
I0
sg149
I0
sg38
I0
sg81
I0
sg24
I0
sg130
I0
sg123
I0
sg10
I0
sg82
I0
sg136
I0
sg60
I0
sg59
I0
sg73
I0
sg54
I0
sg26
I0
sg55
I0
sg96
I0
sg52
I0
sg13
I0
sg140
I0
sg114
I0
sg21
I0
sg19
I0
sg124
I0
sg78
I0
sg39
I0
sg84
I0
sg119
I0
sg120
I0
sg97
I0
sg122
I0
sg117
I0
sg90
I0
sg17
I0
sg25
I0
sg66
I0
sg31
I0
sg88
I0
sg115
I0
sg56
I0
sg47
I0
sg86
I0
sg104
I0
sg70
I0
sg85
I0
sg69
I0
sg139
I0
sg16
I0
sg30
I0
sg15
I0
sg129
I0
sg45
I0
sg34
I0
sg49
I0
sg18
I0
sg64
I0
sg57
I0
sg51
I0
sg58
I0
sg109
I0
sg77
I0
sg61
I0
sg43
I0
sg76
I0
sg48
I0
ssg95
(dp856
g11
I0
sg14
I0
sg33
I0
sg108
I0
sg42
I0
sg126
I0
sg127
I0
sg110
I0
sg111
I0
sg133
I0
sg12
I0
sg132
I0
sg125
I0
sg99
I0
sg150
I0
sg106
I0
sg22
I0
sg98
I0
sg36
I0
sg35
I0
sg102
I0
sg62
I0
sg93
I0
sg27
I0
sg20
I0
sg107
I0
sg105
I0
sg138
I0
sg65
I0
sg63
I0
sg128
I0
sg113
I0
sg103
I0
sg50
I0
sg74
I0
sg141
I0
sg44
I0
sg137
I0
sg40
I0
sg41
I0
sg121
I0
sg23
I0
sg87
I0
sg72
I0
sg71
I0
sg100
I0
sg29
I0
sg28
I0
sg134
I0
sg116
I0
sg91
I0
sg53
I0
sg101
I0
sg95
I0
sg432
I0
sg131
I0
sg112
I0
sg8
I0
sg118
I0
sg9
I0
sg83
I0
sg75
I0
sg92
I0
sg79
I0
sg80
I0
sg32
I0
sg68
I0
sg67
I0
sg94
I0
sg89
I0
sg37
I0
sg135
I0
sg46
I0
sg149
I0
sg38
I0
sg81
I0
sg24
I0
sg130
I0
sg123
I0
sg10
I0
sg82
I0
sg136
I0
sg60
I0
sg59
I0
sg73
I0
sg54
I0
sg26
I0
sg55
I0
sg96
I0
sg52
I0
sg13
I0
sg140
I0
sg114
I0
sg21
I0
sg19
I0
sg124
I0
sg78
I0
sg39
I0
sg84
I0
sg119
I0
sg120
I0
sg97
I0
sg122
I0
sg117
I0
sg90
I0
sg17
I0
sg25
I0
sg66
I0
sg31
I0
sg88
I0
sg115
I0
sg56
I0
sg47
I0
sg86
I0
sg104
I0
sg70
I0
sg85
I0
sg69
I0
sg139
I0
sg16
I0
sg30
I0
sg15
I0
sg129
I0
sg45
I0
sg34
I0
sg49
I0
sg18
I0
sg64
I0
sg57
I0
sg51
I0
sg58
I0
sg109
I0
sg77
I0
sg61
I0
sg43
I0
sg76
I0
sg48
I0
ssg146
(dp857
g470
I0
sg475
I0
sg498
I0
sg479
I0
sg480
I0
sg531
I0
sg486
I0
sg488
I0
sg493
I0
sg525
I0
sg495
I0
sg145
I0
sg260
I0
sg496
I0
sg147
I0
sg497
I0
sg553
I0
sg150
I0
sg503
I0
sg484
I0
sg555
I0
sg510
I0
sg511
I0
sg558
I0
sg515
I0
sg144
I0
sg516
I0
sg519
I0
sg520
I0
sg562
I0
sg509
I0
sg151
I0
sg556
I0
sg590
I0
sg458
I0
sg462
I0
sg512
I0
sg463
I0
sg465
I0
sg466
I0
sg467
I0
sg456
I0
sg490
I0
sg481
I0
sg487
I0
sg468
I0
sg492
I0
sg476
I0
sg577
I0
sg578
I0
sg579
I0
sg580
I0
sg146
I0
sg505
I0
sg506
I0
sg290
I0
sg514
I0
sg291
I0
sg494
I0
sg585
I0
sg586
I0
sg533
I0
sg518
I0
sg587
I0
sg588
I0
sg499
I0
sg589
I0
sg461
I0
sg478
I0
sg513
I0
sg473
I0
sg474
I0
sg464
I0
sg477
I0
sg483
I0
sg454
I0
sg485
I0
sg534
I0
sg598
I0
sg535
I0
sg316
I0
sg317
I0
sg611
I0
sg455
I0
sg536
I0
sg459
I0
sg250
I0
sg537
I0
sg521
I0
sg522
I0
sg453
I0
sg149
I0
sg597
I0
sg457
I0
sg523
I0
sg507
I0
sg469
I0
sg471
I0
sg472
I0
sg482
I0
sg500
I0
sg460
I0
sg489
I0
sg491
I0
sg517
I0
sg615
I0
sg502
I0
sg501
I0
sg508
I0
sg528
I0
sg504
I0
sg148
I0
sg539
I0
ssg131
(dp858
g143
I0
sg255
I0
sg256
I0
sg257
I0
sg391
I0
sg108
I0
sg414
I0
sg126
I0
sg127
I0
sg110
I0
sg111
I0
sg133
I0
sg145
I0
sg392
I0
sg132
I0
sg147
I0
sg125
I0
sg261
I0
sg150
I0
sg106
I0
sg438
I0
sg263
I0
sg113
I0
sg264
I0
sg265
I0
sg266
I0
sg394
I0
sg395
I0
sg269
I0
sg107
I0
sg270
I0
sg439
I0
sg440
I0
sg142
I0
sg273
I0
sg151
I0
sg274
I0
sg398
I0
sg124
I0
sg114
I0
sg250
I0
sg276
I0
sg277
I0
sg278
I0
sg121
I0
sg399
I0
sg280
I0
sg281
I0
sg282
I0
sg284
I0
sg138
I0
sg134
I0
sg116
I0
sg285
I0
sg286
I0
sg287
I0
sg288
I0
sg146
I0
sg131
I6
sg112
I0
sg441
I0
sg401
I0
sg118
I0
sg402
I0
sg292
I0
sg442
I0
sg294
I0
sg295
I0
sg296
I0
sg404
I0
sg194
I0
sg443
I0
sg300
I0
sg301
I0
sg406
I0
sg135
I0
sg407
I0
sg149
I0
sg304
I0
sg305
I0
sg306
I0
sg130
I0
sg123
I0
sg307
I0
sg137
I0
sg136
I0
sg444
I0
sg445
I0
sg310
I0
sg311
I0
sg410
I0
sg411
I0
sg314
I0
sg412
I0
sg413
I0
sg251
I0
sg415
I0
sg128
I0
sg416
I0
sg319
I0
sg320
I0
sg321
I0
sg119
I0
sg120
I0
sg322
I0
sg122
I0
sg417
I0
sg324
I0
sg222
I0
sg144
I0
sg325
I0
sg418
I0
sg446
I0
sg328
I0
sg330
I0
sg115
I0
sg331
I0
sg332
I0
sg333
I0
sg334
I0
sg447
I0
sg336
I0
sg448
I0
sg139
I0
sg338
I0
sg339
I0
sg340
I0
sg129
I0
sg341
I0
sg342
I0
sg343
I0
sg344
I0
sg449
I0
sg346
I0
sg117
I0
sg450
I0
sg109
I0
sg348
I0
sg451
I0
sg426
I0
sg351
I0
sg148
I0
sg427
I0
ssg112
(dp859
g255
I0
sg256
I0
sg257
I0
sg258
I0
sg108
I0
sg259
I0
sg126
I0
sg127
I0
sg110
I0
sg111
I0
sg133
I0
sg145
I0
sg260
I0
sg132
I0
sg147
I0
sg125
I0
sg261
I0
sg150
I0
sg106
I0
sg262
I0
sg263
I0
sg113
I0
sg264
I0
sg265
I0
sg266
I0
sg267
I0
sg268
I0
sg269
I0
sg107
I0
sg270
I0
sg271
I0
sg272
I0
sg273
I0
sg274
I0
sg275
I0
sg124
I0
sg114
I0
sg141
I0
sg276
I0
sg277
I0
sg278
I0
sg121
I0
sg279
I0
sg280
I0
sg281
I0
sg282
I0
sg283
I0
sg284
I0
sg138
I0
sg134
I0
sg116
I0
sg285
I0
sg286
I0
sg287
I0
sg288
I0
sg146
I0
sg131
I0
sg112
I6
sg289
I0
sg290
I0
sg118
I0
sg291
I0
sg292
I0
sg293
I0
sg294
I0
sg295
I0
sg296
I0
sg297
I0
sg298
I0
sg299
I0
sg300
I0
sg301
I0
sg302
I0
sg135
I0
sg303
I0
sg149
I0
sg304
I0
sg305
I0
sg306
I0
sg130
I0
sg123
I0
sg307
I0
sg137
I0
sg136
I0
sg308
I0
sg309
I0
sg310
I0
sg311
I0
sg312
I0
sg313
I0
sg314
I0
sg315
I0
sg316
I0
sg140
I0
sg317
I0
sg128
I0
sg318
I0
sg319
I0
sg320
I0
sg321
I0
sg119
I0
sg120
I0
sg322
I0
sg122
I0
sg323
I0
sg324
I0
sg144
I0
sg325
I0
sg326
I0
sg327
I0
sg328
I0
sg329
I0
sg330
I0
sg115
I0
sg331
I0
sg332
I0
sg333
I0
sg334
I0
sg335
I0
sg336
I0
sg337
I0
sg139
I0
sg338
I0
sg339
I0
sg340
I0
sg129
I0
sg341
I0
sg342
I0
sg343
I0
sg344
I0
sg345
I0
sg346
I0
sg117
I0
sg347
I0
sg109
I0
sg348
I0
sg349
I0
sg350
I0
sg351
I0
sg148
I0
sg352
I0
ssg8
(dp860
g143
I0
sg11
I0
sg14
I0
sg33
I0
sg480
I0
sg42
I0
sg355
I0
sg356
I0
sg493
I0
sg525
I0
sg359
I0
sg145
I0
sg12
I0
sg360
I0
sg147
I0
sg362
I0
sg99
I0
sg150
I0
sg503
I0
sg22
I0
sg98
I0
sg36
I0
sg35
I0
sg102
I0
sg62
I0
sg93
I0
sg27
I0
sg20
I0
sg520
I0
sg105
I0
sg365
I0
sg65
I0
sg63
I0
sg142
I0
sg366
I0
sg151
I1
sg526
I0
sg103
I0
sg50
I0
sg74
I0
sg250
I0
sg44
I0
sg368
I0
sg40
I0
sg41
I0
sg369
I0
sg23
I0
sg87
I0
sg72
I0
sg71
I0
sg100
I0
sg29
I0
sg28
I0
sg370
I0
sg476
I0
sg91
I0
sg53
I0
sg101
I0
sg95
I0
sg146
I0
sg373
I0
sg506
I0
sg8
I0
sg514
I0
sg9
I5
sg83
I0
sg75
I0
sg92
I0
sg79
I0
sg80
I0
sg32
I0
sg68
I0
sg67
I0
sg94
I0
sg89
I0
sg37
I0
sg376
I0
sg46
I0
sg149
I0
sg38
I0
sg81
I0
sg24
I0
sg377
I0
sg378
I0
sg10
I0
sg82
I0
sg379
I0
sg60
I0
sg59
I0
sg73
I0
sg54
I0
sg26
I0
sg55
I0
sg96
I0
sg52
I0
sg13
I0
sg251
I0
sg462
I0
sg21
I0
sg19
I0
sg381
I0
sg78
I0
sg39
I0
sg84
I0
sg382
I0
sg383
I0
sg97
I0
sg384
I0
sg527
I0
sg90
I0
sg144
I0
sg17
I0
sg25
I0
sg66
I0
sg31
I0
sg88
I0
sg469
I0
sg56
I0
sg47
I0
sg86
I0
sg104
I0
sg70
I0
sg85
I0
sg69
I0
sg387
I0
sg16
I0
sg30
I0
sg15
I0
sg388
I0
sg45
I0
sg34
I0
sg49
I0
sg18
I0
sg64
I0
sg57
I0
sg51
I0
sg58
I0
sg528
I0
sg77
I0
sg61
I0
sg43
I0
sg76
I0
sg148
I0
sg48
I0
ssg118
(dp861
g255
I0
sg256
I0
sg257
I0
sg479
I0
sg108
I0
sg259
I0
sg460
I0
sg126
I0
sg127
I0
sg110
I0
sg111
I0
sg133
I0
sg145
I0
sg260
I0
sg132
I0
sg147
I0
sg125
I0
sg261
I0
sg150
I0
sg106
I0
sg262
I0
sg263
I0
sg113
I0
sg264
I0
sg265
I0
sg266
I0
sg144
I0
sg516
I0
sg269
I0
sg107
I0
sg270
I0
sg271
I0
sg272
I0
sg273
I0
sg151
I0
sg274
I0
sg461
I0
sg124
I0
sg114
I0
sg250
I0
sg276
I0
sg277
I0
sg278
I0
sg121
I0
sg456
I0
sg280
I0
sg281
I0
sg282
I0
sg284
I0
sg138
I0
sg134
I0
sg116
I0
sg285
I0
sg286
I0
sg287
I0
sg288
I0
sg146
I0
sg131
I0
sg112
I0
sg289
I0
sg290
I0
sg118
I6
sg291
I0
sg292
I0
sg293
I0
sg294
I0
sg295
I0
sg296
I0
sg518
I0
sg298
I0
sg299
I0
sg300
I0
sg301
I0
sg499
I0
sg135
I0
sg303
I0
sg149
I0
sg304
I0
sg305
I0
sg306
I0
sg130
I0
sg123
I0
sg307
I0
sg137
I0
sg136
I0
sg308
I0
sg309
I0
sg310
I0
sg311
I0
sg485
I0
sg313
I0
sg314
I0
sg315
I0
sg316
I0
sg140
I0
sg317
I0
sg128
I0
sg318
I0
sg319
I0
sg320
I0
sg321
I0
sg119
I0
sg120
I0
sg322
I0
sg122
I0
sg323
I0
sg324
I0
sg325
I0
sg523
I0
sg327
I0
sg328
I0
sg329
I0
sg330
I0
sg115
I0
sg331
I0
sg332
I0
sg333
I0
sg334
I0
sg335
I0
sg336
I0
sg337
I0
sg139
I0
sg338
I0
sg339
I0
sg340
I0
sg129
I0
sg341
I0
sg342
I0
sg343
I0
sg344
I0
sg345
I0
sg346
I0
sg117
I0
sg347
I0
sg109
I0
sg348
I0
sg349
I0
sg350
I0
sg351
I0
sg148
I0
sg352
I0
ssg9
(dp862
g143
I0
sg11
I0
sg14
I0
sg33
I0
sg480
I0
sg42
I0
sg355
I0
sg356
I0
sg493
I0
sg525
I0
sg359
I0
sg145
I0
sg12
I0
sg360
I0
sg147
I0
sg362
I0
sg99
I0
sg150
I0
sg503
I0
sg22
I0
sg98
I0
sg36
I0
sg35
I0
sg102
I0
sg62
I0
sg93
I0
sg27
I0
sg20
I0
sg520
I0
sg105
I0
sg365
I0
sg65
I0
sg63
I0
sg142
I0
sg366
I0
sg526
I0
sg103
I0
sg50
I0
sg74
I0
sg250
I0
sg44
I0
sg368
I0
sg40
I0
sg41
I0
sg369
I0
sg23
I0
sg87
I0
sg72
I0
sg71
I0
sg100
I0
sg29
I0
sg28
I0
sg370
I0
sg476
I0
sg91
I0
sg53
I0
sg101
I0
sg95
I0
sg146
I0
sg373
I0
sg506
I0
sg8
I0
sg514
I0
sg9
I0
sg83
I0
sg75
I0
sg92
I0
sg79
I0
sg80
I0
sg32
I0
sg68
I0
sg67
I0
sg94
I0
sg89
I0
sg37
I0
sg376
I0
sg46
I0
sg149
I0
sg38
I0
sg81
I0
sg24
I0
sg377
I0
sg378
I0
sg10
I0
sg82
I0
sg379
I0
sg60
I0
sg59
I0
sg73
I0
sg54
I0
sg26
I0
sg55
I0
sg96
I0
sg52
I0
sg13
I0
sg251
I0
sg462
I0
sg21
I0
sg19
I0
sg381
I0
sg78
I0
sg39
I0
sg84
I0
sg382
I0
sg383
I0
sg97
I0
sg384
I0
sg527
I0
sg90
I0
sg144
I0
sg17
I0
sg25
I0
sg66
I0
sg31
I0
sg88
I0
sg469
I0
sg56
I0
sg47
I0
sg86
I0
sg104
I0
sg70
I0
sg85
I0
sg69
I0
sg387
I0
sg16
I0
sg30
I0
sg15
I0
sg388
I0
sg45
I0
sg34
I0
sg49
I0
sg18
I0
sg64
I0
sg57
I0
sg51
I0
sg58
I0
sg528
I0
sg77
I0
sg61
I0
sg43
I0
sg76
I0
sg148
I0
sg48
I0
ssg83
(dp863
g143
I0
sg11
I0
sg14
I0
sg33
I0
sg108
I0
sg42
I0
sg126
I0
sg127
I0
sg110
I0
sg111
I0
sg133
I0
sg145
I0
sg12
I0
sg132
I0
sg147
I0
sg125
I0
sg99
I0
sg150
I0
sg106
I0
sg22
I0
sg98
I0
sg36
I0
sg35
I0
sg102
I0
sg62
I0
sg93
I0
sg27
I0
sg20
I0
sg107
I0
sg105
I0
sg138
I0
sg65
I0
sg63
I0
sg142
I0
sg128
I0
sg151
I0
sg113
I0
sg103
I0
sg50
I0
sg74
I0
sg141
I0
sg44
I0
sg137
I0
sg40
I0
sg41
I0
sg121
I0
sg23
I0
sg87
I0
sg72
I0
sg71
I0
sg100
I0
sg29
I0
sg28
I0
sg134
I0
sg116
I0
sg91
I0
sg53
I0
sg101
I0
sg95
I0
sg146
I0
sg131
I0
sg112
I0
sg8
I0
sg118
I0
sg9
I0
sg45
I0
sg75
I0
sg92
I0
sg79
I0
sg80
I0
sg32
I0
sg68
I0
sg67
I0
sg94
I0
sg89
I0
sg37
I0
sg135
I0
sg46
I0
sg149
I0
sg38
I0
sg81
I0
sg24
I0
sg130
I0
sg123
I0
sg10
I0
sg82
I0
sg136
I0
sg60
I0
sg59
I0
sg73
I0
sg54
I0
sg26
I0
sg55
I0
sg96
I0
sg52
I0
sg13
I0
sg140
I0
sg114
I0
sg21
I0
sg19
I0
sg124
I0
sg78
I0
sg39
I0
sg84
I0
sg119
I0
sg120
I0
sg97
I0
sg122
I0
sg117
I0
sg90
I0
sg144
I0
sg17
I0
sg25
I0
sg66
I0
sg31
I0
sg88
I0
sg115
I0
sg56
I0
sg47
I0
sg86
I0
sg104
I0
sg70
I0
sg85
I0
sg69
I0
sg139
I0
sg16
I0
sg30
I0
sg15
I0
sg129
I0
sg83
I6
sg34
I0
sg49
I0
sg18
I0
sg64
I0
sg57
I0
sg51
I0
sg58
I0
sg109
I0
sg77
I0
sg61
I0
sg43
I0
sg76
I0
sg148
I0
sg48
I0
ssg75
(dp864
g143
I0
sg11
I0
sg14
I0
sg33
I0
sg354
I0
sg42
I0
sg622
I0
sg623
I0
sg357
I0
sg358
I0
sg359
I0
sg12
I0
sg360
I0
sg624
I0
sg99
I0
sg363
I0
sg22
I0
sg98
I0
sg36
I0
sg35
I0
sg102
I0
sg62
I0
sg93
I0
sg27
I0
sg20
I0
sg364
I0
sg105
I0
sg365
I0
sg65
I0
sg63
I0
sg142
I0
sg366
I0
sg367
I0
sg103
I0
sg50
I0
sg74
I0
sg141
I0
sg44
I0
sg368
I0
sg40
I0
sg41
I0
sg625
I0
sg23
I0
sg87
I0
sg72
I0
sg71
I0
sg100
I0
sg29
I0
sg28
I0
sg370
I0
sg371
I0
sg91
I0
sg53
I0
sg101
I0
sg95
I0
sg373
I0
sg374
I0
sg8
I0
sg375
I0
sg9
I0
sg83
I0
sg75
I6
sg92
I0
sg79
I0
sg80
I0
sg32
I0
sg68
I0
sg67
I0
sg94
I0
sg89
I0
sg37
I0
sg376
I0
sg46
I0
sg38
I0
sg81
I0
sg24
I0
sg377
I0
sg626
I0
sg10
I0
sg82
I0
sg379
I0
sg60
I0
sg59
I0
sg73
I0
sg54
I0
sg26
I0
sg55
I0
sg96
I0
sg52
I0
sg13
I0
sg140
I0
sg380
I0
sg21
I0
sg19
I0
sg627
I0
sg78
I0
sg39
I0
sg84
I0
sg628
I0
sg629
I0
sg97
I0
sg630
I0
sg385
I0
sg90
I0
sg17
I0
sg25
I0
sg66
I0
sg31
I0
sg88
I0
sg386
I0
sg56
I0
sg47
I0
sg86
I0
sg104
I0
sg70
I0
sg85
I0
sg69
I0
sg387
I0
sg16
I0
sg30
I0
sg15
I0
sg388
I0
sg45
I0
sg34
I0
sg49
I0
sg18
I0
sg64
I0
sg57
I0
sg51
I0
sg58
I0
sg389
I0
sg77
I0
sg61
I0
sg43
I0
sg76
I0
sg48
I0
ssg92
(dp865
g11
I0
sg14
I0
sg33
I0
sg108
I0
sg42
I0
sg126
I0
sg127
I0
sg110
I0
sg111
I0
sg133
I0
sg12
I0
sg132
I0
sg125
I0
sg99
I0
sg150
I0
sg106
I0
sg22
I0
sg98
I0
sg36
I0
sg35
I0
sg102
I0
sg62
I0
sg93
I0
sg27
I0
sg20
I0
sg107
I0
sg105
I0
sg138
I0
sg65
I0
sg63
I0
sg128
I0
sg113
I0
sg103
I0
sg50
I0
sg74
I0
sg141
I0
sg44
I0
sg137
I0
sg40
I0
sg41
I0
sg121
I0
sg23
I0
sg87
I0
sg72
I0
sg71
I0
sg100
I0
sg29
I0
sg28
I0
sg134
I0
sg116
I0
sg91
I0
sg53
I0
sg101
I0
sg95
I0
sg432
I0
sg131
I0
sg112
I0
sg8
I0
sg118
I0
sg9
I0
sg83
I0
sg75
I0
sg92
I6
sg79
I6
sg80
I0
sg32
I0
sg68
I0
sg67
I0
sg94
I0
sg89
I0
sg37
I0
sg135
I0
sg46
I0
sg149
I0
sg38
I0
sg81
I0
sg24
I0
sg130
I0
sg123
I0
sg10
I0
sg82
I0
sg136
I0
sg60
I0
sg59
I0
sg73
I0
sg54
I0
sg26
I0
sg55
I0
sg96
I0
sg52
I0
sg13
I0
sg140
I0
sg114
I0
sg21
I0
sg19
I0
sg124
I0
sg78
I0
sg39
I0
sg84
I0
sg119
I0
sg120
I0
sg97
I0
sg122
I0
sg117
I0
sg90
I0
sg17
I0
sg25
I0
sg66
I0
sg31
I0
sg88
I0
sg115
I0
sg56
I0
sg47
I0
sg86
I0
sg104
I0
sg70
I0
sg85
I0
sg69
I0
sg139
I0
sg16
I0
sg30
I0
sg15
I0
sg129
I0
sg45
I0
sg34
I0
sg49
I0
sg18
I0
sg64
I0
sg57
I0
sg51
I0
sg58
I0
sg109
I0
sg77
I0
sg61
I0
sg43
I0
sg76
I0
sg48
I0
ssg79
(dp866
g143
I0
sg11
I0
sg14
I0
sg33
I0
sg108
I0
sg42
I0
sg126
I0
sg127
I0
sg110
I0
sg111
I0
sg133
I0
sg12
I0
sg132
I0
sg125
I0
sg99
I0
sg150
I0
sg106
I0
sg22
I0
sg98
I0
sg36
I0
sg35
I0
sg102
I0
sg62
I0
sg93
I0
sg27
I0
sg20
I0
sg107
I0
sg105
I0
sg138
I0
sg65
I0
sg63
I0
sg128
I0
sg113
I0
sg103
I0
sg50
I0
sg74
I0
sg141
I0
sg44
I0
sg137
I0
sg40
I0
sg41
I0
sg121
I0
sg23
I0
sg87
I0
sg72
I0
sg71
I0
sg100
I0
sg29
I0
sg28
I0
sg134
I0
sg116
I0
sg91
I0
sg53
I0
sg101
I0
sg95
I0
sg432
I0
sg131
I0
sg112
I0
sg8
I0
sg118
I0
sg9
I0
sg83
I0
sg75
I0
sg92
I0
sg79
I0
sg80
I6
sg32
I0
sg68
I0
sg67
I0
sg94
I0
sg89
I0
sg37
I0
sg135
I0
sg46
I0
sg149
I0
sg38
I0
sg81
I0
sg24
I0
sg130
I0
sg123
I0
sg10
I0
sg82
I0
sg136
I0
sg60
I0
sg59
I0
sg73
I0
sg54
I0
sg26
I0
sg55
I0
sg96
I0
sg52
I0
sg13
I0
sg140
I0
sg114
I0
sg21
I0
sg19
I0
sg124
I0
sg78
I0
sg39
I0
sg84
I0
sg119
I0
sg120
I0
sg97
I0
sg122
I0
sg117
I0
sg90
I0
sg17
I0
sg25
I0
sg66
I0
sg31
I0
sg88
I0
sg115
I0
sg56
I0
sg47
I0
sg86
I0
sg104
I0
sg70
I0
sg85
I0
sg69
I0
sg139
I0
sg16
I0
sg30
I0
sg15
I0
sg129
I0
sg45
I0
sg34
I0
sg49
I0
sg18
I0
sg64
I0
sg57
I0
sg51
I0
sg58
I0
sg109
I0
sg77
I0
sg61
I0
sg43
I0
sg76
I0
sg48
I0
ssg80
(dp867
g143
I0
sg11
I0
sg14
I0
sg33
I0
sg108
I0
sg42
I0
sg126
I0
sg127
I0
sg110
I0
sg111
I0
sg133
I0
sg12
I0
sg132
I0
sg125
I0
sg99
I0
sg106
I0
sg22
I0
sg98
I0
sg36
I0
sg35
I0
sg102
I0
sg62
I0
sg93
I0
sg27
I0
sg20
I0
sg107
I0
sg105
I0
sg138
I0
sg65
I0
sg63
I0
sg128
I0
sg113
I0
sg103
I0
sg50
I0
sg74
I0
sg141
I0
sg44
I0
sg137
I0
sg40
I0
sg41
I0
sg121
I0
sg23
I0
sg87
I0
sg72
I0
sg71
I0
sg100
I0
sg29
I0
sg28
I0
sg134
I0
sg116
I0
sg91
I0
sg53
I0
sg101
I0
sg95
I0
sg131
I0
sg112
I0
sg8
I0
sg118
I0
sg9
I0
sg83
I0
sg75
I0
sg92
I0
sg79
I0
sg43
I0
sg32
I0
sg68
I0
sg67
I0
sg94
I0
sg89
I0
sg37
I0
sg135
I0
sg46
I0
sg38
I0
sg81
I0
sg24
I0
sg130
I0
sg123
I0
sg10
I0
sg82
I0
sg136
I0
sg60
I0
sg59
I0
sg73
I0
sg54
I0
sg26
I0
sg55
I0
sg96
I0
sg52
I0
sg13
I0
sg140
I0
sg114
I0
sg21
I0
sg19
I0
sg124
I0
sg78
I0
sg39
I0
sg84
I0
sg119
I0
sg120
I0
sg97
I0
sg122
I0
sg117
I0
sg90
I0
sg17
I0
sg25
I0
sg66
I0
sg31
I0
sg88
I0
sg115
I0
sg56
I0
sg47
I0
sg86
I0
sg104
I0
sg70
I0
sg85
I0
sg69
I0
sg139
I0
sg16
I0
sg30
I0
sg15
I0
sg129
I0
sg45
I0
sg34
I0
sg49
I0
sg18
I0
sg64
I0
sg57
I0
sg51
I0
sg58
I0
sg109
I0
sg77
I0
sg61
I0
sg80
I0
sg76
I0
sg48
I0
ssg32
(dp868
g143
I0
sg11
I0
sg14
I0
sg33
I0
sg638
I0
sg42
I0
sg355
I0
sg356
I0
sg639
I0
sg640
I0
sg359
I0
sg145
I0
sg12
I0
sg360
I0
sg147
I0
sg362
I0
sg99
I0
sg641
I0
sg22
I0
sg98
I0
sg36
I0
sg35
I0
sg102
I0
sg62
I0
sg93
I0
sg27
I0
sg20
I0
sg642
I0
sg105
I0
sg365
I0
sg65
I0
sg63
I0
sg142
I0
sg366
I0
sg151
I0
sg643
I0
sg103
I0
sg50
I0
sg74
I0
sg141
I0
sg44
I0
sg368
I0
sg40
I0
sg41
I0
sg369
I0
sg23
I0
sg87
I0
sg72
I0
sg71
I0
sg100
I0
sg29
I0
sg28
I0
sg370
I0
sg476
I0
sg91
I0
sg53
I0
sg101
I0
sg95
I0
sg146
I0
sg373
I0
sg644
I0
sg8
I0
sg514
I0
sg9
I0
sg83
I0
sg75
I0
sg92
I0
sg79
I0
sg80
I0
sg32
I6
sg68
I0
sg67
I0
sg94
I0
sg89
I0
sg37
I0
sg376
I0
sg46
I0
sg38
I0
sg81
I0
sg24
I0
sg377
I0
sg378
I0
sg10
I0
sg82
I0
sg379
I0
sg60
I0
sg59
I0
sg73
I0
sg54
I0
sg26
I0
sg55
I0
sg96
I0
sg52
I0
sg13
I0
sg251
I0
sg462
I0
sg21
I0
sg19
I0
sg381
I0
sg78
I0
sg39
I0
sg84
I0
sg382
I0
sg383
I0
sg97
I0
sg384
I0
sg527
I0
sg90
I0
sg144
I0
sg17
I0
sg25
I0
sg66
I0
sg31
I0
sg88
I0
sg469
I0
sg56
I0
sg47
I0
sg86
I0
sg104
I0
sg70
I0
sg85
I0
sg69
I0
sg387
I0
sg16
I0
sg30
I0
sg15
I0
sg388
I0
sg45
I0
sg34
I0
sg49
I0
sg18
I0
sg64
I0
sg57
I0
sg51
I0
sg58
I0
sg645
I0
sg77
I0
sg61
I0
sg43
I0
sg76
I0
sg148
I0
sg48
I0
ssg68
(dp869
g143
I0
sg11
I0
sg14
I0
sg33
I0
sg354
I0
sg42
I0
sg357
I0
sg358
I0
sg160
I0
sg12
I0
sg162
I0
sg99
I0
sg363
I0
sg22
I0
sg98
I0
sg36
I0
sg35
I0
sg102
I0
sg62
I0
sg93
I0
sg27
I0
sg20
I0
sg364
I0
sg105
I0
sg182
I0
sg65
I0
sg63
I0
sg171
I0
sg367
I0
sg103
I0
sg50
I0
sg74
I0
sg141
I0
sg44
I0
sg40
I0
sg41
I0
sg23
I0
sg87
I0
sg72
I0
sg71
I0
sg100
I0
sg29
I0
sg28
I0
sg183
I0
sg371
I0
sg91
I0
sg53
I0
sg101
I0
sg95
I0
sg186
I0
sg374
I0
sg8
I0
sg375
I0
sg9
I0
sg83
I0
sg75
I0
sg92
I0
sg79
I0
sg80
I0
sg32
I0
sg68
I0
sg67
I0
sg94
I0
sg89
I0
sg37
I0
sg197
I0
sg46
I0
sg38
I0
sg81
I0
sg24
I0
sg202
I0
sg10
I0
sg82
I0
sg205
I0
sg60
I0
sg59
I0
sg73
I0
sg54
I0
sg26
I0
sg55
I0
sg96
I0
sg52
I0
sg13
I0
sg380
I0
sg21
I0
sg19
I0
sg78
I0
sg39
I0
sg84
I0
sg97
I0
sg385
I0
sg90
I0
sg17
I0
sg25
I0
sg66
I0
sg31
I0
sg88
I0
sg386
I0
sg56
I0
sg47
I0
sg86
I0
sg104
I0
sg70
I0
sg85
I0
sg69
I0
sg231
I0
sg16
I0
sg30
I0
sg15
I0
sg235
I0
sg45
I0
sg34
I0
sg49
I0
sg18
I0
sg64
I0
sg57
I0
sg51
I0
sg58
I0
sg389
I0
sg77
I0
sg61
I0
sg43
I0
sg76
I0
sg48
I0
ssg67
(dp870
g143
I0
sg11
I0
sg14
I0
sg33
I0
sg354
I0
sg42
I0
sg622
I0
sg623
I0
sg357
I0
sg358
I0
sg359
I0
sg12
I0
sg360
I0
sg624
I0
sg99
I0
sg363
I0
sg22
I0
sg98
I0
sg36
I0
sg35
I0
sg102
I0
sg62
I0
sg93
I0
sg27
I0
sg20
I0
sg364
I0
sg105
I0
sg365
I0
sg65
I0
sg63
I0
sg142
I0
sg366
I0
sg367
I0
sg103
I0
sg50
I0
sg74
I0
sg141
I0
sg44
I0
sg368
I0
sg40
I0
sg41
I0
sg625
I0
sg23
I0
sg87
I0
sg72
I0
sg71
I0
sg100
I0
sg29
I0
sg28
I0
sg370
I0
sg371
I0
sg91
I0
sg53
I0
sg101
I0
sg95
I0
sg373
I0
sg374
I0
sg8
I0
sg375
I0
sg9
I0
sg83
I0
sg75
I0
sg92
I0
sg79
I0
sg80
I0
sg32
I0
sg68
I4
sg67
I0
sg94
I0
sg89
I0
sg37
I0
sg376
I0
sg46
I0
sg38
I0
sg81
I0
sg24
I0
sg377
I0
sg626
I0
sg10
I0
sg82
I0
sg379
I0
sg60
I0
sg59
I0
sg73
I0
sg54
I0
sg26
I0
sg55
I0
sg96
I0
sg52
I0
sg13
I0
sg140
I2
sg380
I0
sg21
I0
sg19
I0
sg627
I0
sg78
I0
sg39
I0
sg84
I0
sg628
I0
sg629
I0
sg97
I0
sg630
I0
sg385
I0
sg90
I0
sg17
I0
sg25
I0
sg66
I0
sg31
I0
sg88
I0
sg386
I0
sg56
I0
sg47
I0
sg86
I0
sg104
I0
sg70
I0
sg85
I0
sg69
I0
sg387
I0
sg16
I0
sg30
I0
sg15
I0
sg388
I0
sg45
I0
sg34
I0
sg49
I0
sg18
I0
sg64
I0
sg57
I0
sg51
I0
sg58
I0
sg389
I0
sg77
I0
sg61
I0
sg43
I0
sg76
I0
sg48
I0
ssg94
(dp871
g11
I0
sg14
I0
sg33
I0
sg108
I0
sg42
I0
sg126
I0
sg127
I0
sg110
I0
sg111
I0
sg133
I0
sg12
I0
sg132
I0
sg125
I0
sg99
I0
sg150
I0
sg106
I0
sg22
I0
sg98
I0
sg36
I0
sg35
I0
sg102
I0
sg62
I0
sg93
I0
sg27
I0
sg20
I0
sg107
I0
sg105
I0
sg138
I0
sg65
I0
sg63
I0
sg128
I0
sg113
I0
sg103
I0
sg50
I0
sg74
I0
sg141
I0
sg44
I0
sg137
I0
sg40
I0
sg41
I0
sg121
I0
sg23
I0
sg87
I0
sg72
I0
sg71
I0
sg100
I0
sg29
I0
sg28
I0
sg134
I0
sg116
I0
sg91
I0
sg53
I0
sg101
I0
sg95
I6
sg432
I0
sg131
I0
sg112
I0
sg8
I0
sg118
I0
sg9
I0
sg83
I0
sg75
I0
sg92
I0
sg79
I0
sg80
I0
sg32
I0
sg68
I0
sg67
I0
sg94
I0
sg89
I0
sg37
I0
sg135
I0
sg46
I0
sg149
I0
sg38
I0
sg81
I0
sg24
I0
sg130
I0
sg123
I0
sg10
I0
sg82
I0
sg136
I0
sg60
I0
sg59
I0
sg73
I0
sg90
I0
sg26
I0
sg55
I0
sg96
I0
sg52
I0
sg13
I0
sg140
I0
sg114
I0
sg21
I0
sg19
I0
sg124
I0
sg78
I0
sg39
I0
sg84
I0
sg119
I0
sg120
I0
sg97
I0
sg122
I0
sg117
I0
sg54
I0
sg17
I0
sg25
I0
sg66
I0
sg31
I0
sg88
I0
sg115
I0
sg56
I0
sg47
I0
sg86
I0
sg104
I0
sg70
I0
sg85
I0
sg69
I0
sg139
I0
sg16
I0
sg30
I0
sg15
I0
sg129
I0
sg45
I0
sg34
I0
sg49
I0
sg18
I0
sg64
I0
sg57
I0
sg51
I0
sg58
I0
sg109
I0
sg77
I0
sg61
I0
sg43
I0
sg76
I0
sg48
I0
ssg89
(dp872
g11
I0
sg14
I0
sg33
I0
sg108
I0
sg42
I0
sg126
I0
sg127
I0
sg110
I0
sg111
I0
sg133
I0
sg12
I0
sg132
I0
sg125
I0
sg99
I0
sg150
I0
sg106
I0
sg22
I0
sg98
I0
sg36
I0
sg35
I0
sg102
I0
sg62
I0
sg93
I0
sg27
I0
sg20
I0
sg107
I0
sg105
I0
sg138
I0
sg65
I0
sg63
I0
sg128
I0
sg113
I0
sg103
I0
sg50
I0
sg74
I0
sg141
I0
sg44
I0
sg137
I0
sg40
I0
sg41
I0
sg121
I0
sg23
I0
sg87
I0
sg72
I0
sg71
I0
sg100
I0
sg29
I0
sg28
I0
sg134
I0
sg116
I0
sg91
I0
sg53
I0
sg101
I0
sg95
I0
sg432
I0
sg131
I0
sg112
I0
sg8
I0
sg118
I0
sg9
I0
sg83
I0
sg75
I0
sg92
I0
sg79
I0
sg80
I0
sg32
I0
sg68
I0
sg67
I0
sg94
I0
sg89
I0
sg37
I0
sg135
I0
sg46
I0
sg149
I0
sg38
I0
sg81
I0
sg24
I0
sg130
I0
sg123
I0
sg10
I0
sg82
I0
sg136
I0
sg60
I0
sg59
I0
sg73
I0
sg54
I0
sg26
I0
sg55
I0
sg96
I0
sg52
I0
sg13
I0
sg140
I0
sg114
I0
sg21
I0
sg19
I0
sg124
I0
sg78
I0
sg39
I0
sg84
I0
sg119
I0
sg120
I0
sg97
I0
sg122
I0
sg117
I0
sg90
I6
sg17
I0
sg25
I0
sg66
I0
sg31
I0
sg88
I0
sg115
I0
sg56
I0
sg47
I0
sg86
I0
sg104
I0
sg70
I0
sg85
I0
sg69
I0
sg139
I0
sg16
I0
sg30
I0
sg15
I0
sg129
I0
sg45
I0
sg34
I0
sg49
I0
sg18
I0
sg64
I0
sg57
I0
sg51
I0
sg58
I0
sg109
I0
sg77
I0
sg61
I0
sg43
I0
sg76
I0
sg48
I0
ssg37
(dp873
g143
I0
sg11
I0
sg14
I0
sg33
I0
sg638
I0
sg42
I0
sg355
I0
sg356
I0
sg639
I0
sg640
I0
sg359
I0
sg145
I0
sg12
I0
sg360
I0
sg147
I0
sg362
I0
sg99
I0
sg641
I0
sg22
I0
sg98
I0
sg36
I0
sg35
I0
sg102
I0
sg62
I0
sg93
I0
sg27
I0
sg20
I0
sg642
I0
sg105
I0
sg365
I0
sg65
I0
sg63
I0
sg142
I0
sg366
I0
sg151
I0
sg643
I0
sg103
I0
sg50
I0
sg74
I0
sg141
I0
sg44
I0
sg368
I0
sg40
I0
sg41
I0
sg369
I0
sg23
I0
sg87
I0
sg72
I0
sg71
I0
sg100
I0
sg29
I0
sg28
I0
sg370
I0
sg476
I0
sg91
I0
sg53
I0
sg101
I0
sg95
I0
sg146
I0
sg373
I0
sg644
I0
sg8
I0
sg514
I0
sg9
I0
sg83
I0
sg75
I0
sg92
I0
sg79
I0
sg80
I0
sg32
I0
sg68
I0
sg67
I0
sg94
I0
sg89
I0
sg37
I0
sg376
I0
sg46
I0
sg38
I6
sg81
I0
sg24
I0
sg377
I0
sg378
I0
sg10
I0
sg82
I0
sg379
I0
sg60
I0
sg59
I0
sg73
I0
sg54
I0
sg26
I0
sg55
I0
sg96
I0
sg52
I0
sg13
I0
sg251
I0
sg462
I0
sg21
I0
sg19
I0
sg381
I0
sg78
I0
sg39
I0
sg84
I0
sg382
I0
sg383
I0
sg97
I0
sg384
I0
sg527
I0
sg90
I0
sg144
I0
sg17
I0
sg25
I0
sg66
I0
sg31
I0
sg88
I0
sg469
I0
sg56
I0
sg47
I0
sg86
I0
sg104
I0
sg70
I0
sg85
I0
sg69
I0
sg387
I0
sg16
I0
sg30
I0
sg15
I0
sg388
I0
sg45
I0
sg34
I0
sg49
I0
sg18
I0
sg64
I0
sg57
I0
sg51
I0
sg58
I0
sg645
I0
sg77
I0
sg61
I0
sg43
I0
sg76
I0
sg148
I0
sg48
I0
ssg135
(dp874
g143
I0
sg255
I0
sg256
I0
sg257
I0
sg391
I0
sg108
I0
sg414
I0
sg126
I0
sg127
I0
sg110
I0
sg111
I0
sg133
I0
sg392
I0
sg132
I0
sg125
I0
sg261
I0
sg150
I0
sg106
I0
sg438
I0
sg263
I0
sg113
I0
sg264
I0
sg265
I0
sg266
I0
sg394
I0
sg395
I0
sg269
I0
sg107
I0
sg270
I0
sg439
I0
sg440
I0
sg142
I0
sg273
I0
sg274
I0
sg398
I0
sg124
I0
sg114
I0
sg276
I0
sg277
I0
sg278
I0
sg121
I0
sg399
I0
sg280
I0
sg281
I0
sg282
I0
sg284
I0
sg138
I0
sg134
I0
sg116
I0
sg285
I0
sg286
I0
sg287
I0
sg288
I0
sg432
I0
sg131
I0
sg112
I0
sg441
I0
sg401
I0
sg118
I0
sg402
I0
sg292
I0
sg442
I0
sg294
I0
sg295
I0
sg296
I0
sg404
I0
sg194
I0
sg443
I0
sg300
I0
sg301
I0
sg406
I0
sg135
I0
sg407
I0
sg149
I0
sg304
I0
sg305
I0
sg306
I0
sg130
I0
sg123
I0
sg307
I0
sg137
I0
sg136
I0
sg444
I0
sg445
I0
sg310
I0
sg311
I0
sg410
I0
sg411
I0
sg314
I0
sg412
I0
sg413
I0
sg251
I0
sg415
I0
sg128
I0
sg416
I0
sg319
I0
sg320
I0
sg321
I0
sg119
I0
sg120
I0
sg322
I0
sg122
I0
sg417
I0
sg324
I0
sg222
I0
sg325
I0
sg418
I0
sg446
I0
sg328
I0
sg330
I0
sg115
I0
sg331
I0
sg332
I0
sg333
I0
sg334
I0
sg447
I0
sg336
I0
sg448
I0
sg139
I0
sg338
I0
sg339
I0
sg340
I0
sg129
I0
sg341
I0
sg342
I0
sg343
I0
sg344
I0
sg449
I0
sg346
I0
sg117
I0
sg450
I0
sg109
I0
sg348
I0
sg451
I0
sg426
I0
sg351
I0
sg427
I0
ssg46
(dp875
g143
I0
sg11
I0
sg14
I0
sg33
I0
sg354
I0
sg42
I0
sg355
I0
sg356
I0
sg357
I0
sg358
I0
sg359
I0
sg12
I0
sg360
I0
sg362
I0
sg99
I0
sg363
I0
sg22
I0
sg98
I0
sg36
I0
sg35
I0
sg102
I0
sg62
I0
sg93
I0
sg27
I0
sg20
I0
sg364
I0
sg105
I0
sg365
I0
sg65
I0
sg63
I0
sg142
I0
sg366
I0
sg367
I0
sg103
I0
sg50
I0
sg74
I0
sg141
I0
sg44
I0
sg368
I0
sg40
I0
sg41
I0
sg369
I0
sg23
I0
sg87
I0
sg72
I0
sg71
I0
sg100
I0
sg29
I0
sg28
I0
sg370
I0
sg371
I0
sg91
I0
sg53
I0
sg101
I0
sg95
I0
sg373
I0
sg374
I0
sg8
I0
sg375
I0
sg9
I0
sg83
I0
sg75
I0
sg92
I0
sg79
I0
sg80
I0
sg32
I0
sg68
I0
sg67
I0
sg94
I0
sg89
I0
sg37
I0
sg376
I0
sg46
I5
sg38
I0
sg81
I0
sg24
I0
sg377
I0
sg378
I0
sg10
I0
sg82
I0
sg379
I0
sg60
I0
sg59
I0
sg73
I0
sg54
I0
sg26
I0
sg55
I0
sg96
I0
sg52
I0
sg13
I0
sg251
I0
sg380
I0
sg21
I0
sg19
I0
sg381
I0
sg78
I0
sg39
I0
sg84
I0
sg382
I0
sg383
I0
sg97
I0
sg384
I0
sg385
I0
sg90
I0
sg17
I0
sg25
I0
sg66
I0
sg31
I0
sg88
I0
sg386
I0
sg56
I0
sg47
I0
sg86
I0
sg104
I0
sg70
I0
sg85
I0
sg69
I0
sg387
I0
sg16
I0
sg30
I0
sg15
I0
sg388
I0
sg45
I0
sg34
I0
sg49
I0
sg18
I0
sg64
I0
sg57
I0
sg51
I0
sg58
I0
sg389
I0
sg77
I0
sg61
I0
sg43
I0
sg76
I0
sg48
I0
ssg149
(dp876
g543
I0
sg544
I0
sg545
I0
sg546
I0
sg547
I0
sg548
I0
sg549
I0
sg525
I0
sg550
I0
sg431
I0
sg551
I0
sg552
I0
sg553
I0
sg150
I0
sg554
I0
sg555
I0
sg556
I0
sg557
I0
sg558
I0
sg559
I0
sg560
I0
sg561
I0
sg562
I0
sg563
I0
sg564
I0
sg565
I0
sg566
I0
sg567
I0
sg568
I0
sg569
I0
sg570
I0
sg571
I0
sg572
I0
sg573
I0
sg574
I0
sg575
I0
sg576
I0
sg577
I0
sg578
I0
sg579
I0
sg580
I0
sg432
I0
sg581
I0
sg582
I0
sg433
I0
sg583
I0
sg434
I0
sg584
I0
sg585
I0
sg586
I0
sg587
I0
sg588
I0
sg589
I0
sg590
I0
sg591
I0
sg592
I0
sg593
I0
sg594
I0
sg595
I0
sg596
I0
sg597
I0
sg598
I0
sg435
I0
sg436
I0
sg599
I0
sg600
I0
sg601
I0
sg602
I0
sg603
I0
sg149
I0
sg604
I0
sg605
I0
sg606
I0
sg607
I0
sg608
I0
sg609
I0
sg610
I0
sg611
I0
sg612
I0
sg613
I0
sg614
I0
sg615
I0
sg616
I0
sg617
I0
sg618
I0
sg528
I0
sg619
I0
ssg38
(dp877
g143
I0
sg11
I0
sg14
I0
sg33
I0
sg638
I0
sg42
I0
sg355
I0
sg356
I0
sg639
I0
sg640
I0
sg359
I0
sg145
I0
sg12
I0
sg360
I0
sg147
I0
sg362
I0
sg99
I0
sg641
I0
sg22
I0
sg98
I0
sg36
I0
sg35
I0
sg102
I0
sg62
I0
sg93
I0
sg27
I0
sg20
I0
sg642
I0
sg105
I0
sg365
I0
sg65
I0
sg63
I0
sg142
I0
sg366
I0
sg151
I0
sg643
I0
sg103
I0
sg50
I0
sg74
I0
sg141
I0
sg44
I0
sg368
I0
sg40
I0
sg41
I0
sg369
I0
sg23
I0
sg87
I0
sg72
I0
sg71
I0
sg100
I0
sg29
I0
sg28
I0
sg370
I0
sg476
I0
sg91
I0
sg53
I0
sg101
I0
sg95
I0
sg146
I0
sg373
I0
sg644
I0
sg8
I0
sg514
I0
sg9
I0
sg83
I0
sg75
I0
sg92
I0
sg79
I0
sg80
I0
sg32
I0
sg68
I0
sg67
I0
sg94
I0
sg89
I0
sg37
I0
sg376
I0
sg46
I0
sg38
I0
sg81
I0
sg24
I0
sg377
I0
sg378
I0
sg10
I0
sg82
I0
sg379
I0
sg60
I0
sg59
I0
sg73
I0
sg54
I0
sg26
I0
sg55
I0
sg96
I0
sg52
I0
sg13
I0
sg251
I0
sg462
I0
sg21
I0
sg19
I0
sg381
I0
sg78
I0
sg39
I0
sg84
I0
sg382
I0
sg383
I0
sg97
I0
sg384
I0
sg527
I0
sg90
I0
sg144
I0
sg17
I0
sg25
I0
sg66
I0
sg31
I0
sg88
I0
sg469
I0
sg56
I0
sg47
I0
sg86
I0
sg104
I0
sg70
I0
sg85
I0
sg69
I0
sg387
I0
sg16
I0
sg30
I0
sg15
I0
sg388
I0
sg45
I0
sg34
I0
sg49
I0
sg18
I0
sg64
I0
sg57
I0
sg51
I0
sg58
I0
sg645
I0
sg77
I0
sg61
I0
sg43
I0
sg76
I0
sg148
I0
sg48
I0
ssg81
(dp878
g143
I0
sg11
I0
sg14
I0
sg33
I0
sg108
I0
sg42
I0
sg126
I0
sg127
I0
sg110
I0
sg111
I0
sg133
I0
sg12
I0
sg132
I0
sg125
I0
sg99
I0
sg106
I0
sg22
I0
sg98
I0
sg36
I0
sg35
I0
sg102
I0
sg62
I0
sg93
I0
sg27
I0
sg20
I0
sg107
I0
sg105
I0
sg138
I0
sg65
I0
sg63
I0
sg128
I0
sg113
I0
sg103
I0
sg50
I0
sg74
I0
sg141
I0
sg44
I0
sg137
I0
sg40
I0
sg41
I0
sg121
I0
sg23
I0
sg87
I0
sg72
I0
sg71
I0
sg100
I0
sg29
I0
sg28
I0
sg134
I0
sg116
I0
sg91
I0
sg53
I0
sg101
I0
sg95
I0
sg131
I0
sg112
I0
sg8
I0
sg118
I0
sg9
I0
sg83
I0
sg75
I0
sg92
I0
sg79
I0
sg80
I0
sg32
I0
sg68
I0
sg67
I0
sg94
I0
sg89
I0
sg37
I0
sg135
I0
sg46
I0
sg38
I0
sg81
I6
sg24
I0
sg130
I0
sg123
I0
sg10
I0
sg82
I0
sg136
I0
sg60
I0
sg59
I0
sg73
I0
sg54
I0
sg26
I0
sg55
I0
sg96
I0
sg52
I0
sg13
I0
sg140
I0
sg114
I0
sg21
I0
sg19
I0
sg124
I0
sg78
I0
sg39
I0
sg84
I0
sg119
I0
sg120
I0
sg97
I0
sg122
I0
sg117
I0
sg90
I0
sg17
I0
sg25
I0
sg66
I0
sg31
I0
sg88
I0
sg115
I0
sg56
I0
sg47
I0
sg86
I0
sg104
I0
sg70
I0
sg85
I0
sg69
I0
sg139
I0
sg16
I0
sg30
I0
sg15
I0
sg129
I0
sg45
I0
sg34
I0
sg49
I0
sg18
I0
sg64
I0
sg57
I0
sg51
I0
sg58
I0
sg109
I0
sg77
I0
sg61
I0
sg43
I0
sg76
I0
sg48
I0
ssg24
(dp879
g143
I0
sg11
I0
sg14
I0
sg33
I0
sg354
I0
sg42
I0
sg622
I0
sg623
I0
sg357
I0
sg358
I0
sg359
I0
sg145
I0
sg12
I0
sg360
I0
sg147
I0
sg624
I0
sg99
I0
sg363
I0
sg22
I0
sg98
I0
sg36
I0
sg35
I0
sg102
I0
sg62
I0
sg93
I0
sg27
I0
sg20
I0
sg364
I0
sg105
I0
sg365
I0
sg65
I0
sg63
I0
sg142
I0
sg366
I0
sg151
I0
sg367
I0
sg103
I0
sg50
I0
sg74
I0
sg141
I0
sg44
I0
sg368
I0
sg40
I0
sg41
I0
sg625
I0
sg23
I0
sg87
I0
sg72
I0
sg71
I0
sg100
I0
sg29
I0
sg28
I0
sg370
I0
sg371
I0
sg91
I0
sg53
I0
sg101
I0
sg95
I0
sg146
I0
sg373
I0
sg374
I0
sg8
I0
sg375
I0
sg9
I0
sg83
I0
sg75
I0
sg92
I0
sg79
I0
sg80
I0
sg32
I0
sg68
I0
sg67
I0
sg94
I0
sg89
I0
sg37
I0
sg376
I0
sg46
I0
sg38
I0
sg81
I0
sg24
I0
sg377
I0
sg626
I0
sg10
I12
sg82
I0
sg379
I0
sg60
I0
sg59
I0
sg73
I0
sg54
I0
sg26
I0
sg55
I0
sg96
I0
sg52
I0
sg13
I0
sg140
I0
sg380
I0
sg21
I0
sg19
I0
sg627
I0
sg78
I0
sg39
I0
sg84
I0
sg628
I0
sg629
I0
sg97
I0
sg630
I0
sg385
I0
sg90
I0
sg144
I0
sg17
I0
sg25
I0
sg66
I0
sg31
I0
sg88
I0
sg386
I0
sg56
I0
sg47
I0
sg86
I0
sg104
I0
sg70
I0
sg85
I0
sg69
I0
sg387
I0
sg16
I0
sg30
I0
sg15
I0
sg388
I0
sg45
I0
sg34
I0
sg49
I0
sg18
I0
sg64
I0
sg57
I0
sg51
I0
sg58
I0
sg389
I0
sg77
I0
sg61
I0
sg43
I0
sg76
I0
sg148
I0
sg48
I0
ssg130
(dp880
g143
I0
sg255
I0
sg256
I0
sg257
I0
sg391
I0
sg108
I0
sg414
I0
sg126
I0
sg127
I0
sg110
I0
sg111
I0
sg133
I0
sg145
I0
sg392
I0
sg132
I0
sg147
I0
sg125
I0
sg261
I0
sg150
I0
sg106
I0
sg438
I0
sg263
I0
sg113
I0
sg264
I0
sg265
I0
sg266
I0
sg394
I0
sg395
I0
sg269
I0
sg107
I0
sg270
I0
sg439
I0
sg440
I0
sg142
I0
sg273
I0
sg151
I0
sg274
I0
sg398
I0
sg124
I0
sg114
I0
sg250
I0
sg276
I0
sg277
I0
sg278
I0
sg121
I0
sg399
I0
sg280
I0
sg281
I0
sg282
I0
sg284
I0
sg138
I0
sg134
I0
sg116
I0
sg285
I0
sg286
I0
sg287
I0
sg288
I0
sg146
I0
sg131
I0
sg112
I0
sg441
I0
sg401
I0
sg118
I0
sg402
I0
sg292
I0
sg442
I0
sg294
I0
sg295
I0
sg296
I0
sg404
I0
sg194
I0
sg443
I0
sg300
I0
sg301
I0
sg406
I0
sg135
I0
sg407
I0
sg149
I0
sg304
I0
sg305
I0
sg306
I0
sg130
I6
sg123
I0
sg307
I0
sg137
I0
sg136
I0
sg444
I0
sg445
I0
sg310
I0
sg311
I0
sg410
I0
sg411
I0
sg314
I0
sg412
I0
sg413
I0
sg251
I0
sg415
I0
sg128
I0
sg416
I0
sg319
I0
sg320
I0
sg321
I0
sg119
I0
sg120
I0
sg322
I0
sg122
I0
sg417
I0
sg324
I0
sg222
I0
sg144
I0
sg325
I0
sg418
I0
sg446
I0
sg328
I0
sg330
I0
sg115
I0
sg331
I0
sg332
I0
sg333
I0
sg334
I0
sg447
I0
sg336
I0
sg448
I0
sg139
I0
sg338
I0
sg339
I0
sg340
I0
sg129
I0
sg341
I0
sg342
I0
sg343
I0
sg344
I0
sg449
I0
sg346
I0
sg117
I0
sg450
I0
sg109
I0
sg348
I0
sg451
I0
sg426
I0
sg351
I0
sg148
I0
sg427
I0
ssg123
(dp881
g255
I0
sg256
I0
sg257
I0
sg391
I0
sg108
I0
sg140
I0
sg126
I0
sg127
I0
sg110
I0
sg111
I0
sg133
I0
sg145
I0
sg392
I0
sg132
I0
sg147
I0
sg125
I0
sg261
I0
sg150
I0
sg106
I0
sg393
I0
sg263
I0
sg113
I0
sg264
I0
sg265
I0
sg266
I0
sg394
I0
sg395
I0
sg269
I0
sg107
I0
sg270
I0
sg396
I0
sg397
I0
sg142
I0
sg273
I0
sg151
I0
sg274
I0
sg398
I0
sg124
I0
sg114
I0
sg250
I0
sg276
I0
sg277
I0
sg278
I0
sg121
I0
sg399
I0
sg280
I0
sg281
I0
sg282
I0
sg284
I0
sg138
I0
sg134
I0
sg116
I0
sg285
I0
sg286
I0
sg287
I0
sg288
I0
sg146
I0
sg131
I0
sg112
I0
sg400
I0
sg401
I0
sg118
I0
sg402
I0
sg292
I0
sg403
I0
sg294
I0
sg295
I0
sg296
I0
sg404
I0
sg405
I0
sg300
I0
sg301
I0
sg406
I0
sg135
I0
sg407
I0
sg149
I0
sg304
I0
sg305
I0
sg306
I0
sg130
I0
sg123
I6
sg307
I0
sg137
I0
sg136
I0
sg408
I0
sg409
I0
sg310
I0
sg311
I0
sg410
I0
sg411
I0
sg314
I0
sg412
I0
sg413
I0
sg414
I0
sg415
I0
sg128
I0
sg416
I0
sg319
I0
sg320
I0
sg321
I0
sg119
I0
sg120
I0
sg322
I0
sg122
I0
sg417
I0
sg324
I0
sg144
I0
sg325
I0
sg418
I0
sg419
I0
sg328
I0
sg420
I0
sg330
I0
sg115
I0
sg331
I0
sg332
I0
sg333
I0
sg334
I0
sg421
I0
sg336
I0
sg422
I0
sg139
I0
sg338
I0
sg339
I0
sg340
I0
sg129
I0
sg341
I0
sg342
I0
sg343
I0
sg344
I0
sg423
I0
sg346
I0
sg117
I0
sg424
I0
sg109
I0
sg348
I0
sg425
I0
sg426
I0
sg351
I0
sg148
I0
sg427
I0
ssg10
(dp882
g143
I0
sg11
I0
sg14
I0
sg33
I0
sg108
I0
sg42
I0
sg126
I0
sg127
I0
sg110
I0
sg111
I0
sg133
I0
sg145
I0
sg12
I0
sg132
I0
sg147
I0
sg125
I0
sg99
I0
sg150
I0
sg106
I0
sg22
I0
sg98
I0
sg36
I0
sg35
I0
sg102
I0
sg62
I0
sg93
I0
sg27
I0
sg20
I0
sg107
I0
sg105
I0
sg138
I0
sg65
I0
sg63
I0
sg142
I0
sg128
I0
sg151
I0
sg113
I0
sg103
I0
sg50
I0
sg74
I0
sg141
I0
sg44
I0
sg137
I0
sg40
I0
sg41
I0
sg121
I0
sg23
I0
sg87
I0
sg72
I0
sg71
I0
sg100
I0
sg29
I0
sg28
I0
sg134
I0
sg116
I0
sg91
I0
sg53
I0
sg101
I0
sg95
I0
sg146
I0
sg131
I0
sg112
I0
sg8
I0
sg118
I0
sg9
I0
sg83
I0
sg75
I0
sg92
I0
sg79
I0
sg80
I0
sg32
I0
sg68
I0
sg67
I0
sg94
I0
sg89
I0
sg37
I0
sg135
I0
sg46
I0
sg149
I0
sg38
I0
sg81
I0
sg24
I0
sg130
I0
sg123
I0
sg10
I108
sg82
I0
sg136
I0
sg60
I0
sg59
I0
sg73
I0
sg54
I0
sg26
I0
sg55
I0
sg96
I0
sg52
I0
sg13
I0
sg140
I0
sg114
I0
sg21
I0
sg19
I0
sg124
I0
sg78
I0
sg39
I0
sg84
I0
sg119
I0
sg120
I0
sg97
I0
sg122
I0
sg117
I0
sg90
I0
sg144
I0
sg17
I0
sg25
I0
sg66
I0
sg31
I0
sg88
I0
sg115
I0
sg56
I0
sg47
I0
sg86
I0
sg104
I0
sg70
I0
sg85
I0
sg69
I0
sg139
I0
sg16
I0
sg30
I0
sg15
I0
sg129
I0
sg45
I0
sg34
I0
sg49
I0
sg18
I0
sg64
I0
sg57
I0
sg51
I0
sg58
I0
sg109
I0
sg77
I0
sg61
I0
sg43
I0
sg76
I0
sg148
I0
sg48
I0
ssg82
(dp883
g143
I0
sg11
I0
sg14
I0
sg33
I0
sg108
I0
sg42
I0
sg126
I0
sg127
I0
sg110
I0
sg111
I0
sg133
I0
sg12
I0
sg132
I0
sg125
I0
sg99
I0
sg106
I0
sg22
I0
sg98
I0
sg36
I0
sg35
I0
sg102
I0
sg62
I0
sg93
I0
sg27
I0
sg20
I0
sg107
I0
sg105
I0
sg138
I0
sg65
I0
sg63
I0
sg128
I0
sg113
I0
sg103
I0
sg50
I0
sg74
I0
sg141
I0
sg44
I0
sg137
I0
sg40
I0
sg41
I0
sg121
I0
sg23
I0
sg87
I0
sg72
I0
sg71
I0
sg100
I0
sg29
I0
sg28
I0
sg134
I0
sg116
I0
sg91
I0
sg53
I0
sg101
I0
sg95
I0
sg131
I0
sg112
I0
sg8
I0
sg118
I0
sg9
I0
sg83
I0
sg75
I0
sg92
I0
sg79
I0
sg80
I0
sg32
I0
sg68
I0
sg67
I0
sg94
I0
sg89
I0
sg37
I0
sg135
I0
sg46
I0
sg38
I0
sg81
I0
sg24
I0
sg130
I0
sg123
I0
sg10
I0
sg82
I6
sg136
I0
sg60
I0
sg59
I0
sg73
I0
sg54
I0
sg26
I0
sg55
I0
sg96
I0
sg52
I0
sg13
I0
sg140
I0
sg114
I0
sg21
I0
sg19
I0
sg124
I0
sg78
I0
sg39
I0
sg84
I0
sg119
I0
sg120
I0
sg97
I0
sg122
I0
sg117
I0
sg90
I0
sg17
I0
sg25
I0
sg66
I0
sg31
I0
sg88
I0
sg115
I0
sg56
I0
sg47
I0
sg86
I0
sg104
I0
sg70
I0
sg85
I0
sg69
I0
sg139
I0
sg16
I0
sg30
I0
sg15
I0
sg129
I0
sg45
I0
sg34
I0
sg49
I0
sg18
I0
sg64
I0
sg57
I0
sg51
I0
sg58
I0
sg109
I0
sg77
I0
sg61
I0
sg43
I0
sg76
I0
sg48
I0
ssg136
(dp884
g143
I0
sg255
I0
sg256
I0
sg257
I0
sg391
I0
sg108
I0
sg414
I0
sg126
I0
sg127
I0
sg110
I0
sg111
I0
sg133
I0
sg145
I0
sg392
I0
sg132
I0
sg147
I0
sg125
I0
sg261
I0
sg150
I0
sg106
I0
sg438
I0
sg263
I0
sg113
I0
sg264
I0
sg265
I0
sg266
I0
sg394
I0
sg395
I0
sg269
I0
sg107
I0
sg270
I0
sg439
I0
sg440
I0
sg142
I0
sg273
I0
sg151
I0
sg274
I0
sg398
I0
sg124
I0
sg114
I0
sg250
I0
sg276
I0
sg277
I0
sg278
I0
sg121
I0
sg399
I0
sg280
I0
sg281
I0
sg282
I0
sg284
I0
sg138
I0
sg134
I0
sg116
I0
sg285
I0
sg286
I0
sg287
I0
sg288
I0
sg146
I0
sg131
I0
sg112
I0
sg441
I0
sg401
I0
sg118
I0
sg402
I0
sg292
I0
sg442
I0
sg294
I0
sg295
I0
sg296
I0
sg404
I0
sg194
I0
sg443
I0
sg300
I0
sg301
I0
sg406
I0
sg135
I0
sg407
I0
sg149
I0
sg304
I0
sg305
I0
sg306
I0
sg130
I0
sg123
I0
sg307
I0
sg137
I5
sg136
I1
sg444
I0
sg445
I0
sg310
I0
sg311
I0
sg410
I0
sg411
I0
sg314
I0
sg412
I0
sg413
I0
sg251
I0
sg415
I0
sg128
I0
sg416
I0
sg319
I0
sg320
I0
sg321
I0
sg119
I0
sg120
I0
sg322
I0
sg122
I0
sg417
I0
sg324
I0
sg222
I0
sg144
I0
sg325
I0
sg418
I0
sg446
I0
sg328
I0
sg330
I0
sg115
I0
sg331
I0
sg332
I0
sg333
I0
sg334
I0
sg447
I0
sg336
I0
sg448
I0
sg139
I0
sg338
I0
sg339
I0
sg340
I0
sg129
I0
sg341
I0
sg342
I0
sg343
I0
sg344
I0
sg449
I0
sg346
I0
sg117
I0
sg450
I0
sg109
I0
sg348
I0
sg451
I0
sg426
I0
sg351
I0
sg148
I0
sg427
I0
ssg60
(dp885
g143
I0
sg11
I0
sg14
I0
sg33
I0
sg354
I0
sg42
I0
sg622
I0
sg623
I0
sg357
I0
sg358
I0
sg359
I0
sg12
I0
sg360
I0
sg624
I0
sg99
I0
sg363
I0
sg22
I0
sg98
I0
sg36
I0
sg35
I0
sg102
I0
sg62
I0
sg93
I0
sg27
I0
sg20
I0
sg364
I0
sg105
I0
sg365
I0
sg65
I0
sg63
I0
sg142
I0
sg366
I0
sg367
I0
sg103
I0
sg50
I0
sg74
I0
sg141
I0
sg44
I0
sg368
I0
sg40
I0
sg41
I0
sg625
I0
sg23
I0
sg87
I0
sg72
I0
sg71
I0
sg100
I0
sg29
I0
sg28
I0
sg370
I0
sg371
I0
sg91
I0
sg53
I0
sg101
I0
sg95
I0
sg373
I0
sg374
I0
sg8
I0
sg375
I0
sg9
I0
sg83
I0
sg75
I0
sg92
I0
sg79
I0
sg80
I0
sg32
I0
sg68
I0
sg67
I0
sg94
I0
sg89
I0
sg37
I0
sg376
I0
sg46
I0
sg38
I0
sg81
I0
sg24
I0
sg377
I0
sg626
I0
sg10
I0
sg82
I0
sg379
I0
sg60
I0
sg59
I0
sg73
I0
sg54
I0
sg26
I0
sg55
I0
sg96
I0
sg52
I0
sg13
I0
sg140
I0
sg380
I0
sg21
I0
sg19
I0
sg627
I0
sg78
I0
sg39
I0
sg84
I0
sg628
I0
sg629
I0
sg97
I0
sg630
I0
sg385
I0
sg90
I0
sg17
I0
sg25
I0
sg66
I0
sg31
I0
sg88
I0
sg386
I0
sg56
I0
sg47
I0
sg86
I0
sg104
I0
sg70
I0
sg85
I0
sg69
I0
sg387
I0
sg16
I0
sg30
I0
sg15
I0
sg388
I0
sg45
I0
sg34
I0
sg49
I0
sg18
I0
sg64
I0
sg57
I0
sg51
I0
sg58
I0
sg389
I0
sg77
I0
sg61
I0
sg43
I0
sg76
I0
sg48
I0
ssg59
(dp886
g143
I0
sg11
I0
sg14
I0
sg33
I0
sg354
I0
sg42
I0
sg622
I0
sg623
I0
sg357
I0
sg358
I0
sg359
I0
sg12
I0
sg360
I0
sg624
I0
sg99
I0
sg363
I0
sg22
I0
sg98
I0
sg36
I0
sg35
I0
sg102
I0
sg62
I0
sg93
I0
sg27
I0
sg20
I0
sg364
I0
sg105
I0
sg365
I0
sg65
I0
sg63
I0
sg142
I0
sg366
I0
sg367
I0
sg103
I0
sg50
I0
sg74
I0
sg141
I0
sg44
I0
sg368
I0
sg40
I0
sg41
I0
sg625
I0
sg23
I0
sg87
I0
sg72
I0
sg71
I0
sg100
I0
sg29
I0
sg28
I0
sg370
I0
sg371
I0
sg91
I0
sg53
I0
sg101
I0
sg95
I0
sg373
I0
sg374
I0
sg8
I0
sg375
I0
sg9
I0
sg83
I0
sg75
I0
sg92
I0
sg79
I0
sg80
I0
sg32
I0
sg68
I0
sg67
I0
sg94
I0
sg89
I0
sg37
I0
sg376
I0
sg46
I0
sg38
I0
sg81
I0
sg24
I0
sg377
I0
sg626
I0
sg10
I0
sg82
I0
sg379
I0
sg60
I6
sg59
I0
sg73
I0
sg54
I0
sg26
I0
sg55
I0
sg96
I0
sg52
I0
sg13
I0
sg140
I0
sg380
I0
sg21
I0
sg19
I0
sg627
I0
sg78
I0
sg39
I0
sg84
I0
sg628
I0
sg629
I0
sg97
I0
sg630
I0
sg385
I0
sg90
I0
sg17
I0
sg25
I0
sg66
I0
sg31
I0
sg88
I0
sg386
I0
sg56
I0
sg47
I0
sg86
I0
sg104
I0
sg70
I0
sg85
I0
sg69
I0
sg387
I0
sg16
I0
sg30
I0
sg15
I0
sg388
I0
sg45
I0
sg34
I0
sg49
I0
sg18
I0
sg64
I0
sg57
I0
sg51
I0
sg58
I0
sg389
I0
sg77
I0
sg61
I0
sg43
I0
sg76
I0
sg48
I0
ssg73
(dp887
g143
I0
sg11
I0
sg14
I0
sg33
I0
sg108
I0
sg42
I0
sg126
I0
sg127
I0
sg110
I0
sg111
I0
sg133
I0
sg145
I0
sg12
I0
sg132
I0
sg147
I0
sg125
I0
sg99
I0
sg150
I0
sg106
I0
sg22
I0
sg98
I0
sg36
I0
sg35
I0
sg102
I0
sg62
I0
sg93
I0
sg27
I0
sg20
I0
sg107
I0
sg105
I0
sg138
I0
sg65
I0
sg63
I0
sg142
I0
sg128
I0
sg151
I0
sg113
I0
sg103
I0
sg50
I0
sg74
I0
sg141
I0
sg44
I0
sg137
I0
sg40
I0
sg41
I0
sg121
I0
sg23
I0
sg87
I0
sg72
I0
sg71
I0
sg100
I0
sg29
I0
sg28
I0
sg134
I0
sg116
I0
sg91
I0
sg53
I0
sg101
I0
sg95
I0
sg146
I0
sg131
I0
sg112
I0
sg8
I0
sg118
I0
sg9
I0
sg83
I6
sg75
I0
sg92
I0
sg79
I0
sg80
I0
sg32
I0
sg68
I0
sg67
I0
sg94
I0
sg89
I0
sg37
I0
sg135
I0
sg46
I0
sg149
I0
sg38
I0
sg81
I0
sg24
I0
sg130
I0
sg123
I0
sg10
I0
sg82
I0
sg136
I0
sg60
I0
sg59
I0
sg73
I6
sg54
I0
sg26
I0
sg55
I0
sg96
I0
sg52
I0
sg13
I0
sg140
I0
sg114
I0
sg21
I0
sg19
I0
sg124
I0
sg78
I0
sg39
I0
sg84
I0
sg119
I0
sg120
I0
sg97
I0
sg122
I0
sg117
I0
sg90
I0
sg144
I0
sg17
I0
sg25
I0
sg66
I0
sg31
I0
sg88
I0
sg115
I0
sg56
I0
sg47
I0
sg86
I0
sg104
I0
sg70
I0
sg85
I0
sg69
I0
sg139
I0
sg16
I0
sg30
I0
sg15
I0
sg129
I0
sg45
I0
sg34
I0
sg49
I0
sg18
I0
sg64
I0
sg57
I0
sg51
I0
sg58
I0
sg109
I0
sg77
I0
sg61
I0
sg43
I0
sg76
I0
sg148
I0
sg48
I0
ssg54
(dp888
g143
I0
sg11
I0
sg14
I0
sg33
I0
sg108
I0
sg42
I0
sg126
I0
sg127
I0
sg110
I0
sg111
I0
sg133
I0
sg145
I0
sg12
I0
sg132
I0
sg147
I0
sg125
I0
sg99
I0
sg150
I0
sg106
I0
sg22
I0
sg98
I0
sg36
I0
sg35
I0
sg102
I0
sg62
I0
sg93
I0
sg27
I0
sg20
I0
sg107
I0
sg105
I0
sg138
I0
sg65
I0
sg63
I0
sg142
I0
sg128
I0
sg151
I0
sg113
I0
sg103
I0
sg50
I0
sg74
I0
sg141
I0
sg44
I0
sg137
I0
sg40
I0
sg41
I0
sg121
I0
sg23
I0
sg87
I0
sg72
I0
sg71
I0
sg100
I0
sg29
I0
sg28
I0
sg134
I0
sg116
I0
sg91
I0
sg53
I0
sg101
I0
sg95
I0
sg146
I0
sg131
I0
sg112
I0
sg8
I0
sg118
I0
sg9
I0
sg83
I0
sg75
I0
sg92
I0
sg79
I0
sg80
I0
sg32
I0
sg68
I0
sg67
I0
sg94
I0
sg89
I0
sg37
I0
sg135
I0
sg46
I0
sg149
I0
sg38
I0
sg81
I0
sg24
I0
sg130
I0
sg123
I0
sg10
I0
sg82
I0
sg136
I0
sg60
I0
sg59
I0
sg73
I0
sg90
I0
sg26
I0
sg55
I6
sg96
I0
sg52
I0
sg13
I0
sg140
I0
sg114
I0
sg21
I0
sg19
I0
sg124
I0
sg78
I0
sg39
I0
sg84
I0
sg119
I0
sg120
I0
sg97
I0
sg122
I0
sg117
I0
sg54
I6
sg144
I0
sg17
I0
sg25
I0
sg66
I0
sg31
I0
sg88
I0
sg115
I0
sg56
I0
sg47
I0
sg86
I0
sg104
I0
sg70
I0
sg85
I0
sg69
I0
sg139
I0
sg16
I0
sg30
I0
sg15
I0
sg129
I0
sg45
I0
sg34
I0
sg49
I0
sg18
I0
sg64
I0
sg57
I0
sg51
I0
sg58
I0
sg109
I0
sg77
I0
sg61
I0
sg43
I0
sg76
I0
sg148
I0
sg48
I0
ssg26
(dp889
g143
I0
sg11
I0
sg14
I0
sg33
I0
sg638
I0
sg42
I0
sg355
I0
sg356
I0
sg639
I0
sg640
I0
sg359
I0
sg145
I0
sg12
I0
sg360
I0
sg147
I0
sg362
I0
sg99
I0
sg641
I0
sg22
I0
sg98
I0
sg36
I0
sg35
I0
sg102
I0
sg62
I0
sg93
I0
sg27
I6
sg20
I0
sg642
I0
sg105
I0
sg365
I0
sg65
I0
sg63
I0
sg142
I0
sg366
I0
sg151
I0
sg643
I0
sg103
I0
sg50
I0
sg74
I0
sg141
I0
sg44
I0
sg368
I0
sg40
I0
sg41
I0
sg369
I0
sg23
I0
sg87
I0
sg72
I0
sg71
I0
sg100
I0
sg29
I0
sg28
I0
sg370
I0
sg476
I0
sg91
I0
sg53
I0
sg101
I0
sg95
I0
sg146
I0
sg373
I0
sg644
I0
sg8
I0
sg514
I0
sg9
I0
sg83
I0
sg75
I0
sg92
I0
sg79
I0
sg80
I0
sg32
I0
sg68
I0
sg67
I0
sg94
I0
sg89
I0
sg37
I0
sg376
I0
sg46
I0
sg38
I0
sg81
I0
sg24
I0
sg377
I0
sg378
I0
sg10
I0
sg82
I0
sg379
I0
sg60
I0
sg59
I0
sg73
I0
sg54
I0
sg26
I0
sg55
I0
sg96
I0
sg52
I0
sg13
I0
sg251
I0
sg462
I0
sg21
I0
sg19
I0
sg381
I0
sg78
I0
sg39
I0
sg84
I0
sg382
I0
sg383
I0
sg97
I0
sg384
I0
sg527
I0
sg90
I0
sg144
I0
sg17
I0
sg25
I0
sg66
I0
sg31
I0
sg88
I0
sg469
I0
sg56
I0
sg47
I0
sg86
I0
sg104
I0
sg70
I0
sg85
I0
sg69
I0
sg387
I0
sg16
I0
sg30
I0
sg15
I0
sg388
I0
sg45
I0
sg34
I0
sg49
I0
sg18
I0
sg64
I0
sg57
I0
sg51
I0
sg58
I0
sg645
I0
sg77
I0
sg61
I0
sg43
I0
sg76
I0
sg148
I0
sg48
I0
ssg55
(dp890
g143
I0
sg11
I0
sg14
I0
sg33
I0
sg354
I0
sg42
I0
sg355
I0
sg356
I0
sg357
I0
sg358
I0
sg359
I0
sg12
I0
sg360
I0
sg361
I0
sg362
I0
sg99
I0
sg363
I0
sg22
I0
sg98
I0
sg36
I0
sg35
I0
sg102
I0
sg62
I0
sg93
I0
sg27
I0
sg20
I0
sg364
I0
sg105
I0
sg365
I0
sg65
I0
sg63
I0
sg142
I0
sg366
I0
sg151
I0
sg367
I0
sg103
I0
sg50
I0
sg74
I0
sg141
I0
sg44
I0
sg368
I0
sg40
I0
sg41
I0
sg369
I0
sg23
I0
sg87
I0
sg72
I0
sg71
I0
sg100
I0
sg29
I0
sg28
I0
sg370
I0
sg371
I0
sg91
I0
sg53
I0
sg101
I0
sg95
I0
sg372
I0
sg373
I0
sg374
I0
sg8
I0
sg375
I0
sg9
I0
sg83
I0
sg75
I0
sg92
I0
sg79
I0
sg80
I0
sg32
I0
sg68
I0
sg67
I0
sg94
I0
sg89
I0
sg37
I0
sg376
I0
sg46
I0
sg38
I0
sg81
I0
sg24
I0
sg377
I0
sg378
I0
sg10
I0
sg82
I0
sg379
I0
sg60
I0
sg59
I0
sg73
I0
sg54
I0
sg26
I0
sg55
I0
sg96
I0
sg52
I0
sg13
I0
sg251
I0
sg380
I0
sg21
I0
sg19
I0
sg381
I0
sg78
I0
sg39
I0
sg84
I0
sg382
I0
sg383
I0
sg97
I0
sg384
I0
sg385
I0
sg90
I0
sg17
I0
sg25
I0
sg66
I0
sg31
I0
sg88
I0
sg386
I0
sg56
I0
sg47
I0
sg86
I0
sg104
I0
sg70
I0
sg85
I0
sg69
I0
sg387
I0
sg16
I0
sg30
I0
sg15
I0
sg388
I0
sg45
I0
sg34
I0
sg49
I0
sg18
I0
sg64
I0
sg57
I0
sg51
I0
sg58
I0
sg389
I0
sg77
I0
sg61
I0
sg43
I0
sg76
I0
sg48
I0
ssg96
(dp891
g11
I0
sg14
I0
sg33
I0
sg108
I0
sg42
I0
sg126
I0
sg127
I0
sg110
I0
sg111
I0
sg133
I0
sg12
I0
sg132
I0
sg125
I0
sg99
I0
sg150
I0
sg106
I0
sg22
I0
sg98
I0
sg36
I0
sg35
I0
sg102
I0
sg62
I0
sg93
I0
sg27
I0
sg20
I0
sg107
I0
sg105
I0
sg138
I0
sg65
I0
sg63
I0
sg128
I0
sg113
I0
sg103
I0
sg50
I0
sg74
I0
sg141
I0
sg44
I0
sg137
I0
sg40
I0
sg41
I0
sg121
I0
sg23
I0
sg87
I0
sg72
I0
sg71
I0
sg100
I0
sg29
I0
sg28
I0
sg134
I0
sg116
I0
sg91
I0
sg53
I0
sg101
I0
sg95
I0
sg432
I0
sg131
I0
sg112
I0
sg8
I0
sg118
I0
sg9
I0
sg83
I0
sg75
I0
sg92
I0
sg79
I0
sg80
I0
sg32
I0
sg68
I0
sg67
I0
sg94
I0
sg89
I0
sg37
I0
sg135
I0
sg46
I0
sg149
I1
sg38
I0
sg81
I0
sg24
I0
sg130
I0
sg123
I0
sg10
I0
sg82
I0
sg136
I0
sg60
I0
sg59
I0
sg73
I0
sg54
I0
sg26
I0
sg55
I0
sg96
I0
sg52
I0
sg13
I0
sg140
I0
sg114
I0
sg21
I0
sg19
I0
sg124
I0
sg78
I0
sg39
I0
sg84
I0
sg119
I0
sg120
I0
sg97
I5
sg122
I0
sg117
I0
sg90
I0
sg17
I0
sg25
I0
sg66
I0
sg31
I0
sg88
I0
sg115
I0
sg56
I0
sg47
I0
sg86
I0
sg104
I0
sg70
I0
sg85
I0
sg69
I0
sg139
I0
sg16
I0
sg30
I0
sg15
I0
sg129
I0
sg45
I0
sg34
I0
sg49
I0
sg18
I0
sg64
I0
sg57
I0
sg51
I0
sg58
I0
sg109
I0
sg77
I0
sg61
I0
sg43
I0
sg76
I0
sg48
I0
ssg52
(dp892
g143
I0
sg11
I0
sg14
I0
sg33
I0
sg354
I0
sg42
I0
sg355
I0
sg356
I0
sg357
I0
sg358
I0
sg359
I0
sg12
I0
sg360
I0
sg361
I0
sg362
I0
sg99
I0
sg363
I0
sg22
I0
sg98
I0
sg36
I0
sg35
I0
sg102
I0
sg62
I0
sg93
I0
sg27
I0
sg20
I0
sg364
I0
sg105
I0
sg365
I0
sg65
I0
sg63
I0
sg142
I0
sg366
I0
sg151
I0
sg367
I0
sg103
I0
sg50
I0
sg74
I0
sg141
I0
sg44
I0
sg368
I0
sg40
I0
sg41
I0
sg369
I0
sg23
I0
sg87
I0
sg72
I0
sg71
I0
sg100
I0
sg29
I0
sg28
I0
sg370
I0
sg371
I0
sg91
I0
sg53
I0
sg101
I0
sg95
I0
sg372
I0
sg373
I0
sg374
I0
sg8
I0
sg375
I0
sg9
I0
sg83
I0
sg75
I0
sg92
I0
sg79
I0
sg80
I0
sg32
I0
sg68
I0
sg67
I0
sg94
I0
sg89
I0
sg37
I0
sg376
I0
sg46
I0
sg38
I0
sg81
I0
sg24
I0
sg377
I0
sg378
I0
sg10
I0
sg82
I0
sg379
I0
sg60
I0
sg59
I0
sg73
I0
sg54
I0
sg26
I0
sg55
I0
sg96
I0
sg52
I6
sg13
I0
sg251
I0
sg380
I0
sg21
I0
sg19
I0
sg381
I0
sg78
I0
sg39
I0
sg84
I0
sg382
I0
sg383
I0
sg97
I0
sg384
I0
sg385
I0
sg90
I0
sg17
I0
sg25
I0
sg66
I0
sg31
I0
sg88
I0
sg386
I0
sg56
I0
sg47
I0
sg86
I0
sg104
I0
sg70
I0
sg85
I0
sg69
I0
sg387
I0
sg16
I0
sg30
I0
sg15
I0
sg388
I0
sg45
I0
sg34
I0
sg49
I0
sg18
I0
sg64
I0
sg57
I0
sg51
I0
sg58
I0
sg389
I0
sg77
I0
sg61
I0
sg43
I0
sg76
I0
sg48
I0
ssg13
(dp893
g143
I0
sg11
I0
sg14
I0
sg33
I0
sg480
I0
sg42
I0
sg355
I0
sg356
I0
sg493
I0
sg525
I0
sg359
I0
sg145
I0
sg12
I0
sg360
I0
sg147
I0
sg362
I0
sg99
I0
sg150
I0
sg503
I0
sg22
I0
sg98
I0
sg36
I0
sg35
I0
sg102
I0
sg62
I0
sg93
I0
sg27
I0
sg20
I0
sg520
I0
sg105
I0
sg365
I0
sg65
I0
sg63
I0
sg142
I0
sg366
I0
sg151
I0
sg526
I0
sg103
I0
sg50
I0
sg74
I0
sg250
I0
sg44
I0
sg368
I0
sg40
I0
sg41
I0
sg369
I0
sg23
I0
sg87
I0
sg72
I0
sg71
I0
sg100
I0
sg29
I0
sg28
I0
sg370
I0
sg476
I0
sg91
I0
sg53
I0
sg101
I0
sg95
I0
sg146
I0
sg373
I0
sg506
I0
sg8
I0
sg514
I0
sg9
I0
sg83
I0
sg75
I0
sg92
I0
sg79
I0
sg80
I0
sg32
I0
sg68
I0
sg67
I0
sg94
I0
sg89
I0
sg37
I0
sg376
I0
sg46
I0
sg149
I0
sg38
I0
sg81
I0
sg24
I0
sg377
I0
sg378
I0
sg10
I0
sg82
I0
sg379
I0
sg60
I0
sg59
I0
sg73
I0
sg54
I0
sg26
I0
sg55
I0
sg96
I0
sg52
I0
sg13
I0
sg251
I0
sg462
I0
sg21
I0
sg19
I0
sg381
I0
sg78
I0
sg39
I0
sg84
I0
sg382
I0
sg383
I0
sg97
I0
sg384
I0
sg527
I0
sg90
I0
sg144
I0
sg17
I0
sg25
I0
sg66
I0
sg31
I0
sg88
I0
sg469
I0
sg56
I0
sg47
I0
sg86
I0
sg104
I0
sg70
I0
sg85
I0
sg69
I0
sg387
I0
sg16
I0
sg30
I0
sg15
I0
sg388
I0
sg45
I0
sg34
I0
sg49
I0
sg18
I0
sg64
I0
sg57
I0
sg51
I0
sg58
I0
sg528
I0
sg77
I0
sg61
I0
sg43
I0
sg76
I0
sg148
I0
sg48
I0
ssg140
(dp894
g653
I0
sg387
I0
sg654
I0
sS'cut.v.01'
p895
I0
sg391
I0
sS'cover.v.01'
p896
I0
sg140
I0
sg622
I0
sg623
I0
sS'rib.n.03'
p897
I0
sS'rib.n.01'
p898
I0
sg359
I0
sg392
I0
sg360
I0
sg624
I0
sS'human_body.n.01'
p899
I0
sS'whiskey.n.01'
p900
I0
sg393
I0
sS'flesh.n.01'
p901
I0
sS'water.n.06'
p902
I0
sS'put.v.01'
p903
I0
sS'shaker.n.03'
p904
I0
sS'pour.v.01'
p905
I0
sg394
I0
sg395
I0
sS'jar.n.01'
p906
I0
sS'carafe.n.01'
p907
I0
sS'decant.v.01'
p908
I0
sg396
I0
sg397
I0
sg142
I0
sg366
I0
sS'put.v.02'
p909
I0
sg398
I0
sg627
I0
sg420
I0
sS'add.v.01'
p910
I0
sg368
I0
sS'pan.n.01'
p911
I0
sS'pan.n.03'
p912
I0
sg625
I0
sg399
I0
sS'cup.n.01'
p913
I0
sS'vanilla.n.03'
p914
I0
sS'vanilla.n.02'
p915
I0
sS'slice.v.03'
p916
I0
sg365
I0
sg370
I0
sS'wok.n.01'
p917
I0
sS'pepper.n.04'
p918
I0
sS'pepper.n.03'
p919
I0
sS'rum.n.01'
p920
I0
sS'gripe.n.01'
p921
I0
sg373
I0
sS'teapot.n.01'
p922
I0
sg401
I0
sS'kettle.n.01'
p923
I0
sg402
I0
sS'mix.n.03'
p924
I0
sg403
I0
sS'onion.n.01'
p925
I0
sS'onion.n.03'
p926
I0
sS'onion.n.02'
p927
I0
sg404
I0
sg405
I0
sS'beef.n.02'
p928
I0
sS'carve.v.03'
p929
I0
sg406
I0
sg376
I0
sg407
I0
sS'take.v.04'
p930
I0
sS'mustard.n.02'
p931
I0
sg400
I0
sg377
I0
sg626
I0
sS'fill.v.01'
p932
I0
sS'pitcher.n.02'
p933
I0
sg379
I0
sg408
I0
sg409
I0
sS'concoction.n.01'
p934
I0
sS'hack.v.07'
p935
I0
sg410
I0
sg411
I0
sS'assume.v.03'
p936
I0
sg412
I0
sg413
I0
sg414
I0
sS'apple.n.01'
p937
I0
sg415
I0
sS'slice.n.06'
p938
I0
sg416
I0
sS'slice.n.04'
p939
I0
sS'pizza.n.01'
p940
I0
sS'cut.n.16'
p941
I0
sg628
I0
sg629
I0
sS'plate.n.13'
p942
I0
sg630
I0
sg417
I0
sS'salt.n.02'
p943
I0
sS'bread.n.01'
p944
I0
sg418
I0
sg419
I0
sS'milk.n.01'
p945
I0
sS'cola.n.02'
p946
I0
sS'saltcellar.n.01'
p947
I0
sS'egg.n.02'
p948
I0
sS'egg.n.01'
p949
I0
sS'bag.n.04'
p950
I0
sS'plate.n.04'
p951
I0
sg421
I0
sS'bag.n.01'
p952
I0
sg422
I0
sS'butter.n.01'
p953
I0
sS'mix.v.05'
p954
I0
sS'sauce.n.01'
p955
I0
sS'blend.v.03'
p956
I0
sg388
I0
sS'lend.v.01'
p957
I0
sS'edit.v.03'
p958
I0
sg680
I0
sS'piece.n.08'
p959
I0
sg423
I0
sS'rice.n.01'
p960
I0
sg424
I0
sS'cover.v.16'
p961
I0
sS'tomato.n.02'
p962
I0
sg425
I0
sg426
I0
sS'tomato.n.01'
p963
I0
sg427
I0
ssg114
(dp964
g255
I0
sg256
I0
sg257
I0
sg479
I0
sg108
I0
sg259
I0
sg460
I0
sg126
I0
sg127
I0
sg110
I0
sg111
I0
sg133
I0
sg145
I0
sg260
I0
sg132
I0
sg147
I0
sg125
I0
sg261
I0
sg150
I0
sg106
I0
sg262
I0
sg263
I0
sg113
I0
sg264
I0
sg265
I0
sg266
I0
sg144
I0
sg516
I0
sg269
I0
sg107
I0
sg270
I0
sg271
I0
sg272
I0
sg273
I0
sg151
I0
sg274
I0
sg461
I0
sg124
I0
sg114
I6
sg250
I0
sg276
I0
sg277
I0
sg278
I0
sg121
I0
sg456
I0
sg280
I0
sg281
I0
sg282
I0
sg284
I0
sg138
I0
sg134
I0
sg116
I0
sg285
I0
sg286
I0
sg287
I0
sg288
I0
sg146
I0
sg131
I0
sg112
I0
sg289
I0
sg290
I0
sg118
I0
sg291
I0
sg292
I0
sg293
I0
sg294
I0
sg295
I0
sg296
I0
sg518
I0
sg298
I0
sg299
I0
sg300
I0
sg301
I0
sg499
I0
sg135
I0
sg303
I0
sg149
I0
sg304
I0
sg305
I0
sg306
I0
sg130
I0
sg123
I0
sg307
I0
sg137
I0
sg136
I0
sg308
I0
sg309
I0
sg310
I0
sg311
I0
sg485
I0
sg313
I0
sg314
I0
sg315
I0
sg316
I0
sg140
I0
sg317
I0
sg128
I0
sg318
I0
sg319
I0
sg320
I0
sg321
I0
sg119
I0
sg120
I0
sg322
I0
sg122
I0
sg323
I0
sg324
I0
sg325
I0
sg523
I0
sg327
I0
sg328
I0
sg329
I0
sg330
I0
sg115
I0
sg331
I0
sg332
I0
sg333
I0
sg334
I0
sg335
I0
sg336
I0
sg337
I0
sg139
I0
sg338
I0
sg339
I0
sg340
I0
sg129
I0
sg341
I0
sg342
I0
sg343
I0
sg344
I0
sg345
I0
sg346
I0
sg117
I0
sg347
I0
sg109
I0
sg348
I0
sg349
I0
sg350
I0
sg351
I0
sg148
I0
sg352
I0
ssg21
(dp965
g143
I0
sg11
I0
sg14
I0
sg33
I0
sg480
I0
sg42
I0
sg355
I0
sg356
I0
sg493
I0
sg525
I0
sg359
I0
sg145
I0
sg12
I0
sg360
I0
sg147
I0
sg362
I0
sg99
I0
sg150
I0
sg503
I0
sg22
I0
sg98
I0
sg36
I0
sg35
I0
sg102
I0
sg62
I0
sg93
I0
sg27
I0
sg20
I0
sg520
I0
sg105
I0
sg365
I0
sg65
I0
sg63
I0
sg142
I0
sg366
I0
sg151
I0
sg526
I0
sg103
I0
sg50
I0
sg74
I0
sg250
I0
sg44
I0
sg368
I0
sg40
I0
sg41
I0
sg369
I0
sg23
I0
sg87
I0
sg72
I0
sg71
I0
sg100
I0
sg29
I0
sg28
I0
sg370
I0
sg476
I0
sg91
I0
sg53
I0
sg101
I0
sg95
I0
sg146
I0
sg373
I0
sg506
I0
sg8
I0
sg514
I0
sg9
I0
sg83
I0
sg75
I0
sg92
I0
sg79
I0
sg80
I0
sg32
I0
sg68
I0
sg67
I0
sg94
I0
sg89
I0
sg37
I0
sg376
I0
sg46
I0
sg149
I0
sg38
I0
sg81
I0
sg24
I0
sg377
I0
sg378
I0
sg10
I0
sg82
I0
sg379
I0
sg60
I0
sg59
I0
sg73
I0
sg54
I0
sg26
I0
sg55
I0
sg96
I0
sg52
I0
sg13
I0
sg251
I0
sg462
I0
sg21
I6
sg19
I0
sg381
I0
sg78
I0
sg39
I0
sg84
I0
sg382
I0
sg383
I0
sg97
I0
sg384
I0
sg527
I0
sg90
I0
sg144
I0
sg17
I0
sg25
I0
sg66
I0
sg31
I0
sg88
I0
sg469
I0
sg56
I0
sg47
I0
sg86
I0
sg104
I0
sg70
I0
sg85
I0
sg69
I0
sg387
I0
sg16
I0
sg30
I0
sg15
I0
sg388
I0
sg45
I0
sg34
I0
sg49
I0
sg18
I0
sg64
I0
sg57
I0
sg51
I0
sg58
I0
sg528
I0
sg77
I0
sg61
I0
sg43
I0
sg76
I0
sg148
I0
sg48
I0
ssg19
(dp966
g143
I0
sg11
I0
sg14
I0
sg33
I0
sg108
I0
sg42
I0
sg126
I0
sg127
I0
sg110
I0
sg111
I0
sg133
I0
sg145
I0
sg12
I0
sg132
I0
sg147
I0
sg125
I0
sg99
I0
sg150
I0
sg106
I0
sg22
I0
sg98
I0
sg36
I0
sg35
I0
sg102
I0
sg62
I0
sg93
I0
sg27
I0
sg20
I0
sg107
I0
sg105
I0
sg138
I0
sg65
I0
sg63
I0
sg142
I0
sg128
I0
sg151
I0
sg113
I0
sg103
I0
sg50
I0
sg74
I0
sg141
I0
sg44
I0
sg137
I0
sg40
I0
sg41
I0
sg121
I0
sg23
I0
sg87
I0
sg72
I0
sg71
I0
sg100
I0
sg29
I0
sg28
I0
sg134
I0
sg116
I0
sg91
I0
sg53
I0
sg101
I0
sg95
I0
sg146
I0
sg131
I0
sg112
I0
sg8
I0
sg118
I0
sg9
I0
sg83
I0
sg75
I0
sg92
I0
sg79
I0
sg80
I0
sg32
I0
sg68
I0
sg67
I0
sg94
I0
sg89
I0
sg37
I0
sg135
I0
sg46
I0
sg149
I0
sg38
I0
sg81
I0
sg24
I0
sg130
I0
sg123
I0
sg10
I0
sg82
I0
sg136
I0
sg60
I0
sg59
I0
sg73
I0
sg54
I0
sg26
I0
sg55
I0
sg96
I0
sg52
I0
sg13
I0
sg140
I0
sg114
I0
sg21
I0
sg19
I0
sg124
I0
sg78
I0
sg39
I0
sg84
I0
sg119
I0
sg120
I0
sg97
I0
sg122
I0
sg117
I0
sg90
I0
sg144
I0
sg17
I0
sg25
I0
sg66
I0
sg31
I0
sg88
I0
sg115
I0
sg56
I0
sg47
I0
sg86
I0
sg104
I0
sg70
I0
sg85
I0
sg69
I0
sg139
I0
sg16
I0
sg30
I0
sg15
I0
sg129
I0
sg45
I0
sg34
I0
sg49
I0
sg18
I0
sg64
I0
sg57
I0
sg51
I0
sg58
I0
sg109
I0
sg77
I0
sg61
I0
sg43
I0
sg76
I0
sg148
I0
sg48
I0
ssg124
(dp967
g255
I0
sg256
I0
sg257
I0
sg391
I0
sg108
I0
sg140
I0
sg126
I0
sg127
I0
sg110
I0
sg111
I0
sg133
I0
sg145
I0
sg392
I0
sg132
I0
sg147
I0
sg125
I6
sg261
I0
sg150
I0
sg106
I0
sg393
I0
sg263
I0
sg113
I0
sg264
I0
sg265
I0
sg266
I0
sg394
I0
sg395
I0
sg269
I0
sg107
I0
sg270
I0
sg396
I0
sg397
I0
sg142
I0
sg273
I0
sg151
I0
sg274
I0
sg398
I0
sg124
I0
sg114
I0
sg250
I0
sg276
I0
sg277
I0
sg278
I0
sg121
I0
sg399
I0
sg280
I0
sg281
I0
sg282
I0
sg284
I0
sg138
I0
sg134
I0
sg116
I0
sg285
I0
sg286
I0
sg287
I0
sg288
I0
sg146
I0
sg131
I0
sg112
I0
sg400
I0
sg401
I0
sg118
I0
sg402
I0
sg292
I0
sg403
I0
sg294
I0
sg295
I0
sg296
I0
sg404
I0
sg405
I0
sg300
I0
sg301
I0
sg406
I0
sg135
I0
sg407
I0
sg149
I0
sg304
I0
sg305
I0
sg306
I0
sg130
I0
sg123
I0
sg307
I0
sg137
I0
sg136
I0
sg408
I0
sg409
I0
sg310
I0
sg311
I0
sg410
I0
sg411
I0
sg314
I0
sg412
I0
sg413
I0
sg414
I0
sg415
I0
sg128
I0
sg416
I0
sg319
I0
sg320
I0
sg321
I0
sg119
I0
sg120
I0
sg322
I0
sg122
I0
sg417
I0
sg324
I0
sg144
I0
sg325
I0
sg418
I0
sg419
I0
sg328
I0
sg420
I0
sg330
I0
sg115
I0
sg331
I0
sg332
I0
sg333
I0
sg334
I0
sg421
I0
sg336
I0
sg422
I0
sg139
I0
sg338
I0
sg339
I0
sg340
I0
sg129
I0
sg341
I0
sg342
I0
sg343
I0
sg344
I0
sg423
I0
sg346
I0
sg117
I0
sg424
I0
sg109
I0
sg348
I0
sg425
I0
sg426
I0
sg351
I0
sg148
I0
sg427
I0
ssg78
(dp968
g143
I0
sg11
I0
sg14
I0
sg33
I0
sg108
I0
sg42
I0
sg126
I0
sg127
I0
sg110
I0
sg111
I0
sg133
I0
sg145
I0
sg12
I0
sg132
I0
sg147
I0
sg125
I0
sg99
I0
sg106
I0
sg22
I0
sg98
I0
sg36
I0
sg35
I0
sg102
I0
sg62
I0
sg93
I0
sg27
I0
sg20
I0
sg107
I0
sg105
I0
sg138
I0
sg65
I0
sg63
I0
sg128
I0
sg113
I0
sg103
I0
sg50
I0
sg74
I0
sg141
I0
sg44
I0
sg137
I0
sg40
I0
sg41
I0
sg121
I0
sg23
I0
sg87
I0
sg72
I0
sg71
I0
sg100
I0
sg29
I0
sg28
I0
sg134
I0
sg116
I0
sg91
I0
sg53
I0
sg101
I0
sg95
I0
sg146
I0
sg131
I0
sg112
I0
sg8
I0
sg118
I0
sg9
I0
sg83
I0
sg75
I0
sg92
I0
sg79
I0
sg80
I0
sg32
I0
sg68
I0
sg67
I0
sg94
I0
sg89
I0
sg37
I0
sg135
I0
sg46
I0
sg38
I0
sg81
I0
sg24
I0
sg130
I0
sg123
I0
sg10
I0
sg82
I0
sg136
I0
sg60
I0
sg59
I0
sg73
I0
sg54
I0
sg26
I0
sg55
I0
sg96
I0
sg52
I0
sg13
I0
sg140
I0
sg114
I0
sg21
I0
sg19
I0
sg124
I0
sg78
I0
sg39
I0
sg84
I0
sg119
I0
sg120
I0
sg97
I0
sg122
I0
sg117
I0
sg90
I0
sg144
I0
sg17
I0
sg25
I0
sg66
I0
sg31
I0
sg88
I0
sg115
I0
sg56
I0
sg47
I0
sg86
I0
sg104
I0
sg70
I0
sg85
I0
sg69
I0
sg139
I0
sg16
I0
sg30
I0
sg15
I0
sg129
I0
sg45
I0
sg34
I0
sg49
I0
sg18
I0
sg64
I0
sg57
I0
sg51
I0
sg58
I0
sg109
I0
sg77
I0
sg61
I0
sg43
I0
sg76
I0
sg148
I0
sg48
I0
ssg39
(dp969
g143
I0
sg11
I0
sg14
I0
sg33
I0
sg108
I0
sg42
I0
sg126
I0
sg127
I0
sg110
I0
sg111
I0
sg133
I0
sg145
I0
sg12
I0
sg132
I0
sg147
I0
sg125
I0
sg99
I0
sg150
I0
sg106
I0
sg22
I0
sg98
I0
sg36
I0
sg35
I0
sg102
I0
sg62
I0
sg93
I0
sg27
I0
sg20
I0
sg107
I0
sg105
I0
sg138
I0
sg65
I0
sg63
I0
sg142
I0
sg128
I0
sg151
I0
sg113
I0
sg103
I0
sg50
I0
sg74
I0
sg141
I0
sg44
I0
sg137
I0
sg40
I0
sg41
I0
sg121
I0
sg23
I0
sg87
I0
sg72
I0
sg71
I0
sg100
I0
sg29
I0
sg28
I0
sg134
I0
sg116
I0
sg91
I0
sg53
I0
sg101
I0
sg95
I0
sg146
I0
sg131
I0
sg112
I0
sg8
I0
sg118
I0
sg9
I0
sg83
I0
sg75
I0
sg92
I0
sg79
I0
sg80
I0
sg32
I0
sg68
I0
sg67
I0
sg94
I0
sg89
I0
sg37
I0
sg135
I0
sg46
I0
sg149
I0
sg38
I0
sg81
I0
sg24
I0
sg130
I0
sg123
I0
sg10
I0
sg82
I0
sg136
I0
sg60
I0
sg59
I0
sg73
I0
sg54
I0
sg26
I0
sg55
I0
sg96
I0
sg52
I0
sg13
I0
sg140
I0
sg114
I0
sg21
I0
sg19
I0
sg124
I0
sg78
I0
sg39
I11
sg84
I0
sg119
I0
sg120
I0
sg97
I0
sg122
I0
sg117
I0
sg90
I0
sg144
I0
sg17
I0
sg25
I0
sg66
I0
sg31
I0
sg88
I0
sg115
I0
sg56
I0
sg47
I0
sg86
I0
sg104
I0
sg70
I0
sg85
I0
sg69
I0
sg139
I0
sg16
I0
sg30
I0
sg15
I0
sg129
I0
sg45
I0
sg34
I0
sg49
I0
sg18
I0
sg64
I0
sg57
I0
sg51
I0
sg58
I0
sg109
I0
sg77
I0
sg61
I0
sg43
I0
sg76
I0
sg148
I0
sg48
I0
ssg84
(dp970
g143
I0
sg11
I0
sg14
I0
sg33
I0
sg108
I0
sg42
I0
sg126
I0
sg127
I0
sg110
I0
sg111
I0
sg133
I0
sg12
I0
sg132
I0
sg125
I0
sg99
I0
sg106
I0
sg22
I0
sg98
I0
sg36
I0
sg35
I0
sg102
I0
sg62
I0
sg93
I0
sg27
I0
sg20
I0
sg107
I0
sg105
I0
sg138
I0
sg65
I0
sg63
I0
sg128
I0
sg113
I0
sg103
I0
sg50
I0
sg74
I0
sg141
I0
sg44
I0
sg137
I0
sg40
I0
sg41
I0
sg121
I0
sg23
I0
sg87
I0
sg72
I0
sg71
I0
sg100
I0
sg29
I0
sg28
I0
sg134
I0
sg116
I0
sg91
I0
sg53
I0
sg101
I0
sg95
I0
sg131
I0
sg112
I0
sg8
I0
sg118
I0
sg9
I0
sg83
I0
sg75
I0
sg92
I0
sg79
I0
sg80
I0
sg32
I0
sg68
I0
sg67
I0
sg94
I0
sg89
I0
sg37
I0
sg135
I0
sg46
I0
sg38
I0
sg81
I0
sg24
I0
sg130
I0
sg123
I0
sg10
I0
sg82
I0
sg136
I0
sg60
I0
sg59
I0
sg73
I0
sg54
I0
sg26
I0
sg55
I0
sg96
I0
sg52
I0
sg13
I0
sg140
I0
sg114
I0
sg21
I0
sg19
I0
sg124
I0
sg78
I0
sg39
I0
sg84
I0
sg119
I0
sg120
I0
sg97
I0
sg122
I0
sg117
I0
sg90
I0
sg17
I0
sg25
I0
sg66
I0
sg31
I0
sg88
I0
sg115
I0
sg56
I0
sg47
I0
sg86
I0
sg104
I0
sg70
I0
sg85
I0
sg69
I0
sg139
I0
sg16
I0
sg30
I0
sg15
I0
sg129
I0
sg45
I0
sg34
I6
sg49
I0
sg18
I0
sg64
I0
sg57
I0
sg51
I0
sg58
I0
sg109
I0
sg77
I0
sg61
I0
sg43
I0
sg76
I0
sg48
I0
ssg119
(dp971
g255
I0
sg256
I0
sg257
I0
sg391
I0
sg108
I0
sg140
I0
sg126
I0
sg127
I0
sg110
I0
sg111
I0
sg133
I0
sg145
I0
sg392
I0
sg132
I0
sg147
I0
sg125
I0
sg261
I0
sg150
I0
sg106
I0
sg393
I0
sg263
I0
sg113
I0
sg264
I0
sg265
I0
sg266
I0
sg394
I0
sg395
I0
sg269
I0
sg107
I0
sg270
I0
sg396
I0
sg397
I0
sg142
I0
sg273
I0
sg151
I0
sg274
I0
sg398
I0
sg124
I0
sg114
I0
sg250
I0
sg276
I0
sg277
I0
sg278
I0
sg121
I0
sg399
I0
sg280
I0
sg281
I0
sg282
I0
sg284
I0
sg138
I0
sg134
I0
sg116
I0
sg285
I0
sg286
I0
sg287
I0
sg288
I0
sg146
I0
sg131
I0
sg112
I0
sg400
I0
sg401
I0
sg118
I0
sg402
I0
sg292
I0
sg403
I0
sg294
I0
sg295
I0
sg296
I0
sg404
I0
sg405
I0
sg300
I0
sg301
I0
sg406
I0
sg135
I0
sg407
I0
sg149
I0
sg304
I0
sg305
I0
sg306
I0
sg130
I0
sg123
I0
sg307
I0
sg137
I0
sg136
I0
sg408
I0
sg409
I0
sg310
I0
sg311
I0
sg410
I0
sg411
I0
sg314
I0
sg412
I0
sg413
I0
sg414
I0
sg415
I0
sg128
I0
sg416
I0
sg319
I0
sg320
I0
sg321
I0
sg119
I0
sg120
I6
sg322
I0
sg122
I0
sg417
I0
sg324
I0
sg144
I0
sg325
I0
sg418
I0
sg419
I0
sg328
I0
sg420
I0
sg330
I0
sg115
I0
sg331
I0
sg332
I0
sg333
I0
sg334
I0
sg421
I0
sg336
I0
sg422
I0
sg139
I0
sg338
I0
sg339
I0
sg340
I0
sg129
I0
sg341
I0
sg342
I0
sg343
I0
sg344
I0
sg423
I0
sg346
I0
sg117
I0
sg424
I0
sg109
I0
sg348
I0
sg425
I0
sg426
I0
sg351
I0
sg148
I0
sg427
I0
ssg120
(dp972
g255
I0
sg256
I0
sg257
I0
sg391
I0
sg108
I0
sg140
I0
sg126
I0
sg127
I0
sg110
I0
sg111
I0
sg133
I0
sg145
I0
sg392
I0
sg132
I0
sg147
I0
sg125
I0
sg261
I0
sg150
I0
sg106
I0
sg393
I0
sg263
I0
sg113
I0
sg264
I0
sg265
I0
sg266
I0
sg394
I0
sg395
I0
sg269
I0
sg107
I0
sg270
I0
sg396
I0
sg397
I0
sg142
I0
sg273
I0
sg151
I0
sg274
I0
sg398
I0
sg124
I0
sg114
I0
sg250
I0
sg276
I0
sg277
I0
sg278
I0
sg121
I0
sg399
I0
sg280
I0
sg281
I0
sg282
I0
sg284
I0
sg138
I0
sg134
I0
sg116
I0
sg285
I0
sg286
I0
sg287
I0
sg288
I0
sg146
I0
sg131
I0
sg112
I0
sg400
I0
sg401
I0
sg118
I0
sg402
I0
sg292
I0
sg403
I0
sg294
I0
sg295
I0
sg296
I0
sg404
I0
sg405
I0
sg300
I0
sg301
I0
sg406
I0
sg135
I0
sg407
I0
sg149
I0
sg304
I0
sg305
I0
sg306
I0
sg130
I0
sg123
I0
sg307
I0
sg137
I0
sg136
I0
sg408
I0
sg409
I0
sg310
I0
sg311
I0
sg410
I0
sg411
I0
sg314
I0
sg412
I0
sg413
I0
sg414
I0
sg415
I0
sg128
I0
sg416
I0
sg319
I0
sg320
I0
sg321
I0
sg119
I0
sg120
I0
sg322
I0
sg122
I0
sg417
I0
sg324
I0
sg144
I0
sg325
I0
sg418
I0
sg419
I0
sg328
I0
sg420
I0
sg330
I0
sg115
I0
sg331
I0
sg332
I0
sg333
I0
sg334
I0
sg421
I0
sg336
I0
sg422
I0
sg139
I0
sg338
I0
sg339
I0
sg340
I0
sg129
I0
sg341
I0
sg342
I0
sg343
I0
sg344
I0
sg423
I0
sg346
I0
sg117
I0
sg424
I0
sg109
I0
sg348
I0
sg425
I0
sg426
I0
sg351
I0
sg148
I0
sg427
I0
ssg97
(dp973
g11
I0
sg14
I0
sg33
I0
sg108
I0
sg42
I0
sg126
I0
sg127
I0
sg110
I0
sg111
I0
sg133
I0
sg12
I0
sg132
I0
sg125
I0
sg99
I0
sg106
I0
sg22
I0
sg98
I0
sg36
I0
sg35
I0
sg102
I0
sg62
I0
sg93
I0
sg27
I0
sg20
I0
sg107
I0
sg105
I0
sg138
I0
sg65
I0
sg63
I0
sg128
I0
sg113
I0
sg103
I0
sg50
I0
sg74
I0
sg141
I0
sg44
I0
sg137
I0
sg40
I0
sg41
I0
sg121
I0
sg23
I0
sg87
I0
sg72
I0
sg71
I0
sg100
I0
sg29
I0
sg28
I0
sg134
I0
sg116
I0
sg91
I0
sg53
I0
sg101
I0
sg95
I0
sg131
I0
sg112
I0
sg8
I0
sg118
I0
sg9
I0
sg83
I0
sg75
I0
sg92
I0
sg79
I0
sg80
I0
sg32
I0
sg68
I0
sg67
I0
sg94
I0
sg89
I0
sg37
I0
sg135
I0
sg46
I0
sg38
I0
sg81
I0
sg24
I0
sg130
I0
sg123
I0
sg10
I0
sg82
I0
sg136
I0
sg60
I0
sg59
I0
sg73
I0
sg54
I0
sg26
I0
sg55
I0
sg96
I0
sg52
I0
sg13
I0
sg140
I0
sg114
I0
sg21
I0
sg19
I0
sg124
I0
sg78
I0
sg39
I0
sg84
I0
sg119
I0
sg120
I0
sg97
I0
sg122
I0
sg117
I0
sg90
I0
sg17
I0
sg25
I0
sg66
I0
sg31
I0
sg88
I0
sg115
I0
sg56
I0
sg47
I0
sg86
I0
sg104
I0
sg70
I0
sg85
I0
sg69
I0
sg139
I0
sg16
I0
sg30
I0
sg15
I0
sg129
I0
sg45
I0
sg34
I0
sg49
I0
sg18
I0
sg64
I0
sg57
I0
sg51
I0
sg58
I0
sg109
I0
sg77
I0
sg61
I0
sg43
I0
sg76
I0
sg48
I0
ssg122
(dp974
g255
I0
sg256
I0
sg257
I0
sg391
I0
sg108
I0
sg140
I0
sg126
I0
sg127
I0
sg110
I0
sg111
I0
sg133
I0
sg145
I0
sg392
I0
sg132
I0
sg147
I0
sg125
I0
sg261
I0
sg150
I0
sg106
I0
sg393
I0
sg263
I0
sg113
I0
sg264
I0
sg265
I0
sg266
I0
sg394
I0
sg395
I0
sg269
I0
sg107
I0
sg270
I0
sg396
I0
sg397
I0
sg142
I0
sg273
I0
sg151
I0
sg274
I0
sg398
I0
sg124
I0
sg114
I0
sg250
I0
sg276
I0
sg277
I0
sg278
I0
sg121
I0
sg399
I0
sg280
I0
sg281
I0
sg282
I0
sg284
I0
sg138
I0
sg134
I0
sg116
I0
sg285
I0
sg286
I0
sg287
I0
sg288
I0
sg146
I0
sg131
I0
sg112
I0
sg400
I0
sg401
I0
sg118
I0
sg402
I0
sg292
I0
sg403
I0
sg294
I0
sg295
I0
sg296
I0
sg404
I0
sg405
I0
sg300
I0
sg301
I0
sg406
I0
sg135
I0
sg407
I0
sg149
I0
sg304
I0
sg305
I0
sg306
I0
sg130
I0
sg123
I0
sg307
I0
sg137
I0
sg136
I0
sg408
I0
sg409
I0
sg310
I0
sg311
I0
sg410
I0
sg411
I0
sg314
I0
sg412
I0
sg413
I0
sg414
I0
sg415
I0
sg128
I0
sg416
I0
sg319
I0
sg320
I0
sg321
I0
sg119
I0
sg120
I0
sg322
I0
sg122
I6
sg417
I0
sg324
I0
sg144
I0
sg325
I0
sg418
I0
sg419
I0
sg328
I0
sg420
I0
sg330
I0
sg115
I0
sg331
I0
sg332
I0
sg333
I0
sg334
I0
sg421
I0
sg336
I0
sg422
I0
sg139
I0
sg338
I0
sg339
I0
sg340
I0
sg129
I0
sg341
I0
sg342
I0
sg343
I0
sg344
I0
sg423
I0
sg346
I0
sg117
I0
sg424
I0
sg109
I0
sg348
I0
sg425
I0
sg426
I0
sg351
I0
sg148
I0
sg427
I0
ssg117
(dp975
g143
I0
sg255
I0
sg256
I0
sg257
I0
sg391
I0
sg108
I0
sg259
I0
sg126
I0
sg127
I0
sg110
I0
sg111
I0
sg133
I0
sg145
I0
sg392
I0
sg132
I0
sg147
I0
sg125
I0
sg261
I0
sg150
I0
sg106
I0
sg262
I0
sg263
I0
sg113
I0
sg264
I0
sg265
I0
sg266
I0
sg394
I0
sg395
I0
sg269
I0
sg107
I0
sg270
I0
sg271
I0
sg272
I0
sg142
I0
sg273
I0
sg151
I0
sg274
I0
sg398
I0
sg124
I0
sg114
I0
sg250
I0
sg276
I0
sg277
I0
sg278
I0
sg121
I0
sg399
I0
sg280
I0
sg281
I0
sg282
I0
sg284
I0
sg138
I0
sg134
I0
sg116
I0
sg285
I0
sg286
I0
sg287
I0
sg288
I0
sg146
I0
sg131
I0
sg112
I0
sg289
I0
sg401
I0
sg118
I0
sg402
I0
sg292
I0
sg293
I0
sg294
I0
sg295
I0
sg296
I0
sg404
I0
sg298
I0
sg299
I0
sg300
I0
sg301
I0
sg406
I0
sg135
I0
sg303
I0
sg149
I0
sg304
I0
sg305
I0
sg306
I0
sg130
I0
sg123
I0
sg307
I0
sg137
I0
sg136
I0
sg308
I0
sg309
I0
sg310
I0
sg311
I0
sg410
I0
sg313
I0
sg314
I0
sg315
I0
sg413
I0
sg140
I0
sg415
I0
sg128
I0
sg318
I0
sg319
I0
sg320
I0
sg321
I0
sg119
I0
sg120
I0
sg322
I0
sg122
I0
sg323
I0
sg324
I0
sg144
I0
sg325
I0
sg418
I0
sg327
I0
sg328
I0
sg329
I0
sg330
I0
sg115
I0
sg331
I0
sg332
I0
sg333
I0
sg334
I0
sg335
I0
sg336
I0
sg337
I0
sg139
I0
sg338
I0
sg339
I0
sg340
I0
sg129
I0
sg341
I0
sg342
I0
sg343
I0
sg344
I0
sg345
I0
sg346
I0
sg117
I12
sg347
I0
sg109
I0
sg348
I0
sg349
I0
sg350
I0
sg351
I0
sg148
I0
sg352
I0
ssg90
(dp976
g11
I0
sg14
I0
sg33
I0
sg108
I0
sg42
I0
sg126
I0
sg127
I0
sg110
I0
sg111
I0
sg133
I0
sg12
I0
sg132
I0
sg125
I0
sg99
I0
sg150
I0
sg106
I0
sg22
I0
sg98
I0
sg36
I0
sg35
I0
sg102
I0
sg62
I0
sg93
I0
sg27
I0
sg20
I0
sg107
I0
sg105
I0
sg138
I0
sg65
I0
sg63
I0
sg128
I0
sg113
I0
sg103
I0
sg50
I0
sg74
I0
sg141
I0
sg44
I0
sg137
I0
sg40
I0
sg41
I0
sg121
I0
sg23
I0
sg87
I0
sg72
I0
sg71
I0
sg100
I0
sg29
I0
sg28
I0
sg134
I0
sg116
I0
sg91
I0
sg53
I0
sg101
I0
sg95
I0
sg432
I0
sg131
I0
sg112
I0
sg8
I0
sg118
I0
sg9
I0
sg83
I0
sg75
I0
sg92
I0
sg79
I0
sg80
I0
sg32
I0
sg68
I0
sg67
I0
sg94
I0
sg89
I0
sg37
I0
sg135
I0
sg46
I0
sg149
I0
sg38
I0
sg81
I0
sg24
I0
sg130
I0
sg123
I0
sg10
I0
sg82
I0
sg136
I0
sg60
I0
sg59
I0
sg73
I0
sg90
I0
sg26
I0
sg55
I0
sg96
I0
sg52
I0
sg13
I0
sg140
I0
sg114
I0
sg21
I0
sg19
I0
sg124
I0
sg78
I0
sg39
I0
sg84
I0
sg119
I0
sg120
I0
sg97
I0
sg122
I0
sg117
I0
sg54
I0
sg17
I0
sg25
I0
sg66
I0
sg31
I0
sg88
I0
sg115
I0
sg56
I0
sg47
I0
sg86
I0
sg104
I0
sg70
I0
sg85
I0
sg69
I0
sg139
I0
sg16
I0
sg30
I0
sg15
I0
sg129
I0
sg45
I0
sg34
I0
sg49
I0
sg18
I0
sg64
I0
sg57
I0
sg51
I0
sg58
I0
sg109
I0
sg77
I0
sg61
I0
sg43
I0
sg76
I0
sg48
I0
ssg144
(dp977
g453
I0
sg454
I0
sg455
I0
sg456
I0
sg457
I0
sg291
I0
sg458
I0
sg459
I0
sg460
I0
sg461
I0
sg462
I0
sg250
I0
sg463
I0
sg464
I0
sg465
I0
sg466
I0
sg467
I0
sg468
I0
sg469
I0
sg470
I0
sg471
I0
sg472
I0
sg473
I0
sg474
I0
sg475
I0
sg476
I0
sg477
I0
sg478
I0
sg479
I0
sg480
I0
sg481
I0
sg482
I0
sg483
I0
sg484
I0
sg144
I0
sg485
I0
sg486
I0
sg487
I0
sg488
I0
sg489
I0
sg490
I0
sg491
I0
sg492
I0
sg493
I0
sg494
I0
sg495
I0
sg145
I0
sg260
I0
sg496
I0
sg147
I0
sg497
I0
sg498
I0
sg316
I0
sg499
I0
sg500
I0
sg501
I0
sg502
I0
sg503
I0
sg504
I0
sg146
I0
sg317
I0
sg505
I0
sg506
I0
sg507
I0
sg508
I0
sg509
I0
sg510
I0
sg511
I0
sg512
I0
sg290
I0
sg513
I0
sg514
I0
sg515
I0
sg148
I0
sg516
I0
sg517
I0
sg518
I0
sg519
I0
sg520
I0
sg521
I0
sg522
I0
sg523
I0
ssg17
(dp978
g143
I0
sg11
I0
sg14
I0
sg33
I0
sg108
I0
sg42
I0
sg126
I0
sg127
I0
sg110
I0
sg111
I0
sg133
I0
sg145
I0
sg12
I0
sg132
I0
sg147
I0
sg125
I0
sg99
I0
sg150
I0
sg106
I0
sg22
I0
sg98
I0
sg36
I0
sg35
I0
sg102
I0
sg62
I0
sg93
I0
sg27
I0
sg20
I0
sg107
I0
sg105
I0
sg138
I0
sg65
I0
sg63
I0
sg142
I0
sg128
I0
sg151
I0
sg113
I0
sg103
I0
sg50
I0
sg74
I0
sg141
I0
sg44
I0
sg137
I0
sg40
I0
sg41
I0
sg121
I0
sg23
I0
sg87
I0
sg72
I0
sg71
I0
sg100
I0
sg29
I0
sg28
I0
sg134
I0
sg116
I0
sg91
I0
sg53
I0
sg101
I0
sg95
I0
sg146
I0
sg131
I0
sg112
I0
sg8
I0
sg118
I0
sg9
I0
sg83
I0
sg75
I0
sg92
I0
sg79
I0
sg80
I0
sg32
I0
sg68
I0
sg67
I0
sg94
I0
sg89
I0
sg37
I0
sg135
I0
sg46
I0
sg149
I0
sg38
I0
sg81
I0
sg24
I0
sg130
I0
sg123
I0
sg10
I0
sg82
I0
sg136
I0
sg60
I0
sg59
I0
sg73
I0
sg54
I0
sg26
I0
sg55
I0
sg96
I0
sg52
I0
sg13
I0
sg140
I0
sg114
I0
sg21
I0
sg19
I0
sg124
I0
sg78
I0
sg39
I0
sg84
I0
sg119
I0
sg120
I0
sg97
I0
sg122
I0
sg117
I0
sg90
I0
sg144
I0
sg17
I12
sg25
I0
sg66
I0
sg31
I0
sg88
I0
sg115
I0
sg56
I0
sg47
I0
sg86
I0
sg104
I0
sg70
I0
sg85
I0
sg69
I0
sg139
I0
sg16
I0
sg30
I0
sg15
I0
sg129
I0
sg45
I0
sg34
I0
sg49
I0
sg18
I0
sg64
I0
sg57
I0
sg51
I0
sg58
I0
sg109
I0
sg77
I0
sg61
I0
sg43
I0
sg76
I0
sg148
I0
sg48
I0
ssg25
(dp979
g143
I0
sg11
I0
sg14
I0
sg33
I0
sg638
I0
sg42
I0
sg355
I0
sg356
I0
sg639
I0
sg640
I0
sg359
I0
sg145
I0
sg12
I0
sg360
I0
sg147
I0
sg362
I0
sg99
I0
sg641
I0
sg22
I0
sg98
I0
sg36
I0
sg35
I0
sg102
I0
sg62
I0
sg93
I0
sg27
I0
sg20
I0
sg642
I0
sg105
I0
sg365
I0
sg65
I0
sg63
I0
sg142
I0
sg366
I0
sg151
I0
sg643
I0
sg103
I0
sg50
I0
sg74
I0
sg141
I0
sg44
I0
sg368
I0
sg40
I0
sg41
I0
sg369
I0
sg23
I0
sg87
I0
sg72
I0
sg71
I0
sg100
I0
sg29
I0
sg28
I0
sg370
I0
sg476
I0
sg91
I0
sg53
I0
sg101
I0
sg95
I0
sg146
I0
sg373
I0
sg644
I0
sg8
I0
sg514
I0
sg9
I0
sg83
I0
sg75
I0
sg92
I0
sg79
I0
sg80
I0
sg32
I0
sg68
I0
sg67
I0
sg94
I0
sg89
I0
sg37
I0
sg376
I0
sg46
I0
sg38
I0
sg81
I0
sg24
I0
sg377
I0
sg378
I0
sg10
I0
sg82
I0
sg379
I0
sg60
I0
sg59
I0
sg73
I0
sg54
I0
sg26
I0
sg55
I0
sg96
I0
sg52
I0
sg13
I0
sg251
I0
sg462
I0
sg21
I0
sg19
I0
sg381
I0
sg78
I0
sg39
I0
sg84
I0
sg382
I0
sg383
I0
sg97
I0
sg384
I0
sg527
I0
sg90
I0
sg144
I0
sg17
I0
sg25
I6
sg66
I0
sg31
I0
sg88
I0
sg469
I0
sg56
I0
sg47
I0
sg86
I0
sg104
I0
sg70
I0
sg85
I0
sg69
I0
sg387
I0
sg16
I0
sg30
I0
sg15
I0
sg388
I0
sg45
I0
sg34
I0
sg49
I0
sg18
I0
sg64
I0
sg57
I0
sg51
I0
sg58
I0
sg645
I0
sg77
I0
sg61
I0
sg43
I0
sg76
I0
sg148
I0
sg48
I0
ssg66
(dp980
g143
I0
sg11
I0
sg14
I0
sg33
I0
sg354
I0
sg42
I0
sg622
I0
sg623
I0
sg357
I0
sg358
I0
sg160
I0
sg12
I0
sg162
I0
sg624
I0
sg99
I0
sg363
I0
sg22
I0
sg98
I0
sg36
I0
sg35
I0
sg102
I0
sg62
I0
sg93
I0
sg27
I0
sg20
I0
sg364
I0
sg105
I0
sg182
I0
sg65
I0
sg63
I0
sg171
I0
sg367
I0
sg103
I0
sg50
I0
sg74
I0
sg141
I0
sg44
I0
sg40
I0
sg41
I0
sg625
I0
sg23
I0
sg87
I0
sg72
I0
sg71
I0
sg100
I0
sg29
I0
sg28
I0
sg183
I0
sg371
I0
sg91
I0
sg53
I0
sg101
I0
sg95
I0
sg186
I0
sg374
I0
sg8
I0
sg375
I0
sg9
I0
sg83
I0
sg75
I0
sg92
I0
sg79
I0
sg80
I0
sg32
I0
sg68
I0
sg67
I0
sg94
I0
sg89
I0
sg37
I0
sg197
I0
sg46
I0
sg38
I0
sg81
I0
sg24
I0
sg202
I0
sg626
I0
sg10
I0
sg82
I0
sg205
I0
sg60
I0
sg59
I0
sg73
I0
sg54
I0
sg26
I0
sg55
I0
sg96
I0
sg52
I0
sg13
I0
sg140
I0
sg380
I0
sg21
I0
sg19
I0
sg627
I0
sg78
I0
sg39
I0
sg84
I0
sg628
I0
sg629
I0
sg97
I0
sg630
I0
sg385
I0
sg90
I0
sg17
I0
sg25
I0
sg66
I0
sg31
I0
sg88
I0
sg386
I0
sg56
I0
sg47
I0
sg86
I0
sg104
I0
sg70
I0
sg85
I0
sg69
I0
sg231
I0
sg16
I0
sg30
I0
sg15
I0
sg235
I0
sg45
I0
sg34
I0
sg49
I0
sg18
I0
sg64
I0
sg57
I0
sg51
I0
sg58
I0
sg389
I0
sg77
I0
sg61
I0
sg43
I0
sg76
I0
sg48
I0
ssg31
(dp981
g143
I0
sg11
I0
sg14
I0
sg33
I0
sg108
I0
sg42
I0
sg126
I0
sg127
I0
sg110
I0
sg111
I0
sg133
I0
sg145
I0
sg12
I0
sg132
I0
sg147
I0
sg125
I0
sg99
I0
sg106
I0
sg22
I0
sg98
I0
sg36
I0
sg35
I0
sg102
I0
sg62
I0
sg93
I0
sg27
I0
sg20
I0
sg107
I0
sg105
I0
sg138
I0
sg65
I0
sg63
I0
sg142
I0
sg128
I0
sg151
I0
sg113
I0
sg103
I0
sg50
I0
sg74
I0
sg141
I0
sg44
I0
sg137
I0
sg40
I0
sg41
I0
sg121
I0
sg23
I0
sg87
I0
sg72
I0
sg71
I0
sg100
I0
sg29
I0
sg28
I0
sg134
I0
sg116
I0
sg91
I0
sg53
I0
sg101
I0
sg95
I0
sg146
I0
sg131
I0
sg112
I0
sg8
I0
sg118
I0
sg9
I0
sg83
I0
sg75
I0
sg92
I0
sg79
I0
sg80
I0
sg32
I0
sg68
I0
sg67
I0
sg94
I0
sg89
I0
sg37
I0
sg135
I0
sg46
I0
sg38
I0
sg81
I0
sg24
I0
sg130
I0
sg123
I0
sg10
I0
sg82
I0
sg136
I0
sg60
I0
sg59
I0
sg73
I0
sg54
I0
sg26
I0
sg55
I0
sg96
I0
sg52
I0
sg13
I0
sg140
I0
sg114
I0
sg21
I0
sg19
I0
sg124
I0
sg78
I0
sg39
I0
sg84
I0
sg119
I0
sg120
I0
sg97
I0
sg122
I0
sg117
I0
sg90
I0
sg144
I0
sg17
I0
sg25
I0
sg66
I0
sg31
I12
sg88
I0
sg115
I0
sg56
I0
sg47
I0
sg86
I0
sg104
I0
sg70
I0
sg85
I0
sg69
I0
sg139
I0
sg16
I0
sg30
I0
sg15
I0
sg129
I0
sg45
I0
sg34
I0
sg49
I0
sg18
I0
sg64
I0
sg57
I0
sg51
I0
sg58
I0
sg109
I0
sg77
I0
sg61
I0
sg43
I0
sg76
I0
sg148
I0
sg48
I0
ssg88
(dp982
g143
I0
sg11
I0
sg14
I0
sg33
I0
sg108
I0
sg42
I0
sg126
I0
sg127
I0
sg110
I0
sg111
I0
sg133
I0
sg12
I0
sg132
I0
sg125
I0
sg99
I0
sg106
I0
sg22
I0
sg98
I0
sg36
I0
sg35
I0
sg102
I0
sg62
I0
sg93
I0
sg27
I0
sg20
I0
sg107
I0
sg105
I0
sg138
I0
sg65
I0
sg63
I0
sg128
I0
sg113
I0
sg103
I0
sg50
I0
sg74
I0
sg141
I0
sg44
I0
sg137
I0
sg40
I0
sg41
I0
sg121
I0
sg23
I0
sg87
I0
sg72
I0
sg71
I0
sg100
I0
sg29
I0
sg28
I0
sg134
I0
sg116
I0
sg91
I0
sg53
I0
sg101
I0
sg95
I0
sg131
I0
sg112
I0
sg8
I0
sg118
I0
sg9
I0
sg83
I0
sg75
I0
sg92
I0
sg79
I0
sg80
I0
sg32
I0
sg68
I0
sg67
I0
sg94
I0
sg89
I0
sg37
I0
sg135
I0
sg46
I0
sg38
I0
sg81
I0
sg24
I0
sg130
I0
sg123
I0
sg10
I0
sg82
I0
sg136
I0
sg60
I0
sg59
I0
sg73
I0
sg54
I0
sg26
I0
sg55
I0
sg96
I0
sg52
I0
sg13
I0
sg140
I0
sg114
I0
sg21
I0
sg19
I0
sg124
I0
sg78
I0
sg39
I0
sg84
I0
sg119
I0
sg120
I0
sg97
I0
sg122
I0
sg117
I0
sg90
I0
sg17
I0
sg25
I0
sg66
I0
sg31
I0
sg88
I6
sg115
I0
sg56
I0
sg47
I0
sg86
I0
sg104
I0
sg70
I0
sg85
I0
sg69
I0
sg139
I0
sg16
I0
sg30
I0
sg15
I0
sg129
I0
sg45
I0
sg34
I0
sg49
I0
sg18
I0
sg64
I0
sg57
I0
sg51
I0
sg58
I0
sg109
I0
sg77
I0
sg61
I0
sg43
I0
sg76
I0
sg48
I0
ssg115
(dp983
g255
I0
sg256
I0
sg257
I0
sg479
I0
sg108
I0
sg259
I0
sg460
I0
sg126
I0
sg127
I0
sg110
I0
sg111
I0
sg133
I0
sg145
I0
sg260
I0
sg132
I0
sg147
I0
sg125
I0
sg261
I0
sg150
I0
sg106
I0
sg262
I0
sg263
I0
sg113
I0
sg264
I0
sg265
I0
sg266
I0
sg144
I0
sg516
I0
sg269
I0
sg107
I0
sg270
I0
sg271
I0
sg272
I0
sg273
I0
sg151
I0
sg274
I0
sg461
I0
sg124
I0
sg114
I0
sg250
I0
sg276
I0
sg277
I0
sg278
I0
sg121
I0
sg456
I0
sg280
I0
sg281
I0
sg282
I0
sg284
I0
sg138
I0
sg134
I0
sg116
I0
sg285
I0
sg286
I0
sg287
I0
sg288
I0
sg146
I0
sg131
I0
sg112
I0
sg289
I0
sg290
I0
sg118
I0
sg291
I0
sg292
I0
sg293
I0
sg294
I0
sg295
I0
sg296
I0
sg518
I0
sg298
I0
sg299
I0
sg300
I0
sg301
I0
sg499
I0
sg135
I0
sg303
I0
sg149
I0
sg304
I0
sg305
I0
sg306
I0
sg130
I0
sg123
I0
sg307
I0
sg137
I0
sg136
I0
sg308
I0
sg309
I0
sg310
I0
sg311
I0
sg485
I0
sg313
I0
sg314
I0
sg315
I0
sg316
I0
sg140
I0
sg317
I0
sg128
I0
sg318
I0
sg319
I0
sg320
I0
sg321
I0
sg119
I0
sg120
I0
sg322
I0
sg122
I0
sg323
I0
sg324
I0
sg325
I0
sg523
I0
sg327
I0
sg328
I0
sg329
I0
sg330
I0
sg115
I6
sg331
I0
sg332
I0
sg333
I0
sg334
I0
sg335
I0
sg336
I0
sg337
I0
sg139
I0
sg338
I0
sg339
I0
sg340
I0
sg129
I0
sg341
I0
sg342
I0
sg343
I0
sg344
I0
sg345
I0
sg346
I0
sg117
I0
sg347
I0
sg109
I0
sg348
I0
sg349
I0
sg350
I0
sg351
I0
sg148
I0
sg352
I0
ssg56
(dp984
g143
I0
sg11
I0
sg14
I0
sg33
I0
sg108
I0
sg42
I0
sg126
I0
sg127
I0
sg110
I0
sg111
I0
sg133
I0
sg145
I0
sg12
I0
sg132
I0
sg147
I0
sg125
I0
sg99
I0
sg150
I0
sg106
I0
sg22
I0
sg98
I0
sg36
I0
sg35
I0
sg102
I0
sg62
I0
sg93
I0
sg27
I0
sg20
I0
sg107
I0
sg105
I0
sg138
I0
sg65
I0
sg63
I0
sg142
I0
sg128
I0
sg151
I0
sg113
I0
sg103
I0
sg50
I0
sg74
I0
sg141
I0
sg44
I0
sg137
I0
sg40
I0
sg41
I0
sg121
I0
sg23
I0
sg87
I0
sg72
I0
sg71
I0
sg100
I0
sg29
I0
sg28
I0
sg134
I0
sg116
I0
sg91
I0
sg53
I0
sg101
I0
sg95
I0
sg146
I0
sg131
I0
sg112
I0
sg8
I0
sg118
I0
sg9
I0
sg83
I0
sg75
I0
sg92
I0
sg79
I0
sg80
I0
sg32
I0
sg68
I0
sg67
I0
sg94
I0
sg89
I0
sg37
I0
sg135
I0
sg46
I0
sg149
I0
sg38
I0
sg81
I0
sg24
I0
sg130
I0
sg123
I0
sg10
I0
sg82
I0
sg136
I0
sg60
I0
sg59
I0
sg73
I0
sg54
I0
sg26
I0
sg55
I0
sg96
I0
sg52
I0
sg13
I0
sg140
I0
sg114
I0
sg21
I0
sg19
I0
sg124
I0
sg78
I0
sg39
I0
sg84
I0
sg119
I0
sg120
I0
sg97
I0
sg122
I0
sg117
I0
sg90
I0
sg144
I0
sg17
I0
sg25
I0
sg66
I0
sg31
I0
sg88
I0
sg115
I0
sg56
I0
sg47
I0
sg86
I0
sg104
I0
sg70
I0
sg85
I0
sg69
I0
sg139
I0
sg16
I0
sg30
I0
sg15
I0
sg129
I0
sg45
I0
sg34
I0
sg49
I0
sg18
I0
sg64
I0
sg57
I18
sg51
I0
sg58
I0
sg109
I0
sg77
I0
sg61
I0
sg43
I0
sg76
I0
sg148
I0
sg48
I0
ssg47
(dp985
g143
I0
sg11
I0
sg14
I0
sg33
I0
sg108
I0
sg42
I0
sg126
I0
sg127
I0
sg110
I0
sg111
I0
sg133
I0
sg145
I0
sg12
I0
sg132
I0
sg147
I0
sg125
I0
sg99
I0
sg150
I0
sg106
I0
sg22
I0
sg98
I0
sg36
I0
sg35
I0
sg102
I0
sg62
I0
sg93
I0
sg27
I0
sg20
I0
sg107
I0
sg105
I0
sg138
I0
sg65
I0
sg63
I0
sg142
I0
sg128
I0
sg151
I0
sg113
I0
sg103
I0
sg50
I0
sg74
I0
sg141
I0
sg44
I0
sg137
I0
sg40
I0
sg41
I0
sg121
I0
sg23
I0
sg87
I0
sg72
I0
sg71
I0
sg100
I0
sg29
I0
sg28
I0
sg134
I0
sg116
I0
sg91
I0
sg53
I0
sg101
I0
sg95
I0
sg146
I0
sg131
I0
sg112
I0
sg8
I0
sg118
I0
sg9
I0
sg83
I0
sg75
I0
sg92
I0
sg79
I0
sg80
I0
sg32
I0
sg68
I0
sg67
I0
sg94
I0
sg89
I0
sg37
I0
sg135
I0
sg46
I0
sg149
I0
sg38
I0
sg81
I0
sg24
I0
sg130
I0
sg123
I0
sg10
I0
sg82
I0
sg136
I0
sg60
I0
sg59
I0
sg73
I0
sg54
I0
sg26
I0
sg55
I0
sg96
I0
sg52
I0
sg13
I0
sg140
I0
sg114
I0
sg21
I0
sg19
I0
sg124
I0
sg78
I0
sg39
I0
sg84
I0
sg119
I0
sg120
I0
sg97
I0
sg122
I0
sg117
I0
sg90
I0
sg144
I0
sg17
I0
sg25
I0
sg66
I0
sg31
I0
sg88
I0
sg115
I0
sg56
I0
sg47
I18
sg86
I0
sg104
I0
sg70
I0
sg85
I0
sg69
I0
sg139
I0
sg16
I0
sg30
I0
sg15
I0
sg129
I0
sg45
I0
sg34
I0
sg49
I0
sg18
I0
sg64
I0
sg57
I0
sg51
I0
sg58
I0
sg109
I0
sg77
I0
sg61
I0
sg43
I0
sg76
I0
sg148
I0
sg48
I0
ssg86
(dp986
g143
I0
sg11
I0
sg14
I0
sg33
I0
sg108
I0
sg42
I0
sg126
I0
sg127
I0
sg110
I0
sg111
I0
sg133
I0
sg12
I0
sg132
I0
sg125
I0
sg99
I0
sg106
I0
sg22
I0
sg98
I0
sg36
I0
sg35
I0
sg102
I0
sg62
I0
sg93
I0
sg27
I0
sg20
I0
sg107
I0
sg105
I0
sg138
I0
sg65
I0
sg63
I0
sg128
I0
sg113
I0
sg103
I0
sg50
I0
sg74
I0
sg141
I0
sg44
I0
sg137
I0
sg40
I0
sg41
I0
sg121
I0
sg23
I0
sg87
I0
sg72
I0
sg71
I0
sg100
I0
sg29
I0
sg28
I0
sg134
I0
sg116
I0
sg91
I0
sg53
I0
sg101
I0
sg95
I0
sg131
I0
sg112
I0
sg8
I0
sg118
I0
sg9
I0
sg83
I0
sg75
I0
sg92
I0
sg79
I0
sg80
I0
sg32
I0
sg68
I0
sg67
I0
sg94
I0
sg89
I0
sg37
I0
sg135
I0
sg46
I0
sg38
I0
sg81
I0
sg24
I0
sg130
I0
sg123
I0
sg10
I0
sg82
I0
sg136
I0
sg60
I0
sg59
I0
sg73
I0
sg54
I0
sg26
I0
sg55
I0
sg96
I0
sg52
I0
sg13
I0
sg140
I0
sg114
I0
sg21
I0
sg19
I0
sg124
I0
sg78
I0
sg39
I0
sg84
I0
sg119
I0
sg120
I0
sg97
I0
sg122
I0
sg117
I0
sg90
I0
sg17
I0
sg25
I0
sg66
I0
sg31
I0
sg88
I0
sg115
I0
sg56
I0
sg47
I0
sg86
I0
sg104
I0
sg70
I0
sg85
I0
sg69
I0
sg139
I0
sg16
I0
sg30
I0
sg15
I0
sg129
I0
sg45
I0
sg34
I0
sg49
I0
sg18
I0
sg64
I0
sg57
I0
sg51
I0
sg58
I0
sg109
I0
sg77
I0
sg61
I0
sg43
I0
sg76
I0
sg48
I0
ssg104
(dp987
g11
I0
sg14
I0
sg33
I0
sg108
I0
sg42
I0
sg126
I0
sg127
I0
sg110
I0
sg111
I0
sg133
I0
sg12
I0
sg132
I0
sg125
I0
sg99
I0
sg106
I0
sg22
I0
sg98
I0
sg36
I0
sg35
I0
sg102
I0
sg62
I0
sg93
I0
sg27
I0
sg20
I0
sg107
I0
sg105
I0
sg138
I0
sg65
I0
sg63
I0
sg128
I0
sg113
I0
sg103
I0
sg50
I0
sg74
I0
sg141
I0
sg44
I0
sg137
I0
sg40
I0
sg41
I0
sg121
I0
sg23
I0
sg87
I0
sg72
I0
sg71
I0
sg100
I0
sg29
I0
sg28
I0
sg134
I0
sg116
I0
sg91
I0
sg53
I0
sg101
I0
sg95
I0
sg131
I0
sg112
I0
sg8
I0
sg118
I0
sg9
I0
sg83
I0
sg75
I0
sg92
I0
sg79
I0
sg80
I0
sg32
I0
sg68
I0
sg67
I0
sg94
I0
sg89
I0
sg37
I0
sg135
I0
sg46
I0
sg38
I0
sg81
I0
sg24
I0
sg130
I0
sg123
I0
sg10
I0
sg82
I0
sg136
I0
sg60
I0
sg59
I0
sg73
I0
sg54
I0
sg26
I0
sg55
I0
sg104
I0
sg52
I0
sg13
I0
sg140
I0
sg114
I0
sg21
I0
sg19
I0
sg124
I0
sg78
I0
sg39
I0
sg84
I0
sg119
I0
sg120
I0
sg97
I0
sg122
I0
sg117
I0
sg90
I0
sg17
I0
sg25
I0
sg66
I0
sg31
I0
sg88
I0
sg115
I0
sg56
I0
sg47
I0
sg86
I0
sg96
I0
sg70
I0
sg85
I0
sg69
I0
sg139
I0
sg16
I0
sg30
I0
sg15
I0
sg129
I0
sg45
I0
sg34
I0
sg49
I0
sg18
I0
sg64
I0
sg57
I0
sg51
I0
sg58
I0
sg109
I0
sg77
I0
sg61
I0
sg43
I0
sg76
I0
sg48
I0
ssg70
(dp988
g143
I0
sg11
I0
sg14
I0
sg33
I0
sg354
I0
sg42
I0
sg622
I0
sg623
I0
sg357
I0
sg358
I0
sg359
I0
sg12
I0
sg360
I0
sg624
I0
sg99
I0
sg363
I0
sg22
I0
sg98
I0
sg36
I0
sg35
I0
sg102
I0
sg62
I0
sg93
I0
sg27
I0
sg20
I0
sg364
I0
sg105
I0
sg365
I0
sg65
I0
sg63
I0
sg142
I0
sg366
I0
sg367
I0
sg103
I0
sg50
I0
sg74
I0
sg141
I0
sg44
I0
sg368
I0
sg40
I0
sg41
I0
sg625
I0
sg23
I0
sg87
I0
sg72
I0
sg71
I0
sg100
I0
sg29
I0
sg28
I0
sg370
I0
sg371
I0
sg91
I0
sg53
I0
sg101
I0
sg95
I0
sg373
I0
sg374
I0
sg8
I0
sg375
I0
sg9
I0
sg83
I0
sg75
I0
sg92
I0
sg79
I0
sg80
I0
sg32
I0
sg68
I0
sg67
I0
sg94
I0
sg89
I0
sg37
I0
sg376
I0
sg46
I0
sg38
I0
sg81
I0
sg24
I0
sg377
I0
sg626
I0
sg10
I0
sg82
I0
sg379
I0
sg60
I0
sg59
I0
sg73
I0
sg54
I0
sg26
I0
sg55
I0
sg96
I0
sg52
I0
sg13
I0
sg140
I0
sg380
I0
sg21
I0
sg19
I0
sg627
I0
sg78
I0
sg39
I0
sg84
I0
sg628
I0
sg629
I0
sg97
I0
sg630
I0
sg385
I0
sg90
I0
sg17
I0
sg25
I0
sg66
I0
sg31
I0
sg88
I0
sg386
I0
sg56
I0
sg47
I0
sg86
I0
sg104
I0
sg70
I0
sg85
I0
sg69
I0
sg387
I0
sg16
I0
sg30
I0
sg15
I0
sg388
I0
sg45
I0
sg34
I0
sg49
I0
sg18
I0
sg64
I0
sg57
I0
sg51
I0
sg58
I0
sg389
I0
sg77
I0
sg61
I0
sg43
I0
sg76
I0
sg48
I0
ssg85
(dp989
g143
I0
sg11
I0
sg14
I0
sg33
I0
sg108
I0
sg42
I0
sg126
I0
sg127
I0
sg110
I0
sg111
I0
sg133
I0
sg12
I0
sg132
I0
sg125
I0
sg99
I0
sg106
I0
sg22
I0
sg98
I0
sg36
I0
sg35
I0
sg102
I0
sg62
I0
sg93
I0
sg27
I0
sg20
I0
sg107
I0
sg105
I0
sg138
I0
sg65
I0
sg63
I0
sg128
I0
sg113
I0
sg103
I0
sg50
I0
sg74
I0
sg141
I0
sg44
I0
sg137
I0
sg40
I0
sg41
I0
sg121
I0
sg23
I0
sg87
I0
sg72
I0
sg71
I0
sg100
I0
sg29
I0
sg28
I0
sg134
I0
sg116
I0
sg91
I0
sg53
I0
sg101
I0
sg95
I0
sg131
I0
sg112
I0
sg8
I0
sg118
I0
sg9
I0
sg83
I0
sg75
I0
sg92
I0
sg79
I0
sg80
I0
sg32
I0
sg68
I0
sg67
I0
sg94
I0
sg89
I0
sg37
I0
sg135
I0
sg46
I0
sg38
I0
sg81
I0
sg24
I0
sg130
I0
sg123
I0
sg10
I0
sg82
I0
sg136
I0
sg60
I0
sg59
I0
sg73
I0
sg54
I0
sg26
I0
sg55
I0
sg96
I0
sg52
I0
sg13
I0
sg140
I0
sg114
I0
sg21
I0
sg19
I0
sg124
I0
sg78
I0
sg39
I0
sg84
I0
sg119
I0
sg120
I0
sg97
I0
sg122
I0
sg117
I0
sg90
I0
sg17
I0
sg25
I0
sg66
I0
sg31
I0
sg88
I0
sg115
I0
sg56
I0
sg47
I0
sg86
I6
sg104
I0
sg70
I0
sg85
I0
sg69
I0
sg139
I0
sg16
I0
sg30
I0
sg15
I0
sg129
I0
sg45
I0
sg34
I0
sg49
I0
sg18
I0
sg64
I0
sg57
I0
sg51
I0
sg58
I0
sg109
I0
sg77
I0
sg61
I0
sg43
I0
sg76
I0
sg48
I0
ssg69
(dp990
g143
I0
sg11
I0
sg14
I0
sg33
I0
sg354
I0
sg42
I0
sg622
I0
sg623
I0
sg357
I0
sg358
I0
sg359
I0
sg12
I0
sg360
I0
sg624
I0
sg99
I0
sg363
I0
sg22
I0
sg98
I0
sg36
I0
sg35
I0
sg102
I0
sg62
I0
sg93
I0
sg27
I0
sg20
I0
sg364
I0
sg105
I0
sg365
I0
sg65
I0
sg63
I0
sg142
I0
sg366
I0
sg367
I0
sg103
I0
sg50
I0
sg74
I0
sg141
I0
sg44
I0
sg368
I0
sg40
I0
sg41
I0
sg625
I0
sg23
I0
sg87
I0
sg72
I0
sg71
I0
sg100
I0
sg29
I0
sg28
I0
sg370
I0
sg371
I0
sg91
I0
sg53
I0
sg101
I0
sg95
I0
sg373
I0
sg374
I0
sg8
I0
sg375
I0
sg9
I0
sg83
I0
sg75
I0
sg92
I0
sg79
I0
sg80
I0
sg32
I0
sg68
I0
sg67
I0
sg94
I0
sg89
I0
sg37
I0
sg376
I0
sg46
I0
sg38
I0
sg81
I0
sg24
I0
sg377
I0
sg626
I0
sg10
I0
sg82
I0
sg379
I0
sg60
I0
sg59
I0
sg73
I0
sg54
I0
sg26
I0
sg55
I0
sg96
I0
sg52
I0
sg13
I0
sg140
I0
sg380
I0
sg21
I0
sg19
I0
sg627
I0
sg78
I0
sg39
I0
sg84
I0
sg628
I0
sg629
I0
sg97
I0
sg630
I0
sg385
I0
sg90
I0
sg17
I0
sg25
I0
sg66
I0
sg31
I0
sg88
I0
sg386
I0
sg56
I0
sg47
I0
sg86
I0
sg104
I0
sg70
I6
sg85
I0
sg69
I0
sg387
I0
sg16
I0
sg30
I0
sg15
I0
sg388
I0
sg45
I0
sg34
I0
sg49
I0
sg18
I0
sg64
I0
sg57
I0
sg51
I0
sg58
I0
sg389
I0
sg77
I0
sg61
I0
sg43
I0
sg76
I0
sg48
I0
ssg139
(dp991
g143
I0
sg255
I0
sg256
I0
sg257
I0
sg391
I0
sg108
I0
sg414
I0
sg126
I0
sg127
I0
sg110
I0
sg111
I0
sg133
I0
sg145
I0
sg392
I0
sg132
I0
sg147
I0
sg125
I0
sg261
I0
sg150
I0
sg106
I0
sg438
I0
sg263
I0
sg113
I0
sg264
I0
sg265
I0
sg266
I0
sg394
I0
sg395
I0
sg269
I0
sg107
I0
sg270
I0
sg439
I0
sg440
I0
sg142
I0
sg273
I0
sg151
I0
sg274
I0
sg398
I0
sg124
I0
sg114
I0
sg250
I0
sg276
I0
sg277
I0
sg278
I0
sg121
I0
sg399
I0
sg280
I0
sg281
I0
sg282
I0
sg284
I0
sg138
I0
sg134
I0
sg116
I0
sg285
I0
sg286
I0
sg287
I0
sg288
I0
sg146
I0
sg131
I0
sg112
I0
sg441
I0
sg401
I0
sg118
I0
sg402
I0
sg292
I0
sg442
I0
sg294
I0
sg295
I0
sg296
I0
sg404
I0
sg194
I0
sg443
I0
sg300
I0
sg301
I0
sg406
I0
sg135
I0
sg407
I0
sg149
I0
sg304
I0
sg305
I0
sg137
I0
sg130
I0
sg123
I0
sg307
I0
sg306
I0
sg136
I0
sg444
I0
sg445
I0
sg310
I0
sg311
I0
sg410
I0
sg411
I0
sg314
I0
sg412
I0
sg413
I0
sg251
I0
sg415
I0
sg128
I0
sg416
I0
sg319
I0
sg320
I0
sg321
I0
sg119
I0
sg120
I0
sg322
I0
sg122
I0
sg417
I0
sg324
I0
sg222
I0
sg144
I0
sg325
I0
sg418
I0
sg446
I0
sg328
I0
sg330
I0
sg115
I0
sg331
I0
sg332
I0
sg333
I0
sg334
I0
sg447
I0
sg336
I0
sg448
I0
sg139
I0
sg338
I6
sg339
I0
sg340
I0
sg129
I0
sg341
I0
sg342
I0
sg343
I0
sg344
I0
sg449
I0
sg346
I0
sg117
I0
sg450
I0
sg109
I0
sg348
I0
sg451
I0
sg426
I0
sg351
I0
sg148
I0
sg427
I0
ssg16
(dp992
g143
I0
sg11
I0
sg14
I0
sg33
I0
sg108
I0
sg42
I0
sg126
I0
sg127
I0
sg110
I0
sg111
I0
sg133
I0
sg145
I0
sg12
I0
sg132
I0
sg147
I0
sg125
I0
sg99
I0
sg150
I0
sg106
I0
sg22
I0
sg98
I0
sg36
I0
sg35
I0
sg102
I0
sg62
I0
sg93
I0
sg27
I0
sg20
I0
sg107
I0
sg105
I0
sg138
I0
sg65
I0
sg63
I0
sg142
I0
sg128
I0
sg151
I0
sg113
I0
sg103
I0
sg50
I0
sg74
I0
sg141
I0
sg44
I0
sg137
I0
sg40
I0
sg41
I0
sg121
I0
sg23
I0
sg87
I0
sg72
I0
sg71
I0
sg100
I0
sg29
I0
sg28
I0
sg134
I0
sg116
I0
sg91
I0
sg53
I0
sg101
I0
sg95
I0
sg146
I0
sg131
I0
sg112
I0
sg8
I0
sg118
I0
sg9
I0
sg83
I0
sg75
I0
sg92
I0
sg79
I0
sg80
I0
sg32
I0
sg68
I0
sg67
I0
sg94
I0
sg89
I0
sg37
I0
sg135
I0
sg46
I0
sg149
I0
sg38
I0
sg81
I0
sg24
I0
sg130
I0
sg123
I0
sg10
I0
sg82
I0
sg136
I0
sg60
I0
sg59
I0
sg73
I0
sg54
I0
sg26
I0
sg55
I0
sg96
I0
sg52
I0
sg13
I0
sg140
I0
sg114
I0
sg21
I0
sg19
I0
sg124
I0
sg78
I0
sg39
I0
sg84
I0
sg119
I0
sg120
I0
sg97
I0
sg122
I0
sg117
I0
sg90
I0
sg144
I0
sg17
I0
sg25
I0
sg66
I0
sg31
I0
sg88
I0
sg115
I0
sg56
I0
sg47
I0
sg86
I0
sg104
I0
sg70
I0
sg85
I0
sg69
I0
sg139
I0
sg16
I0
sg30
I0
sg15
I0
sg129
I0
sg45
I0
sg34
I0
sg49
I0
sg18
I0
sg64
I0
sg57
I0
sg51
I0
sg58
I0
sg109
I0
sg77
I0
sg61
I0
sg43
I0
sg76
I0
sg148
I0
sg48
I0
ssg30
(dp993
g143
I0
sg11
I0
sg14
I0
sg33
I0
sg638
I0
sg42
I0
sg355
I0
sg356
I0
sg639
I0
sg640
I0
sg359
I0
sg145
I0
sg12
I0
sg360
I0
sg147
I0
sg362
I0
sg99
I0
sg641
I0
sg22
I0
sg98
I0
sg36
I0
sg35
I0
sg102
I0
sg62
I0
sg93
I0
sg27
I0
sg20
I0
sg642
I0
sg105
I0
sg365
I0
sg65
I0
sg63
I0
sg142
I0
sg366
I0
sg151
I0
sg643
I0
sg103
I0
sg50
I0
sg74
I0
sg141
I0
sg44
I0
sg368
I0
sg40
I0
sg41
I0
sg369
I0
sg23
I0
sg87
I0
sg72
I0
sg71
I0
sg100
I0
sg29
I0
sg28
I0
sg370
I0
sg476
I0
sg91
I0
sg53
I0
sg101
I0
sg95
I0
sg146
I0
sg373
I0
sg644
I0
sg8
I0
sg514
I0
sg9
I0
sg83
I0
sg75
I0
sg92
I0
sg79
I0
sg80
I0
sg32
I0
sg68
I0
sg67
I0
sg94
I0
sg89
I0
sg37
I0
sg376
I0
sg46
I0
sg38
I0
sg81
I0
sg24
I0
sg377
I0
sg378
I0
sg10
I0
sg82
I0
sg379
I0
sg60
I0
sg59
I0
sg73
I0
sg54
I0
sg26
I0
sg55
I0
sg96
I0
sg52
I0
sg13
I0
sg251
I0
sg462
I0
sg21
I0
sg19
I0
sg381
I0
sg78
I0
sg39
I0
sg84
I0
sg382
I0
sg383
I0
sg97
I0
sg384
I0
sg527
I0
sg90
I0
sg144
I0
sg17
I0
sg25
I0
sg66
I0
sg31
I0
sg88
I0
sg469
I0
sg56
I0
sg47
I0
sg86
I0
sg104
I0
sg70
I0
sg85
I0
sg69
I0
sg387
I0
sg16
I0
sg30
I6
sg15
I0
sg388
I0
sg45
I0
sg34
I0
sg49
I0
sg18
I0
sg64
I0
sg57
I0
sg51
I0
sg58
I0
sg645
I0
sg77
I0
sg61
I0
sg43
I0
sg76
I0
sg148
I0
sg48
I0
ssg15
(dp994
g143
I0
sg11
I0
sg14
I0
sg33
I0
sg108
I0
sg42
I0
sg126
I0
sg127
I0
sg110
I0
sg111
I0
sg133
I0
sg145
I0
sg12
I0
sg132
I0
sg147
I0
sg125
I0
sg99
I0
sg150
I0
sg106
I0
sg22
I0
sg98
I0
sg36
I0
sg35
I0
sg102
I0
sg62
I0
sg93
I0
sg27
I0
sg20
I0
sg107
I0
sg105
I0
sg138
I0
sg65
I0
sg63
I0
sg142
I0
sg128
I0
sg151
I0
sg113
I0
sg103
I0
sg50
I0
sg74
I0
sg141
I0
sg44
I0
sg137
I0
sg40
I0
sg41
I0
sg121
I0
sg23
I0
sg87
I0
sg72
I0
sg71
I0
sg100
I0
sg29
I0
sg28
I0
sg134
I0
sg116
I0
sg91
I0
sg53
I0
sg101
I0
sg95
I0
sg146
I0
sg131
I0
sg112
I0
sg8
I0
sg118
I0
sg9
I0
sg83
I0
sg75
I0
sg92
I0
sg79
I0
sg80
I0
sg32
I0
sg68
I0
sg67
I0
sg94
I0
sg89
I0
sg37
I0
sg135
I0
sg46
I0
sg149
I0
sg38
I0
sg81
I0
sg24
I0
sg130
I0
sg123
I0
sg10
I0
sg82
I0
sg136
I0
sg60
I0
sg59
I0
sg73
I0
sg54
I0
sg26
I0
sg55
I0
sg96
I0
sg52
I0
sg13
I0
sg140
I0
sg114
I0
sg21
I0
sg19
I0
sg124
I0
sg78
I0
sg39
I0
sg84
I0
sg119
I0
sg120
I0
sg97
I0
sg122
I0
sg117
I0
sg90
I0
sg144
I0
sg17
I0
sg25
I0
sg66
I0
sg31
I0
sg88
I0
sg115
I0
sg56
I0
sg47
I0
sg86
I0
sg104
I0
sg70
I0
sg85
I0
sg69
I0
sg139
I0
sg16
I24
sg30
I0
sg15
I0
sg129
I0
sg45
I0
sg34
I0
sg49
I0
sg18
I0
sg64
I0
sg57
I0
sg51
I0
sg58
I0
sg109
I0
sg77
I0
sg61
I0
sg43
I0
sg76
I0
sg148
I0
sg48
I0
ssg129
(dp995
g143
I0
sg255
I0
sg256
I0
sg257
I0
sg391
I0
sg108
I0
sg414
I0
sg126
I0
sg127
I0
sg110
I0
sg111
I0
sg133
I0
sg145
I0
sg392
I0
sg132
I0
sg147
I0
sg125
I0
sg261
I0
sg150
I0
sg106
I0
sg438
I0
sg263
I0
sg113
I0
sg264
I0
sg265
I0
sg266
I0
sg394
I0
sg395
I0
sg269
I0
sg107
I0
sg270
I0
sg439
I0
sg440
I0
sg142
I0
sg273
I0
sg151
I0
sg274
I0
sg398
I0
sg124
I0
sg114
I0
sg250
I0
sg276
I0
sg277
I0
sg278
I0
sg121
I0
sg399
I0
sg280
I0
sg281
I0
sg282
I0
sg284
I0
sg138
I0
sg134
I0
sg116
I0
sg285
I0
sg286
I0
sg287
I0
sg288
I0
sg146
I0
sg131
I0
sg112
I0
sg441
I0
sg401
I0
sg118
I0
sg402
I0
sg292
I0
sg442
I0
sg294
I0
sg295
I0
sg296
I0
sg404
I0
sg194
I0
sg443
I0
sg300
I0
sg301
I0
sg406
I0
sg135
I0
sg407
I0
sg149
I0
sg304
I0
sg305
I0
sg306
I0
sg130
I0
sg123
I0
sg307
I0
sg137
I0
sg136
I0
sg444
I0
sg445
I0
sg310
I0
sg311
I0
sg410
I0
sg411
I0
sg314
I0
sg412
I0
sg413
I0
sg251
I0
sg415
I0
sg128
I0
sg416
I0
sg319
I0
sg320
I0
sg321
I0
sg119
I0
sg120
I0
sg322
I0
sg122
I0
sg417
I0
sg324
I0
sg222
I0
sg144
I0
sg325
I0
sg418
I0
sg446
I0
sg328
I0
sg330
I0
sg115
I0
sg331
I0
sg332
I0
sg333
I0
sg334
I0
sg447
I0
sg336
I0
sg448
I0
sg139
I0
sg338
I0
sg339
I0
sg340
I0
sg129
I6
sg341
I0
sg342
I0
sg343
I0
sg344
I0
sg449
I0
sg346
I0
sg117
I0
sg450
I0
sg109
I0
sg348
I0
sg451
I0
sg426
I0
sg351
I0
sg148
I0
sg427
I0
ssg45
(dp996
g143
I0
sg11
I0
sg14
I0
sg33
I0
sg108
I0
sg42
I0
sg126
I0
sg127
I0
sg110
I0
sg111
I0
sg133
I0
sg145
I0
sg12
I0
sg132
I0
sg147
I0
sg125
I0
sg99
I0
sg150
I0
sg106
I0
sg22
I0
sg98
I0
sg36
I0
sg35
I0
sg102
I0
sg62
I0
sg93
I0
sg27
I0
sg20
I0
sg107
I0
sg105
I0
sg138
I0
sg65
I0
sg63
I0
sg142
I0
sg128
I0
sg151
I0
sg113
I0
sg103
I0
sg50
I0
sg74
I0
sg141
I0
sg44
I0
sg137
I0
sg40
I0
sg41
I0
sg121
I0
sg23
I0
sg87
I0
sg72
I0
sg71
I0
sg100
I0
sg29
I0
sg28
I0
sg134
I0
sg116
I0
sg91
I0
sg53
I0
sg101
I0
sg95
I0
sg146
I0
sg131
I0
sg112
I0
sg8
I0
sg118
I0
sg9
I0
sg83
I0
sg75
I0
sg92
I0
sg79
I0
sg80
I0
sg32
I0
sg68
I0
sg67
I0
sg94
I0
sg89
I0
sg37
I0
sg135
I0
sg46
I0
sg149
I0
sg38
I0
sg81
I0
sg24
I0
sg130
I0
sg123
I0
sg10
I0
sg82
I0
sg136
I0
sg60
I0
sg59
I0
sg73
I0
sg54
I0
sg26
I0
sg55
I0
sg96
I0
sg52
I0
sg13
I0
sg140
I0
sg114
I0
sg21
I0
sg19
I0
sg124
I0
sg78
I0
sg39
I0
sg84
I0
sg119
I0
sg120
I0
sg97
I0
sg122
I0
sg117
I0
sg90
I0
sg144
I0
sg17
I0
sg25
I0
sg66
I0
sg31
I0
sg88
I0
sg115
I0
sg56
I0
sg47
I0
sg86
I0
sg104
I0
sg70
I0
sg85
I0
sg69
I0
sg139
I0
sg16
I0
sg30
I0
sg15
I0
sg129
I0
sg45
I0
sg34
I0
sg49
I0
sg18
I0
sg64
I0
sg57
I0
sg51
I0
sg58
I0
sg109
I0
sg77
I0
sg61
I0
sg43
I0
sg76
I0
sg148
I0
sg48
I0
ssg34
(dp997
g143
I0
sg11
I0
sg14
I0
sg33
I0
sg108
I0
sg42
I0
sg126
I0
sg127
I0
sg110
I0
sg111
I0
sg133
I0
sg12
I0
sg132
I0
sg361
I0
sg125
I0
sg99
I0
sg150
I0
sg106
I0
sg22
I0
sg98
I0
sg36
I0
sg35
I0
sg102
I0
sg62
I0
sg93
I0
sg27
I0
sg20
I0
sg107
I0
sg105
I0
sg138
I0
sg65
I0
sg63
I0
sg142
I0
sg128
I0
sg151
I0
sg113
I0
sg103
I0
sg50
I0
sg74
I0
sg141
I0
sg44
I0
sg137
I0
sg40
I0
sg41
I0
sg121
I0
sg23
I0
sg87
I0
sg72
I0
sg71
I0
sg100
I0
sg29
I0
sg28
I0
sg134
I0
sg116
I0
sg91
I0
sg53
I0
sg101
I0
sg95
I0
sg432
I0
sg131
I0
sg112
I0
sg8
I0
sg118
I0
sg9
I0
sg83
I0
sg75
I0
sg92
I0
sg79
I0
sg80
I0
sg32
I0
sg68
I0
sg67
I0
sg94
I0
sg89
I0
sg37
I0
sg135
I0
sg46
I0
sg149
I0
sg38
I0
sg81
I0
sg24
I0
sg130
I0
sg123
I0
sg10
I0
sg82
I0
sg136
I0
sg60
I0
sg59
I0
sg73
I0
sg54
I0
sg26
I0
sg55
I0
sg96
I0
sg52
I0
sg13
I0
sg140
I0
sg114
I0
sg21
I0
sg19
I0
sg124
I0
sg78
I0
sg39
I0
sg84
I0
sg119
I0
sg120
I0
sg97
I0
sg122
I0
sg117
I0
sg90
I0
sg17
I0
sg25
I0
sg66
I0
sg31
I0
sg88
I0
sg115
I0
sg56
I0
sg47
I0
sg86
I0
sg104
I0
sg70
I0
sg85
I0
sg69
I0
sg139
I0
sg16
I0
sg30
I0
sg15
I0
sg129
I0
sg45
I0
sg34
I0
sg49
I0
sg18
I0
sg64
I0
sg57
I0
sg51
I0
sg58
I0
sg109
I0
sg77
I0
sg61
I0
sg43
I0
sg76
I0
sg48
I0
ssg49
(dp998
g143
I0
sg11
I0
sg14
I0
sg33
I0
sg108
I0
sg42
I0
sg126
I0
sg127
I0
sg110
I0
sg111
I0
sg133
I0
sg145
I0
sg12
I0
sg132
I0
sg147
I0
sg125
I0
sg99
I0
sg150
I0
sg106
I0
sg22
I0
sg98
I0
sg36
I0
sg35
I0
sg102
I0
sg62
I0
sg93
I0
sg27
I0
sg20
I0
sg107
I0
sg105
I0
sg138
I0
sg65
I0
sg63
I0
sg142
I0
sg128
I0
sg151
I0
sg113
I0
sg103
I0
sg50
I0
sg74
I0
sg141
I0
sg44
I0
sg137
I0
sg40
I0
sg41
I0
sg121
I0
sg23
I0
sg87
I0
sg72
I0
sg71
I0
sg100
I0
sg29
I0
sg28
I0
sg134
I0
sg116
I0
sg91
I0
sg53
I0
sg101
I0
sg95
I0
sg146
I0
sg131
I0
sg112
I0
sg8
I0
sg118
I0
sg9
I0
sg83
I0
sg75
I0
sg92
I0
sg79
I0
sg80
I0
sg32
I0
sg68
I0
sg67
I0
sg94
I0
sg89
I0
sg37
I0
sg135
I0
sg46
I0
sg149
I0
sg38
I0
sg81
I0
sg24
I0
sg130
I0
sg123
I0
sg10
I0
sg82
I0
sg136
I0
sg60
I0
sg59
I0
sg73
I0
sg54
I0
sg26
I0
sg55
I0
sg96
I0
sg52
I0
sg13
I0
sg251
I0
sg114
I0
sg21
I0
sg19
I0
sg124
I0
sg78
I0
sg39
I0
sg84
I0
sg119
I0
sg120
I0
sg97
I0
sg122
I0
sg117
I0
sg90
I0
sg144
I0
sg17
I0
sg25
I0
sg66
I0
sg31
I0
sg88
I0
sg115
I0
sg56
I0
sg47
I0
sg86
I0
sg104
I0
sg70
I0
sg85
I0
sg69
I0
sg139
I0
sg16
I0
sg30
I0
sg15
I0
sg129
I0
sg45
I0
sg34
I0
sg49
I0
sg18
I0
sg64
I0
sg57
I0
sg51
I0
sg58
I0
sg109
I0
sg77
I0
sg61
I0
sg43
I0
sg76
I0
sg148
I0
sg48
I0
ssg18
(dp999
g143
I0
sg11
I0
sg14
I0
sg33
I0
sg108
I0
sg42
I0
sg126
I0
sg127
I0
sg110
I0
sg111
I0
sg133
I0
sg145
I0
sg12
I0
sg132
I0
sg147
I0
sg125
I0
sg99
I0
sg150
I0
sg106
I0
sg22
I0
sg98
I0
sg36
I0
sg35
I0
sg102
I0
sg62
I0
sg93
I0
sg27
I0
sg20
I0
sg107
I0
sg105
I0
sg138
I0
sg65
I0
sg63
I0
sg142
I0
sg128
I0
sg151
I0
sg113
I0
sg103
I0
sg50
I0
sg74
I0
sg141
I4
sg44
I0
sg137
I0
sg40
I0
sg41
I0
sg121
I0
sg23
I0
sg87
I0
sg72
I0
sg71
I0
sg100
I0
sg29
I0
sg28
I0
sg134
I0
sg116
I0
sg91
I0
sg53
I0
sg101
I0
sg95
I0
sg146
I0
sg131
I0
sg112
I0
sg8
I0
sg118
I0
sg9
I0
sg83
I0
sg75
I0
sg92
I0
sg79
I0
sg80
I0
sg32
I0
sg68
I0
sg67
I0
sg94
I0
sg89
I0
sg37
I0
sg135
I0
sg46
I0
sg149
I0
sg38
I0
sg81
I0
sg24
I0
sg130
I0
sg123
I0
sg10
I0
sg82
I0
sg136
I0
sg60
I0
sg59
I0
sg73
I0
sg54
I0
sg26
I0
sg55
I0
sg96
I0
sg52
I0
sg13
I0
sg140
I0
sg114
I0
sg21
I0
sg19
I25
sg124
I0
sg78
I7
sg39
I0
sg84
I0
sg119
I0
sg120
I0
sg97
I0
sg122
I0
sg117
I0
sg90
I0
sg144
I0
sg17
I0
sg25
I0
sg66
I0
sg31
I0
sg88
I0
sg115
I0
sg56
I0
sg47
I0
sg86
I0
sg104
I0
sg70
I0
sg85
I0
sg69
I0
sg139
I0
sg16
I0
sg30
I0
sg15
I0
sg129
I0
sg45
I0
sg34
I0
sg49
I0
sg18
I0
sg64
I0
sg57
I0
sg51
I0
sg58
I0
sg109
I0
sg77
I0
sg61
I0
sg43
I0
sg76
I0
sg148
I0
sg48
I0
ssg64
(dp1000
g143
I0
sg11
I0
sg14
I0
sg33
I0
sg354
I0
sg42
I0
sg622
I0
sg623
I0
sg357
I0
sg358
I0
sg359
I0
sg12
I0
sg360
I0
sg624
I0
sg99
I0
sg363
I0
sg22
I0
sg98
I0
sg36
I0
sg35
I0
sg102
I0
sg62
I0
sg93
I0
sg27
I0
sg20
I0
sg364
I0
sg105
I0
sg365
I0
sg65
I0
sg63
I0
sg142
I0
sg366
I0
sg367
I0
sg103
I0
sg50
I0
sg74
I0
sg141
I0
sg44
I0
sg368
I0
sg40
I0
sg41
I0
sg625
I0
sg23
I0
sg87
I0
sg72
I0
sg71
I0
sg100
I0
sg29
I0
sg28
I0
sg370
I0
sg371
I0
sg91
I0
sg53
I0
sg101
I0
sg95
I0
sg373
I0
sg374
I0
sg8
I0
sg375
I0
sg9
I0
sg83
I0
sg75
I0
sg92
I0
sg79
I0
sg80
I0
sg32
I0
sg68
I0
sg67
I0
sg94
I0
sg89
I0
sg37
I0
sg376
I0
sg46
I0
sg38
I0
sg81
I0
sg24
I0
sg377
I0
sg626
I0
sg10
I0
sg82
I0
sg379
I0
sg60
I0
sg59
I0
sg73
I0
sg54
I0
sg26
I0
sg55
I0
sg96
I0
sg52
I0
sg13
I0
sg140
I0
sg380
I0
sg21
I0
sg19
I0
sg627
I0
sg78
I0
sg39
I0
sg84
I0
sg628
I0
sg629
I0
sg97
I0
sg630
I0
sg385
I0
sg90
I0
sg17
I0
sg25
I0
sg66
I0
sg31
I0
sg88
I0
sg386
I0
sg56
I0
sg47
I0
sg86
I0
sg104
I0
sg70
I0
sg85
I0
sg69
I0
sg387
I0
sg16
I0
sg30
I0
sg15
I0
sg388
I0
sg45
I0
sg34
I0
sg49
I0
sg18
I0
sg64
I0
sg57
I0
sg51
I0
sg58
I0
sg389
I0
sg77
I0
sg61
I0
sg43
I0
sg76
I0
sg48
I0
ssg57
(dp1001
g143
I0
sg11
I0
sg139
I0
sg14
I0
sg33
I0
sg108
I0
sg42
I0
sg126
I0
sg127
I0
sg110
I0
sg111
I0
sg133
I0
sg145
I0
sg12
I0
sg132
I0
sg147
I0
sg125
I0
sg99
I0
sg150
I0
sg106
I0
sg22
I0
sg98
I0
sg36
I0
sg35
I0
sg102
I0
sg62
I0
sg93
I0
sg27
I0
sg20
I0
sg107
I0
sg105
I0
sg138
I0
sg65
I0
sg63
I0
sg142
I0
sg128
I0
sg151
I0
sg113
I0
sg103
I0
sg50
I0
sg74
I0
sg141
I0
sg44
I0
sg137
I0
sg40
I0
sg41
I0
sg121
I0
sg23
I0
sg87
I0
sg72
I0
sg71
I0
sg100
I0
sg29
I0
sg28
I0
sg134
I0
sg116
I0
sg91
I0
sg53
I0
sg101
I0
sg95
I0
sg146
I0
sg131
I0
sg112
I0
sg8
I0
sg118
I0
sg9
I0
sg83
I0
sg75
I0
sg92
I0
sg79
I0
sg80
I0
sg32
I0
sg68
I0
sg67
I0
sg94
I0
sg89
I0
sg37
I0
sg135
I0
sg46
I0
sg149
I0
sg38
I0
sg81
I0
sg24
I0
sg130
I0
sg123
I0
sg10
I0
sg82
I0
sg136
I0
sg60
I0
sg59
I0
sg73
I0
sg54
I0
sg26
I0
sg55
I0
sg96
I0
sg52
I0
sg13
I0
sg140
I0
sg114
I0
sg21
I0
sg19
I0
sg124
I0
sg78
I0
sg39
I0
sg84
I0
sg119
I0
sg120
I0
sg97
I0
sg122
I0
sg117
I0
sg90
I0
sg144
I0
sg17
I0
sg25
I0
sg66
I0
sg31
I0
sg88
I0
sg115
I0
sg56
I0
sg57
I0
sg86
I0
sg104
I0
sg70
I0
sg85
I0
sg69
I0
sg47
I0
sg16
I0
sg30
I0
sg15
I0
sg129
I0
sg45
I0
sg34
I0
sg49
I0
sg18
I0
sg64
I0
sg51
I0
sg58
I0
sg109
I0
sg77
I0
sg61
I0
sg43
I0
sg76
I0
sg148
I0
sg48
I0
ssg51
(dp1002
g143
I0
sg11
I0
sg14
I0
sg33
I0
sg354
I0
sg42
I0
sg355
I0
sg356
I0
sg357
I0
sg358
I0
sg359
I0
sg12
I0
sg360
I0
sg361
I0
sg362
I0
sg99
I0
sg363
I0
sg22
I0
sg98
I0
sg36
I0
sg35
I0
sg102
I0
sg62
I0
sg93
I0
sg27
I0
sg20
I0
sg364
I0
sg105
I0
sg365
I0
sg65
I0
sg63
I0
sg142
I0
sg366
I0
sg151
I0
sg367
I0
sg103
I0
sg50
I0
sg74
I0
sg141
I0
sg44
I0
sg368
I0
sg40
I0
sg41
I0
sg369
I0
sg23
I0
sg87
I0
sg72
I0
sg71
I0
sg100
I0
sg29
I0
sg28
I0
sg370
I0
sg371
I0
sg91
I0
sg53
I0
sg101
I0
sg95
I0
sg372
I0
sg373
I0
sg374
I0
sg8
I0
sg375
I0
sg9
I0
sg83
I0
sg75
I0
sg92
I0
sg79
I0
sg80
I0
sg32
I0
sg68
I0
sg67
I0
sg94
I0
sg89
I0
sg37
I0
sg376
I0
sg46
I0
sg38
I0
sg81
I0
sg24
I0
sg377
I0
sg378
I0
sg10
I0
sg82
I0
sg379
I0
sg60
I0
sg59
I0
sg73
I0
sg54
I0
sg26
I0
sg55
I0
sg96
I0
sg52
I0
sg13
I0
sg251
I0
sg380
I0
sg21
I0
sg19
I0
sg381
I0
sg78
I0
sg39
I0
sg84
I0
sg382
I0
sg383
I0
sg97
I0
sg384
I0
sg385
I0
sg90
I0
sg17
I0
sg25
I0
sg66
I0
sg31
I0
sg88
I0
sg386
I0
sg56
I0
sg47
I0
sg86
I0
sg104
I0
sg70
I0
sg85
I0
sg69
I0
sg387
I0
sg16
I0
sg30
I0
sg15
I0
sg388
I0
sg45
I0
sg34
I0
sg49
I0
sg18
I0
sg64
I0
sg57
I0
sg51
I6
sg58
I0
sg389
I0
sg77
I0
sg61
I0
sg43
I0
sg76
I0
sg48
I0
ssg58
(dp1003
g143
I0
sg11
I0
sg14
I0
sg33
I0
sg354
I0
sg42
I0
sg622
I0
sg623
I0
sg357
I0
sg358
I0
sg359
I0
sg12
I0
sg360
I0
sg624
I0
sg99
I0
sg363
I0
sg22
I0
sg98
I0
sg36
I0
sg35
I0
sg102
I0
sg62
I0
sg93
I0
sg27
I0
sg20
I0
sg364
I0
sg105
I0
sg365
I0
sg65
I0
sg63
I0
sg142
I0
sg366
I0
sg367
I0
sg103
I0
sg50
I0
sg74
I0
sg141
I0
sg44
I0
sg368
I0
sg40
I0
sg41
I0
sg625
I0
sg23
I0
sg87
I0
sg72
I0
sg71
I0
sg100
I0
sg29
I0
sg28
I0
sg370
I0
sg371
I0
sg91
I0
sg53
I0
sg101
I0
sg95
I0
sg373
I0
sg374
I0
sg8
I0
sg375
I0
sg9
I0
sg83
I0
sg75
I0
sg92
I0
sg79
I0
sg80
I0
sg32
I0
sg68
I0
sg67
I0
sg94
I0
sg89
I0
sg37
I0
sg376
I0
sg46
I0
sg38
I0
sg81
I0
sg24
I0
sg377
I0
sg626
I0
sg10
I0
sg82
I0
sg379
I0
sg60
I0
sg59
I0
sg73
I0
sg54
I0
sg26
I0
sg55
I0
sg96
I0
sg52
I0
sg13
I0
sg140
I0
sg380
I0
sg21
I0
sg19
I0
sg627
I0
sg78
I0
sg39
I0
sg84
I0
sg628
I0
sg629
I0
sg97
I0
sg630
I0
sg385
I0
sg90
I0
sg17
I0
sg25
I0
sg66
I0
sg31
I0
sg88
I0
sg386
I0
sg56
I0
sg47
I0
sg86
I0
sg104
I0
sg70
I0
sg85
I0
sg69
I0
sg387
I0
sg16
I0
sg30
I0
sg15
I0
sg388
I0
sg45
I0
sg34
I0
sg49
I0
sg18
I0
sg64
I0
sg57
I0
sg51
I0
sg58
I0
sg389
I0
sg77
I0
sg61
I0
sg43
I0
sg76
I0
sg48
I0
ssg109
(dp1004
g255
I0
sg256
I0
sg257
I0
sg258
I0
sg108
I0
sg259
I0
sg126
I0
sg127
I0
sg110
I0
sg111
I0
sg133
I0
sg431
I0
sg132
I0
sg125
I0
sg261
I0
sg150
I0
sg106
I0
sg262
I0
sg263
I0
sg113
I0
sg264
I0
sg265
I0
sg266
I0
sg267
I0
sg268
I0
sg269
I0
sg107
I0
sg270
I0
sg271
I0
sg272
I0
sg273
I0
sg274
I0
sg275
I0
sg124
I0
sg114
I0
sg141
I0
sg276
I0
sg277
I0
sg278
I0
sg121
I0
sg279
I0
sg280
I0
sg281
I0
sg282
I0
sg283
I0
sg284
I0
sg138
I0
sg134
I0
sg116
I0
sg285
I0
sg286
I0
sg287
I0
sg288
I0
sg432
I0
sg131
I0
sg112
I0
sg289
I0
sg433
I0
sg118
I0
sg434
I0
sg292
I0
sg293
I0
sg294
I0
sg295
I0
sg296
I0
sg297
I0
sg298
I0
sg299
I0
sg300
I0
sg301
I0
sg302
I0
sg135
I0
sg303
I0
sg149
I0
sg304
I0
sg305
I0
sg306
I0
sg130
I0
sg123
I0
sg307
I0
sg137
I0
sg136
I0
sg308
I0
sg309
I0
sg310
I0
sg311
I0
sg312
I0
sg313
I0
sg314
I0
sg315
I0
sg435
I0
sg140
I0
sg436
I0
sg128
I0
sg318
I0
sg319
I0
sg320
I0
sg321
I0
sg119
I0
sg120
I0
sg322
I0
sg122
I0
sg323
I0
sg324
I0
sg325
I0
sg326
I0
sg327
I0
sg328
I0
sg329
I0
sg330
I0
sg115
I0
sg331
I0
sg332
I0
sg333
I0
sg334
I0
sg335
I0
sg336
I0
sg337
I0
sg139
I0
sg338
I0
sg339
I0
sg340
I0
sg129
I0
sg341
I0
sg342
I0
sg343
I0
sg344
I0
sg345
I0
sg346
I0
sg117
I0
sg347
I0
sg109
I0
sg348
I0
sg349
I0
sg350
I0
sg351
I0
sg352
I0
ssg77
(dp1005
g143
I0
sg11
I0
sg14
I0
sg33
I0
sg108
I0
sg42
I0
sg126
I0
sg127
I0
sg110
I0
sg111
I0
sg133
I0
sg12
I0
sg132
I0
sg125
I0
sg99
I0
sg106
I0
sg22
I0
sg98
I0
sg36
I0
sg35
I0
sg102
I0
sg62
I0
sg93
I0
sg27
I0
sg20
I0
sg107
I0
sg105
I0
sg138
I0
sg65
I0
sg63
I0
sg128
I0
sg113
I0
sg103
I0
sg50
I0
sg74
I0
sg141
I0
sg44
I0
sg137
I0
sg40
I0
sg41
I0
sg121
I0
sg23
I0
sg87
I0
sg72
I0
sg71
I0
sg100
I0
sg29
I0
sg28
I0
sg134
I0
sg116
I0
sg91
I0
sg53
I0
sg101
I0
sg95
I0
sg131
I0
sg112
I0
sg8
I0
sg118
I0
sg9
I0
sg83
I0
sg75
I0
sg92
I0
sg79
I0
sg80
I0
sg32
I0
sg68
I0
sg67
I0
sg94
I0
sg89
I0
sg37
I0
sg135
I0
sg46
I0
sg38
I0
sg81
I0
sg24
I0
sg130
I0
sg123
I0
sg10
I0
sg82
I0
sg136
I0
sg60
I0
sg59
I0
sg73
I0
sg54
I0
sg26
I0
sg55
I0
sg96
I0
sg52
I0
sg13
I0
sg140
I0
sg114
I0
sg21
I0
sg19
I0
sg124
I0
sg78
I0
sg39
I0
sg84
I0
sg119
I0
sg120
I0
sg97
I0
sg122
I0
sg117
I0
sg90
I0
sg17
I0
sg25
I0
sg66
I0
sg31
I0
sg88
I0
sg115
I0
sg77
I0
sg47
I0
sg86
I0
sg104
I0
sg70
I0
sg85
I0
sg69
I0
sg139
I0
sg16
I0
sg30
I0
sg15
I0
sg129
I0
sg45
I0
sg34
I0
sg49
I0
sg18
I0
sg64
I0
sg57
I0
sg51
I0
sg58
I0
sg109
I0
sg56
I0
sg61
I0
sg43
I0
sg76
I0
sg48
I0
ssg61
(dp1006
g143
I0
sg11
I0
sg14
I0
sg33
I0
sg354
I0
sg42
I0
sg622
I0
sg623
I0
sg357
I0
sg358
I0
sg359
I0
sg12
I0
sg360
I0
sg624
I0
sg99
I0
sg363
I0
sg22
I0
sg98
I0
sg36
I0
sg35
I0
sg102
I0
sg62
I0
sg93
I0
sg27
I0
sg20
I0
sg364
I0
sg105
I0
sg365
I0
sg65
I0
sg63
I0
sg142
I0
sg366
I0
sg367
I0
sg103
I0
sg50
I0
sg74
I0
sg141
I0
sg44
I0
sg368
I0
sg40
I0
sg41
I0
sg625
I0
sg23
I0
sg87
I0
sg72
I0
sg71
I0
sg100
I0
sg29
I0
sg28
I0
sg370
I0
sg371
I0
sg91
I0
sg53
I0
sg101
I0
sg95
I0
sg373
I0
sg374
I0
sg8
I0
sg375
I0
sg9
I0
sg83
I0
sg75
I0
sg92
I0
sg79
I0
sg80
I0
sg32
I0
sg68
I0
sg67
I0
sg94
I0
sg89
I0
sg37
I0
sg376
I0
sg46
I0
sg38
I0
sg81
I0
sg24
I0
sg377
I0
sg626
I0
sg10
I0
sg82
I0
sg379
I0
sg60
I0
sg59
I0
sg73
I0
sg54
I0
sg26
I0
sg55
I0
sg96
I0
sg52
I0
sg13
I0
sg140
I0
sg380
I0
sg21
I0
sg19
I0
sg627
I0
sg78
I0
sg39
I0
sg84
I0
sg628
I0
sg629
I0
sg97
I0
sg630
I0
sg385
I0
sg90
I0
sg17
I0
sg25
I0
sg66
I0
sg31
I0
sg88
I0
sg386
I0
sg56
I0
sg47
I0
sg86
I0
sg104
I0
sg70
I0
sg85
I0
sg69
I0
sg387
I0
sg16
I0
sg30
I0
sg15
I0
sg388
I0
sg45
I0
sg34
I0
sg49
I0
sg18
I0
sg64
I0
sg57
I0
sg51
I0
sg58
I0
sg389
I0
sg77
I0
sg61
I6
sg43
I0
sg76
I0
sg48
I0
ssg43
(dp1007
g143
I0
sg11
I0
sg14
I0
sg33
I0
sg354
I0
sg42
I0
sg355
I0
sg356
I0
sg357
I0
sg358
I0
sg359
I0
sg12
I0
sg360
I0
sg361
I0
sg362
I0
sg99
I0
sg363
I0
sg22
I0
sg98
I0
sg36
I0
sg35
I0
sg102
I0
sg62
I0
sg93
I0
sg27
I0
sg20
I0
sg364
I0
sg105
I0
sg365
I0
sg65
I0
sg63
I0
sg142
I0
sg366
I0
sg151
I0
sg367
I0
sg103
I0
sg50
I0
sg74
I0
sg141
I0
sg44
I0
sg368
I0
sg40
I0
sg41
I0
sg369
I0
sg23
I0
sg87
I0
sg72
I0
sg71
I0
sg100
I0
sg29
I0
sg28
I0
sg370
I0
sg371
I0
sg91
I0
sg53
I0
sg101
I0
sg95
I0
sg372
I0
sg373
I0
sg374
I0
sg8
I0
sg375
I0
sg9
I0
sg83
I0
sg75
I0
sg92
I0
sg79
I0
sg80
I0
sg32
I0
sg68
I0
sg67
I0
sg94
I0
sg89
I0
sg37
I0
sg376
I0
sg46
I0
sg38
I0
sg81
I0
sg24
I0
sg377
I0
sg378
I0
sg10
I0
sg82
I0
sg379
I0
sg60
I0
sg59
I0
sg73
I0
sg54
I0
sg26
I0
sg55
I0
sg96
I0
sg52
I0
sg13
I0
sg251
I0
sg380
I0
sg21
I0
sg19
I0
sg381
I0
sg78
I0
sg39
I0
sg84
I0
sg382
I0
sg383
I0
sg97
I0
sg384
I0
sg385
I0
sg90
I0
sg17
I0
sg25
I0
sg66
I0
sg31
I0
sg88
I0
sg386
I0
sg56
I0
sg47
I0
sg86
I0
sg104
I0
sg70
I0
sg85
I0
sg69
I0
sg387
I0
sg16
I0
sg30
I0
sg15
I0
sg388
I0
sg45
I0
sg34
I0
sg49
I0
sg18
I0
sg64
I0
sg57
I0
sg51
I0
sg58
I0
sg389
I0
sg77
I0
sg61
I0
sg43
I6
sg76
I0
sg48
I0
ssg76
(dp1008
g143
I0
sg11
I0
sg139
I0
sg14
I0
sg33
I0
sg108
I0
sg42
I0
sg126
I0
sg127
I0
sg110
I0
sg111
I0
sg133
I0
sg12
I0
sg132
I0
sg125
I0
sg99
I0
sg106
I0
sg22
I0
sg98
I0
sg36
I0
sg35
I0
sg102
I0
sg62
I0
sg93
I0
sg27
I0
sg20
I0
sg107
I0
sg105
I0
sg138
I0
sg65
I0
sg63
I0
sg128
I0
sg113
I0
sg103
I0
sg50
I0
sg74
I0
sg141
I0
sg44
I0
sg137
I0
sg40
I0
sg41
I0
sg121
I0
sg23
I0
sg87
I0
sg72
I0
sg71
I0
sg100
I0
sg29
I0
sg28
I0
sg134
I0
sg116
I0
sg91
I0
sg53
I0
sg101
I0
sg95
I0
sg131
I0
sg112
I0
sg8
I0
sg118
I0
sg9
I0
sg83
I0
sg75
I0
sg92
I0
sg79
I0
sg80
I0
sg32
I0
sg68
I0
sg67
I0
sg94
I0
sg89
I0
sg37
I0
sg135
I0
sg46
I0
sg38
I0
sg81
I0
sg24
I0
sg130
I0
sg123
I0
sg10
I0
sg82
I0
sg136
I0
sg60
I0
sg59
I0
sg73
I0
sg54
I0
sg26
I0
sg55
I0
sg96
I0
sg52
I0
sg13
I0
sg140
I0
sg114
I0
sg21
I0
sg19
I0
sg124
I0
sg78
I0
sg39
I0
sg84
I0
sg119
I0
sg120
I0
sg97
I0
sg122
I0
sg117
I0
sg90
I0
sg17
I0
sg25
I0
sg66
I0
sg31
I0
sg88
I0
sg115
I0
sg56
I0
sg76
I0
sg86
I0
sg104
I0
sg70
I0
sg85
I0
sg69
I0
sg47
I0
sg16
I0
sg30
I0
sg15
I0
sg129
I0
sg45
I0
sg34
I0
sg49
I0
sg18
I0
sg64
I0
sg51
I0
sg58
I0
sg109
I0
sg77
I6
sg61
I0
sg43
I0
sg57
I0
sg48
I0
ssg148
(dp1009
g453
I0
sg454
I0
sg455
I0
sg456
I0
sg457
I0
sg291
I0
sg458
I0
sg459
I0
sg460
I0
sg461
I0
sg462
I0
sg250
I0
sg463
I0
sg464
I0
sg465
I0
sg466
I0
sg467
I0
sg468
I0
sg469
I0
sg470
I0
sg471
I0
sg472
I0
sg473
I0
sg474
I0
sg475
I0
sg476
I0
sg477
I0
sg478
I0
sg479
I0
sg480
I0
sg481
I0
sg482
I0
sg483
I0
sg484
I0
sg144
I0
sg485
I0
sg486
I0
sg487
I0
sg488
I0
sg489
I0
sg490
I0
sg491
I0
sg492
I0
sg493
I0
sg494
I0
sg495
I0
sg145
I0
sg260
I0
sg496
I0
sg147
I0
sg497
I0
sg498
I0
sg316
I0
sg499
I0
sg500
I0
sg501
I0
sg502
I0
sg503
I0
sg504
I0
sg146
I0
sg317
I0
sg505
I0
sg506
I0
sg507
I0
sg508
I0
sg509
I0
sg510
I0
sg511
I0
sg512
I0
sg290
I0
sg513
I0
sg514
I0
sg515
I0
sg522
I0
sg516
I0
sg517
I0
sg518
I0
sg519
I0
sg520
I0
sg521
I0
sg148
I0
sg523
I0
ssg48
(dp1010
g143
I0
sg11
I0
sg14
I0
sg33
I0
sg354
I0
sg42
I0
sg355
I0
sg356
I0
sg357
I0
sg358
I0
sg359
I0
sg12
I0
sg360
I0
sg361
I0
sg362
I0
sg99
I0
sg363
I0
sg22
I0
sg98
I0
sg36
I0
sg35
I0
sg102
I0
sg62
I0
sg93
I0
sg27
I0
sg20
I0
sg364
I0
sg105
I0
sg365
I0
sg65
I0
sg63
I0
sg142
I0
sg366
I0
sg151
I0
sg367
I0
sg103
I0
sg50
I0
sg74
I0
sg141
I0
sg44
I0
sg368
I0
sg40
I0
sg41
I0
sg369
I0
sg23
I0
sg87
I0
sg72
I0
sg71
I0
sg100
I0
sg29
I0
sg28
I0
sg370
I0
sg371
I0
sg91
I0
sg53
I0
sg101
I0
sg95
I0
sg372
I0
sg373
I0
sg374
I0
sg8
I0
sg375
I0
sg9
I0
sg83
I0
sg75
I0
sg92
I0
sg79
I0
sg80
I0
sg32
I0
sg68
I0
sg67
I0
sg94
I0
sg89
I0
sg37
I0
sg376
I0
sg46
I0
sg38
I0
sg81
I0
sg24
I0
sg377
I0
sg378
I0
sg10
I0
sg82
I0
sg379
I0
sg60
I0
sg59
I0
sg73
I0
sg54
I0
sg26
I0
sg55
I0
sg96
I0
sg52
I0
sg13
I0
sg251
I0
sg380
I0
sg21
I0
sg19
I0
sg381
I0
sg78
I0
sg39
I0
sg84
I0
sg382
I0
sg383
I0
sg97
I0
sg384
I0
sg385
I0
sg90
I0
sg17
I0
sg25
I0
sg66
I0
sg31
I0
sg88
I0
sg386
I0
sg56
I0
sg47
I0
sg86
I0
sg104
I0
sg70
I0
sg85
I0
sg69
I0
sg387
I0
sg16
I0
sg30
I0
sg15
I0
sg388
I0
sg45
I0
sg34
I0
sg49
I6
sg18
I0
sg64
I0
sg57
I0
sg51
I0
sg58
I0
sg389
I0
sg77
I0
sg61
I0
sg43
I0
sg76
I0
sg48
I0
sssb.