ccopy_reg
_reconstructor
p0
(cutils.eval
ConfusionMatrix
p1
c__builtin__
object
p2
Ntp3
Rp4
(dp5
S'labels'
p6
(lp7
S'add.v.01'
p8
aS'lend.v.01'
p9
aS'burner.n.02'
p10
aS'burner.n.01'
p11
aS'pan.n.01'
p12
aS'pan.n.02'
p13
aS'butter.n.01'
p14
aS'vanilla.n.02'
p15
aS'vanilla.n.03'
p16
aS'cheese.n.01'
p17
aS'slice.v.03'
p18
aS'pot.n.01'
p19
aS'fill.v.01'
p20
aS'water.n.06'
p21
aS'serve.v.05'
p22
aS'serve.v.11'
p23
aS'cut.v.01'
p24
aS'edit.v.03'
p25
aS'piece.n.08'
p26
aS'slice.n.06'
p27
aS'jar.n.01'
p28
aS'gravy.n.01'
p29
aS'gravy.n.02'
p30
aS'water_system.n.02'
p31
aS'rice.n.01'
p32
aS'pour.v.01'
p33
aS'concoction.n.01'
p34
aS'mix.n.03'
p35
aS'put.v.01'
p36
aS'put.v.02'
p37
aS'blend.v.01'
p38
aS'bowl.n.01'
p39
aS'bowl.n.08'
p40
aS'bottle.n.01'
p41
aS'fruit_juice.n.01'
p42
aS'walnut.n.01'
p43
aS'walnut.n.02'
p44
aS'get.v.01'
p45
aS'make.v.02'
p46
aS'pear.n.01'
p47
aS'pear.n.02'
p48
aS'blend.v.03'
p49
aS'mix.v.05'
p50
aS'egg.n.02'
p51
aS'egg.n.01'
p52
aS'dough.n.01'
p53
aS'boodle.n.01'
p54
aS'mix.v.04'
p55
aS'ice.n.01'
p56
aS'ice.n.05'
p57
aS'fork.n.01'
p58
aS'branching.n.01'
p59
aS'bread.n.01'
p60
aS'mug.n.04'
p61
aS'opening.n.01'
p62
aS'gap.n.03'
p63
aS'fill.v.09'
p64
aS'batter.n.02'
p65
aS'knife.n.01'
p66
aS'tongue.n.03'
p67
aS'banana.n.02'
p68
aS'glass.n.02'
p69
aS'milk.n.01'
p70
aS'strawberry.n.01'
p71
aS'lodge.v.02'
p72
aS'stick.v.08'
p73
aS'pizza.n.01'
p74
aS'measuring_cup.n.01'
p75
aS'meal.n.03'
p76
aS'mixing_bowl.n.01'
p77
aS'sugar.n.01'
p78
aS'avocado.n.01'
p79
aS'thermos.n.01'
p80
aS'coffee.n.01'
p81
aS'pepper.n.03'
p82
aS'salt.n.02'
p83
aS'salt.n.04'
p84
aS'cut.v.32'
p85
aS'squash.n.02'
p86
aS'squash.n.01'
p87
aS'liquid.n.01'
p88
aS'sink.n.01'
p89
aS'cesspool.n.01'
p90
aS'chicken.n.01'
p91
aS'chicken.n.02'
p92
aS'corn.n.02'
p93
aS'corn_whiskey.n.01'
p94
aS'chop.v.01'
p95
aS'chop.v.05'
p96
aS'opening.n.10'
p97
aS'curd.n.01'
p98
asS'instanceCount'
p99
I96
sS'matrix'
p100
(dp101
g39
(dp102
S'bowl.n.01'
p103
I1
sg40
I3
ssg40
(dp104
g40
I0
ssg24
(dp105
g25
I2
sg85
I1
ssg68
(dp106
S'banana.n.02'
p107
I1
ssg75
(dp108
S'measuring_cup.n.01'
p109
I1
ssg29
(dp110
g30
I1
ssg30
(dp111
g30
I0
ssg44
(dp112
g44
I0
ssg58
(dp113
g59
I1
ssg43
(dp114
g44
I1
ssg23
(dp115
g23
I0
ssg62
(dp116
g97
I1
sg63
I1
ssg37
(dp117
g37
I0
ssg36
(dp118
g37
I2
ssg33
(dp119
S'pour.v.01'
p120
I2
ssg67
(dp121
g67
I0
ssg28
(dp122
S'jar.n.01'
p123
I2
ssg91
(dp124
g92
I1
ssg89
(dp125
g90
I1
ssg92
(dp126
g92
I0
ssg27
(dp127
g27
I0
ssg21
(dp128
g31
I1
sS'water.n.06'
p129
I1
ssg22
(dp130
g23
I1
ssg97
(dp131
g97
I0
ssg8
(dp132
g9
I5
ssg12
(dp133
S'pan.n.01'
p134
I1
sg13
I1
ssg13
(dp135
g13
I0
ssg63
(dp136
g63
I0
ssg16
(dp137
g16
I0
ssg15
(dp138
g16
I2
ssg18
(dp139
S'slice.v.03'
p140
I2
ssg53
(dp141
g54
I1
ssg45
(dp142
g46
I1
ssg82
(dp143
S'pepper.n.03'
p144
I1
ssg42
(dp145
S'fruit_juice.n.01'
p146
I1
ssg56
(dp147
g57
I1
ssg57
(dp148
g57
I0
ssg35
(dp149
g35
I0
ssg98
(dp150
S'curd.n.01'
p151
I1
ssg76
(dp152
S'meal.n.03'
p153
I1
ssg71
(dp154
S'strawberry.n.01'
p155
I1
ssg93
(dp156
g94
I1
ssg72
(dp157
g73
I1
ssg46
(dp158
g46
I0
ssg77
(dp159
S'mixing_bowl.n.01'
p160
I1
ssg73
(dp161
g73
I0
ssg64
(dp162
S'fill.v.01'
p163
I2
ssg41
(dp164
S'bottle.n.01'
p165
I1
ssg19
(dp166
S'pot.n.01'
p167
I1
ssg20
(dp168
S'fill.v.01'
p169
I9
ssg48
(dp170
g48
I0
ssg47
(dp171
g48
I1
ssg87
(dp172
g87
I0
ssg86
(dp173
g87
I1
ssg34
(dp174
S'concoction.n.01'
p175
I1
sg35
I1
ssg83
(dp176
g84
I1
ssg66
(dp177
g67
I1
ssg84
(dp178
g84
I0
ssg81
(dp179
S'coffee.n.01'
p180
I1
ssg59
(dp181
g59
I0
ssg94
(dp182
g94
I0
ssg61
(dp183
S'mug.n.04'
p184
I1
ssg31
(dp185
g31
I0
ssg79
(dp186
S'avocado.n.01'
p187
I1
ssg74
(dp188
S'pizza.n.01'
p189
I1
ssg10
(dp190
g11
I1
ssg11
(dp191
g11
I0
ssg17
(dp192
S'cheese.n.01'
p193
I1
ssg32
(dp194
S'rice.n.01'
p195
I1
ssg60
(dp196
S'bread.n.01'
p197
I1
ssg65
(dp198
S'batter.n.02'
p199
I1
ssg70
(dp200
S'milk.n.01'
p201
I1
ssg51
(dp202
g52
I3
ssg14
(dp203
S'butter.n.01'
p204
I3
ssg96
(dp205
g96
I0
ssg95
(dp206
g96
I1
ssg55
(dp207
S'mix.v.05'
p208
I1
ssg50
(dp209
g50
I0
ssg69
(dp210
S'glass.n.02'
p211
I1
ssg49
(dp212
g50
I4
ssg38
(dp213
S'blend.v.01'
p214
I1
ssg9
(dp215
g9
I0
ssg25
(dp216
g25
I0
ssg54
(dp217
g54
I0
ssg26
(dp218
g27
I3
ssg90
(dp219
g90
I0
ssg80
(dp220
S'thermos.n.01'
p221
I1
ssg85
(dp222
g85
I0
ssg88
(dp223
S'liquid.n.01'
p224
I1
ssg52
(dp225
g52
I0
ssg78
(dp226
S'boodle.n.01'
p227
I1
sssb.