ccopy_reg
_reconstructor
p0
(cutils.eval
ConfusionMatrix
p1
c__builtin__
object
p2
Ntp3
Rp4
(dp5
S'labels'
p6
(lp7
S'fill.v.01'
p8
aS'measuring_cup.n.01'
p9
aS'meal.n.03'
p10
aS'add.v.01'
p11
aS'lend.v.01'
p12
aS'mixing_bowl.n.01'
p13
aS'butter.n.01'
p14
aS'sugar.n.01'
p15
aS'boodle.n.01'
p16
aS'blend.v.03'
p17
aS'mix.v.05'
p18
aS'avocado.n.01'
p19
aS'thermos.n.01'
p20
aS'coffee.n.01'
p21
aS'pepper.n.03'
p22
aS'salt.n.02'
p23
aS'salt.n.04'
p24
aS'egg.n.02'
p25
aS'egg.n.01'
p26
aS'cut.v.01'
p27
aS'cut.v.32'
p28
aS'squash.n.02'
p29
aS'squash.n.01'
p30
aS'liquid.n.01'
p31
aS'pour.v.01'
p32
aS'sink.n.01'
p33
aS'cesspool.n.01'
p34
aS'chicken.n.01'
p35
aS'wimp.n.01'
p36
aS'corn.n.02'
p37
aS'corn.n.03'
p38
aS'chop.v.01'
p39
aS'chop.v.05'
p40
aS'vanilla.n.02'
p41
aS'vanilla.n.03'
p42
aS'concoction.n.01'
p43
aS'opening.n.01'
p44
aS'opening.n.10'
p45
aS'fill.v.09'
p46
aS'curd.n.01'
p47
aS'tomato.n.01'
p48
aS'tomato.n.02'
p49
aS'piece.n.08'
p50
aS'slice.n.04'
p51
aS'onion.n.03'
p52
aS'onion.n.02'
p53
aS'mustard.n.02'
p54
aS'pitcher.n.02'
p55
aS'milk.n.01'
p56
aS'bread.n.01'
p57
aS'pan.n.01'
p58
aS'mix.n.03'
p59
aS'cut.n.16'
p60
aS'edit.v.03'
p61
aS'bag.n.01'
p62
aS'bag.n.04'
p63
aS'cup.n.01'
p64
aS'cola.n.02'
p65
aS'carve.v.03'
p66
aS'hack.v.07'
p67
aS'pepper.n.04'
p68
aS'onion.n.01'
p69
aS'put.v.01'
p70
aS'put.v.02'
p71
aS'sauce.n.01'
p72
aS'beef.n.02'
p73
aS'gripe.n.01'
p74
aS'plate.n.04'
p75
aS'plate.n.13'
p76
aS'flesh.n.01'
p77
aS'human_body.n.01'
p78
aS'slice.v.03'
p79
aS'rum.n.01'
p80
aS'shaker.n.03'
p81
aS'take.v.04'
p82
aS'assume.v.03'
p83
aS'decant.v.01'
p84
aS'whiskey.n.01'
p85
aS'carafe.n.01'
p86
aS'cover.v.01'
p87
aS'cover.v.16'
p88
aS'rib.n.03'
p89
aS'rib.n.01'
p90
aS'teapot.n.01'
p91
aS'water.n.06'
p92
aS'pan.n.03'
p93
aS'slice.n.06'
p94
aS'pizza.n.01'
p95
aS'apple.n.01'
p96
aS'saltcellar.n.01'
p97
aS'wok.n.01'
p98
aS'rice.n.01'
p99
aS'kettle.n.01'
p100
asS'instanceCount'
p101
I91
sS'matrix'
p102
(dp103
g27
(dp104
g28
I1
ssg87
(dp105
g88
I1
ssg9
(dp106
S'measuring_cup.n.01'
p107
I1
ssg89
(dp108
g90
I1
ssg90
(dp109
g90
I0
ssg78
(dp110
g78
I0
ssg85
(dp111
S'whiskey.n.01'
p112
I1
ssg44
(dp113
g45
I1
ssg77
(dp114
g78
I1
ssg92
(dp115
S'water.n.06'
p116
I3
ssg70
(dp117
g71
I2
ssg81
(dp118
S'shaker.n.03'
p119
I1
ssg32
(dp120
S'pour.v.01'
p121
I2
ssg86
(dp122
S'carafe.n.01'
p123
I1
ssg84
(dp124
S'pour.v.01'
p125
I1
ssg35
(dp126
g36
I1
ssg33
(dp127
g34
I1
ssg71
(dp128
g71
I0
ssg19
(dp129
S'avocado.n.01'
p130
I1
ssg45
(dp131
g45
I0
ssg11
(dp132
g12
I5
ssg58
(dp133
S'pan.n.01'
p134
I1
sg93
I1
ssg93
(dp135
g93
I0
ssg64
(dp136
S'cup.n.01'
p137
I1
ssg42
(dp138
g42
I0
ssg41
(dp139
g42
I1
ssg79
(dp140
S'slice.v.03'
p141
I2
ssg98
(dp142
S'wok.n.01'
p143
I1
ssg68
(dp144
S'pepper.n.03'
p145
I1
ssg22
(dp146
S'pepper.n.03'
p147
I1
ssg80
(dp148
S'rum.n.01'
p149
I1
ssg74
(dp150
g74
I0
ssg91
(dp151
S'teapot.n.01'
p152
I1
ssg100
(dp153
S'kettle.n.01'
p154
I1
ssg59
(dp155
S'mix.n.03'
p156
I1
ssg47
(dp157
S'curd.n.01'
p158
I1
ssg69
(dp159
S'onion.n.01'
p160
I1
sS'onion.n.03'
p161
I1
ssg52
(dp162
g53
I1
ssg53
(dp163
g53
I0
ssg38
(dp164
g38
I0
ssg37
(dp165
g38
I1
ssg73
(dp166
g74
I1
ssg66
(dp167
g67
I1
ssg13
(dp168
S'mixing_bowl.n.01'
p169
I1
ssg82
(dp170
g83
I1
ssg54
(dp171
S'mustard.n.02'
p172
I1
ssg46
(dp173
S'fill.v.01'
p174
I1
ssg8
(dp175
S'fill.v.01'
p176
I11
ssg55
(dp177
S'pitcher.n.02'
p178
I1
ssg30
(dp179
g30
I0
ssg29
(dp180
g30
I1
ssg43
(dp181
S'concoction.n.01'
p182
I1
ssg67
(dp183
g67
I0
ssg24
(dp184
g24
I0
ssg83
(dp185
g83
I0
ssg21
(dp186
S'coffee.n.01'
p187
I1
ssg96
(dp188
S'apple.n.01'
p189
I1
ssg94
(dp190
g94
I0
ssg51
(dp191
g51
I0
ssg95
(dp192
S'pizza.n.01'
p193
I1
ssg60
(dp194
g61
I1
ssg76
(dp195
g76
I0
ssg99
(dp196
S'rice.n.01'
p197
I1
ssg23
(dp198
S'salt.n.02'
p199
I1
sg24
I1
ssg57
(dp200
S'bread.n.01'
p201
I1
ssg36
(dp202
g36
I0
ssg56
(dp203
S'milk.n.01'
p204
I1
ssg65
(dp205
S'cola.n.02'
p206
I1
ssg97
(dp207
S'saltcellar.n.01'
p208
I1
ssg25
(dp209
g26
I2
ssg14
(dp210
S'butter.n.01'
p211
I1
ssg63
(dp212
g63
I0
ssg75
(dp213
g76
I1
ssg40
(dp214
g40
I0
ssg62
(dp215
g63
I1
ssg39
(dp216
g40
I1
ssg18
(dp217
g18
I0
ssg72
(dp218
S'sauce.n.01'
p219
I1
ssg17
(dp220
g18
I2
ssg12
(dp221
g12
I0
ssg61
(dp222
g61
I0
ssg16
(dp223
g16
I0
ssg50
(dp224
g94
I2
sg51
I1
ssg34
(dp225
g34
I0
ssg26
(dp226
g26
I0
ssg20
(dp227
S'thermos.n.01'
p228
I1
ssg28
(dp229
g28
I0
ssg88
(dp230
g88
I0
ssg49
(dp231
g49
I0
ssg31
(dp232
S'liquid.n.01'
p233
I1
ssg10
(dp234
S'meal.n.03'
p235
I1
ssg48
(dp236
g49
I1
ssg15
(dp237
g16
I1
sssb.