ccopy_reg
_reconstructor
p0
(cutils.eval
ConfusionMatrix
p1
c__builtin__
object
p2
Ntp3
Rp4
(dp5
S'labels'
p6
(lp7
S'flesh.n.01'
p8
aS'slice.v.03'
p9
aS'slice.v.02'
p10
aS'cut.v.01'
p11
aS'swerve.v.01'
p12
aS'bacon.n.01'
p13
aS'bacon.n.03'
p14
aS'piece.n.08'
p15
aS'slice.n.01'
p16
aS'pizza.n.01'
p17
aS'bread.n.01'
p18
aS'knife.n.01'
p19
aS'fill.v.01'
p20
aS'fill.v.09'
p21
aS'pitcher.n.02'
p22
aS'pitcher.n.03'
p23
aS'milk.n.01'
p24
aS'milk.n.04'
p25
aS'pan.n.01'
p26
aS'water.n.06'
p27
aS'water.n.03'
p28
aS'cheese.n.01'
p29
aS'put.v.01'
p30
aS'invest.v.01'
p31
aS'cake.n.03'
p32
aS'patty.n.01'
p33
aS'whipped_cream.n.01'
p34
aS'pan.n.03'
p35
aS'chicken.n.01'
p36
aS'opening.n.01'
p37
aS'gap.n.05'
p38
aS'batter.n.02'
p39
aS'onion.n.01'
p40
aS'beef.n.02'
p41
aS'beef.n.01'
p42
aS'plate.n.04'
p43
aS'plate.n.12'
p44
aS'banana.n.02'
p45
aS'pepper.n.04'
p46
aS'meet.v.04'
p47
aS'kettle.n.01'
p48
aS'kettle.n.02'
p49
aS'frame.v.04'
p50
aS'pepper.n.03'
p51
aS'salt.n.02'
p52
aS'egg.n.02'
p53
aS'testis.n.01'
p54
aS'meat.n.01'
p55
aS'kernel.n.01'
p56
aS'cleaver.n.01'
p57
aS'foam.n.01'
p58
aS'mug.n.04'
p59
asS'instanceCount'
p60
I53
sS'matrix'
p61
(dp62
g44
(dp63
g44
I0
ssg29
(dp64
S'cheese.n.01'
p65
I1
ssg12
(dp66
g12
I0
ssg31
(dp67
g31
I0
ssg54
(dp68
g54
I0
ssg18
(dp69
S'bread.n.01'
p70
I1
ssg39
(dp71
S'batter.n.02'
p72
I1
ssg25
(dp73
g25
I0
ssg36
(dp74
S'chicken.n.01'
p75
I1
ssg33
(dp76
g33
I0
ssg24
(dp77
g25
I1
ssg26
(dp78
S'pan.n.01'
p79
I1
ssg35
(dp80
S'pan.n.01'
p81
I2
ssg11
(dp82
g12
I3
ssg50
(dp83
g50
I0
ssg21
(dp84
g21
I1
ssg53
(dp85
g54
I1
ssg41
(dp86
g42
I1
ssg14
(dp87
g14
I0
ssg13
(dp88
g14
I1
ssg20
(dp89
g47
I1
sg21
I3
ssg23
(dp90
g23
I0
ssg22
(dp91
g23
I1
ssg55
(dp92
g56
I1
ssg52
(dp93
S'salt.n.02'
p94
I1
ssg57
(dp95
S'cleaver.n.01'
p96
I1
ssg10
(dp97
g10
I0
ssg9
(dp98
g10
I5
ssg19
(dp99
S'knife.n.01'
p100
I2
ssg45
(dp101
S'banana.n.02'
p102
I1
ssg43
(dp103
g44
I1
ssg46
(dp104
S'pepper.n.04'
p105
I1
ssg47
(dp106
g47
I0
ssg51
(dp107
S'pepper.n.04'
p108
I1
ssg58
(dp109
S'foam.n.01'
p110
I1
ssg34
(dp111
S'whipped_cream.n.01'
p112
I1
ssg15
(dp113
g16
I1
ssg37
(dp114
g38
I1
ssg59
(dp115
S'mug.n.04'
p116
I1
ssg8
(dp117
S'flesh.n.01'
p118
I1
ssg28
(dp119
g28
I0
ssg16
(dp120
g16
I0
ssg27
(dp121
g28
I2
ssg30
(dp122
g31
I4
sg50
I1
ssg17
(dp123
S'pizza.n.01'
p124
I2
ssg49
(dp125
g49
I0
ssg48
(dp126
g49
I1
ssg32
(dp127
g33
I1
ssg38
(dp128
g38
I0
ssg42
(dp129
g42
I0
ssg40
(dp130
S'onion.n.01'
p131
I2
ssg56
(dp132
g56
I0
sssb.