ccopy_reg
_reconstructor
p0
(cutils.eval
ConfusionMatrix
p1
c__builtin__
object
p2
Ntp3
Rp4
(dp5
S'labels'
p6
(lp7
S'knife.n.01'
p8
aS'banana.n.02'
p9
aS'slice.v.03'
p10
aS'slice.v.02'
p11
aS'onion.n.01'
p12
aS'pepper.n.04'
p13
aS'fill.v.01'
p14
aS'meet.v.04'
p15
aS'kettle.n.01'
p16
aS'kettle.n.02'
p17
aS'water.n.06'
p18
aS'water.n.03'
p19
aS'put.v.01'
p20
aS'frame.v.04'
p21
aS'pepper.n.03'
p22
aS'salt.n.02'
p23
aS'egg.n.02'
p24
aS'testis.n.01'
p25
aS'cut.v.01'
p26
aS'swerve.v.01'
p27
aS'meat.n.01'
p28
aS'kernel.n.01'
p29
aS'cleaver.n.01'
p30
aS'fill.v.09'
p31
aS'foam.n.01'
p32
aS'mug.n.04'
p33
aS'lemon.n.01'
p34
aS'lemon.n.04'
p35
aS'cabbage.n.01'
p36
aS'flesh.n.01'
p37
aS'bacon.n.01'
p38
aS'bacon.n.03'
p39
aS'piece.n.08'
p40
aS'slice.n.01'
p41
aS'pizza.n.01'
p42
aS'bread.n.01'
p43
aS'pitcher.n.02'
p44
aS'pitcher.n.03'
p45
aS'milk.n.01'
p46
aS'milk.n.04'
p47
aS'pan.n.01'
p48
aS'cheese.n.01'
p49
aS'invest.v.01'
p50
aS'cake.n.03'
p51
aS'patty.n.01'
p52
aS'whipped_cream.n.01'
p53
aS'pan.n.03'
p54
aS'chicken.n.01'
p55
aS'opening.n.01'
p56
aS'gap.n.05'
p57
aS'batter.n.02'
p58
asS'instanceCount'
p59
I50
sS'matrix'
p60
(dp61
g29
(dp62
g29
I0
ssg27
(dp63
g27
I0
ssg23
(dp64
S'salt.n.02'
p65
I1
ssg39
(dp66
g39
I0
ssg43
(dp67
S'bread.n.01'
p68
I1
ssg49
(dp69
S'cheese.n.01'
p70
I1
ssg58
(dp71
S'batter.n.02'
p72
I1
ssg47
(dp73
g47
I0
ssg36
(dp74
S'cabbage.n.01'
p75
I1
ssg32
(dp76
S'foam.n.01'
p77
I1
ssg46
(dp78
g47
I1
ssg48
(dp79
S'pan.n.01'
p80
I1
ssg54
(dp81
S'pan.n.01'
p82
I1
ssg26
(dp83
g27
I5
ssg21
(dp84
g21
I0
ssg31
(dp85
g31
I1
ssg24
(dp86
g25
I1
ssg25
(dp87
g25
I0
ssg38
(dp88
g39
I1
ssg14
(dp89
g15
I1
sg31
I3
ssg45
(dp90
g45
I0
ssg44
(dp91
g45
I1
ssg35
(dp92
g35
I0
ssg28
(dp93
g29
I1
ssg30
(dp94
S'cleaver.n.01'
p95
I1
ssg11
(dp96
g11
I0
ssg10
(dp97
g11
I5
ssg8
(dp98
S'knife.n.01'
p99
I2
ssg9
(dp100
S'banana.n.02'
p101
I1
ssg13
(dp102
S'pepper.n.04'
p103
I1
ssg15
(dp104
g15
I0
ssg22
(dp105
S'pepper.n.04'
p106
I1
ssg55
(dp107
S'chicken.n.01'
p108
I1
ssg53
(dp109
S'whipped_cream.n.01'
p110
I1
ssg52
(dp111
g52
I0
ssg40
(dp112
g41
I1
ssg50
(dp113
g50
I0
ssg56
(dp114
g57
I1
ssg33
(dp115
S'mug.n.04'
p116
I1
ssg37
(dp117
S'flesh.n.01'
p118
I1
ssg19
(dp119
g19
I0
ssg41
(dp120
g41
I0
ssg18
(dp121
g19
I2
ssg20
(dp122
g50
I2
sg21
I1
ssg42
(dp123
S'pizza.n.01'
p124
I1
ssg17
(dp125
g17
I0
ssg16
(dp126
g17
I1
ssg51
(dp127
g52
I1
ssg57
(dp128
g57
I0
ssg34
(dp129
g35
I1
ssg12
(dp130
S'onion.n.01'
p131
I1
sssb.