ccopy_reg
_reconstructor
p0
(cutils.eval
ConfusionMatrix
p1
c__builtin__
object
p2
Ntp3
Rp4
(dp5
S'labels'
p6
(lp7
S'fill.v.01'
p8
aS'meet.v.04'
p9
aS'kettle.n.01'
p10
aS'kettle.n.02'
p11
aS'water.n.06'
p12
aS'water.n.03'
p13
aS'put.v.01'
p14
aS'frame.v.04'
p15
aS'pepper.n.03'
p16
aS'pepper.n.04'
p17
aS'salt.n.02'
p18
aS'egg.n.02'
p19
aS'testis.n.01'
p20
aS'cut.v.01'
p21
aS'swerve.v.01'
p22
aS'meat.n.01'
p23
aS'kernel.n.01'
p24
aS'cleaver.n.01'
p25
aS'fill.v.09'
p26
aS'foam.n.01'
p27
aS'mug.n.04'
p28
aS'lemon.n.01'
p29
aS'lemon.n.04'
p30
aS'cabbage.n.01'
p31
aS'flesh.n.01'
p32
aS'slice.v.03'
p33
aS'slice.v.02'
p34
aS'bacon.n.01'
p35
aS'bacon.n.03'
p36
aS'piece.n.08'
p37
aS'slice.n.01'
p38
aS'pizza.n.01'
p39
aS'bread.n.01'
p40
aS'knife.n.01'
p41
aS'pitcher.n.02'
p42
aS'pitcher.n.03'
p43
aS'milk.n.01'
p44
aS'milk.n.04'
p45
aS'pan.n.01'
p46
aS'cheese.n.01'
p47
aS'invest.v.01'
p48
aS'cake.n.03'
p49
aS'patty.n.01'
p50
aS'whipped_cream.n.01'
p51
aS'pan.n.03'
p52
aS'chicken.n.01'
p53
aS'opening.n.01'
p54
aS'gap.n.05'
p55
aS'batter.n.02'
p56
aS'onion.n.01'
p57
aS'beef.n.02'
p58
aS'beef.n.01'
p59
aS'plate.n.04'
p60
aS'plate.n.12'
p61
asS'instanceCount'
p62
I51
sS'matrix'
p63
(dp64
g61
(dp65
g61
I0
ssg24
(dp66
g24
I0
ssg22
(dp67
g22
I0
ssg59
(dp68
g59
I0
ssg33
(dp69
g34
I3
ssg36
(dp70
g36
I0
ssg40
(dp71
S'bread.n.01'
p72
I1
ssg47
(dp73
S'cheese.n.01'
p74
I1
ssg56
(dp75
S'batter.n.02'
p76
I1
ssg45
(dp77
g45
I0
ssg41
(dp78
S'knife.n.01'
p79
I1
ssg27
(dp80
S'foam.n.01'
p81
I1
ssg44
(dp82
g45
I1
ssg46
(dp83
S'pan.n.01'
p84
I1
ssg52
(dp85
S'pan.n.01'
p86
I2
ssg21
(dp87
g22
I5
ssg15
(dp88
g15
I0
ssg26
(dp89
g26
I1
ssg19
(dp90
g20
I1
ssg58
(dp91
g59
I1
ssg20
(dp92
g20
I0
ssg35
(dp93
g36
I1
ssg8
(dp94
g9
I1
sg26
I3
ssg43
(dp95
g43
I0
ssg42
(dp96
g43
I1
ssg30
(dp97
g30
I0
ssg25
(dp98
S'cleaver.n.01'
p99
I1
ssg23
(dp100
g24
I1
ssg34
(dp101
g34
I0
ssg18
(dp102
S'salt.n.02'
p103
I1
ssg31
(dp104
S'cabbage.n.01'
p105
I1
ssg60
(dp106
g61
I1
ssg17
(dp107
g17
I0
ssg9
(dp108
g9
I0
ssg16
(dp109
g17
I1
ssg53
(dp110
S'chicken.n.01'
p111
I1
ssg51
(dp112
S'whipped_cream.n.01'
p113
I1
ssg50
(dp114
g50
I0
ssg37
(dp115
g38
I1
ssg48
(dp116
g48
I0
ssg54
(dp117
g55
I1
ssg28
(dp118
S'mug.n.04'
p119
I1
ssg32
(dp120
S'flesh.n.01'
p121
I1
ssg13
(dp122
g13
I0
ssg38
(dp123
g38
I0
ssg12
(dp124
g13
I2
ssg14
(dp125
g48
I4
sg15
I1
ssg39
(dp126
S'pizza.n.01'
p127
I2
ssg11
(dp128
g11
I0
ssg10
(dp129
g11
I1
ssg49
(dp130
g50
I1
ssg55
(dp131
g55
I0
ssg29
(dp132
g30
I1
ssg57
(dp133
S'onion.n.01'
p134
I1
sssb.