ccopy_reg
_reconstructor
p0
(cutils.eval
ConfusionMatrix
p1
c__builtin__
object
p2
Ntp3
Rp4
(dp5
S'labels'
p6
(lp7
S'put.v.01'
p8
aS'invest.v.01'
p9
aS'pan.n.03'
p10
aS'pan.n.01'
p11
aS'pizza.n.01'
p12
aS'onion.n.01'
p13
aS'beef.n.02'
p14
aS'beef.n.01'
p15
aS'plate.n.04'
p16
aS'plate.n.12'
p17
aS'knife.n.01'
p18
aS'banana.n.02'
p19
aS'slice.v.03'
p20
aS'slice.v.02'
p21
aS'pepper.n.04'
p22
aS'fill.v.01'
p23
aS'meet.v.04'
p24
aS'kettle.n.01'
p25
aS'kettle.n.02'
p26
aS'water.n.06'
p27
aS'water.n.03'
p28
aS'frame.v.04'
p29
aS'pepper.n.03'
p30
aS'salt.n.02'
p31
aS'egg.n.02'
p32
aS'testis.n.01'
p33
aS'cut.v.01'
p34
aS'swerve.v.01'
p35
aS'meat.n.01'
p36
aS'kernel.n.01'
p37
aS'cleaver.n.01'
p38
aS'fill.v.09'
p39
aS'foam.n.01'
p40
aS'mug.n.04'
p41
aS'lemon.n.01'
p42
aS'lemon.n.04'
p43
aS'cabbage.n.01'
p44
aS'flesh.n.01'
p45
aS'bacon.n.01'
p46
aS'bacon.n.03'
p47
aS'piece.n.08'
p48
aS'slice.n.01'
p49
aS'bread.n.01'
p50
aS'pitcher.n.02'
p51
aS'pitcher.n.03'
p52
aS'milk.n.01'
p53
aS'milk.n.04'
p54
aS'cheese.n.01'
p55
aS'cake.n.03'
p56
aS'patty.n.01'
p57
aS'whipped_cream.n.01'
p58
asS'instanceCount'
p59
I51
sS'matrix'
p60
(dp61
g9
(dp62
g9
I0
ssg15
(dp63
g15
I0
ssg17
(dp64
g17
I0
ssg47
(dp65
g47
I0
ssg50
(dp66
S'bread.n.01'
p67
I1
ssg55
(dp68
S'cheese.n.01'
p69
I1
ssg54
(dp70
g54
I0
ssg35
(dp71
g35
I0
ssg40
(dp72
S'foam.n.01'
p73
I1
ssg53
(dp74
g54
I1
ssg11
(dp75
g11
I1
ssg10
(dp76
g11
I1
ssg34
(dp77
g35
I5
ssg29
(dp78
g29
I0
ssg39
(dp79
g39
I0
ssg44
(dp80
S'cabbage.n.01'
p81
I1
ssg32
(dp82
g33
I1
ssg14
(dp83
g15
I1
ssg33
(dp84
g33
I0
ssg46
(dp85
g47
I1
ssg23
(dp86
g24
I1
sg39
I3
ssg52
(dp87
g52
I0
ssg51
(dp88
g52
I1
ssg43
(dp89
g43
I0
ssg36
(dp90
g37
I1
ssg56
(dp91
g57
I1
ssg31
(dp92
S'salt.n.02'
p93
I1
ssg38
(dp94
S'cleaver.n.01'
p95
I1
ssg21
(dp96
g21
I0
ssg20
(dp97
g21
I5
ssg18
(dp98
S'knife.n.01'
p99
I2
ssg19
(dp100
S'banana.n.02'
p101
I1
ssg16
(dp102
g17
I1
ssg22
(dp103
S'pepper.n.04'
p104
I1
ssg24
(dp105
g24
I0
ssg30
(dp106
S'pepper.n.04'
p107
I1
ssg58
(dp108
S'whipped_cream.n.01'
p109
I1
ssg57
(dp110
g57
I0
ssg48
(dp111
g49
I1
ssg41
(dp112
S'mug.n.04'
p113
I1
ssg45
(dp114
S'flesh.n.01'
p115
I1
ssg28
(dp116
g28
I0
ssg49
(dp117
g49
I0
ssg27
(dp118
g28
I2
ssg8
(dp119
g9
I3
sg29
I1
ssg12
(dp120
S'pizza.n.01'
p121
I2
ssg26
(dp122
g26
I0
ssg25
(dp123
g26
I1
ssg37
(dp124
g37
I0
ssg42
(dp125
g43
I1
ssg13
(dp126
S'onion.n.01'
p127
I2
sssb.