ccopy_reg
_reconstructor
p0
(cutils.eval
ConfusionMatrix
p1
c__builtin__
object
p2
Ntp3
Rp4
(dp5
S'labels'
p6
(lp7
S'cut.v.01'
p8
aS'swerve.v.01'
p9
aS'lemon.n.01'
p10
aS'lemon.n.04'
p11
aS'cabbage.n.01'
p12
aS'flesh.n.01'
p13
aS'slice.v.03'
p14
aS'slice.v.02'
p15
aS'bacon.n.01'
p16
aS'bacon.n.03'
p17
aS'piece.n.08'
p18
aS'slice.n.01'
p19
aS'pizza.n.01'
p20
aS'bread.n.01'
p21
aS'knife.n.01'
p22
aS'fill.v.01'
p23
aS'fill.v.09'
p24
aS'pitcher.n.02'
p25
aS'pitcher.n.03'
p26
aS'milk.n.01'
p27
aS'milk.n.04'
p28
aS'pan.n.01'
p29
aS'water.n.06'
p30
aS'water.n.03'
p31
aS'cheese.n.01'
p32
aS'put.v.01'
p33
aS'invest.v.01'
p34
aS'cake.n.03'
p35
aS'patty.n.01'
p36
aS'whipped_cream.n.01'
p37
aS'pan.n.03'
p38
aS'chicken.n.01'
p39
aS'opening.n.01'
p40
aS'gap.n.05'
p41
aS'batter.n.02'
p42
aS'onion.n.01'
p43
aS'beef.n.02'
p44
aS'beef.n.01'
p45
aS'plate.n.04'
p46
aS'plate.n.12'
p47
aS'banana.n.02'
p48
aS'pepper.n.04'
p49
aS'meet.v.04'
p50
aS'kettle.n.01'
p51
aS'kettle.n.02'
p52
aS'frame.v.04'
p53
aS'pepper.n.03'
p54
aS'salt.n.02'
p55
aS'egg.n.02'
p56
aS'testis.n.01'
p57
asS'instanceCount'
p58
I51
sS'matrix'
p59
(dp60
g47
(dp61
g47
I0
ssg32
(dp62
S'cheese.n.01'
p63
I1
ssg9
(dp64
g9
I0
ssg45
(dp65
g45
I0
ssg34
(dp66
g34
I0
ssg57
(dp67
g57
I0
ssg21
(dp68
S'bread.n.01'
p69
I1
ssg42
(dp70
S'batter.n.02'
p71
I1
ssg28
(dp72
g28
I0
ssg22
(dp73
S'knife.n.01'
p74
I2
ssg36
(dp75
g36
I0
ssg27
(dp76
g28
I1
ssg29
(dp77
S'pan.n.01'
p78
I1
ssg38
(dp79
S'pan.n.01'
p80
I2
ssg8
(dp81
g9
I4
ssg53
(dp82
g53
I0
ssg24
(dp83
g24
I1
ssg56
(dp84
g57
I1
ssg44
(dp85
g45
I1
ssg17
(dp86
g17
I0
ssg16
(dp87
g17
I1
ssg23
(dp88
g50
I1
sg24
I2
ssg26
(dp89
g26
I0
ssg25
(dp90
g26
I1
ssg51
(dp91
g52
I1
ssg55
(dp92
S'salt.n.02'
p93
I1
ssg15
(dp94
g15
I0
ssg14
(dp95
g15
I5
ssg12
(dp96
S'cabbage.n.01'
p97
I1
ssg48
(dp98
S'banana.n.02'
p99
I1
ssg46
(dp100
g47
I1
ssg49
(dp101
S'pepper.n.04'
p102
I1
ssg50
(dp103
g50
I0
ssg54
(dp104
S'pepper.n.04'
p105
I1
ssg39
(dp106
S'chicken.n.01'
p107
I1
ssg37
(dp108
S'whipped_cream.n.01'
p109
I1
ssg18
(dp110
g19
I1
ssg40
(dp111
g41
I1
ssg13
(dp112
S'flesh.n.01'
p113
I1
ssg31
(dp114
g31
I0
ssg19
(dp115
g19
I0
ssg30
(dp116
g31
I2
ssg33
(dp117
g34
I4
sg53
I1
ssg20
(dp118
S'pizza.n.01'
p119
I2
ssg52
(dp120
g52
I0
ssg11
(dp121
g11
I0
ssg35
(dp122
g36
I1
ssg41
(dp123
g41
I0
ssg10
(dp124
g11
I1
ssg43
(dp125
S'onion.n.01'
p126
I2
sssb.