ccopy_reg
_reconstructor
p0
(cutils.eval
ConfusionMatrix
p1
c__builtin__
object
p2
Ntp3
Rp4
(dp5
S'labels'
p6
(lp7
S'put.v.01'
p8
aS'invest.v.01'
p9
aS'pan.n.03'
p10
aS'pan.n.01'
p11
aS'chicken.n.01'
p12
aS'opening.n.01'
p13
aS'gap.n.05'
p14
aS'fill.v.09'
p15
aS'batter.n.02'
p16
aS'pizza.n.01'
p17
aS'onion.n.01'
p18
aS'beef.n.02'
p19
aS'beef.n.01'
p20
aS'plate.n.04'
p21
aS'plate.n.12'
p22
aS'knife.n.01'
p23
aS'banana.n.02'
p24
aS'slice.v.03'
p25
aS'slice.v.02'
p26
aS'pepper.n.04'
p27
aS'fill.v.01'
p28
aS'meet.v.04'
p29
aS'kettle.n.01'
p30
aS'kettle.n.02'
p31
aS'water.n.06'
p32
aS'water.n.03'
p33
aS'frame.v.04'
p34
aS'pepper.n.03'
p35
aS'salt.n.02'
p36
aS'egg.n.02'
p37
aS'testis.n.01'
p38
aS'cut.v.01'
p39
aS'swerve.v.01'
p40
aS'meat.n.01'
p41
aS'kernel.n.01'
p42
aS'cleaver.n.01'
p43
aS'foam.n.01'
p44
aS'mug.n.04'
p45
aS'lemon.n.01'
p46
aS'lemon.n.04'
p47
aS'cabbage.n.01'
p48
aS'flesh.n.01'
p49
aS'bacon.n.01'
p50
aS'bacon.n.03'
p51
aS'piece.n.08'
p52
aS'slice.n.01'
p53
aS'bread.n.01'
p54
aS'pitcher.n.02'
p55
aS'pitcher.n.03'
p56
aS'milk.n.01'
p57
aS'milk.n.04'
p58
asS'instanceCount'
p59
I52
sS'matrix'
p60
(dp61
g22
(dp62
g22
I0
ssg9
(dp63
g9
I0
ssg12
(dp64
S'chicken.n.01'
p65
I1
ssg19
(dp66
g20
I1
ssg51
(dp67
g51
I0
ssg54
(dp68
S'bread.n.01'
p69
I1
ssg16
(dp70
S'batter.n.02'
p71
I1
ssg58
(dp72
g58
I0
ssg20
(dp73
g20
I0
ssg44
(dp74
S'foam.n.01'
p75
I1
ssg57
(dp76
g58
I1
ssg11
(dp77
g11
I1
ssg10
(dp78
g11
I2
ssg14
(dp79
g14
I0
ssg34
(dp80
g34
I0
ssg15
(dp81
S'fill.v.09'
p82
I1
ssg48
(dp83
S'cabbage.n.01'
p84
I1
ssg37
(dp85
g38
I1
ssg38
(dp86
g38
I0
ssg50
(dp87
g51
I1
ssg28
(dp88
g29
I1
sS'fill.v.09'
p89
I3
ssg56
(dp90
g56
I0
ssg55
(dp91
g56
I1
ssg47
(dp92
g47
I0
ssg41
(dp93
g42
I1
ssg36
(dp94
S'salt.n.02'
p95
I1
ssg43
(dp96
S'cleaver.n.01'
p97
I1
ssg26
(dp98
g26
I0
ssg25
(dp99
g26
I4
ssg23
(dp100
S'knife.n.01'
p101
I2
ssg24
(dp102
S'banana.n.02'
p103
I1
ssg21
(dp104
g22
I1
ssg27
(dp105
S'pepper.n.04'
p106
I1
ssg29
(dp107
g29
I0
ssg35
(dp108
S'pepper.n.04'
p109
I1
ssg39
(dp110
g40
I5
ssg40
(dp111
g40
I0
ssg52
(dp112
g53
I1
ssg13
(dp113
g14
I1
ssg45
(dp114
S'mug.n.04'
p115
I1
ssg49
(dp116
S'flesh.n.01'
p117
I1
ssg33
(dp118
g33
I0
ssg53
(dp119
g53
I0
ssg32
(dp120
g33
I2
ssg8
(dp121
g9
I3
sg34
I1
ssg17
(dp122
S'pizza.n.01'
p123
I2
ssg31
(dp124
g31
I0
ssg30
(dp125
g31
I1
ssg42
(dp126
g42
I0
ssg46
(dp127
g47
I1
ssg18
(dp128
S'onion.n.01'
p129
I2
sssb.