ccopy_reg
_reconstructor
p0
(cutils.eval
ConfusionMatrix
p1
c__builtin__
object
p2
Ntp3
Rp4
(dp5
S'labels'
p6
(lp7
S'cabbage.n.01'
p8
aS'cut.v.01'
p9
aS'piece.n.08'
p10
aS'potato.n.01'
p11
aS'mushroom.n.05'
p12
aS'vegetable.n.01'
p13
aS'knife.n.01'
p14
aS'knife.n.02'
p15
aS'cheese.n.01'
p16
aS'lemon.n.01'
p17
aS'zucchini.n.01'
p18
aS'zucchini.n.02'
p19
aS'green_onion.n.01'
p20
aS'banana.n.02'
p21
aS'pizza.n.01'
p22
aS'bacon.n.01'
p23
aS'meat.n.01'
p24
aS'cleaver.n.01'
p25
aS'helicopter.n.01'
p26
aS'flesh.n.01'
p27
aS'pulp.n.02'
p28
aS'bread.n.01'
p29
aS'slice.n.06'
p30
aS'orange.n.01'
p31
aS'tomato.n.01'
p32
asS'instanceCount'
p33
I41
sS'matrix'
p34
(dp35
g12
(dp36
S'mushroom.n.05'
p37
I1
ssg16
(dp38
S'cheese.n.01'
p39
I1
ssg29
(dp40
S'bread.n.01'
p41
I1
ssg31
(dp42
S'orange.n.01'
p43
I1
ssg19
(dp44
g19
I0
ssg18
(dp45
g19
I1
ssg14
(dp46
g15
I5
ssg20
(dp47
S'green_onion.n.01'
p48
I1
ssg9
(dp49
S'cut.v.01'
p50
I16
ssg32
(dp51
S'tomato.n.01'
p52
I1
ssg23
(dp53
S'bacon.n.01'
p54
I1
ssg24
(dp55
S'meat.n.01'
p56
I1
ssg11
(dp57
S'potato.n.01'
p58
I1
ssg25
(dp59
g26
I1
ssg8
(dp60
S'cabbage.n.01'
p61
I1
ssg21
(dp62
S'banana.n.02'
p63
I1
ssg15
(dp64
g15
I0
ssg10
(dp65
S'piece.n.08'
p66
I2
sg30
I1
ssg13
(dp67
S'vegetable.n.01'
p68
I1
ssg27
(dp69
g28
I1
ssg26
(dp70
g26
I0
ssg30
(dp71
g30
I0
ssg22
(dp72
S'pizza.n.01'
p73
I1
ssg17
(dp74
S'lemon.n.01'
p75
I1
ssg28
(dp76
g28
I0
sssb.