ccopy_reg
_reconstructor
p0
(cutils.eval
ConfusionMatrix
p1
c__builtin__
object
p2
Ntp3
Rp4
(dp5
S'labels'
p6
(lp7
S'cut.v.01'
p8
aS'bacon.n.01'
p9
aS'bacon.n.02'
p10
aS'meat.n.01'
p11
aS'cleaver.n.01'
p12
aS'flesh.n.01'
p13
aS'pulp.n.02'
p14
aS'bread.n.01'
p15
aS'knife.n.01'
p16
aS'piece.n.08'
p17
aS'slice.n.06'
p18
aS'orange.n.01'
p19
aS'tomato.n.01'
p20
aS'fork.n.01'
p21
aS'fork.n.04'
p22
aS'cake.n.03'
p23
aS'olive.n.01'
p24
aS'olive.n.04'
p25
aS'egg.n.02'
p26
aS'lemon.n.01'
p27
aS'cabbage.n.01'
p28
aS'potato.n.01'
p29
aS'mushroom.n.05'
p30
aS'vegetable.n.01'
p31
aS'cheese.n.01'
p32
asS'instanceCount'
p33
I40
sS'matrix'
p34
(dp35
g30
(dp36
S'mushroom.n.05'
p37
I1
ssg32
(dp38
S'cheese.n.01'
p39
I1
ssg15
(dp40
S'bread.n.01'
p41
I1
ssg19
(dp42
S'orange.n.01'
p43
I1
ssg28
(dp44
S'cabbage.n.01'
p45
I1
ssg8
(dp46
S'cut.v.01'
p47
I16
ssg26
(dp48
S'egg.n.02'
p49
I1
ssg20
(dp50
S'tomato.n.01'
p51
I1
ssg10
(dp52
g10
I0
ssg9
(dp53
g10
I1
ssg12
(dp54
S'cleaver.n.01'
p55
I1
ssg29
(dp56
S'potato.n.01'
p57
I1
ssg11
(dp58
S'meat.n.01'
p59
I1
ssg24
(dp60
g25
I1
ssg16
(dp61
S'knife.n.01'
p62
I3
ssg25
(dp63
g25
I0
ssg22
(dp64
g22
I0
ssg21
(dp65
g22
I1
ssg17
(dp66
g18
I3
ssg31
(dp67
S'vegetable.n.01'
p68
I1
ssg13
(dp69
g14
I1
ssg18
(dp70
g18
I0
ssg23
(dp71
S'cake.n.03'
p72
I1
ssg27
(dp73
S'lemon.n.01'
p74
I2
ssg14
(dp75
g14
I0
sssb.