ccopy_reg
_reconstructor
p0
(cutils.eval
ConfusionMatrix
p1
c__builtin__
object
p2
Ntp3
Rp4
(dp5
S'labels'
p6
(lp7
S'egg.n.02'
p8
aS'cut.v.01'
p9
aS'piece.n.08'
p10
aS'slice.n.06'
p11
aS'lemon.n.01'
p12
aS'cabbage.n.01'
p13
aS'potato.n.01'
p14
aS'mushroom.n.05'
p15
aS'vegetable.n.01'
p16
aS'knife.n.01'
p17
aS'cheese.n.01'
p18
aS'zucchini.n.01'
p19
aS'zucchini.n.02'
p20
aS'green_onion.n.01'
p21
aS'banana.n.02'
p22
aS'pizza.n.01'
p23
aS'bacon.n.01'
p24
aS'meat.n.01'
p25
aS'cleaver.n.01'
p26
aS'flesh.n.01'
p27
aS'pulp.n.02'
p28
aS'bread.n.01'
p29
asS'instanceCount'
p30
I40
sS'matrix'
p31
(dp32
g15
(dp33
S'mushroom.n.05'
p34
I1
ssg18
(dp35
S'cheese.n.01'
p36
I1
ssg29
(dp37
S'bread.n.01'
p38
I1
ssg20
(dp39
g20
I0
ssg19
(dp40
g20
I1
ssg17
(dp41
S'knife.n.01'
p42
I4
ssg21
(dp43
S'green_onion.n.01'
p44
I1
ssg9
(dp45
S'cut.v.01'
p46
I16
ssg8
(dp47
S'egg.n.02'
p48
I1
ssg24
(dp49
S'bacon.n.01'
p50
I1
ssg25
(dp51
S'meat.n.01'
p52
I1
ssg14
(dp53
S'potato.n.01'
p54
I1
ssg26
(dp55
S'cleaver.n.01'
p56
I1
ssg13
(dp57
S'cabbage.n.01'
p58
I1
ssg22
(dp59
S'banana.n.02'
p60
I1
ssg10
(dp61
g11
I3
ssg16
(dp62
S'vegetable.n.01'
p63
I1
ssg27
(dp64
g28
I1
ssg11
(dp65
g11
I0
ssg23
(dp66
S'pizza.n.01'
p67
I1
ssg12
(dp68
S'lemon.n.01'
p69
I2
ssg28
(dp70
g28
I0
sssb.