ccopy_reg
_reconstructor
p0
(cutils.eval
ConfusionMatrix
p1
c__builtin__
object
p2
Ntp3
Rp4
(dp5
S'labels'
p6
(lp7
S'cut.v.01'
p8
aS'knife.n.01'
p9
aS'banana.n.02'
p10
aS'piece.n.08'
p11
aS'slice.n.06'
p12
aS'pizza.n.01'
p13
aS'bacon.n.01'
p14
aS'meat.n.01'
p15
aS'cleaver.n.01'
p16
aS'flesh.n.01'
p17
aS'pulp.n.02'
p18
aS'bread.n.01'
p19
aS'orange.n.01'
p20
aS'tomato.n.01'
p21
aS'fork.n.01'
p22
aS'fork.n.04'
p23
aS'cake.n.03'
p24
aS'olive.n.01'
p25
aS'olive.n.04'
p26
aS'egg.n.02'
p27
aS'lemon.n.01'
p28
aS'cabbage.n.01'
p29
aS'potato.n.01'
p30
aS'mushroom.n.05'
p31
aS'vegetable.n.01'
p32
asS'instanceCount'
p33
I42
sS'matrix'
p34
(dp35
g31
(dp36
S'mushroom.n.05'
p37
I1
ssg19
(dp38
S'bread.n.01'
p39
I1
ssg20
(dp40
S'orange.n.01'
p41
I1
ssg29
(dp42
S'cabbage.n.01'
p43
I1
ssg8
(dp44
S'cut.v.01'
p45
I16
ssg27
(dp46
S'egg.n.02'
p47
I1
ssg21
(dp48
S'tomato.n.01'
p49
I1
ssg14
(dp50
S'bacon.n.01'
p51
I1
ssg15
(dp52
S'meat.n.01'
p53
I1
ssg30
(dp54
S'potato.n.01'
p55
I1
ssg16
(dp56
S'cleaver.n.01'
p57
I1
ssg25
(dp58
g26
I1
ssg9
(dp59
S'knife.n.01'
p60
I4
ssg10
(dp61
S'banana.n.02'
p62
I1
ssg26
(dp63
g26
I0
ssg23
(dp64
g23
I0
ssg22
(dp65
g23
I1
ssg11
(dp66
g12
I4
ssg32
(dp67
S'vegetable.n.01'
p68
I1
ssg17
(dp69
g18
I1
ssg12
(dp70
g12
I0
ssg13
(dp71
S'pizza.n.01'
p72
I1
ssg24
(dp73
S'cake.n.03'
p74
I1
ssg28
(dp75
S'lemon.n.01'
p76
I1
ssg18
(dp77
g18
I0
sssb.