ccopy_reg
_reconstructor
p0
(cutils.eval
ConfusionMatrix
p1
c__builtin__
object
p2
Ntp3
Rp4
(dp5
S'labels'
p6
(lp7
S'zucchini.n.01'
p8
aS'zucchini.n.02'
p9
aS'cut.v.01'
p10
aS'knife.n.01'
p11
aS'green_onion.n.01'
p12
aS'banana.n.02'
p13
aS'piece.n.08'
p14
aS'slice.n.06'
p15
aS'pizza.n.01'
p16
aS'bacon.n.01'
p17
aS'meat.n.01'
p18
aS'cleaver.n.01'
p19
aS'flesh.n.01'
p20
aS'pulp.n.02'
p21
aS'bread.n.01'
p22
aS'orange.n.01'
p23
aS'tomato.n.01'
p24
aS'fork.n.01'
p25
aS'fork.n.04'
p26
aS'cake.n.03'
p27
aS'olive.n.01'
p28
aS'olive.n.04'
p29
aS'egg.n.02'
p30
aS'lemon.n.01'
p31
aS'cabbage.n.01'
p32
aS'potato.n.01'
p33
asS'instanceCount'
p34
I42
sS'matrix'
p35
(dp36
g22
(dp37
S'bread.n.01'
p38
I1
ssg23
(dp39
S'orange.n.01'
p40
I1
ssg9
(dp41
g9
I0
ssg8
(dp42
g9
I1
ssg32
(dp43
S'cabbage.n.01'
p44
I1
ssg12
(dp45
S'green_onion.n.01'
p46
I1
ssg10
(dp47
S'cut.v.01'
p48
I16
ssg30
(dp49
S'egg.n.02'
p50
I1
ssg24
(dp51
S'tomato.n.01'
p52
I1
ssg17
(dp53
S'bacon.n.01'
p54
I1
ssg18
(dp55
S'meat.n.01'
p56
I1
ssg33
(dp57
S'potato.n.01'
p58
I1
ssg19
(dp59
S'cleaver.n.01'
p60
I1
ssg28
(dp61
g29
I1
ssg11
(dp62
S'knife.n.01'
p63
I4
ssg13
(dp64
S'banana.n.02'
p65
I1
ssg29
(dp66
g29
I0
ssg26
(dp67
g26
I0
ssg25
(dp68
g26
I1
ssg14
(dp69
g15
I4
ssg20
(dp70
g21
I1
ssg15
(dp71
g15
I0
ssg16
(dp72
S'pizza.n.01'
p73
I1
ssg27
(dp74
S'cake.n.03'
p75
I1
ssg31
(dp76
S'lemon.n.01'
p77
I1
ssg21
(dp78
g21
I0
sssb.