ccopy_reg
_reconstructor
p0
(cutils.eval
ConfusionMatrix
p1
c__builtin__
object
p2
Ntp3
Rp4
(dp5
S'labels'
p6
(lp7
S'piece.n.08'
p8
aS'slice.n.06'
p9
aS'cut.v.01'
p10
aS'orange.n.01'
p11
aS'tomato.n.01'
p12
aS'knife.n.01'
p13
aS'fork.n.01'
p14
aS'fork.n.04'
p15
aS'cake.n.03'
p16
aS'olive.n.01'
p17
aS'olive.n.04'
p18
aS'egg.n.02'
p19
aS'lemon.n.01'
p20
aS'cabbage.n.01'
p21
aS'potato.n.01'
p22
aS'mushroom.n.05'
p23
aS'vegetable.n.01'
p24
aS'cheese.n.01'
p25
aS'zucchini.n.01'
p26
aS'zucchini.n.02'
p27
aS'green_onion.n.01'
p28
aS'banana.n.02'
p29
aS'pizza.n.01'
p30
asS'instanceCount'
p31
I41
sS'matrix'
p32
(dp33
g23
(dp34
S'mushroom.n.05'
p35
I1
ssg25
(dp36
S'cheese.n.01'
p37
I1
ssg11
(dp38
S'orange.n.01'
p39
I1
ssg27
(dp40
g27
I0
ssg26
(dp41
g27
I1
ssg21
(dp42
S'cabbage.n.01'
p43
I1
ssg28
(dp44
S'green_onion.n.01'
p45
I1
ssg10
(dp46
S'cut.v.01'
p47
I16
ssg19
(dp48
S'egg.n.02'
p49
I1
ssg12
(dp50
S'tomato.n.01'
p51
I1
ssg22
(dp52
S'potato.n.01'
p53
I1
ssg17
(dp54
g18
I1
ssg13
(dp55
S'knife.n.01'
p56
I4
ssg29
(dp57
S'banana.n.02'
p58
I1
ssg18
(dp59
g18
I0
ssg15
(dp60
g15
I0
ssg14
(dp61
g15
I1
ssg8
(dp62
g9
I4
ssg24
(dp63
S'vegetable.n.01'
p64
I1
ssg9
(dp65
g9
I0
ssg30
(dp66
S'pizza.n.01'
p67
I1
ssg16
(dp68
S'cake.n.03'
p69
I1
ssg20
(dp70
S'lemon.n.01'
p71
I2
sssb.