ccopy_reg
_reconstructor
p0
(cutils.eval
ConfusionMatrix
p1
c__builtin__
object
p2
Ntp3
Rp4
(dp5
S'labels'
p6
(lp7
S'pan.n.03'
p8
aS'add.v.01'
p9
aS'butter.n.01'
p10
aS'mixing_bowl.n.01'
p11
aS'sugar.n.01'
p12
aS'vanilla.n.02'
p13
aS'rib.n.03'
p14
aS'egg.n.02'
p15
asS'instanceCount'
p16
I360
sS'matrix'
p17
(dp18
g8
(dp19
g8
I48
sg14
I0
sg15
I0
sg10
I0
sg11
I0
sg13
I0
sg9
I0
sg12
I0
ssg14
(dp20
g8
I0
sg14
I24
sg15
I0
sg10
I0
sg11
I0
sg13
I0
sg9
I0
sg12
I0
ssg15
(dp21
g8
I0
sg14
I0
sg15
I24
sg10
I0
sg11
I0
sg13
I0
sg9
I0
sg12
I0
ssg10
(dp22
g8
I0
sg14
I0
sg15
I0
sg10
I72
sg11
I0
sg13
I0
sg9
I0
sg12
I0
ssg11
(dp23
g8
I0
sg14
I0
sg15
I0
sg10
I0
sg11
I24
sg13
I0
sg9
I0
sg12
I0
ssg13
(dp24
g8
I0
sg14
I0
sg15
I0
sg10
I0
sg11
I0
sg13
I24
sg9
I0
sg12
I0
ssg9
(dp25
g8
I0
sg14
I0
sg15
I0
sg10
I0
sg11
I0
sg13
I0
sg9
I120
sg12
I0
ssg12
(dp26
g8
I0
sg14
I0
sg15
I0
sg10
I0
sg11
I0
sg13
I0
sg9
I0
sg12
I24
sssb.