ccopy_reg
_reconstructor
p0
(cutils.eval
ConfusionMatrix
p1
c__builtin__
object
p2
Ntp3
Rp4
(dp5
S'labels'
p6
(lp7
S'add.v.01'
p8
aS'ingredient.n.03'
p9
aS'dressing.n.01'
p10
aS'fertilization.n.02'
p11
aS'salad.n.01'
p12
asS'instanceCount'
p13
I5
sS'matrix'
p14
(dp15
g11
(dp16
g11
I0
ssg8
(dp17
S'add.v.01'
p18
I2
ssg9
(dp19
S'ingredient.n.03'
p20
I1
ssg12
(dp21
S'salad.n.01'
p22
I1
ssg10
(dp23
g11
I1
sssb.