ccopy_reg
_reconstructor
p0
(cutils.eval
ConfusionMatrix
p1
c__builtin__
object
p2
Ntp3
Rp4
(dp5
S'labels'
p6
(lp7
S'sauce.n.01'
p8
aS'add.v.01'
p9
aS'cream.n.02'
p10
aS'add.v.06'
p11
aS'french_fries.n.01'
p12
aS'steak.n.01'
p13
asS'instanceCount'
p14
I6
sS'matrix'
p15
(dp16
g10
(dp17
S'cream.n.02'
p18
I1
ssg13
(dp19
S'steak.n.01'
p20
I1
ssg12
(dp21
S'french_fries.n.01'
p22
I1
ssg11
(dp23
g11
I0
ssg9
(dp24
g11
I1
sS'add.v.01'
p25
I1
ssg8
(dp26
S'sauce.n.01'
p27
I1
sssb.