ccopy_reg
_reconstructor
p0
(cutils.eval
ConfusionMatrix
p1
c__builtin__
object
p2
Ntp3
Rp4
(dp5
S'labels'
p6
(lp7
S'add.v.01'
p8
aS'lend.v.01'
p9
aS'apple.n.01'
p10
aS'pan.n.03'
p11
aS'vanilla.n.02'
p12
asS'instanceCount'
p13
I5
sS'matrix'
p14
(dp15
g10
(dp16
S'apple.n.01'
p17
I1
ssg11
(dp18
S'pan.n.03'
p19
I1
ssg12
(dp20
S'vanilla.n.02'
p21
I1
ssg8
(dp22
S'add.v.01'
p23
I1
sg9
I1
ssg9
(dp24
g9
I0
sssb.