ccopy_reg
_reconstructor
p0
(cutils.eval
ConfusionMatrix
p1
c__builtin__
object
p2
Ntp3
Rp4
(dp5
S'labels'
p6
(lp7
S'tomato.n.01'
p8
aS'knife.n.01'
p9
aS'slice.v.03'
p10
aS'bacon.n.01'
p11
aS'zucchini.n.01'
p12
aS'zucchini.n.02'
p13
aS'flesh.n.01'
p14
aS'pulp.n.02'
p15
aS'cabbage.n.01'
p16
aS'piece.n.08'
p17
aS'pizza.n.01'
p18
aS'lemon.n.01'
p19
aS'green_onion.n.01'
p20
asS'instanceCount'
p21
I19
sS'matrix'
p22
(dp23
g10
(dp24
S'slice.v.03'
p25
I8
ssg9
(dp26
S'knife.n.01'
p27
I2
ssg14
(dp28
g15
I1
ssg8
(dp29
S'tomato.n.01'
p30
I1
ssg11
(dp31
S'bacon.n.01'
p32
I1
ssg18
(dp33
S'pizza.n.01'
p34
I1
ssg13
(dp35
g13
I0
ssg19
(dp36
S'lemon.n.01'
p37
I1
ssg12
(dp38
g13
I1
ssg16
(dp39
S'cabbage.n.01'
p40
I1
ssg17
(dp41
S'piece.n.08'
p42
I1
ssg20
(dp43
S'green_onion.n.01'
p44
I1
ssg15
(dp45
g15
I0
sssb.