ccopy_reg
_reconstructor
p0
(cutils.eval
ConfusionMatrix
p1
c__builtin__
object
p2
Ntp3
Rp4
(dp5
S'labels'
p6
(lp7
S'slice.v.03'
p8
aS'potato.n.01'
p9
aS'piece.n.08'
p10
aS'slice.n.06'
p11
aS'tomato.n.01'
p12
aS'onion.n.03'
p13
aS'onion.n.02'
p14
aS'mustard.n.02'
p15
aS'cheese.n.01'
p16
aS'lemon.n.01'
p17
aS'olive.n.01'
p18
aS'olive.n.04'
p19
aS'knife.n.01'
p20
aS'banana.n.02'
p21
aS'vegetable.n.01'
p22
aS'bread.n.01'
p23
asS'instanceCount'
p24
I22
sS'matrix'
p25
(dp26
g8
(dp27
S'slice.v.03'
p28
I7
ssg15
(dp29
S'mustard.n.02'
p30
I1
ssg20
(dp31
S'knife.n.01'
p32
I3
ssg21
(dp33
S'banana.n.02'
p34
I1
ssg16
(dp35
S'cheese.n.01'
p36
I1
ssg12
(dp37
S'tomato.n.01'
p38
I1
ssg19
(dp39
g19
I0
ssg11
(dp40
g11
I0
ssg18
(dp41
g19
I1
ssg23
(dp42
S'bread.n.01'
p43
I1
ssg22
(dp44
S'vegetable.n.01'
p45
I1
ssg17
(dp46
S'lemon.n.01'
p47
I1
ssg9
(dp48
S'potato.n.01'
p49
I1
ssg10
(dp50
S'piece.n.08'
p51
I1
sg11
I1
ssg13
(dp52
g14
I1
ssg14
(dp53
g14
I0
sssb.