ccopy_reg
_reconstructor
p0
(cutils.eval
ConfusionMatrix
p1
c__builtin__
object
p2
Ntp3
Rp4
(dp5
S'labels'
p6
(lp7
S'olive.n.01'
p8
aS'olive.n.04'
p9
aS'slice.v.03'
p10
aS'knife.n.01'
p11
aS'banana.n.02'
p12
aS'vegetable.n.01'
p13
aS'bread.n.01'
p14
aS'tomato.n.01'
p15
aS'bacon.n.01'
p16
aS'zucchini.n.01'
p17
aS'zucchini.n.02'
p18
aS'flesh.n.01'
p19
aS'human_body.n.01'
p20
asS'instanceCount'
p21
I20
sS'matrix'
p22
(dp23
g10
(dp24
S'slice.v.03'
p25
I8
ssg8
(dp26
g9
I1
ssg11
(dp27
S'knife.n.01'
p28
I4
ssg12
(dp29
S'banana.n.02'
p30
I1
ssg9
(dp31
g9
I0
ssg15
(dp32
S'tomato.n.01'
p33
I1
ssg19
(dp34
g20
I1
ssg13
(dp35
S'vegetable.n.01'
p36
I1
ssg16
(dp37
S'bacon.n.01'
p38
I1
ssg14
(dp39
S'bread.n.01'
p40
I1
ssg20
(dp41
g20
I0
ssg18
(dp42
g18
I0
ssg17
(dp43
g18
I1
sssb.