ccopy_reg
_reconstructor
p0
(cutils.eval
ConfusionMatrix
p1
c__builtin__
object
p2
Ntp3
Rp4
(dp5
S'labels'
p6
(lp7
S'slice.v.03'
p8
aS'potato.n.01'
p9
aS'piece.n.08'
p10
aS'slice.n.06'
p11
aS'tomato.n.01'
p12
aS'onion.n.03'
p13
aS'onion.n.02'
p14
aS'mustard.n.02'
p15
aS'cheese.n.01'
p16
aS'lemon.n.01'
p17
aS'olive.n.01'
p18
aS'olive.n.04'
p19
aS'knife.n.01'
p20
aS'banana.n.02'
p21
aS'vegetable.n.01'
p22
aS'bread.n.01'
p23
aS'bacon.n.01'
p24
aS'zucchini.n.01'
p25
aS'zucchini.n.02'
p26
aS'flesh.n.01'
p27
aS'pulp.n.02'
p28
aS'cabbage.n.01'
p29
aS'pizza.n.01'
p30
aS'green_onion.n.01'
p31
aS'egg.n.02'
p32
aS'meat.n.01'
p33
aS'cleaver.n.01'
p34
aS'tomato.n.02'
p35
aS'mustard.n.03'
p36
aS'mushroom.n.05'
p37
aS'orange.n.01'
p38
aS'slice.n.04'
p39
aS'mustard.n.01'
p40
aS'human_body.n.01'
p41
asS'instanceCount'
p42
I208
sS'matrix'
p43
(dp44
g37
(dp45
g37
I4
sS'cheese.n.01'
p46
I0
sg38
I0
sS'zucchini.n.02'
p47
I0
sS'zucchini.n.01'
p48
I0
sS'knife.n.01'
p49
I0
sS'green_onion.n.01'
p50
I0
sg40
I0
sS'mustard.n.02'
p51
I0
sS'egg.n.02'
p52
I0
sS'tomato.n.01'
p53
I0
sS'meat.n.01'
p54
I0
sS'potato.n.01'
p55
I0
sS'cleaver.n.01'
p56
I0
sS'slice.v.03'
p57
I0
sS'cabbage.n.01'
p58
I0
sS'piece.n.08'
p59
I0
sS'flesh.n.01'
p60
I0
sS'slice.n.06'
p61
I0
sg39
I0
sS'pizza.n.01'
p62
I0
sS'pulp.n.02'
p63
I0
sS'lemon.n.01'
p64
I0
sS'onion.n.03'
p65
I0
sS'onion.n.02'
p66
I0
ssg16
(dp67
S'mushroom.n.05'
p68
I0
sg16
I4
sg23
I0
sS'orange.n.01'
p69
I0
sS'mustard.n.01'
p70
I0
sg15
I0
sg36
I0
sg32
I0
sg12
I0
sg24
I0
sg34
I0
sg9
I0
sg33
I0
sg8
I0
sg18
I0
sg20
I0
sg21
I0
sg19
I0
sg10
I0
sg22
I0
sg11
I0
sS'slice.n.04'
p71
I0
sg17
I0
sg35
I0
sg13
I0
sg14
I0
ssg23
(dp72
g16
I0
sg23
I4
sS'zucchini.n.02'
p73
I0
sS'zucchini.n.01'
p74
I0
sS'cabbage.n.01'
p75
I0
sg15
I0
sg12
I0
sg24
I0
sg9
I0
sg8
I0
sg18
I0
sg20
I0
sg21
I0
sg19
I0
sg41
I0
sg10
I0
sg22
I0
sS'flesh.n.01'
p76
I0
sg11
I0
sS'pizza.n.01'
p77
I0
sg13
I0
sg17
I0
sS'pulp.n.02'
p78
I0
sg14
I0
ssg38
(dp79
g37
I0
sg46
I0
sg38
I4
sg47
I0
sg48
I0
sg49
I0
sg50
I0
sg40
I0
sg51
I0
sg52
I0
sg53
I0
sg54
I0
sg55
I0
sg56
I0
sg57
I0
sg58
I0
sg59
I0
sg60
I0
sg61
I0
sg39
I0
sg62
I0
sg63
I0
sg64
I0
sg65
I0
sg66
I0
ssg26
(dp80
g37
I0
sS'slice.v.03'
p81
I0
sS'vegetable.n.01'
p82
I0
sS'knife.n.01'
p83
I0
sS'banana.n.02'
p84
I0
sg27
I0
sS'tomato.n.01'
p85
I0
sS'olive.n.04'
p86
I0
sS'olive.n.01'
p87
I0
sS'bacon.n.01'
p88
I0
sg30
I0
sg38
I0
sg26
I0
sg41
I0
sS'lemon.n.01'
p89
I0
sg25
I0
sg29
I0
sS'piece.n.08'
p90
I0
sS'bread.n.01'
p91
I0
sg31
I0
sg28
I0
ssg25
(dp92
g37
I0
sg81
I0
sg82
I0
sg83
I0
sg84
I0
sg27
I0
sg85
I0
sg86
I0
sg87
I0
sg88
I0
sg30
I0
sg38
I0
sg26
I4
sg41
I0
sg89
I0
sg25
I0
sg29
I0
sg90
I0
sg91
I0
sg31
I0
sg28
I0
ssg29
(dp93
g37
I0
sg81
I0
sg82
I0
sg83
I0
sg27
I0
sg52
I0
sg85
I0
sg61
I0
sg88
I0
sg30
I0
sg38
I0
sg26
I0
sg54
I0
sg89
I0
sg25
I0
sg29
I4
sg90
I0
sg91
I0
sg31
I0
sg28
I0
sg56
I0
ssg31
(dp94
g37
I0
sg38
I0
sg26
I0
sg25
I0
sg29
I0
sg31
I4
sg40
I0
sg51
I0
sg52
I0
sg85
I0
sg88
I0
sg54
I0
sg55
I0
sg56
I0
sg81
I0
sg83
I0
sg90
I0
sg27
I0
sg61
I0
sg39
I0
sg30
I0
sg28
I0
sg89
I0
sg65
I0
sg66
I0
ssg40
(dp95
S'mushroom.n.05'
p96
I0
sg40
I0
sg51
I0
sS'knife.n.01'
p97
I0
sS'slice.v.03'
p98
I0
sS'egg.n.02'
p99
I0
sg53
I0
sS'slice.n.06'
p100
I0
sg39
I0
sg46
I0
sS'orange.n.01'
p101
I0
sS'meat.n.01'
p102
I0
sS'lemon.n.01'
p103
I0
sg55
I0
sS'green_onion.n.01'
p104
I0
sg66
I0
sS'piece.n.08'
p105
I0
sg65
I0
sS'cleaver.n.01'
p106
I0
ssg15
(dp107
g96
I0
sg16
I0
sg23
I0
sg101
I0
sg104
I0
sg40
I2
sg15
I1
sg36
I1
sg32
I0
sg12
I0
sg34
I0
sg9
I0
sg33
I0
sg8
I0
sg18
I0
sg20
I0
sg21
I0
sg19
I0
sg10
I0
sg22
I0
sg11
I0
sg39
I0
sg17
I0
sg35
I0
sg13
I0
sg14
I0
ssg36
(dp108
S'slice.v.03'
p109
I0
sS'mustard.n.02'
p110
I0
sg36
I0
sS'knife.n.01'
p111
I0
sS'banana.n.02'
p112
I0
sS'cheese.n.01'
p113
I0
sg32
I0
sS'tomato.n.01'
p114
I0
sS'olive.n.04'
p115
I0
sS'slice.n.06'
p116
I0
sS'olive.n.01'
p117
I0
sg35
I0
sg33
I0
sS'lemon.n.01'
p118
I0
sS'potato.n.01'
p119
I0
sS'piece.n.08'
p120
I0
sS'onion.n.02'
p121
I0
sS'onion.n.03'
p122
I0
sg34
I0
ssg32
(dp123
S'mushroom.n.05'
p124
I0
sg113
I0
sS'orange.n.01'
p125
I0
sS'cabbage.n.01'
p126
I0
sS'green_onion.n.01'
p127
I0
sg40
I0
sg110
I0
sg36
I0
sg32
I4
sg114
I0
sg34
I0
sg119
I0
sg33
I0
sg109
I0
sg117
I0
sg111
I0
sg112
I0
sg115
I0
sg120
I0
sg116
I0
sg39
I0
sS'pizza.n.01'
p128
I0
sg118
I0
sg35
I0
sg122
I0
sg121
I0
ssg12
(dp129
g96
I0
sg16
I0
sg23
I0
sg101
I0
sg26
I0
sg25
I0
sg29
I0
sg31
I0
sg40
I0
sg15
I0
sg36
I0
sg32
I0
sg12
I7
sg24
I0
sg33
I0
sg9
I0
sg34
I0
sg8
I0
sg18
I0
sg20
I0
sg21
I0
sg19
I0
sg41
I0
sg10
I0
sg22
I0
sg27
I0
sg11
I0
sg39
I0
sg30
I0
sg13
I0
sg17
I0
sg35
I1
sg28
I0
sg14
I0
ssg24
(dp130
S'cheese.n.01'
p131
I0
sS'olive.n.01'
p132
I0
sS'knife.n.01'
p133
I0
sS'banana.n.02'
p134
I0
sS'olive.n.04'
p135
I0
sS'tomato.n.01'
p136
I0
sg27
I0
sS'vegetable.n.01'
p137
I0
sg24
I4
sS'bread.n.01'
p138
I0
sg41
I0
sg26
I0
sS'lemon.n.01'
p139
I0
sg25
I0
sg29
I0
sS'slice.v.03'
p140
I0
sg30
I0
sg90
I0
sg28
I0
sg31
I0
ssg33
(dp141
g124
I0
sg113
I0
sg125
I0
sg126
I0
sg127
I0
sg40
I0
sg110
I0
sg36
I0
sg32
I0
sg114
I0
sg34
I0
sg119
I0
sg33
I4
sg109
I0
sg117
I0
sg111
I0
sg112
I0
sg115
I0
sg120
I0
sg116
I0
sg39
I0
sg128
I0
sg118
I0
sg35
I0
sg122
I0
sg121
I0
ssg9
(dp142
g96
I0
sg16
I0
sg23
I0
sg101
I0
sg104
I0
sg40
I0
sg15
I0
sg36
I0
sg32
I0
sg12
I0
sg34
I0
sg9
I4
sg33
I0
sg8
I0
sg18
I0
sg20
I0
sg21
I0
sg19
I0
sg10
I0
sg22
I0
sg11
I0
sg39
I0
sg17
I0
sg35
I0
sg13
I0
sg14
I0
ssg34
(dp143
g124
I0
sg113
I0
sg125
I0
sg126
I0
sg127
I0
sg40
I0
sg110
I0
sg36
I0
sg32
I0
sg114
I0
sg34
I4
sg119
I0
sg33
I0
sg109
I0
sg117
I0
sg111
I0
sg112
I0
sg115
I0
sg120
I0
sg116
I0
sg39
I0
sg128
I0
sg118
I0
sg35
I0
sg122
I0
sg121
I0
ssg8
(dp144
g37
I0
sg16
I0
sg23
I0
sg38
I0
sg26
I0
sg25
I0
sg29
I0
sg31
I0
sg40
I0
sg15
I0
sg36
I0
sg32
I0
sg12
I0
sg24
I0
sg33
I0
sg9
I0
sg34
I0
sg8
I76
sg18
I0
sg20
I0
sg21
I0
sg19
I0
sg41
I0
sg10
I0
sg22
I0
sg27
I0
sg11
I0
sg39
I0
sg30
I0
sg13
I0
sg17
I0
sg35
I0
sg28
I0
sg14
I0
ssg18
(dp145
g16
I0
sg23
I0
sS'zucchini.n.02'
p146
I0
sS'zucchini.n.01'
p147
I0
sg15
I0
sg36
I0
sg32
I0
sg12
I0
sg24
I0
sg34
I0
sg9
I0
sg33
I0
sg8
I0
sg18
I0
sg20
I0
sg21
I0
sg19
I4
sg41
I0
sg10
I0
sg22
I0
sS'flesh.n.01'
p148
I0
sg11
I0
sg17
I0
sg35
I0
sg13
I0
sg14
I0
ssg20
(dp149
g37
I0
sg16
I0
sg23
I0
sg38
I0
sg26
I0
sg25
I0
sg29
I0
sg31
I0
sg40
I0
sg15
I0
sg36
I0
sg32
I0
sg12
I0
sg24
I0
sg33
I0
sg9
I0
sg34
I0
sg8
I0
sg18
I0
sg20
I20
sg21
I0
sg19
I0
sg41
I0
sg10
I0
sg22
I0
sg27
I0
sg11
I0
sg39
I0
sg30
I0
sg13
I0
sg17
I0
sg35
I0
sg28
I0
sg14
I0
ssg21
(dp150
g16
I0
sg23
I0
sg146
I0
sg147
I0
sg15
I0
sg36
I0
sg32
I0
sg12
I0
sg24
I0
sg34
I0
sg9
I0
sg33
I0
sg8
I0
sg18
I0
sg20
I0
sg21
I4
sg19
I0
sg41
I0
sg10
I0
sg22
I0
sg148
I0
sg11
I0
sg17
I0
sg35
I0
sg13
I0
sg14
I0
ssg19
(dp151
g16
I0
sg23
I0
sg146
I0
sg147
I0
sg15
I0
sg36
I0
sg32
I0
sg12
I0
sg24
I0
sg34
I0
sg9
I0
sg33
I0
sg8
I0
sg18
I0
sg20
I0
sg21
I0
sg19
I0
sg41
I0
sg10
I0
sg22
I0
sg148
I0
sg11
I0
sg17
I0
sg35
I0
sg13
I0
sg14
I0
ssg41
(dp152
S'slice.v.03'
p153
I0
sg87
I0
sS'knife.n.01'
p154
I0
sg84
I0
sg86
I0
sS'tomato.n.01'
p155
I0
sg148
I0
sS'vegetable.n.01'
p156
I0
sS'bacon.n.01'
p157
I0
sS'bread.n.01'
p158
I0
sg41
I0
sg146
I0
sg147
I0
ssg10
(dp159
g37
I0
sg16
I0
sg23
I0
sg38
I0
sg26
I0
sg25
I0
sg29
I0
sg31
I0
sg40
I0
sg15
I0
sg36
I0
sg32
I0
sg12
I0
sg88
I0
sg33
I0
sg9
I0
sg34
I0
sg8
I0
sg18
I0
sg20
I0
sg21
I0
sg19
I0
sg10
I8
sg22
I0
sg27
I0
sg11
I10
sg39
I2
sg30
I0
sg13
I0
sg17
I0
sg35
I0
sg28
I0
sg14
I0
ssg22
(dp160
g16
I0
sg23
I0
sg73
I0
sg74
I0
sg75
I0
sg15
I0
sg12
I0
sg24
I0
sg9
I0
sg8
I0
sg18
I0
sg20
I0
sg21
I0
sg19
I0
sg41
I0
sg10
I0
sg22
I4
sg76
I0
sg11
I0
sg77
I0
sg13
I0
sg17
I0
sg78
I0
sg14
I0
ssg27
(dp161
g37
I0
sg81
I0
sg82
I0
sg83
I0
sg84
I0
sg27
I0
sg85
I0
sg86
I0
sg87
I0
sg88
I0
sg30
I0
sg38
I0
sg26
I0
sg41
I1
sg89
I0
sg25
I0
sg29
I0
sg90
I0
sg91
I0
sg31
I0
sg28
I3
ssg11
(dp162
g124
I0
sg16
I0
sg23
I0
sg125
I0
sg126
I0
sg127
I0
sg40
I0
sg15
I0
sg36
I0
sg32
I0
sg12
I0
sg34
I0
sg9
I0
sg33
I0
sg8
I0
sg18
I0
sg20
I0
sg21
I0
sg19
I0
sg10
I0
sg22
I0
sg11
I0
sg39
I0
sg128
I0
sg17
I0
sg35
I0
sg13
I0
sg14
I0
ssg39
(dp163
g96
I0
sg98
I0
sg51
I0
sg97
I0
sg40
I0
sg99
I0
sg53
I0
sg100
I0
sg39
I0
sg46
I0
sg101
I0
sg102
I0
sg103
I0
sg55
I0
sg104
I0
sg66
I0
sg105
I0
sg65
I0
sg106
I0
ssg30
(dp164
g37
I0
sg81
I0
sg82
I0
sg83
I0
sg27
I0
sg52
I0
sg85
I0
sg61
I0
sg88
I0
sg30
I4
sg38
I0
sg26
I0
sg54
I0
sg89
I0
sg25
I0
sg29
I0
sg90
I0
sg91
I0
sg31
I0
sg28
I0
sg56
I0
ssg13
(dp165
g96
I0
sg16
I0
sg23
I0
sg101
I0
sg104
I0
sg40
I0
sg15
I0
sg36
I0
sg32
I0
sg12
I0
sg34
I0
sg9
I0
sg33
I0
sg8
I0
sg18
I0
sg20
I0
sg21
I0
sg19
I0
sg10
I0
sg22
I0
sg11
I0
sg39
I0
sg17
I0
sg35
I0
sg13
I0
sg14
I4
ssg17
(dp166
g37
I0
sg16
I0
sg23
I0
sg38
I0
sg26
I0
sg25
I0
sg29
I0
sg31
I0
sg40
I0
sg15
I0
sg36
I0
sg32
I0
sg12
I0
sg24
I0
sg33
I0
sg9
I0
sg34
I0
sg8
I0
sg18
I0
sg20
I0
sg21
I0
sg19
I0
sg10
I0
sg22
I0
sg27
I0
sg11
I0
sg39
I0
sg30
I0
sg13
I0
sg17
I8
sg35
I0
sg28
I0
sg14
I0
ssg35
(dp167
g109
I0
sg110
I0
sg36
I0
sg111
I0
sg115
I0
sg112
I0
sg113
I0
sg35
I0
sg114
I0
sg119
I0
sg116
I0
sg117
I0
sg33
I0
sg118
I0
sg32
I0
sg120
I0
sg121
I0
sg122
I0
sg34
I0
ssg28
(dp168
g37
I0
sg81
I0
sg82
I0
sg83
I0
sg27
I0
sg85
I0
sg88
I0
sg30
I0
sg38
I0
sg26
I0
sg89
I0
sg25
I0
sg29
I0
sg90
I0
sg91
I0
sg31
I0
sg28
I0
ssg14
(dp169
g96
I0
sg16
I0
sg23
I0
sg101
I0
sg104
I0
sg40
I0
sg15
I0
sg36
I0
sg32
I0
sg12
I0
sg34
I0
sg9
I0
sg33
I0
sg8
I0
sg18
I0
sg20
I0
sg21
I0
sg19
I0
sg10
I0
sg22
I0
sg11
I0
sg39
I0
sg17
I0
sg35
I0
sg13
I0
sg14
I0
sssb.