ccopy_reg
_reconstructor
p0
(cutils.eval
ConfusionMatrix
p1
c__builtin__
object
p2
Ntp3
Rp4
(dp5
S'labels'
p6
(lp7
S'cheese.n.01'
p8
aS'slice.v.03'
p9
aS'lemon.n.01'
p10
aS'olive.n.01'
p11
aS'olive.n.04'
p12
aS'knife.n.01'
p13
aS'banana.n.02'
p14
aS'vegetable.n.01'
p15
aS'bread.n.01'
p16
aS'tomato.n.01'
p17
aS'bacon.n.01'
p18
asS'instanceCount'
p19
I20
sS'matrix'
p20
(dp21
g8
(dp22
S'cheese.n.01'
p23
I1
ssg11
(dp24
g12
I1
ssg13
(dp25
S'knife.n.01'
p26
I4
ssg14
(dp27
S'banana.n.02'
p28
I1
ssg12
(dp29
g12
I0
ssg17
(dp30
S'tomato.n.01'
p31
I1
ssg15
(dp32
S'vegetable.n.01'
p33
I1
ssg18
(dp34
S'bacon.n.01'
p35
I1
ssg16
(dp36
S'bread.n.01'
p37
I1
ssg10
(dp38
S'lemon.n.01'
p39
I1
ssg9
(dp40
S'slice.v.03'
p41
I8
sssb.