ccopy_reg
_reconstructor
p0
(cutils.eval
ConfusionMatrix
p1
c__builtin__
object
p2
Ntp3
Rp4
(dp5
S'labels'
p6
(lp7
S'slice.v.03'
p8
aS'egg.n.02'
p9
aS'piece.n.08'
p10
aS'slice.n.06'
p11
aS'meat.n.01'
p12
aS'cleaver.n.01'
p13
aS'potato.n.01'
p14
aS'tomato.n.01'
p15
aS'tomato.n.02'
p16
aS'onion.n.03'
p17
aS'onion.n.02'
p18
aS'mustard.n.02'
p19
aS'mustard.n.03'
p20
aS'cheese.n.01'
p21
aS'lemon.n.01'
p22
aS'olive.n.01'
p23
aS'olive.n.04'
p24
aS'knife.n.01'
p25
aS'banana.n.02'
p26
asS'instanceCount'
p27
I22
sS'matrix'
p28
(dp29
g8
(dp30
S'slice.v.03'
p31
I7
ssg19
(dp32
g20
I1
ssg20
(dp33
g20
I0
ssg25
(dp34
S'knife.n.01'
p35
I1
ssg26
(dp36
S'banana.n.02'
p37
I1
ssg21
(dp38
S'cheese.n.01'
p39
I1
ssg9
(dp40
S'egg.n.02'
p41
I1
ssg15
(dp42
g16
I1
ssg24
(dp43
g24
I0
ssg11
(dp44
g11
I0
ssg23
(dp45
g24
I1
ssg16
(dp46
g16
I0
ssg13
(dp47
S'cleaver.n.01'
p48
I1
ssg22
(dp49
S'lemon.n.01'
p50
I1
ssg14
(dp51
S'potato.n.01'
p52
I1
ssg10
(dp53
S'piece.n.08'
p54
I1
sg11
I2
ssg18
(dp55
g18
I0
ssg17
(dp56
g18
I1
ssg12
(dp57
S'meat.n.01'
p58
I1
sssb.