ccopy_reg
_reconstructor
p0
(cutils.eval
ConfusionMatrix
p1
c__builtin__
object
p2
Ntp3
Rp4
(dp5
S'labels'
p6
(lp7
S'zucchini.n.01'
p8
aS'zucchini.n.02'
p9
aS'slice.v.03'
p10
aS'flesh.n.01'
p11
aS'pulp.n.02'
p12
aS'cabbage.n.01'
p13
aS'piece.n.08'
p14
aS'pizza.n.01'
p15
aS'lemon.n.01'
p16
aS'knife.n.01'
p17
aS'green_onion.n.01'
p18
aS'mushroom.n.05'
p19
aS'orange.n.01'
p20
asS'instanceCount'
p21
I19
sS'matrix'
p22
(dp23
g19
(dp24
S'mushroom.n.05'
p25
I1
ssg10
(dp26
S'slice.v.03'
p27
I8
ssg13
(dp28
S'cabbage.n.01'
p29
I1
ssg11
(dp30
g12
I1
ssg15
(dp31
S'pizza.n.01'
p32
I1
ssg20
(dp33
S'orange.n.01'
p34
I1
ssg9
(dp35
g9
I0
ssg16
(dp36
S'lemon.n.01'
p37
I1
ssg8
(dp38
g9
I1
ssg17
(dp39
S'knife.n.01'
p40
I1
ssg14
(dp41
S'piece.n.08'
p42
I2
ssg18
(dp43
S'green_onion.n.01'
p44
I1
ssg12
(dp45
g12
I0
sssb.