ccopy_reg
_reconstructor
p0
(cutils.eval
ConfusionMatrix
p1
c__builtin__
object
p2
Ntp3
Rp4
(dp5
S'labels'
p6
(lp7
S'vegetable.n.01'
p8
aS'knife.n.01'
p9
aS'slice.v.03'
p10
aS'bread.n.01'
p11
aS'tomato.n.01'
p12
aS'bacon.n.01'
p13
aS'zucchini.n.01'
p14
aS'zucchini.n.02'
p15
aS'flesh.n.01'
p16
aS'pulp.n.02'
p17
aS'cabbage.n.01'
p18
aS'piece.n.08'
p19
aS'pizza.n.01'
p20
asS'instanceCount'
p21
I20
sS'matrix'
p22
(dp23
g10
(dp24
S'slice.v.03'
p25
I8
ssg8
(dp26
S'vegetable.n.01'
p27
I1
ssg9
(dp28
S'knife.n.01'
p29
I3
ssg16
(dp30
g17
I1
ssg12
(dp31
S'tomato.n.01'
p32
I1
ssg13
(dp33
S'bacon.n.01'
p34
I1
ssg11
(dp35
S'bread.n.01'
p36
I1
ssg15
(dp37
g15
I0
ssg14
(dp38
g15
I1
ssg18
(dp39
S'cabbage.n.01'
p40
I1
ssg19
(dp41
S'piece.n.08'
p42
I1
ssg20
(dp43
S'pizza.n.01'
p44
I1
ssg17
(dp45
g17
I0
sssb.