ccopy_reg
_reconstructor
p0
(cutils.eval
ConfusionMatrix
p1
c__builtin__
object
p2
Ntp3
Rp4
(dp5
S'labels'
p6
(lp7
S'slice.v.03'
p8
aS'mushroom.n.05'
p9
aS'orange.n.01'
p10
aS'piece.n.08'
p11
aS'slice.n.06'
p12
aS'egg.n.02'
p13
aS'meat.n.01'
p14
aS'cleaver.n.01'
p15
aS'potato.n.01'
p16
aS'tomato.n.01'
p17
aS'slice.n.04'
p18
aS'onion.n.03'
p19
aS'onion.n.02'
p20
aS'mustard.n.02'
p21
aS'mustard.n.01'
p22
aS'cheese.n.01'
p23
aS'lemon.n.01'
p24
asS'instanceCount'
p25
I22
sS'matrix'
p26
(dp27
g9
(dp28
S'mushroom.n.05'
p29
I1
ssg8
(dp30
S'slice.v.03'
p31
I7
ssg21
(dp32
g22
I1
ssg22
(dp33
g22
I0
ssg13
(dp34
S'egg.n.02'
p35
I1
ssg17
(dp36
S'tomato.n.01'
p37
I1
ssg12
(dp38
g12
I0
ssg18
(dp39
g18
I0
ssg23
(dp40
S'cheese.n.01'
p41
I1
ssg10
(dp42
S'orange.n.01'
p43
I1
ssg14
(dp44
S'meat.n.01'
p45
I1
ssg24
(dp46
S'lemon.n.01'
p47
I1
ssg16
(dp48
S'potato.n.01'
p49
I1
ssg11
(dp50
g12
I3
sg18
I1
ssg20
(dp51
g20
I0
ssg19
(dp52
g20
I1
ssg15
(dp53
S'cleaver.n.01'
p54
I1
sssb.