ccopy_reg
_reconstructor
p0
(cutils.eval
ConfusionMatrix
p1
c__builtin__
object
p2
Ntp3
Rp4
(dp5
S'labels'
p6
(lp7
S'AC_ADD'
p8
aS'AC_FILL'
p9
aS'AC_CUT'
p10
aS'AC_STIR'
p11
aS'AC_SLICE'
p12
aS'AC_PUT'
p13
asS'instanceCount'
p14
I53
sS'matrix'
p15
(dp16
g13
(dp17
g11
I3
sS'AC_ADD'
p18
I3
sS'AC_PUT'
p19
I3
ssg9
(dp20
S'AC_FILL'
p21
I5
ssg11
(dp22
g18
I3
sg11
I3
ssg8
(dp23
g18
I9
sg11
I4
ssg12
(dp24
g12
I5
sS'AC_CUT'
p25
I5
ssg10
(dp26
g12
I4
sg11
I2
sg25
I4
sssb.