ccopy_reg
_reconstructor
p0
(cutils.eval
ConfusionMatrix
p1
c__builtin__
object
p2
Ntp3
Rp4
(dp5
S'labels'
p6
(lp7
S'Liquid'
p8
aS'ActionVerb'
p9
asS'instanceCount'
p10
I4
sS'matrix'
p11
(dp12
g9
(dp13
S'ActionVerb'
p14
I2
ssg8
(dp15
S'Liquid'
p16
I2
sssb.