ccopy_reg
_reconstructor
p0
(cutils.eval
ConfusionMatrix
p1
c__builtin__
object
p2
Ntp3
Rp4
(dp5
S'labels'
p6
(lp7
S'Liquid'
p8
aS'ActionVerb'
p9
aS'Amount'
p10
asS'instanceCount'
p11
I37
sS'matrix'
p12
(dp13
g10
(dp14
g10
I9
sS'ActionVerb'
p15
I0
sS'Liquid'
p16
I0
ssg9
(dp17
g10
I0
sg9
I14
sg8
I0
ssg8
(dp18
g10
I0
sg9
I0
sg8
I14
sssb.