ccopy_reg
_reconstructor
p0
(cutils.eval
ConfusionMatrix
p1
c__builtin__
object
p2
Ntp3
Rp4
(dp5
S'labels'
p6
(lp7
S'Stirring'
p8
aS'Filling'
p9
aS'Neutralisation'
p10
aS'Slicing'
p11
asS'instanceCount'
p12
I6
sS'matrix'
p13
(dp14
g11
(dp15
S'Slicing'
p16
I1
ssg9
(dp17
S'Filling'
p18
I2
ssg10
(dp19
S'Neutralisation'
p20
I1
ssg8
(dp21
S'Stirring'
p22
I2
sssb.