ccopy_reg
_reconstructor
p0
(cutils.eval
ConfusionMatrix
p1
c__builtin__
object
p2
Ntp3
Rp4
(dp5
S'labels'
p6
(lp7
S'Slicing'
p8
aS'Neutralisation'
p9
aS'Cutting'
p10
aS'Adding'
p11
asS'instanceCount'
p12
I5
sS'matrix'
p13
(dp14
g8
(dp15
S'Slicing'
p16
I1
ssg11
(dp17
S'Adding'
p18
I1
ssg10
(dp19
S'Cutting'
p20
I1
ssg9
(dp21
S'Neutralisation'
p22
I2
sssb.