ccopy_reg
_reconstructor
p0
(cutils.eval
ConfusionMatrix
p1
c__builtin__
object
p2
Ntp3
Rp4
(dp5
S'labels'
p6
(lp7
S'fill.v.01'
p8
aS'liter.n.01'
p9
aS'whiskey.n.01'
p10
aS'carafe.n.01'
p11
aS'foam.n.01'
p12
aS'mug.n.04'
p13
asS'instanceCount'
p14
I7
sS'matrix'
p15
(dp16
g13
(dp17
S'mug.n.04'
p18
I1
ssg9
(dp19
S'liter.n.01'
p20
I1
ssg8
(dp21
S'fill.v.01'
p22
I2
ssg12
(dp23
S'foam.n.01'
p24
I1
ssg11
(dp25
S'carafe.n.01'
p26
I1
ssg10
(dp27
S'whiskey.n.01'
p28
I1
sssb.