ccopy_reg
_reconstructor
p0
(cutils.eval
ConfusionMatrix
p1
c__builtin__
object
p2
Ntp3
Rp4
(dp5
S'labels'
p6
(lp7
S'add.v.01'
p8
aS'dressing.n.01'
p9
aS'dressing.n.04'
p10
aS'salad.n.01'
p11
aS'salt.n.02'
p12
aS'meat.n.01'
p13
aS'pan.n.03'
p14
aS'butter.n.01'
p15
aS'asparagus.n.02'
p16
aS'egg.n.02'
p17
aS'vanilla.n.02'
p18
asS'instanceCount'
p19
I17
sS'matrix'
p20
(dp21
g12
(dp22
S'salt.n.02'
p23
I1
ssg14
(dp24
S'pan.n.03'
p25
I2
ssg8
(dp26
S'add.v.01'
p27
I6
ssg10
(dp28
g10
I0
ssg18
(dp29
S'vanilla.n.02'
p30
I1
ssg9
(dp31
g10
I1
ssg16
(dp32
S'asparagus.n.02'
p33
I1
ssg13
(dp34
S'meat.n.01'
p35
I1
ssg17
(dp36
S'egg.n.02'
p37
I1
ssg11
(dp38
S'salad.n.01'
p39
I2
ssg15
(dp40
S'butter.n.01'
p41
I1
sssb.