ccopy_reg
_reconstructor
p0
(cutils.eval
ConfusionMatrix
p1
c__builtin__
object
p2
Ntp3
Rp4
(dp5
S'labels'
p6
(lp7
S'Slicing'
p8
aS'Cutting'
p9
aS'Filling'
p10
aS'Stirring'
p11
asS'instanceCount'
p12
I4
sS'matrix'
p13
(dp14
g8
(dp15
g9
I2
ssg10
(dp16
S'Filling'
p17
I1
ssg9
(dp18
g9
I0
ssg11
(dp19
S'Stirring'
p20
I1
sssb.