ccopy_reg
_reconstructor
p0
(cutils.eval
ConfusionMatrix
p1
c__builtin__
object
p2
Ntp3
Rp4
(dp5
S'labels'
p6
(lp7
S'add.v.01'
p8
aS'ingredient.n.03'
p9
aS'rib.n.03'
p10
aS'mixing_bowl.n.01'
p11
aS'butter.n.01'
p12
aS'sugar.n.01'
p13
aS'apple.n.01'
p14
aS'onion.n.03'
p15
aS'corn.n.03'
p16
aS'dish.n.02'
p17
aS'dish.n.01'
p18
asS'instanceCount'
p19
I15
sS'matrix'
p20
(dp21
g16
(dp22
S'corn.n.03'
p23
I1
ssg10
(dp24
S'rib.n.03'
p25
I1
ssg12
(dp26
S'butter.n.01'
p27
I1
ssg11
(dp28
S'mixing_bowl.n.01'
p29
I1
ssg9
(dp30
S'ingredient.n.03'
p31
I1
ssg17
(dp32
g18
I1
ssg18
(dp33
g18
I0
ssg14
(dp34
S'apple.n.01'
p35
I1
ssg8
(dp36
S'add.v.01'
p37
I6
ssg15
(dp38
S'onion.n.03'
p39
I1
ssg13
(dp40
S'sugar.n.01'
p41
I1
sssb.