ccopy_reg
_reconstructor
p0
(cutils.eval
ConfusionMatrix
p1
c__builtin__
object
p2
Ntp3
Rp4
(dp5
S'labels'
p6
(lp7
S'add.v.01'
p8
aS'egg.n.02'
p9
aS'pan.n.03'
p10
aS'vanilla.n.02'
p11
aS'ingredient.n.03'
p12
aS'rib.n.03'
p13
aS'mixing_bowl.n.01'
p14
aS'butter.n.01'
p15
aS'sugar.n.01'
p16
aS'boodle.n.01'
p17
aS'apple.n.01'
p18
asS'instanceCount'
p19
I15
sS'matrix'
p20
(dp21
g10
(dp22
S'pan.n.03'
p23
I1
ssg13
(dp24
S'rib.n.03'
p25
I1
ssg9
(dp26
S'egg.n.02'
p27
I1
ssg15
(dp28
S'butter.n.01'
p29
I1
ssg14
(dp30
S'mixing_bowl.n.01'
p31
I1
ssg12
(dp32
S'ingredient.n.03'
p33
I1
ssg17
(dp34
g17
I0
ssg11
(dp35
S'vanilla.n.02'
p36
I1
ssg18
(dp37
S'apple.n.01'
p38
I1
ssg8
(dp39
S'add.v.01'
p40
I6
ssg16
(dp41
g17
I1
sssb.