ccopy_reg
_reconstructor
p0
(cutils.eval
ConfusionMatrix
p1
c__builtin__
object
p2
Ntp3
Rp4
(dp5
S'labels'
p6
(lp7
S'add.v.01'
p8
aS'french_fries.n.01'
p9
aS'steak.n.01'
p10
aS'sauce.n.01'
p11
aS'cream.n.02'
p12
aS'cream.n.03'
p13
aS'flour.n.01'
p14
aS'egg.n.02'
p15
aS'mixing_bowl.n.01'
p16
aS'ingredient.n.03'
p17
aS'concoction.n.01'
p18
aS'mixture.n.01'
p19
aS'vegetable.n.01'
p20
aS'milk.n.01'
p21
aS'milk.n.04'
p22
aS'water.n.06'
p23
aS'water_system.n.02'
p24
asS'instanceCount'
p25
I19
sS'matrix'
p26
(dp27
g23
(dp28
g24
I1
ssg20
(dp29
S'vegetable.n.01'
p30
I1
ssg24
(dp31
g24
I0
ssg14
(dp32
S'flour.n.01'
p33
I1
ssg16
(dp34
S'mixing_bowl.n.01'
p35
I1
ssg15
(dp36
S'egg.n.02'
p37
I1
ssg19
(dp38
g19
I0
ssg12
(dp39
g13
I2
ssg13
(dp40
g13
I0
ssg17
(dp41
S'ingredient.n.03'
p42
I1
ssg10
(dp43
S'steak.n.01'
p44
I1
ssg9
(dp45
S'french_fries.n.01'
p46
I1
ssg22
(dp47
g22
I0
ssg18
(dp48
g19
I1
ssg8
(dp49
S'add.v.01'
p50
I6
ssg21
(dp51
g22
I1
ssg11
(dp52
S'sauce.n.01'
p53
I1
sssb.