ccopy_reg
_reconstructor
p0
(cutils.eval
ConfusionMatrix
p1
c__builtin__
object
p2
Ntp3
Rp4
(dp5
S'labels'
p6
(lp7
S'pot.n.01'
p8
aS'pot.n.04'
p9
aS'add.v.01'
p10
aS'bean.n.01'
p11
aS'pan.n.03'
p12
aS'butter.n.01'
p13
aS'vanilla.n.02'
p14
aS'vanilla.n.03'
p15
aS'dressing.n.01'
p16
aS'dressing.n.04'
p17
aS'salad.n.01'
p18
aS'salt.n.02'
p19
aS'meat.n.01'
p20
aS'asparagus.n.02'
p21
asS'instanceCount'
p22
I19
sS'matrix'
p23
(dp24
g19
(dp25
S'salt.n.02'
p26
I1
ssg12
(dp27
S'pan.n.03'
p28
I2
ssg9
(dp29
g9
I0
ssg13
(dp30
S'butter.n.01'
p31
I2
ssg8
(dp32
g9
I1
ssg16
(dp33
g17
I1
ssg21
(dp34
S'asparagus.n.02'
p35
I1
ssg20
(dp36
S'meat.n.01'
p37
I1
ssg15
(dp38
g15
I0
ssg14
(dp39
g15
I1
ssg11
(dp40
S'bean.n.01'
p41
I1
ssg18
(dp42
S'salad.n.01'
p43
I2
ssg10
(dp44
S'add.v.01'
p45
I6
ssg17
(dp46
g17
I0
sssb.