ccopy_reg
_reconstructor
p0
(cutils.eval
ConfusionMatrix
p1
c__builtin__
object
p2
Ntp3
Rp4
(dp5
S'labels'
p6
(lp7
S'add.v.01'
p8
aS'egg.n.02'
p9
aS'mixing_bowl.n.01'
p10
aS'ingredient.n.03'
p11
aS'concoction.n.01'
p12
aS'mixture.n.01'
p13
aS'cream.n.02'
p14
aS'cream.n.03'
p15
aS'vegetable.n.01'
p16
aS'milk.n.01'
p17
aS'milk.n.04'
p18
aS'water.n.06'
p19
aS'water_system.n.02'
p20
aS'pot.n.01'
p21
aS'pot.n.04'
p22
aS'bean.n.01'
p23
aS'pan.n.03'
p24
aS'butter.n.01'
p25
aS'vanilla.n.02'
p26
asS'instanceCount'
p27
I19
sS'matrix'
p28
(dp29
g19
(dp30
g20
I1
ssg16
(dp31
S'vegetable.n.01'
p32
I1
ssg9
(dp33
S'egg.n.02'
p34
I1
ssg25
(dp35
S'butter.n.01'
p36
I1
ssg13
(dp37
g13
I0
ssg10
(dp38
S'mixing_bowl.n.01'
p39
I1
ssg11
(dp40
S'ingredient.n.03'
p41
I1
ssg24
(dp42
S'pan.n.03'
p43
I1
ssg15
(dp44
g15
I0
ssg23
(dp45
S'bean.n.01'
p46
I1
ssg20
(dp47
g20
I0
ssg14
(dp48
g15
I1
ssg26
(dp49
S'vanilla.n.02'
p50
I1
ssg21
(dp51
g22
I1
ssg18
(dp52
g18
I0
ssg12
(dp53
g13
I1
ssg8
(dp54
S'add.v.01'
p55
I6
ssg17
(dp56
g18
I1
ssg22
(dp57
g22
I0
sssb.