ccopy_reg
_reconstructor
p0
(cutils.eval
ConfusionMatrix
p1
c__builtin__
object
p2
Ntp3
Rp4
(dp5
S'labels'
p6
(lp7
S'fill.v.01'
p8
aS'pitcher.n.02'
p9
aS'milk.n.01'
p10
aS'whiskey.n.01'
p11
aS'carafe.n.01'
p12
aS'jar.n.01'
p13
aS'gravy.n.01'
p14
aS'gravy.n.02'
p15
aS'saltcellar.n.01'
p16
aS'salt.n.02'
p17
aS'glass.n.02'
p18
aS'blender.n.01'
p19
aS'apple.n.01'
p20
aS'wok.n.01'
p21
aS'rice.n.01'
p22
aS'kettle.n.01'
p23
aS'water.n.06'
p24
aS'bottle.n.01'
p25
aS'fruit_juice.n.01'
p26
aS'opening.n.01'
p27
aS'opening.n.10'
p28
aS'fill.v.09'
p29
aS'curd.n.01'
p30
aS'thermos.n.01'
p31
aS'coffee.n.01'
p32
aS'foam.n.01'
p33
aS'mug.n.04'
p34
aS'teapot.n.01'
p35
aS'pan.n.01'
p36
aS'pan.n.03'
p37
aS'measuring_cup.n.01'
p38
aS'meal.n.03'
p39
aS'meal.n.01'
p40
aS'pot.n.01'
p41
aS'gap.n.03'
p42
aS'batter.n.02'
p43
asS'instanceCount'
p44
I53
sS'matrix'
p45
(dp46
g22
(dp47
S'rice.n.01'
p48
I1
ssg31
(dp49
S'thermos.n.01'
p50
I1
ssg43
(dp51
S'batter.n.02'
p52
I1
ssg20
(dp53
S'apple.n.01'
p54
I1
ssg28
(dp55
g28
I0
ssg33
(dp56
S'foam.n.01'
p57
I1
ssg10
(dp58
S'milk.n.01'
p59
I2
ssg36
(dp60
g37
I1
ssg37
(dp61
g37
I0
ssg42
(dp62
g42
I0
ssg29
(dp63
S'fill.v.01'
p64
I2
ssg25
(dp65
S'bottle.n.01'
p66
I1
ssg41
(dp67
S'pot.n.01'
p68
I1
ssg8
(dp69
S'fill.v.01'
p70
I16
ssg9
(dp71
S'pitcher.n.02'
p72
I1
ssg38
(dp73
S'measuring_cup.n.01'
p74
I1
ssg18
(dp75
S'glass.n.02'
p76
I1
ssg14
(dp77
g15
I1
ssg17
(dp78
S'salt.n.02'
p79
I1
ssg15
(dp80
g15
I0
ssg21
(dp81
S'wok.n.01'
p82
I1
ssg32
(dp83
S'coffee.n.01'
p84
I1
ssg11
(dp85
S'whiskey.n.01'
p86
I1
ssg27
(dp87
g28
I1
sg42
I1
ssg34
(dp88
S'mug.n.04'
p89
I1
ssg26
(dp90
S'fruit_juice.n.01'
p91
I1
ssg35
(dp92
S'teapot.n.01'
p93
I1
ssg19
(dp94
S'blender.n.01'
p95
I1
ssg16
(dp96
S'saltcellar.n.01'
p97
I1
ssg24
(dp98
S'water.n.06'
p99
I4
ssg23
(dp100
S'kettle.n.01'
p101
I1
ssg30
(dp102
S'curd.n.01'
p103
I1
ssg13
(dp104
S'jar.n.01'
p105
I2
ssg12
(dp106
S'carafe.n.01'
p107
I1
ssg40
(dp108
g40
I0
ssg39
(dp109
g40
I1
sssb.