ccopy_reg
_reconstructor
p0
(cutils.eval
ConfusionMatrix
p1
c__builtin__
object
p2
Ntp3
Rp4
(dp5
S'labels'
p6
(lp7
S'jar.n.01'
p8
aS'fill.v.01'
p9
aS'measuring_cup.n.01'
p10
aS'meal.n.03'
p11
aS'meal.n.01'
p12
aS'pot.n.01'
p13
aS'water.n.06'
p14
aS'opening.n.01'
p15
aS'gap.n.03'
p16
aS'fill.v.09'
p17
aS'batter.n.02'
p18
aS'ice.n.01'
p19
aS'ice.n.05'
p20
aS'bowl.n.01'
p21
aS'cup.n.01'
p22
aS'cola.n.02'
p23
aS'pitcher.n.02'
p24
aS'milk.n.01'
p25
aS'whiskey.n.01'
p26
aS'carafe.n.01'
p27
aS'gravy.n.01'
p28
aS'gravy.n.02'
p29
aS'saltcellar.n.01'
p30
aS'salt.n.02'
p31
aS'glass.n.02'
p32
aS'blender.n.01'
p33
aS'apple.n.01'
p34
aS'wok.n.01'
p35
aS'rice.n.01'
p36
aS'kettle.n.01'
p37
aS'bottle.n.01'
p38
aS'fruit_juice.n.01'
p39
aS'opening.n.10'
p40
aS'curd.n.01'
p41
aS'thermos.n.01'
p42
aS'coffee.n.01'
p43
aS'foam.n.01'
p44
aS'mug.n.04'
p45
asS'instanceCount'
p46
I53
sS'matrix'
p47
(dp48
g36
(dp49
S'rice.n.01'
p50
I1
ssg42
(dp51
S'thermos.n.01'
p52
I1
ssg21
(dp53
S'bowl.n.01'
p54
I1
ssg18
(dp55
S'batter.n.02'
p56
I1
ssg40
(dp57
g40
I0
ssg34
(dp58
S'apple.n.01'
p59
I1
ssg22
(dp60
S'cup.n.01'
p61
I1
ssg25
(dp62
S'milk.n.01'
p63
I2
ssg44
(dp64
S'foam.n.01'
p65
I1
ssg23
(dp66
S'cola.n.02'
p67
I1
ssg16
(dp68
g16
I0
ssg17
(dp69
S'fill.v.01'
p70
I2
ssg38
(dp71
S'bottle.n.01'
p72
I1
ssg13
(dp73
S'pot.n.01'
p74
I1
ssg9
(dp75
S'fill.v.01'
p76
I16
ssg24
(dp77
S'pitcher.n.02'
p78
I1
ssg10
(dp79
S'measuring_cup.n.01'
p80
I1
ssg32
(dp81
S'glass.n.02'
p82
I1
ssg28
(dp83
g29
I1
ssg31
(dp84
S'salt.n.02'
p85
I1
ssg29
(dp86
g29
I0
ssg35
(dp87
S'wok.n.01'
p88
I1
ssg43
(dp89
S'coffee.n.01'
p90
I1
ssg26
(dp91
S'whiskey.n.01'
p92
I1
ssg15
(dp93
g40
I1
sg16
I1
ssg45
(dp94
S'mug.n.04'
p95
I1
ssg39
(dp96
S'fruit_juice.n.01'
p97
I1
ssg33
(dp98
S'blender.n.01'
p99
I1
ssg30
(dp100
S'saltcellar.n.01'
p101
I1
ssg14
(dp102
S'water.n.06'
p103
I2
ssg19
(dp104
g20
I1
ssg37
(dp105
S'kettle.n.01'
p106
I1
ssg20
(dp107
g20
I0
ssg41
(dp108
S'curd.n.01'
p109
I1
ssg8
(dp110
S'jar.n.01'
p111
I2
ssg27
(dp112
S'carafe.n.01'
p113
I1
ssg12
(dp114
g12
I0
ssg11
(dp115
g12
I1
sssb.