ccopy_reg
_reconstructor
p0
(cutils.eval
ConfusionMatrix
p1
c__builtin__
object
p2
Ntp3
Rp4
(dp5
S'labels'
p6
(lp7
S'fill.v.01'
p8
aS'bottle.n.01'
p9
aS'fruit_juice.n.01'
p10
aS'juice.n.01'
p11
aS'opening.n.01'
p12
aS'opening.n.10'
p13
aS'fill.v.09'
p14
aS'curd.n.01'
p15
aS'thermos.n.01'
p16
aS'coffee.n.01'
p17
aS'foam.n.01'
p18
aS'mug.n.04'
p19
aS'teapot.n.01'
p20
aS'water.n.06'
p21
aS'pan.n.01'
p22
aS'jar.n.01'
p23
aS'measuring_cup.n.01'
p24
aS'meal.n.03'
p25
aS'pot.n.01'
p26
aS'gap.n.03'
p27
aS'batter.n.02'
p28
aS'ice.n.01'
p29
aS'ice.n.05'
p30
aS'bowl.n.01'
p31
aS'cup.n.01'
p32
aS'cola.n.02'
p33
aS'pitcher.n.02'
p34
aS'milk.n.01'
p35
aS'whiskey.n.01'
p36
aS'carafe.n.01'
p37
aS'gravy.n.01'
p38
aS'gravy.n.02'
p39
aS'saltcellar.n.01'
p40
aS'salt.n.02'
p41
aS'glass.n.02'
p42
aS'blender.n.01'
p43
aS'apple.n.01'
p44
asS'instanceCount'
p45
I53
sS'matrix'
p46
(dp47
g40
(dp48
S'saltcellar.n.01'
p49
I1
ssg31
(dp50
S'bowl.n.01'
p51
I1
ssg28
(dp52
S'batter.n.02'
p53
I1
ssg44
(dp54
S'apple.n.01'
p55
I1
ssg13
(dp56
g13
I0
ssg18
(dp57
S'foam.n.01'
p58
I1
ssg35
(dp59
S'milk.n.01'
p60
I2
ssg22
(dp61
S'pan.n.01'
p62
I1
ssg33
(dp63
S'cola.n.02'
p64
I1
ssg27
(dp65
g27
I0
ssg14
(dp66
S'fill.v.01'
p67
I2
ssg9
(dp68
S'bottle.n.01'
p69
I1
ssg26
(dp70
S'pot.n.01'
p71
I1
ssg8
(dp72
S'fill.v.01'
p73
I16
ssg34
(dp74
S'pitcher.n.02'
p75
I1
ssg24
(dp76
S'measuring_cup.n.01'
p77
I1
ssg42
(dp78
S'glass.n.02'
p79
I1
ssg38
(dp80
g39
I1
ssg41
(dp81
S'salt.n.02'
p82
I1
ssg39
(dp83
g39
I0
ssg17
(dp84
S'coffee.n.01'
p85
I1
ssg36
(dp86
S'whiskey.n.01'
p87
I1
ssg12
(dp88
g13
I1
sg27
I1
ssg19
(dp89
S'mug.n.04'
p90
I1
ssg10
(dp91
g11
I1
ssg20
(dp92
S'teapot.n.01'
p93
I1
ssg43
(dp94
S'blender.n.01'
p95
I1
ssg16
(dp96
S'thermos.n.01'
p97
I1
ssg21
(dp98
S'water.n.06'
p99
I3
ssg29
(dp100
g30
I1
ssg32
(dp101
S'cup.n.01'
p102
I1
ssg30
(dp103
g30
I0
ssg15
(dp104
S'curd.n.01'
p105
I1
ssg23
(dp106
S'jar.n.01'
p107
I2
ssg37
(dp108
S'carafe.n.01'
p109
I1
ssg11
(dp110
g11
I0
ssg25
(dp111
S'meal.n.03'
p112
I1
sssb.