ccopy_reg
_reconstructor
p0
(cutils.eval
ConfusionMatrix
p1
c__builtin__
object
p2
Ntp3
Rp4
(dp5
S'labels'
p6
(lp7
S'pot.n.01'
p8
aS'fill.v.01'
p9
aS'water.n.06'
p10
aS'opening.n.01'
p11
aS'gap.n.03'
p12
aS'fill.v.09'
p13
aS'batter.n.02'
p14
aS'ice.n.01'
p15
aS'ice.n.05'
p16
aS'bowl.n.01'
p17
aS'cup.n.01'
p18
aS'cola.n.02'
p19
aS'pitcher.n.02'
p20
aS'milk.n.01'
p21
aS'milk.n.04'
p22
aS'whiskey.n.01'
p23
aS'carafe.n.01'
p24
aS'jar.n.01'
p25
aS'gravy.n.01'
p26
aS'gravy.n.02'
p27
aS'saltcellar.n.01'
p28
aS'salt.n.02'
p29
aS'glass.n.02'
p30
aS'blender.n.01'
p31
aS'apple.n.01'
p32
aS'wok.n.01'
p33
aS'rice.n.01'
p34
aS'kettle.n.01'
p35
aS'bottle.n.01'
p36
aS'fruit_juice.n.01'
p37
aS'juice.n.01'
p38
aS'opening.n.10'
p39
aS'curd.n.01'
p40
aS'thermos.n.01'
p41
aS'coffee.n.01'
p42
aS'foam.n.01'
p43
aS'mug.n.04'
p44
aS'teapot.n.01'
p45
aS'pan.n.01'
p46
aS'pan.n.03'
p47
asS'instanceCount'
p48
I54
sS'matrix'
p49
(dp50
g34
(dp51
S'rice.n.01'
p52
I1
ssg41
(dp53
S'thermos.n.01'
p54
I1
ssg17
(dp55
S'bowl.n.01'
p56
I1
ssg14
(dp57
S'batter.n.02'
p58
I1
ssg39
(dp59
g39
I0
ssg22
(dp60
g22
I0
ssg32
(dp61
S'apple.n.01'
p62
I1
ssg18
(dp63
S'cup.n.01'
p64
I1
ssg21
(dp65
g22
I2
ssg46
(dp66
g47
I1
ssg47
(dp67
g47
I0
ssg43
(dp68
S'foam.n.01'
p69
I1
ssg19
(dp70
S'cola.n.02'
p71
I1
ssg12
(dp72
g12
I0
ssg13
(dp73
S'fill.v.01'
p74
I2
ssg36
(dp75
S'bottle.n.01'
p76
I1
ssg8
(dp77
S'pot.n.01'
p78
I1
ssg9
(dp79
S'fill.v.01'
p80
I16
ssg20
(dp81
S'pitcher.n.02'
p82
I1
ssg30
(dp83
S'glass.n.02'
p84
I1
ssg26
(dp85
g27
I1
ssg29
(dp86
S'salt.n.02'
p87
I1
ssg27
(dp88
g27
I0
ssg33
(dp89
S'wok.n.01'
p90
I1
ssg42
(dp91
S'coffee.n.01'
p92
I1
ssg23
(dp93
S'whiskey.n.01'
p94
I1
ssg11
(dp95
g39
I1
sg12
I1
ssg44
(dp96
S'mug.n.04'
p97
I1
ssg37
(dp98
g38
I1
ssg45
(dp99
S'teapot.n.01'
p100
I1
ssg31
(dp101
S'blender.n.01'
p102
I1
ssg28
(dp103
S'saltcellar.n.01'
p104
I1
ssg10
(dp105
S'water.n.06'
p106
I4
ssg15
(dp107
g16
I1
ssg35
(dp108
S'kettle.n.01'
p109
I1
ssg16
(dp110
g16
I0
ssg40
(dp111
S'curd.n.01'
p112
I1
ssg25
(dp113
S'jar.n.01'
p114
I1
ssg24
(dp115
S'carafe.n.01'
p116
I1
ssg38
(dp117
g38
I0
sssb.