ccopy_reg
_reconstructor
p0
(cutils.eval
ConfusionMatrix
p1
c__builtin__
object
p2
Ntp3
Rp4
(dp5
S'labels'
p6
(lp7
S'fill.v.01'
p8
aS'glass.n.02'
p9
aS'milk.n.01'
p10
aS'milk.n.04'
p11
aS'blender.n.01'
p12
aS'apple.n.01'
p13
aS'wok.n.01'
p14
aS'rice.n.01'
p15
aS'kettle.n.01'
p16
aS'water.n.06'
p17
aS'bottle.n.01'
p18
aS'fruit_juice.n.01'
p19
aS'juice.n.01'
p20
aS'opening.n.01'
p21
aS'opening.n.10'
p22
aS'fill.v.09'
p23
aS'curd.n.01'
p24
aS'thermos.n.01'
p25
aS'coffee.n.01'
p26
aS'foam.n.01'
p27
aS'mug.n.04'
p28
aS'teapot.n.01'
p29
aS'pan.n.01'
p30
aS'pan.n.03'
p31
aS'jar.n.01'
p32
aS'measuring_cup.n.01'
p33
aS'meal.n.03'
p34
aS'pot.n.01'
p35
aS'gap.n.03'
p36
aS'batter.n.02'
p37
aS'ice.n.01'
p38
aS'ice.n.05'
p39
aS'bowl.n.01'
p40
aS'cup.n.01'
p41
aS'cola.n.02'
p42
aS'pitcher.n.02'
p43
aS'whiskey.n.01'
p44
aS'carafe.n.01'
p45
asS'instanceCount'
p46
I53
sS'matrix'
p47
(dp48
g15
(dp49
S'rice.n.01'
p50
I1
ssg40
(dp51
S'bowl.n.01'
p52
I1
ssg37
(dp53
S'batter.n.02'
p54
I1
ssg13
(dp55
S'apple.n.01'
p56
I1
ssg11
(dp57
g11
I0
ssg22
(dp58
g22
I0
ssg27
(dp59
S'foam.n.01'
p60
I1
ssg10
(dp61
g11
I2
ssg30
(dp62
g31
I1
ssg31
(dp63
g31
I0
ssg42
(dp64
S'cola.n.02'
p65
I1
ssg36
(dp66
g36
I0
ssg23
(dp67
S'fill.v.01'
p68
I2
ssg18
(dp69
S'bottle.n.01'
p70
I1
ssg35
(dp71
S'pot.n.01'
p72
I1
ssg8
(dp73
S'fill.v.01'
p74
I16
ssg43
(dp75
S'pitcher.n.02'
p76
I1
ssg33
(dp77
S'measuring_cup.n.01'
p78
I1
ssg9
(dp79
S'glass.n.02'
p80
I1
ssg14
(dp81
S'wok.n.01'
p82
I1
ssg26
(dp83
S'coffee.n.01'
p84
I1
ssg44
(dp85
S'whiskey.n.01'
p86
I1
ssg21
(dp87
g22
I1
sg36
I1
ssg28
(dp88
S'mug.n.04'
p89
I1
ssg19
(dp90
g20
I1
ssg29
(dp91
S'teapot.n.01'
p92
I1
ssg12
(dp93
S'blender.n.01'
p94
I1
ssg25
(dp95
S'thermos.n.01'
p96
I1
ssg17
(dp97
S'water.n.06'
p98
I4
ssg38
(dp99
g39
I1
ssg41
(dp100
S'cup.n.01'
p101
I1
ssg16
(dp102
S'kettle.n.01'
p103
I1
ssg39
(dp104
g39
I0
ssg24
(dp105
S'curd.n.01'
p106
I1
ssg32
(dp107
S'jar.n.01'
p108
I1
ssg45
(dp109
S'carafe.n.01'
p110
I1
ssg20
(dp111
g20
I0
ssg34
(dp112
S'meal.n.03'
p113
I1
sssb.