ccopy_reg
_reconstructor
p0
(cutils.eval
ConfusionMatrix
p1
c__builtin__
object
p2
Ntp3
Rp4
(dp5
S'labels'
p6
(lp7
S'wok.n.01'
p8
aS'fill.v.01'
p9
aS'rice.n.01'
p10
aS'kettle.n.01'
p11
aS'water.n.06'
p12
aS'bottle.n.01'
p13
aS'fruit_juice.n.01'
p14
aS'opening.n.01'
p15
aS'opening.n.10'
p16
aS'fill.v.09'
p17
aS'curd.n.01'
p18
aS'curd.n.02'
p19
aS'thermos.n.01'
p20
aS'coffee.n.01'
p21
aS'foam.n.01'
p22
aS'mug.n.04'
p23
aS'teapot.n.01'
p24
aS'pan.n.01'
p25
aS'pan.n.03'
p26
aS'jar.n.01'
p27
aS'measuring_cup.n.01'
p28
aS'meal.n.03'
p29
aS'pot.n.01'
p30
aS'gap.n.03'
p31
aS'batter.n.02'
p32
aS'ice.n.01'
p33
aS'bowl.n.01'
p34
aS'bowl.n.08'
p35
aS'cup.n.01'
p36
aS'cola.n.02'
p37
aS'pitcher.n.02'
p38
aS'milk.n.01'
p39
aS'whiskey.n.01'
p40
aS'carafe.n.01'
p41
aS'gravy.n.01'
p42
aS'gravy.n.02'
p43
aS'saltcellar.n.01'
p44
aS'salt.n.02'
p45
asS'instanceCount'
p46
I53
sS'matrix'
p47
(dp48
g44
(dp49
S'saltcellar.n.01'
p50
I1
ssg10
(dp51
S'rice.n.01'
p52
I1
ssg34
(dp53
g35
I1
ssg32
(dp54
S'batter.n.02'
p55
I1
ssg16
(dp56
g16
I0
ssg22
(dp57
S'foam.n.01'
p58
I1
ssg39
(dp59
S'milk.n.01'
p60
I1
ssg25
(dp61
g26
I1
ssg26
(dp62
g26
I0
ssg35
(dp63
g35
I0
ssg37
(dp64
S'cola.n.02'
p65
I1
ssg31
(dp66
g31
I0
ssg17
(dp67
S'fill.v.01'
p68
I2
ssg13
(dp69
S'bottle.n.01'
p70
I1
ssg30
(dp71
S'pot.n.01'
p72
I1
ssg9
(dp73
S'fill.v.01'
p74
I16
ssg38
(dp75
S'pitcher.n.02'
p76
I1
ssg28
(dp77
S'measuring_cup.n.01'
p78
I1
ssg42
(dp79
g43
I1
ssg45
(dp80
S'salt.n.02'
p81
I1
ssg43
(dp82
g43
I0
ssg8
(dp83
S'wok.n.01'
p84
I1
ssg21
(dp85
S'coffee.n.01'
p86
I1
ssg40
(dp87
S'whiskey.n.01'
p88
I1
ssg15
(dp89
g16
I1
sg31
I1
ssg23
(dp90
S'mug.n.04'
p91
I1
ssg14
(dp92
S'fruit_juice.n.01'
p93
I1
ssg24
(dp94
S'teapot.n.01'
p95
I1
ssg20
(dp96
S'thermos.n.01'
p97
I1
ssg12
(dp98
S'water.n.06'
p99
I4
ssg33
(dp100
S'ice.n.01'
p101
I1
ssg36
(dp102
S'cup.n.01'
p103
I1
ssg11
(dp104
S'kettle.n.01'
p105
I1
ssg18
(dp106
g19
I1
ssg27
(dp107
S'jar.n.01'
p108
I2
ssg19
(dp109
g19
I0
ssg41
(dp110
S'carafe.n.01'
p111
I1
ssg29
(dp112
S'meal.n.03'
p113
I1
sssb.