ccopy_reg
_reconstructor
p0
(cutils.eval
ConfusionMatrix
p1
c__builtin__
object
p2
Ntp3
Rp4
(dp5
S'labels'
p6
(lp7
S'jar.n.01'
p8
aS'fill.v.01'
p9
aS'gravy.n.01'
p10
aS'gravy.n.02'
p11
aS'saltcellar.n.01'
p12
aS'salt.n.02'
p13
aS'glass.n.02'
p14
aS'milk.n.01'
p15
aS'blender.n.01'
p16
aS'apple.n.01'
p17
aS'wok.n.01'
p18
aS'rice.n.01'
p19
aS'kettle.n.01'
p20
aS'water.n.06'
p21
aS'bottle.n.01'
p22
aS'fruit_juice.n.01'
p23
aS'opening.n.01'
p24
aS'opening.n.10'
p25
aS'fill.v.09'
p26
aS'curd.n.01'
p27
aS'thermos.n.01'
p28
aS'coffee.n.01'
p29
aS'foam.n.01'
p30
aS'mug.n.04'
p31
aS'teapot.n.01'
p32
aS'pan.n.01'
p33
aS'pan.n.03'
p34
aS'measuring_cup.n.01'
p35
aS'meal.n.03'
p36
aS'pot.n.01'
p37
aS'gap.n.03'
p38
aS'batter.n.02'
p39
aS'ice.n.01'
p40
aS'methamphetamine.n.01'
p41
aS'bowl.n.01'
p42
aS'cup.n.01'
p43
aS'cola.n.02'
p44
asS'instanceCount'
p45
I53
sS'matrix'
p46
(dp47
g28
(dp48
S'thermos.n.01'
p49
I1
ssg41
(dp50
g41
I0
ssg42
(dp51
S'bowl.n.01'
p52
I1
ssg39
(dp53
S'batter.n.02'
p54
I1
ssg17
(dp55
S'apple.n.01'
p56
I1
ssg25
(dp57
g25
I0
ssg30
(dp58
S'foam.n.01'
p59
I1
ssg15
(dp60
S'milk.n.01'
p61
I1
ssg33
(dp62
g34
I1
ssg34
(dp63
g34
I0
ssg44
(dp64
S'cola.n.02'
p65
I1
ssg38
(dp66
g38
I0
ssg12
(dp67
S'saltcellar.n.01'
p68
I1
ssg22
(dp69
S'bottle.n.01'
p70
I1
ssg37
(dp71
S'pot.n.01'
p72
I1
ssg9
(dp73
S'fill.v.01'
p74
I16
ssg35
(dp75
S'measuring_cup.n.01'
p76
I1
ssg14
(dp77
S'glass.n.02'
p78
I1
ssg10
(dp79
g11
I1
ssg13
(dp80
S'salt.n.02'
p81
I1
ssg11
(dp82
g11
I0
ssg18
(dp83
S'wok.n.01'
p84
I1
ssg29
(dp85
S'coffee.n.01'
p86
I1
ssg24
(dp87
g25
I1
sg38
I1
ssg31
(dp88
S'mug.n.04'
p89
I1
ssg23
(dp90
S'fruit_juice.n.01'
p91
I1
ssg32
(dp92
S'teapot.n.01'
p93
I1
ssg16
(dp94
S'blender.n.01'
p95
I1
ssg26
(dp96
S'fill.v.01'
p97
I2
ssg21
(dp98
S'water.n.06'
p99
I4
ssg40
(dp100
g41
I1
ssg43
(dp101
S'cup.n.01'
p102
I1
ssg20
(dp103
S'kettle.n.01'
p104
I1
ssg27
(dp105
S'curd.n.01'
p106
I1
ssg8
(dp107
S'jar.n.01'
p108
I2
ssg36
(dp109
S'meal.n.03'
p110
I1
ssg19
(dp111
S'rice.n.01'
p112
I1
sssb.