ccopy_reg
_reconstructor
p0
(cutils.eval
ConfusionMatrix
p1
c__builtin__
object
p2
Ntp3
Rp4
(dp5
S'labels'
p6
(lp7
S'fill.v.01'
p8
aS'thermos.n.01'
p9
aS'coffee.n.01'
p10
aS'foam.n.01'
p11
aS'mug.n.04'
p12
aS'teapot.n.01'
p13
aS'water.n.06'
p14
aS'pan.n.01'
p15
aS'pan.n.03'
p16
aS'jar.n.01'
p17
aS'measuring_cup.n.01'
p18
aS'meal.n.03'
p19
aS'pot.n.01'
p20
aS'pot.n.04'
p21
aS'opening.n.01'
p22
aS'fill.v.09'
p23
aS'batter.n.02'
p24
aS'ice.n.01'
p25
aS'ice.n.05'
p26
aS'bowl.n.01'
p27
aS'cup.n.01'
p28
aS'cola.n.02'
p29
aS'pitcher.n.02'
p30
aS'milk.n.01'
p31
aS'whiskey.n.01'
p32
aS'carafe.n.01'
p33
aS'gravy.n.01'
p34
aS'gravy.n.02'
p35
aS'saltcellar.n.01'
p36
aS'salt.n.02'
p37
aS'glass.n.02'
p38
aS'blender.n.01'
p39
aS'apple.n.01'
p40
aS'wok.n.01'
p41
aS'rice.n.01'
p42
aS'kettle.n.01'
p43
asS'instanceCount'
p44
I53
sS'matrix'
p45
(dp46
g42
(dp47
S'rice.n.01'
p48
I1
ssg27
(dp49
S'bowl.n.01'
p50
I1
ssg24
(dp51
S'batter.n.02'
p52
I1
ssg40
(dp53
S'apple.n.01'
p54
I1
ssg28
(dp55
S'cup.n.01'
p56
I1
ssg31
(dp57
S'milk.n.01'
p58
I2
ssg15
(dp59
g16
I1
ssg16
(dp60
g16
I0
ssg11
(dp61
S'foam.n.01'
p62
I1
ssg29
(dp63
S'cola.n.02'
p64
I1
ssg36
(dp65
S'saltcellar.n.01'
p66
I1
ssg23
(dp67
S'fill.v.09'
p68
I1
ssg21
(dp69
g21
I0
ssg20
(dp70
g21
I1
ssg8
(dp71
S'fill.v.09'
p72
I1
sS'fill.v.01'
p73
I16
ssg30
(dp74
S'pitcher.n.02'
p75
I1
ssg18
(dp76
S'measuring_cup.n.01'
p77
I1
ssg38
(dp78
S'glass.n.02'
p79
I1
ssg34
(dp80
g35
I1
ssg37
(dp81
S'salt.n.02'
p82
I1
ssg35
(dp83
g35
I0
ssg41
(dp84
S'wok.n.01'
p85
I1
ssg10
(dp86
S'coffee.n.01'
p87
I1
ssg32
(dp88
S'whiskey.n.01'
p89
I1
ssg22
(dp90
S'opening.n.01'
p91
I1
ssg12
(dp92
S'mug.n.04'
p93
I1
ssg13
(dp94
S'teapot.n.01'
p95
I1
ssg39
(dp96
S'blender.n.01'
p97
I1
ssg9
(dp98
S'thermos.n.01'
p99
I1
ssg14
(dp100
S'water.n.06'
p101
I4
ssg25
(dp102
g26
I1
ssg43
(dp103
S'kettle.n.01'
p104
I1
ssg26
(dp105
g26
I0
ssg17
(dp106
S'jar.n.01'
p107
I2
ssg33
(dp108
S'carafe.n.01'
p109
I1
ssg19
(dp110
S'meal.n.03'
p111
I1
sssb.