ccopy_reg
_reconstructor
p0
(cutils.eval
ConfusionMatrix
p1
c__builtin__
object
p2
Ntp3
Rp4
(dp5
S'labels'
p6
(lp7
S'fill.v.01'
p8
aS'teapot.n.01'
p9
aS'water.n.06'
p10
aS'pan.n.01'
p11
aS'pan.n.03'
p12
aS'jar.n.01'
p13
aS'measuring_cup.n.01'
p14
aS'meal.n.03'
p15
aS'meal.n.01'
p16
aS'pot.n.01'
p17
aS'opening.n.01'
p18
aS'gap.n.03'
p19
aS'fill.v.09'
p20
aS'batter.n.02'
p21
aS'ice.n.01'
p22
aS'ice.n.05'
p23
aS'bowl.n.01'
p24
aS'cup.n.01'
p25
aS'cola.n.02'
p26
aS'pitcher.n.02'
p27
aS'milk.n.01'
p28
aS'whiskey.n.01'
p29
aS'carafe.n.01'
p30
aS'gravy.n.01'
p31
aS'gravy.n.02'
p32
aS'saltcellar.n.01'
p33
aS'salt.n.02'
p34
aS'glass.n.02'
p35
aS'blender.n.01'
p36
aS'apple.n.01'
p37
aS'wok.n.01'
p38
aS'rice.n.01'
p39
aS'kettle.n.01'
p40
aS'bottle.n.01'
p41
aS'fruit_juice.n.01'
p42
aS'opening.n.10'
p43
aS'curd.n.01'
p44
asS'instanceCount'
p45
I53
sS'matrix'
p46
(dp47
g39
(dp48
S'rice.n.01'
p49
I1
ssg24
(dp50
S'bowl.n.01'
p51
I1
ssg21
(dp52
S'batter.n.02'
p53
I1
ssg43
(dp54
g43
I0
ssg37
(dp55
S'apple.n.01'
p56
I1
ssg25
(dp57
S'cup.n.01'
p58
I1
ssg28
(dp59
S'milk.n.01'
p60
I2
ssg11
(dp61
g12
I1
ssg12
(dp62
g12
I0
ssg26
(dp63
S'cola.n.02'
p64
I1
ssg19
(dp65
g19
I0
ssg20
(dp66
S'fill.v.01'
p67
I2
ssg41
(dp68
S'bottle.n.01'
p69
I1
ssg17
(dp70
S'pot.n.01'
p71
I1
ssg8
(dp72
S'fill.v.01'
p73
I16
ssg27
(dp74
S'pitcher.n.02'
p75
I1
ssg14
(dp76
S'measuring_cup.n.01'
p77
I1
ssg35
(dp78
S'glass.n.02'
p79
I1
ssg31
(dp80
g32
I1
ssg34
(dp81
S'salt.n.02'
p82
I1
ssg32
(dp83
g32
I0
ssg38
(dp84
S'wok.n.01'
p85
I1
ssg29
(dp86
S'whiskey.n.01'
p87
I1
ssg18
(dp88
g43
I1
sg19
I1
ssg42
(dp89
S'fruit_juice.n.01'
p90
I1
ssg9
(dp91
S'teapot.n.01'
p92
I1
ssg36
(dp93
S'blender.n.01'
p94
I1
ssg33
(dp95
S'saltcellar.n.01'
p96
I1
ssg10
(dp97
S'water.n.06'
p98
I4
ssg22
(dp99
g23
I1
ssg40
(dp100
S'kettle.n.01'
p101
I1
ssg23
(dp102
g23
I0
ssg44
(dp103
S'curd.n.01'
p104
I1
ssg13
(dp105
S'jar.n.01'
p106
I2
ssg30
(dp107
S'carafe.n.01'
p108
I1
ssg16
(dp109
g16
I0
ssg15
(dp110
g16
I1
sssb.