ccopy_reg
_reconstructor
p0
(cutils.eval
ConfusionMatrix
p1
c__builtin__
object
p2
Ntp3
Rp4
(dp5
S'labels'
p6
(lp7
S'ice.n.01'
p8
aS'ice.n.05'
p9
aS'fill.v.01'
p10
aS'bowl.n.01'
p11
aS'cup.n.01'
p12
aS'cola.n.02'
p13
aS'pitcher.n.02'
p14
aS'milk.n.01'
p15
aS'whiskey.n.01'
p16
aS'carafe.n.01'
p17
aS'jar.n.01'
p18
aS'gravy.n.01'
p19
aS'gravy.n.02'
p20
aS'saltcellar.n.01'
p21
aS'salt.n.02'
p22
aS'glass.n.02'
p23
aS'blender.n.01'
p24
aS'apple.n.01'
p25
aS'wok.n.01'
p26
aS'rice.n.01'
p27
aS'kettle.n.01'
p28
aS'water.n.06'
p29
aS'bottle.n.01'
p30
aS'fruit_juice.n.01'
p31
aS'opening.n.01'
p32
aS'fill.v.09'
p33
aS'curd.n.01'
p34
aS'thermos.n.01'
p35
aS'coffee.n.01'
p36
aS'foam.n.01'
p37
aS'mug.n.04'
p38
aS'teapot.n.01'
p39
aS'pan.n.01'
p40
aS'measuring_cup.n.01'
p41
aS'meal.n.03'
p42
asS'instanceCount'
p43
I53
sS'matrix'
p44
(dp45
g35
(dp46
S'thermos.n.01'
p47
I1
ssg11
(dp48
S'bowl.n.01'
p49
I1
ssg25
(dp50
S'apple.n.01'
p51
I1
ssg10
(dp52
S'fill.v.01'
p53
I17
ssg15
(dp54
S'milk.n.01'
p55
I2
ssg40
(dp56
S'pan.n.01'
p57
I1
ssg37
(dp58
S'foam.n.01'
p59
I1
ssg13
(dp60
S'cola.n.02'
p61
I1
ssg21
(dp62
S'saltcellar.n.01'
p63
I1
ssg30
(dp64
S'bottle.n.01'
p65
I1
ssg12
(dp66
S'cup.n.01'
p67
I1
ssg14
(dp68
S'pitcher.n.02'
p69
I1
ssg41
(dp70
S'measuring_cup.n.01'
p71
I1
ssg23
(dp72
S'glass.n.02'
p73
I1
ssg19
(dp74
g20
I1
ssg22
(dp75
S'salt.n.02'
p76
I1
ssg20
(dp77
g20
I0
ssg26
(dp78
S'wok.n.01'
p79
I1
ssg36
(dp80
S'coffee.n.01'
p81
I1
ssg33
(dp82
S'fill.v.09'
p83
I1
ssg16
(dp84
S'whiskey.n.01'
p85
I1
ssg32
(dp86
S'opening.n.01'
p87
I1
ssg38
(dp88
S'mug.n.04'
p89
I1
ssg31
(dp90
S'fruit_juice.n.01'
p91
I1
ssg39
(dp92
S'teapot.n.01'
p93
I1
ssg24
(dp94
S'blender.n.01'
p95
I1
ssg27
(dp96
S'rice.n.01'
p97
I1
ssg29
(dp98
S'water.n.06'
p99
I3
ssg8
(dp100
g9
I1
ssg28
(dp101
S'kettle.n.01'
p102
I1
ssg9
(dp103
g9
I0
ssg34
(dp104
S'curd.n.01'
p105
I1
ssg18
(dp106
S'jar.n.01'
p107
I2
ssg17
(dp108
S'carafe.n.01'
p109
I1
ssg42
(dp110
S'meal.n.03'
p111
I1
sssb.