ccopy_reg
_reconstructor
p0
(cutils.eval
ConfusionMatrix
p1
c__builtin__
object
p2
Ntp3
Rp4
(dp5
S'labels'
p6
(lp7
S'fill.v.01'
p8
aS'bottle.n.01'
p9
aS'fruit_juice.n.01'
p10
aS'juice.n.01'
p11
aS'opening.n.01'
p12
aS'opening.n.10'
p13
aS'fill.v.09'
p14
aS'curd.n.01'
p15
aS'thermos.n.01'
p16
aS'coffee.n.01'
p17
aS'foam.n.01'
p18
aS'mug.n.04'
p19
aS'teapot.n.01'
p20
aS'water.n.06'
p21
aS'pan.n.01'
p22
aS'jar.n.01'
p23
aS'measuring_cup.n.01'
p24
aS'meal.n.03'
p25
aS'pot.n.01'
p26
aS'gap.n.03'
p27
aS'batter.n.02'
p28
aS'ice.n.01'
p29
aS'ice.n.05'
p30
aS'bowl.n.01'
p31
aS'cup.n.01'
p32
aS'cola.n.02'
p33
aS'pitcher.n.02'
p34
aS'milk.n.01'
p35
aS'whiskey.n.01'
p36
aS'carafe.n.01'
p37
aS'gravy.n.01'
p38
aS'gravy.n.02'
p39
aS'saltcellar.n.01'
p40
aS'salt.n.02'
p41
aS'glass.n.02'
p42
aS'blender.n.01'
p43
aS'apple.n.01'
p44
aS'pan.n.03'
p45
aS'pot.n.04'
p46
aS'wok.n.01'
p47
aS'rice.n.01'
p48
aS'kettle.n.01'
p49
aS'milk.n.04'
p50
aS'curd.n.02'
p51
aS'bowl.n.08'
p52
aS'meal.n.01'
p53
aS'methamphetamine.n.01'
p54
asS'instanceCount'
p55
I531
sS'matrix'
p56
(dp57
g40
(dp58
g48
I0
sg54
I0
sg31
I0
sg28
I0
sg44
I0
sg50
I0
sg13
I0
sg18
I0
sg34
I0
sg22
I0
sg45
I0
sg52
I0
sg33
I0
sg27
I0
sg40
I9
sg9
I0
sg46
I0
sg26
I0
sg8
I0
sg14
I0
sg24
I0
sg42
I0
sg38
I0
sg41
I0
sg39
I0
sg47
I0
sg17
I0
sg36
I0
sg12
I0
sg19
I0
sg10
I0
sg20
I0
sg43
I0
sg35
I0
sg16
I0
sg21
I0
sg53
I0
sg29
I0
sg32
I0
sg49
I0
sg30
I0
sg15
I0
sg23
I0
sg51
I0
sg37
I0
sg11
I0
sg25
I0
ssg48
(dp59
g48
I9
sS'gap.n.03'
p60
I0
sS'bowl.n.01'
p61
I0
sS'batter.n.02'
p62
I0
sS'opening.n.10'
p63
I0
sg50
I0
sS'apple.n.01'
p64
I0
sS'cup.n.01'
p65
I0
sS'milk.n.01'
p66
I0
sS'pan.n.01'
p67
I0
sg45
I0
sS'foam.n.01'
p68
I0
sS'cola.n.02'
p69
I0
sS'saltcellar.n.01'
p70
I0
sS'fill.v.09'
p71
I0
sS'bottle.n.01'
p72
I0
sg46
I0
sS'pot.n.01'
p73
I0
sS'fill.v.01'
p74
I0
sg52
I0
sS'pitcher.n.02'
p75
I0
sS'measuring_cup.n.01'
p76
I0
sS'glass.n.02'
p77
I0
sS'gravy.n.01'
p78
I0
sS'salt.n.02'
p79
I0
sS'gravy.n.02'
p80
I0
sg47
I0
sg54
I0
sS'coffee.n.01'
p81
I0
sS'whiskey.n.01'
p82
I0
sS'opening.n.01'
p83
I0
sS'mug.n.04'
p84
I0
sS'fruit_juice.n.01'
p85
I0
sS'teapot.n.01'
p86
I0
sS'blender.n.01'
p87
I0
sS'thermos.n.01'
p88
I0
sS'water.n.06'
p89
I0
sg53
I0
sS'ice.n.01'
p90
I0
sg49
I0
sS'ice.n.05'
p91
I0
sS'curd.n.01'
p92
I0
sS'jar.n.01'
p93
I0
sg51
I0
sS'carafe.n.01'
p94
I0
sS'juice.n.01'
p95
I0
sS'meal.n.03'
p96
I0
ssg54
(dp97
S'thermos.n.01'
p98
I0
sg54
I0
sS'bowl.n.01'
p99
I0
sS'batter.n.02'
p100
I0
sS'apple.n.01'
p101
I0
sS'opening.n.10'
p102
I0
sS'foam.n.01'
p103
I0
sS'milk.n.01'
p104
I0
sS'pan.n.01'
p105
I0
sS'pan.n.03'
p106
I0
sS'cola.n.02'
p107
I0
sS'gap.n.03'
p108
I0
sS'saltcellar.n.01'
p109
I0
sS'bottle.n.01'
p110
I0
sS'pot.n.01'
p111
I0
sS'fill.v.01'
p112
I0
sS'measuring_cup.n.01'
p113
I0
sS'glass.n.02'
p114
I0
sS'gravy.n.01'
p115
I0
sS'salt.n.02'
p116
I0
sS'gravy.n.02'
p117
I0
sS'wok.n.01'
p118
I0
sS'coffee.n.01'
p119
I0
sS'opening.n.01'
p120
I0
sS'mug.n.04'
p121
I0
sS'fruit_juice.n.01'
p122
I0
sS'teapot.n.01'
p123
I0
sS'blender.n.01'
p124
I0
sS'fill.v.09'
p125
I0
sS'water.n.06'
p126
I0
sS'ice.n.01'
p127
I0
sS'cup.n.01'
p128
I0
sS'kettle.n.01'
p129
I0
sS'curd.n.01'
p130
I0
sS'jar.n.01'
p131
I0
sS'meal.n.03'
p132
I0
sS'rice.n.01'
p133
I0
ssg31
(dp134
g40
I0
sg48
I0
sg54
I0
sg31
I8
sg28
I0
sg44
I0
sg50
I0
sg13
I0
sg18
I0
sg35
I0
sg22
I0
sg45
I0
sg52
I1
sg33
I0
sg27
I0
sg14
I0
sg9
I0
sg46
I0
sg26
I0
sg8
I0
sg34
I0
sg24
I0
sg42
I0
sg38
I0
sg41
I0
sg39
I0
sg47
I0
sg17
I0
sg36
I0
sg12
I0
sg19
I0
sg10
I0
sg20
I0
sg43
I0
sg16
I0
sg21
I0
sg53
I0
sg29
I0
sg32
I0
sg49
I0
sg30
I0
sg15
I0
sg23
I0
sg51
I0
sg37
I0
sg11
I0
sg25
I0
ssg28
(dp135
g40
I0
sg48
I0
sg54
I0
sg31
I0
sg28
I9
sg44
I0
sg50
I0
sg13
I0
sg18
I0
sg35
I0
sg22
I0
sg45
I0
sg52
I0
sg33
I0
sg27
I0
sg14
I0
sg9
I0
sg46
I0
sg26
I0
sg8
I0
sg34
I0
sg24
I0
sg42
I0
sg38
I0
sg41
I0
sg39
I0
sg47
I0
sg17
I0
sg36
I0
sg12
I0
sg19
I0
sg10
I0
sg20
I0
sg43
I0
sg16
I0
sg21
I0
sg53
I0
sg29
I0
sg32
I0
sg49
I0
sg30
I0
sg15
I0
sg23
I0
sg51
I0
sg37
I0
sg11
I0
sg25
I0
ssg44
(dp136
g40
I0
sg48
I0
sg54
I0
sg31
I0
sg28
I0
sg44
I9
sg50
I0
sg13
I0
sg18
I0
sg35
I0
sg22
I0
sg45
I0
sg33
I0
sg27
I0
sg14
I0
sg9
I0
sg46
I0
sg26
I0
sg8
I0
sg34
I0
sg24
I0
sg42
I0
sg38
I0
sg41
I0
sg39
I0
sg47
I0
sg17
I0
sg36
I0
sg12
I0
sg19
I0
sg10
I0
sg20
I0
sg43
I0
sg16
I0
sg21
I0
sg53
I0
sg29
I0
sg32
I0
sg49
I0
sg30
I0
sg15
I0
sg23
I0
sg37
I0
sg11
I0
sg25
I0
ssg50
(dp137
S'rice.n.01'
p138
I0
sS'thermos.n.01'
p139
I0
sS'bowl.n.01'
p140
I0
sS'batter.n.02'
p141
I0
sg63
I0
sg50
I0
sS'apple.n.01'
p142
I0
sS'cup.n.01'
p143
I0
sS'milk.n.01'
p144
I0
sS'pan.n.01'
p145
I0
sS'pan.n.03'
p146
I0
sS'foam.n.01'
p147
I0
sS'cola.n.02'
p148
I0
sg60
I0
sS'fill.v.09'
p149
I0
sg72
I0
sS'pot.n.01'
p150
I0
sS'fill.v.01'
p151
I0
sS'pitcher.n.02'
p152
I0
sS'measuring_cup.n.01'
p153
I0
sS'glass.n.02'
p154
I0
sS'gravy.n.01'
p155
I0
sS'salt.n.02'
p156
I0
sS'gravy.n.02'
p157
I0
sS'wok.n.01'
p158
I0
sS'coffee.n.01'
p159
I0
sS'whiskey.n.01'
p160
I0
sS'opening.n.01'
p161
I0
sS'mug.n.04'
p162
I0
sg85
I0
sS'teapot.n.01'
p163
I0
sS'blender.n.01'
p164
I0
sS'saltcellar.n.01'
p165
I0
sS'water.n.06'
p166
I0
sS'ice.n.01'
p167
I0
sS'kettle.n.01'
p168
I0
sS'ice.n.05'
p169
I0
sg92
I0
sS'jar.n.01'
p170
I0
sS'carafe.n.01'
p171
I0
sg95
I0
sS'meal.n.03'
p172
I0
ssg13
(dp173
g40
I0
sg138
I0
sg54
I0
sg31
I0
sg28
I0
sg44
I0
sg50
I0
sg13
I0
sg18
I0
sg35
I0
sg22
I0
sg146
I0
sg52
I0
sg33
I0
sg27
I0
sg14
I0
sg9
I0
sg26
I0
sg8
I0
sg34
I0
sg24
I0
sg42
I0
sg38
I0
sg41
I0
sg39
I0
sg158
I0
sg17
I0
sg36
I0
sg12
I0
sg19
I0
sg10
I0
sg20
I0
sg43
I0
sg16
I0
sg21
I0
sg53
I0
sg29
I0
sg32
I0
sg168
I0
sg30
I0
sg15
I0
sg23
I0
sg51
I0
sg37
I0
sg11
I0
sg25
I0
ssg18
(dp174
g40
I0
sg48
I0
sg54
I0
sg31
I0
sg28
I0
sg44
I0
sg50
I0
sg13
I0
sg18
I9
sg35
I0
sg22
I0
sg45
I0
sg52
I0
sg33
I0
sg27
I0
sg14
I0
sg9
I0
sg46
I0
sg26
I0
sg8
I0
sg34
I0
sg24
I0
sg42
I0
sg38
I0
sg41
I0
sg39
I0
sg47
I0
sg17
I0
sg36
I0
sg12
I0
sg19
I0
sg10
I0
sg20
I0
sg43
I0
sg16
I0
sg21
I0
sg53
I0
sg29
I0
sg32
I0
sg49
I0
sg30
I0
sg15
I0
sg23
I0
sg51
I0
sg37
I0
sg11
I0
sg25
I0
ssg35
(dp175
g40
I0
sg48
I0
sg54
I0
sg31
I0
sg28
I0
sg44
I0
sg50
I4
sg13
I0
sg18
I0
sg35
I14
sg22
I0
sg45
I0
sg52
I0
sg33
I0
sg27
I0
sg14
I0
sg9
I0
sg46
I0
sg26
I0
sg8
I0
sg34
I0
sg24
I0
sg42
I0
sg38
I0
sg41
I0
sg39
I0
sg47
I0
sg17
I0
sg36
I0
sg12
I0
sg19
I0
sg10
I0
sg20
I0
sg43
I0
sg16
I0
sg21
I0
sg53
I0
sg29
I0
sg32
I0
sg49
I0
sg30
I0
sg15
I0
sg23
I0
sg51
I0
sg37
I0
sg11
I0
sg25
I0
ssg22
(dp176
g40
I0
sg48
I0
sg54
I0
sg31
I0
sg28
I0
sg44
I0
sg50
I0
sg13
I0
sg18
I0
sg35
I0
sg22
I2
sg45
I7
sg52
I0
sg33
I0
sg27
I0
sg14
I0
sg9
I0
sg46
I0
sg26
I0
sg8
I0
sg34
I0
sg24
I0
sg42
I0
sg38
I0
sg41
I0
sg39
I0
sg47
I0
sg17
I0
sg36
I0
sg12
I0
sg19
I0
sg10
I0
sg20
I0
sg43
I0
sg16
I0
sg21
I0
sS'meal.n.01'
p177
I0
sg29
I0
sg32
I0
sg49
I0
sg30
I0
sg15
I0
sg23
I0
sg51
I0
sg37
I0
sg11
I0
sg25
I0
ssg45
(dp178
g48
I0
sg60
I0
sg61
I0
sg62
I0
sg63
I0
sg50
I0
sg64
I0
sg65
I0
sg66
I0
sg67
I0
sg45
I0
sg68
I0
sg69
I0
sg70
I0
sg71
I0
sg72
I0
sg46
I0
sg73
I0
sg74
I0
sg52
I0
sg75
I0
sg76
I0
sg77
I0
sg78
I0
sg79
I0
sg80
I0
sg47
I0
sg54
I0
sg81
I0
sg82
I0
sg83
I0
sg84
I0
sg85
I0
sg86
I0
sg87
I0
sg88
I0
sg89
I0
sg177
I0
sg90
I0
sg49
I0
sg91
I0
sg92
I0
sg93
I0
sg51
I0
sg94
I0
sg95
I0
sg96
I0
ssg52
(dp179
S'saltcellar.n.01'
p180
I0
sS'thermos.n.01'
p181
I0
sS'bowl.n.01'
p182
I0
sS'batter.n.02'
p183
I0
sS'opening.n.10'
p184
I0
sS'foam.n.01'
p185
I0
sS'milk.n.01'
p186
I0
sS'pan.n.01'
p187
I0
sS'pan.n.03'
p188
I0
sg52
I0
sS'cola.n.02'
p189
I0
sS'gap.n.03'
p190
I0
sS'fill.v.09'
p191
I0
sS'bottle.n.01'
p192
I0
sS'pot.n.01'
p193
I0
sS'fill.v.01'
p194
I0
sS'pitcher.n.02'
p195
I0
sS'measuring_cup.n.01'
p196
I0
sS'gravy.n.01'
p197
I0
sS'salt.n.02'
p198
I0
sS'gravy.n.02'
p199
I0
sS'wok.n.01'
p200
I0
sS'coffee.n.01'
p201
I0
sS'whiskey.n.01'
p202
I0
sS'opening.n.01'
p203
I0
sS'mug.n.04'
p204
I0
sS'fruit_juice.n.01'
p205
I0
sS'teapot.n.01'
p206
I0
sS'rice.n.01'
p207
I0
sS'water.n.06'
p208
I0
sS'ice.n.01'
p209
I0
sS'cup.n.01'
p210
I0
sS'kettle.n.01'
p211
I0
sS'curd.n.01'
p212
I0
sS'jar.n.01'
p213
I0
sg51
I0
sS'carafe.n.01'
p214
I0
sS'meal.n.03'
p215
I0
ssg33
(dp216
g40
I0
sg48
I0
sg54
I0
sg31
I0
sg28
I0
sg44
I0
sg50
I0
sg13
I0
sg18
I0
sg35
I0
sg22
I0
sg45
I0
sg52
I0
sg33
I9
sg27
I0
sg14
I0
sg9
I0
sg46
I0
sg26
I0
sg8
I0
sg34
I0
sg24
I0
sg42
I0
sg38
I0
sg41
I0
sg39
I0
sg47
I0
sg17
I0
sg36
I0
sg12
I0
sg19
I0
sg10
I0
sg20
I0
sg43
I0
sg16
I0
sg21
I0
sg53
I0
sg29
I0
sg32
I0
sg49
I0
sg30
I0
sg15
I0
sg23
I0
sg51
I0
sg37
I0
sg11
I0
sg25
I0
ssg27
(dp217
g40
I0
sg138
I0
sg54
I0
sg31
I0
sg28
I0
sg44
I0
sg50
I0
sg13
I0
sg18
I0
sg35
I0
sg22
I0
sg146
I0
sg52
I0
sg33
I0
sg27
I0
sg14
I0
sg9
I0
sg26
I0
sg8
I0
sg34
I0
sg24
I0
sg42
I0
sg38
I0
sg41
I0
sg39
I0
sg158
I0
sg17
I0
sg36
I0
sg12
I0
sg19
I0
sg10
I0
sg20
I0
sg43
I0
sg16
I0
sg21
I0
sg53
I0
sg29
I0
sg32
I0
sg168
I0
sg30
I0
sg15
I0
sg23
I0
sg51
I0
sg37
I0
sg11
I0
sg25
I0
ssg14
(dp218
g40
I0
sg48
I0
sg54
I0
sg31
I0
sg28
I0
sg44
I0
sg50
I0
sg13
I0
sg18
I0
sg35
I0
sg22
I0
sg45
I0
sg52
I0
sg33
I0
sg27
I0
sg14
I2
sg9
I0
sg46
I0
sg26
I0
sg8
I16
sg34
I0
sg24
I0
sg42
I0
sg38
I0
sg41
I0
sg39
I0
sg47
I0
sg17
I0
sg36
I0
sg12
I0
sg19
I0
sg10
I0
sg20
I0
sg43
I0
sg16
I0
sg21
I0
sg53
I0
sg29
I0
sg32
I0
sg49
I0
sg30
I0
sg15
I0
sg23
I0
sg51
I0
sg37
I0
sg11
I0
sg25
I0
ssg9
(dp219
g40
I0
sg138
I0
sg54
I0
sg31
I0
sg28
I0
sg44
I0
sg50
I0
sg13
I0
sg18
I0
sg35
I0
sg22
I0
sg146
I0
sg52
I0
sg33
I0
sg27
I0
sg14
I0
sg9
I9
sg26
I0
sg8
I0
sg34
I0
sg24
I0
sg42
I0
sg38
I0
sg41
I0
sg39
I0
sg158
I0
sg17
I0
sg36
I0
sg12
I0
sg19
I0
sg10
I0
sg20
I0
sg43
I0
sg16
I0
sg21
I0
sg53
I0
sg29
I0
sg32
I0
sg168
I0
sg30
I0
sg15
I0
sg23
I0
sg51
I0
sg37
I0
sg11
I0
sg25
I0
ssg46
(dp220
g48
I0
sg61
I0
sg62
I0
sg64
I0
sg65
I0
sg66
I0
sg67
I0
sg45
I0
sg68
I0
sg69
I0
sg70
I0
sg71
I0
sg46
I0
sg73
I0
sg74
I0
sg75
I0
sg76
I0
sg77
I0
sg78
I0
sg79
I0
sg80
I0
sg47
I0
sg81
I0
sg82
I0
sg83
I0
sg84
I0
sg86
I0
sg87
I0
sg88
I0
sg89
I0
sg90
I0
sg49
I0
sg91
I0
sg93
I0
sg94
I0
sg96
I0
ssg26
(dp221
g40
I0
sg48
I0
sg54
I0
sg31
I0
sg28
I0
sg44
I0
sg50
I0
sg13
I0
sg18
I0
sg35
I0
sg22
I0
sg45
I0
sg52
I0
sg33
I0
sg27
I0
sg14
I0
sg9
I0
sg46
I1
sg26
I8
sg8
I0
sg34
I0
sg24
I0
sg42
I0
sg38
I0
sg41
I0
sg39
I0
sg47
I0
sg17
I0
sg36
I0
sg12
I0
sg19
I0
sg10
I0
sg20
I0
sg43
I0
sg16
I0
sg21
I0
sg53
I0
sg29
I0
sg32
I0
sg49
I0
sg30
I0
sg15
I0
sg23
I0
sg51
I0
sg37
I0
sg11
I0
sg25
I0
ssg8
(dp222
g40
I0
sg48
I0
sg54
I0
sg31
I0
sg28
I0
sg44
I0
sg50
I0
sg13
I0
sg18
I0
sg35
I0
sg22
I0
sg45
I0
sg52
I0
sg33
I0
sg27
I0
sg14
I1
sg9
I0
sg46
I0
sg26
I0
sg8
I161
sg34
I0
sg24
I0
sg42
I0
sg38
I0
sg41
I0
sg39
I0
sg47
I0
sg17
I0
sg36
I0
sg12
I0
sg19
I0
sg10
I0
sg20
I0
sg43
I0
sg16
I0
sg21
I0
sg53
I0
sg29
I0
sg32
I0
sg49
I0
sg30
I0
sg15
I0
sg23
I0
sg51
I0
sg37
I0
sg11
I0
sg25
I0
ssg34
(dp223
g40
I0
sg48
I0
sg31
I0
sg28
I0
sg44
I0
sg50
I0
sg13
I0
sg18
I0
sg35
I0
sg22
I0
sg45
I0
sg52
I0
sg33
I0
sg27
I0
sg14
I0
sg9
I0
sg46
I0
sg26
I0
sg8
I0
sg34
I9
sg24
I0
sg42
I0
sg38
I0
sg41
I0
sg39
I0
sg47
I0
sg17
I0
sg36
I0
sg12
I0
sg19
I0
sg10
I0
sg20
I0
sg43
I0
sg16
I0
sg21
I0
sg53
I0
sg29
I0
sg32
I0
sg49
I0
sg30
I0
sg15
I0
sg23
I0
sg51
I0
sg37
I0
sg11
I0
sg25
I0
ssg24
(dp224
g40
I0
sg48
I0
sg54
I0
sg31
I0
sg28
I0
sg44
I0
sS'milk.n.04'
p225
I0
sg13
I0
sg18
I0
sg35
I0
sg22
I0
sg45
I0
sg52
I0
sg33
I0
sg27
I0
sg14
I0
sg9
I0
sg46
I0
sg26
I0
sg8
I0
sg34
I0
sg24
I9
sg42
I0
sg38
I0
sg41
I0
sg39
I0
sg47
I0
sg17
I0
sg36
I0
sg12
I0
sg19
I0
sg10
I0
sg20
I0
sg43
I0
sg16
I0
sg21
I0
sg53
I0
sg29
I0
sg32
I0
sg49
I0
sg30
I0
sg15
I0
sg23
I0
sg51
I0
sg37
I0
sg11
I0
sg25
I0
ssg42
(dp226
g40
I0
sg48
I0
sg54
I0
sg31
I0
sg28
I0
sg44
I0
sg50
I0
sg13
I0
sg18
I0
sg35
I0
sg22
I0
sg45
I0
sg33
I0
sg27
I0
sg14
I0
sg9
I0
sg46
I0
sg26
I0
sg8
I0
sg34
I0
sg24
I0
sg42
I9
sg38
I0
sg41
I0
sg39
I0
sg47
I0
sg17
I0
sg36
I0
sg12
I0
sg19
I0
sg10
I0
sg20
I0
sg43
I0
sg16
I0
sg21
I0
sg53
I0
sg29
I0
sg32
I0
sg49
I0
sg30
I0
sg15
I0
sg23
I0
sg37
I0
sg11
I0
sg25
I0
ssg38
(dp227
g40
I0
sg48
I0
sg54
I0
sg31
I0
sg28
I0
sg44
I0
sg50
I0
sg13
I0
sg18
I0
sg35
I0
sg22
I0
sg45
I0
sg52
I0
sg33
I0
sg27
I0
sg14
I0
sg9
I0
sg46
I0
sg26
I0
sg8
I0
sg34
I0
sg24
I0
sg42
I0
sg38
I0
sg41
I0
sg39
I9
sg47
I0
sg17
I0
sg36
I0
sg12
I0
sg19
I0
sg10
I0
sg20
I0
sg43
I0
sg16
I0
sg21
I0
sg53
I0
sg29
I0
sg32
I0
sg49
I0
sg30
I0
sg15
I0
sg23
I0
sg51
I0
sg37
I0
sg11
I0
sg25
I0
ssg41
(dp228
g40
I0
sg48
I0
sg54
I0
sg31
I0
sg28
I0
sg44
I0
sg50
I0
sg13
I0
sg18
I0
sg35
I0
sg22
I0
sg45
I0
sg52
I0
sg33
I0
sg27
I0
sg14
I0
sg9
I0
sg46
I0
sg26
I0
sg8
I0
sg34
I0
sg24
I0
sg42
I0
sg38
I0
sg41
I9
sg39
I0
sg47
I0
sg17
I0
sg36
I0
sg12
I0
sg19
I0
sg10
I0
sg20
I0
sg43
I0
sg16
I0
sg21
I0
sg53
I0
sg29
I0
sg32
I0
sg49
I0
sg30
I0
sg15
I0
sg23
I0
sg51
I0
sg37
I0
sg11
I0
sg25
I0
ssg39
(dp229
g40
I0
sg48
I0
sg54
I0
sg31
I0
sg28
I0
sg44
I0
sg50
I0
sg13
I0
sg18
I0
sg35
I0
sg22
I0
sg45
I0
sg52
I0
sg33
I0
sg27
I0
sg14
I0
sg9
I0
sg46
I0
sg26
I0
sg8
I0
sg34
I0
sg24
I0
sg42
I0
sg38
I0
sg41
I0
sg39
I0
sg47
I0
sg17
I0
sg36
I0
sg12
I0
sg19
I0
sg10
I0
sg20
I0
sg43
I0
sg16
I0
sg21
I0
sg53
I0
sg29
I0
sg32
I0
sg49
I0
sg30
I0
sg15
I0
sg23
I0
sg51
I0
sg37
I0
sg11
I0
sg25
I0
ssg47
(dp230
g48
I0
sg60
I0
sg61
I0
sg62
I0
sg63
I0
sg50
I0
sg64
I0
sg65
I0
sg66
I0
sg67
I0
sg45
I0
sg68
I0
sg69
I0
sg70
I0
sg71
I0
sg72
I0
sg46
I0
sg73
I0
sg74
I0
sg52
I0
sg75
I0
sg76
I0
sg77
I0
sg78
I0
sg79
I0
sg80
I0
sg47
I9
sg54
I0
sg81
I0
sg82
I0
sg83
I0
sg84
I0
sg85
I0
sg86
I0
sg87
I0
sg88
I0
sg89
I0
sg53
I0
sg90
I0
sg49
I0
sg91
I0
sg92
I0
sg93
I0
sg51
I0
sg94
I0
sg95
I0
sg96
I0
ssg17
(dp231
g40
I0
sg48
I0
sg54
I0
sg31
I0
sg28
I0
sg44
I0
sg50
I0
sg13
I0
sg18
I0
sg35
I0
sg22
I0
sg45
I0
sg52
I0
sg33
I0
sg27
I0
sg14
I0
sg9
I0
sg46
I0
sg26
I0
sg8
I0
sg34
I0
sg24
I0
sg42
I0
sg38
I0
sg41
I0
sg39
I0
sg47
I0
sg17
I9
sg36
I0
sg12
I0
sg19
I0
sg10
I0
sg20
I0
sg43
I0
sg16
I0
sg21
I0
sg53
I0
sg29
I0
sg32
I0
sg49
I0
sg30
I0
sg15
I0
sg23
I0
sg51
I0
sg37
I0
sg11
I0
sg25
I0
ssg36
(dp232
g40
I0
sg48
I0
sg31
I0
sg28
I0
sg44
I0
sg50
I0
sg13
I0
sg18
I0
sg35
I0
sg22
I0
sg45
I0
sg52
I0
sg33
I0
sg27
I0
sg14
I0
sg9
I0
sg46
I0
sg26
I0
sg8
I0
sg34
I0
sg24
I0
sg42
I0
sg38
I0
sg41
I0
sg39
I0
sg47
I0
sg17
I0
sg36
I9
sg12
I0
sg19
I0
sg10
I0
sg20
I0
sg43
I0
sg16
I0
sg21
I0
sg53
I0
sg29
I0
sg32
I0
sg49
I0
sg30
I0
sg15
I0
sg23
I0
sg51
I0
sg37
I0
sg11
I0
sg25
I0
ssg12
(dp233
g40
I0
sg48
I0
sg54
I0
sg31
I0
sg28
I0
sg44
I0
sg50
I0
sg13
I8
sg18
I0
sg35
I0
sg22
I0
sg45
I0
sg52
I0
sg33
I0
sg27
I8
sg14
I0
sg9
I0
sg46
I0
sg26
I0
sg8
I0
sg34
I0
sg24
I0
sg42
I0
sg38
I0
sg41
I0
sg39
I0
sg47
I0
sg17
I0
sg36
I0
sg12
I2
sg19
I0
sg10
I0
sg20
I0
sg43
I0
sg16
I0
sg21
I0
sg53
I0
sg29
I0
sg32
I0
sg49
I0
sg30
I0
sg15
I0
sg23
I0
sg51
I0
sg37
I0
sg11
I0
sg25
I0
ssg19
(dp234
g40
I0
sg48
I0
sg54
I0
sg31
I0
sg28
I0
sg44
I0
sg50
I0
sg13
I0
sg18
I0
sg35
I0
sg22
I0
sg45
I0
sg52
I0
sg33
I0
sg27
I0
sg14
I0
sg9
I0
sg46
I0
sg26
I0
sg8
I0
sg34
I0
sg24
I0
sg42
I0
sg38
I0
sg41
I0
sg39
I0
sg47
I0
sg17
I0
sg36
I0
sg12
I0
sg19
I9
sg10
I0
sg20
I0
sg43
I0
sg16
I0
sg21
I0
sg53
I0
sg29
I0
sg32
I0
sg49
I0
sg30
I0
sg15
I0
sg23
I0
sg51
I0
sg37
I0
sg11
I0
sg25
I0
ssg10
(dp235
g40
I0
sg138
I0
sg54
I0
sg31
I0
sg28
I0
sg44
I0
sg50
I0
sg13
I0
sg18
I0
sg35
I0
sg22
I0
sg146
I0
sg52
I0
sg33
I0
sg27
I0
sg14
I0
sg9
I0
sg26
I0
sg8
I0
sg34
I0
sg24
I0
sg42
I0
sg38
I0
sg41
I0
sg39
I0
sg158
I0
sg17
I0
sg36
I0
sg12
I0
sg19
I0
sg10
I6
sg20
I0
sg43
I0
sg16
I0
sg21
I0
sg53
I0
sg29
I0
sg32
I0
sg168
I0
sg30
I0
sg15
I0
sg23
I0
sg51
I0
sg37
I0
sg11
I3
sg25
I0
ssg20
(dp236
g40
I0
sg48
I0
sg54
I0
sg31
I0
sg28
I0
sg44
I0
sg50
I0
sg13
I0
sg18
I0
sg35
I0
sg22
I0
sg45
I0
sg52
I0
sg33
I0
sg27
I0
sg14
I0
sg9
I0
sg46
I0
sg26
I0
sg8
I0
sg34
I0
sg24
I0
sg42
I0
sg38
I0
sg41
I0
sg39
I0
sg47
I0
sg17
I0
sg36
I0
sg12
I0
sg19
I0
sg10
I0
sg20
I9
sg43
I0
sg16
I0
sg21
I0
sg177
I0
sg29
I0
sg32
I0
sg49
I0
sg30
I0
sg15
I0
sg23
I0
sg51
I0
sg37
I0
sg11
I0
sg25
I0
ssg43
(dp237
g40
I0
sg48
I0
sg54
I0
sg31
I0
sg28
I0
sg44
I0
sg50
I0
sg13
I0
sg18
I0
sg35
I0
sg22
I0
sg45
I0
sg33
I0
sg27
I0
sg14
I0
sg9
I0
sg46
I0
sg26
I0
sg8
I0
sg34
I0
sg24
I0
sg42
I0
sg38
I0
sg41
I0
sg39
I0
sg47
I0
sg17
I0
sg36
I0
sg12
I0
sg19
I0
sg10
I0
sg20
I0
sg43
I9
sg16
I0
sg21
I0
sg53
I0
sg29
I0
sg32
I0
sg49
I0
sg30
I0
sg15
I0
sg23
I0
sg37
I0
sg11
I0
sg25
I0
ssg16
(dp238
g40
I0
sg48
I0
sg54
I0
sg31
I0
sg28
I0
sg44
I0
sg50
I0
sg13
I0
sg18
I0
sg35
I0
sg22
I0
sg45
I0
sg52
I0
sg33
I0
sg27
I0
sg14
I0
sg9
I0
sg46
I0
sg26
I0
sg8
I0
sg34
I0
sg24
I0
sg42
I0
sg38
I0
sg41
I0
sg39
I0
sg47
I0
sg17
I0
sg36
I0
sg12
I0
sg19
I0
sg10
I0
sg20
I0
sg43
I0
sg16
I9
sg21
I0
sg53
I0
sg29
I0
sg32
I0
sg49
I0
sg30
I0
sg15
I0
sg23
I0
sg51
I0
sg37
I0
sg11
I0
sg25
I0
ssg21
(dp239
g40
I0
sg48
I0
sg54
I0
sg31
I0
sg28
I0
sg44
I0
sg50
I0
sg13
I0
sg18
I0
sg35
I0
sg22
I0
sg45
I0
sg52
I0
sg33
I0
sg27
I0
sg14
I0
sg9
I0
sg46
I0
sg26
I0
sg8
I0
sg34
I0
sg24
I0
sg42
I0
sg38
I0
sg41
I0
sg39
I0
sg47
I0
sg17
I0
sg36
I0
sg12
I0
sg19
I0
sg10
I0
sg20
I0
sg43
I0
sg16
I0
sg21
I36
sg53
I0
sg29
I0
sg32
I0
sg49
I0
sg30
I0
sg15
I0
sg23
I0
sg51
I0
sg37
I0
sg11
I0
sg25
I0
ssg53
(dp240
S'rice.n.01'
p241
I0
sS'thermos.n.01'
p242
I0
sS'bowl.n.01'
p243
I0
sS'batter.n.02'
p244
I0
sS'opening.n.10'
p245
I0
sS'apple.n.01'
p246
I0
sS'cup.n.01'
p247
I0
sS'milk.n.01'
p248
I0
sS'pan.n.01'
p249
I0
sS'pan.n.03'
p250
I0
sS'foam.n.01'
p251
I0
sS'cola.n.02'
p252
I0
sS'gap.n.03'
p253
I0
sS'fill.v.09'
p254
I0
sS'bottle.n.01'
p255
I0
sS'pot.n.01'
p256
I0
sS'fill.v.01'
p257
I0
sS'pitcher.n.02'
p258
I0
sS'measuring_cup.n.01'
p259
I0
sS'glass.n.02'
p260
I0
sS'gravy.n.01'
p261
I0
sS'salt.n.02'
p262
I0
sS'gravy.n.02'
p263
I0
sS'wok.n.01'
p264
I0
sS'coffee.n.01'
p265
I0
sS'whiskey.n.01'
p266
I0
sS'opening.n.01'
p267
I0
sS'mug.n.04'
p268
I0
sS'fruit_juice.n.01'
p269
I0
sS'teapot.n.01'
p270
I0
sS'blender.n.01'
p271
I0
sS'saltcellar.n.01'
p272
I0
sS'water.n.06'
p273
I0
sS'ice.n.01'
p274
I0
sS'kettle.n.01'
p275
I0
sS'ice.n.05'
p276
I0
sS'curd.n.01'
p277
I0
sS'jar.n.01'
p278
I0
sS'carafe.n.01'
p279
I0
sg53
I0
sS'meal.n.03'
p280
I0
ssg29
(dp281
g40
I0
sg48
I0
sg54
I1
sg31
I0
sg28
I0
sg44
I0
sg50
I0
sg13
I0
sg18
I0
sg35
I0
sg22
I0
sg45
I0
sg52
I0
sg33
I0
sg27
I0
sg14
I0
sg9
I0
sg46
I0
sg26
I0
sg8
I0
sg34
I0
sg24
I0
sg42
I0
sg38
I0
sg41
I0
sg39
I0
sg47
I0
sg17
I0
sg36
I0
sg12
I0
sg19
I0
sg10
I0
sg20
I0
sg43
I0
sg16
I0
sg21
I0
sg53
I0
sg29
I1
sg32
I0
sg49
I0
sg30
I7
sg15
I0
sg23
I0
sg51
I0
sg37
I0
sg11
I0
sg25
I0
ssg32
(dp282
g40
I0
sg48
I0
sg54
I0
sg31
I0
sg28
I0
sg44
I0
sg50
I0
sg13
I0
sg18
I0
sg35
I0
sg22
I0
sg45
I0
sg52
I0
sg33
I0
sg27
I0
sg14
I0
sg9
I0
sg46
I0
sg26
I0
sg8
I0
sg34
I0
sg24
I0
sg42
I0
sg38
I0
sg41
I0
sg39
I0
sg47
I0
sg17
I0
sg36
I0
sg12
I0
sg19
I0
sg10
I0
sg20
I0
sg43
I0
sg16
I0
sg21
I0
sg53
I0
sg29
I0
sg32
I9
sg49
I0
sg30
I0
sg15
I0
sg23
I0
sg51
I0
sg37
I0
sg11
I0
sg25
I0
ssg49
(dp283
g48
I0
sg60
I0
sg61
I0
sg62
I0
sg63
I0
sg50
I0
sg64
I0
sg65
I0
sg66
I0
sg67
I0
sg45
I0
sg68
I0
sg69
I0
sg70
I0
sg71
I0
sg72
I0
sg46
I0
sg73
I0
sg74
I0
sg52
I0
sg75
I0
sg76
I0
sg77
I0
sg78
I0
sg79
I0
sg80
I0
sg47
I0
sg54
I0
sg81
I0
sg82
I0
sg83
I0
sg84
I0
sg85
I0
sg86
I0
sg87
I0
sg88
I0
sg89
I0
sg53
I0
sg90
I0
sg49
I9
sg91
I0
sg92
I0
sg93
I0
sg51
I0
sg94
I0
sg95
I0
sg96
I0
ssg30
(dp284
g40
I0
sg48
I0
sg31
I0
sg28
I0
sg44
I0
sg50
I0
sg13
I0
sg18
I0
sg35
I0
sg22
I0
sg45
I0
sg33
I0
sg27
I0
sg14
I0
sg9
I0
sg46
I0
sg26
I0
sg8
I0
sg34
I0
sg24
I0
sg42
I0
sg38
I0
sg41
I0
sg39
I0
sg47
I0
sg17
I0
sg36
I0
sg12
I0
sg19
I0
sg10
I0
sg20
I0
sg43
I0
sg16
I0
sg21
I0
sg53
I0
sg29
I0
sg32
I0
sg49
I0
sg30
I0
sg15
I0
sg23
I0
sg37
I0
sg11
I0
sg25
I0
ssg15
(dp285
g40
I0
sg138
I0
sg54
I0
sg31
I0
sg28
I0
sg44
I0
sg50
I0
sg13
I0
sg18
I0
sg35
I0
sg22
I0
sg146
I0
sg52
I0
sg33
I0
sg27
I0
sg14
I0
sg9
I0
sg26
I0
sg8
I0
sg34
I0
sg24
I0
sg42
I0
sg38
I0
sg41
I0
sg39
I0
sg158
I0
sg17
I0
sg36
I0
sg12
I0
sg19
I0
sg10
I0
sg20
I0
sg43
I0
sg16
I0
sg21
I0
sg53
I0
sg29
I0
sg32
I0
sg168
I0
sg30
I0
sg15
I8
sg23
I0
sg51
I1
sg37
I0
sg11
I0
sg25
I0
ssg23
(dp286
g40
I0
sg48
I0
sg54
I0
sg31
I0
sg28
I0
sg44
I0
sg50
I0
sg13
I0
sg18
I0
sg35
I0
sg22
I0
sg45
I0
sg52
I0
sg33
I0
sg27
I0
sg14
I0
sg9
I0
sg46
I0
sg26
I0
sg8
I0
sg34
I0
sg24
I0
sg42
I0
sg38
I0
sg41
I0
sg39
I0
sg47
I0
sg17
I0
sg36
I0
sg12
I0
sg19
I0
sg10
I0
sg20
I0
sg43
I0
sg16
I0
sg21
I0
sg53
I0
sg29
I0
sg32
I0
sg49
I0
sg30
I0
sg15
I0
sg23
I18
sg51
I0
sg37
I0
sg11
I0
sg25
I0
ssg51
(dp287
g180
I0
sg207
I0
sg182
I0
sg183
I0
sg184
I0
sg185
I0
sg186
I0
sg187
I0
sg188
I0
sg52
I0
sg189
I0
sg190
I0
sg191
I0
sg192
I0
sg193
I0
sg194
I0
sg195
I0
sg196
I0
sg197
I0
sg198
I0
sg199
I0
sg200
I0
sg201
I0
sg202
I0
sg203
I0
sg204
I0
sg205
I0
sg206
I0
sg181
I0
sg208
I0
sg209
I0
sg210
I0
sg211
I0
sg212
I0
sg213
I0
sg51
I0
sg214
I0
sg215
I0
ssg37
(dp288
g40
I0
sg48
I0
sg31
I0
sg28
I0
sg44
I0
sg50
I0
sg13
I0
sg18
I0
sg35
I0
sg22
I0
sg45
I0
sg52
I0
sg33
I0
sg27
I0
sg14
I0
sg9
I0
sg46
I0
sg26
I0
sg8
I0
sg34
I0
sg24
I0
sg42
I0
sg38
I0
sg41
I0
sg39
I0
sg47
I0
sg17
I0
sg36
I0
sg12
I0
sg19
I0
sg10
I0
sg20
I0
sg43
I0
sg16
I0
sg21
I0
sg53
I0
sg29
I0
sg32
I0
sg49
I0
sg30
I0
sg15
I0
sg23
I0
sg51
I0
sg37
I9
sg11
I0
sg25
I0
ssg11
(dp289
g40
I0
sg138
I0
sg31
I0
sg28
I0
sg44
I0
sg50
I0
sg13
I0
sg18
I0
sg35
I0
sg22
I0
sg146
I0
sg33
I0
sg27
I0
sg14
I0
sg9
I0
sg26
I0
sg8
I0
sg34
I0
sg24
I0
sg42
I0
sg38
I0
sg41
I0
sg39
I0
sg158
I0
sg17
I0
sg36
I0
sg12
I0
sg19
I0
sg10
I0
sg20
I0
sg43
I0
sg16
I0
sg21
I0
sg29
I0
sg32
I0
sg168
I0
sg30
I0
sg15
I0
sg23
I0
sg37
I0
sg11
I0
sg25
I0
ssg25
(dp290
g40
I0
sg48
I0
sg54
I0
sg31
I0
sg28
I0
sg44
I0
sg225
I0
sg13
I0
sg18
I0
sg35
I0
sg22
I0
sg45
I0
sg52
I0
sg33
I0
sg27
I0
sg14
I0
sg9
I0
sg46
I0
sg26
I0
sg8
I0
sg34
I0
sg24
I0
sg42
I0
sg38
I0
sg41
I0
sg39
I0
sg47
I0
sg17
I0
sg36
I0
sg12
I0
sg19
I0
sg10
I0
sg20
I0
sg43
I0
sg16
I0
sg21
I0
sg53
I3
sg29
I0
sg32
I0
sg49
I0
sg30
I0
sg15
I0
sg23
I0
sg51
I0
sg37
I0
sg11
I0
sg25
I6
sssb.