ccopy_reg
_reconstructor
p0
(cutils.eval
ConfusionMatrix
p1
c__builtin__
object
p2
Ntp3
Rp4
(dp5
S'labels'
p6
(lp7
S'ActionCause'
p8
aS'CuttingTool'
p9
aS'ObjectToBeCutted'
p10
aS'Piece'
p11
asS'instanceCount'
p12
I65
sS'matrix'
p13
(dp14
g8
(dp15
g8
I25
sg9
I0
sg11
I0
sg10
I0
ssg9
(dp16
g8
I0
sg9
I8
sg11
I0
sg10
I1
ssg11
(dp17
g8
I0
sg9
I0
sg11
I6
sg10
I0
ssg10
(dp18
g8
I0
sg9
I0
sg11
I0
sg10
I25
sssb.