ccopy_reg
_reconstructor
p0
(cutils.eval
ConfusionMatrix
p1
c__builtin__
object
p2
Ntp3
Rp4
(dp5
S'labels'
p6
(lp7
S'ObjectToBeCutted'
p8
aS'ActionCause'
p9
aS'Piece'
p10
aS'CuttingTool'
p11
asS'instanceCount'
p12
I6
sS'matrix'
p13
(dp14
g9
(dp15
S'ActionCause'
p16
I2
ssg11
(dp17
S'CuttingTool'
p18
I1
ssg10
(dp19
S'Piece'
p20
I1
ssg8
(dp21
S'ObjectToBeCutted'
p22
I2
sssb.