ccopy_reg
_reconstructor
p0
(cutils.eval
ConfusionMatrix
p1
c__builtin__
object
p2
Ntp3
Rp4
(dp5
S'labels'
p6
(lp7
S'ActionCause'
p8
aS'ObjectToBeCutted'
p9
aS'Piece'
p10
aS'CuttingTool'
p11
asS'instanceCount'
p12
I55
sS'matrix'
p13
(dp14
g8
(dp15
g8
I20
sg11
I0
sg10
I0
sg9
I0
ssg11
(dp16
S'ActionCause'
p17
I0
sg11
I8
sg10
I0
sS'ObjectToBeCutted'
p18
I1
ssg10
(dp19
g17
I0
sg11
I0
sg10
I6
sg18
I0
ssg9
(dp20
g8
I0
sg11
I0
sg10
I0
sg9
I20
sssb.