ccopy_reg
_reconstructor
p0
(cutils.eval
ConfusionMatrix
p1
c__builtin__
object
p2
Ntp3
Rp4
(dp5
S'labels'
p6
(lp7
S'fill.v.01'
p8
aS'pitcher.n.02'
p9
aS'milk.n.01'
p10
aS'kettle.n.01'
p11
aS'water.n.06'
p12
aS'foam.n.01'
p13
aS'mug.n.04'
p14
aS'knife.n.01'
p15
aS'tongue.n.03'
p16
aS'banana.n.02'
p17
aS'slice.v.03'
p18
aS'slice.v.02'
p19
aS'cheese.n.01'
p20
aS'opening.n.01'
p21
aS'fill.v.09'
p22
aS'batter.n.02'
p23
asS'instanceCount'
p24
I17
sS'matrix'
p25
(dp26
g19
(dp27
g19
I0
ssg14
(dp28
S'mug.n.04'
p29
I1
ssg15
(dp30
g16
I1
ssg17
(dp31
S'banana.n.02'
p32
I1
ssg18
(dp33
g19
I1
sS'slice.v.03'
p34
I1
ssg22
(dp35
S'fill.v.01'
p36
I1
ssg12
(dp37
S'water.n.06'
p38
I1
ssg8
(dp39
S'fill.v.01'
p40
I3
ssg20
(dp41
S'cheese.n.01'
p42
I1
ssg9
(dp43
S'pitcher.n.02'
p44
I1
ssg11
(dp45
S'kettle.n.01'
p46
I1
ssg23
(dp47
S'batter.n.02'
p48
I1
ssg16
(dp49
g16
I0
ssg13
(dp50
S'foam.n.01'
p51
I1
ssg10
(dp52
S'milk.n.01'
p53
I1
ssg21
(dp54
S'opening.n.01'
p55
I1
sssb.