ccopy_reg
_reconstructor
p0
(cutils.eval
ConfusionMatrix
p1
c__builtin__
object
p2
Ntp3
Rp4
(dp5
S'labels'
p6
(lp7
S'knife.n.01'
p8
aS'tongue.n.03'
p9
aS'banana.n.02'
p10
aS'slice.v.03'
p11
aS'slice.v.02'
p12
aS'cheese.n.01'
p13
aS'opening.n.01'
p14
aS'gap.n.03'
p15
aS'fill.v.09'
p16
aS'fill.v.01'
p17
aS'batter.n.02'
p18
aS'batter.n.01'
p19
aS'piece.n.08'
p20
aS'slice.n.06'
p21
aS'pizza.n.01'
p22
aS'flesh.n.01'
p23
aS'tomato.n.01'
p24
aS'tomato.n.02'
p25
aS'cut.n.05'
p26
aS'onion.n.03'
p27
aS'onion.n.02'
p28
aS'mustard.n.02'
p29
asS'instanceCount'
p30
I17
sS'matrix'
p31
(dp32
g13
(dp33
S'cheese.n.01'
p34
I1
ssg18
(dp35
g19
I1
ssg19
(dp36
g19
I0
ssg29
(dp37
S'mustard.n.02'
p38
I1
ssg15
(dp39
g15
I0
ssg16
(dp40
g17
I1
ssg25
(dp41
g25
I0
ssg24
(dp42
g25
I1
ssg17
(dp43
g17
I0
ssg26
(dp44
g26
I0
ssg12
(dp45
g12
I0
ssg11
(dp46
g12
I4
ssg8
(dp47
g9
I1
ssg10
(dp48
S'banana.n.02'
p49
I1
ssg20
(dp50
g21
I1
sg26
I1
ssg14
(dp51
g15
I1
ssg23
(dp52
S'flesh.n.01'
p53
I1
ssg21
(dp54
g21
I0
ssg22
(dp55
S'pizza.n.01'
p56
I1
ssg9
(dp57
g9
I0
ssg27
(dp58
g28
I1
ssg28
(dp59
g28
I0
sssb.