ccopy_reg
_reconstructor
p0
(cutils.eval
ConfusionMatrix
p1
c__builtin__
object
p2
Ntp3
Rp4
(dp5
S'labels'
p6
(lp7
S'piece.n.08'
p8
aS'slice.n.06'
p9
aS'slice.v.03'
p10
aS'flesh.n.01'
p11
aS'pulp.n.02'
p12
aS'tomato.n.01'
p13
aS'tomato.n.02'
p14
aS'slice.n.04'
p15
aS'onion.n.03'
p16
aS'onion.n.02'
p17
aS'mustard.n.02'
p18
aS'fill.v.01'
p19
aS'fill.v.09'
p20
aS'pan.n.01'
p21
aS'pan.n.02'
p22
aS'water.n.06'
p23
aS'pitcher.n.02'
p24
aS'pitcher.n.05'
p25
aS'milk.n.01'
p26
aS'milk.n.04'
p27
aS'kettle.n.01'
p28
aS'kettle.n.02'
p29
asS'instanceCount'
p30
I17
sS'matrix'
p31
(dp32
g27
(dp33
g27
I0
ssg26
(dp34
g27
I1
ssg21
(dp35
g22
I1
ssg18
(dp36
S'mustard.n.02'
p37
I1
ssg22
(dp38
g22
I0
ssg20
(dp39
g20
I0
ssg14
(dp40
g14
I0
ssg13
(dp41
g14
I1
ssg19
(dp42
g20
I3
ssg24
(dp43
g25
I1
ssg25
(dp44
g25
I0
ssg10
(dp45
S'slice.v.03'
p46
I2
ssg8
(dp47
g9
I1
sg15
I1
ssg11
(dp48
g12
I1
ssg9
(dp49
g9
I0
ssg23
(dp50
S'water.n.06'
p51
I2
ssg15
(dp52
g15
I0
ssg29
(dp53
g29
I0
ssg28
(dp54
g29
I1
ssg12
(dp55
g12
I0
ssg16
(dp56
g17
I1
ssg17
(dp57
g17
I0
sssb.