ccopy_reg
_reconstructor
p0
(cutils.eval
ConfusionMatrix
p1
c__builtin__
object
p2
Ntp3
Rp4
(dp5
S'labels'
p6
(lp7
S'flesh.n.01'
p8
aS'human_body.n.01'
p9
aS'slice.v.03'
p10
aS'catsup.n.01'
p11
aS'tomato.n.01'
p12
aS'tomato.n.02'
p13
aS'piece.n.08'
p14
aS'onion.n.03'
p15
aS'onion.n.01'
p16
aS'mustard.n.02'
p17
aS'mustard.n.01'
p18
aS'fill.v.01'
p19
aS'fill.v.09'
p20
aS'pan.n.01'
p21
aS'pan.n.03'
p22
aS'water.n.06'
p23
aS'water_system.n.02'
p24
aS'pitcher.n.02'
p25
aS'pitcher.n.03'
p26
aS'milk.n.01'
p27
aS'milk.n.04'
p28
aS'kettle.n.01'
p29
aS'kettle.n.02'
p30
aS'foam.n.01'
p31
aS'mug.n.04'
p32
aS'chump.n.01'
p33
aS'knife.n.01'
p34
aS'tongue.n.03'
p35
aS'banana.n.02'
p36
aS'slice.v.02'
p37
aS'cheese.n.01'
p38
aS'knife.n.02'
p39
aS'opening.n.01'
p40
aS'gap.n.03'
p41
aS'batter.n.02'
p42
aS'slice.n.06'
p43
aS'pizza.n.01'
p44
aS'batter.n.01'
p45
aS'cut.n.05'
p46
aS'onion.n.02'
p47
aS'pulp.n.02'
p48
aS'slice.n.04'
p49
aS'kettle_hole.n.01'
p50
aS'slice.n.05'
p51
aS'pan.n.02'
p52
aS'pitcher.n.05'
p53
asS'instanceCount'
p54
I174
sS'matrix'
p55
(dp56
g38
(dp57
g38
I6
sg51
I0
sg42
I0
sg45
I0
sS'milk.n.04'
p58
I0
sS'foam.n.01'
p59
I0
sS'milk.n.01'
p60
I0
sS'pan.n.01'
p61
I0
sS'pan.n.03'
p62
I0
sg41
I0
sS'fill.v.09'
p63
I0
sS'tomato.n.02'
p64
I0
sS'tomato.n.01'
p65
I0
sS'fill.v.01'
p66
I0
sS'pitcher.n.03'
p67
I0
sS'pitcher.n.02'
p68
I0
sg46
I0
sg37
I0
sS'slice.v.03'
p69
I0
sS'chump.n.01'
p70
I0
sg34
I0
sg36
I0
sg39
I0
sS'mustard.n.02'
p71
I0
sS'catsup.n.01'
p72
I0
sS'piece.n.08'
p73
I0
sg40
I0
sS'mug.n.04'
p74
I0
sS'flesh.n.01'
p75
I0
sg43
I0
sS'water.n.06'
p76
I0
sg44
I0
sS'kettle.n.02'
p77
I0
sS'kettle.n.01'
p78
I0
sg48
I0
sg35
I0
sS'onion.n.03'
p79
I0
sg47
I0
ssg51
(dp80
S'slice.v.02'
p81
I0
sS'mug.n.04'
p82
I0
sg51
I0
sS'knife.n.01'
p83
I0
sS'pizza.n.01'
p84
I0
sS'banana.n.02'
p85
I0
sS'knife.n.02'
p86
I0
sS'fill.v.09'
p87
I0
sS'water.n.06'
p88
I0
sS'fill.v.01'
p89
I0
sS'cheese.n.01'
p90
I0
sS'kettle.n.01'
p91
I0
sS'batter.n.02'
p92
I0
sS'slice.v.03'
p93
I0
sS'foam.n.01'
p94
I0
sS'piece.n.08'
p95
I0
sS'opening.n.01'
p96
I0
ssg43
(dp97
S'cheese.n.01'
p98
I0
sg42
I0
sg45
I0
sS'milk.n.04'
p99
I0
sS'foam.n.01'
p100
I0
sS'milk.n.01'
p101
I0
sS'pan.n.01'
p102
I0
sg71
I0
sg52
I0
sg41
I0
sS'fill.v.09'
p103
I0
sg64
I0
sg65
I0
sS'fill.v.01'
p104
I0
sS'pitcher.n.02'
p105
I0
sg53
I0
sg46
I0
sS'slice.v.02'
p106
I0
sS'slice.v.03'
p107
I0
sS'chump.n.01'
p108
I0
sS'knife.n.01'
p109
I0
sS'banana.n.02'
p110
I0
sg39
I0
sS'pan.n.03'
p111
I0
sS'human_body.n.01'
p112
I0
sg72
I0
sg73
I0
sg40
I0
sS'mug.n.04'
p113
I0
sg75
I0
sg43
I0
sS'water.n.06'
p114
I0
sS'slice.n.04'
p115
I0
sg44
I0
sS'kettle.n.02'
p116
I0
sS'kettle.n.01'
p117
I0
sg48
I0
sS'tongue.n.03'
p118
I0
sg79
I0
sg47
I0
ssg42
(dp119
g98
I0
sg51
I0
sg42
I5
sg45
I1
sg100
I0
sS'milk.n.01'
p120
I0
sg102
I0
sg71
I0
sg41
I0
sg103
I0
sg64
I0
sg65
I0
sg104
I0
sS'pitcher.n.02'
p121
I0
sg46
I0
sg106
I0
sg107
I0
sg108
I0
sg109
I0
sg110
I0
sg39
I0
sg111
I0
sg112
I0
sg72
I0
sg73
I0
sg40
I0
sg113
I0
sg75
I0
sg43
I0
sS'water.n.06'
p122
I0
sg44
I0
sS'kettle.n.01'
p123
I0
sg48
I0
sS'tongue.n.03'
p124
I0
sg79
I0
sg47
I0
ssg45
(dp125
S'cheese.n.01'
p126
I0
sS'batter.n.02'
p127
I0
sg45
I0
sg71
I0
sS'gap.n.03'
p128
I0
sS'fill.v.09'
p129
I0
sg64
I0
sg65
I0
sS'fill.v.01'
p130
I0
sg46
I0
sS'slice.v.02'
p131
I0
sS'slice.v.03'
p132
I0
sS'knife.n.01'
p133
I0
sS'banana.n.02'
p134
I0
sS'piece.n.08'
p135
I0
sS'opening.n.01'
p136
I0
sS'flesh.n.01'
p137
I0
sS'slice.n.06'
p138
I0
sS'pizza.n.01'
p139
I0
sg118
I0
sg79
I0
sg47
I0
ssg28
(dp140
g38
I0
sS'slice.n.06'
p141
I0
sg28
I0
sg31
I0
sg27
I0
sg21
I0
sg18
I0
sg17
I0
sg52
I0
sg20
I0
sg13
I0
sg12
I0
sg19
I0
sg26
I0
sg25
I0
sg53
I0
sg37
I0
sg10
I0
sg33
I0
sg34
I0
sg36
I0
sg22
I0
sg9
I0
sg11
I0
sg14
I0
sg32
I0
sg8
I0
sg24
I0
sg23
I0
sg49
I0
sg30
I0
sg50
I0
sg29
I0
sS'pulp.n.02'
p142
I0
sg35
I0
sg16
I0
sg15
I0
sS'onion.n.02'
p143
I0
ssg31
(dp144
g38
I0
sg51
I0
sg43
I0
sg42
I0
sg28
I0
sg31
I5
sg27
I0
sg21
I0
sg18
I0
sg17
I0
sg41
I0
sg20
I0
sg13
I0
sg12
I0
sg19
I0
sg26
I0
sg25
I0
sg37
I0
sg10
I0
sg33
I0
sg34
I0
sg36
I0
sg39
I0
sg22
I0
sg9
I0
sg11
I0
sg14
I0
sg40
I0
sg32
I0
sg8
I0
sg24
I0
sg23
I0
sg44
I0
sg30
I0
sg29
I0
sg35
I0
sg16
I0
sg15
I0
ssg27
(dp145
g38
I0
sg141
I0
sS'batter.n.02'
p146
I0
sg28
I4
sg31
I0
sg27
I2
sg21
I0
sg18
I0
sg17
I0
sg52
I0
sS'gap.n.03'
p147
I0
sg20
I0
sg13
I0
sg12
I0
sg19
I0
sg26
I0
sg25
I0
sg53
I0
sS'cut.n.05'
p148
I0
sg37
I0
sg10
I0
sg33
I0
sg34
I0
sg36
I0
sg22
I0
sg9
I0
sg11
I0
sg14
I0
sS'opening.n.01'
p149
I0
sg32
I0
sg8
I0
sg24
I0
sg23
I0
sg49
I0
sS'pizza.n.01'
p150
I0
sg30
I0
sg50
I0
sg29
I0
sg142
I0
sg35
I0
sg16
I0
sg15
I0
sg143
I0
ssg21
(dp151
g38
I0
sS'slice.n.06'
p152
I0
sS'batter.n.02'
p153
I0
sg28
I0
sg31
I0
sg27
I0
sg21
I1
sg18
I0
sg17
I0
sg52
I1
sS'gap.n.03'
p154
I0
sg20
I0
sg13
I0
sg12
I0
sg19
I0
sg26
I0
sg25
I0
sg53
I0
sg148
I0
sg37
I0
sg10
I0
sg33
I0
sg34
I0
sg36
I0
sg22
I4
sg9
I0
sg11
I0
sg14
I0
sS'opening.n.01'
p155
I0
sg32
I0
sg8
I0
sg24
I0
sg23
I0
sg49
I0
sS'pizza.n.01'
p156
I0
sg30
I0
sg50
I0
sg29
I0
sg48
I0
sg35
I0
sg16
I0
sg15
I0
sg143
I0
ssg18
(dp157
g28
I0
sg31
I0
sg27
I0
sg21
I0
sg18
I0
sg17
I0
sg20
I0
sg13
I0
sg12
I0
sg19
I0
sg26
I0
sg25
I0
sg10
I0
sg33
I0
sg22
I0
sg9
I0
sg11
I0
sg14
I0
sg32
I0
sg8
I0
sg24
I0
sg23
I0
sg30
I0
sg29
I0
sg16
I0
sg15
I0
ssg17
(dp158
g126
I0
sg138
I0
sg127
I0
sg45
I0
sg28
I0
sg31
I0
sg27
I0
sg21
I0
sg18
I1
sg17
I5
sg52
I0
sg128
I0
sg20
I0
sg13
I0
sg12
I0
sg19
I0
sg26
I0
sg25
I0
sg53
I0
sg46
I0
sg131
I0
sg10
I0
sg33
I0
sg133
I0
sg134
I0
sg22
I0
sg9
I0
sg11
I0
sg14
I0
sg136
I0
sg32
I0
sg8
I0
sg24
I0
sg23
I0
sg49
I0
sg139
I0
sg30
I0
sg50
I0
sg29
I0
sg48
I0
sg118
I0
sg16
I0
sg15
I0
sg47
I0
ssg52
(dp159
g99
I0
sg101
I0
sS'pan.n.01'
p160
I0
sS'mustard.n.02'
p161
I0
sg52
I0
sS'fill.v.09'
p162
I0
sS'tomato.n.02'
p163
I0
sS'tomato.n.01'
p164
I0
sS'fill.v.01'
p165
I0
sg105
I0
sg53
I0
sS'slice.v.03'
p166
I0
sS'piece.n.08'
p167
I0
sS'flesh.n.01'
p168
I0
sg141
I0
sS'water.n.06'
p169
I0
sg115
I0
sg116
I0
sg117
I0
sg142
I0
sS'onion.n.03'
p170
I0
sS'onion.n.02'
p171
I0
ssg41
(dp172
g98
I0
sg42
I0
sg45
I0
sg100
I0
sS'milk.n.01'
p173
I0
sg102
I0
sg71
I0
sg41
I0
sg103
I0
sg64
I0
sg65
I0
sg104
I0
sS'pitcher.n.02'
p174
I0
sg46
I0
sg106
I0
sg107
I0
sg108
I0
sg109
I0
sg110
I0
sg39
I0
sg111
I0
sg112
I0
sg72
I0
sg73
I0
sg40
I0
sg113
I0
sg75
I0
sg43
I0
sg114
I0
sg44
I0
sg48
I0
sg118
I0
sg79
I0
sg47
I0
ssg20
(dp175
g38
I0
sg51
I0
sg43
I0
sg42
I0
sg45
I0
sg28
I0
sg31
I0
sg27
I0
sg21
I0
sg18
I0
sg17
I0
sg52
I0
sg41
I0
sg20
I0
sg13
I0
sg12
I0
sg19
I6
sg26
I0
sg25
I0
sg53
I0
sg46
I0
sg37
I0
sg10
I0
sg33
I0
sg34
I0
sg36
I0
sg39
I0
sg22
I0
sg9
I0
sg11
I0
sg14
I0
sg40
I0
sg32
I0
sg8
I0
sg24
I0
sg23
I0
sg49
I0
sg44
I0
sg30
I0
sg50
I0
sg29
I0
sg48
I0
sg35
I0
sg16
I0
sg15
I0
sg47
I0
ssg13
(dp176
g126
I0
sg138
I0
sg127
I0
sg45
I0
sg28
I0
sg31
I0
sg27
I0
sg21
I0
sg18
I0
sg17
I0
sg52
I0
sg128
I0
sg20
I0
sg13
I0
sg12
I0
sg19
I0
sg26
I0
sg25
I0
sg53
I0
sg46
I0
sg131
I0
sg10
I0
sg33
I0
sg133
I0
sg134
I0
sg22
I0
sg9
I0
sg11
I0
sg14
I0
sg136
I0
sg32
I0
sg8
I0
sg24
I0
sg23
I0
sg49
I0
sg139
I0
sg30
I0
sg50
I0
sg29
I0
sg48
I0
sg118
I0
sg16
I0
sg15
I0
sg47
I0
ssg12
(dp177
g126
I0
sg138
I0
sg127
I0
sg45
I0
sg28
I0
sg31
I0
sg27
I0
sg21
I0
sg18
I0
sg17
I0
sg52
I0
sg128
I0
sg20
I0
sg13
I6
sg12
I0
sg19
I0
sg26
I0
sg25
I0
sg53
I0
sg46
I0
sg131
I0
sg10
I0
sg33
I0
sg133
I0
sg134
I0
sg22
I0
sg9
I0
sg11
I0
sg14
I0
sg136
I0
sg32
I0
sg8
I0
sg24
I0
sg23
I0
sg49
I0
sg139
I0
sg30
I0
sg50
I0
sg29
I0
sg48
I0
sg118
I0
sg16
I0
sg15
I0
sg47
I0
ssg19
(dp178
g38
I0
sg51
I0
sg43
I0
sg42
I0
sg45
I0
sg28
I0
sg31
I0
sg27
I0
sg21
I0
sg18
I0
sg17
I0
sg52
I0
sg41
I0
sg20
I16
sg13
I0
sg12
I0
sg19
I8
sg26
I0
sg25
I0
sg53
I0
sg46
I0
sg37
I0
sg10
I0
sg33
I0
sg34
I0
sg36
I0
sg39
I0
sg22
I0
sg9
I0
sg11
I0
sg14
I0
sg40
I0
sg32
I0
sg8
I0
sg24
I0
sg23
I0
sg49
I0
sg44
I0
sg30
I0
sg50
I0
sg29
I0
sg48
I0
sg35
I0
sg16
I0
sg15
I0
sg47
I0
ssg26
(dp179
g38
I0
sg28
I0
sg31
I0
sg27
I0
sg21
I0
sg18
I0
sg17
I0
sg20
I0
sg13
I0
sg12
I0
sg19
I0
sg26
I0
sg25
I0
sg37
I0
sg10
I0
sg33
I0
sg34
I0
sg36
I0
sg22
I0
sg9
I0
sg11
I0
sg14
I0
sg32
I0
sg8
I0
sg24
I0
sg23
I0
sg49
I0
sg30
I0
sg50
I0
sg29
I0
sg35
I0
sg16
I0
sg15
I0
sg143
I0
ssg25
(dp180
g38
I0
sg141
I0
sg146
I0
sg28
I0
sg31
I0
sg27
I0
sg21
I0
sg18
I0
sg17
I0
sg52
I0
sg147
I0
sg20
I0
sg13
I0
sg12
I0
sg19
I0
sg26
I3
sg25
I2
sg53
I1
sg148
I0
sg37
I0
sg10
I0
sg33
I0
sg34
I0
sg36
I0
sg22
I0
sg9
I0
sg11
I0
sg14
I0
sg149
I0
sg32
I0
sg8
I0
sg24
I0
sg23
I0
sg49
I0
sg150
I0
sg30
I0
sg50
I0
sg29
I0
sg142
I0
sg35
I0
sg16
I0
sg15
I0
sg143
I0
ssg53
(dp181
g99
I0
sg101
I0
sg160
I0
sg161
I0
sg52
I0
sg162
I0
sg163
I0
sg164
I0
sg165
I0
sg105
I0
sg53
I0
sg166
I0
sg167
I0
sg168
I0
sg141
I0
sg169
I0
sg115
I0
sg116
I0
sg117
I0
sg142
I0
sg170
I0
sg171
I0
ssg46
(dp182
g126
I0
sg127
I0
sg45
I0
sg173
I0
sS'pan.n.01'
p183
I0
sg71
I0
sg128
I0
sg129
I0
sg64
I0
sg65
I0
sg130
I0
sg174
I0
sg46
I0
sg131
I0
sg132
I0
sg133
I0
sg134
I0
sg112
I0
sg135
I0
sg136
I0
sg137
I0
sg138
I0
sS'water.n.06'
p184
I0
sg139
I0
sg118
I0
sg79
I0
sg47
I0
ssg37
(dp185
g38
I0
sg51
I0
sg42
I0
sg45
I0
sg58
I0
sg59
I0
sg60
I0
sg61
I0
sg62
I0
sg41
I0
sg63
I0
sg64
I0
sg65
I0
sg66
I0
sg67
I0
sg68
I0
sg46
I0
sg37
I0
sg69
I0
sg70
I0
sg34
I0
sg36
I0
sg39
I0
sg71
I0
sg73
I0
sg40
I0
sg74
I0
sg75
I0
sg43
I0
sg76
I0
sg44
I0
sg77
I0
sg78
I0
sg35
I0
sg79
I0
sg47
I0
ssg10
(dp186
g38
I0
sg51
I0
sg43
I0
sg42
I0
sg45
I0
sg28
I0
sg31
I0
sg27
I0
sg21
I0
sg18
I0
sg17
I0
sg52
I0
sg41
I0
sg20
I0
sg13
I0
sg12
I0
sg19
I0
sg26
I0
sg25
I0
sg53
I0
sg46
I0
sg37
I12
sg10
I12
sg33
I0
sg34
I0
sg36
I0
sg39
I0
sg22
I0
sg9
I0
sg11
I0
sg14
I0
sg40
I0
sg32
I0
sg8
I0
sg24
I0
sg23
I0
sg49
I0
sg44
I0
sg30
I0
sg50
I0
sg29
I0
sg48
I0
sg35
I0
sg16
I0
sg15
I0
sg47
I0
ssg33
(dp187
g38
I0
sg43
I0
sg42
I0
sg28
I0
sg31
I0
sg27
I0
sg21
I0
sg18
I0
sg17
I0
sg41
I0
sg20
I0
sg13
I0
sg12
I0
sg19
I0
sg26
I0
sg25
I0
sg37
I0
sg10
I0
sg33
I0
sg34
I0
sg36
I0
sg39
I0
sg22
I0
sg9
I0
sg11
I0
sg14
I0
sg40
I0
sg32
I0
sg8
I0
sg24
I0
sg23
I0
sg49
I0
sg44
I0
sg30
I0
sg50
I0
sg29
I0
sg35
I0
sg16
I0
sg15
I0
sg143
I0
ssg34
(dp188
g38
I0
sg51
I0
sg42
I0
sg45
I0
sg58
I0
sg59
I0
sg60
I0
sg61
I0
sg62
I0
sg41
I0
sg63
I0
sg64
I0
sg65
I0
sg66
I0
sg67
I0
sg68
I0
sg46
I0
sg37
I0
sg69
I0
sg70
I0
sg34
I0
sg36
I0
sg39
I2
sg71
I0
sg73
I0
sg40
I0
sg74
I0
sg75
I0
sg43
I0
sg76
I0
sg49
I0
sg44
I0
sg77
I0
sg50
I0
sg78
I0
sg35
I4
sg79
I0
sg47
I0
ssg36
(dp189
g38
I0
sg51
I0
sg42
I0
sg45
I0
sg58
I0
sg59
I0
sg60
I0
sg61
I0
sg62
I0
sg41
I0
sg63
I0
sg64
I0
sg65
I0
sg66
I0
sg67
I0
sg68
I0
sg46
I0
sg37
I0
sg69
I0
sg70
I0
sg34
I0
sg36
I6
sg39
I0
sg71
I0
sg73
I0
sg40
I0
sg74
I0
sg75
I0
sg43
I0
sg76
I0
sg49
I0
sg44
I0
sg77
I0
sg50
I0
sg78
I0
sg35
I0
sg79
I0
sg47
I0
ssg39
(dp190
g106
I0
sg113
I0
sg108
I0
sg51
I0
sg109
I0
sg41
I0
sg110
I0
sg103
I0
sg39
I0
sg43
I0
sg88
I0
sg104
I0
sg98
I0
sg44
I0
sg42
I0
sg91
I0
sg75
I0
sg107
I0
sg100
I0
sg73
I0
sg40
I0
ssg22
(dp191
g38
I0
sg152
I0
sg153
I0
sg28
I0
sg31
I0
sg27
I0
sg21
I0
sg18
I0
sg22
I0
sg154
I0
sg20
I0
sg13
I0
sg12
I0
sg19
I0
sg26
I0
sg25
I0
sg37
I0
sg10
I0
sg33
I0
sg34
I0
sg36
I0
sg17
I0
sg9
I0
sg11
I0
sg14
I0
sg155
I0
sg32
I0
sg8
I0
sg24
I0
sg23
I0
sg49
I0
sg156
I0
sg30
I0
sg50
I0
sg29
I0
sg48
I0
sg35
I0
sg16
I0
sg15
I0
sg143
I0
ssg9
(dp192
S'slice.n.06'
p193
I0
sS'batter.n.02'
p194
I0
sg28
I0
sg31
I0
sg27
I0
sg21
I0
sg18
I0
sg17
I0
sg147
I0
sg20
I0
sg13
I0
sg12
I0
sg19
I0
sg26
I0
sg25
I0
sg148
I0
sg10
I0
sg33
I0
sg22
I0
sg9
I0
sg11
I0
sg14
I0
sS'opening.n.01'
p195
I0
sg32
I0
sg8
I0
sg24
I0
sg23
I0
sg150
I0
sg30
I0
sg29
I0
sg16
I0
sg15
I0
sS'onion.n.02'
p196
I0
ssg11
(dp197
S'cheese.n.01'
p198
I0
sg152
I0
sg153
I0
sg28
I0
sg31
I0
sg27
I0
sg21
I0
sg18
I0
sg17
I0
sg154
I0
sg20
I0
sg13
I0
sg12
I0
sg19
I0
sg26
I0
sg25
I0
sg10
I0
sg33
I0
sg22
I0
sg9
I0
sg11
I2
sg14
I0
sg155
I0
sg32
I0
sg8
I0
sg24
I0
sg23
I0
sg156
I0
sg30
I0
sg29
I0
sg48
I0
sg16
I0
sg15
I0
ssg14
(dp199
g98
I0
sg51
I1
sg43
I6
sg42
I0
sg45
I0
sg28
I0
sg31
I0
sg27
I0
sg21
I0
sg18
I0
sg17
I0
sg52
I0
sg41
I0
sg20
I0
sg13
I0
sg12
I0
sg19
I0
sg26
I0
sg25
I0
sg53
I0
sg46
I2
sg106
I0
sg10
I0
sg33
I0
sg109
I0
sg110
I0
sg39
I0
sg22
I0
sg9
I0
sg11
I0
sg14
I1
sg40
I0
sg32
I0
sg8
I0
sg24
I0
sg23
I0
sg49
I2
sg44
I0
sg30
I0
sg50
I0
sg29
I0
sg48
I0
sg118
I0
sg16
I0
sg15
I0
sg47
I0
ssg40
(dp200
g98
I0
sg51
I0
sg42
I0
sg45
I0
sg100
I0
sg120
I0
sg102
I0
sg71
I0
sg41
I4
sg103
I0
sg64
I0
sg65
I0
sg104
I0
sg121
I0
sg46
I0
sg106
I0
sg107
I0
sg108
I0
sg109
I0
sg110
I0
sg39
I0
sg111
I0
sg112
I0
sg72
I0
sg73
I0
sg40
I2
sg113
I0
sg75
I0
sg43
I0
sg122
I0
sg44
I0
sg123
I0
sg48
I0
sg124
I0
sg79
I0
sg47
I0
ssg32
(dp201
g38
I0
sg51
I0
sg43
I0
sg42
I0
sg28
I0
sg31
I0
sg27
I0
sg21
I0
sg18
I0
sg17
I0
sg41
I0
sg20
I0
sg13
I0
sg12
I0
sg19
I0
sg26
I0
sg25
I0
sg37
I0
sg10
I0
sg33
I4
sg34
I0
sg36
I0
sg39
I0
sg22
I0
sg9
I0
sg11
I0
sg14
I0
sg40
I0
sg32
I2
sg8
I0
sg24
I0
sg23
I0
sg49
I0
sg44
I0
sg30
I0
sg50
I0
sg29
I0
sg35
I0
sg16
I0
sg15
I0
sg143
I0
ssg8
(dp202
g98
I0
sg43
I0
sg42
I0
sg45
I0
sg28
I0
sg31
I0
sg27
I0
sg21
I0
sg18
I0
sg17
I0
sg52
I0
sg41
I0
sg20
I0
sg13
I0
sg12
I0
sg19
I0
sg26
I0
sg25
I0
sg53
I0
sg46
I0
sg106
I0
sg10
I0
sg33
I0
sg109
I0
sg110
I0
sg39
I0
sg22
I0
sg9
I2
sg11
I0
sg14
I0
sg40
I0
sg32
I0
sg8
I2
sg24
I0
sg23
I0
sg115
I0
sg44
I0
sg30
I0
sg29
I0
sg48
I2
sg118
I0
sg16
I0
sg15
I0
sg47
I0
ssg24
(dp203
g28
I0
sg31
I0
sg27
I0
sg21
I0
sg18
I0
sg17
I0
sg20
I0
sg13
I0
sg12
I0
sg19
I0
sg26
I0
sg25
I0
sg10
I0
sg33
I0
sg22
I0
sg9
I0
sg11
I0
sg14
I0
sg32
I0
sg8
I0
sg24
I0
sg23
I0
sg30
I0
sg29
I0
sg16
I0
sg15
I0
ssg23
(dp204
g38
I0
sg51
I0
sg152
I0
sg146
I0
sg28
I0
sg31
I0
sg27
I0
sg21
I0
sg18
I0
sg17
I0
sg52
I0
sg154
I0
sg20
I0
sg13
I0
sg12
I0
sg19
I0
sg26
I0
sg25
I0
sg53
I0
sg148
I0
sg37
I0
sg10
I0
sg33
I0
sg34
I0
sg36
I0
sg86
I0
sg22
I0
sg9
I0
sg11
I0
sg14
I0
sg149
I0
sg32
I0
sg8
I0
sg24
I1
sg23
I11
sg49
I0
sg156
I0
sg30
I0
sg50
I0
sg29
I0
sg48
I0
sg35
I0
sg16
I0
sg15
I0
sg143
I0
ssg49
(dp205
S'milk.n.04'
p206
I0
sS'milk.n.01'
p207
I0
sS'pan.n.01'
p208
I0
sS'mustard.n.02'
p209
I0
sg52
I0
sS'fill.v.09'
p210
I0
sS'tomato.n.02'
p211
I0
sS'tomato.n.01'
p212
I0
sS'fill.v.01'
p213
I0
sS'pitcher.n.03'
p214
I0
sS'pitcher.n.02'
p215
I0
sg53
I0
sS'slice.v.03'
p216
I0
sS'chump.n.01'
p217
I0
sS'knife.n.01'
p218
I0
sS'banana.n.02'
p219
I0
sS'pan.n.03'
p220
I0
sS'piece.n.08'
p221
I0
sS'mug.n.04'
p222
I0
sg168
I0
sg141
I0
sS'water.n.06'
p223
I0
sg49
I0
sg116
I0
sg50
I0
sS'kettle.n.01'
p224
I0
sg142
I0
sS'tongue.n.03'
p225
I0
sS'onion.n.03'
p226
I0
sg143
I0
ssg44
(dp227
g98
I0
sg51
I0
sg42
I0
sg45
I0
sg100
I0
sg173
I0
sg102
I0
sg71
I0
sg41
I0
sg103
I0
sg64
I0
sg65
I0
sg104
I0
sg174
I0
sg46
I0
sg106
I0
sg107
I0
sg108
I0
sg109
I0
sg110
I0
sg39
I0
sg111
I0
sg112
I0
sg72
I0
sg73
I0
sg40
I0
sg113
I0
sg75
I0
sg43
I0
sg114
I0
sg44
I5
sg91
I0
sg48
I0
sg118
I0
sg79
I0
sg47
I0
ssg30
(dp228
g38
I0
sg141
I0
sg28
I0
sg31
I0
sg27
I0
sg21
I0
sg18
I0
sg17
I0
sg52
I0
sg20
I0
sg13
I0
sg12
I0
sg19
I0
sg26
I0
sg25
I0
sg53
I0
sg37
I0
sg10
I0
sg33
I0
sg34
I0
sg36
I0
sg22
I0
sg9
I0
sg11
I0
sg14
I0
sg32
I0
sg8
I0
sg24
I0
sg23
I0
sg115
I0
sg30
I0
sg29
I0
sg142
I0
sg35
I0
sg16
I0
sg15
I0
sg171
I0
ssg50
(dp229
g206
I0
sg207
I0
sg208
I0
sg209
I0
sg210
I0
sg211
I0
sg212
I0
sg213
I0
sg214
I0
sg215
I0
sg216
I0
sg217
I0
sg218
I0
sg219
I0
sg220
I0
sg221
I0
sg222
I0
sg223
I0
sg49
I0
sg50
I0
sg224
I0
sg225
I0
sg226
I0
sg143
I0
ssg29
(dp230
g38
I0
sg141
I0
sg84
I0
sg146
I0
sg28
I0
sg31
I0
sg27
I0
sg21
I0
sg18
I0
sg17
I0
sg52
I0
sg20
I0
sg13
I0
sg12
I0
sg19
I0
sg26
I0
sg25
I0
sg53
I0
sg37
I0
sg10
I0
sg33
I0
sg34
I0
sg36
I0
sg86
I0
sg22
I0
sg9
I0
sg11
I0
sg14
I0
sg149
I0
sg32
I0
sg8
I0
sg24
I0
sg23
I0
sg49
I0
sg51
I0
sg30
I3
sg50
I1
sg29
I2
sg142
I0
sg35
I0
sg16
I0
sg15
I0
sg143
I0
ssg48
(dp231
g198
I0
sg153
I0
sg99
I0
sg101
I0
sg102
I0
sS'mustard.n.02'
p232
I0
sg52
I0
sg154
I0
sS'fill.v.09'
p233
I0
sS'tomato.n.02'
p234
I0
sS'tomato.n.01'
p235
I0
sS'fill.v.01'
p236
I0
sg105
I0
sg53
I0
sS'slice.v.03'
p237
I0
sg111
I0
sg72
I0
sS'piece.n.08'
p238
I0
sg155
I0
sS'flesh.n.01'
p239
I0
sg152
I0
sg114
I0
sg115
I0
sg156
I0
sg116
I0
sg117
I0
sg48
I0
sS'onion.n.03'
p240
I0
sg171
I0
ssg35
(dp241
g38
I0
sg146
I0
sg45
I0
sg58
I0
sg59
I0
sg60
I0
sg61
I0
sg62
I0
sg128
I0
sg63
I0
sg64
I0
sg65
I0
sg66
I0
sg67
I0
sg68
I0
sg46
I0
sg37
I0
sg69
I0
sg70
I0
sg34
I0
sg36
I0
sg71
I0
sg135
I0
sg149
I0
sg74
I0
sg137
I0
sg138
I0
sg76
I0
sg49
I0
sg139
I0
sg77
I0
sg50
I0
sg78
I0
sg35
I0
sg79
I0
sg47
I0
ssg16
(dp242
g28
I0
sg31
I0
sg27
I0
sg21
I0
sg18
I0
sg17
I0
sg20
I0
sg13
I0
sg12
I0
sg19
I0
sg26
I0
sg25
I0
sg10
I0
sg33
I0
sg22
I0
sg9
I0
sg11
I0
sg14
I0
sg32
I0
sg8
I0
sg24
I0
sg23
I0
sg30
I0
sg29
I0
sg16
I0
sg15
I0
ssg15
(dp243
g126
I0
sg138
I0
sg127
I0
sg45
I0
sg28
I0
sg31
I0
sg27
I0
sg21
I0
sg18
I0
sg17
I0
sg52
I0
sg128
I0
sg20
I0
sg13
I0
sg12
I0
sg19
I0
sg26
I0
sg25
I0
sg53
I0
sg46
I0
sg131
I0
sg10
I0
sg33
I0
sg133
I0
sg134
I0
sg22
I0
sg9
I0
sg11
I0
sg14
I0
sg136
I0
sg32
I0
sg8
I0
sg24
I0
sg23
I0
sg49
I0
sg139
I0
sg30
I0
sg50
I0
sg29
I0
sg48
I0
sg118
I0
sg16
I1
sg15
I1
sg47
I4
ssg47
(dp244
g126
I0
sg127
I0
sg45
I0
sg206
I0
sg207
I0
sg208
I0
sg71
I0
sg52
I0
sg128
I0
sg129
I0
sg64
I0
sg65
I0
sg130
I0
sg214
I0
sg215
I0
sg53
I0
sg46
I0
sg131
I0
sg132
I0
sg217
I0
sg133
I0
sg134
I0
sg220
I0
sg112
I0
sg135
I0
sg136
I0
sg222
I0
sg137
I0
sg138
I0
sg223
I0
sg49
I0
sg139
I0
sg116
I0
sg50
I0
sg224
I0
sg142
I0
sg118
I0
sg79
I0
sg47
I0
sssb.