ccopy_reg
_reconstructor
p0
(cutils.eval
ConfusionMatrix
p1
c__builtin__
object
p2
Ntp3
Rp4
(dp5
S'labels'
p6
(lp7
S'fill.v.01'
p8
aS'fill.v.09'
p9
aS'foam.n.01'
p10
aS'mug.n.04'
p11
aS'chump.n.01'
p12
aS'knife.n.01'
p13
aS'knife.n.02'
p14
aS'banana.n.02'
p15
aS'slice.v.03'
p16
aS'slice.v.02'
p17
aS'cheese.n.01'
p18
aS'opening.n.01'
p19
aS'gap.n.03'
p20
aS'batter.n.02'
p21
aS'piece.n.08'
p22
aS'slice.n.06'
p23
aS'pizza.n.01'
p24
aS'flesh.n.01'
p25
asS'instanceCount'
p26
I16
sS'matrix'
p27
(dp28
g17
(dp29
g17
I0
ssg11
(dp30
g12
I1
ssg12
(dp31
g12
I0
ssg13
(dp32
g14
I1
ssg20
(dp33
g20
I0
ssg15
(dp34
S'banana.n.02'
p35
I1
ssg9
(dp36
S'fill.v.01'
p37
I1
sg9
I0
ssg14
(dp38
g14
I0
ssg23
(dp39
g23
I0
ssg8
(dp40
g9
I1
ssg18
(dp41
S'cheese.n.01'
p42
I1
ssg24
(dp43
S'pizza.n.01'
p44
I1
ssg21
(dp45
S'batter.n.02'
p46
I1
ssg25
(dp47
S'flesh.n.01'
p48
I1
ssg16
(dp49
g17
I4
ssg10
(dp50
S'foam.n.01'
p51
I1
ssg22
(dp52
g23
I1
ssg19
(dp53
g20
I1
sssb.