ccopy_reg
_reconstructor
p0
(cutils.eval
ConfusionMatrix
p1
c__builtin__
object
p2
Ntp3
Rp4
(dp5
S'labels'
p6
(lp7
S'flesh.n.01'
p8
aS'human_body.n.01'
p9
aS'slice.v.03'
p10
aS'catsup.n.01'
p11
aS'tomato.n.01'
p12
aS'tomato.n.02'
p13
aS'piece.n.08'
p14
aS'onion.n.03'
p15
aS'onion.n.01'
p16
aS'mustard.n.02'
p17
aS'mustard.n.01'
p18
aS'fill.v.01'
p19
aS'fill.v.09'
p20
aS'pan.n.01'
p21
aS'pan.n.03'
p22
aS'water.n.06'
p23
aS'water_system.n.02'
p24
aS'pitcher.n.02'
p25
aS'pitcher.n.03'
p26
aS'milk.n.01'
p27
aS'milk.n.04'
p28
aS'kettle.n.01'
p29
aS'kettle.n.02'
p30
aS'foam.n.01'
p31
aS'mug.n.04'
p32
aS'chump.n.01'
p33
asS'instanceCount'
p34
I19
sS'matrix'
p35
(dp36
g28
(dp37
g28
I0
ssg31
(dp38
S'foam.n.01'
p39
I1
ssg27
(dp40
g28
I1
ssg21
(dp41
g22
I1
ssg18
(dp42
g18
I0
ssg17
(dp43
g18
I1
ssg20
(dp44
g20
I0
ssg13
(dp45
g13
I0
ssg12
(dp46
g13
I1
ssg19
(dp47
g20
I4
ssg26
(dp48
g26
I0
ssg25
(dp49
g26
I1
ssg10
(dp50
S'slice.v.03'
p51
I1
ssg33
(dp52
g33
I0
ssg22
(dp53
g22
I0
ssg9
(dp54
g9
I0
ssg11
(dp55
S'catsup.n.01'
p56
I1
ssg14
(dp57
S'piece.n.08'
p58
I1
ssg32
(dp59
g33
I1
ssg8
(dp60
g9
I1
ssg24
(dp61
g24
I0
ssg23
(dp62
g24
I1
sS'water.n.06'
p63
I1
ssg30
(dp64
g30
I0
ssg29
(dp65
g30
I1
ssg16
(dp66
g16
I0
ssg15
(dp67
g16
I1
sssb.