ccopy_reg
_reconstructor
p0
(cutils.eval
ConfusionMatrix
p1
c__builtin__
object
p2
Ntp3
Rp4
(dp5
S'labels'
p6
(lp7
S'stir.v.01'
p8
aS'tea.n.01'
p9
aS'wine.n.01'
p10
asS'instanceCount'
p11
I4
sS'matrix'
p12
(dp13
g8
(dp14
S'stir.v.01'
p15
I2
ssg9
(dp16
S'tea.n.01'
p17
I1
ssg10
(dp18
S'wine.n.01'
p19
I1
sssb.