ccopy_reg
_reconstructor
p0
(cutils.eval
ConfusionMatrix
p1
c__builtin__
object
p2
Ntp3
Rp4
(dp5
S'labels'
p6
(lp7
S'cut.v.01'
p8
aS'swerve.v.01'
p9
aS'fork.n.01'
p10
aS'crotch.n.02'
p11
aS'cake.n.03'
p12
aS'patty.n.01'
p13
aS'flesh.n.01'
p14
aS'human_body.n.01'
p15
asS'instanceCount'
p16
I5
sS'matrix'
p17
(dp18
g8
(dp19
g9
I2
ssg9
(dp20
g9
I0
ssg14
(dp21
g15
I1
ssg11
(dp22
g11
I0
ssg13
(dp23
g13
I0
ssg15
(dp24
g15
I0
ssg12
(dp25
g13
I1
ssg10
(dp26
g11
I1
sssb.