ccopy_reg
_reconstructor
p0
(cutils.eval
ConfusionMatrix
p1
c__builtin__
object
p2
Ntp3
Rp4
(dp5
S'labels'
p6
(lp7
S'piece.n.08'
p8
aS'cut.v.01'
p9
aS'pizza.n.01'
p10
aS'potato.n.01'
p11
aS'potato.n.02'
p12
asS'instanceCount'
p13
I6
sS'matrix'
p14
(dp15
g11
(dp16
g12
I1
ssg8
(dp17
S'piece.n.08'
p18
I2
ssg9
(dp19
S'cut.v.01'
p20
I2
ssg12
(dp21
g12
I0
ssg10
(dp22
S'pizza.n.01'
p23
I1
sssb.