ccopy_reg
_reconstructor
p0
(cutils.eval
ConfusionMatrix
p1
c__builtin__
object
p2
Ntp3
Rp4
(dp5
S'labels'
p6
(lp7
S'egg.n.02'
p8
aS'cut.v.01'
p9
aS'piece.n.08'
p10
aS'cut.v.33'
p11
aS'mushroom.n.05'
p12
asS'instanceCount'
p13
I5
sS'matrix'
p14
(dp15
g12
(dp16
S'mushroom.n.05'
p17
I1
ssg8
(dp18
S'egg.n.02'
p19
I1
ssg10
(dp20
S'piece.n.08'
p21
I1
ssg9
(dp22
S'cut.v.01'
p23
I1
sg11
I1
ssg11
(dp24
g11
I0
sssb.