ccopy_reg
_reconstructor
p0
(cutils.eval
ConfusionMatrix
p1
c__builtin__
object
p2
Ntp3
Rp4
(dp5
S'labels'
p6
(lp7
S'zucchini.n.01'
p8
aS'zucchini.n.02'
p9
aS'cut.v.01'
p10
aS'swerve.v.01'
p11
aS'piece.n.08'
p12
aS'orange.n.01'
p13
aS'orange.n.05'
p14
asS'instanceCount'
p15
I5
sS'matrix'
p16
(dp17
g10
(dp18
S'cut.v.01'
p19
I1
sg11
I1
ssg11
(dp20
g11
I0
ssg13
(dp21
g14
I1
ssg9
(dp22
g9
I0
ssg14
(dp23
g14
I0
ssg8
(dp24
g9
I1
ssg12
(dp25
S'piece.n.08'
p26
I1
sssb.