ccopy_reg
_reconstructor
p0
(cutils.eval
ConfusionMatrix
p1
c__builtin__
object
p2
Ntp3
Rp4
(dp5
S'labels'
p6
(lp7
S'cut.v.01'
p8
aS'lemon.n.01'
p9
aS'vegetable.n.01'
p10
aS'vegetable.n.02'
p11
aS'knife.n.01'
p12
asS'instanceCount'
p13
I5
sS'matrix'
p14
(dp15
g11
(dp16
g11
I0
ssg10
(dp17
g11
I1
ssg8
(dp18
S'cut.v.01'
p19
I2
ssg12
(dp20
S'knife.n.01'
p21
I1
ssg9
(dp22
S'lemon.n.01'
p23
I1
sssb.