ccopy_reg
_reconstructor
p0
(cutils.eval
ConfusionMatrix
p1
c__builtin__
object
p2
Ntp3
Rp4
(dp5
S'labels'
p6
(lp7
S'cut.v.01'
p8
aS'bread.n.01'
p9
aS'knife.n.01'
p10
aS'meat.n.01'
p11
aS'cleaver.n.01'
p12
aS'lemon.n.01'
p13
aS'cabbage.n.01'
p14
aS'cheese.n.01'
p15
aS'fork.n.01'
p16
aS'fork.n.04'
p17
aS'cake.n.03'
p18
aS'bacon.n.01'
p19
aS'egg.n.02'
p20
aS'piece.n.08'
p21
aS'slice.n.06'
p22
aS'orange.n.01'
p23
aS'zucchini.n.01'
p24
aS'zucchini.n.02'
p25
aS'banana.n.02'
p26
aS'tomato.n.01'
p27
aS'olive.n.01'
p28
aS'olive.n.04'
p29
aS'mushroom.n.05'
p30
aS'flesh.n.01'
p31
aS'human_body.n.01'
p32
aS'green_onion.n.01'
p33
aS'pizza.n.01'
p34
aS'vegetable.n.01'
p35
aS'potato.n.01'
p36
aS'knife.n.02'
p37
aS'helicopter.n.01'
p38
aS'pulp.n.02'
p39
asS'instanceCount'
p40
I306
sS'matrix'
p41
(dp42
g30
(dp43
g30
I6
sS'cheese.n.01'
p44
I0
sS'bread.n.01'
p45
I0
sS'orange.n.01'
p46
I0
sS'zucchini.n.02'
p47
I0
sS'zucchini.n.01'
p48
I0
sS'knife.n.01'
p49
I0
sg33
I0
sS'cut.v.01'
p50
I0
sS'egg.n.02'
p51
I0
sS'tomato.n.01'
p52
I0
sg37
I0
sS'bacon.n.01'
p53
I0
sS'meat.n.01'
p54
I0
sg36
I0
sS'cleaver.n.01'
p55
I0
sg28
I0
sS'cabbage.n.01'
p56
I0
sS'banana.n.02'
p57
I0
sg29
I0
sS'fork.n.04'
p58
I0
sS'fork.n.01'
p59
I0
sg32
I0
sS'piece.n.08'
p60
I0
sg35
I0
sg31
I0
sg38
I0
sS'slice.n.06'
p61
I0
sg34
I0
sS'cake.n.03'
p62
I0
sS'lemon.n.01'
p63
I0
ssg15
(dp64
g30
I0
sg15
I6
sg9
I0
sg23
I0
sg25
I0
sg24
I0
sg14
I0
sS'green_onion.n.01'
p65
I0
sg8
I0
sg20
I0
sg27
I0
sg19
I0
sg12
I0
sS'potato.n.01'
p66
I0
sg11
I0
sg28
I0
sg10
I0
sg26
I0
sg29
I0
sg17
I0
sg16
I0
sS'human_body.n.01'
p67
I0
sg21
I0
sS'vegetable.n.01'
p68
I0
sS'flesh.n.01'
p69
I0
sg22
I0
sS'pizza.n.01'
p70
I0
sg18
I0
sg13
I0
sg39
I0
ssg9
(dp71
S'mushroom.n.05'
p72
I0
sg15
I0
sg9
I6
sg23
I0
sg25
I0
sg24
I0
sg14
I0
sS'green_onion.n.01'
p73
I0
sg8
I0
sg20
I0
sg27
I0
sS'olive.n.04'
p74
I0
sg19
I0
sg12
I0
sg66
I0
sg11
I0
sS'olive.n.01'
p75
I0
sg10
I0
sg26
I0
sg37
I0
sg17
I0
sg16
I0
sS'human_body.n.01'
p76
I0
sg21
I0
sS'vegetable.n.01'
p77
I0
sS'flesh.n.01'
p78
I0
sg38
I0
sg22
I0
sS'pizza.n.01'
p79
I0
sg18
I0
sg13
I0
sg39
I0
ssg23
(dp80
g30
I0
sg15
I0
sg9
I0
sg23
I6
sg25
I0
sg24
I0
sg14
I0
sg33
I0
sg8
I0
sg20
I0
sg27
I0
sg19
I0
sg12
I0
sg36
I0
sg11
I0
sg28
I0
sg10
I0
sg26
I0
sg29
I0
sg17
I0
sg16
I0
sg32
I0
sg21
I0
sg35
I0
sg31
I0
sg22
I0
sg34
I0
sg18
I0
sg13
I0
ssg25
(dp81
g30
I0
sg15
I0
sg9
I0
sg23
I0
sg25
I0
sg24
I0
sg14
I0
sg33
I0
sg8
I0
sg20
I0
sg27
I0
sg19
I0
sg12
I0
sg36
I0
sg11
I0
sg28
I0
sg10
I0
sg26
I0
sg29
I0
sg17
I0
sg16
I0
sg32
I0
sg21
I0
sg35
I0
sg31
I0
sg22
I0
sg34
I0
sg18
I0
sg13
I0
ssg24
(dp82
g30
I0
sg15
I0
sg9
I0
sg23
I0
sg25
I6
sg24
I0
sg14
I0
sg33
I0
sg8
I0
sg20
I0
sg27
I0
sg19
I0
sg12
I0
sg36
I0
sg11
I0
sg28
I0
sg10
I0
sg26
I0
sg29
I0
sg17
I0
sg16
I0
sg32
I0
sg21
I0
sg35
I0
sg31
I0
sg22
I0
sg34
I0
sg18
I0
sg13
I0
ssg14
(dp83
g30
I0
sg15
I0
sg9
I0
sg23
I0
sg25
I0
sg24
I0
sg14
I6
sS'green_onion.n.01'
p84
I0
sg8
I0
sg20
I0
sg27
I0
sg19
I0
sg12
I0
sg66
I0
sg11
I0
sg28
I0
sg10
I0
sg26
I0
sg29
I0
sg17
I0
sg16
I0
sS'human_body.n.01'
p85
I0
sg21
I0
sS'vegetable.n.01'
p86
I0
sS'flesh.n.01'
p87
I0
sg22
I0
sS'pizza.n.01'
p88
I0
sg18
I0
sg13
I0
sg39
I0
ssg33
(dp89
S'mushroom.n.05'
p90
I0
sS'cheese.n.01'
p91
I0
sg45
I0
sS'orange.n.01'
p92
I0
sS'zucchini.n.02'
p93
I0
sS'zucchini.n.01'
p94
I0
sS'cabbage.n.01'
p95
I0
sg33
I6
sS'cut.v.01'
p96
I0
sS'egg.n.02'
p97
I0
sS'tomato.n.01'
p98
I0
sg37
I0
sS'bacon.n.01'
p99
I0
sg54
I0
sg36
I0
sg55
I0
sS'olive.n.01'
p100
I0
sS'knife.n.01'
p101
I0
sS'banana.n.02'
p102
I0
sS'olive.n.04'
p103
I0
sS'fork.n.04'
p104
I0
sS'fork.n.01'
p105
I0
sg32
I0
sS'piece.n.08'
p106
I0
sg35
I0
sg31
I0
sg38
I0
sS'slice.n.06'
p107
I0
sg34
I0
sS'cake.n.03'
p108
I0
sS'lemon.n.01'
p109
I0
sg39
I0
ssg8
(dp110
g30
I0
sg15
I0
sg9
I0
sg23
I0
sg25
I0
sg24
I0
sg14
I0
sg33
I0
sg8
I120
sg20
I0
sg27
I0
sg37
I0
sg19
I0
sg12
I0
sg36
I0
sg11
I0
sg28
I0
sg10
I0
sg26
I0
sg29
I0
sg17
I0
sg16
I0
sg32
I0
sg21
I0
sg35
I0
sg31
I0
sg38
I0
sg22
I0
sg34
I0
sg18
I0
sg13
I0
sg39
I0
ssg20
(dp111
g30
I0
sg15
I0
sg9
I0
sg23
I0
sg25
I0
sg24
I0
sg14
I0
sS'green_onion.n.01'
p112
I0
sg8
I0
sg20
I6
sg27
I0
sg19
I0
sg12
I0
sg66
I0
sg11
I0
sg28
I0
sg10
I0
sg26
I0
sg29
I0
sg17
I0
sg16
I0
sS'human_body.n.01'
p113
I0
sg21
I0
sS'vegetable.n.01'
p114
I0
sS'flesh.n.01'
p115
I0
sg22
I0
sS'pizza.n.01'
p116
I0
sg18
I0
sg13
I0
ssg27
(dp117
g30
I0
sg15
I0
sg9
I0
sg23
I0
sg25
I0
sg24
I0
sg14
I0
sg33
I0
sg8
I0
sg20
I0
sg27
I6
sg37
I0
sg19
I0
sg12
I0
sg36
I0
sg11
I0
sg28
I0
sg10
I0
sg26
I0
sg29
I0
sg17
I0
sg16
I0
sg32
I0
sg21
I0
sg35
I0
sg31
I0
sg38
I0
sg22
I0
sg34
I0
sg18
I0
sg13
I0
ssg37
(dp118
g72
I0
sg75
I0
sS'cut.v.01'
p119
I0
sS'knife.n.01'
p120
I0
sS'banana.n.02'
p121
I0
sg37
I0
sg38
I0
sS'tomato.n.01'
p122
I0
sg74
I0
sg77
I0
sg79
I0
sg76
I0
sg45
I0
sg54
I0
sS'lemon.n.01'
p123
I0
sS'potato.n.01'
p124
I0
sg73
I0
sg78
I0
sS'piece.n.08'
p125
I0
sg55
I0
ssg19
(dp126
g30
I0
sg15
I0
sg9
I0
sg23
I0
sg25
I0
sg24
I0
sg14
I0
sg112
I0
sg8
I0
sg20
I0
sg27
I0
sg19
I6
sg12
I0
sg66
I0
sg11
I0
sg28
I0
sg10
I0
sg26
I0
sg29
I0
sg17
I0
sg16
I0
sg113
I0
sg21
I0
sg114
I0
sg115
I0
sg22
I0
sg116
I0
sg18
I0
sg13
I0
ssg12
(dp127
g72
I0
sg15
I0
sg9
I0
sg23
I0
sg25
I0
sg24
I0
sg14
I0
sg73
I0
sg8
I0
sg20
I0
sg27
I0
sg74
I0
sg19
I0
sg11
I0
sg66
I0
sg12
I5
sg75
I0
sg10
I0
sg26
I0
sg37
I0
sg17
I0
sg16
I0
sg76
I0
sg21
I0
sg77
I0
sg78
I0
sg38
I1
sg22
I0
sg79
I0
sg18
I0
sg13
I0
sg39
I0
ssg36
(dp128
g90
I0
sS'cheese.n.01'
p129
I0
sS'bread.n.01'
p130
I0
sg92
I0
sg93
I0
sg94
I0
sS'cabbage.n.01'
p131
I0
sg33
I0
sg96
I0
sS'egg.n.02'
p132
I0
sg98
I0
sg37
I0
sS'bacon.n.01'
p133
I0
sS'cleaver.n.01'
p134
I0
sg36
I6
sS'meat.n.01'
p135
I0
sg100
I0
sg101
I0
sg102
I0
sg103
I0
sS'fork.n.04'
p136
I0
sS'fork.n.01'
p137
I0
sg32
I0
sg106
I0
sg35
I0
sg31
I0
sg38
I0
sg107
I0
sg34
I0
sS'cake.n.03'
p138
I0
sg109
I0
sg39
I0
ssg11
(dp139
g72
I0
sg15
I0
sg9
I0
sg23
I0
sg25
I0
sg24
I0
sg14
I0
sg73
I0
sg8
I0
sg20
I0
sg27
I0
sg74
I0
sg19
I0
sg12
I0
sg66
I0
sg11
I6
sg75
I0
sg10
I0
sg26
I0
sg37
I0
sg17
I0
sg16
I0
sg76
I0
sg21
I0
sg77
I0
sg78
I0
sg38
I0
sg22
I0
sg79
I0
sg18
I0
sg13
I0
sg39
I0
ssg28
(dp140
g30
I0
sg44
I0
sg45
I0
sg46
I0
sg47
I0
sg48
I0
sg49
I0
sg33
I0
sg50
I0
sg51
I0
sg52
I0
sg37
I0
sg53
I0
sg54
I0
sg36
I0
sg55
I0
sg28
I0
sg56
I0
sg57
I0
sg29
I6
sg58
I0
sg59
I0
sg32
I0
sg60
I0
sg35
I0
sg31
I0
sg38
I0
sg61
I0
sg34
I0
sg62
I0
sg63
I0
ssg10
(dp141
g30
I0
sg15
I0
sg9
I0
sg23
I0
sg25
I0
sg24
I0
sg14
I0
sg33
I0
sg8
I0
sg20
I0
sg27
I0
sg37
I5
sg19
I0
sg12
I0
sg36
I0
sg11
I0
sg28
I0
sg10
I25
sg26
I0
sg29
I0
sg17
I0
sg16
I0
sg32
I0
sg21
I0
sg35
I0
sg31
I0
sg38
I0
sg22
I0
sg34
I0
sg18
I0
sg13
I0
sg39
I0
ssg26
(dp142
g30
I0
sg15
I0
sg9
I0
sg23
I0
sg25
I0
sg24
I0
sg14
I0
sg33
I0
sg8
I0
sg20
I0
sg27
I0
sg37
I0
sg19
I0
sg12
I0
sg36
I0
sg11
I0
sg28
I0
sg10
I0
sg26
I6
sg29
I0
sg17
I0
sg16
I0
sg32
I0
sg21
I0
sg35
I0
sg31
I0
sg38
I0
sg22
I0
sg34
I0
sg18
I0
sg13
I0
ssg29
(dp143
g30
I0
sg44
I0
sg45
I0
sg46
I0
sg47
I0
sg48
I0
sg49
I0
sg33
I0
sg50
I0
sg51
I0
sg52
I0
sg37
I0
sg53
I0
sg54
I0
sg36
I0
sg55
I0
sg28
I0
sg56
I0
sg57
I0
sg29
I0
sg58
I0
sg59
I0
sg32
I0
sg60
I0
sg35
I0
sg31
I0
sg38
I0
sg61
I0
sg34
I0
sg62
I0
sg63
I0
ssg17
(dp144
g30
I0
sg15
I0
sg9
I0
sg23
I0
sg25
I0
sg24
I0
sg14
I0
sg65
I0
sg8
I0
sg20
I0
sg27
I0
sg19
I0
sg12
I0
sg66
I0
sg11
I0
sg28
I0
sg10
I0
sg26
I0
sg29
I0
sg17
I0
sg16
I0
sg67
I0
sg21
I0
sg68
I0
sg69
I0
sg22
I0
sg70
I0
sg18
I0
sg13
I0
sg39
I0
ssg16
(dp145
g30
I0
sg15
I0
sg9
I0
sg23
I0
sg25
I0
sg24
I0
sg14
I0
sg65
I0
sg8
I0
sg20
I0
sg27
I0
sg19
I0
sg12
I0
sg66
I0
sg11
I0
sg28
I0
sg10
I0
sg26
I0
sg29
I0
sg17
I6
sg16
I0
sg67
I0
sg21
I0
sg68
I0
sg69
I0
sg22
I0
sg70
I0
sg18
I0
sg13
I0
sg39
I0
ssg32
(dp146
g90
I0
sS'cheese.n.01'
p147
I0
sg45
I0
sg92
I0
sg93
I0
sg94
I0
sg95
I0
sg33
I0
sg96
I0
sg97
I0
sg98
I0
sg37
I0
sg99
I0
sg54
I0
sg36
I0
sg55
I0
sg100
I0
sg101
I0
sg102
I0
sg103
I0
sS'fork.n.04'
p148
I0
sS'fork.n.01'
p149
I0
sg32
I0
sg106
I0
sg35
I0
sg31
I0
sg38
I0
sg107
I0
sg34
I0
sS'cake.n.03'
p150
I0
sg109
I0
ssg21
(dp151
g30
I0
sg15
I0
sg9
I0
sg23
I0
sg25
I0
sg24
I0
sg14
I0
sg33
I0
sg8
I0
sg20
I0
sg27
I0
sg37
I0
sg19
I0
sg12
I0
sg36
I0
sg11
I0
sg28
I0
sg10
I0
sg26
I0
sg29
I0
sg17
I0
sg16
I0
sg32
I0
sg21
I4
sg35
I0
sg31
I0
sg38
I0
sg22
I20
sg34
I0
sg18
I0
sg13
I0
sg39
I0
ssg35
(dp152
g90
I0
sg91
I0
sg45
I0
sg92
I0
sg93
I0
sg94
I0
sg95
I0
sg33
I0
sg96
I0
sg97
I0
sg98
I0
sg37
I0
sg99
I0
sg54
I0
sg36
I0
sg55
I0
sg100
I0
sg101
I0
sg102
I0
sg103
I0
sg104
I0
sg105
I0
sg32
I0
sg106
I0
sg35
I6
sg31
I0
sg38
I0
sg107
I0
sg34
I0
sg108
I0
sg109
I0
sg39
I0
ssg31
(dp153
g90
I0
sg91
I0
sg45
I0
sg92
I0
sg93
I0
sg94
I0
sg95
I0
sg33
I0
sg96
I0
sg97
I0
sg98
I0
sg37
I0
sg99
I0
sg54
I0
sg36
I0
sg55
I0
sg100
I0
sg101
I0
sg102
I0
sg103
I0
sg104
I0
sg105
I0
sg32
I5
sg106
I0
sg35
I0
sg31
I0
sg38
I0
sg107
I0
sg34
I0
sg108
I0
sg109
I0
sg39
I1
ssg38
(dp154
g72
I0
sg75
I0
sg119
I0
sg120
I0
sg121
I0
sg37
I0
sg38
I0
sg122
I0
sg74
I0
sg77
I0
sg79
I0
sg76
I0
sg45
I0
sg54
I0
sg123
I0
sg124
I0
sg73
I0
sg78
I0
sg125
I0
sg55
I0
ssg22
(dp155
g30
I0
sg15
I0
sg9
I0
sg23
I0
sg25
I0
sg24
I0
sg14
I0
sg33
I0
sg8
I0
sg20
I0
sg27
I0
sg19
I0
sg12
I0
sg36
I0
sg11
I0
sg28
I0
sg10
I0
sg26
I0
sg29
I0
sg17
I0
sg16
I0
sg32
I0
sg21
I0
sg35
I0
sg31
I0
sg22
I0
sg34
I0
sg18
I0
sg13
I0
ssg34
(dp156
g90
I0
sg91
I0
sg45
I0
sg92
I0
sg93
I0
sg94
I0
sg95
I0
sg33
I0
sg96
I0
sg97
I0
sg98
I0
sg37
I0
sg99
I0
sg54
I0
sg36
I0
sg55
I0
sg100
I0
sg101
I0
sg102
I0
sg103
I0
sg104
I0
sg105
I0
sg32
I0
sg106
I0
sg35
I0
sg31
I0
sg38
I0
sg107
I0
sg34
I6
sg108
I0
sg109
I0
sg39
I0
ssg18
(dp157
g30
I0
sg15
I0
sg9
I0
sg23
I0
sg25
I0
sg24
I0
sg14
I0
sg65
I0
sg8
I0
sg20
I0
sg27
I0
sg19
I0
sg12
I0
sg66
I0
sg11
I0
sg28
I0
sg10
I0
sg26
I0
sg29
I0
sg17
I0
sg16
I0
sg67
I0
sg21
I0
sg68
I0
sg69
I0
sg22
I0
sg70
I0
sg18
I6
sg13
I0
sg39
I0
ssg13
(dp158
g30
I0
sg15
I0
sg9
I0
sg23
I0
sg25
I0
sg24
I0
sg14
I0
sg33
I0
sg8
I0
sg20
I0
sg27
I0
sg37
I0
sg19
I0
sg12
I0
sg36
I0
sg11
I0
sg28
I0
sg10
I0
sg26
I0
sg29
I0
sg17
I0
sg16
I0
sg32
I0
sg21
I0
sg35
I0
sg31
I0
sg38
I0
sg22
I0
sg34
I0
sg18
I0
sg13
I12
sg39
I0
ssg39
(dp159
g91
I0
sg68
I0
sS'cut.v.01'
p160
I0
sS'knife.n.01'
p161
I0
sg69
I0
sg104
I0
sg105
I0
sg70
I0
sg108
I0
sS'meat.n.01'
p162
I0
sS'lemon.n.01'
p163
I0
sS'potato.n.01'
p164
I0
sS'cabbage.n.01'
p165
I0
sg65
I0
sS'bread.n.01'
p166
I0
sS'piece.n.08'
p167
I0
sg39
I0
sS'cleaver.n.01'
p168
I0
sssb.