ccopy_reg
_reconstructor
p0
(cutils.eval
ConfusionMatrix
p1
c__builtin__
object
p2
Ntp3
Rp4
(dp5
S'labels'
p6
(lp7
S'piece.n.08'
p8
aS'slice.n.06'
p9
aS'cut.v.01'
p10
aS'orange.n.01'
p11
aS'zucchini.n.01'
p12
aS'zucchini.n.02'
p13
aS'knife.n.01'
p14
aS'banana.n.02'
p15
aS'tomato.n.01'
p16
aS'olive.n.01'
p17
aS'olive.n.04'
p18
aS'mushroom.n.05'
p19
aS'flesh.n.01'
p20
aS'human_body.n.01'
p21
aS'green_onion.n.01'
p22
aS'pizza.n.01'
p23
aS'vegetable.n.01'
p24
aS'lemon.n.01'
p25
aS'potato.n.01'
p26
asS'instanceCount'
p27
I31
sS'matrix'
p28
(dp29
g19
(dp30
S'mushroom.n.05'
p31
I1
ssg17
(dp32
g18
I1
ssg10
(dp33
S'cut.v.01'
p34
I12
ssg14
(dp35
S'knife.n.01'
p36
I4
ssg15
(dp37
S'banana.n.02'
p38
I1
ssg18
(dp39
g18
I0
ssg26
(dp40
S'potato.n.01'
p41
I1
ssg16
(dp42
S'tomato.n.01'
p43
I1
ssg20
(dp44
g21
I1
ssg9
(dp45
g9
I0
ssg21
(dp46
g21
I0
ssg23
(dp47
S'pizza.n.01'
p48
I1
ssg11
(dp49
S'orange.n.01'
p50
I1
ssg13
(dp51
g13
I0
ssg24
(dp52
S'vegetable.n.01'
p53
I1
ssg25
(dp54
S'lemon.n.01'
p55
I1
ssg12
(dp56
g13
I1
ssg8
(dp57
g9
I3
ssg22
(dp58
S'green_onion.n.01'
p59
I1
sssb.