ccopy_reg
_reconstructor
p0
(cutils.eval
ConfusionMatrix
p1
c__builtin__
object
p2
Ntp3
Rp4
(dp5
S'labels'
p6
(lp7
S'cut.v.01'
p8
aS'lemon.n.01'
p9
aS'cabbage.n.01'
p10
aS'cheese.n.01'
p11
aS'fork.n.01'
p12
aS'fork.n.04'
p13
aS'cake.n.03'
p14
aS'bacon.n.01'
p15
aS'egg.n.02'
p16
aS'piece.n.08'
p17
aS'slice.n.06'
p18
aS'orange.n.01'
p19
aS'zucchini.n.01'
p20
aS'zucchini.n.02'
p21
aS'knife.n.01'
p22
aS'banana.n.02'
p23
aS'tomato.n.01'
p24
aS'olive.n.01'
p25
aS'olive.n.04'
p26
aS'mushroom.n.05'
p27
asS'instanceCount'
p28
I29
sS'matrix'
p29
(dp30
g27
(dp31
S'mushroom.n.05'
p32
I1
ssg11
(dp33
S'cheese.n.01'
p34
I1
ssg25
(dp35
g26
I1
ssg8
(dp36
S'cut.v.01'
p37
I12
ssg10
(dp38
S'cabbage.n.01'
p39
I1
ssg23
(dp40
S'banana.n.02'
p41
I1
ssg26
(dp42
g26
I0
ssg22
(dp43
S'knife.n.01'
p44
I2
ssg16
(dp45
S'egg.n.02'
p46
I1
ssg24
(dp47
S'tomato.n.01'
p48
I1
ssg13
(dp49
g13
I0
ssg18
(dp50
g18
I0
ssg12
(dp51
g13
I1
ssg19
(dp52
S'orange.n.01'
p53
I1
ssg14
(dp54
S'cake.n.03'
p55
I1
ssg15
(dp56
S'bacon.n.01'
p57
I1
ssg9
(dp58
S'lemon.n.01'
p59
I1
ssg20
(dp60
g21
I1
ssg21
(dp61
g21
I0
ssg17
(dp62
g18
I2
sssb.