ccopy_reg
_reconstructor
p0
(cutils.eval
ConfusionMatrix
p1
c__builtin__
object
p2
Ntp3
Rp4
(dp5
S'labels'
p6
(lp7
S'cheese.n.01'
p8
aS'cut.v.01'
p9
aS'fork.n.01'
p10
aS'fork.n.04'
p11
aS'cake.n.03'
p12
aS'bacon.n.01'
p13
aS'egg.n.02'
p14
aS'piece.n.08'
p15
aS'slice.n.06'
p16
aS'orange.n.01'
p17
aS'zucchini.n.01'
p18
aS'zucchini.n.02'
p19
aS'knife.n.01'
p20
aS'banana.n.02'
p21
aS'tomato.n.01'
p22
aS'olive.n.01'
p23
aS'olive.n.04'
p24
aS'mushroom.n.05'
p25
aS'flesh.n.01'
p26
aS'human_body.n.01'
p27
aS'green_onion.n.01'
p28
asS'instanceCount'
p29
I30
sS'matrix'
p30
(dp31
g25
(dp32
S'mushroom.n.05'
p33
I1
ssg8
(dp34
S'cheese.n.01'
p35
I1
ssg23
(dp36
g24
I1
ssg9
(dp37
S'cut.v.01'
p38
I12
ssg20
(dp39
S'knife.n.01'
p40
I3
ssg21
(dp41
S'banana.n.02'
p42
I1
ssg24
(dp43
g24
I0
ssg14
(dp44
S'egg.n.02'
p45
I1
ssg22
(dp46
S'tomato.n.01'
p47
I1
ssg11
(dp48
g11
I0
ssg16
(dp49
g16
I0
ssg27
(dp50
g27
I0
ssg13
(dp51
S'bacon.n.01'
p52
I1
ssg17
(dp53
S'orange.n.01'
p54
I1
ssg12
(dp55
S'cake.n.03'
p56
I1
ssg10
(dp57
g11
I1
ssg18
(dp58
g19
I1
ssg19
(dp59
g19
I0
ssg15
(dp60
g16
I2
ssg26
(dp61
g27
I1
ssg28
(dp62
S'green_onion.n.01'
p63
I1
sssb.