ccopy_reg
_reconstructor
p0
(cutils.eval
ConfusionMatrix
p1
c__builtin__
object
p2
Ntp3
Rp4
(dp5
S'labels'
p6
(lp7
S'piece.n.08'
p8
aS'slice.n.06'
p9
aS'cut.v.01'
p10
aS'pizza.n.01'
p11
aS'vegetable.n.01'
p12
aS'knife.n.01'
p13
aS'lemon.n.01'
p14
aS'potato.n.01'
p15
aS'bread.n.01'
p16
aS'meat.n.01'
p17
aS'cleaver.n.01'
p18
aS'cabbage.n.01'
p19
aS'cheese.n.01'
p20
aS'fork.n.01'
p21
aS'fork.n.04'
p22
aS'cake.n.03'
p23
aS'bacon.n.01'
p24
aS'egg.n.02'
p25
asS'instanceCount'
p26
I31
sS'matrix'
p27
(dp28
g20
(dp29
S'cheese.n.01'
p30
I1
ssg12
(dp31
S'vegetable.n.01'
p32
I1
ssg10
(dp33
S'cut.v.01'
p34
I12
ssg13
(dp35
S'knife.n.01'
p36
I2
ssg24
(dp37
S'bacon.n.01'
p38
I1
ssg25
(dp39
S'egg.n.02'
p40
I1
ssg22
(dp41
g22
I0
ssg9
(dp42
g9
I0
ssg21
(dp43
g22
I1
ssg11
(dp44
S'pizza.n.01'
p45
I1
ssg23
(dp46
S'cake.n.03'
p47
I1
ssg17
(dp48
S'meat.n.01'
p49
I1
ssg14
(dp50
S'lemon.n.01'
p51
I2
ssg15
(dp52
S'potato.n.01'
p53
I1
ssg19
(dp54
S'cabbage.n.01'
p55
I1
ssg8
(dp56
g9
I3
ssg16
(dp57
S'bread.n.01'
p58
I1
ssg18
(dp59
S'cleaver.n.01'
p60
I1
sssb.