ccopy_reg
_reconstructor
p0
(cutils.eval
ConfusionMatrix
p1
c__builtin__
object
p2
Ntp3
Rp4
(dp5
S'labels'
p6
(lp7
S'cabbage.n.01'
p8
aS'slice.v.03'
p9
aS'piece.n.08'
p10
aS'potato.n.01'
p11
aS'pizza.n.01'
p12
aS'slice.n.05'
p13
asS'instanceCount'
p14
I8
sS'matrix'
p15
(dp16
g9
(dp17
S'slice.v.03'
p18
I3
ssg8
(dp19
S'cabbage.n.01'
p20
I1
ssg12
(dp21
S'pizza.n.01'
p22
I1
ssg11
(dp23
S'potato.n.01'
p24
I1
ssg10
(dp25
S'piece.n.08'
p26
I1
sg13
I1
ssg13
(dp27
g13
I0
sssb.