ccopy_reg
_reconstructor
p0
(cutils.eval
ConfusionMatrix
p1
c__builtin__
object
p2
Ntp3
Rp4
(dp5
S'labels'
p6
(lp7
S'AC_STIR'
p8
aS'AC_FILL'
p9
asS'instanceCount'
p10
I6
sS'matrix'
p11
(dp12
g8
(dp13
S'AC_STIR'
p14
I3
ssg9
(dp15
S'AC_FILL'
p16
I3
sssb.