ccopy_reg
_reconstructor
p0
(cutils.eval
ConfusionMatrix
p1
c__builtin__
object
p2
Ntp3
Rp4
(dp5
S'labels'
p6
(lp7
S'AC_STIR'
p8
aS'AC_CUT'
p9
aS'AC_FILL'
p10
asS'instanceCount'
p11
I6
sS'matrix'
p12
(dp13
g10
(dp14
S'AC_FILL'
p15
I2
ssg8
(dp16
S'AC_STIR'
p17
I3
ssg9
(dp18
S'AC_CUT'
p19
I1
sssb.