ccopy_reg
_reconstructor
p0
(cutils.eval
ConfusionMatrix
p1
c__builtin__
object
p2
Ntp3
Rp4
(dp5
S'labels'
p6
(lp7
S'AC_CUT'
p8
aS'AC_FILL'
p9
aS'AC_STIR'
p10
asS'instanceCount'
p11
I6
sS'matrix'
p12
(dp13
g9
(dp14
S'AC_FILL'
p15
I3
ssg10
(dp16
S'AC_STIR'
p17
I1
ssg8
(dp18
S'AC_CUT'
p19
I2
sssb.