ccopy_reg
_reconstructor
p0
(cutils.eval
ConfusionMatrix
p1
c__builtin__
object
p2
Ntp3
Rp4
(dp5
S'labels'
p6
(lp7
S'AC_SLICE'
p8
aS'AC_STIR'
p9
aS'AC_FILL'
p10
asS'instanceCount'
p11
I6
sS'matrix'
p12
(dp13
g8
(dp14
S'AC_SLICE'
p15
I1
ssg9
(dp16
S'AC_STIR'
p17
I3
ssg10
(dp18
S'AC_FILL'
p19
I2
sssb.