ccopy_reg
_reconstructor
p0
(cutils.eval
ConfusionMatrix
p1
c__builtin__
object
p2
Ntp3
Rp4
(dp5
S'labels'
p6
(lp7
S'AC_SLICE'
p8
aS'AC_STIR'
p9
aS'AC_FILL'
p10
aS'AC_ADD'
p11
asS'instanceCount'
p12
I6
sS'matrix'
p13
(dp14
g11
(dp15
S'AC_ADD'
p16
I1
ssg8
(dp17
S'AC_SLICE'
p18
I1
ssg9
(dp19
S'AC_STIR'
p20
I2
ssg10
(dp21
S'AC_FILL'
p22
I2
sssb.