ccopy_reg
_reconstructor
p0
(cutils.eval
ConfusionMatrix
p1
c__builtin__
object
p2
Ntp3
Rp4
(dp5
S'labels'
p6
(lp7
S'AC_CUT'
p8
aS'AC_STIR'
p9
aS'AC_ADD'
p10
aS'AC_SLICE'
p11
aS'AC_FILL'
p12
asS'instanceCount'
p13
I6
sS'matrix'
p14
(dp15
g10
(dp16
S'AC_ADD'
p17
I1
ssg11
(dp18
S'AC_SLICE'
p19
I1
ssg9
(dp20
S'AC_STIR'
p21
I2
ssg12
(dp22
S'AC_FILL'
p23
I1
ssg8
(dp24
S'AC_CUT'
p25
I1
sssb.