ccopy_reg
_reconstructor
p0
(cutils.eval
ConfusionMatrix
p1
c__builtin__
object
p2
Ntp3
Rp4
(dp5
S'labels'
p6
(lp7
S'fill.v.01'
p8
aS'pan.n.03'
p9
aS'water.n.06'
p10
aS'bottle.n.01'
p11
aS'fruit_juice.n.01'
p12
aS'juice.n.01'
p13
aS'thermos.n.01'
p14
aS'coffee.n.01'
p15
aS'pot.n.01'
p16
aS'glass.n.02'
p17
aS'milk.n.01'
p18
aS'milk.n.04'
p19
aS'foam.n.01'
p20
aS'mug.n.04'
p21
aS'kettle.n.01'
p22
aS'cup.n.01'
p23
aS'cola.n.02'
p24
aS'measuring_cup.n.01'
p25
aS'meal.n.03'
p26
aS'whiskey.n.01'
p27
aS'carafe.n.01'
p28
aS'wok.n.01'
p29
aS'rice.n.01'
p30
aS'pitcher.n.02'
p31
aS'blender.n.01'
p32
aS'apple.n.01'
p33
aS'opening.n.01'
p34
aS'opening.n.10'
p35
aS'fill.v.09'
p36
aS'curd.n.01'
p37
aS'teapot.n.01'
p38
aS'jar.n.01'
p39
asS'instanceCount'
p40
I47
sS'matrix'
p41
(dp42
g30
(dp43
S'rice.n.01'
p44
I1
ssg35
(dp45
g35
I0
ssg19
(dp46
g19
I0
ssg33
(dp47
S'apple.n.01'
p48
I1
ssg20
(dp49
S'foam.n.01'
p50
I1
ssg18
(dp51
g19
I2
ssg8
(dp52
S'fill.v.01'
p53
I15
ssg9
(dp54
S'pan.n.03'
p55
I1
ssg24
(dp56
S'cola.n.02'
p57
I1
ssg36
(dp58
S'fill.v.01'
p59
I1
ssg11
(dp60
S'bottle.n.01'
p61
I1
ssg16
(dp62
S'pot.n.01'
p63
I1
ssg23
(dp64
S'cup.n.01'
p65
I1
ssg31
(dp66
S'pitcher.n.02'
p67
I1
ssg25
(dp68
S'measuring_cup.n.01'
p69
I1
ssg17
(dp70
S'glass.n.02'
p71
I1
ssg29
(dp72
S'wok.n.01'
p73
I1
ssg15
(dp74
S'coffee.n.01'
p75
I1
ssg27
(dp76
S'whiskey.n.01'
p77
I1
ssg34
(dp78
g35
I1
ssg21
(dp79
S'mug.n.04'
p80
I1
ssg12
(dp81
g13
I1
ssg38
(dp82
S'teapot.n.01'
p83
I1
ssg32
(dp84
S'blender.n.01'
p85
I1
ssg14
(dp86
S'thermos.n.01'
p87
I1
ssg10
(dp88
S'water.n.06'
p89
I4
ssg22
(dp90
S'kettle.n.01'
p91
I1
ssg37
(dp92
S'curd.n.01'
p93
I1
ssg39
(dp94
S'jar.n.01'
p95
I1
ssg28
(dp96
S'carafe.n.01'
p97
I1
ssg13
(dp98
g13
I0
ssg26
(dp99
S'meal.n.03'
p100
I1
sssb.