ccopy_reg
_reconstructor
p0
(cutils.eval
ConfusionMatrix
p1
c__builtin__
object
p2
Ntp3
Rp4
(dp5
S'labels'
p6
(lp7
S'fill.v.01'
p8
aS'blender.n.01'
p9
aS'apple.n.01'
p10
aS'opening.n.01'
p11
aS'opening.n.10'
p12
aS'fill.v.09'
p13
aS'curd.n.01'
p14
aS'teapot.n.01'
p15
aS'water.n.06'
p16
aS'jar.n.01'
p17
aS'saltcellar.n.01'
p18
aS'salt.n.02'
p19
aS'gap.n.03'
p20
aS'batter.n.02'
p21
aS'ice.n.01'
p22
aS'methamphetamine.n.01'
p23
aS'bowl.n.01'
p24
aS'gravy.n.01'
p25
aS'gravy.n.02'
p26
aS'pan.n.03'
p27
aS'bottle.n.01'
p28
aS'fruit_juice.n.01'
p29
aS'thermos.n.01'
p30
aS'coffee.n.01'
p31
aS'pot.n.01'
p32
aS'glass.n.02'
p33
aS'milk.n.01'
p34
aS'foam.n.01'
p35
aS'mug.n.04'
p36
aS'kettle.n.01'
p37
aS'cup.n.01'
p38
aS'cola.n.02'
p39
asS'instanceCount'
p40
I47
sS'matrix'
p41
(dp42
g30
(dp43
S'thermos.n.01'
p44
I1
ssg23
(dp45
g23
I0
ssg24
(dp46
S'bowl.n.01'
p47
I1
ssg21
(dp48
S'batter.n.02'
p49
I1
ssg12
(dp50
g12
I0
ssg10
(dp51
S'apple.n.01'
p52
I1
ssg35
(dp53
S'foam.n.01'
p54
I1
ssg34
(dp55
S'milk.n.01'
p56
I1
ssg27
(dp57
S'pan.n.03'
p58
I1
ssg39
(dp59
S'cola.n.02'
p60
I1
ssg20
(dp61
g20
I0
ssg18
(dp62
S'saltcellar.n.01'
p63
I1
ssg28
(dp64
S'bottle.n.01'
p65
I1
ssg32
(dp66
S'pot.n.01'
p67
I1
ssg8
(dp68
S'fill.v.01'
p69
I14
ssg33
(dp70
S'glass.n.02'
p71
I1
ssg25
(dp72
g26
I1
ssg19
(dp73
S'salt.n.02'
p74
I1
ssg26
(dp75
g26
I0
ssg31
(dp76
S'coffee.n.01'
p77
I1
ssg11
(dp78
g12
I1
sg20
I1
ssg36
(dp79
S'mug.n.04'
p80
I1
ssg29
(dp81
S'fruit_juice.n.01'
p82
I1
ssg15
(dp83
S'teapot.n.01'
p84
I1
ssg9
(dp85
S'blender.n.01'
p86
I1
ssg13
(dp87
S'fill.v.01'
p88
I2
ssg16
(dp89
S'water.n.06'
p90
I4
ssg22
(dp91
g23
I1
ssg38
(dp92
S'cup.n.01'
p93
I1
ssg37
(dp94
S'kettle.n.01'
p95
I1
ssg14
(dp96
S'curd.n.01'
p97
I1
ssg17
(dp98
S'jar.n.01'
p99
I2
sssb.