ccopy_reg
_reconstructor
p0
(cutils.eval
ConfusionMatrix
p1
c__builtin__
object
p2
Ntp3
Rp4
(dp5
S'labels'
p6
(lp7
S'fill.v.01'
p8
aS'measuring_cup.n.01'
p9
aS'meal.n.03'
p10
aS'whiskey.n.01'
p11
aS'carafe.n.01'
p12
aS'wok.n.01'
p13
aS'rice.n.01'
p14
aS'pitcher.n.02'
p15
aS'milk.n.01'
p16
aS'blender.n.01'
p17
aS'apple.n.01'
p18
aS'opening.n.01'
p19
aS'opening.n.10'
p20
aS'fill.v.09'
p21
aS'curd.n.01'
p22
aS'teapot.n.01'
p23
aS'water.n.06'
p24
aS'jar.n.01'
p25
aS'saltcellar.n.01'
p26
aS'salt.n.02'
p27
aS'gap.n.03'
p28
aS'batter.n.02'
p29
aS'ice.n.01'
p30
aS'ice.n.05'
p31
aS'bowl.n.01'
p32
aS'gravy.n.01'
p33
aS'gravy.n.02'
p34
aS'pan.n.03'
p35
aS'bottle.n.01'
p36
aS'fruit_juice.n.01'
p37
aS'thermos.n.01'
p38
aS'coffee.n.01'
p39
aS'pot.n.01'
p40
asS'instanceCount'
p41
I47
sS'matrix'
p42
(dp43
g38
(dp44
S'thermos.n.01'
p45
I1
ssg21
(dp46
S'fill.v.01'
p47
I2
ssg29
(dp48
S'batter.n.02'
p49
I1
ssg20
(dp50
g20
I0
ssg18
(dp51
S'apple.n.01'
p52
I1
ssg16
(dp53
S'milk.n.01'
p54
I1
ssg32
(dp55
S'bowl.n.01'
p56
I1
ssg28
(dp57
g28
I0
ssg26
(dp58
S'saltcellar.n.01'
p59
I1
ssg36
(dp60
S'bottle.n.01'
p61
I1
ssg40
(dp62
S'pot.n.01'
p63
I1
ssg8
(dp64
S'fill.v.01'
p65
I14
ssg15
(dp66
S'pitcher.n.02'
p67
I1
ssg9
(dp68
S'measuring_cup.n.01'
p69
I1
ssg33
(dp70
g34
I1
ssg27
(dp71
S'salt.n.02'
p72
I1
ssg34
(dp73
g34
I0
ssg13
(dp74
S'wok.n.01'
p75
I1
ssg39
(dp76
S'coffee.n.01'
p77
I1
ssg35
(dp78
S'pan.n.03'
p79
I1
ssg11
(dp80
S'whiskey.n.01'
p81
I1
ssg19
(dp82
g20
I1
sg28
I1
ssg37
(dp83
S'fruit_juice.n.01'
p84
I1
ssg23
(dp85
S'teapot.n.01'
p86
I1
ssg17
(dp87
S'blender.n.01'
p88
I1
ssg14
(dp89
S'rice.n.01'
p90
I1
ssg24
(dp91
S'water.n.06'
p92
I3
ssg30
(dp93
g31
I1
ssg31
(dp94
g31
I0
ssg22
(dp95
S'curd.n.01'
p96
I1
ssg25
(dp97
S'jar.n.01'
p98
I2
ssg12
(dp99
S'carafe.n.01'
p100
I1
ssg10
(dp101
S'meal.n.03'
p102
I1
sssb.