ccopy_reg
_reconstructor
p0
(cutils.eval
ConfusionMatrix
p1
c__builtin__
object
p2
Ntp3
Rp4
(dp5
S'labels'
p6
(lp7
S'fill.v.01'
p8
aS'blender.n.01'
p9
aS'apple.n.01'
p10
aS'opening.n.01'
p11
aS'opening.n.10'
p12
aS'fill.v.09'
p13
aS'curd.n.01'
p14
aS'teapot.n.01'
p15
aS'water.n.06'
p16
aS'jar.n.01'
p17
aS'saltcellar.n.01'
p18
aS'salt.n.02'
p19
aS'gap.n.03'
p20
aS'batter.n.02'
p21
aS'ice.n.01'
p22
aS'methamphetamine.n.01'
p23
aS'bowl.n.01'
p24
aS'gravy.n.01'
p25
aS'gravy.n.02'
p26
aS'pan.n.03'
p27
aS'bottle.n.01'
p28
aS'fruit_juice.n.01'
p29
aS'thermos.n.01'
p30
aS'coffee.n.01'
p31
aS'pot.n.01'
p32
aS'glass.n.02'
p33
aS'milk.n.01'
p34
aS'foam.n.01'
p35
aS'mug.n.04'
p36
aS'kettle.n.01'
p37
aS'cup.n.01'
p38
aS'cola.n.02'
p39
aS'measuring_cup.n.01'
p40
aS'meal.n.03'
p41
aS'whiskey.n.01'
p42
aS'carafe.n.01'
p43
aS'wok.n.01'
p44
aS'rice.n.01'
p45
aS'pitcher.n.02'
p46
aS'ice.n.05'
p47
aS'juice.n.01'
p48
aS'meal.n.01'
p49
aS'bowl.n.08'
p50
aS'pan.n.01'
p51
aS'milk.n.04'
p52
asS'instanceCount'
p53
I472
sS'matrix'
p54
(dp55
g30
(dp56
g45
I0
sg23
I0
sg24
I0
sg21
I0
sg12
I0
sg52
I0
sg10
I0
sg35
I0
sg34
I0
sg51
I0
sg27
I0
sg50
I0
sg39
I0
sg20
I0
sg18
I0
sg28
I0
sg32
I0
sg8
I0
sg13
I0
sg40
I0
sg33
I0
sg25
I0
sg19
I0
sg26
I0
sg44
I0
sg31
I0
sg42
I0
sg11
I0
sg36
I0
sg29
I0
sg15
I0
sg9
I0
sg30
I8
sg16
I0
sg48
I0
sg22
I0
sg38
I0
sg37
I0
sg47
I0
sg14
I0
sg17
I0
sg43
I0
sg46
I0
sg41
I0
ssg23
(dp57
g30
I0
sg23
I0
sg24
I0
sg21
I0
sg12
I0
sg10
I0
sg35
I0
sg34
I0
sg27
I0
sg39
I0
sg20
I0
sg18
I0
sg28
I0
sg32
I0
sg8
I0
sS'pitcher.n.02'
p58
I0
sg33
I0
sg25
I0
sg19
I0
sg26
I0
sS'wok.n.01'
p59
I0
sg31
I0
sg11
I0
sg36
I0
sg29
I0
sg15
I0
sg9
I0
sg13
I0
sg16
I0
sg22
I0
sg38
I0
sg37
I0
sg14
I0
sg17
I0
sS'rice.n.01'
p60
I0
ssg24
(dp61
g30
I0
sg23
I0
sg24
I7
sg21
I0
sg12
I0
sg10
I0
sg35
I0
sg34
I0
sg51
I0
sg27
I0
sg50
I1
sg39
I0
sg20
I0
sg18
I0
sg28
I0
sg32
I0
sg8
I0
sg46
I0
sg40
I0
sg33
I0
sg25
I0
sg19
I0
sg26
I0
sg44
I0
sg31
I0
sg45
I0
sg42
I0
sg11
I0
sg36
I0
sg29
I0
sg15
I0
sg9
I0
sg13
I0
sg16
I0
sg49
I0
sg22
I0
sg38
I0
sg37
I0
sg47
I0
sg14
I0
sg17
I0
sg43
I0
sg48
I0
sg41
I0
ssg21
(dp62
g30
I0
sg23
I0
sg24
I0
sg21
I8
sg12
I0
sg10
I0
sg35
I0
sg34
I0
sg51
I0
sg27
I0
sg50
I0
sg39
I0
sg20
I0
sg18
I0
sg28
I0
sg32
I0
sg8
I0
sg46
I0
sg40
I0
sg33
I0
sg25
I0
sg19
I0
sg26
I0
sg44
I0
sg31
I0
sg45
I0
sg42
I0
sg11
I0
sg36
I0
sg29
I0
sg15
I0
sg9
I0
sg13
I0
sg16
I0
sg22
I0
sg38
I0
sg37
I0
sS'ice.n.05'
p63
I0
sg14
I0
sg17
I0
sg43
I0
sg49
I0
sg41
I0
ssg12
(dp64
g30
I0
sg23
I0
sg24
I0
sg21
I0
sg10
I0
sg52
I0
sg12
I0
sg35
I0
sg34
I0
sg27
I0
sg39
I0
sg20
I0
sg18
I0
sg28
I0
sg32
I0
sg8
I0
sS'pitcher.n.02'
p65
I0
sS'measuring_cup.n.01'
p66
I0
sg33
I0
sg25
I0
sg19
I0
sg26
I0
sS'wok.n.01'
p67
I0
sg31
I0
sS'rice.n.01'
p68
I0
sS'whiskey.n.01'
p69
I0
sg11
I0
sg36
I0
sg29
I0
sg15
I0
sg9
I0
sg13
I0
sg16
I0
sg49
I0
sg22
I0
sg38
I0
sg37
I0
sg47
I0
sg14
I0
sg17
I0
sS'carafe.n.01'
p70
I0
sg48
I0
sS'meal.n.03'
p71
I0
ssg52
(dp72
S'rice.n.01'
p73
I0
sS'opening.n.10'
p74
I0
sg52
I0
sS'apple.n.01'
p75
I0
sS'foam.n.01'
p76
I0
sS'milk.n.01'
p77
I0
sS'fill.v.01'
p78
I0
sS'pan.n.03'
p79
I0
sS'cola.n.02'
p80
I0
sS'fill.v.09'
p81
I0
sS'bottle.n.01'
p82
I0
sS'pot.n.01'
p83
I0
sS'cup.n.01'
p84
I0
sS'pitcher.n.02'
p85
I0
sS'measuring_cup.n.01'
p86
I0
sS'glass.n.02'
p87
I0
sS'wok.n.01'
p88
I0
sS'coffee.n.01'
p89
I0
sS'whiskey.n.01'
p90
I0
sS'opening.n.01'
p91
I0
sS'mug.n.04'
p92
I0
sS'fruit_juice.n.01'
p93
I0
sS'teapot.n.01'
p94
I0
sS'blender.n.01'
p95
I0
sS'thermos.n.01'
p96
I0
sS'water.n.06'
p97
I0
sS'kettle.n.01'
p98
I0
sS'curd.n.01'
p99
I0
sS'jar.n.01'
p100
I0
sS'carafe.n.01'
p101
I0
sS'juice.n.01'
p102
I0
sS'meal.n.03'
p103
I0
ssg10
(dp104
g30
I0
sg23
I0
sg24
I0
sg21
I0
sg12
I0
sg52
I0
sg10
I8
sg35
I0
sg34
I0
sg27
I0
sg39
I0
sg20
I0
sg18
I0
sg28
I0
sg32
I0
sg8
I0
sg65
I0
sg66
I0
sg33
I0
sg25
I0
sg19
I0
sg26
I0
sg67
I0
sg31
I0
sg68
I0
sg69
I0
sg11
I0
sg36
I0
sg29
I0
sg15
I0
sg9
I0
sg13
I0
sg16
I0
sg49
I0
sg22
I0
sg38
I0
sg37
I0
sg47
I0
sg14
I0
sg17
I0
sg70
I0
sg48
I0
sg71
I0
ssg35
(dp105
g30
I0
sg23
I0
sg24
I0
sg21
I0
sg12
I0
sg52
I0
sg10
I0
sg35
I8
sg34
I0
sg51
I0
sg27
I0
sg50
I0
sg39
I0
sg20
I0
sg18
I0
sg28
I0
sg32
I0
sg8
I0
sg46
I0
sg40
I0
sg33
I0
sg25
I0
sg19
I0
sg26
I0
sg44
I0
sg31
I0
sg45
I0
sg42
I0
sg11
I0
sg36
I0
sg29
I0
sg15
I0
sg9
I0
sg13
I0
sg16
I0
sg49
I0
sg22
I0
sg38
I0
sg37
I0
sg47
I0
sg14
I0
sg17
I0
sg43
I0
sg48
I0
sg41
I0
ssg34
(dp106
g30
I0
sg23
I0
sg24
I0
sg21
I0
sg12
I0
sg52
I2
sg10
I0
sg35
I0
sg34
I14
sg51
I0
sg27
I0
sg50
I0
sg39
I0
sg20
I0
sg18
I0
sg28
I0
sg32
I0
sg8
I0
sg46
I0
sg40
I0
sg33
I0
sg25
I0
sg19
I0
sg26
I0
sg44
I0
sg31
I0
sg45
I0
sg42
I0
sg11
I0
sg36
I0
sg29
I0
sg15
I0
sg9
I0
sg13
I0
sg16
I0
sg49
I0
sg22
I0
sg38
I0
sg37
I0
sg47
I0
sg14
I0
sg17
I0
sg43
I0
sg48
I0
sg41
I0
ssg51
(dp107
S'thermos.n.01'
p108
I0
sS'bowl.n.01'
p109
I0
sS'batter.n.02'
p110
I0
sg50
I0
sS'milk.n.01'
p111
I0
sg51
I0
sS'pan.n.03'
p112
I0
sS'foam.n.01'
p113
I0
sS'cola.n.02'
p114
I0
sS'gap.n.03'
p115
I0
sS'saltcellar.n.01'
p116
I0
sS'bottle.n.01'
p117
I0
sS'pot.n.01'
p118
I0
sS'fill.v.01'
p119
I0
sS'measuring_cup.n.01'
p120
I0
sS'glass.n.02'
p121
I0
sS'gravy.n.01'
p122
I0
sS'salt.n.02'
p123
I0
sS'gravy.n.02'
p124
I0
sS'coffee.n.01'
p125
I0
sS'whiskey.n.01'
p126
I0
sS'opening.n.01'
p127
I0
sS'mug.n.04'
p128
I0
sS'fruit_juice.n.01'
p129
I0
sS'teapot.n.01'
p130
I0
sS'fill.v.09'
p131
I0
sS'water.n.06'
p132
I0
sS'ice.n.01'
p133
I0
sS'cup.n.01'
p134
I0
sS'kettle.n.01'
p135
I0
sS'ice.n.05'
p136
I0
sS'jar.n.01'
p137
I0
sS'carafe.n.01'
p138
I0
sS'meal.n.03'
p139
I0
ssg27
(dp140
g30
I0
sg23
I0
sg24
I0
sg21
I0
sg12
I0
sg52
I0
sg10
I0
sg35
I0
sg34
I0
sg51
I1
sg27
I7
sg50
I0
sg39
I0
sg20
I0
sg18
I0
sg28
I0
sg32
I0
sg8
I0
sg46
I0
sg40
I0
sg33
I0
sg25
I0
sg19
I0
sg26
I0
sg44
I0
sg31
I0
sg45
I0
sg42
I0
sg11
I0
sg36
I0
sg29
I0
sg15
I0
sg9
I0
sg13
I0
sg16
I0
sg22
I0
sg38
I0
sg37
I0
sg47
I0
sg14
I0
sg17
I0
sg43
I0
sg48
I0
sg41
I0
ssg50
(dp141
g108
I0
sg109
I0
sg110
I0
sg50
I0
sg111
I0
sg51
I0
sg112
I0
sg113
I0
sg114
I0
sg115
I0
sg116
I0
sg117
I0
sg118
I0
sg119
I0
sg120
I0
sg121
I0
sg122
I0
sg123
I0
sg124
I0
sg125
I0
sg126
I0
sg127
I0
sg128
I0
sg129
I0
sg130
I0
sg131
I0
sg132
I0
sg133
I0
sg134
I0
sg135
I0
sg136
I0
sg137
I0
sg138
I0
sg139
I0
ssg39
(dp142
g30
I0
sg23
I0
sg24
I0
sg21
I0
sg12
I0
sg52
I0
sg10
I0
sg35
I0
sg34
I0
sg51
I0
sg27
I0
sg50
I0
sg39
I8
sg20
I0
sg18
I0
sg28
I0
sg32
I0
sg8
I0
sg46
I0
sg40
I0
sg33
I0
sg25
I0
sg19
I0
sg26
I0
sg44
I0
sg31
I0
sg45
I0
sg42
I0
sg11
I0
sg36
I0
sg29
I0
sg15
I0
sg9
I0
sg13
I0
sg16
I0
sg49
I0
sg22
I0
sg38
I0
sg37
I0
sg47
I0
sg14
I0
sg17
I0
sg43
I0
sg48
I0
sg41
I0
ssg20
(dp143
g30
I0
sg23
I0
sg24
I0
sg21
I0
sg12
I0
sg10
I0
sg35
I0
sg34
I0
sg51
I0
sg27
I0
sg50
I0
sg39
I0
sg20
I0
sg18
I0
sg28
I0
sg32
I0
sg8
I0
sg65
I0
sg66
I0
sg33
I0
sg25
I0
sg19
I0
sg26
I0
sg67
I0
sg31
I0
sg68
I0
sg69
I0
sg11
I0
sg36
I0
sg29
I0
sg15
I0
sg9
I0
sg13
I0
sg16
I0
sg22
I0
sg38
I0
sg37
I0
sg63
I0
sg14
I0
sg17
I0
sg70
I0
sg49
I0
sg71
I0
ssg18
(dp144
g30
I0
sg23
I0
sg24
I0
sg21
I0
sg12
I0
sg10
I0
sg35
I0
sg34
I0
sg51
I0
sg27
I0
sg50
I0
sg39
I0
sg20
I0
sg18
I8
sg28
I0
sg32
I0
sg8
I0
sg46
I0
sg40
I0
sg33
I0
sg25
I0
sg19
I0
sg26
I0
sg44
I0
sg31
I0
sg45
I0
sg42
I0
sg11
I0
sg36
I0
sg29
I0
sg15
I0
sg9
I0
sg13
I0
sg16
I0
sg22
I0
sg38
I0
sg37
I0
sg63
I0
sg14
I0
sg17
I0
sg43
I0
sg49
I0
sg41
I0
ssg28
(dp145
g30
I0
sg23
I0
sg24
I0
sg21
I0
sg10
I0
sg52
I0
sg12
I0
sg35
I0
sg34
I0
sg51
I0
sg27
I0
sg50
I0
sg39
I0
sg20
I0
sg18
I0
sg28
I8
sg32
I0
sg8
I0
sg46
I0
sg40
I0
sg33
I0
sg25
I0
sg19
I0
sg26
I0
sg44
I0
sg31
I0
sg45
I0
sg42
I0
sg11
I0
sg36
I0
sg29
I0
sg15
I0
sg9
I0
sg13
I0
sg16
I0
sg22
I0
sg38
I0
sg37
I0
sg47
I0
sg14
I0
sg17
I0
sg43
I0
sg48
I0
sg41
I0
ssg32
(dp146
g30
I0
sg23
I0
sg24
I0
sg21
I0
sg12
I0
sg52
I0
sg10
I0
sg35
I0
sg34
I0
sg51
I0
sg27
I0
sg50
I0
sg39
I0
sg20
I0
sg18
I0
sg28
I0
sg32
I8
sg8
I0
sg46
I0
sg40
I0
sg33
I0
sg25
I0
sg19
I0
sg26
I0
sg44
I0
sg31
I0
sg45
I0
sg42
I0
sg11
I0
sg36
I0
sg29
I0
sg15
I0
sg9
I0
sg13
I0
sg16
I0
sg22
I0
sg38
I0
sg37
I0
sg47
I0
sg14
I0
sg17
I0
sg43
I0
sg48
I0
sg41
I0
ssg8
(dp147
g30
I0
sg23
I0
sg24
I0
sg21
I0
sg12
I0
sg52
I0
sg10
I0
sg35
I0
sg34
I0
sg51
I0
sg27
I0
sg50
I0
sg39
I0
sg20
I0
sg18
I0
sg28
I0
sg32
I0
sg8
I144
sg46
I0
sg40
I0
sg33
I0
sg25
I0
sg19
I0
sg26
I0
sg44
I0
sg31
I0
sg45
I0
sg42
I0
sg11
I0
sg36
I0
sg29
I0
sg15
I0
sg9
I0
sg13
I0
sg16
I0
sg49
I0
sg22
I0
sg38
I0
sg37
I0
sg47
I0
sg14
I0
sg17
I0
sg43
I0
sg48
I0
sg41
I0
ssg46
(dp148
S'thermos.n.01'
p149
I0
sS'methamphetamine.n.01'
p150
I0
sS'bowl.n.01'
p151
I0
sS'batter.n.02'
p152
I0
sS'opening.n.10'
p153
I0
sg52
I0
sS'apple.n.01'
p154
I0
sS'foam.n.01'
p155
I0
sS'milk.n.01'
p156
I0
sS'pan.n.03'
p157
I0
sS'cola.n.02'
p158
I0
sS'gap.n.03'
p159
I0
sS'fill.v.09'
p160
I0
sS'bottle.n.01'
p161
I0
sS'pot.n.01'
p162
I0
sS'fill.v.01'
p163
I0
sg46
I8
sg40
I0
sS'glass.n.02'
p164
I0
sS'gravy.n.01'
p165
I0
sS'salt.n.02'
p166
I0
sS'gravy.n.02'
p167
I0
sg44
I0
sS'coffee.n.01'
p168
I0
sg45
I0
sg42
I0
sS'opening.n.01'
p169
I0
sS'mug.n.04'
p170
I0
sS'fruit_juice.n.01'
p171
I0
sS'teapot.n.01'
p172
I0
sS'blender.n.01'
p173
I0
sS'saltcellar.n.01'
p174
I0
sS'water.n.06'
p175
I0
sg49
I0
sS'ice.n.01'
p176
I0
sS'cup.n.01'
p177
I0
sS'kettle.n.01'
p178
I0
sg47
I0
sS'curd.n.01'
p179
I0
sS'jar.n.01'
p180
I0
sg43
I0
sg48
I0
sg41
I0
ssg40
(dp181
g149
I0
sg151
I0
sg152
I0
sg153
I0
sg52
I0
sg154
I0
sg155
I0
sg156
I0
sg51
I0
sg157
I0
sg50
I0
sg158
I0
sg159
I0
sg160
I0
sg161
I0
sg162
I0
sg163
I0
sg46
I0
sg40
I8
sg164
I0
sg165
I0
sg166
I0
sg167
I0
sg44
I0
sg168
I0
sg45
I0
sg42
I0
sg169
I0
sg170
I0
sg171
I0
sg172
I0
sg173
I0
sg174
I0
sg175
I0
sg49
I0
sg176
I0
sg177
I0
sg178
I0
sg47
I0
sg179
I0
sg180
I0
sg43
I0
sg48
I0
sg41
I0
ssg33
(dp182
g30
I0
sg23
I0
sg24
I0
sg21
I0
sg12
I0
sg52
I0
sg10
I0
sg35
I0
sg34
I0
sg51
I0
sg27
I0
sg50
I0
sg39
I0
sg20
I0
sg18
I0
sg28
I0
sg32
I0
sg8
I0
sg46
I0
sg40
I0
sg33
I8
sg25
I0
sg19
I0
sg26
I0
sg44
I0
sg31
I0
sg45
I0
sg42
I0
sg11
I0
sg36
I0
sg29
I0
sg15
I0
sg9
I0
sg13
I0
sg16
I0
sg49
I0
sg22
I0
sg38
I0
sg37
I0
sg47
I0
sg14
I0
sg17
I0
sg43
I0
sg48
I0
sg41
I0
ssg25
(dp183
g30
I0
sg23
I0
sg24
I0
sg21
I0
sg10
I0
sg12
I0
sg35
I0
sg34
I0
sg51
I0
sg27
I0
sg50
I0
sg39
I0
sg20
I0
sg18
I0
sg28
I0
sg32
I0
sg8
I0
sg46
I0
sg40
I0
sg33
I0
sg25
I0
sg19
I0
sg26
I8
sg44
I0
sg31
I0
sg45
I0
sg42
I0
sg11
I0
sg36
I0
sg29
I0
sg15
I0
sg9
I0
sg13
I0
sg16
I0
sg49
I0
sg22
I0
sg38
I0
sg37
I0
sg47
I0
sg14
I0
sg17
I0
sg43
I0
sg48
I0
sg41
I0
ssg19
(dp184
g30
I0
sg23
I0
sg24
I0
sg21
I0
sg10
I0
sg12
I0
sg35
I0
sg34
I0
sg51
I0
sg27
I0
sg50
I0
sg39
I0
sg20
I0
sg18
I0
sg28
I0
sg32
I0
sg8
I0
sg46
I0
sg40
I0
sg33
I0
sg25
I0
sg19
I8
sg26
I0
sg44
I0
sg31
I0
sg45
I0
sg42
I0
sg11
I0
sg36
I0
sg29
I0
sg15
I0
sg9
I0
sg13
I0
sg16
I0
sg22
I0
sg38
I0
sg37
I0
sg63
I0
sg14
I0
sg17
I0
sg43
I0
sg49
I0
sg41
I0
ssg26
(dp185
g30
I0
sg23
I0
sg24
I0
sg21
I0
sg12
I0
sg10
I0
sg35
I0
sg34
I0
sg51
I0
sg27
I0
sg50
I0
sg39
I0
sg20
I0
sg18
I0
sg28
I0
sg32
I0
sg8
I0
sg46
I0
sg40
I0
sg33
I0
sg25
I0
sg19
I0
sg26
I0
sg44
I0
sg31
I0
sg45
I0
sg42
I0
sg11
I0
sg36
I0
sg29
I0
sg15
I0
sg9
I0
sg13
I0
sg16
I0
sg49
I0
sg22
I0
sg38
I0
sg37
I0
sg47
I0
sg14
I0
sg17
I0
sg43
I0
sg48
I0
sg41
I0
ssg44
(dp186
g149
I0
sg150
I0
sg151
I0
sg152
I0
sg153
I0
sg52
I0
sg154
I0
sg155
I0
sg156
I0
sg157
I0
sg158
I0
sg159
I0
sg160
I0
sg161
I0
sg162
I0
sg163
I0
sg46
I0
sg40
I0
sg164
I0
sg165
I0
sg166
I0
sg167
I0
sg44
I8
sg168
I0
sg45
I0
sg42
I0
sg169
I0
sg170
I0
sg171
I0
sg172
I0
sg173
I0
sg174
I0
sg175
I0
sg49
I0
sg176
I0
sg177
I0
sg178
I0
sg47
I0
sg179
I0
sg180
I0
sg43
I0
sg48
I0
sg41
I0
ssg31
(dp187
g30
I0
sg23
I0
sg24
I0
sg21
I0
sg12
I0
sg52
I0
sg10
I0
sg35
I0
sg34
I0
sg51
I0
sg27
I0
sg50
I0
sg39
I0
sg20
I0
sg18
I0
sg28
I0
sg32
I0
sg8
I0
sg46
I0
sg40
I0
sg33
I0
sg25
I0
sg19
I0
sg26
I0
sg44
I0
sg31
I8
sg45
I0
sg42
I0
sg11
I0
sg36
I0
sg29
I0
sg15
I0
sg9
I0
sg13
I0
sg16
I0
sg22
I0
sg38
I0
sg37
I0
sg47
I0
sg14
I0
sg17
I0
sg43
I0
sg48
I0
sg41
I0
ssg45
(dp188
g45
I8
sg150
I0
sg149
I0
sg151
I0
sg152
I0
sg153
I0
sg52
I0
sg154
I0
sg155
I0
sg156
I0
sg157
I0
sg158
I0
sg159
I0
sg174
I0
sg161
I0
sg162
I0
sg163
I0
sg46
I0
sg40
I0
sg164
I0
sg165
I0
sg166
I0
sg167
I0
sg44
I0
sg168
I0
sg42
I0
sg169
I0
sg170
I0
sg171
I0
sg172
I0
sg173
I0
sg160
I0
sg175
I0
sg49
I0
sg176
I0
sg177
I0
sg178
I0
sg47
I0
sg179
I0
sg180
I0
sg43
I0
sg48
I0
sg41
I0
ssg42
(dp189
g149
I0
sg151
I0
sg152
I0
sg153
I0
sg52
I0
sg154
I0
sg155
I0
sg156
I0
sg51
I0
sg157
I0
sg50
I0
sg158
I0
sg159
I0
sg160
I0
sg161
I0
sg162
I0
sg163
I0
sg46
I0
sg40
I0
sg164
I0
sg165
I0
sg166
I0
sg167
I0
sg44
I0
sg168
I0
sg45
I0
sg42
I8
sg169
I0
sg170
I0
sg171
I0
sg172
I0
sg173
I0
sg174
I0
sg175
I0
sg49
I0
sg176
I0
sg177
I0
sg178
I0
sg47
I0
sg179
I0
sg180
I0
sg43
I0
sg48
I0
sg41
I0
ssg11
(dp190
g30
I0
sg23
I0
sg24
I0
sg21
I0
sg12
I8
sg52
I0
sg10
I0
sg35
I0
sg34
I0
sg51
I0
sg27
I0
sg50
I0
sg39
I0
sg20
I7
sg18
I0
sg28
I0
sg32
I0
sg8
I0
sg46
I0
sg40
I0
sg33
I0
sg25
I0
sg19
I0
sg26
I0
sg44
I0
sg31
I0
sg45
I0
sg42
I0
sg11
I1
sg36
I0
sg29
I0
sg15
I0
sg9
I0
sg13
I0
sg16
I0
sg49
I0
sg22
I0
sg38
I0
sg37
I0
sg47
I0
sg14
I0
sg17
I0
sg43
I0
sg48
I0
sg41
I0
ssg36
(dp191
g30
I0
sg23
I0
sg24
I0
sg21
I0
sg10
I0
sg52
I0
sg12
I0
sg35
I0
sg34
I0
sg51
I0
sg27
I0
sg50
I0
sg39
I0
sg20
I0
sg18
I0
sg28
I0
sg32
I0
sg8
I0
sg46
I0
sg40
I0
sg33
I0
sg25
I0
sg19
I0
sg26
I0
sg44
I0
sg31
I0
sg45
I0
sg42
I0
sg11
I0
sg36
I8
sg29
I0
sg15
I0
sg9
I0
sg13
I0
sg16
I0
sg49
I0
sg22
I0
sg38
I0
sg37
I0
sg47
I0
sg14
I0
sg17
I0
sg43
I0
sg48
I0
sg41
I0
ssg29
(dp192
g30
I0
sg23
I0
sg24
I0
sg21
I0
sg12
I0
sg52
I0
sg10
I0
sg35
I0
sg34
I0
sg51
I0
sg27
I0
sg50
I0
sg39
I0
sg20
I0
sg18
I0
sg28
I0
sg32
I0
sg8
I0
sg46
I0
sg40
I0
sg33
I0
sg25
I0
sg19
I0
sg26
I0
sg44
I0
sg31
I0
sg45
I0
sg42
I0
sg11
I0
sg36
I0
sg29
I6
sg15
I0
sg9
I0
sg13
I0
sg16
I0
sg22
I0
sg38
I0
sg37
I0
sg47
I0
sg14
I0
sg17
I0
sg43
I0
sg48
I2
sg41
I0
ssg15
(dp193
g30
I0
sg23
I0
sg24
I0
sg21
I0
sg12
I0
sg52
I0
sg10
I0
sg35
I0
sg34
I0
sg51
I0
sg27
I0
sg50
I0
sg39
I0
sg20
I0
sg18
I0
sg28
I0
sg32
I0
sg8
I0
sg65
I0
sg66
I0
sg33
I0
sg25
I0
sg19
I0
sg26
I0
sg67
I0
sg31
I0
sg68
I0
sg69
I0
sg11
I0
sg36
I0
sg29
I0
sg15
I8
sg9
I0
sg13
I0
sg16
I0
sg102
I0
sg22
I0
sg38
I0
sg37
I0
sg63
I0
sg14
I0
sg17
I0
sg70
I0
sg49
I0
sg71
I0
ssg9
(dp194
g30
I0
sg23
I0
sg24
I0
sg21
I0
sg12
I0
sg52
I0
sg10
I0
sg35
I0
sg34
I0
sg27
I0
sg39
I0
sg20
I0
sg18
I0
sg28
I0
sg32
I0
sg8
I0
sg65
I0
sg66
I0
sg33
I0
sg25
I0
sg19
I0
sg26
I0
sg67
I0
sg31
I0
sg68
I0
sg69
I0
sg11
I0
sg36
I0
sg29
I0
sg15
I0
sg9
I8
sg13
I0
sg16
I0
sg49
I0
sg22
I0
sg38
I0
sg37
I0
sg47
I0
sg14
I0
sg17
I0
sg70
I0
sg48
I0
sg71
I0
ssg13
(dp195
g30
I0
sg23
I0
sg24
I0
sg21
I0
sg12
I0
sg52
I0
sg10
I0
sg35
I0
sg34
I0
sg51
I0
sg27
I0
sg50
I0
sg39
I0
sg20
I0
sg18
I0
sg28
I0
sg32
I0
sg8
I15
sg46
I0
sg40
I0
sg33
I0
sg25
I0
sg19
I0
sg26
I0
sg44
I0
sg31
I0
sg45
I0
sg42
I0
sg11
I0
sg36
I0
sg29
I0
sg15
I0
sg9
I0
sg13
I1
sg16
I0
sg49
I0
sg22
I0
sg38
I0
sg37
I0
sg47
I0
sg14
I0
sg17
I0
sg43
I0
sg48
I0
sg41
I0
ssg16
(dp196
g30
I0
sg23
I0
sg24
I0
sg21
I0
sg12
I0
sg52
I0
sg10
I0
sg35
I0
sg34
I0
sg51
I0
sg27
I0
sg50
I0
sg39
I0
sg20
I0
sg18
I0
sg28
I0
sg32
I0
sg8
I0
sg46
I0
sg40
I0
sg33
I0
sg25
I0
sg19
I0
sg26
I0
sg44
I0
sg31
I0
sg45
I0
sg42
I0
sg11
I0
sg36
I0
sg29
I0
sg15
I0
sg9
I0
sg13
I0
sg16
I32
sg49
I0
sg22
I0
sg38
I0
sg37
I0
sg47
I0
sg14
I0
sg17
I0
sg43
I0
sg48
I0
sg41
I0
ssg49
(dp197
S'gap.n.03'
p198
I0
sS'bowl.n.01'
p199
I0
sS'batter.n.02'
p200
I0
sS'opening.n.10'
p201
I0
sS'apple.n.01'
p202
I0
sS'cup.n.01'
p203
I0
sS'milk.n.01'
p204
I0
sS'foam.n.01'
p205
I0
sS'cola.n.02'
p206
I0
sS'saltcellar.n.01'
p207
I0
sS'fill.v.09'
p208
I0
sS'fill.v.01'
p209
I0
sS'pitcher.n.02'
p210
I0
sS'measuring_cup.n.01'
p211
I0
sS'glass.n.02'
p212
I0
sS'gravy.n.01'
p213
I0
sS'salt.n.02'
p214
I0
sS'gravy.n.02'
p215
I0
sS'wok.n.01'
p216
I0
sS'whiskey.n.01'
p217
I0
sS'opening.n.01'
p218
I0
sS'mug.n.04'
p219
I0
sS'teapot.n.01'
p220
I0
sS'blender.n.01'
p221
I0
sS'rice.n.01'
p222
I0
sS'water.n.06'
p223
I0
sS'ice.n.01'
p224
I0
sS'kettle.n.01'
p225
I0
sg63
I0
sS'curd.n.01'
p226
I0
sS'jar.n.01'
p227
I0
sS'carafe.n.01'
p228
I0
sg49
I0
sS'meal.n.03'
p229
I0
ssg22
(dp230
g30
I0
sg23
I2
sg24
I0
sg21
I0
sg10
I0
sg12
I0
sg35
I0
sg34
I0
sg51
I0
sg27
I0
sg50
I0
sg39
I0
sg20
I0
sg18
I0
sg28
I0
sg32
I0
sg8
I0
sg46
I0
sg40
I0
sg33
I0
sg25
I0
sg19
I0
sg26
I0
sg44
I0
sg31
I0
sg45
I0
sg42
I0
sg11
I0
sg36
I0
sg29
I0
sg15
I0
sg9
I0
sg13
I0
sg16
I0
sg49
I0
sg22
I1
sg38
I0
sg37
I0
sg47
I5
sg14
I0
sg17
I0
sg43
I0
sg48
I0
sg41
I0
ssg38
(dp231
g30
I0
sg23
I0
sg24
I0
sg21
I0
sg12
I0
sg52
I0
sg10
I0
sg38
I8
sg34
I0
sg51
I0
sg27
I0
sg35
I0
sg39
I0
sg20
I0
sg18
I0
sg28
I0
sg32
I0
sg8
I0
sg50
I0
sg46
I0
sg40
I0
sg33
I0
sg25
I0
sg19
I0
sg26
I0
sg44
I0
sg31
I0
sg45
I0
sg42
I0
sg11
I0
sg36
I0
sg29
I0
sg15
I0
sg9
I0
sg13
I0
sg16
I0
sg49
I0
sg22
I0
sg37
I0
sg47
I0
sg14
I0
sg17
I0
sg43
I0
sg48
I0
sg41
I0
ssg37
(dp232
g30
I0
sg23
I0
sg24
I0
sg21
I0
sg12
I0
sg52
I0
sg10
I0
sg35
I0
sg34
I0
sg51
I0
sg27
I0
sg50
I0
sg39
I0
sg20
I0
sg18
I0
sg28
I0
sg32
I0
sg8
I0
sg46
I0
sg40
I0
sg33
I0
sg25
I0
sg19
I0
sg26
I0
sg44
I0
sg31
I0
sg45
I0
sg42
I0
sg11
I0
sg36
I0
sg29
I0
sg15
I0
sg9
I0
sg13
I0
sg16
I0
sg49
I0
sg22
I0
sg38
I0
sg37
I8
sg47
I0
sg14
I0
sg17
I0
sg43
I0
sg48
I0
sg41
I0
ssg47
(dp233
S'rice.n.01'
p234
I0
sg198
I0
sS'bowl.n.01'
p235
I0
sg200
I0
sS'opening.n.10'
p236
I0
sS'apple.n.01'
p237
I0
sS'cup.n.01'
p238
I0
sS'milk.n.01'
p239
I0
sg51
I0
sS'pan.n.03'
p240
I0
sS'foam.n.01'
p241
I0
sS'cola.n.02'
p242
I0
sg207
I0
sS'fill.v.09'
p243
I0
sS'bottle.n.01'
p244
I0
sS'pot.n.01'
p245
I0
sS'fill.v.01'
p246
I0
sg50
I0
sS'pitcher.n.02'
p247
I0
sS'measuring_cup.n.01'
p248
I0
sS'glass.n.02'
p249
I0
sS'gravy.n.01'
p250
I0
sg214
I0
sS'gravy.n.02'
p251
I0
sS'wok.n.01'
p252
I0
sS'coffee.n.01'
p253
I0
sS'whiskey.n.01'
p254
I0
sS'opening.n.01'
p255
I0
sS'mug.n.04'
p256
I0
sS'fruit_juice.n.01'
p257
I0
sg220
I0
sS'blender.n.01'
p258
I0
sS'thermos.n.01'
p259
I0
sS'water.n.06'
p260
I0
sg49
I0
sS'ice.n.01'
p261
I0
sS'kettle.n.01'
p262
I0
sg47
I0
sS'curd.n.01'
p263
I0
sS'jar.n.01'
p264
I0
sS'carafe.n.01'
p265
I0
sg48
I0
sS'meal.n.03'
p266
I0
ssg14
(dp267
g30
I0
sg23
I0
sg24
I0
sg21
I0
sg10
I0
sg52
I0
sg12
I0
sg35
I0
sg34
I0
sg27
I0
sg39
I0
sg20
I0
sg18
I0
sg28
I0
sg32
I0
sg8
I0
sg65
I0
sg66
I0
sg33
I0
sg25
I0
sg19
I0
sg26
I0
sg67
I0
sg31
I0
sg68
I0
sg69
I0
sg11
I0
sg36
I0
sg29
I0
sg15
I0
sg9
I0
sg13
I0
sg16
I0
sg49
I0
sg22
I0
sg38
I0
sg37
I0
sg47
I0
sg14
I8
sg17
I0
sg70
I0
sg48
I0
sg71
I0
ssg17
(dp268
g30
I0
sg23
I0
sg24
I0
sg21
I0
sg12
I0
sg52
I0
sg10
I0
sg35
I0
sg34
I0
sg51
I0
sg27
I0
sg50
I0
sg39
I0
sg20
I0
sg18
I0
sg28
I0
sg32
I0
sg8
I0
sg46
I0
sg40
I0
sg33
I0
sg25
I0
sg19
I0
sg26
I0
sg44
I0
sg31
I0
sg45
I0
sg42
I0
sg11
I0
sg36
I0
sg29
I0
sg15
I0
sg9
I0
sg13
I0
sg16
I0
sg49
I0
sg22
I0
sg38
I0
sg37
I0
sg47
I0
sg14
I0
sg17
I16
sg43
I0
sg48
I0
sg41
I0
ssg43
(dp269
g149
I0
sg151
I0
sg152
I0
sg153
I0
sg52
I0
sg154
I0
sg155
I0
sg156
I0
sg51
I0
sg157
I0
sg50
I0
sg158
I0
sg159
I0
sg160
I0
sg161
I0
sg162
I0
sg163
I0
sg46
I0
sg40
I0
sg164
I0
sg165
I0
sg166
I0
sg167
I0
sg44
I0
sg168
I0
sg45
I0
sg42
I0
sg169
I0
sg170
I0
sg171
I0
sg172
I0
sg173
I0
sg174
I0
sg175
I0
sg49
I0
sg176
I0
sg177
I0
sg178
I0
sg47
I0
sg179
I0
sg180
I0
sg43
I8
sg48
I0
sg41
I0
ssg48
(dp270
g234
I0
sg235
I0
sg236
I0
sg52
I0
sg237
I0
sg238
I0
sg239
I0
sg240
I0
sg241
I0
sg242
I0
sg243
I0
sg244
I0
sg245
I0
sg246
I0
sg247
I0
sg248
I0
sg249
I0
sg250
I0
sg251
I0
sg252
I0
sg253
I0
sg254
I0
sg255
I0
sg256
I0
sg257
I0
sg94
I0
sg258
I0
sg259
I0
sg260
I0
sg261
I0
sg262
I0
sg47
I0
sg263
I0
sg264
I0
sg265
I0
sg48
I0
sg266
I0
ssg41
(dp271
g149
I0
sg151
I0
sg152
I0
sg153
I0
sg52
I0
sg154
I0
sg155
I0
sg156
I0
sg51
I0
sg157
I0
sg50
I0
sg158
I0
sg159
I0
sg174
I0
sg161
I0
sg162
I0
sg163
I0
sg46
I0
sg40
I0
sg164
I0
sg165
I0
sg166
I0
sg167
I0
sg44
I0
sg168
I0
sg45
I0
sg42
I0
sg169
I0
sg170
I0
sg171
I0
sg172
I0
sg173
I0
sg160
I0
sg175
I0
sg49
I1
sg176
I0
sg177
I0
sg178
I0
sg47
I0
sg179
I0
sg180
I0
sg43
I0
sg48
I0
sg41
I7
sssb.