ccopy_reg
_reconstructor
p0
(cutils.eval
ConfusionMatrix
p1
c__builtin__
object
p2
Ntp3
Rp4
(dp5
S'labels'
p6
(lp7
S'fill.v.01'
p8
aS'teapot.n.01'
p9
aS'water.n.06'
p10
aS'jar.n.01'
p11
aS'saltcellar.n.01'
p12
aS'salt.n.02'
p13
aS'opening.n.01'
p14
aS'gap.n.03'
p15
aS'fill.v.09'
p16
aS'batter.n.02'
p17
aS'ice.n.01'
p18
aS'ice.n.05'
p19
aS'bowl.n.01'
p20
aS'bowl.n.08'
p21
aS'gravy.n.01'
p22
aS'gravy.n.02'
p23
aS'pan.n.03'
p24
aS'pan.n.01'
p25
aS'bottle.n.01'
p26
aS'fruit_juice.n.01'
p27
aS'thermos.n.01'
p28
aS'coffee.n.01'
p29
aS'pot.n.01'
p30
aS'glass.n.02'
p31
aS'milk.n.01'
p32
aS'foam.n.01'
p33
aS'mug.n.04'
p34
aS'kettle.n.01'
p35
aS'cup.n.01'
p36
aS'cola.n.02'
p37
aS'measuring_cup.n.01'
p38
aS'meal.n.03'
p39
aS'whiskey.n.01'
p40
aS'carafe.n.01'
p41
asS'instanceCount'
p42
I47
sS'matrix'
p43
(dp44
g28
(dp45
S'thermos.n.01'
p46
I1
ssg20
(dp47
g21
I1
ssg17
(dp48
S'batter.n.02'
p49
I1
ssg21
(dp50
g21
I0
ssg32
(dp51
S'milk.n.01'
p52
I1
ssg25
(dp53
g25
I0
ssg24
(dp54
g25
I1
ssg33
(dp55
S'foam.n.01'
p56
I1
ssg37
(dp57
S'cola.n.02'
p58
I1
ssg15
(dp59
g15
I0
ssg12
(dp60
S'saltcellar.n.01'
p61
I1
ssg26
(dp62
S'bottle.n.01'
p63
I1
ssg30
(dp64
S'pot.n.01'
p65
I1
ssg8
(dp66
S'fill.v.01'
p67
I15
ssg38
(dp68
S'measuring_cup.n.01'
p69
I1
ssg31
(dp70
S'glass.n.02'
p71
I1
ssg22
(dp72
g23
I1
ssg13
(dp73
S'salt.n.02'
p74
I1
ssg23
(dp75
g23
I0
ssg29
(dp76
S'coffee.n.01'
p77
I1
ssg40
(dp78
S'whiskey.n.01'
p79
I1
ssg14
(dp80
g15
I1
ssg34
(dp81
S'mug.n.04'
p82
I1
ssg27
(dp83
S'fruit_juice.n.01'
p84
I1
ssg9
(dp85
S'teapot.n.01'
p86
I1
ssg16
(dp87
S'fill.v.01'
p88
I1
ssg10
(dp89
S'water.n.06'
p90
I4
ssg18
(dp91
g19
I1
ssg36
(dp92
S'cup.n.01'
p93
I1
ssg35
(dp94
S'kettle.n.01'
p95
I1
ssg19
(dp96
g19
I0
ssg11
(dp97
S'jar.n.01'
p98
I2
ssg41
(dp99
S'carafe.n.01'
p100
I1
ssg39
(dp101
S'meal.n.03'
p102
I1
sssb.