ccopy_reg
_reconstructor
p0
(cutils.eval
ConfusionMatrix
p1
c__builtin__
object
p2
Ntp3
Rp4
(dp5
S'labels'
p6
(lp7
S'wok.n.01'
p8
aS'fill.v.01'
p9
aS'rice.n.01'
p10
aS'pitcher.n.02'
p11
aS'milk.n.01'
p12
aS'blender.n.01'
p13
aS'apple.n.01'
p14
aS'opening.n.01'
p15
aS'opening.n.10'
p16
aS'fill.v.09'
p17
aS'curd.n.01'
p18
aS'teapot.n.01'
p19
aS'water.n.06'
p20
aS'jar.n.01'
p21
aS'saltcellar.n.01'
p22
aS'salt.n.02'
p23
aS'gap.n.03'
p24
aS'batter.n.02'
p25
aS'ice.n.01'
p26
aS'methamphetamine.n.01'
p27
aS'bowl.n.01'
p28
aS'gravy.n.01'
p29
aS'gravy.n.02'
p30
aS'pan.n.03'
p31
aS'bottle.n.01'
p32
aS'fruit_juice.n.01'
p33
aS'thermos.n.01'
p34
aS'coffee.n.01'
p35
aS'pot.n.01'
p36
aS'glass.n.02'
p37
aS'foam.n.01'
p38
aS'mug.n.04'
p39
asS'instanceCount'
p40
I47
sS'matrix'
p41
(dp42
g34
(dp43
S'thermos.n.01'
p44
I1
ssg27
(dp45
g27
I0
ssg17
(dp46
S'fill.v.01'
p47
I2
ssg25
(dp48
S'batter.n.02'
p49
I1
ssg14
(dp50
S'apple.n.01'
p51
I1
ssg16
(dp52
g16
I0
ssg38
(dp53
S'foam.n.01'
p54
I1
ssg12
(dp55
S'milk.n.01'
p56
I2
ssg28
(dp57
S'bowl.n.01'
p58
I1
ssg24
(dp59
g24
I0
ssg22
(dp60
S'saltcellar.n.01'
p61
I1
ssg32
(dp62
S'bottle.n.01'
p63
I1
ssg36
(dp64
S'pot.n.01'
p65
I1
ssg9
(dp66
S'fill.v.01'
p67
I14
ssg11
(dp68
S'pitcher.n.02'
p69
I1
ssg37
(dp70
S'glass.n.02'
p71
I1
ssg29
(dp72
g30
I1
ssg23
(dp73
S'salt.n.02'
p74
I1
ssg30
(dp75
g30
I0
ssg8
(dp76
S'wok.n.01'
p77
I1
ssg35
(dp78
S'coffee.n.01'
p79
I1
ssg31
(dp80
S'pan.n.03'
p81
I1
ssg15
(dp82
g16
I1
sg24
I1
ssg39
(dp83
S'mug.n.04'
p84
I1
ssg33
(dp85
S'fruit_juice.n.01'
p86
I1
ssg19
(dp87
S'teapot.n.01'
p88
I1
ssg13
(dp89
S'blender.n.01'
p90
I1
ssg10
(dp91
S'rice.n.01'
p92
I1
ssg20
(dp93
S'water.n.06'
p94
I3
ssg26
(dp95
g27
I1
ssg18
(dp96
S'curd.n.01'
p97
I1
ssg21
(dp98
S'jar.n.01'
p99
I2
sssb.