ccopy_reg
_reconstructor
p0
(cutils.eval
ConfusionMatrix
p1
c__builtin__
object
p2
Ntp3
Rp4
(dp5
S'labels'
p6
(lp7
S'fill.v.01'
p8
aS'kettle.n.01'
p9
aS'water.n.06'
p10
aS'cup.n.01'
p11
aS'cola.n.02'
p12
aS'measuring_cup.n.01'
p13
aS'meal.n.03'
p14
aS'whiskey.n.01'
p15
aS'carafe.n.01'
p16
aS'wok.n.01'
p17
aS'rice.n.01'
p18
aS'pitcher.n.02'
p19
aS'milk.n.01'
p20
aS'blender.n.01'
p21
aS'apple.n.01'
p22
aS'opening.n.01'
p23
aS'opening.n.10'
p24
aS'fill.v.09'
p25
aS'curd.n.01'
p26
aS'teapot.n.01'
p27
aS'jar.n.01'
p28
aS'saltcellar.n.01'
p29
aS'salt.n.02'
p30
aS'gap.n.03'
p31
aS'batter.n.02'
p32
aS'ice.n.01'
p33
aS'ice.n.05'
p34
aS'bowl.n.01'
p35
aS'gravy.n.01'
p36
aS'gravy.n.02'
p37
aS'pan.n.03'
p38
aS'bottle.n.01'
p39
aS'fruit_juice.n.01'
p40
asS'instanceCount'
p41
I47
sS'matrix'
p42
(dp43
g25
(dp44
S'fill.v.01'
p45
I2
ssg32
(dp46
S'batter.n.02'
p47
I1
ssg24
(dp48
g24
I0
ssg22
(dp49
S'apple.n.01'
p50
I1
ssg8
(dp51
S'fill.v.01'
p52
I14
ssg20
(dp53
S'milk.n.01'
p54
I1
ssg35
(dp55
S'bowl.n.01'
p56
I1
ssg12
(dp57
S'cola.n.02'
p58
I1
ssg31
(dp59
g31
I0
ssg29
(dp60
S'saltcellar.n.01'
p61
I1
ssg39
(dp62
S'bottle.n.01'
p63
I1
ssg11
(dp64
S'cup.n.01'
p65
I1
ssg19
(dp66
S'pitcher.n.02'
p67
I1
ssg13
(dp68
S'measuring_cup.n.01'
p69
I1
ssg36
(dp70
g37
I1
ssg30
(dp71
S'salt.n.02'
p72
I1
ssg37
(dp73
g37
I0
ssg17
(dp74
S'wok.n.01'
p75
I1
ssg38
(dp76
S'pan.n.03'
p77
I1
ssg15
(dp78
S'whiskey.n.01'
p79
I1
ssg23
(dp80
g24
I1
sg31
I1
ssg40
(dp81
S'fruit_juice.n.01'
p82
I1
ssg27
(dp83
S'teapot.n.01'
p84
I1
ssg21
(dp85
S'blender.n.01'
p86
I1
ssg18
(dp87
S'rice.n.01'
p88
I1
ssg10
(dp89
S'water.n.06'
p90
I3
ssg33
(dp91
g34
I1
ssg9
(dp92
S'kettle.n.01'
p93
I1
ssg34
(dp94
g34
I0
ssg26
(dp95
S'curd.n.01'
p96
I1
ssg28
(dp97
S'jar.n.01'
p98
I2
ssg16
(dp99
S'carafe.n.01'
p100
I1
ssg14
(dp101
S'meal.n.03'
p102
I1
sssb.