ccopy_reg
_reconstructor
p0
(cutils.eval
ConfusionMatrix
p1
c__builtin__
object
p2
Ntp3
Rp4
(dp5
S'labels'
p6
(lp7
S'pan.n.03'
p8
aS'add.v.01'
p9
aS'butter.n.01'
p10
aS'mixing_bowl.n.01'
p11
aS'sugar.n.01'
p12
aS'rib.n.03'
p13
aS'vanilla.n.02'
p14
aS'egg.n.02'
p15
asS'instanceCount'
p16
I300
sS'matrix'
p17
(dp18
g8
(dp19
g8
I40
sg13
I0
sg15
I0
sg10
I0
sg11
I0
sg14
I0
sg9
I0
sg12
I0
ssg13
(dp20
g8
I0
sg13
I20
sg15
I0
sg10
I0
sg11
I0
sg14
I0
sg9
I0
sg12
I0
ssg15
(dp21
S'pan.n.03'
p22
I0
sS'rib.n.03'
p23
I0
sg15
I20
sS'butter.n.01'
p24
I0
sS'mixing_bowl.n.01'
p25
I0
sS'vanilla.n.02'
p26
I0
sS'add.v.01'
p27
I0
sS'sugar.n.01'
p28
I0
ssg10
(dp29
g8
I0
sg13
I0
sg15
I0
sg10
I60
sg11
I0
sg14
I0
sg9
I0
sg12
I0
ssg11
(dp30
g8
I0
sg13
I0
sg15
I0
sg10
I0
sg11
I20
sg14
I0
sg9
I0
sg12
I0
ssg14
(dp31
g8
I0
sg13
I0
sg15
I0
sg10
I0
sg11
I0
sg14
I20
sg9
I0
sg12
I0
ssg9
(dp32
g8
I0
sg13
I0
sg15
I0
sg10
I0
sg11
I0
sg14
I0
sg9
I100
sg12
I0
ssg12
(dp33
g8
I0
sg13
I0
sg15
I0
sg10
I0
sg11
I0
sg14
I0
sg9
I0
sg12
I20
sssb.