ccopy_reg
_reconstructor
p0
(cutils.eval
ConfusionMatrix
p1
c__builtin__
object
p2
Ntp3
Rp4
(dp5
S'labels'
p6
(lp7
S'cut.v.01'
p8
aS'swerve.v.01'
p9
aS'bacon.n.01'
p10
aS'bacon.n.03'
p11
aS'cabbage.n.01'
p12
aS'lemon.n.01'
p13
aS'gamboge.n.02'
p14
asS'instanceCount'
p15
I6
sS'matrix'
p16
(dp17
g8
(dp18
g9
I3
ssg12
(dp19
S'cabbage.n.01'
p20
I1
ssg11
(dp21
g11
I0
ssg10
(dp22
g11
I1
ssg14
(dp23
g14
I0
ssg13
(dp24
g14
I1
ssg9
(dp25
g9
I0
sssb.