ccopy_reg
_reconstructor
p0
(cutils.eval
ConfusionMatrix
p1
c__builtin__
object
p2
Ntp3
Rp4
(dp5
S'labels'
p6
(lp7
S'walnut.n.01'
p8
aS'walnut.n.02'
p9
aS'get.v.01'
p10
aS'make.v.02'
p11
aS'pear.n.01'
p12
aS'blend.v.03'
p13
aS'mix.v.05'
p14
aS'bowl.n.01'
p15
aS'put.v.01'
p16
aS'put.v.02'
p17
aS'oven.n.01'
p18
aS'lodge.v.02'
p19
aS'stick.v.08'
p20
aS'pizza.n.01'
p21
aS'pan.n.01'
p22
aS'pan.n.03'
p23
aS'add.v.01'
p24
aS'lend.v.01'
p25
aS'burner.n.02'
p26
aS'burner.n.01'
p27
aS'pan.n.02'
p28
aS'butter.n.01'
p29
aS'vanilla.n.02'
p30
aS'vanilla.n.03'
p31
aS'jar.n.01'
p32
aS'fill.v.01'
p33
aS'gravy.n.01'
p34
aS'gravy.n.02'
p35
aS'whiskey.n.01'
p36
aS'carafe.n.01'
p37
aS'tomato.n.01'
p38
aS'tomato.n.02'
p39
aS'piece.n.08'
p40
aS'slice.n.04'
p41
aS'onion.n.03'
p42
aS'onion.n.02'
p43
aS'mustard.n.02'
p44
aS'cut.v.01'
p45
aS'cut.v.32'
p46
aS'squash.n.02'
p47
aS'squash.n.01'
p48
aS'bread.n.01'
p49
aS'slice.n.06'
p50
aS'knife.n.01'
p51
aS'tongue.n.03'
p52
aS'banana.n.02'
p53
aS'slice.v.03'
p54
aS'opening.n.01'
p55
aS'gap.n.03'
p56
aS'fill.v.09'
p57
aS'batter.n.02'
p58
aS'cup.n.01'
p59
aS'cola.n.02'
p60
aS'onion.n.01'
p61
aS'beef.n.02'
p62
aS'gripe.n.01'
p63
aS'plate.n.04'
p64
aS'plate.n.13'
p65
aS'pepper.n.03'
p66
aS'salt.n.02'
p67
aS'salt.n.04'
p68
aS'egg.n.02'
p69
aS'egg.n.01'
p70
aS'strawberry.n.01'
p71
aS'edit.v.03'
p72
aS'pot.n.01'
p73
aS'water.n.06'
p74
aS'rum.n.01'
p75
aS'shaker.n.03'
p76
aS'take.v.04'
p77
aS'assume.v.03'
p78
aS'decant.v.01'
p79
aS'pour.v.01'
p80
aS'slice.v.02'
p81
aS'bottle.n.01'
p82
aS'fruit_juice.n.01'
p83
aS'flesh.n.01'
p84
aS'human_body.n.01'
p85
aS'opening.n.10'
p86
aS'curd.n.01'
p87
aS'mix.n.03'
p88
aS'cheese.n.01'
p89
aS'wok.n.01'
p90
aS'rice.n.01'
p91
aS'cover.v.01'
p92
aS'cover.v.16'
p93
aS'rib.n.03'
p94
aS'rib.n.01'
p95
asS'instanceCount'
p96
I80
sS'matrix'
p97
(dp98
g15
(dp99
S'bowl.n.01'
p100
I1
ssg45
(dp101
g72
I1
sg46
I1
ssg92
(dp102
g93
I1
ssg34
(dp103
g35
I1
ssg35
(dp104
g35
I0
ssg94
(dp105
g95
I1
ssg95
(dp106
g95
I0
ssg9
(dp107
g9
I0
ssg8
(dp108
g9
I1
ssg85
(dp109
g85
I0
ssg36
(dp110
S'whiskey.n.01'
p111
I1
ssg55
(dp112
g86
I1
sg56
I1
ssg84
(dp113
g85
I1
ssg74
(dp114
S'water.n.06'
p115
I1
ssg16
(dp116
g17
I2
ssg76
(dp117
S'shaker.n.03'
p118
I1
ssg80
(dp119
g80
I1
ssg52
(dp120
g52
I0
ssg32
(dp121
S'jar.n.01'
p122
I1
ssg37
(dp123
S'carafe.n.01'
p124
I1
ssg79
(dp125
g80
I1
ssg17
(dp126
g17
I0
ssg77
(dp127
g78
I1
ssg86
(dp128
g86
I0
ssg21
(dp129
S'pizza.n.01'
p130
I2
ssg24
(dp131
g25
I3
ssg22
(dp132
g23
I2
sg28
I1
ssg23
(dp133
g23
I0
ssg28
(dp134
g28
I0
ssg56
(dp135
g56
I0
ssg59
(dp136
S'cup.n.01'
p137
I1
ssg31
(dp138
g31
I0
ssg30
(dp139
g31
I1
ssg81
(dp140
g81
I0
ssg54
(dp141
g81
I1
sS'slice.v.03'
p142
I3
ssg53
(dp143
S'banana.n.02'
p144
I1
ssg10
(dp145
g11
I1
ssg90
(dp146
S'wok.n.01'
p147
I1
ssg63
(dp148
g63
I0
ssg75
(dp149
S'rum.n.01'
p150
I1
ssg66
(dp151
S'pepper.n.03'
p152
I1
ssg83
(dp153
S'fruit_juice.n.01'
p154
I1
ssg88
(dp155
S'mix.n.03'
p156
I1
ssg87
(dp157
S'curd.n.01'
p158
I1
ssg61
(dp159
S'onion.n.03'
p160
I1
ssg42
(dp161
g43
I1
ssg43
(dp162
g43
I0
ssg71
(dp163
S'strawberry.n.01'
p164
I1
ssg62
(dp165
g63
I1
ssg19
(dp166
g20
I1
ssg11
(dp167
g11
I0
ssg20
(dp168
g20
I0
ssg44
(dp169
S'mustard.n.02'
p170
I1
ssg57
(dp171
S'fill.v.01'
p172
I2
ssg82
(dp173
S'bottle.n.01'
p174
I1
ssg73
(dp175
S'pot.n.01'
p176
I1
ssg33
(dp177
S'fill.v.01'
p178
I6
ssg12
(dp179
S'pear.n.01'
p180
I1
ssg48
(dp181
g48
I0
ssg47
(dp182
g48
I1
ssg67
(dp183
g68
I1
ssg51
(dp184
g52
I1
ssg68
(dp185
g68
I0
ssg78
(dp186
g78
I0
ssg18
(dp187
S'oven.n.01'
p188
I1
ssg50
(dp189
g50
I0
ssg41
(dp190
g41
I0
ssg38
(dp191
g39
I1
ssg26
(dp192
g27
I1
ssg27
(dp193
g27
I0
ssg65
(dp194
g65
I0
ssg89
(dp195
S'cheese.n.01'
p196
I1
ssg49
(dp197
S'bread.n.01'
p198
I2
ssg58
(dp199
S'batter.n.02'
p200
I1
ssg60
(dp201
S'cola.n.02'
p202
I1
ssg39
(dp203
g39
I0
ssg70
(dp204
g70
I0
ssg64
(dp205
g65
I1
ssg14
(dp206
g14
I0
ssg13
(dp207
g14
I1
ssg25
(dp208
g25
I0
ssg72
(dp209
g72
I0
ssg40
(dp210
g50
I4
sg41
I1
ssg91
(dp211
S'rice.n.01'
p212
I1
ssg46
(dp213
g46
I0
ssg93
(dp214
g93
I0
ssg69
(dp215
g70
I1
ssg29
(dp216
S'butter.n.01'
p217
I1
sssb.