ccopy_reg
_reconstructor
p0
(cutils.eval
ConfusionMatrix
p1
c__builtin__
object
p2
Ntp3
Rp4
(dp5
S'labels'
p6
(lp7
S'cup.n.01'
p8
aS'fill.v.01'
p9
aS'cola.n.02'
p10
aS'put.v.01'
p11
aS'put.v.02'
p12
aS'onion.n.01'
p13
aS'onion.n.03'
p14
aS'beef.n.02'
p15
aS'gripe.n.01'
p16
aS'plate.n.04'
p17
aS'plate.n.13'
p18
aS'pepper.n.03'
p19
aS'salt.n.02'
p20
aS'salt.n.04'
p21
aS'egg.n.02'
p22
aS'egg.n.01'
p23
aS'strawberry.n.01'
p24
aS'cut.v.01'
p25
aS'edit.v.03'
p26
aS'piece.n.08'
p27
aS'slice.n.06'
p28
aS'pot.n.01'
p29
aS'water.n.06'
p30
aS'rum.n.01'
p31
aS'shaker.n.03'
p32
aS'take.v.04'
p33
aS'assume.v.03'
p34
aS'decant.v.01'
p35
aS'pour.v.01'
p36
aS'pizza.n.01'
p37
aS'slice.v.03'
p38
aS'bottle.n.01'
p39
aS'fruit_juice.n.01'
p40
aS'flesh.n.01'
p41
aS'pulp.n.02'
p42
aS'opening.n.01'
p43
aS'opening.n.10'
p44
aS'fill.v.09'
p45
aS'curd.n.01'
p46
aS'bread.n.01'
p47
aS'pan.n.01'
p48
aS'mix.n.03'
p49
aS'cheese.n.01'
p50
aS'wok.n.01'
p51
aS'rice.n.01'
p52
aS'add.v.01'
p53
aS'lend.v.01'
p54
aS'cover.v.01'
p55
aS'cover.v.16'
p56
aS'rib.n.03'
p57
aS'rib.n.01'
p58
aS'vanilla.n.02'
p59
aS'vanilla.n.03'
p60
aS'concoction.n.01'
p61
aS'blend.v.03'
p62
aS'mix.v.05'
p63
aS'pitcher.n.02'
p64
aS'milk.n.01'
p65
aS'fork.n.01'
p66
aS'branching.n.01'
p67
aS'bowl.n.01'
p68
aS'bowl.n.08'
p69
aS'cut.n.16'
p70
aS'bag.n.01'
p71
aS'bag.n.04'
p72
aS'saltcellar.n.01'
p73
aS'mug.n.04'
p74
aS'sauce.n.01'
p75
aS'avocado.n.01'
p76
aS'butter.n.01'
p77
aS'dough.n.01'
p78
aS'boodle.n.01'
p79
aS'mix.v.04'
p80
aS'liquid.n.01'
p81
aS'sink.n.01'
p82
aS'cesspool.n.01'
p83
asS'instanceCount'
p84
I75
sS'matrix'
p85
(dp86
g18
(dp87
g18
I0
ssg24
(dp88
S'strawberry.n.01'
p89
I1
ssg82
(dp90
g83
I1
ssg79
(dp91
g79
I0
ssg15
(dp92
g16
I1
ssg30
(dp93
S'water.n.06'
p94
I1
ssg50
(dp95
S'cheese.n.01'
p96
I1
ssg68
(dp97
g69
I1
ssg81
(dp98
S'liquid.n.01'
p99
I1
ssg33
(dp100
g34
I1
ssg44
(dp101
g44
I0
ssg8
(dp102
S'cup.n.01'
p103
I1
ssg51
(dp104
S'wok.n.01'
p105
I1
ssg64
(dp106
S'pitcher.n.02'
p107
I1
ssg48
(dp108
S'pan.n.01'
p109
I1
ssg72
(dp110
g72
I0
ssg25
(dp111
g26
I1
ssg10
(dp112
S'cola.n.02'
p113
I1
ssg73
(dp114
S'saltcellar.n.01'
p115
I1
ssg76
(dp116
S'avocado.n.01'
p117
I1
ssg45
(dp118
S'fill.v.01'
p119
I1
ssg39
(dp120
S'bottle.n.01'
p121
I1
ssg22
(dp122
g23
I3
ssg23
(dp123
g23
I0
ssg29
(dp124
S'pot.n.01'
p125
I1
ssg9
(dp126
S'fill.v.01'
p127
I7
ssg69
(dp128
g69
I0
ssg34
(dp129
g34
I0
ssg65
(dp130
S'milk.n.01'
p131
I1
ssg71
(dp132
g72
I1
ssg55
(dp133
g56
I1
ssg59
(dp134
g60
I1
ssg77
(dp135
S'butter.n.01'
p136
I1
ssg61
(dp137
S'concoction.n.01'
p138
I1
ssg66
(dp139
g67
I1
ssg75
(dp140
S'sauce.n.01'
p141
I1
ssg20
(dp142
S'salt.n.02'
p143
I1
sg21
I1
ssg62
(dp144
g63
I3
ssg60
(dp145
g60
I0
ssg78
(dp146
g79
I1
ssg21
(dp147
g21
I0
ssg17
(dp148
g18
I1
ssg58
(dp149
g58
I0
ssg54
(dp150
g54
I0
ssg26
(dp151
g26
I0
ssg19
(dp152
S'pepper.n.03'
p153
I1
ssg31
(dp154
S'rum.n.01'
p155
I1
ssg80
(dp156
S'mix.v.05'
p157
I1
ssg16
(dp158
g16
I0
ssg63
(dp159
g63
I0
ssg27
(dp160
g28
I3
ssg47
(dp161
S'bread.n.01'
p162
I1
ssg83
(dp163
g83
I0
ssg43
(dp164
g44
I1
ssg74
(dp165
S'mug.n.04'
p166
I1
ssg40
(dp167
S'fruit_juice.n.01'
p168
I1
ssg41
(dp169
g42
I1
ssg57
(dp170
g58
I1
ssg52
(dp171
S'rice.n.01'
p172
I1
ssg28
(dp173
g28
I0
ssg12
(dp174
g12
I0
ssg11
(dp175
g12
I2
ssg37
(dp176
S'pizza.n.01'
p177
I1
ssg32
(dp178
S'shaker.n.03'
p179
I1
ssg53
(dp180
g54
I4
ssg36
(dp181
g36
I2
ssg42
(dp182
g42
I0
ssg56
(dp183
g56
I0
ssg49
(dp184
S'mix.n.03'
p185
I1
ssg46
(dp186
S'curd.n.01'
p187
I1
ssg38
(dp188
S'slice.v.03'
p189
I3
ssg70
(dp190
S'edit.v.03'
p191
I1
ssg13
(dp192
g14
I1
ssg35
(dp193
g36
I1
ssg14
(dp194
g14
I0
ssg67
(dp195
g67
I0
sssb.