ccopy_reg
_reconstructor
p0
(cutils.eval
ConfusionMatrix
p1
c__builtin__
object
p2
Ntp3
Rp4
(dp5
S'labels'
p6
(lp7
S'pour.v.01'
p8
aS'bread.n.01'
p9
aS'pan.n.01'
p10
aS'mix.n.03'
p11
aS'cheese.n.01'
p12
aS'slice.v.03'
p13
aS'wok.n.01'
p14
aS'fill.v.01'
p15
aS'rice.n.01'
p16
aS'add.v.01'
p17
aS'lend.v.01'
p18
aS'cover.v.01'
p19
aS'cover.v.16'
p20
aS'rib.n.03'
p21
aS'rib.n.01'
p22
aS'piece.n.08'
p23
aS'slice.n.06'
p24
aS'vanilla.n.02'
p25
aS'vanilla.n.03'
p26
aS'egg.n.02'
p27
aS'egg.n.01'
p28
aS'concoction.n.01'
p29
aS'blend.v.03'
p30
aS'mix.v.05'
p31
aS'pitcher.n.02'
p32
aS'milk.n.01'
p33
aS'fork.n.01'
p34
aS'branching.n.01'
p35
aS'bowl.n.01'
p36
aS'bowl.n.08'
p37
aS'cut.n.16'
p38
aS'edit.v.03'
p39
aS'bag.n.01'
p40
aS'bag.n.04'
p41
aS'saltcellar.n.01'
p42
aS'salt.n.02'
p43
aS'mug.n.04'
p44
aS'put.v.01'
p45
aS'sauce.n.01'
p46
aS'avocado.n.01'
p47
aS'butter.n.01'
p48
aS'dough.n.01'
p49
aS'boodle.n.01'
p50
aS'mix.v.04'
p51
aS'liquid.n.01'
p52
aS'sink.n.01'
p53
aS'cesspool.n.01'
p54
aS'serve.v.05'
p55
aS'serve.v.11'
p56
aS'cut.v.01'
p57
aS'ice.n.01'
p58
aS'ice.n.05'
p59
aS'measuring_cup.n.01'
p60
aS'meal.n.03'
p61
aS'carve.v.03'
p62
aS'hack.v.07'
p63
aS'pepper.n.04'
p64
aS'pepper.n.03'
p65
aS'onion.n.01'
p66
aS'put.v.02'
p67
aS'blend.v.01'
p68
aS'chicken.n.01'
p69
aS'chicken.n.02'
p70
aS'corn.n.02'
p71
aS'corn_whiskey.n.01'
p72
aS'chop.v.01'
p73
aS'chop.v.05'
p74
aS'sugar.n.01'
p75
aS'teapot.n.01'
p76
aS'water.n.06'
p77
aS'glass.n.02'
p78
aS'apple.n.01'
p79
asS'instanceCount'
p80
I74
sS'matrix'
p81
(dp82
g12
(dp83
S'cheese.n.01'
p84
I1
ssg71
(dp85
g72
I1
ssg69
(dp86
g70
I1
ssg53
(dp87
g54
I1
ssg43
(dp88
S'salt.n.02'
p89
I1
ssg62
(dp90
g63
I1
ssg65
(dp91
g65
I0
ssg9
(dp92
S'bread.n.01'
p93
I1
ssg72
(dp94
g72
I0
ssg77
(dp95
S'water.n.06'
p96
I1
ssg36
(dp97
S'bowl.n.01'
p98
I1
sg37
I2
ssg78
(dp99
S'glass.n.02'
p100
I1
ssg68
(dp101
S'blend.v.01'
p102
I1
ssg79
(dp103
S'apple.n.01'
p104
I1
ssg37
(dp105
g37
I0
ssg17
(dp106
g18
I6
ssg33
(dp107
S'milk.n.01'
p108
I2
ssg10
(dp109
S'pan.n.01'
p110
I1
ssg57
(dp111
S'edit.v.03'
p112
I1
ssg42
(dp113
S'saltcellar.n.01'
p114
I1
ssg32
(dp115
S'pitcher.n.02'
p116
I1
ssg27
(dp117
g28
I2
ssg28
(dp118
g28
I0
ssg70
(dp119
g70
I0
ssg63
(dp120
g63
I0
ssg15
(dp121
S'fill.v.01'
p122
I9
ssg41
(dp123
g41
I0
ssg21
(dp124
g22
I1
ssg74
(dp125
g74
I0
ssg75
(dp126
S'boodle.n.01'
p127
I1
ssg40
(dp128
g41
I1
ssg26
(dp129
g26
I0
ssg25
(dp130
g26
I1
ssg51
(dp131
S'mix.v.05'
p132
I1
ssg29
(dp133
S'concoction.n.01'
p134
I1
ssg60
(dp135
S'measuring_cup.n.01'
p136
I1
ssg46
(dp137
S'sauce.n.01'
p138
I1
ssg13
(dp139
S'slice.v.03'
p140
I1
ssg30
(dp141
g31
I3
ssg19
(dp142
g20
I1
ssg49
(dp143
g50
I1
ssg14
(dp144
S'wok.n.01'
p145
I1
ssg64
(dp146
g65
I1
ssg22
(dp147
g22
I0
ssg18
(dp148
g18
I0
ssg39
(dp149
g39
I0
ssg34
(dp150
g35
I1
ssg50
(dp151
g50
I0
ssg56
(dp152
g56
I0
ssg35
(dp153
g35
I0
ssg31
(dp154
g31
I0
ssg73
(dp155
g74
I1
ssg23
(dp156
g24
I2
ssg54
(dp157
g54
I0
ssg76
(dp158
S'teapot.n.01'
p159
I1
ssg44
(dp160
S'mug.n.04'
p161
I1
ssg67
(dp162
g67
I0
ssg55
(dp163
g56
I1
ssg16
(dp164
S'rice.n.01'
p165
I1
ssg24
(dp166
g24
I0
ssg47
(dp167
S'avocado.n.01'
p168
I1
ssg45
(dp169
g67
I1
sS'put.v.01'
p170
I1
ssg58
(dp171
g59
I1
ssg8
(dp172
S'pour.v.01'
p173
I2
ssg59
(dp174
g59
I0
ssg20
(dp175
g20
I0
ssg11
(dp176
S'mix.n.03'
p177
I1
ssg52
(dp178
S'liquid.n.01'
p179
I1
ssg38
(dp180
g39
I1
ssg66
(dp181
S'onion.n.01'
p182
I1
ssg48
(dp183
S'butter.n.01'
p184
I2
ssg61
(dp185
S'meal.n.03'
p186
I1
sssb.