ccopy_reg
_reconstructor
p0
(cutils.eval
ConfusionMatrix
p1
c__builtin__
object
p2
Ntp3
Rp4
(dp5
S'labels'
p6
(lp7
S'rum.n.01'
p8
aS'shaker.n.03'
p9
aS'take.v.04'
p10
aS'assume.v.03'
p11
aS'decant.v.01'
p12
aS'pour.v.01'
p13
aS'wok.n.01'
p14
aS'fill.v.01'
p15
aS'rice.n.01'
p16
aS'thermos.n.01'
p17
aS'coffee.n.01'
p18
aS'glass.n.02'
p19
aS'milk.n.01'
p20
aS'strawberry.n.01'
p21
aS'cut.v.01'
p22
aS'edit.v.03'
p23
aS'piece.n.08'
p24
aS'slice.n.06'
p25
aS'cut.n.16'
p26
aS'bag.n.01'
p27
aS'bag.n.04'
p28
aS'teapot.n.01'
p29
aS'water.n.06'
p30
aS'ice.n.01'
p31
aS'ice.n.05'
p32
aS'bowl.n.01'
p33
aS'fork.n.01'
p34
aS'branching.n.01'
p35
aS'bowl.n.08'
p36
aS'blend.v.03'
p37
aS'mix.v.05'
p38
aS'slice.n.05'
p39
aS'slice.v.03'
p40
aS'add.v.01'
p41
aS'lend.v.01'
p42
aS'mixing_bowl.n.01'
p43
aS'butter.n.01'
p44
aS'sugar.n.01'
p45
aS'boodle.n.01'
p46
aS'put.v.01'
p47
aS'put.v.02'
p48
aS'oven.n.01'
p49
aS'lodge.v.02'
p50
aS'stick.v.08'
p51
aS'pizza.n.01'
p52
aS'pan.n.01'
p53
aS'pan.n.03'
p54
aS'avocado.n.01'
p55
aS'cheese.n.01'
p56
aS'tomato.n.01'
p57
aS'tomato.n.02'
p58
aS'slice.n.04'
p59
aS'onion.n.03'
p60
aS'onion.n.02'
p61
aS'mustard.n.02'
p62
aS'pot.n.01'
p63
aS'blend.v.01'
p64
aS'stadium.n.01'
p65
aS'saltcellar.n.01'
p66
aS'salt.n.02'
p67
aS'jar.n.01'
p68
aS'gravy.n.01'
p69
aS'gravy.n.02'
p70
aS'bread.n.01'
p71
aS'mix.n.03'
p72
aS'pitcher.n.02'
p73
aS'onion.n.01'
p74
aS'beef.n.02'
p75
aS'gripe.n.01'
p76
aS'plate.n.04'
p77
aS'plate.n.13'
p78
aS'walnut.n.01'
p79
aS'walnut.n.02'
p80
aS'get.v.01'
p81
aS'make.v.02'
p82
aS'pear.n.01'
p83
aS'bowl.n.03'
p84
aS'liquid.n.01'
p85
aS'sink.n.01'
p86
aS'cesspool.n.01'
p87
aS'cover.v.01'
p88
aS'cover.v.16'
p89
aS'rib.n.03'
p90
aS'rib.n.01'
p91
aS'knife.n.01'
p92
aS'tongue.n.03'
p93
aS'banana.n.02'
p94
aS'chicken.n.01'
p95
aS'wimp.n.01'
p96
aS'corn.n.02'
p97
aS'corn.n.03'
p98
aS'chop.v.01'
p99
aS'chop.v.05'
p100
aS'opening.n.01'
p101
aS'opening.n.10'
p102
aS'fill.v.09'
p103
aS'curd.n.01'
p104
aS'carve.v.03'
p105
aS'hack.v.07'
p106
aS'pepper.n.04'
p107
aS'pepper.n.03'
p108
aS'kettle.n.01'
p109
aS'bottle.n.01'
p110
aS'fruit_juice.n.01'
p111
aS'sauce.n.01'
p112
aS'butter.n.02'
p113
aS'egg.n.02'
p114
aS'egg.n.01'
p115
aS'dough.n.01'
p116
aS'mix.v.04'
p117
aS'water_system.n.02'
p118
aS'concoction.n.01'
p119
aS'mug.n.04'
p120
aS'serve.v.05'
p121
aS'serve.v.11'
p122
aS'salt.n.04'
p123
aS'blender.n.01'
p124
aS'apple.n.01'
p125
asS'instanceCount'
p126
I126
sS'matrix'
p127
(dp128
g84
(dp129
g84
I0
ssg33
(dp130
g65
I1
sg84
I1
sS'bowl.n.01'
p131
I1
sg36
I1
ssg36
(dp132
g36
I0
ssg22
(dp133
g23
I2
ssg88
(dp134
g89
I1
ssg69
(dp135
g70
I1
ssg70
(dp136
g70
I0
ssg90
(dp137
g91
I1
ssg91
(dp138
g91
I0
ssg80
(dp139
g80
I0
ssg34
(dp140
g35
I1
ssg79
(dp141
g80
I1
ssg122
(dp142
g122
I0
ssg101
(dp143
g102
I1
ssg124
(dp144
S'blender.n.01'
p145
I1
ssg48
(dp146
g48
I0
ssg47
(dp147
g48
I4
ssg13
(dp148
g13
I2
sS'decant.v.01'
p149
I1
ssg112
(dp150
S'sauce.n.01'
p151
I1
ssg93
(dp152
g93
I0
ssg68
(dp153
S'jar.n.01'
p154
I1
ssg12
(dp155
g13
I1
ssg95
(dp156
g96
I1
ssg86
(dp157
g87
I1
ssg118
(dp158
g118
I0
ssg30
(dp159
g118
I1
sS'water.n.06'
p160
I4
ssg10
(dp161
g11
I1
ssg55
(dp162
S'avocado.n.01'
p163
I1
ssg102
(dp164
g102
I0
ssg39
(dp165
g39
I0
ssg41
(dp166
g42
I4
ssg53
(dp167
g54
I3
ssg54
(dp168
g54
I0
ssg116
(dp169
S'dough.n.01'
p170
I1
ssg108
(dp171
g108
I1
ssg40
(dp172
S'slice.v.03'
p173
I3
ssg94
(dp174
S'banana.n.02'
p175
I1
ssg81
(dp176
g82
I1
ssg14
(dp177
S'wok.n.01'
p178
I1
ssg107
(dp179
g108
I1
ssg9
(dp180
S'shaker.n.03'
p181
I1
ssg8
(dp182
S'rum.n.01'
p183
I1
ssg76
(dp184
g76
I0
ssg65
(dp185
g65
I0
ssg111
(dp186
S'fruit_juice.n.01'
p187
I1
ssg29
(dp188
S'teapot.n.01'
p189
I1
ssg31
(dp190
g32
I1
ssg109
(dp191
S'kettle.n.01'
p192
I1
ssg32
(dp193
g32
I0
ssg72
(dp194
S'mix.n.03'
p195
I1
ssg104
(dp196
S'curd.n.01'
p197
I1
ssg74
(dp198
S'onion.n.01'
p199
I1
sS'onion.n.03'
p200
I1
ssg60
(dp201
g61
I1
ssg61
(dp202
g61
I0
ssg21
(dp203
S'strawberry.n.01'
p204
I1
ssg98
(dp205
g98
I0
ssg97
(dp206
g98
I1
ssg75
(dp207
g76
I1
ssg105
(dp208
g106
I1
ssg50
(dp209
g51
I1
ssg82
(dp210
g82
I0
ssg43
(dp211
S'mixing_bowl.n.01'
p212
I1
ssg51
(dp213
g51
I0
ssg62
(dp214
S'mustard.n.02'
p215
I1
ssg103
(dp216
S'fill.v.01'
p217
I1
ssg110
(dp218
S'bottle.n.01'
p219
I1
ssg63
(dp220
S'pot.n.01'
p221
I1
ssg15
(dp222
S'fill.v.01'
p223
I14
ssg73
(dp224
S'pitcher.n.02'
p225
I1
ssg83
(dp226
S'pear.n.01'
p227
I1
ssg119
(dp228
S'mix.n.03'
p229
I1
ssg67
(dp230
S'salt.n.02'
p231
I1
sg123
I1
ssg92
(dp232
g93
I1
ssg123
(dp233
g123
I0
ssg77
(dp234
g78
I1
ssg18
(dp235
S'coffee.n.01'
p236
I1
ssg49
(dp237
S'oven.n.01'
p238
I1
ssg35
(dp239
g35
I0
ssg125
(dp240
S'apple.n.01'
p241
I1
ssg120
(dp242
S'mug.n.04'
p243
I1
ssg25
(dp244
g25
I0
ssg121
(dp245
g122
I1
ssg59
(dp246
g59
I0
ssg52
(dp247
S'pizza.n.01'
p248
I1
ssg26
(dp249
S'edit.v.03'
p250
I1
ssg78
(dp251
g78
I0
ssg56
(dp252
S'cheese.n.01'
p253
I1
ssg17
(dp254
S'thermos.n.01'
p255
I1
ssg106
(dp256
g106
I0
ssg71
(dp257
S'bread.n.01'
p258
I2
ssg96
(dp259
g96
I0
ssg20
(dp260
S'milk.n.01'
p261
I2
ssg66
(dp262
S'saltcellar.n.01'
p263
I1
ssg58
(dp264
g58
I0
ssg44
(dp265
g113
I1
sS'butter.n.01'
p266
I1
ssg28
(dp267
g28
I0
ssg11
(dp268
g11
I0
ssg100
(dp269
g100
I0
ssg27
(dp270
g28
I1
ssg99
(dp271
g100
I1
ssg117
(dp272
S'mix.v.05'
p273
I1
ssg38
(dp274
g38
I0
ssg19
(dp275
S'glass.n.02'
p276
I1
ssg114
(dp277
g115
I2
ssg37
(dp278
g38
I3
ssg64
(dp279
S'blend.v.01'
p280
I1
ssg42
(dp281
g42
I0
ssg23
(dp282
g23
I0
ssg46
(dp283
g46
I0
ssg24
(dp284
g25
I3
sg59
I1
sg39
I1
ssg87
(dp285
g87
I0
ssg115
(dp286
g115
I0
ssg16
(dp287
S'rice.n.01'
p288
I2
ssg89
(dp289
g89
I0
ssg113
(dp290
g113
I0
ssg85
(dp291
S'liquid.n.01'
p292
I1
ssg57
(dp293
g58
I1
ssg45
(dp294
g46
I1
sssb.