ccopy_reg
_reconstructor
p0
(cutils.eval
ConfusionMatrix
p1
c__builtin__
object
p2
Ntp3
Rp4
(dp5
S'labels'
p6
(lp7
S'cheese.n.01'
p8
aS'slice.v.03'
p9
aS'opening.n.01'
p10
aS'gap.n.03'
p11
aS'fill.v.09'
p12
aS'fill.v.01'
p13
aS'batter.n.02'
p14
aS'flesh.n.01'
p15
aS'pulp.n.02'
p16
aS'foam.n.01'
p17
aS'mug.n.04'
p18
aS'onion.n.01'
p19
aS'onion.n.02'
p20
aS'pepper.n.04'
p21
asS'instanceCount'
p22
I13
sS'matrix'
p23
(dp24
g8
(dp25
S'cheese.n.01'
p26
I1
ssg18
(dp27
S'mug.n.04'
p28
I1
ssg11
(dp29
g11
I0
ssg12
(dp30
g13
I1
ssg21
(dp31
S'pepper.n.04'
p32
I1
ssg15
(dp33
g16
I1
ssg13
(dp34
g13
I1
ssg14
(dp35
S'batter.n.02'
p36
I1
ssg20
(dp37
g20
I0
ssg9
(dp38
S'slice.v.03'
p39
I3
ssg17
(dp40
S'foam.n.01'
p41
I1
ssg19
(dp42
g20
I1
ssg16
(dp43
g16
I0
ssg10
(dp44
g11
I1
sssb.