ccopy_reg
_reconstructor
p0
(cutils.eval
ConfusionMatrix
p1
c__builtin__
object
p2
Ntp3
Rp4
(dp5
S'labels'
p6
(lp7
S'fill.v.01'
p8
aS'pitcher.n.02'
p9
aS'milk.n.01'
p10
aS'knife.n.01'
p11
aS'tongue.n.03'
p12
aS'banana.n.02'
p13
aS'slice.v.03'
p14
aS'pan.n.01'
p15
aS'water.n.06'
p16
aS'cheese.n.01'
p17
aS'opening.n.01'
p18
aS'gap.n.03'
p19
aS'fill.v.09'
p20
aS'batter.n.02'
p21
asS'instanceCount'
p22
I14
sS'matrix'
p23
(dp24
g15
(dp25
S'pan.n.01'
p26
I1
ssg14
(dp27
S'slice.v.03'
p28
I2
ssg11
(dp29
g12
I1
ssg19
(dp30
g19
I0
ssg13
(dp31
S'banana.n.02'
p32
I1
ssg17
(dp33
S'cheese.n.01'
p34
I1
ssg20
(dp35
S'fill.v.01'
p36
I1
ssg16
(dp37
S'water.n.06'
p38
I1
ssg8
(dp39
S'fill.v.01'
p40
I2
ssg9
(dp41
S'pitcher.n.02'
p42
I1
ssg21
(dp43
S'batter.n.02'
p44
I1
ssg12
(dp45
g12
I0
ssg10
(dp46
S'milk.n.01'
p47
I1
ssg18
(dp48
g19
I1
sssb.