ccopy_reg
_reconstructor
p0
(cutils.eval
ConfusionMatrix
p1
c__builtin__
object
p2
Ntp3
Rp4
(dp5
S'labels'
p6
(lp7
S'knife.n.01'
p8
aS'tongue.n.03'
p9
aS'banana.n.02'
p10
aS'slice.v.03'
p11
aS'fill.v.01'
p12
aS'pan.n.01'
p13
aS'pan.n.03'
p14
aS'water.n.06'
p15
aS'cheese.n.01'
p16
aS'opening.n.01'
p17
aS'gap.n.03'
p18
aS'fill.v.09'
p19
aS'batter.n.02'
p20
aS'flesh.n.01'
p21
aS'pulp.n.02'
p22
asS'instanceCount'
p23
I13
sS'matrix'
p24
(dp25
g13
(dp26
g14
I1
ssg11
(dp27
S'slice.v.03'
p28
I3
ssg14
(dp29
g14
I0
ssg8
(dp30
g9
I1
ssg18
(dp31
g18
I0
ssg10
(dp32
S'banana.n.02'
p33
I1
ssg16
(dp34
S'cheese.n.01'
p35
I1
ssg19
(dp36
S'fill.v.01'
p37
I1
ssg15
(dp38
S'water.n.06'
p39
I1
ssg12
(dp40
S'fill.v.01'
p41
I1
ssg20
(dp42
S'batter.n.02'
p43
I1
ssg9
(dp44
g9
I0
ssg21
(dp45
g22
I1
ssg22
(dp46
g22
I0
ssg17
(dp47
g18
I1
sssb.