ccopy_reg
_reconstructor
p0
(cutils.eval
ConfusionMatrix
p1
c__builtin__
object
p2
Ntp3
Rp4
(dp5
S'labels'
p6
(lp7
S'slice.v.03'
p8
aS'onion.n.01'
p9
aS'pepper.n.04'
p10
aS'pepper.n.03'
p11
aS'fill.v.01'
p12
aS'kettle.n.01'
p13
aS'water.n.06'
p14
aS'piece.n.08'
p15
aS'slice.n.06'
p16
aS'pizza.n.01'
p17
aS'pitcher.n.02'
p18
aS'milk.n.01'
p19
aS'milk.n.02'
p20
aS'knife.n.01'
p21
aS'tongue.n.03'
p22
aS'banana.n.02'
p23
asS'instanceCount'
p24
I15
sS'matrix'
p25
(dp26
g8
(dp27
S'slice.v.03'
p28
I3
ssg21
(dp29
g22
I1
ssg23
(dp30
S'banana.n.02'
p31
I1
ssg10
(dp32
g11
I1
ssg16
(dp33
g16
I0
ssg14
(dp34
S'water.n.06'
p35
I1
ssg11
(dp36
g11
I0
ssg12
(dp37
S'fill.v.01'
p38
I2
ssg18
(dp39
S'pitcher.n.02'
p40
I1
ssg13
(dp41
S'kettle.n.01'
p42
I1
ssg22
(dp43
g22
I0
ssg15
(dp44
g16
I1
ssg17
(dp45
S'pizza.n.01'
p46
I1
ssg9
(dp47
S'onion.n.01'
p48
I1
ssg19
(dp49
g20
I1
ssg20
(dp50
g20
I0
sssb.