ccopy_reg
_reconstructor
p0
(cutils.eval
ConfusionMatrix
p1
c__builtin__
object
p2
Ntp3
Rp4
(dp5
S'labels'
p6
(lp7
S'slice.v.03'
p8
aS'onion.n.01'
p9
aS'pepper.n.04'
p10
aS'pepper.n.03'
p11
aS'fill.v.01'
p12
aS'kettle.n.01'
p13
aS'water.n.06'
p14
aS'piece.n.08'
p15
aS'slice.n.06'
p16
aS'pizza.n.01'
p17
aS'pitcher.n.02'
p18
aS'milk.n.01'
p19
aS'milk.n.02'
p20
aS'knife.n.01'
p21
aS'tongue.n.03'
p22
aS'banana.n.02'
p23
aS'slice.n.05'
p24
aS'pan.n.01'
p25
aS'cheese.n.01'
p26
aS'tall_mallow.n.01'
p27
aS'slice.v.02'
p28
aS'pan.n.03'
p29
aS'opening.n.01'
p30
aS'gap.n.03'
p31
aS'fill.v.09'
p32
aS'batter.n.02'
p33
aS'flesh.n.01'
p34
aS'pulp.n.02'
p35
aS'foam.n.01'
p36
aS'mug.n.04'
p37
aS'onion.n.02'
p38
aS'human_body.n.01'
p39
aS'onion.n.03'
p40
aS'pepper.n.01'
p41
aS'kettle.n.02'
p42
aS'water_system.n.02'
p43
aS'pitcher.n.03'
p44
aS'pan.n.04'
p45
aS'chump.n.01'
p46
asS'instanceCount'
p47
I137
sS'matrix'
p48
(dp49
g26
(dp50
g26
I4
sg33
I0
sg36
I0
sS'milk.n.01'
p51
I0
sg25
I0
sg29
I0
sg31
I0
sg32
I0
sS'fill.v.01'
p52
I0
sS'pitcher.n.02'
p53
I0
sg28
I0
sS'slice.v.03'
p54
I0
sS'knife.n.01'
p55
I0
sS'banana.n.02'
p56
I0
sS'pepper.n.04'
p57
I0
sS'piece.n.08'
p58
I0
sg27
I1
sg30
I0
sg37
I0
sg34
I0
sS'water.n.06'
p59
I0
sg24
I0
sS'tongue.n.03'
p60
I0
sS'onion.n.01'
p61
I0
sg35
I0
sg38
I0
ssg43
(dp62
S'pan.n.01'
p63
I0
sS'slice.v.03'
p64
I0
sS'knife.n.01'
p65
I0
sg45
I0
sS'banana.n.02'
p66
I0
sS'fill.v.09'
p67
I0
sg43
I0
sS'water.n.06'
p68
I0
sS'fill.v.01'
p69
I0
sg42
I0
sS'pitcher.n.02'
p70
I0
sS'kettle.n.01'
p71
I0
sS'tongue.n.03'
p72
I0
sS'piece.n.08'
p73
I0
sS'slice.n.05'
p74
I0
sS'milk.n.01'
p75
I0
sS'milk.n.02'
p76
I0
sg44
I0
ssg33
(dp77
S'cheese.n.01'
p78
I0
sg33
I5
sg36
I0
sS'milk.n.01'
p79
I0
sS'pan.n.01'
p80
I0
sg29
I0
sg31
I0
sg32
I0
sS'fill.v.01'
p81
I0
sS'pitcher.n.02'
p82
I0
sS'slice.v.03'
p83
I0
sS'knife.n.01'
p84
I0
sS'banana.n.02'
p85
I0
sg57
I0
sg41
I0
sg39
I0
sg30
I0
sg37
I0
sg34
I0
sS'water.n.06'
p86
I0
sS'kettle.n.01'
p87
I0
sg40
I0
sS'tongue.n.03'
p88
I0
sg61
I0
sg35
I0
sg38
I0
ssg17
(dp89
S'foam.n.01'
p90
I0
sg19
I0
sg20
I0
sS'fill.v.09'
p91
I0
sg12
I0
sg18
I0
sg8
I0
sg46
I0
sg21
I0
sg23
I0
sg10
I0
sg11
I0
sg15
I0
sS'mug.n.04'
p92
I0
sS'flesh.n.01'
p93
I0
sg16
I0
sg14
I0
sg17
I3
sg13
I0
sg22
I0
sg9
I0
sS'pulp.n.02'
p94
I0
ssg19
(dp95
g26
I0
sg43
I0
sS'batter.n.02'
p96
I0
sg17
I0
sg19
I3
sg20
I2
sg25
I0
sS'gap.n.03'
p97
I0
sS'fill.v.09'
p98
I0
sg12
I0
sg44
I0
sg18
I0
sg28
I0
sg8
I0
sg46
I0
sg21
I0
sg23
I0
sg10
I0
sg11
I0
sg45
I0
sg15
I0
sg27
I0
sS'opening.n.01'
p99
I0
sg92
I0
sg16
I0
sg14
I0
sg24
I0
sg42
I0
sg13
I0
sg22
I0
sg9
I0
ssg20
(dp100
g16
I0
sg17
I0
sg19
I0
sg20
I0
sg63
I0
sg45
I0
sg67
I0
sg12
I0
sg44
I0
sg18
I0
sg8
I0
sg21
I0
sg23
I0
sg10
I0
sg11
I0
sg15
I0
sg43
I0
sg14
I0
sg74
I0
sg42
I0
sg13
I0
sg22
I0
sg9
I0
ssg25
(dp101
g26
I0
sg33
I0
sg36
I0
sg51
I0
sg76
I0
sg25
I2
sg29
I2
sg31
I0
sg32
I0
sg52
I0
sg44
I0
sg53
I0
sg28
I0
sg54
I0
sg55
I0
sg56
I0
sg45
I1
sg58
I0
sg27
I0
sg30
I0
sg37
I0
sg34
I0
sg43
I0
sg59
I0
sg24
I0
sg42
I0
sg71
I0
sg60
I0
sg35
I0
ssg29
(dp102
g80
I0
sg78
I0
sg29
I0
sg36
I0
sS'knife.n.01'
p103
I0
sg31
I0
sS'banana.n.02'
p104
I0
sg83
I0
sg32
I0
sg86
I0
sg81
I0
sg33
I0
sS'tongue.n.03'
p105
I0
sg37
I0
sg34
I0
sg35
I0
sg30
I0
ssg36
(dp106
g78
I0
sg33
I0
sg36
I4
sg80
I0
sg29
I0
sg31
I0
sg32
I0
sg81
I0
sg83
I0
sS'chump.n.01'
p107
I0
sg57
I0
sg41
I0
sg39
I0
sS'piece.n.08'
p108
I0
sg30
I0
sg37
I0
sg34
I0
sS'slice.n.06'
p109
I0
sg86
I0
sS'pizza.n.01'
p110
I0
sg87
I0
sg35
I0
sg61
I0
sg40
I0
sg38
I0
ssg31
(dp111
g78
I0
sg33
I0
sg36
I0
sg79
I0
sg80
I0
sg29
I0
sg31
I0
sg32
I0
sg81
I0
sg82
I0
sg83
I0
sg84
I0
sg85
I0
sg57
I0
sg41
I0
sg39
I0
sg30
I0
sg37
I0
sg34
I0
sg86
I0
sg87
I0
sg40
I0
sg88
I0
sg61
I0
sg35
I0
sg38
I0
ssg32
(dp112
g78
I0
sS'slice.n.06'
p113
I0
sS'pizza.n.01'
p114
I0
sg33
I0
sg36
I0
sg79
I0
sg76
I0
sg80
I0
sg29
I0
sg31
I0
sg32
I0
sg81
I5
sg44
I0
sg82
I0
sg83
I0
sg46
I0
sg84
I0
sg85
I0
sg57
I0
sg41
I0
sg45
I0
sg39
I0
sg73
I0
sg30
I0
sg37
I0
sg34
I0
sg43
I0
sg86
I0
sg74
I0
sg42
I0
sg87
I0
sg40
I0
sg88
I0
sg61
I0
sg35
I0
sg38
I0
ssg12
(dp115
g26
I0
sg43
I0
sg33
I0
sg17
I0
sg19
I0
sg20
I0
sg25
I0
sg29
I0
sg36
I0
sg31
I0
sg32
I3
sg12
I17
sg44
I0
sg18
I0
sg28
I0
sg8
I0
sg46
I0
sg21
I0
sg23
I0
sg10
I0
sg41
I0
sg11
I0
sg45
I0
sg39
I0
sg15
I0
sg27
I0
sg30
I0
sg37
I0
sg34
I0
sg16
I0
sg14
I0
sg24
I0
sg42
I0
sg13
I0
sg40
I0
sg22
I0
sg9
I0
sg35
I0
sg38
I0
ssg44
(dp116
g63
I0
sg42
I0
sg65
I0
sg45
I0
sg66
I0
sg64
I0
sg67
I0
sg43
I0
sg68
I0
sg69
I0
sg44
I0
sg70
I0
sg71
I0
sg72
I0
sg73
I0
sg74
I0
sg75
I0
sg76
I0
ssg18
(dp117
g26
I0
sg43
I0
sg96
I0
sg17
I0
sg19
I0
sg20
I0
sg25
I0
sg97
I0
sg98
I0
sg12
I0
sg44
I1
sg18
I4
sg28
I0
sg8
I0
sg46
I0
sg21
I0
sg23
I0
sg10
I0
sg11
I0
sg45
I0
sg15
I0
sg27
I0
sg99
I0
sg92
I0
sg16
I0
sg14
I0
sg24
I0
sg42
I0
sg13
I0
sg22
I0
sg9
I0
ssg28
(dp118
g28
I0
sg54
I0
sg27
I0
sg55
I0
sg56
I0
sg26
I0
sg59
I0
sg52
I0
sg53
I0
sg60
I0
sg58
I0
sg24
I0
sg51
I0
sg25
I0
ssg8
(dp119
g26
I0
sg43
I0
sg33
I0
sg17
I0
sg19
I0
sg20
I0
sg25
I0
sg29
I0
sg36
I0
sg31
I0
sg32
I0
sg12
I0
sg44
I0
sg18
I0
sg28
I1
sg8
I24
sg46
I0
sg21
I0
sg23
I0
sg10
I0
sg41
I0
sg11
I0
sg45
I0
sg39
I0
sg15
I0
sg27
I0
sg30
I0
sg37
I0
sg34
I0
sg16
I0
sg14
I0
sg24
I0
sg42
I0
sg13
I0
sg40
I0
sg22
I0
sg9
I0
sg35
I0
sg38
I0
ssg46
(dp120
g92
I0
sg46
I0
sg90
I0
sg91
I0
sS'milk.n.01'
p121
I0
sS'pepper.n.04'
p122
I0
sg93
I0
sg113
I0
sS'water.n.06'
p123
I0
sS'fill.v.01'
p124
I0
sS'pitcher.n.02'
p125
I0
sS'kettle.n.01'
p126
I0
sS'slice.v.03'
p127
I0
sg114
I0
sS'onion.n.01'
p128
I0
sS'piece.n.08'
p129
I0
sg94
I0
ssg21
(dp130
g26
I0
sg43
I0
sg96
I0
sg17
I0
sg19
I0
sg20
I0
sg25
I0
sS'pan.n.03'
p131
I0
sg97
I0
sg98
I0
sg12
I0
sg44
I0
sg18
I0
sg28
I0
sg8
I0
sg21
I0
sg23
I0
sg10
I0
sg11
I0
sg45
I0
sg15
I0
sg27
I0
sg99
I0
sS'flesh.n.01'
p132
I0
sg16
I0
sg14
I0
sg24
I0
sg42
I0
sg13
I0
sg22
I5
sg9
I0
sS'pulp.n.02'
p133
I0
ssg23
(dp134
g26
I0
sg43
I0
sg96
I0
sg17
I0
sg19
I0
sg20
I0
sg25
I0
sg131
I0
sg97
I0
sg98
I0
sg12
I0
sg44
I0
sg18
I0
sg28
I0
sg8
I0
sg21
I0
sg23
I5
sg10
I0
sg11
I0
sg45
I0
sg15
I0
sg27
I0
sg99
I0
sg132
I0
sg16
I0
sg14
I0
sg24
I0
sg42
I0
sg13
I0
sg22
I0
sg9
I0
sg133
I0
ssg10
(dp135
S'cheese.n.01'
p136
I0
sS'batter.n.02'
p137
I0
sS'foam.n.01'
p138
I0
sg19
I0
sg20
I0
sS'gap.n.03'
p139
I0
sS'fill.v.09'
p140
I0
sg12
I0
sg18
I0
sg8
I0
sg46
I0
sg21
I0
sg23
I0
sg10
I3
sg41
I1
sg11
I1
sg39
I0
sg15
I0
sS'opening.n.01'
p141
I0
sS'mug.n.04'
p142
I0
sS'flesh.n.01'
p143
I0
sg16
I0
sg14
I0
sg17
I0
sg13
I0
sg40
I0
sg22
I0
sg9
I0
sS'pulp.n.02'
p144
I0
sg38
I0
ssg41
(dp145
S'slice.v.03'
p146
I0
sS'gap.n.03'
p147
I0
sS'fill.v.09'
p148
I0
sS'pepper.n.04'
p149
I0
sS'flesh.n.01'
p150
I0
sg41
I0
sS'water.n.06'
p151
I0
sS'fill.v.01'
p152
I0
sg39
I0
sg87
I0
sS'batter.n.02'
p153
I0
sS'mug.n.04'
p154
I0
sS'foam.n.01'
p155
I0
sS'onion.n.01'
p156
I0
sg40
I0
sS'opening.n.01'
p157
I0
ssg11
(dp158
g8
I0
sg21
I0
sg23
I0
sg10
I0
sg16
I0
sg14
I0
sg11
I0
sg12
I0
sg18
I0
sg13
I0
sg22
I0
sg15
I0
sg17
I0
sg9
I0
sg19
I0
sg20
I0
ssg45
(dp159
g63
I0
sg64
I0
sg65
I0
sg45
I0
sg66
I0
sg67
I0
sg43
I0
sg68
I0
sg69
I0
sg42
I0
sg70
I0
sg71
I0
sg72
I0
sg73
I0
sg74
I0
sg75
I0
sg76
I0
sg44
I0
ssg39
(dp160
g146
I0
sg147
I0
sg148
I0
sg149
I0
sg150
I0
sg41
I0
sg151
I0
sg152
I0
sg39
I0
sg87
I0
sg153
I0
sg154
I0
sg155
I0
sg156
I0
sg40
I0
sg157
I0
ssg15
(dp161
g26
I0
sg43
I0
sg17
I0
sg19
I0
sg20
I0
sg25
I0
sg90
I0
sg45
I0
sg67
I0
sg12
I0
sg44
I0
sg18
I0
sg28
I0
sg8
I0
sg46
I0
sg21
I0
sg23
I0
sg10
I0
sg11
I0
sg15
I0
sg27
I0
sg92
I0
sg93
I0
sg16
I3
sg14
I0
sg24
I2
sg42
I0
sg13
I0
sg22
I0
sg9
I0
sg94
I0
ssg27
(dp162
g25
I0
sg54
I0
sg24
I0
sg55
I0
sg56
I0
sg26
I0
sg59
I0
sg52
I0
sg53
I0
sg60
I0
sg58
I0
sg27
I0
sg28
I0
sg51
I0
ssg30
(dp163
g78
I0
sg33
I0
sg36
I0
sg79
I0
sg80
I0
sg29
I0
sg31
I5
sg32
I0
sg81
I0
sg82
I0
sg83
I0
sg84
I0
sg85
I0
sg57
I0
sg41
I0
sg39
I0
sg30
I0
sg37
I0
sg34
I0
sg86
I0
sg87
I0
sg40
I0
sg88
I0
sg61
I0
sg35
I0
sg38
I0
ssg37
(dp164
g78
I0
sg33
I0
sg36
I0
sg121
I0
sg80
I0
sg29
I0
sg31
I0
sg32
I0
sg81
I0
sg125
I0
sg83
I0
sg46
I2
sg57
I0
sg41
I0
sg39
I0
sg129
I0
sg30
I0
sg37
I3
sg34
I0
sg113
I0
sg86
I0
sg114
I0
sg87
I0
sg35
I0
sg61
I0
sg40
I0
sg38
I0
ssg34
(dp165
g78
I0
sg33
I0
sg36
I0
sg80
I0
sg29
I0
sg31
I0
sg32
I0
sg81
I0
sg83
I0
sg107
I0
sg103
I0
sg104
I0
sg57
I0
sg41
I0
sg39
I1
sg108
I0
sg30
I0
sg37
I0
sg34
I0
sg109
I0
sg86
I0
sg110
I0
sg87
I0
sg35
I4
sg105
I0
sg61
I0
sg40
I0
sg38
I0
ssg16
(dp166
g90
I0
sg19
I0
sg20
I0
sg91
I0
sg12
I0
sg18
I0
sg8
I0
sg46
I0
sg21
I0
sg23
I0
sg10
I0
sg11
I0
sg15
I0
sg92
I0
sg93
I0
sg16
I0
sg14
I0
sg17
I0
sg13
I0
sg22
I0
sg9
I0
sg94
I0
ssg14
(dp167
g26
I0
sg43
I2
sg33
I0
sg17
I0
sg19
I0
sg20
I0
sg25
I0
sg29
I0
sg36
I0
sg31
I0
sg32
I0
sg12
I0
sg44
I0
sg18
I0
sg28
I0
sg8
I0
sg46
I0
sg21
I0
sg23
I0
sg10
I0
sg41
I0
sg11
I0
sg45
I0
sg39
I0
sg15
I0
sg27
I0
sg30
I0
sg37
I0
sg34
I0
sg16
I0
sg14
I8
sg24
I0
sg42
I0
sg13
I0
sg40
I0
sg22
I0
sg9
I0
sg35
I0
ssg24
(dp168
g25
I0
sg54
I0
sg27
I0
sg55
I0
sg45
I0
sg56
I0
sg26
I0
sg67
I0
sg43
I0
sg59
I0
sg52
I0
sg42
I0
sg53
I0
sg71
I0
sg60
I0
sg58
I0
sg24
I0
sg28
I0
sg51
I0
sg76
I0
sg44
I0
ssg42
(dp169
g63
I0
sg64
I0
sg65
I0
sg45
I0
sg66
I0
sg67
I0
sg43
I0
sg68
I0
sg69
I0
sg42
I0
sg70
I0
sg71
I0
sg72
I0
sg73
I0
sg74
I0
sg75
I0
sg76
I0
sg44
I0
ssg13
(dp170
g74
I0
sg43
I0
sg153
I0
sg155
I0
sg19
I0
sg20
I0
sg63
I0
sg147
I0
sg148
I0
sg12
I0
sg44
I0
sg18
I0
sg8
I0
sg46
I0
sg21
I0
sg23
I0
sg10
I0
sg41
I0
sg11
I0
sg45
I0
sg39
I0
sg15
I0
sg157
I0
sg154
I0
sg150
I0
sg16
I0
sg14
I0
sg17
I0
sg42
I1
sg13
I4
sg94
I0
sg22
I0
sg9
I0
sg40
I0
ssg40
(dp171
g146
I0
sg147
I0
sg148
I0
sg149
I0
sg150
I0
sg41
I0
sg151
I0
sg152
I0
sg39
I0
sg87
I0
sg153
I0
sg154
I0
sg155
I0
sg156
I0
sg40
I0
sg157
I0
ssg22
(dp172
g26
I0
sg43
I0
sg96
I0
sg17
I0
sg19
I0
sg20
I0
sg25
I0
sg131
I0
sg97
I0
sg98
I0
sg12
I0
sg44
I0
sg18
I0
sg28
I0
sg8
I0
sg21
I0
sg23
I0
sg10
I0
sg11
I0
sg45
I0
sg15
I0
sg27
I0
sg99
I0
sg132
I0
sg16
I0
sg14
I0
sg24
I0
sg42
I0
sg13
I0
sg22
I0
sg9
I0
sg133
I0
ssg9
(dp173
g136
I0
sg137
I0
sg138
I0
sg19
I0
sg20
I0
sg139
I0
sg140
I0
sg12
I0
sg18
I0
sg8
I0
sg46
I0
sg21
I0
sg23
I0
sg10
I0
sg41
I0
sg11
I0
sg39
I0
sg15
I0
sg141
I0
sg142
I0
sg143
I0
sg16
I0
sg14
I0
sg17
I0
sg13
I0
sg40
I1
sg22
I0
sg9
I3
sg144
I0
sg38
I1
ssg35
(dp174
g78
I0
sg33
I0
sg36
I0
sg80
I0
sg29
I0
sg31
I0
sg32
I0
sg81
I0
sg83
I0
sg107
I0
sg103
I0
sg104
I0
sg57
I0
sg108
I0
sg30
I0
sg37
I0
sg34
I0
sg109
I0
sg86
I0
sg110
I0
sS'kettle.n.01'
p175
I0
sg105
I0
sg61
I0
sg35
I0
sg38
I0
ssg38
(dp176
g136
I0
sg138
I0
sg139
I0
sS'slice.v.03'
p177
I0
sg57
I0
sg140
I0
sS'fill.v.01'
p178
I0
sg137
I0
sg143
I0
sg142
I0
sg38
I0
sg61
I0
sg144
I0
sg141
I0
sssb.