ccopy_reg
_reconstructor
p0
(cutils.eval
ConfusionMatrix
p1
c__builtin__
object
p2
Ntp3
Rp4
(dp5
S'labels'
p6
(lp7
S'stir.v.08'
p8
aS'stir.v.01'
p9
aS'dough.n.01'
p10
aS'peanut.n.04'
p11
aS'peanut.n.03'
p12
aS'coffee.n.01'
p13
aS'milk.n.01'
p14
asS'instanceCount'
p15
I7
sS'matrix'
p16
(dp17
g10
(dp18
S'dough.n.01'
p19
I1
ssg13
(dp20
S'coffee.n.01'
p21
I1
ssg8
(dp22
g9
I1
ssg9
(dp23
g9
I2
ssg12
(dp24
g12
I0
ssg11
(dp25
g12
I1
ssg14
(dp26
S'milk.n.01'
p27
I1
sssb.