ccopy_reg
_reconstructor
p0
(cutils.eval
ConfusionMatrix
p1
c__builtin__
object
p2
Ntp3
Rp4
(dp5
S'labels'
p6
(lp7
S'cut.v.01'
p8
aS'meat.n.01'
p9
aS'cleaver.n.01'
p10
aS'helicopter.n.01'
p11
aS'flesh.n.01'
p12
aS'human_body.n.01'
p13
aS'slice.v.03'
p14
aS'bread.n.01'
p15
aS'knife.n.01'
p16
aS'knife.n.02'
p17
aS'bacon.n.01'
p18
aS'fill.v.01'
p19
aS'fill.v.09'
p20
aS'kettle.n.01'
p21
aS'water.n.06'
p22
aS'pitcher.n.02'
p23
aS'pitcher.n.01'
p24
aS'milk.n.01'
p25
aS'lemon.n.01'
p26
aS'pan.n.01'
p27
aS'pan.n.03'
p28
asS'instanceCount'
p29
I21
sS'matrix'
p30
(dp31
g27
(dp32
g28
I1
ssg14
(dp33
S'slice.v.03'
p34
I1
ssg28
(dp35
g28
I0
ssg8
(dp36
S'cut.v.01'
p37
I4
ssg16
(dp38
g17
I1
ssg12
(dp39
g13
I1
ssg25
(dp40
S'milk.n.01'
p41
I1
ssg11
(dp42
g11
I0
ssg24
(dp43
g24
I0
ssg17
(dp44
g17
I0
ssg22
(dp45
S'water.n.06'
p46
I2
ssg18
(dp47
S'bacon.n.01'
p48
I1
ssg15
(dp49
S'bread.n.01'
p50
I1
ssg20
(dp51
g20
I0
ssg13
(dp52
g13
I0
ssg21
(dp53
S'kettle.n.01'
p54
I1
ssg9
(dp55
S'meat.n.01'
p56
I1
ssg26
(dp57
S'lemon.n.01'
p58
I1
ssg19
(dp59
g20
I3
ssg23
(dp60
g24
I1
ssg10
(dp61
g11
I1
sssb.