ccopy_reg
_reconstructor
p0
(cutils.eval
ConfusionMatrix
p1
c__builtin__
object
p2
Ntp3
Rp4
(dp5
S'labels'
p6
(lp7
S'cut.v.01'
p8
aS'lemon.n.01'
p9
aS'fill.v.01'
p10
aS'pan.n.01'
p11
aS'water.n.06'
p12
aS'cabbage.n.01'
p13
aS'put.v.01'
p14
aS'pepper.n.03'
p15
aS'pepper.n.04'
p16
aS'salt.n.02'
p17
aS'salt.n.04'
p18
aS'egg.n.02'
p19
aS'egg.n.01'
p20
aS'knife.n.01'
p21
aS'banana.n.02'
p22
aS'slice.v.03'
p23
aS'mug.n.04'
p24
aS'pan.n.03'
p25
aS'pizza.n.01'
p26
aS'onion.n.01'
p27
asS'instanceCount'
p28
I22
sS'matrix'
p29
(dp30
g11
(dp31
S'pan.n.01'
p32
I1
ssg17
(dp33
g18
I1
ssg25
(dp34
S'pan.n.03'
p35
I1
ssg8
(dp36
S'cut.v.01'
p37
I2
ssg13
(dp38
S'cabbage.n.01'
p39
I1
ssg22
(dp40
S'banana.n.02'
p41
I1
ssg18
(dp42
g18
I0
ssg16
(dp43
g16
I1
ssg20
(dp44
g20
I0
ssg12
(dp45
S'water.n.06'
p46
I1
ssg14
(dp47
S'put.v.01'
p48
I2
ssg10
(dp49
S'fill.v.01'
p50
I2
ssg15
(dp51
g16
I1
ssg9
(dp52
S'lemon.n.01'
p53
I1
ssg19
(dp54
g20
I1
ssg21
(dp55
S'knife.n.01'
p56
I1
ssg23
(dp57
S'slice.v.03'
p58
I2
ssg26
(dp59
S'pizza.n.01'
p60
I1
ssg27
(dp61
S'onion.n.01'
p62
I1
ssg24
(dp63
S'mug.n.04'
p64
I1
sssb.