ccopy_reg
_reconstructor
p0
(cutils.eval
ConfusionMatrix
p1
c__builtin__
object
p2
Ntp3
Rp4
(dp5
S'labels'
p6
(lp7
S'put.v.01'
p8
aS'pan.n.03'
p9
aS'pizza.n.01'
p10
aS'slice.v.03'
p11
aS'onion.n.01'
p12
aS'onion.n.03'
p13
aS'pepper.n.04'
p14
aS'pepper.n.03'
p15
aS'cheese.n.01'
p16
aS'piece.n.08'
p17
aS'slice.n.06'
p18
aS'beef.n.02'
p19
aS'plate.n.04'
p20
aS'plate.n.11'
p21
aS'cake.n.03'
p22
aS'patty.n.01'
p23
aS'whipped_cream.n.01'
p24
aS'chicken.n.01'
p25
aS'opening.n.01'
p26
aS'gap.n.03'
p27
aS'fill.v.09'
p28
aS'fill.v.01'
p29
aS'batter.n.02'
p30
asS'instanceCount'
p31
I24
sS'matrix'
p32
(dp33
g16
(dp34
S'cheese.n.01'
p35
I1
ssg21
(dp36
g21
I0
ssg25
(dp37
S'chicken.n.01'
p38
I1
ssg19
(dp39
S'beef.n.02'
p40
I1
ssg30
(dp41
S'batter.n.02'
p42
I1
ssg23
(dp43
g23
I0
ssg9
(dp44
S'pan.n.03'
p45
I2
ssg27
(dp46
g27
I0
ssg28
(dp47
g29
I1
ssg29
(dp48
g29
I0
ssg11
(dp49
S'slice.v.03'
p50
I3
ssg20
(dp51
g21
I1
ssg14
(dp52
g15
I1
ssg15
(dp53
g15
I0
ssg24
(dp54
S'whipped_cream.n.01'
p55
I1
ssg17
(dp56
g18
I1
ssg26
(dp57
g27
I1
ssg18
(dp58
g18
I0
ssg8
(dp59
S'put.v.01'
p60
I4
ssg10
(dp61
S'pizza.n.01'
p62
I2
ssg22
(dp63
g23
I1
ssg12
(dp64
g13
I2
ssg13
(dp65
g13
I0
sssb.