ccopy_reg
_reconstructor
p0
(cutils.eval
ConfusionMatrix
p1
c__builtin__
object
p2
Ntp3
Rp4
(dp5
S'labels'
p6
(lp7
S'cabbage.n.01'
p8
aS'cut.v.01'
p9
aS'put.v.01'
p10
aS'pepper.n.03'
p11
aS'pepper.n.04'
p12
aS'salt.n.02'
p13
aS'egg.n.02'
p14
aS'egg.n.01'
p15
aS'knife.n.01'
p16
aS'knife.n.02'
p17
aS'banana.n.02'
p18
aS'slice.v.03'
p19
aS'fill.v.01'
p20
aS'foam.n.01'
p21
aS'mug.n.04'
p22
aS'pan.n.03'
p23
aS'pizza.n.01'
p24
aS'onion.n.01'
p25
aS'cheese.n.01'
p26
aS'piece.n.08'
p27
aS'slice.n.06'
p28
asS'instanceCount'
p29
I23
sS'matrix'
p30
(dp31
g13
(dp32
S'salt.n.02'
p33
I1
ssg23
(dp34
S'pan.n.03'
p35
I1
ssg9
(dp36
S'cut.v.01'
p37
I1
ssg8
(dp38
S'cabbage.n.01'
p39
I1
ssg18
(dp40
S'banana.n.02'
p41
I1
ssg17
(dp42
g17
I0
ssg12
(dp43
g12
I1
ssg15
(dp44
g15
I0
ssg28
(dp45
g28
I0
ssg11
(dp46
g12
I1
ssg20
(dp47
S'fill.v.01'
p48
I1
ssg26
(dp49
S'cheese.n.01'
p50
I1
ssg24
(dp51
S'pizza.n.01'
p52
I2
ssg10
(dp53
S'put.v.01'
p54
I2
ssg14
(dp55
g15
I1
ssg16
(dp56
g17
I1
ssg19
(dp57
S'slice.v.03'
p58
I4
ssg21
(dp59
S'foam.n.01'
p60
I1
ssg25
(dp61
S'onion.n.01'
p62
I1
ssg27
(dp63
g28
I1
ssg22
(dp64
S'mug.n.04'
p65
I1
sssb.