ccopy_reg
_reconstructor
p0
(cutils.eval
ConfusionMatrix
p1
c__builtin__
object
p2
Ntp3
Rp4
(dp5
S'labels'
p6
(lp7
S'knife.n.01'
p8
aS'banana.n.02'
p9
aS'slice.v.03'
p10
aS'fill.v.01'
p11
aS'fill.v.09'
p12
aS'foam.n.01'
p13
aS'mug.n.04'
p14
aS'chump.n.01'
p15
aS'put.v.01'
p16
aS'pan.n.03'
p17
aS'pizza.n.01'
p18
aS'onion.n.01'
p19
aS'pepper.n.04'
p20
aS'pepper.n.03'
p21
aS'cheese.n.01'
p22
aS'piece.n.08'
p23
aS'slice.n.06'
p24
aS'beef.n.02'
p25
aS'plate.n.04'
p26
aS'plate.n.13'
p27
aS'cake.n.03'
p28
aS'patty.n.01'
p29
aS'whipped_cream.n.01'
p30
asS'instanceCount'
p31
I24
sS'matrix'
p32
(dp33
g27
(dp34
g27
I0
ssg22
(dp35
S'cheese.n.01'
p36
I1
ssg25
(dp37
S'beef.n.02'
p38
I1
ssg29
(dp39
g29
I0
ssg17
(dp40
S'pan.n.03'
p41
I1
ssg13
(dp42
S'foam.n.01'
p43
I1
ssg12
(dp44
g12
I0
ssg11
(dp45
g12
I1
ssg10
(dp46
S'slice.v.03'
p47
I4
ssg15
(dp48
g15
I0
ssg8
(dp49
S'knife.n.01'
p50
I1
ssg9
(dp51
S'banana.n.02'
p52
I1
ssg26
(dp53
g27
I1
ssg20
(dp54
g21
I1
ssg21
(dp55
g21
I0
ssg30
(dp56
S'whipped_cream.n.01'
p57
I1
ssg23
(dp58
g24
I1
ssg14
(dp59
g15
I1
ssg24
(dp60
g24
I0
ssg16
(dp61
S'put.v.01'
p62
I3
ssg18
(dp63
S'pizza.n.01'
p64
I2
ssg28
(dp65
g29
I1
ssg19
(dp66
S'onion.n.01'
p67
I2
sssb.