ccopy_reg
_reconstructor
p0
(cutils.eval
ConfusionMatrix
p1
c__builtin__
object
p2
Ntp3
Rp4
(dp5
S'labels'
p6
(lp7
S'cheese.n.01'
p8
aS'slice.v.03'
p9
aS'piece.n.08'
p10
aS'slice.n.06'
p11
aS'pizza.n.01'
p12
aS'put.v.01'
p13
aS'onion.n.01'
p14
aS'onion.n.03'
p15
aS'beef.n.02'
p16
aS'plate.n.04'
p17
aS'plate.n.11'
p18
aS'cake.n.03'
p19
aS'patty.n.01'
p20
aS'whipped_cream.n.01'
p21
aS'pan.n.03'
p22
aS'chicken.n.01'
p23
aS'opening.n.01'
p24
aS'gap.n.03'
p25
aS'fill.v.09'
p26
aS'fill.v.01'
p27
aS'batter.n.02'
p28
aS'cut.v.01'
p29
aS'meat.n.01'
p30
aS'cleaver.n.01'
p31
aS'flesh.n.01'
p32
aS'pulp.n.02'
p33
asS'instanceCount'
p34
I23
sS'matrix'
p35
(dp36
g8
(dp37
S'cheese.n.01'
p38
I1
ssg18
(dp39
g18
I0
ssg23
(dp40
S'chicken.n.01'
p41
I1
ssg16
(dp42
S'beef.n.02'
p43
I1
ssg28
(dp44
S'batter.n.02'
p45
I1
ssg20
(dp46
g20
I0
ssg22
(dp47
S'pan.n.03'
p48
I1
ssg29
(dp49
S'cut.v.01'
p50
I1
ssg25
(dp51
g25
I0
ssg26
(dp52
g27
I1
ssg27
(dp53
g27
I0
ssg30
(dp54
S'meat.n.01'
p55
I1
ssg31
(dp56
S'cleaver.n.01'
p57
I1
ssg9
(dp58
S'slice.v.03'
p59
I3
ssg17
(dp60
g18
I1
ssg21
(dp61
S'whipped_cream.n.01'
p62
I1
ssg10
(dp63
g11
I1
ssg24
(dp64
g25
I1
ssg32
(dp65
g33
I1
ssg11
(dp66
g11
I0
ssg13
(dp67
S'put.v.01'
p68
I3
ssg12
(dp69
S'pizza.n.01'
p70
I1
ssg19
(dp71
g20
I1
ssg33
(dp72
g33
I0
ssg14
(dp73
g15
I1
ssg15
(dp74
g15
I0
sssb.