ccopy_reg
_reconstructor
p0
(cutils.eval
ConfusionMatrix
p1
c__builtin__
object
p2
Ntp3
Rp4
(dp5
S'labels'
p6
(lp7
S'fill.v.01'
p8
aS'fill.v.09'
p9
aS'kettle.n.01'
p10
aS'water.n.06'
p11
aS'pitcher.n.02'
p12
aS'milk.n.01'
p13
aS'milk.n.02'
p14
aS'cut.v.01'
p15
aS'lemon.n.01'
p16
aS'pan.n.01'
p17
aS'pan.n.03'
p18
aS'cabbage.n.01'
p19
aS'put.v.01'
p20
aS'pepper.n.03'
p21
aS'capsicum.n.01'
p22
aS'salt.n.02'
p23
aS'salt.n.01'
p24
aS'egg.n.02'
p25
aS'egg.n.01'
p26
aS'knife.n.01'
p27
aS'knife.n.02'
p28
aS'banana.n.02'
p29
aS'slice.v.03'
p30
aS'foam.n.01'
p31
aS'mug.n.04'
p32
aS'chump.n.01'
p33
aS'pepper.n.04'
p34
aS'salt.n.04'
p35
aS'pizza.n.01'
p36
aS'onion.n.01'
p37
aS'onion.n.03'
p38
aS'cheese.n.01'
p39
aS'piece.n.08'
p40
aS'slice.n.06'
p41
aS'beef.n.02'
p42
aS'plate.n.04'
p43
aS'plate.n.11'
p44
aS'cake.n.03'
p45
aS'patty.n.01'
p46
aS'whipped_cream.n.01'
p47
aS'chicken.n.01'
p48
aS'opening.n.01'
p49
aS'gap.n.03'
p50
aS'batter.n.02'
p51
aS'bread.n.01'
p52
aS'bacon.n.01'
p53
aS'bacon.n.02'
p54
aS'water.n.03'
p55
aS'plate.n.13'
p56
aS'meat.n.01'
p57
aS'cleaver.n.01'
p58
aS'flesh.n.01'
p59
aS'pulp.n.02'
p60
aS'human_body.n.01'
p61
aS'helicopter.n.01'
p62
aS'pitcher.n.01'
p63
asS'instanceCount'
p64
I227
sS'matrix'
p65
(dp66
g56
(dp67
g56
I0
sS'cheese.n.01'
p68
I0
sS'beef.n.02'
p69
I0
sS'patty.n.01'
p70
I0
sS'pan.n.03'
p71
I0
sS'foam.n.01'
p72
I0
sS'fill.v.09'
p73
I0
sS'fill.v.01'
p74
I0
sS'slice.v.03'
p75
I0
sS'chump.n.01'
p76
I0
sS'knife.n.01'
p77
I0
sS'banana.n.02'
p78
I0
sS'plate.n.04'
p79
I0
sS'pepper.n.04'
p80
I0
sS'pepper.n.03'
p81
I0
sS'whipped_cream.n.01'
p82
I0
sS'piece.n.08'
p83
I0
sS'mug.n.04'
p84
I0
sS'slice.n.06'
p85
I0
sS'put.v.01'
p86
I0
sS'pizza.n.01'
p87
I0
sS'cake.n.03'
p88
I0
sS'onion.n.01'
p89
I0
ssg39
(dp90
g56
I0
sg39
I4
sg44
I0
sg48
I0
sg42
I0
sg51
I0
sS'cabbage.n.01'
p91
I0
sg46
I0
sS'cut.v.01'
p92
I0
sS'pan.n.03'
p93
I0
sg72
I0
sg50
I0
sS'fill.v.09'
p94
I0
sS'egg.n.02'
p95
I0
sS'egg.n.01'
p96
I0
sS'fill.v.01'
p97
I0
sg57
I0
sS'salt.n.02'
p98
I0
sg58
I0
sS'slice.v.03'
p99
I0
sg76
I0
sg77
I0
sg78
I0
sS'knife.n.02'
p100
I0
sg43
I0
sS'pepper.n.04'
p101
I0
sS'pepper.n.03'
p102
I0
sg47
I0
sg40
I0
sg49
I0
sg84
I0
sg59
I0
sg41
I0
sS'put.v.01'
p103
I0
sS'pizza.n.01'
p104
I0
sg45
I0
sg60
I0
sS'onion.n.01'
p105
I0
sg38
I0
ssg44
(dp106
g39
I0
sg44
I0
sg48
I0
sg42
I0
sS'bread.n.01'
p107
I0
sg51
I0
sg46
I0
sg93
I0
sg92
I0
sg50
I0
sg94
I0
sS'bacon.n.01'
p108
I0
sg97
I0
sg57
I0
sg58
I0
sg99
I0
sS'knife.n.01'
p109
I0
sS'knife.n.02'
p110
I0
sg43
I0
sg101
I0
sg102
I0
sg47
I0
sg40
I0
sg49
I0
sg59
I0
sg41
I0
sg103
I0
sg104
I0
sg45
I0
sg60
I0
sg105
I0
sg38
I0
ssg48
(dp111
g39
I0
sg44
I0
sg48
I4
sg42
I0
sg107
I0
sg51
I0
sg46
I0
sS'milk.n.01'
p112
I0
sg93
I0
sg92
I0
sg50
I0
sg94
I0
sg108
I0
sg97
I0
sS'pitcher.n.02'
p113
I0
sg57
I0
sg58
I0
sg99
I0
sg109
I0
sg110
I0
sg43
I0
sg101
I0
sg102
I0
sg61
I0
sg47
I0
sg40
I0
sg49
I0
sg59
I0
sg41
I0
sS'water.n.06'
p114
I0
sg103
I0
sg104
I0
sS'kettle.n.01'
p115
I0
sg45
I0
sg60
I0
sg105
I0
sg38
I0
ssg30
(dp116
g56
I0
sg39
I0
sg44
I0
sg48
I0
sg23
I0
sg33
I0
sg107
I0
sg51
I0
sg27
I0
sg31
I0
sg13
I0
sg14
I0
sg17
I0
sg18
I0
sg15
I0
sg50
I0
sg9
I0
sg25
I0
sg26
I0
sg35
I0
sg108
I0
sg8
I0
sg12
I0
sg63
I0
sg57
I0
sg58
I0
sg30
I20
sg24
I0
sg19
I0
sg29
I0
sg28
I0
sg43
I0
sg34
I0
sg21
I0
sg42
I0
sg61
I0
sg47
I0
sg46
I0
sg22
I0
sg40
I0
sg49
I0
sg32
I0
sg59
I0
sg62
I0
sg41
I0
sg11
I0
sg20
I0
sg36
I0
sg10
I0
sg45
I0
sg60
I0
sg16
I0
sg37
I0
sg38
I0
ssg33
(dp117
g56
I0
sg68
I0
sg30
I0
sg24
I0
sg27
I0
sg31
I0
sg13
I0
sg14
I0
sg17
I0
sg18
I0
sg15
I0
sg9
I0
sg25
I0
sg26
I0
sg69
I0
sg8
I0
sg12
I0
sg23
I0
sg33
I0
sg19
I0
sg29
I0
sg28
I0
sg79
I0
sg80
I0
sg21
I0
sg82
I0
sg70
I0
sg22
I0
sg83
I0
sg32
I0
sg85
I0
sg11
I0
sg20
I0
sg87
I0
sg10
I0
sg88
I0
sg16
I0
sg89
I0
ssg52
(dp118
S'plate.n.11'
p119
I0
sS'chicken.n.01'
p120
I0
sS'beef.n.02'
p121
I0
sg52
I4
sS'batter.n.02'
p122
I0
sS'cabbage.n.01'
p123
I0
sS'patty.n.01'
p124
I0
sS'milk.n.01'
p125
I0
sS'milk.n.02'
p126
I0
sS'pan.n.01'
p127
I0
sS'pan.n.03'
p128
I0
sS'cut.v.01'
p129
I0
sS'gap.n.03'
p130
I0
sS'pitcher.n.02'
p131
I0
sS'egg.n.02'
p132
I0
sg54
I0
sg53
I0
sS'fill.v.01'
p133
I0
sS'capsicum.n.01'
p134
I0
sg63
I0
sS'meat.n.01'
p135
I0
sS'cleaver.n.01'
p136
I0
sS'salt.n.02'
p137
I0
sS'salt.n.01'
p138
I0
sS'knife.n.01'
p139
I0
sS'knife.n.02'
p140
I0
sS'plate.n.04'
p141
I0
sS'pepper.n.03'
p142
I0
sg61
I0
sS'whipped_cream.n.01'
p143
I0
sS'opening.n.01'
p144
I0
sS'flesh.n.01'
p145
I0
sg55
I0
sg62
I0
sS'fill.v.09'
p146
I0
sS'water.n.06'
p147
I0
sS'put.v.01'
p148
I0
sS'kettle.n.01'
p149
I0
sS'cake.n.03'
p150
I0
sS'pulp.n.02'
p151
I0
sS'lemon.n.01'
p152
I0
sS'slice.v.03'
p153
I0
sS'onion.n.01'
p154
I0
sS'onion.n.03'
p155
I0
ssg51
(dp156
g39
I0
sg44
I0
sg48
I0
sg42
I0
sg107
I0
sg51
I4
sg97
I0
sg112
I0
sg93
I0
sg92
I0
sg50
I0
sg94
I0
sg108
I0
sg46
I0
sg113
I0
sg57
I0
sg58
I0
sg99
I0
sg109
I0
sg110
I0
sg43
I0
sg101
I0
sg102
I0
sg61
I0
sg47
I0
sg40
I0
sg49
I0
sg59
I0
sg41
I0
sg114
I0
sg103
I0
sg104
I0
sg115
I0
sg45
I0
sg60
I0
sg105
I0
sg38
I0
ssg27
(dp157
g56
I0
sg68
I0
sg119
I0
sg120
I0
sg30
I0
sg33
I0
sg52
I0
sg122
I0
sg19
I0
sg31
I0
sg13
I0
sg14
I0
sg17
I0
sg18
I0
sg15
I0
sg130
I0
sg9
I0
sg25
I0
sg26
I0
sg35
I0
sg54
I0
sg53
I0
sg8
I0
sg22
I0
sg63
I0
sg135
I0
sg136
I0
sg23
I0
sg24
I0
sg27
I2
sg29
I0
sg28
I6
sg79
I0
sg34
I0
sg21
I0
sg69
I0
sg61
I0
sg82
I0
sg70
I0
sg83
I0
sg144
I0
sg32
I0
sg145
I0
sg55
I0
sg62
I0
sg85
I0
sg11
I0
sg20
I0
sg36
I0
sg10
I0
sg88
I0
sg151
I0
sg16
I0
sg37
I0
sg12
I0
sg155
I0
ssg31
(dp158
g56
I0
sg68
I0
sg30
I0
sg33
I0
sg27
I0
sg31
I3
sg13
I0
sg14
I0
sg17
I0
sg18
I0
sg15
I0
sg9
I0
sg25
I0
sg26
I0
sg69
I0
sg8
I0
sg12
I0
sg23
I0
sg24
I0
sg19
I0
sg29
I0
sg28
I0
sg79
I0
sg80
I0
sg21
I0
sg82
I0
sg70
I0
sg22
I0
sg83
I0
sg32
I0
sg85
I0
sg11
I0
sg20
I0
sg87
I0
sg10
I0
sg88
I0
sg16
I0
sg89
I0
ssg13
(dp159
S'chicken.n.01'
p160
I0
sg30
I0
sg33
I0
sg52
I0
sS'batter.n.02'
p161
I0
sg27
I0
sg31
I0
sg13
I2
sg14
I2
sg17
I0
sg18
I0
sg15
I0
sS'gap.n.03'
p162
I0
sg9
I0
sg25
I0
sg26
I0
sg54
I0
sg53
I0
sg8
I0
sg12
I0
sg63
I0
sS'meat.n.01'
p163
I0
sS'cleaver.n.01'
p164
I0
sg23
I0
sg24
I0
sg19
I0
sg29
I0
sg28
I0
sg21
I0
sg61
I0
sg22
I0
sS'opening.n.01'
p165
I0
sg32
I0
sS'flesh.n.01'
p166
I0
sg55
I0
sg62
I0
sg11
I0
sg20
I0
sg10
I0
sg16
I0
ssg14
(dp167
g30
I0
sg33
I0
sg52
I0
sg27
I0
sg31
I0
sg13
I0
sg14
I0
sg17
I0
sg18
I0
sg15
I0
sg9
I0
sg25
I0
sg26
I0
sg54
I0
sg53
I0
sg8
I0
sg12
I0
sg23
I0
sg24
I0
sg19
I0
sg29
I0
sg28
I0
sg21
I0
sg22
I0
sg32
I0
sg55
I0
sg11
I0
sg20
I0
sg10
I0
sg16
I0
ssg17
(dp168
g30
I0
sg33
I0
sg52
I0
sg27
I0
sg31
I0
sg13
I0
sg14
I0
sg17
I1
sg18
I3
sg15
I0
sg9
I0
sg25
I0
sg26
I0
sg35
I0
sg54
I0
sg53
I0
sg8
I0
sg12
I0
sg63
I0
sS'meat.n.01'
p169
I0
sS'cleaver.n.01'
p170
I0
sg23
I0
sg24
I0
sg19
I0
sg29
I0
sg28
I0
sg34
I0
sg21
I0
sS'human_body.n.01'
p171
I0
sg22
I0
sg32
I0
sS'flesh.n.01'
p172
I0
sg55
I0
sg62
I0
sg11
I0
sg20
I0
sg36
I0
sg10
I0
sg16
I0
sg37
I0
ssg18
(dp173
g56
I0
sg39
I0
sg44
I0
sg48
I0
sg30
I0
sg33
I0
sg52
I0
sg51
I0
sg27
I0
sg31
I0
sg13
I0
sg14
I0
sg17
I0
sg18
I8
sg15
I0
sg50
I0
sg9
I0
sg25
I0
sg26
I0
sg35
I0
sg54
I0
sg53
I0
sg8
I0
sg12
I0
sg63
I0
sg57
I0
sg58
I0
sg23
I0
sg24
I0
sg19
I0
sg29
I0
sg28
I0
sg43
I0
sg34
I0
sg21
I0
sg42
I0
sg61
I0
sg47
I0
sg46
I0
sg22
I0
sg40
I0
sg49
I0
sg32
I0
sg59
I0
sg55
I0
sg62
I0
sg41
I0
sg11
I0
sg20
I0
sg36
I0
sg10
I0
sg45
I0
sg60
I0
sg16
I0
sg37
I0
sg38
I0
ssg15
(dp174
S'cheese.n.01'
p175
I0
sS'plate.n.11'
p176
I0
sS'chicken.n.01'
p177
I0
sg30
I0
sg33
I0
sg52
I0
sS'batter.n.02'
p178
I0
sg27
I0
sg31
I0
sg13
I0
sg14
I0
sg17
I0
sg18
I0
sg15
I20
sS'gap.n.03'
p179
I0
sg9
I0
sg25
I0
sg26
I0
sg35
I0
sg54
I0
sg53
I0
sg8
I0
sg12
I0
sg63
I0
sg57
I0
sg58
I0
sg23
I0
sg24
I0
sg19
I0
sg29
I0
sg28
I0
sS'plate.n.04'
p180
I0
sg34
I0
sg21
I0
sS'beef.n.02'
p181
I0
sg61
I0
sS'whipped_cream.n.01'
p182
I0
sS'patty.n.01'
p183
I0
sg22
I0
sS'piece.n.08'
p184
I0
sS'opening.n.01'
p185
I0
sg32
I0
sg59
I0
sg55
I0
sg62
I0
sS'slice.n.06'
p186
I0
sg11
I0
sg20
I0
sg36
I0
sg10
I0
sS'cake.n.03'
p187
I0
sg60
I0
sg16
I0
sg37
I0
sS'onion.n.03'
p188
I0
ssg50
(dp189
g39
I0
sg44
I0
sg48
I0
sg42
I0
sg107
I0
sg51
I0
sg46
I0
sg112
I0
sg93
I0
sg92
I0
sg50
I0
sg94
I0
sg108
I0
sg97
I0
sg113
I0
sg57
I0
sg58
I0
sg99
I0
sg109
I0
sg110
I0
sg43
I0
sg101
I0
sg102
I0
sg61
I0
sg47
I0
sg40
I0
sg49
I0
sg59
I0
sg41
I0
sg114
I0
sg103
I0
sg104
I0
sg115
I0
sg45
I0
sg60
I0
sg105
I0
sg38
I0
ssg9
(dp190
g56
I0
sg39
I0
sg44
I0
sg48
I0
sg30
I0
sg33
I0
sg107
I0
sg51
I0
sg27
I0
sg31
I0
sg13
I0
sg14
I0
sg17
I0
sg18
I0
sg15
I0
sg50
I0
sg9
I0
sg25
I0
sg26
I0
sg42
I0
sg108
I0
sg8
I4
sg12
I0
sg63
I0
sg57
I0
sg58
I0
sg23
I0
sg24
I0
sg19
I0
sg29
I0
sg28
I0
sg43
I0
sg101
I0
sg21
I0
sg61
I0
sg47
I0
sg46
I0
sg22
I0
sg40
I0
sg49
I0
sg32
I0
sg59
I0
sg62
I0
sg41
I0
sg11
I0
sg20
I0
sg104
I0
sg10
I0
sg45
I0
sg60
I0
sg16
I0
sg105
I0
sg38
I0
ssg25
(dp191
S'cheese.n.01'
p192
I0
sg30
I0
sg33
I0
sg52
I0
sg27
I0
sg31
I0
sg13
I0
sg14
I0
sg17
I0
sg18
I0
sg15
I0
sg9
I0
sg25
I1
sg26
I3
sg35
I0
sg54
I0
sg53
I0
sg8
I0
sg12
I0
sg23
I0
sg24
I0
sg19
I0
sg29
I0
sg28
I0
sg34
I0
sg21
I0
sg22
I0
sS'piece.n.08'
p193
I0
sg32
I0
sg55
I0
sS'slice.n.06'
p194
I0
sg11
I0
sg20
I0
sg36
I0
sg10
I0
sg16
I0
sg37
I0
ssg26
(dp195
g192
I0
sg30
I0
sg33
I0
sg27
I0
sg31
I0
sg13
I0
sg14
I0
sg17
I0
sg18
I0
sg15
I0
sg9
I0
sg25
I0
sg26
I0
sg35
I0
sg8
I0
sg12
I0
sg23
I0
sg24
I0
sg19
I0
sg29
I0
sg28
I0
sg34
I0
sg21
I0
sg22
I0
sg193
I0
sg32
I0
sg194
I0
sg11
I0
sg20
I0
sg36
I0
sg10
I0
sg16
I0
sg37
I0
ssg35
(dp196
S'pan.n.01'
p197
I0
sS'salt.n.02'
p198
I0
sS'pan.n.03'
p199
I0
sS'cut.v.01'
p200
I0
sS'cabbage.n.01'
p201
I0
sS'banana.n.02'
p202
I0
sg35
I0
sg34
I0
sS'egg.n.01'
p203
I0
sS'water.n.06'
p204
I0
sS'put.v.01'
p205
I0
sS'fill.v.01'
p206
I0
sS'pepper.n.03'
p207
I0
sS'lemon.n.01'
p208
I0
sS'egg.n.02'
p209
I0
sS'knife.n.01'
p210
I0
sS'slice.v.03'
p211
I0
sg36
I0
sg37
I0
sS'mug.n.04'
p212
I0
ssg54
(dp213
g52
I0
sg123
I0
sg125
I0
sg126
I0
sg127
I0
sg128
I0
sg129
I0
sg131
I0
sg132
I0
sg54
I0
sg53
I0
sg133
I0
sg134
I0
sg137
I0
sg138
I0
sg139
I0
sg140
I0
sg142
I0
sg55
I0
sg147
I0
sg148
I0
sg149
I0
sg152
I0
ssg53
(dp214
g119
I0
sg120
I0
sg121
I0
sg52
I0
sg122
I0
sg123
I0
sg124
I0
sg125
I0
sg126
I0
sg127
I0
sg128
I0
sg129
I0
sg130
I0
sg131
I0
sg132
I0
sg54
I1
sg53
I3
sg133
I0
sg134
I0
sg63
I0
sg135
I0
sg136
I0
sg137
I0
sg138
I0
sg139
I0
sg140
I0
sg141
I0
sg142
I0
sg61
I0
sg143
I0
sg144
I0
sg145
I0
sg55
I0
sg62
I0
sg146
I0
sg147
I0
sg148
I0
sg149
I0
sg150
I0
sg151
I0
sg152
I0
sg153
I0
sg154
I0
sg155
I0
ssg8
(dp215
g56
I0
sg39
I0
sg44
I0
sg48
I0
sg30
I0
sg33
I0
sg52
I0
sg51
I0
sg27
I0
sg31
I0
sg13
I0
sg14
I0
sg17
I0
sg18
I0
sg15
I0
sg50
I0
sg9
I8
sg25
I0
sg26
I0
sg35
I0
sg54
I0
sg53
I0
sg8
I8
sg12
I0
sg63
I0
sg57
I0
sg58
I0
sg23
I0
sg24
I0
sg19
I0
sg29
I0
sg28
I0
sg43
I0
sg34
I0
sg21
I0
sg42
I0
sg61
I0
sg47
I0
sg46
I0
sg22
I0
sg40
I0
sg49
I0
sg32
I0
sg59
I0
sg55
I0
sg62
I0
sg41
I0
sg11
I0
sg20
I0
sg36
I0
sg10
I0
sg45
I0
sg60
I0
sg16
I0
sg37
I0
sg38
I0
ssg12
(dp216
g160
I0
sg30
I0
sg33
I0
sg52
I0
sg161
I0
sg27
I0
sg31
I0
sg13
I0
sg14
I0
sg17
I0
sg18
I0
sg15
I0
sg162
I0
sg9
I0
sg25
I0
sg26
I0
sg54
I0
sg53
I0
sg8
I0
sg12
I3
sg63
I1
sg163
I0
sg164
I0
sg23
I0
sg24
I0
sg19
I0
sg29
I0
sg28
I0
sg21
I0
sg61
I0
sg22
I0
sg165
I0
sg32
I0
sg166
I0
sg55
I0
sg62
I0
sg11
I0
sg20
I0
sg10
I0
sg16
I0
ssg63
(dp217
S'water.n.06'
p218
I0
sS'slice.v.03'
p219
I0
sS'pan.n.03'
p220
I0
sS'cut.v.01'
p221
I0
sS'knife.n.01'
p222
I0
sS'pan.n.01'
p223
I0
sg172
I0
sS'milk.n.01'
p224
I0
sg62
I0
sS'knife.n.02'
p225
I0
sg171
I0
sS'bacon.n.01'
p226
I0
sS'bread.n.01'
p227
I0
sS'fill.v.09'
p228
I0
sg63
I0
sS'kettle.n.01'
p229
I0
sg169
I0
sS'lemon.n.01'
p230
I0
sS'fill.v.01'
p231
I0
sS'pitcher.n.02'
p232
I0
sg170
I0
ssg57
(dp233
g175
I0
sg176
I0
sg177
I0
sg181
I0
sg107
I0
sg178
I0
sg183
I0
sg112
I0
sg223
I0
sS'pan.n.03'
p234
I0
sg92
I0
sg179
I0
sS'fill.v.09'
p235
I0
sg108
I0
sS'fill.v.01'
p236
I0
sg113
I0
sg63
I0
sg57
I4
sg58
I0
sS'slice.v.03'
p237
I0
sg109
I0
sg110
I0
sg180
I0
sg61
I0
sg182
I0
sg184
I0
sg185
I0
sg59
I0
sg62
I0
sg186
I0
sg114
I0
sS'put.v.01'
p238
I0
sS'pizza.n.01'
p239
I0
sg115
I0
sg187
I0
sg60
I0
sg230
I0
sS'onion.n.01'
p240
I0
sg188
I0
ssg58
(dp241
g175
I0
sg176
I0
sg177
I0
sg181
I0
sg107
I0
sg178
I0
sg183
I0
sg112
I0
sg223
I0
sg234
I0
sg92
I0
sg179
I0
sg235
I0
sg108
I0
sg236
I0
sg113
I0
sg63
I0
sg58
I3
sg57
I0
sg237
I0
sg109
I0
sg110
I0
sg180
I0
sg61
I0
sg182
I0
sg184
I0
sg185
I0
sg59
I0
sg62
I1
sg186
I0
sg114
I0
sg238
I0
sg239
I0
sg115
I0
sg187
I0
sg60
I0
sg230
I0
sg240
I0
sg188
I0
ssg23
(dp242
g192
I0
sg30
I0
sg33
I0
sg52
I0
sg27
I0
sg31
I0
sg13
I0
sg14
I0
sg17
I0
sg18
I0
sg15
I0
sg9
I0
sg25
I0
sg26
I0
sg35
I1
sg54
I0
sg53
I0
sg8
I0
sg12
I0
sg23
I1
sg24
I2
sg19
I0
sg29
I0
sg28
I0
sg34
I0
sg21
I0
sg22
I0
sg193
I0
sg32
I0
sg55
I0
sg194
I0
sg11
I0
sg20
I0
sg36
I0
sg10
I0
sg16
I0
sg37
I0
ssg24
(dp243
g30
I0
sg33
I0
sg52
I0
sg27
I0
sg31
I0
sg13
I0
sg14
I0
sg17
I0
sg18
I0
sg15
I0
sg9
I0
sg25
I0
sg26
I0
sg54
I0
sg53
I0
sg8
I0
sg12
I0
sg23
I0
sg24
I0
sg19
I0
sg29
I0
sg28
I0
sg21
I0
sg22
I0
sg32
I0
sg55
I0
sg11
I0
sg20
I0
sg10
I0
sg16
I0
ssg19
(dp244
g192
I0
sg30
I0
sg33
I0
sg52
I0
sg27
I0
sg31
I0
sg13
I0
sg14
I0
sg17
I0
sg18
I0
sg15
I0
sg9
I0
sg25
I0
sg26
I0
sg35
I0
sg54
I0
sg53
I0
sg8
I0
sg12
I0
sg23
I0
sg24
I0
sg19
I4
sg29
I0
sg28
I0
sg34
I0
sg21
I0
sg22
I0
sg193
I0
sg32
I0
sg55
I0
sg194
I0
sg11
I0
sg20
I0
sg36
I0
sg10
I0
sg16
I0
sg37
I0
ssg29
(dp245
g56
I0
sg68
I0
sg30
I0
sg33
I0
sg27
I0
sg31
I0
sg13
I0
sg14
I0
sg17
I0
sg18
I0
sg15
I0
sg9
I0
sg25
I0
sg26
I0
sg35
I0
sg8
I0
sg12
I0
sg23
I0
sg24
I0
sg19
I0
sg29
I4
sg28
I0
sg79
I0
sg34
I0
sg21
I0
sg69
I0
sg82
I0
sg70
I0
sg22
I0
sg83
I0
sg32
I0
sg85
I0
sg11
I0
sg20
I0
sg36
I0
sg10
I0
sg88
I0
sg16
I0
sg37
I0
ssg28
(dp246
g192
I0
sg119
I0
sg120
I0
sg30
I0
sg33
I0
sg52
I0
sg122
I0
sg27
I0
sg31
I0
sg13
I0
sg14
I0
sg17
I0
sg18
I0
sg15
I0
sg130
I0
sg9
I0
sg25
I0
sg26
I0
sg121
I0
sg54
I0
sg53
I0
sg8
I0
sg12
I0
sg63
I0
sg135
I0
sg136
I0
sg23
I0
sg24
I0
sg19
I0
sg29
I0
sg28
I0
sg141
I0
sS'pepper.n.04'
p247
I0
sg21
I0
sg61
I0
sg143
I0
sg124
I0
sg22
I0
sg193
I0
sg144
I0
sg32
I0
sg145
I0
sg55
I0
sg62
I0
sg194
I0
sg11
I0
sg20
I0
sS'pizza.n.01'
p248
I0
sg10
I0
sg150
I0
sg151
I0
sg16
I0
sg154
I0
sg155
I0
ssg43
(dp249
g56
I1
sg39
I0
sg44
I3
sg48
I0
sg42
I0
sg107
I0
sg51
I0
sg46
I0
sg92
I0
sg93
I0
sg72
I0
sg50
I0
sg94
I0
sg108
I0
sg97
I0
sg57
I0
sg58
I0
sg99
I0
sg76
I0
sg77
I0
sg78
I0
sg110
I0
sg43
I0
sg101
I0
sg102
I0
sg47
I0
sg40
I0
sg49
I0
sg84
I0
sg59
I0
sg41
I0
sg103
I0
sg104
I0
sg45
I0
sg60
I0
sg105
I0
sg38
I0
ssg34
(dp250
g56
I0
sg39
I0
sg44
I0
sg48
I0
sg211
I0
sg100
I0
sg51
I0
sg210
I0
sg46
I0
sg197
I0
sg199
I0
sg200
I0
sg50
I0
sg94
I0
sg209
I0
sg203
I0
sg42
I0
sg206
I0
sg198
I0
sg76
I0
sg201
I0
sg202
I0
sg35
I0
sg43
I0
sg34
I2
sg207
I2
sg72
I0
sg47
I0
sg40
I0
sg49
I0
sg212
I0
sg41
I0
sg204
I0
sg205
I0
sg36
I0
sg45
I0
sg208
I0
sg37
I0
sg38
I0
ssg21
(dp251
g56
I0
sg39
I0
sg44
I0
sg48
I0
sg30
I0
sg33
I0
sg52
I0
sg51
I0
sg27
I0
sg31
I0
sg13
I0
sg14
I0
sg17
I0
sg18
I0
sg15
I0
sg50
I0
sg9
I0
sg25
I0
sg26
I0
sg35
I0
sg54
I0
sg53
I0
sg8
I0
sg12
I0
sg23
I0
sg24
I0
sg19
I0
sg29
I0
sg28
I0
sg43
I0
sg34
I2
sg21
I0
sg42
I0
sg47
I0
sg46
I0
sg22
I2
sg40
I0
sg49
I0
sg32
I0
sg55
I0
sg41
I0
sg11
I0
sg20
I0
sg36
I0
sg10
I0
sg45
I0
sg16
I0
sg37
I0
sg38
I0
ssg42
(dp252
g56
I0
sg39
I0
sg44
I0
sg48
I0
sg42
I4
sg107
I0
sg51
I0
sg46
I0
sg92
I0
sg93
I0
sg72
I0
sg50
I0
sg94
I0
sg108
I0
sg97
I0
sg57
I0
sg58
I0
sg99
I0
sg76
I0
sg77
I0
sg78
I0
sg110
I0
sg43
I0
sg101
I0
sg102
I0
sg47
I0
sg40
I0
sg49
I0
sg84
I0
sg59
I0
sg41
I0
sg103
I0
sg104
I0
sg45
I0
sg60
I0
sg105
I0
sg38
I0
ssg61
(dp253
g160
I0
sS'bread.n.01'
p254
I0
sg161
I0
sg112
I0
sg223
I0
sS'pan.n.03'
p255
I0
sS'cut.v.01'
p256
I0
sg162
I0
sS'fill.v.09'
p257
I0
sS'bacon.n.01'
p258
I0
sS'fill.v.01'
p259
I0
sg113
I0
sg63
I0
sg163
I0
sg164
I0
sS'slice.v.03'
p260
I0
sS'knife.n.01'
p261
I0
sS'knife.n.02'
p262
I0
sg61
I0
sg165
I0
sg166
I0
sg62
I0
sg114
I0
sS'put.v.01'
p263
I0
sg115
I0
sg230
I0
ssg47
(dp264
g56
I0
sg39
I0
sg44
I0
sg48
I0
sg42
I0
sg107
I0
sg51
I0
sg46
I0
sg92
I0
sg93
I0
sg72
I0
sg50
I0
sg94
I0
sg108
I0
sg97
I0
sg57
I0
sg58
I0
sg99
I0
sg76
I0
sg77
I0
sg78
I0
sg110
I0
sg43
I0
sg101
I0
sg102
I0
sg47
I4
sg40
I0
sg49
I0
sg84
I0
sg59
I0
sg41
I0
sg103
I0
sg104
I0
sg45
I0
sg60
I0
sg105
I0
sg38
I0
ssg46
(dp265
g56
I0
sg39
I0
sg44
I0
sg48
I0
sg42
I0
sg107
I0
sg51
I0
sg46
I0
sg92
I0
sg93
I0
sg72
I0
sg50
I0
sg94
I0
sg108
I0
sg97
I0
sg57
I0
sg58
I0
sg99
I0
sg76
I0
sg77
I0
sg78
I0
sg110
I0
sg43
I0
sg101
I0
sg102
I0
sg47
I0
sg40
I0
sg49
I0
sg84
I0
sg59
I0
sg41
I0
sg103
I0
sg104
I0
sg45
I0
sg60
I0
sg105
I0
sg38
I0
ssg22
(dp266
g30
I0
sg33
I0
sg52
I0
sg27
I0
sg31
I0
sg13
I0
sg14
I0
sg17
I0
sg18
I0
sg15
I0
sg9
I0
sg25
I0
sg26
I0
sg54
I0
sg53
I0
sg8
I0
sg22
I0
sg23
I0
sg24
I0
sg19
I0
sg29
I0
sg28
I0
sg21
I0
sg32
I0
sg55
I0
sg11
I0
sg20
I0
sg10
I0
sg16
I0
sg12
I0
ssg40
(dp267
g56
I0
sg39
I0
sg44
I0
sg48
I0
sg42
I0
sg51
I0
sg91
I0
sg46
I0
sg92
I0
sg93
I0
sg72
I0
sg50
I0
sg94
I0
sg95
I0
sg96
I0
sg97
I0
sg57
I0
sg98
I0
sg58
I0
sg99
I0
sg76
I0
sg77
I0
sg78
I0
sg100
I0
sg43
I0
sg101
I0
sg102
I0
sg47
I0
sg40
I0
sg49
I0
sg84
I0
sg59
I0
sg41
I4
sg103
I0
sg104
I0
sg45
I0
sg60
I0
sg105
I0
sg38
I0
ssg49
(dp268
g39
I0
sg44
I0
sg48
I0
sg42
I0
sg107
I0
sg51
I0
sg46
I0
sg112
I0
sg93
I0
sg92
I0
sg50
I4
sg94
I0
sg108
I0
sg97
I0
sg113
I0
sg57
I0
sg58
I0
sg99
I0
sg109
I0
sg110
I0
sg43
I0
sg101
I0
sg102
I0
sg61
I0
sg47
I0
sg40
I0
sg49
I0
sg59
I0
sg41
I0
sg114
I0
sg103
I0
sg104
I0
sg115
I0
sg45
I0
sg60
I0
sg105
I0
sg38
I0
ssg32
(dp269
g56
I0
sg68
I0
sg30
I0
sg33
I2
sg27
I0
sg31
I0
sg13
I0
sg14
I0
sg17
I0
sg18
I0
sg15
I0
sg9
I0
sg25
I0
sg26
I0
sg35
I0
sg8
I0
sg12
I0
sg23
I0
sg24
I0
sg19
I0
sg29
I0
sg28
I0
sg79
I0
sg34
I0
sg21
I0
sg69
I0
sg82
I0
sg70
I0
sg22
I0
sg83
I0
sg32
I2
sg85
I0
sg11
I0
sg20
I0
sg36
I0
sg10
I0
sg88
I0
sg16
I0
sg37
I0
ssg59
(dp270
g175
I0
sg176
I0
sg177
I0
sg181
I0
sg107
I0
sg178
I0
sg183
I0
sg112
I0
sg223
I0
sg234
I0
sg92
I0
sg179
I0
sg235
I0
sg108
I0
sg236
I0
sg113
I0
sg63
I0
sg57
I0
sg58
I0
sg237
I0
sg109
I0
sg110
I0
sg180
I0
sg61
I2
sg182
I0
sg184
I0
sg185
I0
sg59
I0
sg62
I0
sg186
I0
sg114
I0
sg238
I0
sg239
I0
sg115
I0
sg187
I0
sg60
I2
sg230
I0
sg240
I0
sg188
I0
ssg55
(dp271
g52
I0
sg123
I0
sg125
I0
sg126
I0
sg127
I0
sg128
I0
sg129
I0
sg131
I0
sg132
I0
sg54
I0
sg53
I0
sg133
I0
sg134
I0
sg137
I0
sg138
I0
sg139
I0
sg140
I0
sg142
I0
sg55
I0
sg147
I0
sg148
I0
sg149
I0
sg152
I0
ssg62
(dp272
g223
I0
sg219
I0
sg220
I0
sg221
I0
sg222
I0
sg172
I0
sg224
I0
sg62
I0
sg63
I0
sg225
I0
sg218
I0
sg226
I0
sg227
I0
sg228
I0
sg171
I0
sg229
I0
sg169
I0
sg230
I0
sg231
I0
sg232
I0
sg170
I0
ssg41
(dp273
g56
I0
sg39
I0
sg44
I0
sg48
I0
sg42
I0
sg51
I0
sg91
I0
sg46
I0
sg92
I0
sg93
I0
sg72
I0
sg50
I0
sg94
I0
sg95
I0
sg96
I0
sg97
I0
sg57
I0
sg98
I0
sg58
I0
sg99
I0
sg76
I0
sg77
I0
sg78
I0
sg100
I0
sg43
I0
sg101
I0
sg102
I0
sg47
I0
sg40
I0
sg49
I0
sg84
I0
sg59
I0
sg41
I0
sg103
I0
sg104
I0
sg45
I0
sg60
I0
sg105
I0
sg38
I0
ssg11
(dp274
g160
I0
sg30
I0
sg33
I0
sg52
I0
sg161
I0
sg27
I0
sg31
I0
sg13
I0
sg14
I0
sg17
I0
sg18
I0
sg15
I0
sg162
I0
sg9
I0
sg25
I0
sg26
I0
sg35
I0
sg54
I0
sg53
I0
sg8
I0
sg12
I0
sg63
I0
sg163
I0
sg164
I0
sg23
I0
sg24
I0
sg19
I0
sg29
I0
sg28
I0
sg34
I0
sg21
I0
sg61
I0
sg22
I0
sg165
I0
sg32
I0
sg166
I0
sg55
I2
sg62
I0
sg11
I6
sg20
I0
sg36
I0
sg10
I0
sg16
I0
sg37
I0
ssg20
(dp275
g56
I0
sg39
I0
sg44
I0
sg48
I0
sg30
I0
sg33
I0
sg52
I0
sg51
I0
sg27
I0
sg31
I0
sg13
I0
sg14
I0
sg17
I0
sg18
I0
sg15
I0
sg50
I0
sg9
I0
sg25
I0
sg26
I0
sg35
I0
sg54
I0
sg53
I0
sg8
I0
sg12
I0
sg57
I0
sg58
I0
sg23
I0
sg24
I0
sg19
I0
sg29
I0
sg28
I0
sg43
I0
sg34
I0
sg21
I0
sg42
I0
sg61
I0
sg47
I0
sg46
I0
sg22
I0
sg40
I0
sg49
I0
sg32
I0
sg59
I0
sg55
I0
sg41
I0
sg11
I0
sg20
I20
sg36
I0
sg10
I0
sg45
I0
sg60
I0
sg16
I0
sg37
I0
sg38
I0
ssg36
(dp276
g56
I0
sg39
I0
sg44
I0
sg48
I0
sg211
I0
sg100
I0
sg51
I0
sg210
I0
sg46
I0
sg197
I0
sg199
I0
sg200
I0
sg50
I0
sg94
I0
sg209
I0
sg203
I0
sg42
I0
sg206
I0
sg57
I0
sg58
I0
sg198
I0
sg76
I0
sg201
I0
sg202
I0
sg35
I0
sg43
I0
sg34
I0
sg207
I0
sg72
I0
sg47
I0
sg40
I0
sg49
I0
sg212
I0
sg59
I0
sg41
I0
sg204
I0
sg205
I0
sg36
I8
sg45
I0
sg60
I0
sg208
I0
sg37
I0
sg38
I0
ssg10
(dp277
g160
I0
sg30
I0
sg33
I0
sg52
I0
sg161
I0
sg27
I0
sg31
I0
sg13
I0
sg14
I0
sg17
I0
sg18
I0
sg15
I0
sg162
I0
sg9
I0
sg25
I0
sg26
I0
sg54
I0
sg53
I0
sg8
I0
sg12
I0
sg63
I0
sg163
I0
sg164
I0
sg23
I0
sg24
I0
sg19
I0
sg29
I0
sg28
I0
sg21
I0
sg61
I0
sg22
I0
sg165
I0
sg32
I0
sg166
I0
sg55
I0
sg62
I0
sg11
I0
sg20
I0
sg10
I4
sg16
I0
ssg45
(dp278
g56
I0
sg39
I0
sg44
I0
sg48
I0
sg42
I0
sg107
I0
sg51
I0
sg46
I4
sg92
I0
sg93
I0
sg72
I0
sg50
I0
sg94
I0
sg108
I0
sg97
I0
sg57
I0
sg58
I0
sg99
I0
sg76
I0
sg77
I0
sg78
I0
sg110
I0
sg43
I0
sg101
I0
sg102
I0
sg47
I0
sg40
I0
sg49
I0
sg84
I0
sg59
I0
sg41
I0
sg103
I0
sg104
I0
sg45
I0
sg60
I0
sg105
I0
sg38
I0
ssg60
(dp279
g175
I0
sg176
I0
sg177
I0
sg181
I0
sg107
I0
sg178
I0
sg183
I0
sg234
I0
sg92
I0
sg179
I0
sg235
I0
sg108
I0
sg236
I0
sg57
I0
sg58
I0
sg237
I0
sg109
I0
sg110
I0
sg180
I0
sg182
I0
sg184
I0
sg185
I0
sg59
I0
sg186
I0
sg238
I0
sg239
I0
sg187
I0
sg60
I0
sg240
I0
sg188
I0
ssg16
(dp280
g30
I0
sg33
I0
sg52
I0
sg27
I0
sg31
I0
sg13
I0
sg14
I0
sg17
I0
sg18
I0
sg15
I0
sg9
I0
sg25
I0
sg26
I0
sg35
I0
sg54
I0
sg53
I0
sg8
I0
sg12
I0
sg63
I0
sg169
I0
sg170
I0
sg23
I0
sg24
I0
sg19
I0
sg29
I0
sg28
I0
sg34
I0
sg21
I0
sg171
I0
sg22
I0
sg32
I0
sg172
I0
sg55
I0
sg62
I0
sg11
I0
sg20
I0
sg36
I0
sg10
I0
sg16
I4
sg37
I0
ssg37
(dp281
g56
I0
sg39
I0
sg44
I0
sg48
I0
sg211
I0
sg107
I0
sg110
I0
sg51
I0
sg210
I0
sg46
I0
sg197
I0
sg199
I0
sg200
I0
sg50
I0
sg94
I0
sg209
I0
sg203
I0
sg42
I0
sg108
I0
sg206
I0
sg57
I0
sg58
I0
sg198
I0
sg76
I0
sg201
I0
sg202
I0
sg35
I0
sg43
I0
sg34
I0
sg207
I0
sg72
I0
sg47
I0
sg40
I0
sg49
I0
sg212
I0
sg59
I0
sg41
I0
sg204
I0
sg205
I0
sg36
I0
sg45
I0
sg60
I0
sg208
I0
sg37
I4
sg38
I4
ssg38
(dp282
g39
I0
sg44
I0
sg48
I0
sg42
I0
sg107
I0
sg51
I0
sg46
I0
sg93
I0
sg92
I0
sg50
I0
sg94
I0
sg108
I0
sg97
I0
sg57
I0
sg58
I0
sg99
I0
sg109
I0
sg110
I0
sg43
I0
sg101
I0
sg102
I0
sg47
I0
sg40
I0
sg49
I0
sg59
I0
sg41
I0
sg103
I0
sg104
I0
sg45
I0
sg60
I0
sg105
I0
sg38
I0
sssb.