ccopy_reg
_reconstructor
p0
(cutils.eval
ConfusionMatrix
p1
c__builtin__
object
p2
Ntp3
Rp4
(dp5
S'labels'
p6
(lp7
S'put.v.01'
p8
aS'onion.n.01'
p9
aS'onion.n.03'
p10
aS'beef.n.02'
p11
aS'plate.n.04'
p12
aS'plate.n.11'
p13
aS'cake.n.03'
p14
aS'patty.n.01'
p15
aS'whipped_cream.n.01'
p16
aS'pan.n.03'
p17
aS'chicken.n.01'
p18
aS'opening.n.01'
p19
aS'gap.n.03'
p20
aS'fill.v.09'
p21
aS'fill.v.01'
p22
aS'batter.n.02'
p23
aS'cut.v.01'
p24
aS'meat.n.01'
p25
aS'cleaver.n.01'
p26
aS'flesh.n.01'
p27
aS'pulp.n.02'
p28
aS'slice.v.03'
p29
aS'bread.n.01'
p30
aS'knife.n.01'
p31
aS'knife.n.02'
p32
aS'bacon.n.01'
p33
asS'instanceCount'
p34
I23
sS'matrix'
p35
(dp36
g13
(dp37
g13
I0
ssg18
(dp38
S'chicken.n.01'
p39
I1
ssg11
(dp40
S'beef.n.02'
p41
I1
ssg30
(dp42
S'bread.n.01'
p43
I1
ssg23
(dp44
S'batter.n.02'
p45
I1
ssg22
(dp46
g22
I0
ssg17
(dp47
S'pan.n.03'
p48
I1
ssg24
(dp49
S'cut.v.01'
p50
I3
ssg20
(dp51
g20
I0
ssg21
(dp52
g22
I1
ssg33
(dp53
S'bacon.n.01'
p54
I1
ssg15
(dp55
g15
I0
ssg25
(dp56
S'meat.n.01'
p57
I1
ssg26
(dp58
S'cleaver.n.01'
p59
I1
ssg29
(dp60
S'slice.v.03'
p61
I1
ssg31
(dp62
g32
I1
ssg32
(dp63
g32
I0
ssg12
(dp64
g13
I1
ssg16
(dp65
S'whipped_cream.n.01'
p66
I1
ssg19
(dp67
g20
I1
ssg27
(dp68
g28
I1
ssg8
(dp69
S'put.v.01'
p70
I3
ssg14
(dp71
g15
I1
ssg10
(dp72
g10
I0
ssg9
(dp73
g10
I1
ssg28
(dp74
g28
I0
sssb.