ccopy_reg
_reconstructor
p0
(cutils.eval
ConfusionMatrix
p1
c__builtin__
object
p2
Ntp3
Rp4
(dp5
S'labels'
p6
(lp7
S'put.v.01'
p8
aS'put.v.02'
p9
aS'oven.n.01'
p10
aS'lodge.v.02'
p11
aS'stick.v.08'
p12
aS'pizza.n.01'
p13
aS'pan.n.01'
p14
aS'pan.n.03'
p15
aS'ice.n.01'
p16
aS'ice.n.05'
p17
aS'fill.v.01'
p18
aS'bowl.n.01'
p19
aS'blend.v.01'
p20
aS'bowl.n.08'
p21
aS'blend.v.03'
p22
aS'mix.v.05'
p23
aS'avocado.n.01'
p24
asS'instanceCount'
p25
I13
sS'matrix'
p26
(dp27
g14
(dp28
g15
I1
ssg15
(dp29
g15
I0
ssg21
(dp30
g21
I0
ssg22
(dp31
g23
I1
ssg20
(dp32
S'blend.v.01'
p33
I1
ssg11
(dp34
g12
I1
ssg9
(dp35
g9
I0
ssg8
(dp36
g9
I2
ssg13
(dp37
S'pizza.n.01'
p38
I1
ssg16
(dp39
g17
I1
ssg24
(dp40
S'avocado.n.01'
p41
I1
ssg19
(dp42
S'bowl.n.01'
p43
I1
sg21
I1
ssg10
(dp44
S'oven.n.01'
p45
I1
ssg23
(dp46
g23
I0
ssg12
(dp47
g12
I0
ssg17
(dp48
g17
I0
ssg18
(dp49
S'fill.v.01'
p50
I1
sssb.