ccopy_reg
_reconstructor
p0
(cutils.eval
ConfusionMatrix
p1
c__builtin__
object
p2
Ntp3
Rp4
(dp5
S'labels'
p6
(lp7
S'add.v.01'
p8
aS'lend.v.01'
p9
aS'cover.v.01'
p10
aS'cover.v.16'
p11
aS'rib.n.03'
p12
aS'rib.n.01'
p13
aS'cheese.n.01'
p14
aS'slice.v.03'
p15
aS'fill.v.01'
p16
aS'bottle.n.01'
p17
aS'fruit_juice.n.01'
p18
aS'glass.n.02'
p19
aS'milk.n.01'
p20
asS'instanceCount'
p21
I11
sS'matrix'
p22
(dp23
g14
(dp24
S'cheese.n.01'
p25
I1
ssg18
(dp26
S'fruit_juice.n.01'
p27
I1
ssg10
(dp28
g11
I1
ssg15
(dp29
S'slice.v.03'
p30
I1
ssg12
(dp31
g13
I1
ssg13
(dp32
g13
I0
ssg16
(dp33
S'fill.v.01'
p34
I2
ssg17
(dp35
S'bottle.n.01'
p36
I1
ssg11
(dp37
g11
I0
ssg9
(dp38
g9
I0
ssg8
(dp39
g9
I1
ssg20
(dp40
S'milk.n.01'
p41
I1
ssg19
(dp42
S'glass.n.02'
p43
I1
sssb.