ccopy_reg
_reconstructor
p0
(cutils.eval
ConfusionMatrix
p1
c__builtin__
object
p2
Ntp3
Rp4
(dp5
S'labels'
p6
(lp7
S'pepper.n.03'
p8
aS'salt.n.02'
p9
aS'salt.n.04'
p10
aS'egg.n.02'
p11
aS'egg.n.01'
p12
aS'liquid.n.01'
p13
aS'pour.v.01'
p14
aS'sink.n.01'
p15
aS'cesspool.n.01'
p16
aS'bread.n.01'
p17
aS'pan.n.01'
p18
aS'mix.n.03'
p19
aS'fill.v.01'
p20
aS'pan.n.03'
p21
aS'water.n.06'
p22
asS'instanceCount'
p23
I13
sS'matrix'
p24
(dp25
g18
(dp26
S'pan.n.01'
p27
I1
sg21
I1
ssg9
(dp28
g10
I1
ssg21
(dp29
g21
I0
ssg15
(dp30
g16
I1
ssg10
(dp31
g10
I0
ssg11
(dp32
g12
I1
ssg12
(dp33
g12
I0
ssg22
(dp34
S'water.n.06'
p35
I1
ssg8
(dp36
S'pepper.n.03'
p37
I1
ssg17
(dp38
S'bread.n.01'
p39
I1
ssg14
(dp40
S'pour.v.01'
p41
I2
ssg19
(dp42
S'mix.n.03'
p43
I1
ssg13
(dp44
S'liquid.n.01'
p45
I1
ssg20
(dp46
S'fill.v.01'
p47
I1
ssg16
(dp48
g16
I0
sssb.