ccopy_reg
_reconstructor
p0
(cutils.eval
ConfusionMatrix
p1
c__builtin__
object
p2
Ntp3
Rp4
(dp5
S'labels'
p6
(lp7
S'bread.n.01'
p8
aS'piece.n.08'
p9
aS'slice.n.06'
p10
aS'olive_oil.n.01'
p11
aS'fill.v.01'
p12
aS'measuring_cup.n.01'
p13
aS'meal.n.03'
p14
aS'serve.v.05'
p15
aS'serve.v.11'
p16
aS'cut.v.01'
p17
aS'edit.v.03'
p18
asS'instanceCount'
p19
I9
sS'matrix'
p20
(dp21
g17
(dp22
g18
I1
ssg18
(dp23
g18
I0
ssg10
(dp24
g10
I0
ssg12
(dp25
S'fill.v.01'
p26
I1
ssg16
(dp27
g16
I0
ssg15
(dp28
g16
I1
ssg11
(dp29
S'olive_oil.n.01'
p30
I1
ssg13
(dp31
S'measuring_cup.n.01'
p32
I1
ssg9
(dp33
g10
I2
ssg8
(dp34
S'bread.n.01'
p35
I1
ssg14
(dp36
S'meal.n.03'
p37
I1
sssb.