ccopy_reg
_reconstructor
p0
(cutils.eval
ConfusionMatrix
p1
c__builtin__
object
p2
Ntp3
Rp4
(dp5
S'labels'
p6
(lp7
S'put.v.01'
p8
aS'pepper.n.03'
p9
aS'salt.n.02'
p10
aS'salt.n.04'
p11
aS'egg.n.02'
p12
aS'egg.n.01'
p13
aS'onion.n.01'
p14
aS'onion.n.03'
p15
aS'beef.n.02'
p16
aS'gripe.n.01'
p17
aS'plate.n.04'
p18
aS'plate.n.13'
p19
aS'coca_cola.n.01'
p20
aS'coke.n.01'
p21
aS'electric_refrigerator.n.01'
p22
aS'salmon.n.03'
p23
aS'dressing.n.01'
p24
aS'dressing.n.04'
p25
aS'salad.n.01'
p26
aS'dish.n.02'
p27
aS'oven.n.01'
p28
aS'mug.n.04'
p29
aS'microwave.n.02'
p30
aS'microwave.n.01'
p31
aS'soup.n.01'
p32
aS'cake.n.03'
p33
aS'patty.n.01'
p34
aS'whipped_cream.n.01'
p35
aS'french_fries.n.01'
p36
aS'jam.n.01'
p37
aS'refrigerator.n.01'
p38
aS'spread.n.05'
p39
aS'paste.n.03'
p40
aS'bread.n.01'
p41
aS'steak.n.01'
p42
aS'pan.n.03'
p43
aS'chicken.n.01'
p44
asS'instanceCount'
p45
I43
sS'matrix'
p46
(dp47
g19
(dp48
g19
I0
ssg21
(dp49
g21
I0
ssg44
(dp50
S'chicken.n.01'
p51
I1
ssg16
(dp52
g17
I1
ssg32
(dp53
S'soup.n.01'
p54
I1
ssg34
(dp55
g34
I0
ssg41
(dp56
S'bread.n.01'
p57
I1
ssg27
(dp58
S'dish.n.02'
p59
I1
ssg20
(dp60
g21
I1
ssg23
(dp61
S'salmon.n.03'
p62
I1
ssg43
(dp63
S'pan.n.03'
p64
I1
ssg31
(dp65
g31
I0
ssg30
(dp66
g31
I1
sS'microwave.n.02'
p67
I1
ssg12
(dp68
g13
I1
ssg13
(dp69
g13
I0
ssg22
(dp70
S'electric_refrigerator.n.01'
p71
I1
ssg10
(dp72
g11
I1
ssg11
(dp73
g11
I0
ssg18
(dp74
g19
I2
ssg38
(dp75
S'refrigerator.n.01'
p76
I1
ssg9
(dp77
S'pepper.n.03'
p78
I1
ssg39
(dp79
g40
I1
ssg35
(dp80
S'whipped_cream.n.01'
p81
I1
ssg28
(dp82
S'oven.n.01'
p83
I2
ssg17
(dp84
g17
I0
ssg40
(dp85
g40
I0
ssg29
(dp86
S'mug.n.04'
p87
I1
ssg14
(dp88
g15
I1
ssg25
(dp89
g25
I0
ssg37
(dp90
S'jam.n.01'
p91
I1
ssg8
(dp92
S'put.v.01'
p93
I14
ssg24
(dp94
g25
I1
ssg42
(dp95
S'steak.n.01'
p96
I1
ssg33
(dp97
g34
I1
ssg36
(dp98
S'french_fries.n.01'
p99
I1
ssg26
(dp100
S'salad.n.01'
p101
I1
ssg15
(dp102
g15
I0
sssb.