ccopy_reg
_reconstructor
p0
(cutils.eval
ConfusionMatrix
p1
c__builtin__
object
p2
Ntp3
Rp4
(dp5
S'labels'
p6
(lp7
S'put.v.01'
p8
aS'cake.n.03'
p9
aS'patty.n.01'
p10
aS'whipped_cream.n.01'
p11
aS'french_fries.n.01'
p12
aS'jam.n.01'
p13
aS'refrigerator.n.01'
p14
aS'spread.n.05'
p15
aS'bread.n.01'
p16
aS'boodle.n.01'
p17
aS'steak.n.01'
p18
aS'oven.n.01'
p19
aS'pan.n.03'
p20
aS'chicken.n.01'
p21
aS'bowl.n.01'
p22
aS'bowl.n.03'
p23
aS'cherry.n.03'
p24
aS'rib.n.03'
p25
aS'rib.n.06'
p26
aS'salt.n.02'
p27
aS'rice.n.01'
p28
aS'spoon.n.01'
p29
aS'batter.n.02'
p30
aS'pizza.n.01'
p31
aS'blender.n.01'
p32
aS'banana.n.02'
p33
aS'pepper.n.03'
p34
aS'capsicum.n.01'
p35
aS'salt.n.04'
p36
aS'egg.n.02'
p37
aS'onion.n.01'
p38
aS'onion.n.03'
p39
aS'beef.n.02'
p40
aS'gripe.n.01'
p41
aS'plate.n.04'
p42
asS'instanceCount'
p43
I43
sS'matrix'
p44
(dp45
g28
(dp46
S'rice.n.01'
p47
I1
ssg21
(dp48
S'chicken.n.01'
p49
I1
ssg40
(dp50
g41
I1
ssg14
(dp51
S'refrigerator.n.01'
p52
I1
ssg16
(dp53
g17
I1
ssg23
(dp54
g23
I0
ssg22
(dp55
g23
I2
ssg30
(dp56
S'batter.n.02'
p57
I1
ssg20
(dp58
S'pan.n.03'
p59
I2
ssg37
(dp60
S'egg.n.02'
p61
I1
ssg10
(dp62
g10
I0
ssg29
(dp63
S'spoon.n.01'
p64
I1
ssg35
(dp65
g35
I0
ssg42
(dp66
S'plate.n.04'
p67
I1
ssg27
(dp68
S'salt.n.02'
p69
I1
sg36
I1
ssg33
(dp70
S'banana.n.02'
p71
I1
ssg36
(dp72
g36
I0
ssg25
(dp73
g26
I1
ssg26
(dp74
g26
I0
ssg34
(dp75
g35
I1
ssg17
(dp76
g17
I0
ssg11
(dp77
S'whipped_cream.n.01'
p78
I1
ssg19
(dp79
S'oven.n.01'
p80
I1
ssg41
(dp81
g41
I0
ssg15
(dp82
S'spread.n.05'
p83
I1
ssg32
(dp84
S'blender.n.01'
p85
I1
ssg13
(dp86
S'jam.n.01'
p87
I1
ssg8
(dp88
S'put.v.01'
p89
I14
ssg31
(dp90
S'pizza.n.01'
p91
I1
ssg18
(dp92
S'steak.n.01'
p93
I1
ssg9
(dp94
g10
I1
ssg12
(dp95
S'french_fries.n.01'
p96
I1
ssg24
(dp97
S'cherry.n.03'
p98
I1
ssg38
(dp99
g39
I1
ssg39
(dp100
g39
I0
sssb.