ccopy_reg
_reconstructor
p0
(cutils.eval
ConfusionMatrix
p1
c__builtin__
object
p2
Ntp3
Rp4
(dp5
S'labels'
p6
(lp7
S'cut.v.01'
p8
aS'knife.n.01'
p9
aS'knife.n.02'
p10
aS'green_onion.n.01'
p11
aS'cheese.n.01'
p12
aS'egg.n.02'
p13
aS'piece.n.08'
p14
aS'fork.n.01'
p15
aS'crotch.n.02'
p16
aS'cake.n.03'
p17
aS'patty.n.01'
p18
aS'lemon.n.01'
p19
aS'mushroom.n.05'
p20
aS'mushroom.n.03'
p21
aS'vegetable.n.01'
p22
aS'cabbage.n.01'
p23
aS'cabbage.n.03'
p24
aS'flesh.n.01'
p25
aS'pulp.n.02'
p26
aS'bacon.n.01'
p27
aS'bacon.n.02'
p28
aS'orange.n.01'
p29
aS'potato.n.01'
p30
aS'banana.n.02'
p31
aS'meat.n.01'
p32
aS'kernel.n.01'
p33
aS'cleaver.n.01'
p34
aS'helicopter.n.01'
p35
aS'zucchini.n.01'
p36
aS'bread.n.01'
p37
aS'tomato.n.01'
p38
aS'tomato.n.02'
p39
asS'instanceCount'
p40
I46
sS'matrix'
p41
(dp42
g20
(dp43
g21
I1
ssg12
(dp44
S'cheese.n.01'
p45
I1
ssg21
(dp46
g21
I0
ssg33
(dp47
g33
I0
ssg37
(dp48
S'bread.n.01'
p49
I1
ssg29
(dp50
S'orange.n.01'
p51
I1
ssg16
(dp52
g16
I0
ssg36
(dp53
S'zucchini.n.01'
p54
I1
ssg23
(dp55
g24
I1
ssg11
(dp56
S'green_onion.n.01'
p57
I1
ssg8
(dp58
S'cut.v.01'
p59
I18
ssg31
(dp60
S'banana.n.02'
p61
I1
ssg13
(dp62
S'egg.n.02'
p63
I1
ssg38
(dp64
g39
I1
ssg28
(dp65
g28
I0
ssg27
(dp66
g28
I1
ssg18
(dp67
g18
I0
ssg32
(dp68
g33
I1
ssg30
(dp69
S'potato.n.01'
p70
I1
ssg34
(dp71
g35
I1
ssg9
(dp72
g10
I5
ssg24
(dp73
g24
I0
ssg10
(dp74
g10
I0
ssg15
(dp75
g16
I1
ssg14
(dp76
S'piece.n.08'
p77
I3
ssg22
(dp78
S'vegetable.n.01'
p79
I1
ssg25
(dp80
g26
I1
ssg35
(dp81
g35
I0
ssg17
(dp82
g18
I1
ssg19
(dp83
S'lemon.n.01'
p84
I2
ssg39
(dp85
g39
I0
ssg26
(dp86
g26
I0
sssb.