ccopy_reg
_reconstructor
p0
(cutils.eval
ConfusionMatrix
p1
c__builtin__
object
p2
Ntp3
Rp4
(dp5
S'labels'
p6
(lp7
S'cut.v.01'
p8
aS'lemon.n.01'
p9
aS'lemon.n.05'
p10
aS'mushroom.n.05'
p11
aS'vegetable.n.01'
p12
aS'knife.n.01'
p13
aS'knife.n.02'
p14
aS'cabbage.n.01'
p15
aS'flesh.n.01'
p16
aS'human_body.n.01'
p17
aS'bacon.n.01'
p18
aS'piece.n.08'
p19
aS'orange.n.01'
p20
aS'potato.n.01'
p21
aS'banana.n.02'
p22
aS'meat.n.01'
p23
aS'cleaver.n.01'
p24
aS'helicopter.n.01'
p25
aS'zucchini.n.01'
p26
aS'zucchini.n.02'
p27
aS'bread.n.01'
p28
aS'tomato.n.01'
p29
aS'olive.n.01'
p30
aS'olive.n.04'
p31
aS'pizza.n.01'
p32
aS'green_onion.n.01'
p33
aS'cheese.n.01'
p34
aS'pulp.n.02'
p35
aS'slice.n.05'
p36
aS'egg.n.02'
p37
aS'fork.n.01'
p38
aS'fork.n.04'
p39
aS'cake.n.03'
p40
aS'tongue.n.03'
p41
aS'chop.n.05'
p42
aS'crotch.n.02'
p43
aS'slice.n.06'
p44
aS'chopper.n.02'
p45
aS'olive.n.03'
p46
aS'testis.n.01'
p47
aS'tomato.n.02'
p48
aS'olive.n.02'
p49
aS'tall_mallow.n.01'
p50
aS'mushroom.n.03'
p51
aS'cabbage.n.03'
p52
aS'bacon.n.02'
p53
aS'patty.n.01'
p54
aS'kernel.n.01'
p55
asS'instanceCount'
p56
I459
sS'matrix'
p57
(dp58
g11
(dp59
g11
I7
sg34
I0
sg51
I2
sg55
I0
sg28
I0
sg20
I0
sg27
I0
sg43
I0
sg26
I0
sg15
I0
sg33
I0
sS'slice.n.05'
p60
I0
sg42
I0
sg8
I0
sg52
I0
sS'egg.n.02'
p61
I0
sg29
I0
sg31
I0
sg47
I0
sg53
I0
sg18
I0
sg54
I0
sg24
I0
sg21
I0
sg23
I0
sg46
I0
sg49
I0
sg30
I0
sg45
I0
sg13
I0
sg41
I0
sg22
I0
sg14
I0
sS'fork.n.04'
p62
I0
sS'fork.n.01'
p63
I0
sg17
I0
sg19
I0
sg50
I0
sg12
I0
sg16
I0
sg25
I0
sg44
I0
sg32
I0
sg10
I0
sS'cake.n.03'
p64
I0
sg9
I0
sg48
I0
sS'pulp.n.02'
p65
I0
ssg34
(dp66
g11
I0
sg34
I8
sg51
I0
sg55
I0
sg28
I0
sg20
I0
sg27
I0
sg43
I0
sg26
I0
sg15
I0
sg33
I0
sg36
I0
sg42
I0
sg8
I0
sg52
I0
sg37
I0
sg29
I0
sg31
I0
sg47
I0
sg53
I0
sg18
I0
sg54
I0
sg24
I0
sg21
I0
sg23
I0
sg46
I0
sg49
I0
sg30
I0
sg45
I0
sg13
I0
sg41
I0
sg22
I0
sg14
I0
sg39
I0
sg38
I0
sg17
I0
sg19
I0
sg50
I1
sg12
I0
sg16
I0
sg25
I0
sS'slice.n.06'
p67
I0
sg32
I0
sg10
I0
sg40
I0
sg9
I0
sg48
I0
sg35
I0
ssg51
(dp68
S'mushroom.n.05'
p69
I0
sS'cheese.n.01'
p70
I0
sg51
I0
sg55
I0
sS'bread.n.01'
p71
I0
sS'orange.n.01'
p72
I0
sS'crotch.n.02'
p73
I0
sS'zucchini.n.01'
p74
I0
sS'cabbage.n.01'
p75
I0
sS'green_onion.n.01'
p76
I0
sS'cut.v.01'
p77
I0
sS'banana.n.02'
p78
I0
sg48
I0
sS'tomato.n.01'
p79
I0
sg53
I0
sS'bacon.n.01'
p80
I0
sg54
I0
sS'meat.n.01'
p81
I0
sS'potato.n.01'
p82
I0
sS'cleaver.n.01'
p83
I0
sg49
I0
sS'olive.n.01'
p84
I0
sS'knife.n.01'
p85
I0
sg52
I0
sS'knife.n.02'
p86
I0
sS'fork.n.04'
p87
I0
sS'fork.n.01'
p88
I0
sS'human_body.n.01'
p89
I0
sS'piece.n.08'
p90
I0
sg50
I0
sS'vegetable.n.01'
p91
I0
sS'flesh.n.01'
p92
I0
sS'helicopter.n.01'
p93
I0
sS'slice.n.06'
p94
I0
sS'pizza.n.01'
p95
I0
sS'lemon.n.05'
p96
I0
sS'cake.n.03'
p97
I0
sS'lemon.n.01'
p98
I0
sS'egg.n.02'
p99
I0
sS'pulp.n.02'
p100
I0
ssg55
(dp101
S'mushroom.n.05'
p102
I0
sS'cheese.n.01'
p103
I0
sS'mushroom.n.03'
p104
I0
sg55
I0
sg71
I0
sS'orange.n.01'
p105
I0
sg73
I0
sg74
I0
sS'cabbage.n.01'
p106
I0
sS'green_onion.n.01'
p107
I0
sS'cut.v.01'
p108
I0
sS'banana.n.02'
p109
I0
sS'egg.n.02'
p110
I0
sS'tomato.n.01'
p111
I0
sS'bacon.n.02'
p112
I0
sS'bacon.n.01'
p113
I0
sg54
I0
sS'meat.n.01'
p114
I0
sS'potato.n.01'
p115
I0
sS'cleaver.n.01'
p116
I0
sS'knife.n.01'
p117
I0
sS'cabbage.n.03'
p118
I0
sg86
I0
sS'fork.n.01'
p119
I0
sS'piece.n.08'
p120
I0
sS'vegetable.n.01'
p121
I0
sS'flesh.n.01'
p122
I0
sg93
I0
sS'cake.n.03'
p123
I0
sS'lemon.n.01'
p124
I0
sS'tomato.n.02'
p125
I0
sg100
I0
ssg28
(dp126
g11
I0
sg34
I0
sg104
I0
sg55
I0
sg28
I9
sg20
I0
sg27
I0
sg43
I0
sg26
I0
sg15
I0
sg33
I0
sg36
I0
sg42
I0
sg8
I0
sg118
I0
sg37
I0
sg29
I0
sg31
I0
sg47
I0
sg112
I0
sg18
I0
sg54
I0
sg24
I0
sg21
I0
sg23
I0
sg46
I0
sg30
I0
sg45
I0
sg13
I0
sg41
I0
sg22
I0
sg14
I0
sg39
I0
sg38
I0
sg17
I0
sg19
I0
sg12
I0
sg16
I0
sg25
I0
sg44
I0
sg32
I0
sg10
I0
sg40
I0
sg9
I0
sg125
I0
sg35
I0
ssg20
(dp127
g11
I0
sg34
I0
sg51
I0
sg55
I0
sg28
I0
sg20
I9
sg27
I0
sS'crotch.n.02'
p128
I0
sg26
I0
sg15
I0
sg33
I0
sg36
I0
sg8
I0
sg52
I0
sg37
I0
sg29
I0
sg31
I0
sg47
I0
sg53
I0
sg18
I0
sg54
I0
sg24
I0
sg21
I0
sg23
I0
sg46
I0
sg49
I0
sg30
I0
sg45
I0
sg13
I0
sg22
I0
sg14
I0
sg39
I0
sg38
I0
sg17
I0
sg19
I0
sg50
I0
sg12
I0
sg16
I0
sg25
I0
sg44
I0
sg32
I0
sg10
I0
sg40
I0
sg9
I0
sg48
I0
sg35
I0
ssg27
(dp129
g11
I0
sg34
I0
sg28
I0
sg20
I0
sg27
I0
sg43
I0
sg26
I0
sg15
I0
sg33
I0
sg36
I0
sg42
I0
sg8
I0
sg37
I0
sg29
I0
sg31
I0
sg47
I0
sg18
I0
sg24
I0
sg21
I0
sg23
I0
sg46
I0
sg30
I0
sg45
I0
sg13
I0
sg41
I0
sg22
I0
sg14
I0
sg39
I0
sg38
I0
sg17
I0
sg19
I0
sg12
I0
sg16
I0
sg25
I0
sg44
I0
sg32
I0
sg10
I0
sg40
I0
sg9
I0
sg35
I0
ssg43
(dp130
S'mushroom.n.05'
p131
I0
sS'cheese.n.01'
p132
I0
sg104
I0
sg55
I0
sS'bread.n.01'
p133
I0
sS'orange.n.01'
p134
I0
sS'zucchini.n.02'
p135
I0
sS'bacon.n.01'
p136
I0
sS'zucchini.n.01'
p137
I0
sS'cabbage.n.01'
p138
I0
sS'green_onion.n.01'
p139
I0
sg60
I0
sS'piece.n.08'
p140
I0
sS'cut.v.01'
p141
I0
sg118
I0
sg61
I0
sS'tomato.n.01'
p142
I0
sS'knife.n.02'
p143
I0
sg47
I0
sg112
I0
sg43
I0
sg54
I0
sS'meat.n.01'
p144
I0
sS'potato.n.01'
p145
I0
sS'cleaver.n.01'
p146
I0
sg46
I0
sS'olive.n.01'
p147
I0
sg45
I0
sS'knife.n.01'
p148
I0
sg41
I0
sS'banana.n.02'
p149
I0
sS'olive.n.04'
p150
I0
sg63
I0
sS'human_body.n.01'
p151
I0
sg42
I0
sS'vegetable.n.01'
p152
I0
sS'flesh.n.01'
p153
I0
sg93
I0
sS'pizza.n.01'
p154
I0
sg64
I0
sS'lemon.n.01'
p155
I0
sg125
I0
sg100
I0
ssg26
(dp156
g11
I0
sg34
I0
sg104
I0
sg55
I0
sg28
I0
sg20
I0
sg27
I8
sg43
I0
sg26
I1
sg15
I0
sg33
I0
sg36
I0
sg42
I0
sg8
I0
sg118
I0
sg37
I0
sg29
I0
sg31
I0
sg47
I0
sg112
I0
sg18
I0
sg54
I0
sg24
I0
sg21
I0
sg23
I0
sg46
I0
sg30
I0
sg45
I0
sg13
I0
sg41
I0
sg22
I0
sg14
I0
sg39
I0
sg38
I0
sg17
I0
sg19
I0
sg12
I0
sg16
I0
sg25
I0
sg44
I0
sg32
I0
sg10
I0
sg40
I0
sg9
I0
sg125
I0
sg35
I0
ssg15
(dp157
g11
I0
sg34
I0
sg51
I0
sg55
I0
sg28
I0
sg20
I0
sg27
I0
sg43
I0
sg26
I0
sg13
I0
sg33
I0
sg36
I0
sg42
I0
sg8
I0
sg52
I2
sg37
I0
sg29
I0
sg31
I0
sg47
I0
sg53
I0
sg18
I0
sg54
I0
sg24
I0
sg21
I0
sg23
I0
sg46
I0
sg49
I0
sg30
I0
sg45
I0
sg15
I7
sg41
I0
sg22
I0
sg14
I0
sg39
I0
sg38
I0
sg17
I0
sg19
I0
sg50
I0
sg12
I0
sg16
I0
sg25
I0
sg44
I0
sg32
I0
sg10
I0
sg40
I0
sg9
I0
sg48
I0
sg35
I0
ssg33
(dp158
g11
I0
sg34
I0
sg51
I0
sg55
I0
sg28
I0
sg20
I0
sg27
I0
sg43
I0
sg26
I0
sg15
I0
sg33
I9
sg36
I0
sg42
I0
sg8
I0
sg52
I0
sg37
I0
sg29
I0
sg31
I0
sg47
I0
sg53
I0
sg18
I0
sg54
I0
sg24
I0
sg21
I0
sg23
I0
sg46
I0
sg49
I0
sg30
I0
sg45
I0
sg13
I0
sg41
I0
sg22
I0
sg14
I0
sg39
I0
sg38
I0
sg17
I0
sg19
I0
sg50
I0
sg12
I0
sg16
I0
sg25
I0
sg67
I0
sg32
I0
sg10
I0
sg40
I0
sg9
I0
sg48
I0
sg35
I0
ssg36
(dp159
S'mushroom.n.05'
p160
I0
sS'cheese.n.01'
p161
I0
sS'bread.n.01'
p162
I0
sS'orange.n.01'
p163
I0
sS'zucchini.n.02'
p164
I0
sg128
I0
sS'zucchini.n.01'
p165
I0
sS'knife.n.01'
p166
I0
sS'green_onion.n.01'
p167
I0
sS'pizza.n.01'
p168
I0
sS'cut.v.01'
p169
I0
sg37
I0
sS'tomato.n.01'
p170
I0
sS'olive.n.04'
p171
I0
sg47
I0
sS'bacon.n.01'
p172
I0
sS'meat.n.01'
p173
I0
sS'potato.n.01'
p174
I0
sS'cleaver.n.01'
p175
I0
sg46
I0
sS'olive.n.01'
p176
I0
sg45
I0
sS'cabbage.n.01'
p177
I0
sS'banana.n.02'
p178
I0
sS'knife.n.02'
p179
I0
sg39
I0
sg38
I0
sS'piece.n.08'
p180
I0
sS'vegetable.n.01'
p181
I0
sS'flesh.n.01'
p182
I0
sS'helicopter.n.01'
p183
I0
sg36
I0
sg40
I0
sS'lemon.n.01'
p184
I0
sg35
I0
ssg42
(dp185
g131
I0
sg132
I0
sg133
I0
sg135
I0
sg136
I0
sg137
I0
sg138
I0
sg139
I0
sg140
I0
sg141
I0
sg61
I0
sg142
I0
sg43
I0
sg144
I0
sg146
I0
sg147
I0
sg148
I0
sg41
I0
sg149
I0
sg150
I0
sg63
I0
sg151
I0
sg42
I0
sg152
I0
sg153
I0
sg154
I0
sg64
I0
sg155
I0
ssg8
(dp186
g11
I0
sg34
I0
sg51
I0
sg55
I0
sg28
I0
sg20
I0
sg27
I0
sg43
I0
sg26
I0
sg15
I0
sg33
I0
sg36
I0
sg42
I0
sg8
I180
sg52
I0
sg37
I0
sg29
I0
sg31
I0
sg47
I0
sg53
I0
sg18
I0
sg54
I0
sg24
I0
sg21
I0
sg23
I0
sg46
I0
sg49
I0
sg30
I0
sg45
I0
sg13
I0
sg41
I0
sg22
I0
sg14
I0
sg39
I0
sg38
I0
sg17
I0
sg19
I0
sg50
I0
sg12
I0
sg16
I0
sg25
I0
sg44
I0
sg32
I0
sg10
I0
sg40
I0
sg9
I0
sg48
I0
sg35
I0
ssg52
(dp187
g69
I0
sg70
I0
sg51
I0
sg55
I0
sg71
I0
sg72
I0
sg73
I0
sg74
I0
sg75
I0
sg76
I0
sg77
I0
sg78
I0
sg48
I0
sg79
I0
sg53
I0
sg80
I0
sg54
I0
sg81
I0
sg82
I0
sg83
I0
sg49
I0
sg84
I0
sg85
I0
sg52
I0
sg86
I0
sg87
I0
sg88
I0
sg89
I0
sg90
I0
sg50
I0
sg91
I0
sg92
I0
sg93
I0
sg94
I0
sg95
I0
sg96
I0
sg97
I0
sg98
I0
sg99
I0
sg100
I0
ssg37
(dp188
g131
I0
sg161
I0
sg51
I0
sg55
I0
sg162
I0
sg163
I0
sg164
I0
sg43
I0
sg165
I0
sg166
I0
sg167
I0
sg168
I0
sg42
I0
sg169
I0
sg52
I0
sg37
I8
sg170
I0
sg171
I0
sg47
I1
sg53
I0
sg172
I0
sg54
I0
sg173
I0
sg174
I0
sg175
I0
sg46
I0
sg49
I0
sg176
I0
sg45
I0
sg177
I0
sg41
I0
sg178
I0
sg179
I0
sg39
I0
sg38
I0
sg151
I0
sg180
I0
sg50
I0
sg181
I0
sg182
I0
sg183
I0
sg44
I0
sg36
I0
sg96
I0
sg40
I0
sg184
I0
sg48
I0
sg35
I0
ssg29
(dp189
g11
I0
sg34
I0
sg51
I0
sg55
I0
sg28
I0
sg20
I0
sg27
I0
sg43
I0
sg26
I0
sg15
I0
sg33
I0
sg36
I0
sg42
I0
sg8
I0
sg52
I0
sg37
I0
sg29
I7
sg31
I0
sg47
I0
sg53
I0
sg18
I0
sg54
I0
sg24
I0
sg21
I0
sg23
I0
sg46
I0
sg49
I0
sg30
I0
sg45
I0
sg13
I0
sg41
I0
sg22
I0
sg14
I0
sg39
I0
sg38
I0
sg17
I0
sg19
I0
sg50
I0
sg12
I0
sg16
I0
sg25
I0
sg44
I0
sg32
I0
sg10
I0
sg40
I0
sg9
I0
sg48
I2
sg35
I0
ssg31
(dp190
g11
I0
sg34
I0
sg28
I0
sg20
I0
sg27
I0
sg43
I0
sg26
I0
sg15
I0
sg33
I0
sg36
I0
sg42
I0
sg8
I0
sg37
I0
sg29
I0
sg14
I0
sg18
I0
sg24
I0
sg21
I0
sg23
I0
sg30
I0
sg13
I0
sg41
I0
sg22
I0
sg31
I0
sg39
I0
sg38
I0
sg17
I0
sg19
I0
sg12
I0
sg16
I0
sg25
I0
sg44
I0
sg32
I0
sg10
I0
sg40
I0
sg9
I0
sg35
I0
ssg47
(dp191
g160
I0
sS'cheese.n.01'
p192
I0
sS'bread.n.01'
p193
I0
sg134
I0
sS'zucchini.n.02'
p194
I0
sS'zucchini.n.01'
p195
I0
sS'cabbage.n.01'
p196
I0
sS'green_onion.n.01'
p197
I0
sg60
I0
sS'cut.v.01'
p198
I0
sS'egg.n.02'
p199
I0
sS'tomato.n.01'
p200
I0
sg47
I0
sg128
I0
sS'meat.n.01'
p201
I0
sg145
I0
sS'cleaver.n.01'
p202
I0
sg46
I0
sS'olive.n.01'
p203
I0
sg45
I0
sS'knife.n.01'
p204
I0
sS'banana.n.02'
p205
I0
sg143
I0
sS'fork.n.01'
p206
I0
sS'piece.n.08'
p207
I0
sS'vegetable.n.01'
p208
I0
sS'pizza.n.01'
p209
I0
sS'cake.n.03'
p210
I0
sS'lemon.n.01'
p211
I0
ssg53
(dp212
g69
I0
sg70
I0
sg51
I0
sg55
I0
sg71
I0
sg72
I0
sg73
I0
sg74
I0
sg75
I0
sg76
I0
sg77
I0
sg78
I0
sg48
I0
sg79
I0
sg53
I0
sg80
I0
sg54
I0
sg81
I0
sg82
I0
sg83
I0
sg49
I0
sg84
I0
sg85
I0
sg52
I0
sg86
I0
sg87
I0
sg88
I0
sg89
I0
sg90
I0
sg50
I0
sg91
I0
sg92
I0
sg93
I0
sg94
I0
sg95
I0
sg96
I0
sg97
I0
sg98
I0
sg99
I0
sg100
I0
ssg18
(dp213
g11
I0
sg34
I0
sg51
I0
sg55
I0
sg28
I0
sg20
I0
sg27
I0
sg43
I0
sg26
I0
sg15
I0
sg33
I0
sg36
I0
sg42
I0
sg8
I0
sg52
I0
sg37
I0
sg29
I0
sg31
I0
sg53
I2
sg18
I7
sg54
I0
sg24
I0
sg21
I0
sg23
I0
sS'olive.n.03'
p214
I0
sg49
I0
sg30
I0
sg13
I0
sg41
I0
sg22
I0
sg14
I0
sg39
I0
sg38
I0
sg17
I0
sg19
I0
sg50
I0
sg12
I0
sg16
I0
sg25
I0
sg44
I0
sg32
I0
sg10
I0
sg40
I0
sg9
I0
sg48
I0
sg35
I0
ssg54
(dp215
g102
I0
sg103
I0
sg104
I0
sg55
I0
sg71
I0
sg105
I0
sg73
I0
sg74
I0
sg106
I0
sg107
I0
sg108
I0
sg109
I0
sg110
I0
sg111
I0
sg112
I0
sg113
I0
sg54
I0
sg114
I0
sg115
I0
sg116
I0
sg117
I0
sg118
I0
sg86
I0
sg119
I0
sg120
I0
sg121
I0
sg122
I0
sg93
I0
sg123
I0
sg124
I0
sg125
I0
sg100
I0
ssg24
(dp216
g11
I0
sg34
I0
sg51
I0
sg55
I0
sg28
I0
sg20
I0
sg27
I0
sg43
I0
sg26
I0
sg15
I0
sg33
I0
sg36
I0
sg42
I1
sg8
I0
sg52
I0
sg37
I0
sg29
I0
sg31
I0
sg47
I0
sg53
I0
sg18
I0
sg54
I0
sg23
I0
sg21
I0
sg24
I4
sg46
I0
sg49
I0
sg30
I0
sg45
I1
sg13
I0
sg41
I0
sg22
I0
sg14
I0
sg39
I0
sg38
I0
sg17
I0
sg19
I0
sg50
I0
sg12
I0
sg16
I0
sg25
I3
sg44
I0
sg32
I0
sg10
I0
sg40
I0
sg9
I0
sg48
I0
sg35
I0
ssg21
(dp217
g11
I0
sg34
I0
sg51
I0
sg55
I0
sg28
I0
sg20
I0
sg27
I0
sg128
I0
sg26
I0
sg15
I0
sg33
I0
sg36
I0
sg8
I0
sg52
I0
sg37
I0
sg29
I0
sg31
I0
sg47
I0
sg53
I0
sg18
I0
sg54
I0
sg24
I0
sg21
I9
sg23
I0
sg46
I0
sg49
I0
sg30
I0
sg45
I0
sg13
I0
sg22
I0
sg14
I0
sg39
I0
sg38
I0
sg17
I0
sg19
I0
sg50
I0
sg12
I0
sg16
I0
sg25
I0
sg44
I0
sg32
I0
sg10
I0
sg40
I0
sg9
I0
sg48
I0
sg35
I0
ssg23
(dp218
g11
I0
sg34
I0
sg51
I0
sg55
I1
sg28
I0
sg20
I0
sg27
I0
sg43
I0
sg26
I0
sg15
I0
sg33
I0
sg36
I0
sg42
I0
sg8
I0
sg52
I0
sg37
I0
sg29
I0
sg31
I0
sg47
I0
sg53
I0
sg18
I0
sg54
I0
sg24
I0
sg21
I0
sg23
I8
sg46
I0
sg49
I0
sg30
I0
sg45
I0
sg13
I0
sg41
I0
sg22
I0
sg14
I0
sg39
I0
sg38
I0
sg17
I0
sg19
I0
sg50
I0
sg12
I0
sg16
I0
sg25
I0
sg44
I0
sg32
I0
sg10
I0
sg40
I0
sg9
I0
sg48
I0
sg35
I0
ssg46
(dp219
g160
I0
sg192
I0
sg193
I0
sg134
I0
sg194
I0
sS'bacon.n.01'
p220
I0
sg195
I0
sg196
I0
sg197
I0
sg60
I0
sg198
I0
sg199
I0
sg200
I0
sg47
I0
sg128
I0
sg201
I0
sg145
I0
sg202
I0
sg46
I0
sg203
I0
sg45
I0
sg204
I0
sg205
I0
sg143
I0
sS'fork.n.04'
p221
I0
sg206
I0
sS'human_body.n.01'
p222
I0
sg207
I0
sg208
I0
sS'flesh.n.01'
p223
I0
sS'slice.n.06'
p224
I0
sg209
I0
sg210
I0
sg211
I0
ssg49
(dp225
g69
I0
sg70
I0
sg51
I0
sg72
I0
sg75
I0
sg76
I0
sg77
I0
sg78
I0
sg48
I0
sg79
I0
sg53
I0
sg80
I0
sg81
I0
sg82
I0
sg83
I0
sg49
I0
sg84
I0
sg85
I0
sg52
I0
sg87
I0
sg88
I0
sg89
I0
sg90
I0
sg50
I0
sg91
I0
sg92
I0
sg94
I0
sg95
I0
sg96
I0
sg97
I0
sg98
I0
sg99
I0
ssg30
(dp226
g11
I0
sg34
I0
sg51
I0
sg28
I0
sg20
I0
sg27
I0
sg43
I0
sg26
I0
sg15
I0
sg33
I0
sg36
I0
sg42
I0
sg8
I0
sg52
I0
sg37
I0
sg29
I0
sg31
I6
sg47
I0
sg53
I0
sg18
I0
sg24
I0
sg21
I0
sg23
I0
sg46
I2
sg49
I1
sg30
I0
sg45
I0
sg13
I0
sg41
I0
sg22
I0
sg14
I0
sg39
I0
sg38
I0
sg17
I0
sg19
I0
sg50
I0
sg12
I0
sg16
I0
sg25
I0
sg44
I0
sg32
I0
sg10
I0
sg40
I0
sg9
I0
sg48
I0
sg35
I0
ssg45
(dp227
g160
I0
sg192
I0
sg193
I0
sg134
I0
sg194
I0
sg195
I0
sg196
I0
sg197
I0
sg60
I0
sg198
I0
sg199
I0
sg200
I0
sg47
I0
sg128
I0
sg201
I0
sg145
I0
sg202
I0
sg46
I0
sg203
I0
sg45
I0
sg204
I0
sg205
I0
sg143
I0
sg206
I0
sg207
I0
sg208
I0
sg209
I0
sg210
I0
sg211
I0
ssg13
(dp228
g11
I0
sg34
I0
sg51
I0
sg55
I0
sg28
I0
sg20
I0
sg27
I0
sg43
I0
sg26
I0
sg15
I0
sg33
I0
sg36
I0
sg42
I0
sg8
I0
sg52
I0
sg37
I0
sg29
I0
sg31
I0
sg47
I0
sg53
I0
sg18
I0
sg54
I0
sg24
I0
sg21
I0
sg23
I0
sg46
I0
sg49
I0
sg30
I0
sg45
I0
sg13
I20
sg41
I5
sg22
I0
sg14
I20
sg39
I0
sg38
I0
sg17
I0
sg19
I0
sg50
I0
sg12
I0
sg16
I0
sg25
I0
sg44
I0
sg32
I0
sg10
I0
sg40
I0
sg9
I0
sg48
I0
sg35
I0
ssg41
(dp229
g131
I0
sg132
I0
sg133
I0
sg135
I0
sg136
I0
sg137
I0
sg138
I0
sg139
I0
sg140
I0
sg141
I0
sg61
I0
sg142
I0
sg43
I0
sg146
I0
sg144
I0
sg147
I0
sg148
I0
sg41
I0
sg149
I0
sg150
I0
sg63
I0
sg151
I0
sg42
I0
sg152
I0
sg153
I0
sg154
I0
sg64
I0
sg155
I0
ssg22
(dp230
g11
I0
sg34
I0
sg51
I0
sg55
I0
sg28
I0
sg20
I0
sg27
I0
sg43
I0
sg26
I0
sg15
I0
sg33
I0
sg36
I0
sg42
I0
sg8
I0
sg52
I0
sg37
I0
sg29
I0
sg31
I0
sg47
I0
sg53
I0
sg18
I0
sg54
I0
sg24
I0
sg21
I0
sg23
I0
sg46
I0
sg49
I0
sg30
I0
sg45
I0
sg13
I0
sg41
I0
sg22
I9
sg14
I0
sg39
I0
sg38
I0
sg17
I0
sg19
I0
sg50
I0
sg12
I0
sg16
I0
sg25
I0
sg44
I0
sg32
I0
sg10
I0
sg40
I0
sg9
I0
sg48
I0
sg35
I0
ssg14
(dp231
g11
I0
sg34
I0
sg104
I0
sg55
I0
sg28
I0
sg20
I0
sg27
I0
sg128
I0
sg26
I0
sg15
I0
sg33
I0
sg36
I0
sg8
I0
sg118
I0
sg37
I0
sg29
I0
sg31
I0
sg47
I0
sg112
I0
sg18
I0
sg54
I0
sg24
I0
sg21
I0
sg23
I0
sg46
I0
sg30
I0
sg45
I0
sg13
I0
sg22
I0
sg14
I0
sg39
I0
sg38
I0
sg17
I0
sg19
I0
sg12
I0
sg16
I0
sg25
I0
sg32
I0
sg10
I0
sg40
I0
sg9
I0
sg125
I0
sg35
I0
ssg39
(dp232
S'mushroom.n.05'
p233
I0
sg161
I0
sg51
I0
sg162
I0
sg163
I0
sg164
I0
sg165
I0
sg166
I0
sg167
I0
sg168
I0
sg169
I0
sg52
I0
sg37
I0
sg170
I0
sg171
I0
sg53
I0
sg172
I0
sg173
I0
sg174
I0
sg175
I0
sg214
I0
sg49
I0
sg176
I0
sg177
I0
sg178
I0
sg179
I0
sg39
I0
sg38
I0
sS'human_body.n.01'
p234
I0
sg180
I0
sg50
I0
sg181
I0
sg182
I0
sg183
I0
sg44
I0
sg36
I0
sg96
I0
sg40
I0
sg184
I0
sg48
I0
sg35
I0
ssg38
(dp235
g131
I0
sg161
I0
sg51
I0
sg55
I0
sg162
I0
sg163
I0
sg164
I0
sg43
I3
sg165
I0
sg166
I0
sg167
I0
sg168
I0
sg42
I0
sg169
I0
sg52
I0
sg37
I0
sg170
I0
sg171
I0
sg47
I0
sg53
I0
sg172
I0
sg54
I0
sg175
I0
sg174
I0
sg173
I0
sg46
I0
sg49
I0
sg176
I0
sg45
I0
sg177
I0
sg41
I0
sg178
I0
sg179
I0
sg39
I6
sg38
I0
sg151
I0
sg180
I0
sg50
I0
sg181
I0
sg182
I0
sg183
I0
sg44
I0
sg36
I0
sg96
I0
sg40
I0
sg184
I0
sg48
I0
sg35
I0
ssg17
(dp236
g11
I0
sg34
I0
sg51
I0
sg28
I0
sg20
I0
sg27
I0
sg43
I0
sg26
I0
sg15
I0
sg33
I0
sg42
I0
sg8
I0
sg52
I0
sg61
I0
sg29
I0
sg31
I0
sg53
I0
sg18
I0
sg24
I0
sg21
I0
sg23
I0
sg214
I0
sg49
I0
sg30
I0
sg13
I0
sg41
I0
sg22
I0
sg14
I0
sg62
I0
sg63
I0
sg17
I0
sg19
I0
sg50
I0
sg12
I0
sg16
I0
sg25
I0
sg44
I0
sg32
I0
sg10
I0
sg64
I0
sg9
I0
sg48
I0
ssg19
(dp237
g11
I0
sg34
I0
sg51
I0
sg55
I0
sg28
I0
sg20
I0
sg27
I0
sg43
I0
sg26
I0
sg15
I0
sg33
I0
sg36
I8
sg42
I0
sg8
I0
sg52
I0
sg37
I0
sg29
I0
sg31
I0
sg47
I0
sg53
I0
sg18
I0
sg54
I0
sg24
I0
sg21
I0
sg23
I0
sg46
I0
sg49
I0
sg30
I0
sg45
I0
sg13
I0
sg41
I0
sg22
I0
sg14
I0
sg39
I0
sg38
I0
sg17
I0
sg19
I8
sg50
I0
sg12
I0
sg16
I0
sg25
I0
sg44
I20
sg32
I0
sg10
I0
sg40
I0
sg9
I0
sg48
I0
sg35
I0
ssg50
(dp238
g69
I0
sg70
I0
sg51
I0
sg72
I0
sg75
I0
sg76
I0
sg77
I0
sg78
I0
sg48
I0
sg79
I0
sg53
I0
sg80
I0
sg81
I0
sg82
I0
sg83
I0
sg49
I0
sg84
I0
sg85
I0
sg52
I0
sg87
I0
sg88
I0
sg89
I0
sg90
I0
sg50
I0
sg91
I0
sg92
I0
sg94
I0
sg95
I0
sg96
I0
sg97
I0
sg98
I0
sg99
I0
ssg12
(dp239
g11
I0
sg34
I0
sg51
I0
sg55
I0
sg28
I0
sg20
I0
sg27
I0
sg43
I0
sg26
I0
sg15
I0
sg33
I0
sg36
I0
sg42
I0
sg8
I0
sg52
I0
sg37
I0
sg29
I0
sg31
I0
sg47
I0
sg53
I0
sg18
I0
sg54
I0
sg24
I0
sg21
I0
sg23
I0
sg46
I0
sg49
I0
sg30
I0
sg45
I0
sg13
I0
sg41
I0
sg22
I0
sg14
I0
sg39
I0
sg38
I0
sg17
I0
sg19
I0
sg50
I0
sg12
I9
sg16
I0
sg25
I0
sg44
I0
sg32
I0
sg10
I0
sg40
I0
sg9
I0
sg48
I0
sg35
I0
ssg16
(dp240
g11
I0
sg34
I0
sg51
I0
sg55
I0
sg28
I0
sg20
I0
sg27
I0
sg43
I0
sg26
I0
sg15
I0
sg33
I0
sg36
I0
sg42
I0
sg8
I0
sg52
I0
sg37
I0
sg29
I0
sg31
I0
sg53
I0
sg18
I0
sg54
I0
sg24
I0
sg21
I0
sg23
I0
sg214
I0
sg49
I0
sg30
I0
sg13
I0
sg41
I0
sg22
I0
sg14
I0
sg39
I0
sg38
I0
sg17
I5
sg19
I0
sg50
I0
sg12
I0
sg16
I0
sg25
I0
sg44
I0
sg32
I0
sg10
I0
sg40
I0
sg9
I0
sg48
I0
sg35
I4
ssg25
(dp241
g11
I0
sg34
I0
sg104
I0
sg55
I0
sg28
I0
sg20
I0
sg27
I0
sg73
I0
sg26
I0
sg15
I0
sg33
I0
sg36
I0
sg8
I0
sg118
I0
sg37
I0
sg29
I0
sg31
I0
sg112
I0
sg18
I0
sg54
I0
sg24
I0
sg21
I0
sg23
I0
sg30
I0
sg13
I0
sg22
I0
sg14
I0
sg39
I0
sg38
I0
sg17
I0
sg19
I0
sg12
I0
sg16
I0
sg25
I0
sg32
I0
sg10
I0
sg40
I0
sg9
I0
sg125
I0
sg35
I0
ssg44
(dp242
g233
I0
sS'cheese.n.01'
p243
I0
sg51
I0
sS'bread.n.01'
p244
I0
sS'orange.n.01'
p245
I0
sS'zucchini.n.02'
p246
I0
sS'zucchini.n.01'
p247
I0
sS'cabbage.n.01'
p248
I0
sS'green_onion.n.01'
p249
I0
sS'cut.v.01'
p250
I0
sg52
I0
sS'egg.n.02'
p251
I0
sS'tomato.n.01'
p252
I0
sg53
I0
sS'bacon.n.01'
p253
I0
sS'cleaver.n.01'
p254
I0
sS'potato.n.01'
p255
I0
sS'meat.n.01'
p256
I0
sg214
I0
sg49
I0
sS'olive.n.01'
p257
I0
sS'knife.n.01'
p258
I0
sS'banana.n.02'
p259
I0
sS'olive.n.04'
p260
I0
sg62
I0
sS'fork.n.01'
p261
I0
sg234
I0
sS'piece.n.08'
p262
I0
sg50
I0
sS'vegetable.n.01'
p263
I0
sS'flesh.n.01'
p264
I0
sg44
I0
sS'pizza.n.01'
p265
I0
sg96
I0
sS'cake.n.03'
p266
I0
sS'lemon.n.01'
p267
I0
sg48
I0
sg65
I0
ssg32
(dp268
g11
I0
sg34
I0
sg51
I0
sg28
I0
sg20
I0
sg27
I0
sg43
I0
sg26
I0
sg15
I0
sg33
I0
sg36
I0
sg42
I0
sg8
I0
sg52
I0
sg37
I0
sg29
I0
sg31
I0
sg47
I0
sg53
I0
sg18
I0
sg24
I0
sg21
I0
sg23
I0
sg46
I0
sg49
I0
sg30
I0
sg45
I0
sg13
I0
sg41
I0
sg22
I0
sg14
I0
sg39
I0
sg38
I0
sg17
I0
sg19
I0
sg50
I0
sg12
I0
sg16
I0
sg25
I0
sg44
I0
sg32
I9
sg10
I0
sg40
I0
sg9
I0
sg48
I0
sg35
I0
ssg10
(dp269
g11
I0
sg34
I0
sg51
I0
sg28
I0
sg20
I0
sg27
I0
sg26
I0
sg15
I0
sg33
I0
sg8
I0
sg52
I0
sg48
I0
sg29
I0
sg31
I0
sg53
I0
sg18
I0
sg24
I0
sg21
I0
sg23
I0
sg49
I0
sg30
I0
sg13
I0
sg22
I0
sg14
I0
sg87
I0
sg88
I0
sg17
I0
sg19
I0
sg50
I0
sg12
I0
sg16
I0
sg25
I0
sg94
I0
sg32
I0
sg10
I0
sg97
I0
sg9
I0
sg99
I0
ssg40
(dp270
g131
I0
sg161
I0
sg51
I0
sg55
I0
sg162
I0
sg163
I0
sg164
I0
sg43
I0
sg165
I0
sg166
I0
sg167
I0
sg168
I0
sg42
I0
sg169
I0
sg52
I0
sg37
I0
sg170
I0
sg171
I0
sg47
I0
sg53
I0
sg172
I0
sg54
I1
sg173
I0
sg174
I0
sg175
I0
sg46
I0
sg49
I0
sg176
I0
sg45
I0
sg177
I0
sg41
I0
sg178
I0
sg179
I0
sg39
I0
sg38
I0
sg151
I0
sg180
I0
sg50
I0
sg181
I0
sg182
I0
sg183
I0
sg44
I0
sg36
I0
sg96
I0
sg40
I8
sg184
I0
sg48
I0
sg35
I0
ssg9
(dp271
g11
I0
sg34
I0
sg51
I0
sg55
I0
sg28
I0
sg20
I0
sg27
I0
sg43
I0
sg26
I0
sg15
I0
sg33
I0
sg36
I0
sg42
I0
sg8
I0
sg52
I0
sg37
I0
sg29
I0
sg31
I0
sg47
I0
sg53
I0
sg18
I0
sg54
I0
sg24
I0
sg21
I0
sg23
I0
sg46
I0
sg49
I0
sg30
I0
sg45
I0
sg13
I0
sg41
I0
sg22
I0
sg14
I0
sg39
I0
sg38
I0
sg17
I0
sg19
I0
sg50
I0
sg12
I0
sg16
I0
sg25
I0
sg44
I0
sg32
I0
sg10
I4
sg40
I0
sg9
I14
sg48
I0
sg35
I0
ssg48
(dp272
g69
I0
sg70
I0
sg51
I0
sg55
I0
sg71
I0
sg72
I0
sg73
I0
sg74
I0
sg75
I0
sg76
I0
sg77
I0
sg78
I0
sg48
I0
sg79
I0
sg53
I0
sg80
I0
sg54
I0
sg81
I0
sg82
I0
sg83
I0
sg49
I0
sg84
I0
sg85
I0
sg52
I0
sg86
I0
sg87
I0
sg88
I0
sg89
I0
sg90
I0
sg50
I0
sg91
I0
sg92
I0
sg93
I0
sg94
I0
sg95
I0
sg96
I0
sg97
I0
sg98
I0
sg99
I0
sg100
I0
ssg35
(dp273
S'mushroom.n.05'
p274
I0
sg161
I0
sg104
I0
sg55
I0
sg162
I0
sg163
I0
sg164
I0
sg73
I0
sg165
I0
sg166
I0
sg167
I0
sg168
I0
sg169
I0
sg118
I0
sg37
I0
sg170
I0
sg171
I0
sg112
I0
sg172
I0
sg54
I0
sg173
I0
sg174
I0
sg175
I0
sg176
I0
sg177
I0
sg178
I0
sg179
I0
sg39
I0
sg38
I0
sg180
I0
sg181
I0
sg182
I0
sg183
I0
sg67
I0
sg36
I0
sg40
I0
sg184
I0
sg125
I0
sg35
I0
sssb.