ccopy_reg
_reconstructor
p0
(cutils.eval
ConfusionMatrix
p1
c__builtin__
object
p2
Ntp3
Rp4
(dp5
S'labels'
p6
(lp7
S'cut.v.01'
p8
aS'knife.n.01'
p9
aS'tongue.n.03'
p10
aS'banana.n.02'
p11
aS'meat.n.01'
p12
aS'cleaver.n.01'
p13
aS'chop.n.05'
p14
aS'zucchini.n.01'
p15
aS'zucchini.n.02'
p16
aS'bread.n.01'
p17
aS'tomato.n.01'
p18
aS'lemon.n.01'
p19
aS'olive.n.01'
p20
aS'olive.n.04'
p21
aS'piece.n.08'
p22
aS'pizza.n.01'
p23
aS'green_onion.n.01'
p24
aS'cheese.n.01'
p25
aS'egg.n.02'
p26
aS'fork.n.01'
p27
aS'crotch.n.02'
p28
aS'cake.n.03'
p29
aS'mushroom.n.05'
p30
aS'vegetable.n.01'
p31
aS'cabbage.n.01'
p32
aS'flesh.n.01'
p33
aS'human_body.n.01'
p34
aS'bacon.n.01'
p35
asS'instanceCount'
p36
I45
sS'matrix'
p37
(dp38
g30
(dp39
S'mushroom.n.05'
p40
I1
ssg25
(dp41
S'cheese.n.01'
p42
I1
ssg17
(dp43
S'bread.n.01'
p44
I1
ssg16
(dp45
g16
I0
ssg35
(dp46
S'bacon.n.01'
p47
I1
ssg15
(dp48
g16
I1
ssg32
(dp49
S'cabbage.n.01'
p50
I1
ssg24
(dp51
S'green_onion.n.01'
p52
I1
ssg22
(dp53
S'piece.n.08'
p54
I2
ssg8
(dp55
S'cut.v.01'
p56
I18
ssg26
(dp57
S'egg.n.02'
p58
I1
ssg18
(dp59
S'tomato.n.01'
p60
I1
ssg28
(dp61
g28
I0
ssg13
(dp62
g14
I1
ssg12
(dp63
S'meat.n.01'
p64
I1
ssg20
(dp65
g21
I1
ssg9
(dp66
g10
I5
ssg10
(dp67
g10
I0
ssg11
(dp68
S'banana.n.02'
p69
I1
ssg21
(dp70
g21
I0
ssg27
(dp71
g28
I1
ssg34
(dp72
g34
I0
ssg14
(dp73
g14
I0
ssg31
(dp74
S'vegetable.n.01'
p75
I1
ssg33
(dp76
g34
I1
ssg23
(dp77
S'pizza.n.01'
p78
I1
ssg29
(dp79
S'cake.n.03'
p80
I1
ssg19
(dp81
S'lemon.n.01'
p82
I2
sssb.