ccopy_reg
_reconstructor
p0
(cutils.eval
ConfusionMatrix
p1
c__builtin__
object
p2
Ntp3
Rp4
(dp5
S'labels'
p6
(lp7
S'olive.n.01'
p8
aS'olive.n.04'
p9
aS'cut.v.01'
p10
aS'piece.n.08'
p11
aS'slice.n.06'
p12
aS'pizza.n.01'
p13
aS'knife.n.01'
p14
aS'green_onion.n.01'
p15
aS'cheese.n.01'
p16
aS'egg.n.02'
p17
aS'fork.n.01'
p18
aS'fork.n.04'
p19
aS'cake.n.03'
p20
aS'lemon.n.01'
p21
aS'mushroom.n.05'
p22
aS'vegetable.n.01'
p23
aS'cabbage.n.01'
p24
aS'flesh.n.01'
p25
aS'pulp.n.02'
p26
aS'bacon.n.01'
p27
aS'orange.n.01'
p28
aS'potato.n.01'
p29
aS'banana.n.02'
p30
aS'meat.n.01'
p31
aS'cleaver.n.01'
p32
aS'zucchini.n.01'
p33
aS'zucchini.n.02'
p34
aS'bread.n.01'
p35
asS'instanceCount'
p36
I46
sS'matrix'
p37
(dp38
g22
(dp39
S'mushroom.n.05'
p40
I1
ssg16
(dp41
S'cheese.n.01'
p42
I1
ssg35
(dp43
S'bread.n.01'
p44
I1
ssg28
(dp45
S'orange.n.01'
p46
I1
ssg34
(dp47
g34
I0
ssg33
(dp48
g34
I1
ssg24
(dp49
S'cabbage.n.01'
p50
I1
ssg15
(dp51
S'green_onion.n.01'
p52
I1
ssg10
(dp53
S'cut.v.01'
p54
I18
ssg17
(dp55
S'egg.n.02'
p56
I1
ssg27
(dp57
S'bacon.n.01'
p58
I1
ssg31
(dp59
S'meat.n.01'
p60
I1
ssg29
(dp61
S'potato.n.01'
p62
I1
ssg32
(dp63
S'cleaver.n.01'
p64
I1
ssg8
(dp65
g9
I1
ssg14
(dp66
S'knife.n.01'
p67
I4
ssg30
(dp68
S'banana.n.02'
p69
I1
ssg9
(dp70
g9
I0
ssg19
(dp71
g19
I0
ssg18
(dp72
g19
I1
ssg11
(dp73
g12
I4
ssg23
(dp74
S'vegetable.n.01'
p75
I1
ssg25
(dp76
g26
I1
ssg12
(dp77
g12
I0
ssg13
(dp78
S'pizza.n.01'
p79
I1
ssg20
(dp80
S'cake.n.03'
p81
I1
ssg21
(dp82
S'lemon.n.01'
p83
I1
ssg26
(dp84
g26
I0
sssb.