ccopy_reg
_reconstructor
p0
(cutils.eval
ConfusionMatrix
p1
c__builtin__
object
p2
Ntp3
Rp4
(dp5
S'labels'
p6
(lp7
S'vegetable.n.01'
p8
aS'cut.v.01'
p9
aS'knife.n.01'
p10
aS'knife.n.02'
p11
aS'cabbage.n.01'
p12
aS'flesh.n.01'
p13
aS'pulp.n.02'
p14
aS'bacon.n.01'
p15
aS'piece.n.08'
p16
aS'slice.n.05'
p17
aS'orange.n.01'
p18
aS'potato.n.01'
p19
aS'banana.n.02'
p20
aS'meat.n.01'
p21
aS'cleaver.n.01'
p22
aS'helicopter.n.01'
p23
aS'zucchini.n.01'
p24
aS'zucchini.n.02'
p25
aS'bread.n.01'
p26
aS'tomato.n.01'
p27
aS'lemon.n.01'
p28
aS'olive.n.01'
p29
aS'olive.n.04'
p30
aS'pizza.n.01'
p31
aS'green_onion.n.01'
p32
aS'cheese.n.01'
p33
aS'egg.n.02'
p34
aS'fork.n.01'
p35
aS'fork.n.04'
p36
aS'cake.n.03'
p37
asS'instanceCount'
p38
I47
sS'matrix'
p39
(dp40
g33
(dp41
S'cheese.n.01'
p42
I1
ssg26
(dp43
S'bread.n.01'
p44
I1
ssg18
(dp45
S'orange.n.01'
p46
I1
ssg25
(dp47
g25
I0
ssg24
(dp48
g25
I1
ssg10
(dp49
g11
I5
ssg32
(dp50
S'green_onion.n.01'
p51
I1
ssg31
(dp52
S'pizza.n.01'
p53
I1
ssg9
(dp54
S'cut.v.01'
p55
I18
ssg34
(dp56
S'egg.n.02'
p57
I1
ssg27
(dp58
S'tomato.n.01'
p59
I1
ssg30
(dp60
g30
I0
ssg15
(dp61
S'bacon.n.01'
p62
I1
ssg21
(dp63
S'meat.n.01'
p64
I1
ssg19
(dp65
S'potato.n.01'
p66
I1
ssg22
(dp67
g23
I1
ssg29
(dp68
g30
I1
ssg12
(dp69
S'cabbage.n.01'
p70
I1
ssg20
(dp71
S'banana.n.02'
p72
I1
ssg11
(dp73
g11
I0
ssg36
(dp74
g36
I0
ssg35
(dp75
g36
I1
ssg16
(dp76
g17
I4
ssg8
(dp77
S'vegetable.n.01'
p78
I1
ssg13
(dp79
g14
I1
ssg23
(dp80
g23
I0
ssg17
(dp81
g17
I0
ssg37
(dp82
S'cake.n.03'
p83
I1
ssg28
(dp84
S'lemon.n.01'
p85
I1
ssg14
(dp86
g14
I0
sssb.