ccopy_reg
_reconstructor
p0
(cutils.eval
ConfusionMatrix
p1
c__builtin__
object
p2
Ntp3
Rp4
(dp5
S'labels'
p6
(lp7
S'egg.n.02'
p8
aS'cut.v.01'
p9
aS'piece.n.08'
p10
aS'slice.n.06'
p11
aS'fork.n.01'
p12
aS'fork.n.04'
p13
aS'cake.n.03'
p14
aS'lemon.n.01'
p15
aS'mushroom.n.05'
p16
aS'vegetable.n.01'
p17
aS'knife.n.01'
p18
aS'cabbage.n.01'
p19
aS'flesh.n.01'
p20
aS'human_body.n.01'
p21
aS'bacon.n.01'
p22
aS'orange.n.01'
p23
aS'potato.n.01'
p24
aS'banana.n.02'
p25
aS'meat.n.01'
p26
aS'cleaver.n.01'
p27
aS'zucchini.n.01'
p28
aS'zucchini.n.02'
p29
aS'bread.n.01'
p30
aS'tomato.n.01'
p31
aS'olive.n.01'
p32
aS'olive.n.04'
p33
aS'pizza.n.01'
p34
asS'instanceCount'
p35
I46
sS'matrix'
p36
(dp37
g16
(dp38
S'mushroom.n.05'
p39
I1
ssg30
(dp40
S'bread.n.01'
p41
I1
ssg23
(dp42
S'orange.n.01'
p43
I1
ssg29
(dp44
g29
I0
ssg28
(dp45
g29
I1
ssg19
(dp46
S'cabbage.n.01'
p47
I1
ssg9
(dp48
S'cut.v.01'
p49
I18
ssg8
(dp50
S'egg.n.02'
p51
I1
ssg31
(dp52
S'tomato.n.01'
p53
I1
ssg22
(dp54
S'bacon.n.01'
p55
I1
ssg27
(dp56
S'cleaver.n.01'
p57
I1
ssg24
(dp58
S'potato.n.01'
p59
I1
ssg26
(dp60
S'meat.n.01'
p61
I1
ssg32
(dp62
g33
I1
ssg18
(dp63
S'knife.n.01'
p64
I4
ssg25
(dp65
S'banana.n.02'
p66
I1
ssg33
(dp67
g33
I0
ssg13
(dp68
g13
I0
ssg12
(dp69
g13
I1
ssg21
(dp70
g21
I0
ssg10
(dp71
g11
I4
ssg17
(dp72
S'vegetable.n.01'
p73
I1
ssg20
(dp74
g21
I1
ssg11
(dp75
g11
I0
ssg34
(dp76
S'pizza.n.01'
p77
I1
ssg14
(dp78
S'cake.n.03'
p79
I1
ssg15
(dp80
S'lemon.n.01'
p81
I2
sssb.