ccopy_reg
_reconstructor
p0
(cutils.eval
ConfusionMatrix
p1
c__builtin__
object
p2
Ntp3
Rp4
(dp5
S'labels'
p6
(lp7
S'add.v.01'
p8
aS'lend.v.01'
p9
aS'burner.n.02'
p10
aS'burner.n.01'
p11
aS'pan.n.01'
p12
aS'pan.n.02'
p13
aS'butter.n.01'
p14
aS'vanilla.n.02'
p15
aS'vanilla.n.03'
p16
aS'cut.v.01'
p17
aS'cut.v.32'
p18
aS'squash.n.02'
p19
aS'squash.n.01'
p20
aS'flesh.n.01'
p21
aS'human_body.n.01'
p22
aS'slice.v.03'
p23
aS'slice.v.02'
p24
aS'opening.n.01'
p25
aS'gap.n.03'
p26
aS'fill.v.09'
p27
aS'fill.v.01'
p28
aS'batter.n.02'
p29
aS'whiskey.n.01'
p30
aS'carafe.n.01'
p31
aS'rum.n.01'
p32
aS'shaker.n.03'
p33
aS'take.v.04'
p34
aS'aim.v.01'
p35
aS'decant.v.01'
p36
aS'pour.v.01'
p37
aS'wok.n.01'
p38
aS'rice.n.01'
p39
aS'thermos.n.01'
p40
aS'coffee.n.01'
p41
aS'glass.n.02'
p42
aS'milk.n.01'
p43
aS'strawberry.n.01'
p44
aS'edit.v.03'
p45
aS'piece.n.08'
p46
aS'slice.n.06'
p47
aS'cut.n.16'
p48
aS'bag.n.01'
p49
aS'bag.n.04'
p50
aS'teapot.n.01'
p51
aS'water.n.06'
p52
aS'ice.n.01'
p53
aS'ice.n.05'
p54
aS'bowl.n.01'
p55
aS'fork.n.01'
p56
aS'fork.n.03'
p57
aS'bowl.n.08'
p58
aS'blend.v.03'
p59
aS'mix.v.05'
p60
aS'pizza.n.01'
p61
aS'mixing_bowl.n.01'
p62
aS'sugar.n.01'
p63
aS'boodle.n.01'
p64
aS'put.v.01'
p65
aS'put.v.02'
p66
aS'oven.n.01'
p67
aS'lodge.v.02'
p68
aS'stick.v.08'
p69
aS'pan.n.03'
p70
aS'avocado.n.01'
p71
aS'cheese.n.01'
p72
aS'tomato.n.01'
p73
aS'tomato.n.02'
p74
aS'cut.n.05'
p75
aS'onion.n.03'
p76
aS'onion.n.02'
p77
aS'mustard.n.02'
p78
aS'pot.n.01'
p79
aS'blend.v.01'
p80
aS'saltcellar.n.01'
p81
aS'salt.n.02'
p82
aS'jar.n.01'
p83
aS'gravy.n.01'
p84
aS'gravy.n.02'
p85
aS'bread.n.01'
p86
aS'mix.n.03'
p87
aS'pitcher.n.02'
p88
aS'onion.n.01'
p89
aS'beef.n.02'
p90
aS'gripe.n.01'
p91
aS'plate.n.04'
p92
aS'plate.n.13'
p93
aS'walnut.n.01'
p94
aS'walnut.n.02'
p95
aS'get.v.01'
p96
aS'make.v.02'
p97
aS'pear.n.01'
p98
aS'pear.n.02'
p99
aS'liquid.n.01'
p100
aS'sink.n.01'
p101
aS'cesspool.n.01'
p102
aS'cover.v.01'
p103
aS'cover.v.16'
p104
aS'rib.n.03'
p105
aS'rib.n.01'
p106
aS'knife.n.01'
p107
aS'tongue.n.03'
p108
aS'banana.n.02'
p109
aS'chicken.n.01'
p110
aS'wimp.n.01'
p111
aS'corn.n.02'
p112
aS'corn_whiskey.n.01'
p113
aS'chop.v.01'
p114
aS'chop.v.05'
p115
aS'opening.n.10'
p116
aS'curd.n.01'
p117
aS'carve.v.03'
p118
aS'hack.v.07'
p119
aS'pepper.n.04'
p120
aS'pepper.n.03'
p121
aS'kettle.n.01'
p122
aS'bottle.n.01'
p123
aS'fruit_juice.n.01'
p124
aS'sauce.n.01'
p125
aS'egg.n.02'
p126
aS'egg.n.01'
p127
aS'dough.n.01'
p128
aS'mix.v.04'
p129
asS'instanceCount'
p130
I127
sS'matrix'
p131
(dp132
g55
(dp133
S'bowl.n.01'
p134
I1
sg58
I3
ssg58
(dp135
g58
I0
ssg17
(dp136
g45
I1
sg18
I1
ssg103
(dp137
g104
I1
ssg113
(dp138
g113
I0
ssg84
(dp139
g85
I1
ssg85
(dp140
g85
I0
ssg105
(dp141
g106
I1
ssg106
(dp142
g106
I0
ssg57
(dp143
g57
I0
ssg56
(dp144
g57
I1
ssg94
(dp145
g95
I1
ssg22
(dp146
g22
I0
ssg30
(dp147
S'whiskey.n.01'
p148
I1
ssg25
(dp149
g116
I1
sg26
I1
ssg21
(dp150
g22
I1
ssg52
(dp151
S'water.n.06'
p152
I4
ssg65
(dp153
g66
I3
sS'put.v.01'
p154
I1
ssg37
(dp155
g37
I2
ssg125
(dp156
S'sauce.n.01'
p157
I1
ssg108
(dp158
g108
I0
ssg83
(dp159
S'jar.n.01'
p160
I1
ssg31
(dp161
S'carafe.n.01'
p162
I1
ssg36
(dp163
g37
I1
ssg128
(dp164
S'boodle.n.01'
p165
I1
ssg110
(dp166
g111
I1
ssg101
(dp167
g102
I1
ssg66
(dp168
g66
I0
ssg34
(dp169
g35
I1
ssg71
(dp170
S'avocado.n.01'
p171
I1
ssg116
(dp172
g116
I0
ssg8
(dp173
g9
I5
ssg99
(dp174
g99
I0
ssg12
(dp175
S'pan.n.01'
p176
I1
sg70
I2
sg13
I1
ssg70
(dp177
g70
I0
ssg13
(dp178
g13
I0
ssg26
(dp179
g26
I0
ssg121
(dp180
g121
I0
ssg16
(dp181
g16
I0
ssg15
(dp182
g16
I1
ssg24
(dp183
g24
I0
ssg23
(dp184
g24
I3
sS'slice.v.03'
p185
I1
ssg109
(dp186
S'banana.n.02'
p187
I1
ssg96
(dp188
g97
I1
ssg38
(dp189
S'wok.n.01'
p190
I1
ssg120
(dp191
g121
I1
ssg91
(dp192
g91
I0
ssg32
(dp193
S'rum.n.01'
p194
I1
ssg33
(dp195
S'shaker.n.03'
p196
I1
ssg124
(dp197
S'fruit_juice.n.01'
p198
I1
ssg51
(dp199
S'teapot.n.01'
p200
I1
ssg53
(dp201
g54
I1
ssg122
(dp202
S'kettle.n.01'
p203
I1
ssg54
(dp204
g54
I0
ssg87
(dp205
S'mix.n.03'
p206
I1
ssg117
(dp207
S'curd.n.01'
p208
I1
ssg89
(dp209
S'onion.n.01'
p210
I1
sS'onion.n.03'
p211
I1
ssg76
(dp212
g77
I1
ssg77
(dp213
g77
I0
ssg44
(dp214
S'strawberry.n.01'
p215
I1
ssg112
(dp216
g113
I1
ssg90
(dp217
g91
I1
ssg118
(dp218
g119
I1
ssg68
(dp219
g69
I1
ssg97
(dp220
g97
I0
ssg62
(dp221
S'mixing_bowl.n.01'
p222
I1
ssg69
(dp223
g69
I0
ssg78
(dp224
S'mustard.n.02'
p225
I1
ssg27
(dp226
g28
I2
ssg123
(dp227
S'bottle.n.01'
p228
I1
ssg79
(dp229
S'pot.n.01'
p230
I1
ssg28
(dp231
g28
I13
ssg88
(dp232
S'pitcher.n.02'
p233
I1
ssg98
(dp234
g99
I1
ssg20
(dp235
g20
I0
ssg19
(dp236
g20
I1
ssg75
(dp237
g75
I0
ssg82
(dp238
S'salt.n.02'
p239
I1
ssg107
(dp240
g108
I1
ssg92
(dp241
g93
I1
ssg41
(dp242
S'coffee.n.01'
p243
I1
ssg67
(dp244
S'oven.n.01'
p245
I1
ssg47
(dp246
g47
I0
ssg61
(dp247
S'pizza.n.01'
p248
I2
ssg48
(dp249
S'edit.v.03'
p250
I1
ssg10
(dp251
g11
I1
ssg11
(dp252
g11
I0
ssg93
(dp253
g93
I0
ssg72
(dp254
S'cheese.n.01'
p255
I1
ssg39
(dp256
S'rice.n.01'
p257
I1
ssg119
(dp258
g119
I0
ssg86
(dp259
S'bread.n.01'
p260
I2
ssg29
(dp261
S'batter.n.02'
p262
I1
ssg111
(dp263
g111
I0
ssg43
(dp264
S'milk.n.01'
p265
I2
ssg35
(dp266
g35
I0
ssg81
(dp267
S'saltcellar.n.01'
p268
I1
ssg74
(dp269
g74
I0
ssg14
(dp270
S'butter.n.01'
p271
I3
ssg50
(dp272
g50
I0
ssg115
(dp273
g115
I0
ssg49
(dp274
g50
I1
ssg114
(dp275
g115
I1
ssg129
(dp276
S'mix.v.05'
p277
I1
ssg60
(dp278
g60
I0
ssg42
(dp279
S'glass.n.02'
p280
I1
ssg59
(dp281
g60
I3
ssg80
(dp282
S'blend.v.01'
p283
I1
ssg95
(dp284
g95
I0
ssg9
(dp285
g9
I0
ssg45
(dp286
g45
I0
ssg64
(dp287
g64
I0
ssg46
(dp288
S'piece.n.08'
p289
I1
sg47
I1
sg75
I2
ssg102
(dp290
g102
I0
ssg127
(dp291
g127
I0
ssg40
(dp292
S'thermos.n.01'
p293
I1
ssg18
(dp294
g18
I0
ssg104
(dp295
g104
I0
ssg126
(dp296
g127
I1
ssg100
(dp297
S'liquid.n.01'
p298
I1
ssg73
(dp299
g74
I1
ssg63
(dp300
g64
I1
sssb.