ccopy_reg
_reconstructor
p0
(cutils.eval
ConfusionMatrix
p1
c__builtin__
object
p2
Ntp3
Rp4
(dp5
S'labels'
p6
(lp7
S'pot.n.01'
p8
aS'fill.v.01'
p9
aS'fill.v.02'
p10
aS'water.n.06'
p11
aS'put.v.01'
p12
aS'put.v.02'
p13
aS'blend.v.01'
p14
aS'blend.v.03'
p15
aS'bowl.n.01'
p16
aS'saltcellar.n.01'
p17
aS'salt.n.02'
p18
aS'jar.n.01'
p19
aS'gravy.n.01'
p20
aS'gravy.n.02'
p21
aS'pour.v.01'
p22
aS'bread.n.01'
p23
aS'boodle.n.01'
p24
aS'pan.n.01'
p25
aS'mix.n.03'
p26
aS'mix.n.01'
p27
aS'pitcher.n.02'
p28
aS'milk.n.01'
p29
aS'onion.n.01'
p30
aS'onion.n.03'
p31
aS'beef.n.02'
p32
aS'gripe.n.01'
p33
aS'plate.n.04'
p34
aS'plate.n.10'
p35
aS'walnut.n.01'
p36
aS'get.v.01'
p37
aS'receive.v.02'
p38
aS'pear.n.01'
p39
aS'bowl.n.04'
p40
aS'liquid.n.01'
p41
aS'sink.n.01'
p42
aS'cesspool.n.01'
p43
aS'add.v.01'
p44
aS'cover.v.01'
p45
aS'cover.v.26'
p46
aS'rib.n.03'
p47
aS'rib.n.06'
p48
aS'knife.n.01'
p49
aS'tongue.n.03'
p50
aS'banana.n.02'
p51
aS'slice.v.03'
p52
aS'chicken.n.01'
p53
aS'chicken.n.02'
p54
aS'corn.n.02'
p55
aS'corn.n.03'
p56
aS'chop.v.01'
p57
aS'chop.v.05'
p58
aS'opening.n.01'
p59
aS'hatchway.n.01'
p60
aS'fill.v.09'
p61
aS'curd.n.01'
p62
aS'carve.v.03'
p63
aS'pepper.n.04'
p64
aS'pepper.n.03'
p65
aS'onion.n.02'
p66
aS'kettle.n.01'
p67
aS'piece.n.08'
p68
aS'bottle.n.01'
p69
aS'fruit_juice.n.01'
p70
aS'sauce.n.01'
p71
aS'butter.n.01'
p72
aS'egg.n.02'
p73
aS'egg.n.01'
p74
aS'dough.n.01'
p75
aS'mix.v.04'
p76
aS'water_system.n.02'
p77
aS'rice.n.01'
p78
aS'concoction.n.01'
p79
aS'mug.n.04'
p80
aS'serve.v.05'
p81
aS'serve.v.11'
p82
aS'cut.v.01'
p83
aS'cut.v.34'
p84
aS'slice.n.06'
p85
aS'salt.n.04'
p86
aS'apple.n.01'
p87
aS'measuring_cup.n.01'
p88
aS'meal.n.03'
p89
aS'cup.n.01'
p90
aS'cola.n.02'
p91
aS'vanilla.n.02'
p92
aS'vanilla.n.03'
p93
aS'burner.n.02'
p94
aS'burner.n.01'
p95
aS'pan.n.02'
p96
aS'squash.n.02'
p97
aS'flesh.n.01'
p98
aS'human_body.n.01'
p99
aS'slice.v.02'
p100
aS'gap.n.03'
p101
aS'batter.n.02'
p102
aS'whiskey.n.01'
p103
aS'carafe.n.01'
p104
aS'rum.n.01'
p105
aS'shaker.n.03'
p106
aS'take.v.04'
p107
aS'assume.v.03'
p108
aS'decant.v.01'
p109
aS'wok.n.01'
p110
aS'thermos.n.01'
p111
aS'coffee.n.01'
p112
aS'glass.n.02'
p113
aS'strawberry.n.01'
p114
asS'instanceCount'
p115
I125
sS'matrix'
p116
(dp117
g16
(dp118
S'bowl.n.01'
p119
I1
sg40
I1
ssg40
(dp120
g40
I0
ssg83
(dp121
g84
I3
ssg60
(dp122
g60
I0
ssg45
(dp123
g46
I1
ssg88
(dp124
S'measuring_cup.n.01'
p125
I1
ssg20
(dp126
g21
I1
ssg21
(dp127
g21
I0
ssg47
(dp128
g48
I1
ssg48
(dp129
g48
I0
ssg36
(dp130
S'walnut.n.01'
p131
I1
ssg82
(dp132
g82
I0
ssg99
(dp133
g99
I0
ssg103
(dp134
S'whiskey.n.01'
p135
I1
ssg59
(dp136
g101
I1
sg60
I1
ssg98
(dp137
g99
I1
ssg11
(dp138
g77
I1
sS'water.n.06'
p139
I3
ssg12
(dp140
g13
I2
sS'put.v.01'
p141
I1
ssg106
(dp142
S'shaker.n.03'
p143
I1
ssg22
(dp144
S'pour.v.01'
p145
I3
ssg113
(dp146
S'glass.n.02'
p147
I1
ssg50
(dp148
g50
I0
ssg19
(dp149
S'jar.n.01'
p150
I2
ssg104
(dp151
S'carafe.n.01'
p152
I1
ssg109
(dp153
S'pour.v.01'
p154
I1
ssg84
(dp155
g84
I0
ssg53
(dp156
g54
I1
ssg38
(dp157
g38
I0
ssg54
(dp158
g54
I0
ssg77
(dp159
g77
I0
ssg13
(dp160
g13
I0
ssg81
(dp161
g82
I1
ssg87
(dp162
S'apple.n.01'
p163
I1
ssg44
(dp164
S'add.v.01'
p165
I6
ssg25
(dp166
S'pan.n.01'
p167
I2
sg96
I1
ssg96
(dp168
g96
I0
ssg51
(dp169
S'banana.n.02'
p170
I1
ssg90
(dp171
S'cup.n.01'
p172
I1
ssg93
(dp173
g93
I0
ssg92
(dp174
g93
I2
ssg100
(dp175
g100
I0
ssg52
(dp176
g100
I1
sS'slice.v.03'
p177
I1
ssg75
(dp178
S'boodle.n.01'
p179
I1
ssg37
(dp180
g38
I1
ssg110
(dp181
S'wok.n.01'
p182
I1
ssg64
(dp183
g65
I1
ssg33
(dp184
g33
I0
ssg105
(dp185
S'rum.n.01'
p186
I1
ssg65
(dp187
g65
I1
ssg70
(dp188
S'fruit_juice.n.01'
p189
I1
ssg67
(dp190
S'kettle.n.01'
p191
I1
ssg27
(dp192
g27
I0
ssg26
(dp193
g27
I1
ssg62
(dp194
S'curd.n.01'
p195
I1
ssg30
(dp196
g31
I1
sg66
I1
ssg31
(dp197
g31
I0
ssg89
(dp198
S'meal.n.03'
p199
I1
ssg114
(dp200
S'strawberry.n.01'
p201
I1
ssg56
(dp202
g56
I0
ssg55
(dp203
g56
I1
ssg32
(dp204
g33
I1
ssg63
(dp205
S'carve.v.03'
p206
I1
ssg8
(dp207
S'pot.n.01'
p208
I1
ssg107
(dp209
g108
I1
ssg42
(dp210
g43
I1
ssg61
(dp211
S'fill.v.02'
p212
I2
ssg69
(dp213
S'bottle.n.01'
p214
I1
ssg10
(dp215
g10
I0
ssg9
(dp216
g10
I15
sS'fill.v.01'
p217
I1
ssg28
(dp218
S'pitcher.n.02'
p219
I1
ssg39
(dp220
S'pear.n.01'
p221
I1
ssg97
(dp222
S'squash.n.02'
p223
I1
ssg79
(dp224
S'concoction.n.01'
p225
I1
sS'mix.n.03'
p226
I1
ssg18
(dp227
S'salt.n.02'
p228
I1
sg86
I1
ssg49
(dp229
g50
I1
ssg86
(dp230
g86
I0
ssg34
(dp231
g35
I1
ssg112
(dp232
S'coffee.n.01'
p233
I1
ssg80
(dp234
S'mug.n.04'
p235
I1
ssg85
(dp236
g85
I0
ssg111
(dp237
S'thermos.n.01'
p238
I1
ssg94
(dp239
g95
I1
ssg95
(dp240
g95
I0
ssg35
(dp241
g35
I0
ssg23
(dp242
S'bread.n.01'
p243
I1
sg24
I1
ssg102
(dp244
S'batter.n.02'
p245
I1
ssg29
(dp246
S'milk.n.01'
p247
I2
ssg91
(dp248
S'cola.n.02'
p249
I1
ssg17
(dp250
S'saltcellar.n.01'
p251
I1
ssg73
(dp252
g74
I3
ssg74
(dp253
g74
I0
ssg108
(dp254
g108
I0
ssg58
(dp255
g58
I0
ssg57
(dp256
g58
I1
ssg76
(dp257
S'mix.v.04'
p258
I1
ssg46
(dp259
g46
I0
ssg71
(dp260
S'sauce.n.01'
p261
I1
ssg15
(dp262
S'mix.v.04'
p263
I1
sg15
I1
ssg14
(dp264
g15
I1
ssg24
(dp265
g24
I0
ssg68
(dp266
S'piece.n.08'
p267
I1
sg85
I3
ssg43
(dp268
g43
I0
ssg101
(dp269
g101
I0
ssg78
(dp270
S'rice.n.01'
p271
I2
ssg41
(dp272
S'liquid.n.01'
p273
I1
ssg66
(dp274
g66
I0
ssg72
(dp275
S'butter.n.01'
p276
I2
sssb.