ccopy_reg
_reconstructor
p0
(cutils.eval
ConfusionMatrix
p1
c__builtin__
object
p2
Ntp3
Rp4
(dp5
S'labels'
p6
(lp7
S'cut.n.16'
p8
aS'edit.v.03'
p9
aS'bag.n.01'
p10
aS'bag.n.04'
p11
aS'fill.v.01'
p12
aS'teapot.n.01'
p13
aS'water.n.06'
p14
aS'ice.n.01'
p15
aS'methamphetamine.n.01'
p16
aS'bowl.n.01'
p17
aS'fork.n.01'
p18
aS'branching.n.01'
p19
aS'bowl.n.08'
p20
aS'blend.v.03'
p21
aS'mix.v.05'
p22
aS'piece.n.08'
p23
aS'slice.n.06'
p24
aS'pizza.n.01'
p25
aS'slice.v.03'
p26
aS'add.v.01'
p27
aS'lend.v.01'
p28
aS'mixing_bowl.n.01'
p29
aS'butter.n.01'
p30
aS'sugar.n.01'
p31
aS'boodle.n.01'
p32
aS'put.v.01'
p33
aS'put.v.02'
p34
aS'lodge.v.02'
p35
aS'stick.v.08'
p36
aS'pan.n.01'
p37
aS'pan.n.03'
p38
aS'avocado.n.01'
p39
aS'cheese.n.01'
p40
aS'tomato.n.01'
p41
aS'tomato.n.02'
p42
aS'slice.n.04'
p43
aS'onion.n.03'
p44
aS'onion.n.02'
p45
aS'mustard.n.02'
p46
aS'pot.n.01'
p47
aS'blend.v.01'
p48
aS'saltcellar.n.01'
p49
aS'salt.n.02'
p50
aS'jar.n.01'
p51
aS'gravy.n.01'
p52
aS'gravy.n.02'
p53
aS'pour.v.01'
p54
aS'bread.n.01'
p55
aS'mix.n.03'
p56
aS'pitcher.n.02'
p57
aS'milk.n.01'
p58
aS'onion.n.01'
p59
aS'beef.n.02'
p60
aS'gripe.n.01'
p61
aS'plate.n.04'
p62
aS'plate.n.08'
p63
aS'walnut.n.01'
p64
aS'walnut.n.02'
p65
aS'get.v.01'
p66
aS'make.v.02'
p67
aS'pear.n.01'
p68
aS'pear.n.02'
p69
aS'bleu.n.01'
p70
aS'liquid.n.01'
p71
aS'decant.v.01'
p72
aS'sink.n.01'
p73
aS'cesspool.n.01'
p74
aS'cover.v.01'
p75
aS'cover.v.16'
p76
aS'rib.n.03'
p77
aS'rib.n.01'
p78
aS'knife.n.01'
p79
aS'tongue.n.03'
p80
aS'banana.n.02'
p81
aS'chicken.n.01'
p82
aS'wimp.n.01'
p83
aS'corn.n.02'
p84
aS'corn.n.03'
p85
aS'chop.v.01'
p86
aS'chop.v.05'
p87
aS'opening.n.01'
p88
aS'opening.n.10'
p89
aS'fill.v.09'
p90
aS'curd.n.01'
p91
aS'carve.v.03'
p92
aS'hack.v.07'
p93
aS'pepper.n.04'
p94
aS'pepper.n.03'
p95
aS'kettle.n.01'
p96
aS'bottle.n.01'
p97
aS'fruit_juice.n.01'
p98
aS'sauce.n.01'
p99
aS'butter.n.02'
p100
aS'egg.n.02'
p101
aS'egg.n.01'
p102
aS'dough.n.01'
p103
aS'mix.v.04'
p104
aS'water_system.n.02'
p105
aS'rice.n.01'
p106
aS'concoction.n.01'
p107
aS'mug.n.04'
p108
aS'serve.v.05'
p109
aS'serve.v.11'
p110
aS'cut.v.01'
p111
aS'salt.n.04'
p112
aS'blender.n.01'
p113
aS'apple.n.01'
p114
aS'measuring_cup.n.01'
p115
aS'meal.n.03'
p116
aS'cup.n.01'
p117
aS'cola.n.02'
p118
aS'vanilla.n.02'
p119
aS'vanilla.n.03'
p120
asS'instanceCount'
p121
I126
sS'matrix'
p122
(dp123
g17
(dp124
S'bowl.n.01'
p125
I1
sg20
I3
ssg20
(dp126
g20
I0
ssg111
(dp127
S'edit.v.03'
p128
I1
ssg75
(dp129
g76
I1
ssg115
(dp130
S'measuring_cup.n.01'
p131
I1
ssg52
(dp132
g53
I1
ssg53
(dp133
g53
I0
ssg77
(dp134
g78
I1
ssg78
(dp135
g78
I0
ssg65
(dp136
g65
I0
ssg18
(dp137
g19
I1
ssg64
(dp138
g65
I1
ssg110
(dp139
g110
I0
ssg88
(dp140
g89
I1
ssg113
(dp141
S'blender.n.01'
p142
I1
ssg34
(dp143
g34
I0
ssg33
(dp144
g34
I4
ssg54
(dp145
S'pour.v.01'
p146
I2
sg72
I1
ssg80
(dp147
g80
I0
ssg51
(dp148
S'jar.n.01'
p149
I2
ssg72
(dp150
g72
I0
ssg82
(dp151
g83
I1
ssg73
(dp152
g74
I1
ssg105
(dp153
g105
I0
ssg16
(dp154
g16
I0
ssg70
(dp155
S'bleu.n.01'
p156
I1
ssg14
(dp157
g105
I1
sS'water.n.06'
p158
I4
ssg39
(dp159
S'avocado.n.01'
p160
I1
ssg89
(dp161
g89
I0
ssg27
(dp162
g28
I6
ssg37
(dp163
S'pan.n.01'
p164
I1
sg38
I2
ssg38
(dp165
g38
I0
ssg103
(dp166
S'dough.n.01'
p167
I1
ssg117
(dp168
S'cup.n.01'
p169
I1
ssg120
(dp170
g120
I0
ssg119
(dp171
g120
I1
ssg26
(dp172
S'slice.v.03'
p173
I3
ssg81
(dp174
S'banana.n.02'
p175
I1
ssg66
(dp176
g67
I1
ssg94
(dp177
g95
I1
ssg61
(dp178
g61
I0
ssg95
(dp179
g95
I1
ssg98
(dp180
S'fruit_juice.n.01'
p181
I1
ssg13
(dp182
S'teapot.n.01'
p183
I1
ssg90
(dp184
S'fill.v.01'
p185
I1
ssg15
(dp186
g16
I1
ssg96
(dp187
S'kettle.n.01'
p188
I1
ssg56
(dp189
S'mix.n.03'
p190
I1
ssg91
(dp191
S'curd.n.01'
p192
I1
ssg59
(dp193
S'onion.n.01'
p194
I2
ssg44
(dp195
g45
I1
ssg45
(dp196
g45
I0
ssg85
(dp197
g85
I0
ssg84
(dp198
g85
I1
ssg60
(dp199
g61
I1
ssg92
(dp200
g93
I1
ssg35
(dp201
g36
I1
ssg67
(dp202
g67
I0
ssg29
(dp203
S'mixing_bowl.n.01'
p204
I1
ssg36
(dp205
g36
I0
ssg46
(dp206
S'mustard.n.02'
p207
I1
ssg69
(dp208
g69
I0
ssg97
(dp209
S'bottle.n.01'
p210
I1
ssg47
(dp211
S'pot.n.01'
p212
I1
ssg12
(dp213
S'fill.v.01'
p214
I14
ssg57
(dp215
S'pitcher.n.02'
p216
I1
ssg68
(dp217
g69
I1
ssg107
(dp218
S'concoction.n.01'
p219
I1
sS'mix.n.03'
p220
I1
ssg50
(dp221
S'salt.n.02'
p222
I1
sg112
I1
ssg63
(dp223
g63
I0
ssg112
(dp224
g112
I0
ssg62
(dp225
g63
I1
ssg19
(dp226
g19
I0
ssg114
(dp227
S'apple.n.01'
p228
I1
ssg108
(dp229
S'mug.n.04'
p230
I1
ssg24
(dp231
g24
I0
ssg109
(dp232
g110
I1
ssg43
(dp233
g43
I0
ssg25
(dp234
S'pizza.n.01'
p235
I2
ssg8
(dp236
g9
I1
ssg40
(dp237
S'cheese.n.01'
p238
I1
ssg93
(dp239
g93
I0
ssg55
(dp240
S'bread.n.01'
p241
I2
ssg83
(dp242
g83
I0
ssg79
(dp243
g80
I1
ssg58
(dp244
S'milk.n.01'
p245
I1
ssg118
(dp246
S'cola.n.02'
p247
I1
ssg49
(dp248
S'saltcellar.n.01'
p249
I1
ssg42
(dp250
g42
I0
ssg30
(dp251
g100
I1
sS'butter.n.01'
p252
I1
ssg11
(dp253
g11
I0
ssg87
(dp254
g87
I0
ssg10
(dp255
g11
I1
ssg86
(dp256
g87
I1
ssg104
(dp257
S'mix.v.05'
p258
I1
ssg22
(dp259
g22
I0
ssg99
(dp260
S'sauce.n.01'
p261
I1
ssg101
(dp262
g102
I3
ssg21
(dp263
g22
I4
ssg48
(dp264
S'blend.v.01'
p265
I1
ssg28
(dp266
g28
I0
ssg9
(dp267
g9
I0
ssg32
(dp268
g32
I0
ssg23
(dp269
g24
I4
sg43
I1
ssg74
(dp270
g74
I0
ssg102
(dp271
g102
I0
ssg106
(dp272
S'rice.n.01'
p273
I1
ssg76
(dp274
g76
I0
ssg100
(dp275
g100
I0
ssg71
(dp276
S'liquid.n.01'
p277
I1
ssg116
(dp278
S'meal.n.03'
p279
I1
ssg41
(dp280
g42
I1
ssg31
(dp281
g32
I1
sssb.