ccopy_reg
_reconstructor
p0
(cutils.eval
ConfusionMatrix
p1
c__builtin__
object
p2
Ntp3
Rp4
(dp5
S'labels'
p6
(lp7
S'fill.v.01'
p8
aS'pitcher.n.02'
p9
aS'milk.n.01'
p10
aS'put.v.01'
p11
aS'put.v.02'
p12
aS'onion.n.01'
p13
aS'onion.n.03'
p14
aS'beef.n.02'
p15
aS'gripe.n.01'
p16
aS'plate.n.04'
p17
aS'plate.n.10'
p18
aS'walnut.n.01'
p19
aS'walnut.n.02'
p20
aS'get.v.01'
p21
aS'bring.v.04'
p22
aS'pear.n.01'
p23
aS'pear.n.02'
p24
aS'blend.v.03'
p25
aS'mix.v.05'
p26
aS'bowl.n.01'
p27
aS'liquid.n.01'
p28
aS'pour.v.01'
p29
aS'sink.n.01'
p30
aS'cesspool.n.01'
p31
aS'pan.n.01'
p32
aS'water.n.06'
p33
aS'add.v.01'
p34
aS'lend.v.01'
p35
aS'cover.v.01'
p36
aS'cover.v.23'
p37
aS'rib.n.03'
p38
aS'rib.n.01'
p39
aS'knife.n.01'
p40
aS'tongue.n.03'
p41
aS'banana.n.02'
p42
aS'slice.v.03'
p43
aS'chicken.n.01'
p44
aS'chicken.n.02'
p45
aS'corn.n.02'
p46
aS'corn.n.03'
p47
aS'chop.v.01'
p48
aS'chop.v.05'
p49
aS'opening.n.01'
p50
aS'opening.n.10'
p51
aS'fill.v.09'
p52
aS'curd.n.01'
p53
aS'carve.v.03'
p54
aS'hack.v.07'
p55
aS'pepper.n.04'
p56
aS'pepper.n.03'
p57
aS'kettle.n.01'
p58
aS'bread.n.01'
p59
aS'piece.n.08'
p60
aS'slice.n.06'
p61
aS'bottle.n.01'
p62
aS'fruit_juice.n.01'
p63
aS'juice.n.01'
p64
aS'sauce.n.01'
p65
aS'butter.n.01'
p66
aS'egg.n.02'
p67
aS'egg.n.01'
p68
aS'dough.n.01'
p69
aS'boodle.n.01'
p70
aS'mix.v.04'
p71
aS'water_system.n.02'
p72
aS'rice.n.01'
p73
aS'concoction.n.01'
p74
aS'mix.n.03'
p75
aS'mug.n.04'
p76
aS'serve.v.05'
p77
aS'serve.v.11'
p78
aS'cut.v.01'
p79
aS'edit.v.03'
p80
aS'salt.n.02'
p81
aS'salt.n.04'
p82
aS'apple.n.01'
p83
aS'measuring_cup.n.01'
p84
aS'meal.n.03'
p85
aS'jar.n.01'
p86
aS'cup.n.01'
p87
aS'cola.n.02'
p88
aS'vanilla.n.02'
p89
aS'burner.n.02'
p90
aS'burner.n.01'
p91
aS'pan.n.02'
p92
aS'vanilla.n.03'
p93
aS'squash.n.02'
p94
aS'flesh.n.01'
p95
aS'human_body.n.01'
p96
aS'slice.v.02'
p97
aS'gap.n.03'
p98
aS'batter.n.02'
p99
aS'whiskey.n.01'
p100
aS'carafe.n.01'
p101
aS'rum.n.01'
p102
aS'shaker.n.03'
p103
aS'take.v.04'
p104
aS'bring.v.01'
p105
aS'decant.v.01'
p106
aS'wok.n.01'
p107
aS'thermos.n.01'
p108
aS'coffee.n.01'
p109
aS'glass.n.02'
p110
aS'strawberry.n.01'
p111
aS'cut.n.16'
p112
aS'bag.n.01'
p113
aS'bag.n.04'
p114
aS'teapot.n.01'
p115
aS'ice.n.01'
p116
aS'ice.n.05'
p117
aS'fork.n.01'
p118
aS'branching.n.01'
p119
aS'bowl.n.08'
p120
aS'pizza.n.01'
p121
asS'instanceCount'
p122
I123
sS'matrix'
p123
(dp124
g27
(dp125
S'bowl.n.01'
p126
I2
sg120
I1
ssg120
(dp127
g120
I0
ssg79
(dp128
S'cut.v.01'
p129
I1
sg80
I2
ssg36
(dp130
g37
I1
ssg84
(dp131
S'measuring_cup.n.01'
p132
I1
ssg110
(dp133
S'glass.n.02'
p134
I1
ssg38
(dp135
g39
I1
ssg39
(dp136
g39
I0
ssg20
(dp137
g20
I0
ssg118
(dp138
g119
I1
ssg19
(dp139
g20
I1
ssg22
(dp140
g22
I0
ssg78
(dp141
g78
I0
ssg96
(dp142
g96
I0
ssg105
(dp143
g105
I0
ssg100
(dp144
S'whiskey.n.01'
p145
I1
ssg50
(dp146
g51
I1
sg98
I1
ssg95
(dp147
g96
I1
ssg33
(dp148
g72
I1
sS'water.n.06'
p149
I3
ssg11
(dp150
g12
I2
ssg103
(dp151
S'shaker.n.03'
p152
I1
ssg29
(dp153
S'pour.v.01'
p154
I2
ssg65
(dp155
S'sauce.n.01'
p156
I1
ssg41
(dp157
g41
I0
ssg86
(dp158
S'jar.n.01'
p159
I1
ssg101
(dp160
S'carafe.n.01'
p161
I1
ssg106
(dp162
S'pour.v.01'
p163
I1
ssg44
(dp164
g45
I1
ssg30
(dp165
g31
I1
ssg45
(dp166
g45
I0
ssg61
(dp167
g61
I0
ssg12
(dp168
g12
I0
ssg77
(dp169
g78
I1
ssg51
(dp170
g51
I0
ssg34
(dp171
g35
I6
ssg32
(dp172
S'pan.n.01'
p173
I1
sg92
I1
ssg92
(dp174
g92
I0
ssg42
(dp175
S'banana.n.02'
p176
I1
ssg87
(dp177
S'cup.n.01'
p178
I1
ssg93
(dp179
g93
I0
ssg89
(dp180
g93
I1
sS'vanilla.n.02'
p181
I1
ssg97
(dp182
g97
I0
ssg43
(dp183
g97
I1
sS'slice.v.03'
p184
I2
ssg69
(dp185
g70
I1
ssg21
(dp186
g22
I1
ssg107
(dp187
S'wok.n.01'
p188
I1
ssg56
(dp189
g57
I1
ssg16
(dp190
g16
I0
ssg102
(dp191
S'rum.n.01'
p192
I1
ssg57
(dp193
g57
I1
ssg63
(dp194
g64
I1
ssg115
(dp195
S'teapot.n.01'
p196
I1
ssg52
(dp197
S'fill.v.01'
p198
I2
ssg116
(dp199
g117
I1
ssg58
(dp200
S'kettle.n.01'
p201
I1
ssg117
(dp202
g117
I0
ssg75
(dp203
g75
I0
ssg53
(dp204
S'curd.n.01'
p205
I1
ssg13
(dp206
S'onion.n.01'
p207
I1
sg14
I1
ssg14
(dp208
g14
I0
ssg85
(dp209
S'meal.n.03'
p210
I1
ssg111
(dp211
S'strawberry.n.01'
p212
I1
ssg47
(dp213
g47
I0
ssg46
(dp214
g47
I1
ssg15
(dp215
g16
I1
ssg54
(dp216
g55
I1
ssg104
(dp217
g105
I1
ssg9
(dp218
S'pitcher.n.02'
p219
I1
ssg62
(dp220
S'bottle.n.01'
p221
I1
ssg8
(dp222
S'fill.v.01'
p223
I15
ssg24
(dp224
g24
I0
ssg23
(dp225
g24
I1
ssg94
(dp226
S'squash.n.02'
p227
I1
ssg74
(dp228
g75
I2
ssg55
(dp229
g55
I0
ssg40
(dp230
g41
I1
ssg82
(dp231
g82
I0
ssg17
(dp232
g18
I1
ssg109
(dp233
S'coffee.n.01'
p234
I1
ssg119
(dp235
g119
I0
ssg76
(dp236
S'mug.n.04'
p237
I1
ssg72
(dp238
g72
I0
ssg121
(dp239
S'pizza.n.01'
p240
I1
ssg108
(dp241
S'thermos.n.01'
p242
I1
ssg112
(dp243
S'edit.v.03'
p244
I1
ssg90
(dp245
g91
I1
ssg91
(dp246
g91
I0
ssg18
(dp247
g18
I0
ssg81
(dp248
g82
I1
ssg59
(dp249
S'bread.n.01'
p250
I1
ssg99
(dp251
S'batter.n.02'
p252
I1
ssg83
(dp253
S'apple.n.01'
p254
I1
ssg10
(dp255
S'milk.n.01'
p256
I2
ssg88
(dp257
S'cola.n.02'
p258
I1
ssg67
(dp259
g68
I3
ssg66
(dp260
S'butter.n.01'
p261
I2
ssg114
(dp262
g114
I0
ssg49
(dp263
g49
I0
ssg113
(dp264
g114
I1
ssg48
(dp265
g49
I1
ssg71
(dp266
S'mix.v.05'
p267
I1
ssg26
(dp268
g26
I0
ssg37
(dp269
g37
I0
ssg25
(dp270
g26
I3
ssg35
(dp271
g35
I0
ssg80
(dp272
g80
I0
ssg70
(dp273
g70
I0
ssg60
(dp274
g61
I5
ssg31
(dp275
g31
I0
ssg98
(dp276
g98
I0
ssg73
(dp277
S'rice.n.01'
p278
I2
ssg64
(dp279
g64
I0
ssg28
(dp280
S'liquid.n.01'
p281
I1
ssg68
(dp282
g68
I0
sssb.