ccopy_reg
_reconstructor
p0
(cutils.eval
ConfusionMatrix
p1
c__builtin__
object
p2
Ntp3
Rp4
(dp5
S'labels'
p6
(lp7
S'add.v.01'
p8
aS'lend.v.01'
p9
aS'mixing_bowl.n.01'
p10
aS'butter.n.01'
p11
aS'sugar.n.01'
p12
aS'boodle.n.01'
p13
aS'put.v.01'
p14
aS'put.v.02'
p15
aS'oven.n.01'
p16
aS'lodge.v.02'
p17
aS'stick.v.08'
p18
aS'pizza.n.01'
p19
aS'pan.n.01'
p20
aS'pan.n.03'
p21
aS'blend.v.03'
p22
aS'mix.v.05'
p23
aS'avocado.n.01'
p24
aS'cheese.n.01'
p25
aS'slice.v.03'
p26
aS'tomato.n.01'
p27
aS'tomato.n.02'
p28
aS'piece.n.08'
p29
aS'slice.n.04'
p30
aS'onion.n.03'
p31
aS'onion.n.02'
p32
aS'mustard.n.02'
p33
aS'pot.n.01'
p34
aS'fill.v.01'
p35
aS'water.n.06'
p36
aS'blend.v.01'
p37
aS'bowl.n.01'
p38
aS'bowl.n.08'
p39
aS'saltcellar.n.01'
p40
aS'salt.n.02'
p41
aS'jar.n.01'
p42
aS'gravy.n.01'
p43
aS'gravy.n.02'
p44
aS'pour.v.01'
p45
aS'bread.n.01'
p46
aS'mix.n.03'
p47
aS'mix.n.01'
p48
aS'pitcher.n.02'
p49
aS'milk.n.01'
p50
aS'onion.n.01'
p51
aS'beef.n.02'
p52
aS'gripe.n.01'
p53
aS'plate.n.04'
p54
aS'plate.n.13'
p55
aS'walnut.n.01'
p56
aS'walnut.n.02'
p57
aS'get.v.01'
p58
aS'make.v.02'
p59
aS'pear.n.01'
p60
aS'pear.n.02'
p61
aS'bleu.n.01'
p62
aS'liquid.n.01'
p63
aS'decant.v.01'
p64
aS'sink.n.01'
p65
aS'cesspool.n.01'
p66
aS'cover.v.01'
p67
aS'cover.v.16'
p68
aS'rib.n.03'
p69
aS'rib.n.01'
p70
aS'knife.n.01'
p71
aS'tongue.n.03'
p72
aS'banana.n.02'
p73
aS'slice.v.02'
p74
aS'chicken.n.01'
p75
aS'wimp.n.01'
p76
aS'corn.n.02'
p77
aS'corn.n.03'
p78
aS'chop.v.01'
p79
aS'chop.v.05'
p80
aS'opening.n.01'
p81
aS'opening.n.10'
p82
aS'fill.v.09'
p83
aS'curd.n.01'
p84
aS'carve.v.03'
p85
aS'hack.v.07'
p86
aS'pepper.n.04'
p87
aS'pepper.n.03'
p88
aS'kettle.n.01'
p89
aS'slice.n.06'
p90
aS'bottle.n.01'
p91
aS'fruit_juice.n.01'
p92
aS'sauce.n.01'
p93
aS'butter.n.02'
p94
aS'egg.n.02'
p95
aS'egg.n.01'
p96
aS'dough.n.01'
p97
aS'mix.v.04'
p98
aS'water_system.n.02'
p99
aS'rice.n.01'
p100
aS'concoction.n.01'
p101
aS'foam.n.01'
p102
aS'mug.n.04'
p103
aS'serve.v.05'
p104
aS'serve.v.11'
p105
aS'cut.v.01'
p106
aS'edit.v.03'
p107
aS'salt.n.04'
p108
aS'blender.n.01'
p109
aS'apple.n.01'
p110
aS'measuring_cup.n.01'
p111
aS'meal.n.03'
p112
aS'cup.n.01'
p113
aS'cola.n.02'
p114
aS'vanilla.n.02'
p115
aS'mixture.n.01'
p116
aS'burner.n.02'
p117
aS'burner.n.01'
p118
aS'pan.n.02'
p119
aS'vanilla.n.03'
p120
aS'cut.v.32'
p121
aS'squash.n.02'
p122
aS'flesh.n.01'
p123
aS'human_body.n.01'
p124
aS'gap.n.03'
p125
aS'batter.n.02'
p126
aS'whiskey.n.01'
p127
aS'carafe.n.01'
p128
asS'instanceCount'
p129
I129
sS'matrix'
p130
(dp131
g38
(dp132
g39
I2
ssg39
(dp133
g39
I0
ssg106
(dp134
g107
I1
sg121
I1
ssg125
(dp135
g125
I0
ssg67
(dp136
g68
I1
ssg111
(dp137
S'measuring_cup.n.01'
p138
I1
ssg43
(dp139
g44
I1
ssg44
(dp140
g44
I0
ssg69
(dp141
g70
I1
ssg70
(dp142
g70
I0
ssg57
(dp143
g57
I0
ssg56
(dp144
g57
I1
ssg105
(dp145
g105
I0
ssg124
(dp146
g124
I0
ssg127
(dp147
S'whiskey.n.01'
p148
I1
ssg81
(dp149
g82
I1
sg125
I1
ssg109
(dp150
S'blender.n.01'
p151
I1
ssg123
(dp152
g124
I1
ssg36
(dp153
g99
I1
sS'water.n.06'
p154
I3
ssg14
(dp155
g15
I4
ssg45
(dp156
S'pour.v.01'
p157
I2
sg64
I1
ssg72
(dp158
g72
I0
ssg42
(dp159
S'jar.n.01'
p160
I2
ssg128
(dp161
S'carafe.n.01'
p162
I1
ssg64
(dp163
g64
I0
ssg75
(dp164
g76
I1
ssg65
(dp165
g66
I1
ssg99
(dp166
g99
I0
ssg62
(dp167
S'bleu.n.01'
p168
I1
ssg15
(dp169
g15
I0
ssg24
(dp170
S'avocado.n.01'
p171
I1
ssg82
(dp172
g82
I0
ssg8
(dp173
g9
I7
ssg20
(dp174
S'pan.n.01'
p175
I1
sg21
I2
sg119
I1
ssg21
(dp176
g21
I0
ssg102
(dp177
S'foam.n.01'
p178
I1
ssg97
(dp179
S'dough.n.01'
p180
I1
ssg113
(dp181
S'cup.n.01'
p182
I1
ssg120
(dp183
g120
I0
ssg115
(dp184
g120
I1
sS'vanilla.n.02'
p185
I1
ssg74
(dp186
g74
I0
ssg26
(dp187
g74
I2
sS'slice.v.03'
p188
I1
ssg73
(dp189
S'banana.n.02'
p190
I1
ssg58
(dp191
g59
I1
ssg87
(dp192
g88
I1
ssg53
(dp193
g53
I0
ssg88
(dp194
g88
I1
ssg92
(dp195
S'fruit_juice.n.01'
p196
I1
ssg83
(dp197
S'fill.v.01'
p198
I2
ssg89
(dp199
S'kettle.n.01'
p200
I1
ssg48
(dp201
g48
I0
ssg47
(dp202
g48
I1
ssg84
(dp203
S'curd.n.01'
p204
I1
ssg51
(dp205
S'onion.n.01'
p206
I1
sS'onion.n.03'
p207
I1
ssg31
(dp208
g32
I1
ssg32
(dp209
g32
I0
ssg78
(dp210
g78
I0
ssg77
(dp211
g78
I1
ssg52
(dp212
g53
I1
ssg85
(dp213
g86
I1
ssg17
(dp214
g18
I1
ssg59
(dp215
g59
I0
ssg10
(dp216
S'mixing_bowl.n.01'
p217
I1
ssg18
(dp218
g18
I0
ssg33
(dp219
S'mustard.n.02'
p220
I1
ssg61
(dp221
g61
I0
ssg91
(dp222
S'bottle.n.01'
p223
I1
ssg34
(dp224
S'pot.n.01'
p225
I1
ssg35
(dp226
S'fill.v.01'
p227
I13
ssg49
(dp228
S'pitcher.n.02'
p229
I1
ssg60
(dp230
g61
I1
ssg122
(dp231
S'squash.n.02'
p232
I1
ssg101
(dp233
g116
I1
sS'mix.n.03'
p234
I1
ssg41
(dp235
S'salt.n.02'
p236
I1
sg108
I1
ssg71
(dp237
g72
I1
ssg108
(dp238
g108
I0
ssg54
(dp239
g55
I1
ssg116
(dp240
g116
I0
ssg16
(dp241
S'oven.n.01'
p242
I1
ssg110
(dp243
S'apple.n.01'
p244
I1
ssg103
(dp245
S'mug.n.04'
p246
I1
ssg90
(dp247
g90
I0
ssg104
(dp248
g105
I1
ssg30
(dp249
g30
I0
ssg19
(dp250
S'pizza.n.01'
p251
I1
ssg117
(dp252
g118
I1
ssg118
(dp253
g118
I0
ssg55
(dp254
g55
I0
ssg25
(dp255
S'cheese.n.01'
p256
I1
ssg86
(dp257
g86
I0
ssg46
(dp258
S'bread.n.01'
p259
I1
sS'boodle.n.01'
p260
I1
ssg126
(dp261
S'batter.n.02'
p262
I1
ssg76
(dp263
g76
I0
ssg50
(dp264
S'milk.n.01'
p265
I1
ssg114
(dp266
S'cola.n.02'
p267
I1
ssg40
(dp268
S'saltcellar.n.01'
p269
I1
ssg28
(dp270
g28
I0
ssg11
(dp271
g94
I1
sS'butter.n.01'
p272
I2
ssg80
(dp273
g80
I0
ssg79
(dp274
g80
I1
ssg98
(dp275
S'mix.v.05'
p276
I1
ssg23
(dp277
g23
I0
ssg93
(dp278
S'sauce.n.01'
p279
I1
ssg95
(dp280
g96
I3
ssg22
(dp281
g23
I3
ssg37
(dp282
S'blend.v.01'
p283
I1
ssg9
(dp284
g9
I0
ssg107
(dp285
g107
I0
ssg13
(dp286
g13
I0
ssg119
(dp287
g119
I0
ssg29
(dp288
g90
I3
sg30
I1
ssg66
(dp289
g66
I0
ssg96
(dp290
g96
I0
ssg100
(dp291
S'rice.n.01'
p292
I1
ssg121
(dp293
g121
I0
ssg68
(dp294
g68
I0
ssg94
(dp295
g94
I0
ssg63
(dp296
S'liquid.n.01'
p297
I1
ssg112
(dp298
S'meal.n.03'
p299
I1
ssg27
(dp300
g28
I1
ssg12
(dp301
g13
I1
sssb.