ccopy_reg
_reconstructor
p0
(cutils.eval
ConfusionMatrix
p1
c__builtin__
object
p2
Ntp3
Rp4
(dp5
S'labels'
p6
(lp7
S'cut.v.01'
p8
aS'bread.n.01'
p9
aS'knife.n.01'
p10
aS'knife.n.02'
p11
aS'meat.n.01'
p12
aS'cleaver.n.01'
p13
aS'helicopter.n.01'
p14
aS'cabbage.n.01'
p15
aS'bacon.n.01'
p16
aS'cabbage.n.03'
p17
aS'bacon.n.02'
p18
aS'lemon.n.01'
p19
aS'lemon.n.05'
p20
aS'cut.v.29'
p21
aS'tongue.n.03'
p22
aS'chop.n.05'
p23
asS'instanceCount'
p24
I48
sS'matrix'
p25
(dp26
g8
(dp27
g8
I19
sg10
I0
sg21
I1
sg17
I0
sg11
I0
sg14
I0
sg18
I0
sg16
I0
sg9
I0
sg20
I0
sg13
I0
sg19
I0
sg15
I0
sg23
I0
sg22
I0
sg12
I0
ssg10
(dp28
g8
I0
sg10
I1
sg21
I0
sg11
I1
sg14
I0
sg16
I0
sg9
I0
sg13
I0
sS'lemon.n.01'
p29
I0
sg15
I0
sg23
I0
sg22
I2
sg12
I0
ssg21
(dp30
S'cut.v.01'
p31
I0
sS'cabbage.n.01'
p32
I0
sg21
I0
sS'bacon.n.01'
p33
I0
sS'bread.n.01'
p34
I0
sg29
I0
sS'knife.n.01'
p35
I0
ssg17
(dp36
S'cut.v.01'
p37
I0
sS'cabbage.n.01'
p38
I0
sg17
I0
sg18
I0
sS'bacon.n.01'
p39
I0
sg20
I0
sS'meat.n.01'
p40
I0
sg19
I0
sS'cleaver.n.01'
p41
I0
ssg11
(dp42
g8
I0
sg10
I0
sg11
I0
sg14
I0
sg16
I0
sg9
I0
sg13
I0
sg15
I0
sg12
I0
ssg14
(dp43
g8
I0
sg10
I0
sg11
I0
sg14
I0
sg16
I0
sg9
I0
sg12
I0
sg15
I0
sg13
I0
ssg18
(dp44
g37
I0
sg38
I0
sg17
I0
sg18
I0
sg39
I0
sg20
I0
sg41
I0
sg19
I0
sg40
I0
ssg16
(dp45
g8
I0
sg10
I0
sg21
I0
sg17
I0
sg11
I0
sg14
I0
sg18
I1
sg16
I3
sg9
I0
sg20
I0
sg12
I0
sg19
I0
sg15
I0
sg23
I0
sg22
I0
sg13
I0
ssg9
(dp46
g8
I0
sg10
I0
sg21
I0
sg11
I0
sg14
I0
sg16
I0
sg9
I4
sg13
I0
sg29
I0
sg15
I0
sg23
I0
sg22
I0
sg12
I0
ssg20
(dp47
g37
I0
sg38
I0
sg17
I0
sg18
I0
sg39
I0
sg20
I0
sg40
I0
sg19
I0
sg41
I0
ssg13
(dp48
g8
I0
sg10
I0
sg22
I0
sg17
I0
sg11
I0
sg14
I1
sg18
I0
sg16
I0
sg9
I0
sg20
I0
sg12
I0
sg19
I0
sg15
I0
sg23
I2
sg13
I1
ssg19
(dp49
g37
I0
sg38
I0
sg21
I0
sg17
I0
sg18
I0
sg39
I0
sg34
I0
sg20
I1
sg40
I0
sg19
I3
sg35
I0
sg23
I0
sg22
I0
sg41
I0
ssg15
(dp50
g8
I0
sg10
I0
sg21
I0
sg17
I1
sg11
I0
sg14
I0
sg18
I0
sg16
I0
sg9
I0
sg20
I0
sg12
I0
sg19
I0
sg15
I3
sS'chop.n.05'
p51
I0
sS'tongue.n.03'
p52
I0
sg13
I0
ssg23
(dp53
S'cut.v.01'
p54
I0
sS'knife.n.01'
p55
I0
sg22
I0
sS'bacon.n.01'
p56
I0
sS'bread.n.01'
p57
I0
sS'meat.n.01'
p58
I0
sS'lemon.n.01'
p59
I0
sS'cabbage.n.01'
p60
I0
sg23
I0
sS'cleaver.n.01'
p61
I0
ssg22
(dp62
g54
I0
sg55
I0
sg22
I0
sg56
I0
sg57
I0
sg58
I0
sg59
I0
sg60
I0
sg23
I0
sg61
I0
ssg12
(dp63
g8
I0
sg10
I0
sg22
I0
sg17
I0
sg11
I0
sg14
I0
sg18
I0
sg16
I0
sg9
I0
sg20
I0
sg13
I0
sg19
I0
sg15
I0
sg23
I0
sg12
I4
sssb.