ccopy_reg
_reconstructor
p0
(cutils.eval
ConfusionMatrix
p1
c__builtin__
object
p2
Ntp3
Rp4
(dp5
S'labels'
p6
(lp7
S'cut.v.01'
p8
aS'bacon.n.01'
p9
aS'lemon.n.01'
p10
aS'bread.n.01'
p11
aS'knife.n.01'
p12
aS'tongue.n.03'
p13
aS'meat.n.01'
p14
aS'cleaver.n.01'
p15
aS'chop.n.05'
p16
asS'instanceCount'
p17
I10
sS'matrix'
p18
(dp19
g8
(dp20
S'cut.v.01'
p21
I4
ssg12
(dp22
g13
I1
ssg10
(dp23
S'lemon.n.01'
p24
I1
ssg9
(dp25
S'bacon.n.01'
p26
I1
ssg11
(dp27
S'bread.n.01'
p28
I1
ssg14
(dp29
S'meat.n.01'
p30
I1
ssg13
(dp31
g13
I0
ssg16
(dp32
g16
I0
ssg15
(dp33
g16
I1
sssb.