ccopy_reg
_reconstructor
p0
(cutils.eval
ConfusionMatrix
p1
c__builtin__
object
p2
Ntp3
Rp4
(dp5
S'labels'
p6
(lp7
S'cabbage.n.01'
p8
aS'cut.v.01'
p9
aS'bacon.n.01'
p10
aS'lemon.n.01'
p11
aS'cut.v.29'
p12
aS'bread.n.01'
p13
aS'knife.n.01'
p14
asS'instanceCount'
p15
I9
sS'matrix'
p16
(dp17
g9
(dp18
S'cut.v.01'
p19
I3
sg12
I1
ssg8
(dp20
S'cabbage.n.01'
p21
I1
ssg12
(dp22
g12
I0
ssg10
(dp23
S'bacon.n.01'
p24
I1
ssg13
(dp25
S'bread.n.01'
p26
I1
ssg11
(dp27
S'lemon.n.01'
p28
I1
ssg14
(dp29
S'knife.n.01'
p30
I1
sssb.