ccopy_reg
_reconstructor
p0
(cutils.eval
ConfusionMatrix
p1
c__builtin__
object
p2
Ntp3
Rp4
(dp5
S'labels'
p6
(lp7
S'cut.v.01'
p8
aS'bread.n.01'
p9
aS'knife.n.01'
p10
aS'knife.n.02'
p11
aS'meat.n.01'
p12
aS'cleaver.n.01'
p13
aS'helicopter.n.01'
p14
aS'cabbage.n.01'
p15
aS'bacon.n.01'
p16
asS'instanceCount'
p17
I10
sS'matrix'
p18
(dp19
g8
(dp20
S'cut.v.01'
p21
I4
ssg10
(dp22
g11
I1
ssg11
(dp23
g11
I0
ssg14
(dp24
g14
I0
ssg16
(dp25
S'bacon.n.01'
p26
I1
ssg9
(dp27
S'bread.n.01'
p28
I1
ssg13
(dp29
g14
I1
ssg15
(dp30
S'cabbage.n.01'
p31
I1
ssg12
(dp32
S'meat.n.01'
p33
I1
sssb.