ccopy_reg
_reconstructor
p0
(cutils.eval
ConfusionMatrix
p1
c__builtin__
object
p2
Ntp3
Rp4
(dp5
S'labels'
p6
(lp7
S'flesh.n.01'
p8
aS'human_body.n.01'
p9
aS'slice.v.03'
p10
aS'ice.n.01'
p11
aS'ice.n.05'
p12
aS'fill.v.01'
p13
aS'bowl.n.01'
p14
aS'apple.n.01'
p15
aS'add.v.01'
p16
aS'lend.v.01'
p17
aS'burner.n.02'
p18
aS'burner.n.01'
p19
aS'pan.n.01'
p20
aS'pan.n.02'
p21
aS'butter.n.01'
p22
aS'vanilla.n.02'
p23
aS'vanilla.n.03'
p24
aS'put.v.01'
p25
aS'put.v.02'
p26
aS'onion.n.01'
p27
aS'beef.n.02'
p28
aS'gripe.n.01'
p29
aS'plate.n.04'
p30
aS'plate.n.08'
p31
aS'sauce.n.01'
p32
aS'jar.n.01'
p33
aS'blend.v.01'
p34
aS'bowl.n.08'
p35
aS'thermos.n.01'
p36
aS'coffee.n.01'
p37
aS'teapot.n.01'
p38
aS'water.n.06'
p39
aS'opening.n.01'
p40
aS'gap.n.03'
p41
aS'fill.v.09'
p42
aS'batter.n.02'
p43
aS'opening.n.10'
p44
aS'curd.n.01'
p45
aS'carve.v.03'
p46
aS'compartmentalize.v.01'
p47
aS'pepper.n.04'
p48
aS'pepper.n.03'
p49
aS'whiskey.n.01'
p50
aS'carafe.n.01'
p51
aS'kettle.n.01'
p52
aS'piece.n.08'
p53
aS'slice.n.06'
p54
aS'gravy.n.01'
p55
aS'gravy.n.02'
p56
aS'cup.n.01'
p57
aS'cola.n.02'
p58
aS'strawberry.n.01'
p59
aS'cut.v.01'
p60
aS'edit.v.03'
p61
aS'fork.n.01'
p62
aS'branching.n.01'
p63
aS'blend.v.03'
p64
aS'mix.v.05'
p65
aS'cheese.n.01'
p66
aS'cover.v.01'
p67
aS'cover.v.16'
p68
aS'rib.n.03'
p69
aS'rib.n.01'
p70
aS'tomato.n.01'
p71
aS'tomato.n.02'
p72
aS'slice.n.04'
p73
aS'onion.n.03'
p74
aS'onion.n.02'
p75
aS'mustard.n.02'
p76
aS'salt.n.02'
p77
aS'salt.n.04'
p78
aS'egg.n.02'
p79
aS'egg.n.01'
p80
aS'chicken.n.01'
p81
aS'wimp.n.01'
p82
aS'corn.n.02'
p83
aS'corn.n.03'
p84
aS'chop.v.01'
p85
aS'chop.v.05'
p86
aS'cut.n.16'
p87
aS'bag.n.01'
p88
aS'bag.n.04'
p89
aS'avocado.n.01'
p90
aS'bread.n.01'
p91
aS'water_system.n.02'
p92
aS'rice.n.01'
p93
aS'pour.v.01'
p94
aS'concoction.n.01'
p95
aS'mix.n.03'
p96
aS'liquid.n.01'
p97
aS'sink.n.01'
p98
aS'cesspool.n.01'
p99
aS'hack.v.07'
p100
aS'pitcher.n.02'
p101
aS'milk.n.01'
p102
aS'lodge.v.02'
p103
aS'stick.v.08'
p104
aS'pizza.n.01'
p105
aS'pan.n.03'
p106
aS'sugar.n.01'
p107
aS'boodle.n.01'
p108
aS'serve.v.05'
p109
aS'serve.v.11'
p110
aS'saltcellar.n.01'
p111
aS'squash.n.02'
p112
aS'bottle.n.01'
p113
aS'fruit_juice.n.01'
p114
aS'wok.n.01'
p115
aS'mug.n.04'
p116
aS'walnut.n.01'
p117
aS'walnut.n.02'
p118
aS'get.v.01'
p119
aS'make.v.02'
p120
aS'pear.n.01'
p121
aS'pear.n.02'
p122
aS'plate.n.13'
p123
aS'pot.n.01'
p124
aS'dough.n.01'
p125
aS'mix.v.04'
p126
aS'measuring_cup.n.01'
p127
aS'meal.n.03'
p128
aS'glass.n.02'
p129
aS'knife.n.01'
p130
aS'tongue.n.03'
p131
aS'banana.n.02'
p132
aS'rum.n.01'
p133
aS'shaker.n.03'
p134
aS'take.v.04'
p135
aS'bring.v.01'
p136
aS'decant.v.01'
p137
aS'fork.n.03'
p138
aS'mixing_bowl.n.01'
p139
asS'instanceCount'
p140
I309
sS'matrix'
p141
(dp142
g14
(dp143
g14
I2
sg35
I6
sg60
I0
sS'cover.v.01'
p144
I0
sg47
I0
sS'measuring_cup.n.01'
p145
I0
sg55
I0
sg56
I0
sS'rib.n.03'
p146
I0
sS'rib.n.01'
p147
I0
sg118
I0
sg62
I0
sg117
I0
sg110
I0
sg9
I0
sg50
I0
sg40
I0
sg8
I0
sg39
I0
sg25
I0
sS'pour.v.01'
p148
I0
sg33
I0
sg51
I0
sS'chicken.n.01'
p149
I0
sg26
I0
sg109
I0
sg44
I0
sg16
I0
sg122
I0
sg20
I0
sg106
I0
sg21
I0
sg41
I0
sg57
I0
sg24
I0
sg23
I0
sg10
I0
sS'dough.n.01'
p150
I0
sg119
I0
sg115
I0
sg48
I0
sg29
I0
sg49
I0
sg114
I0
sg38
I0
sg11
I0
sg52
I0
sg12
I0
sg17
I0
sg45
I0
sg27
I0
sS'onion.n.03'
p151
I0
sS'onion.n.02'
p152
I0
sg59
I0
sS'corn.n.03'
p153
I0
sS'corn.n.02'
p154
I0
sg28
I0
sg46
I0
sg103
I0
sg120
I0
sg104
I0
sS'mustard.n.02'
p155
I0
sg42
I0
sg113
I0
sS'pot.n.01'
p156
I0
sg13
I0
sg101
I0
sg121
I0
sg112
I0
sS'concoction.n.01'
p157
I0
sS'salt.n.02'
p158
I0
sg31
I0
sS'salt.n.04'
p159
I0
sg30
I0
sg37
I0
sg63
I0
sg15
I0
sg116
I0
sg54
I0
sS'slice.n.04'
p160
I0
sg105
I0
sg18
I0
sg19
I0
sg123
I0
sS'cheese.n.01'
p161
I0
sS'rice.n.01'
p162
I0
sS'bread.n.01'
p163
I0
sg43
I0
sS'wimp.n.01'
p164
I0
sg102
I0
sg58
I0
sg111
I0
sS'tomato.n.02'
p165
I0
sg22
I0
sS'chop.v.05'
p166
I0
sS'chop.v.01'
p167
I0
sS'mix.v.04'
p168
I0
sg65
I0
sg32
I0
sg64
I0
sg34
I0
sg138
I0
sS'mix.n.03'
p169
I0
sg61
I0
sS'tomato.n.01'
p170
I0
sg108
I0
sg53
I0
sg36
I0
sS'cover.v.16'
p171
I0
sS'egg.n.02'
p172
I0
sS'meal.n.03'
p173
I0
sS'egg.n.01'
p174
I0
sg107
I0
ssg35
(dp175
g14
I0
sg35
I0
sg60
I0
sg144
I0
sg47
I0
sg145
I0
sg55
I0
sg56
I0
sg146
I0
sg147
I0
sg118
I0
sg62
I0
sg117
I0
sg110
I0
sg9
I0
sg50
I0
sg40
I0
sg8
I0
sg39
I0
sg25
I0
sg148
I0
sg33
I0
sg51
I0
sg149
I0
sg26
I0
sg109
I0
sg44
I0
sg16
I0
sg122
I0
sg20
I0
sg106
I0
sg21
I0
sg41
I0
sg57
I0
sg24
I0
sg23
I0
sg10
I0
sg150
I0
sg119
I0
sg115
I0
sg48
I0
sg29
I0
sg49
I0
sg114
I0
sg38
I0
sg11
I0
sg52
I0
sg12
I0
sg17
I0
sg45
I0
sg27
I0
sg151
I0
sg152
I0
sg59
I0
sg153
I0
sg154
I0
sg28
I0
sg46
I0
sg103
I0
sg120
I0
sg104
I0
sg155
I0
sg42
I0
sg113
I0
sg156
I0
sg13
I0
sg101
I0
sg121
I0
sg112
I0
sg157
I0
sg158
I0
sg31
I0
sg159
I0
sg30
I0
sg37
I0
sg63
I0
sg15
I0
sg116
I0
sg54
I0
sg160
I0
sg105
I0
sg18
I0
sg19
I0
sg123
I0
sg161
I0
sg162
I0
sg163
I0
sg43
I0
sg164
I0
sg102
I0
sg58
I0
sg111
I0
sg165
I0
sg22
I0
sg166
I0
sg167
I0
sg168
I0
sg65
I0
sg32
I0
sg64
I0
sg34
I0
sg138
I0
sg169
I0
sg61
I0
sg170
I0
sg108
I0
sg53
I0
sg36
I0
sg171
I0
sg172
I0
sg173
I0
sg174
I0
sg107
I0
ssg60
(dp176
S'bowl.n.01'
p177
I0
sS'bowl.n.08'
p178
I0
sg60
I2
sS'banana.n.02'
p179
I0
sg47
I0
sg145
I0
sg55
I0
sg56
I0
sg138
I0
sg62
I0
sg117
I0
sg110
I0
sS'human_body.n.01'
p180
I0
sS'bring.v.01'
p181
I0
sg50
I0
sg40
I0
sS'flesh.n.01'
p182
I0
sS'put.v.02'
p183
I0
sS'put.v.01'
p184
I0
sS'shaker.n.03'
p185
I0
sg148
I0
sS'tongue.n.03'
p186
I0
sS'jar.n.01'
p187
I0
sg51
I0
sS'decant.v.01'
p188
I0
sS'water.n.06'
p189
I0
sS'take.v.04'
p190
I0
sg109
I0
sS'apple.n.01'
p191
I0
sS'add.v.01'
p192
I0
sg122
I0
sS'pan.n.01'
p193
I0
sg106
I0
sS'pan.n.02'
p194
I0
sg41
I0
sg57
I0
sS'vanilla.n.03'
p195
I0
sS'vanilla.n.02'
p196
I0
sS'slice.v.03'
p197
I0
sg150
I0
sg119
I0
sg115
I0
sg48
I0
sg49
I0
sS'rum.n.01'
p198
I0
sS'gripe.n.01'
p199
I0
sg114
I0
sS'ice.n.01'
p200
I0
sg52
I0
sS'ice.n.05'
p201
I0
sg169
I0
sg45
I0
sS'onion.n.01'
p202
I0
sS'onion.n.03'
p203
I0
sg173
I0
sg59
I0
sS'beef.n.02'
p204
I0
sg46
I0
sg103
I0
sg120
I0
sg139
I0
sg104
I0
sg42
I0
sg113
I0
sg156
I0
sS'fill.v.01'
p205
I0
sg101
I0
sg121
I0
sg112
I0
sg157
I0
sS'salt.n.02'
p206
I0
sS'knife.n.01'
p207
I0
sS'plate.n.04'
p208
I0
sg63
I0
sg116
I0
sg54
I0
sg105
I0
sS'burner.n.02'
p209
I0
sS'burner.n.01'
p210
I0
sg123
I0
sg163
I0
sg43
I0
sg44
I0
sg102
I0
sg58
I0
sg111
I0
sS'egg.n.02'
p211
I0
sS'butter.n.01'
p212
I0
sg168
I0
sg65
I0
sS'glass.n.02'
p213
I0
sg64
I0
sg118
I0
sS'lend.v.01'
p214
I0
sg61
I4
sg108
I0
sg53
I0
sg162
I0
sS'egg.n.01'
p215
I0
sg107
I0
ssg132
(dp216
S'salt.n.02'
p217
I0
sS'lodge.v.02'
p218
I0
sg139
I0
sS'bread.n.01'
p219
I0
sS'stick.v.08'
p220
I0
sS'serve.v.05'
p221
I0
sg135
I0
sg130
I0
sS'pizza.n.01'
p222
I0
sS'add.v.01'
p223
I0
sS'milk.n.01'
p224
I0
sS'pan.n.01'
p225
I0
sS'pan.n.03'
p226
I0
sS'cut.v.01'
p227
I0
sg132
I2
sS'saltcellar.n.01'
p228
I0
sS'egg.n.02'
p229
I0
sS'egg.n.01'
p230
I0
sg124
I0
sS'fill.v.01'
p231
I0
sS'pitcher.n.02'
p232
I0
sS'vanilla.n.03'
p233
I0
sS'vanilla.n.02'
p234
I0
sg126
I0
sS'mix.v.05'
p235
I0
sg129
I0
sS'slice.v.03'
p236
I0
sS'blend.v.03'
p237
I0
sg125
I0
sS'mix.n.03'
p238
I0
sS'edit.v.03'
p239
I0
sg134
I0
sS'boodle.n.01'
p240
I0
sS'serve.v.11'
p241
I0
sg136
I0
sS'concoction.n.01'
p242
I0
sS'piece.n.08'
p243
I0
sg133
I0
sS'put.v.02'
p244
I0
sS'slice.n.06'
p245
I0
sS'water.n.06'
p246
I0
sS'put.v.01'
p247
I0
sg137
I0
sS'pour.v.01'
p248
I0
sg127
I0
sg131
I0
sS'lend.v.01'
p249
I0
sS'sugar.n.01'
p250
I0
sS'butter.n.01'
p251
I0
sg128
I0
ssg67
(dp252
g66
I0
sg84
I0
sg83
I0
sg81
I0
sg98
I0
sg77
I0
sg92
I0
sg91
I0
sg90
I0
sS'put.v.01'
p253
I0
sg82
I0
sS'bowl.n.08'
p254
I0
sS'add.v.01'
p255
I0
sg76
I0
sS'bowl.n.01'
p256
I0
sg72
I0
sg80
I0
sS'fill.v.01'
p257
I0
sg89
I0
sg86
I0
sg88
I0
sg67
I0
sS'mix.v.05'
p258
I0
sS'sauce.n.01'
p259
I0
sS'slice.v.03'
p260
I0
sS'blend.v.03'
p261
I0
sg85
I0
sS'blend.v.01'
p262
I0
sg78
I0
sg69
I0
sS'coffee.n.01'
p263
I0
sg70
I0
sS'lend.v.01'
p264
I0
sS'edit.v.03'
p265
I0
sS'pepper.n.03'
p266
I0
sg95
I0
sS'piece.n.08'
p267
I0
sS'jar.n.01'
p268
I0
sg99
I0
sS'teapot.n.01'
p269
I0
sS'put.v.02'
p270
I0
sg93
I0
sS'slice.n.06'
p271
I0
sS'water.n.06'
p272
I0
sg73
I0
sS'thermos.n.01'
p273
I0
sg94
I0
sg68
I2
sg79
I0
sg97
I0
sg96
I0
sg87
I0
sg71
I0
sg74
I0
sg75
I0
ssg47
(dp274
g59
I0
sg46
I0
sg177
I0
sg43
I0
sg44
I0
sg57
I0
sg192
I0
sg60
I0
sg58
I0
sg41
I0
sg42
I0
sg205
I0
sg178
I0
sg47
I0
sg65
I0
sg55
I0
sg56
I0
sg64
I0
sg48
I0
sg61
I0
sg49
I0
sg62
I0
sg53
I0
sg50
I0
sg40
I0
sg202
I0
sg54
I0
sg189
I0
sg52
I0
sg214
I0
sg45
I0
sg187
I0
sg51
I0
sg63
I0
ssg127
(dp275
S'strawberry.n.01'
p276
I0
sg219
I0
sS'bowl.n.01'
p277
I0
sg135
I0
sg130
I0
sg222
I0
sg223
I0
sg224
I0
sg225
I0
sg226
I0
sS'cut.v.01'
p278
I0
sS'cola.n.02'
p279
I0
sg132
I0
sg229
I0
sg230
I0
sg124
I0
sg231
I0
sS'bowl.n.08'
p280
I0
sg233
I0
sg234
I0
sg126
I0
sg242
I0
sS'fork.n.01'
p281
I0
sg129
I0
sS'gravy.n.01'
p282
I0
sg236
I0
sS'gravy.n.02'
p283
I0
sg237
I0
sg125
I0
sg138
I0
sg238
I0
sS'edit.v.03'
p284
I0
sg134
I0
sg240
I0
sg136
I0
sg235
I0
sg243
I0
sg133
I0
sg245
I0
sg246
I0
sg137
I0
sS'cup.n.01'
p285
I0
sg248
I0
sg127
I2
sg131
I0
sg249
I0
sS'jar.n.01'
p286
I0
sg251
I0
sg128
I0
ssg55
(dp287
g138
I0
sg59
I0
sg46
I0
sg163
I0
sg177
I0
sg43
I0
sg44
I0
sg57
I0
sg192
I0
sS'pan.n.01'
p288
I0
sS'pan.n.03'
p289
I0
sg60
I0
sg58
I0
sg41
I0
sg42
I0
sg211
I0
sg215
I0
sg156
I0
sg205
I0
sg178
I0
sS'vanilla.n.03'
p290
I0
sg47
I0
sS'butter.n.01'
p291
I0
sg65
I0
sg55
I0
sg56
I2
sg64
I0
sg150
I0
sg48
I0
sg169
I0
sg61
I0
sg49
I0
sS'boodle.n.01'
p292
I0
sg168
I0
sg62
I0
sg157
I0
sg53
I0
sg50
I0
sg40
I0
sg202
I0
sg54
I0
sg189
I0
sg52
I0
sg148
I0
sg145
I0
sg214
I0
sg45
I0
sg187
I0
sg173
I0
sg51
I0
sS'vanilla.n.02'
p293
I0
sg63
I0
ssg56
(dp294
g138
I0
sg59
I0
sg46
I0
sg163
I0
sg177
I0
sg43
I0
sg44
I0
sg57
I0
sg192
I0
sg288
I0
sg289
I0
sg60
I0
sg58
I0
sg41
I0
sg42
I0
sg211
I0
sg215
I0
sg156
I0
sg205
I0
sg178
I0
sg290
I0
sg47
I0
sg291
I0
sg65
I0
sg55
I0
sg56
I0
sg64
I0
sg150
I0
sg48
I0
sg169
I0
sg61
I0
sg49
I0
sg292
I0
sg168
I0
sg62
I0
sg157
I0
sg53
I0
sg50
I0
sg40
I0
sg202
I0
sg54
I0
sg189
I0
sg52
I0
sg148
I0
sg145
I0
sg214
I0
sg45
I0
sg187
I0
sg173
I0
sg51
I0
sg293
I0
sg63
I0
ssg69
(dp295
g66
I0
sg84
I0
sg83
I0
sg81
I0
sg98
I0
sg77
I0
sg92
I0
sg91
I0
sg90
I0
sg253
I0
sg82
I0
sg254
I0
sg255
I0
sg76
I0
sg256
I0
sg72
I0
sg80
I0
sg257
I0
sg89
I0
sg86
I0
sg88
I0
sg67
I0
sg258
I0
sg259
I0
sg260
I0
sg261
I0
sg85
I0
sg262
I0
sg78
I0
sg69
I0
sg263
I0
sg70
I2
sg264
I0
sg265
I0
sg266
I0
sg95
I0
sg267
I0
sg268
I0
sg99
I0
sg269
I0
sg270
I0
sg93
I0
sg271
I0
sg272
I0
sg73
I0
sg273
I0
sg94
I0
sg68
I0
sg79
I0
sg97
I0
sg96
I0
sg87
I0
sg71
I0
sg74
I0
sg75
I0
ssg70
(dp296
g66
I0
sg84
I0
sg83
I0
sg81
I0
sg98
I0
sg77
I0
sg92
I0
sg91
I0
sg90
I0
sg253
I0
sg82
I0
sg254
I0
sg255
I0
sg76
I0
sg256
I0
sg72
I0
sg80
I0
sg257
I0
sg89
I0
sg86
I0
sg88
I0
sg67
I0
sg258
I0
sg259
I0
sg260
I0
sg261
I0
sg85
I0
sg262
I0
sg78
I0
sg69
I0
sg263
I0
sg70
I0
sg264
I0
sg265
I0
sg266
I0
sg95
I0
sg267
I0
sg268
I0
sg99
I0
sg269
I0
sg270
I0
sg93
I0
sg271
I0
sg272
I0
sg73
I0
sg273
I0
sg94
I0
sg68
I0
sg79
I0
sg97
I0
sg96
I0
sg87
I0
sg71
I0
sg74
I0
sg75
I0
ssg118
(dp297
g123
I0
sg197
I0
sg103
I0
sg120
I0
sg109
I0
sg104
I0
sg191
I0
sS'bowl.n.08'
p298
I0
sS'add.v.01'
p299
I0
sg102
I0
sg193
I0
sg106
I0
sS'cut.v.01'
p300
I0
sg111
I0
sg113
I0
sg212
I0
sg204
I0
sS'fill.v.01'
p301
I0
sg101
I0
sg121
I0
sg112
I0
sg196
I0
sg122
I0
sS'mix.v.05'
p302
I0
sg208
I0
sg206
I0
sS'blend.v.03'
p303
I0
sg195
I0
sS'bowl.n.01'
p304
I0
sg119
I0
sg115
I0
sg118
I0
sS'edit.v.03'
p305
I0
sg199
I0
sg108
I0
sg110
I0
sg180
I0
sg194
I0
sS'piece.n.08'
p306
I0
sg117
I0
sg116
I0
sg114
I0
sg182
I0
sg162
I0
sS'slice.n.06'
p307
I0
sg183
I0
sg184
I0
sg105
I0
sg200
I0
sg201
I0
sg203
I0
sS'lend.v.01'
p308
I0
sS'onion.n.01'
p309
I0
sg209
I0
sg210
I0
sg107
I0
ssg62
(dp310
g138
I1
sg59
I0
sg46
I0
sg163
I0
sg177
I0
sg43
I0
sg44
I0
sg57
I0
sg192
I0
sg288
I0
sg289
I0
sg60
I0
sg58
I0
sg41
I0
sg42
I0
sg211
I0
sg215
I0
sg156
I0
sg205
I0
sg178
I0
sg290
I0
sg47
I0
sg291
I0
sg65
I0
sg55
I0
sg56
I0
sg64
I0
sg150
I0
sg48
I0
sg169
I0
sg61
I0
sg62
I0
sg292
I0
sg168
I0
sg49
I0
sg157
I0
sg53
I0
sg50
I0
sg40
I0
sg202
I0
sg54
I0
sg189
I0
sg52
I0
sg148
I0
sg145
I0
sg214
I0
sg45
I0
sg187
I0
sg173
I0
sg51
I0
sg293
I0
sg63
I1
ssg117
(dp311
g123
I0
sg197
I0
sg103
I0
sg120
I0
sg109
I0
sg104
I0
sg191
I0
sg298
I0
sg299
I0
sg102
I0
sg193
I0
sg106
I0
sg300
I0
sg111
I0
sg113
I0
sg212
I0
sg204
I0
sg301
I0
sg101
I0
sg121
I0
sg112
I0
sg196
I0
sg122
I0
sg302
I0
sg208
I0
sg206
I0
sg303
I0
sg195
I0
sg304
I0
sg119
I0
sg115
I0
sg118
I2
sg305
I0
sg199
I0
sg108
I0
sg110
I0
sg180
I0
sg194
I0
sg306
I0
sg117
I0
sg116
I0
sg114
I0
sg182
I0
sg162
I0
sg307
I0
sg183
I0
sg184
I0
sg105
I0
sg200
I0
sg201
I0
sg203
I0
sg308
I0
sg309
I0
sg209
I0
sg210
I0
sg107
I0
ssg110
(dp312
S'slice.v.03'
p313
I0
sg103
I0
sg120
I0
sg139
I0
sg198
I0
sS'water.n.06'
p314
I0
sg190
I0
sg109
I0
sg104
I0
sg207
I0
sg298
I0
sg299
I0
sg102
I0
sg193
I0
sg106
I0
sg300
I0
sg179
I0
sg111
I0
sg113
I0
sg212
I0
sg301
I0
sg101
I0
sg121
I0
sg112
I0
sg122
I0
sg302
I0
sg213
I0
sg206
I0
sg303
I0
sg304
I0
sg119
I0
sg115
I0
sg118
I0
sg305
I0
sg185
I0
sg108
I0
sg110
I0
sg181
I0
sg306
I0
sg117
I0
sg116
I0
sg114
I0
sg162
I0
sg307
I0
sg183
I0
sg184
I0
sg105
I0
sS'pour.v.01'
p315
I0
sg186
I0
sg308
I0
sg188
I0
sg107
I0
ssg9
(dp316
g123
I0
sS'rice.n.01'
p317
I0
sg28
I0
sS'make.v.02'
p318
I0
sg39
I0
sg14
I0
sg15
I0
sg35
I0
sg16
I0
sg20
I0
sg21
I0
sS'pear.n.02'
p319
I0
sS'bottle.n.01'
p320
I0
sg22
I0
sg13
I0
sS'wok.n.01'
p321
I0
sS'pear.n.01'
p322
I0
sg24
I0
sg23
I0
sS'mix.v.05'
p323
I0
sg32
I0
sg10
I0
sg31
I0
sS'squash.n.02'
p324
I0
sg34
I0
sS'get.v.01'
p325
I0
sg30
I0
sS'walnut.n.02'
p326
I0
sg37
I0
sg29
I0
sS'walnut.n.01'
p327
I0
sg9
I0
sS'cut.v.01'
p328
I0
sS'blend.v.03'
p329
I0
sS'mug.n.04'
p330
I0
sS'fruit_juice.n.01'
p331
I0
sg38
I0
sg8
I0
sg36
I0
sg26
I0
sg25
I0
sg11
I0
sg12
I0
sg203
I0
sg17
I0
sg33
I0
sg27
I0
sg18
I0
sg19
I0
ssg136
(dp332
g217
I0
sg218
I0
sg139
I0
sg219
I0
sg220
I0
sg221
I0
sg135
I0
sg130
I0
sg222
I0
sg223
I0
sg224
I0
sg225
I0
sg226
I0
sg227
I0
sg132
I0
sg228
I0
sg229
I0
sg230
I0
sg124
I0
sg231
I0
sg232
I0
sg233
I0
sg234
I0
sg126
I0
sg235
I0
sg129
I0
sg236
I0
sg237
I0
sg125
I0
sg238
I0
sg239
I0
sg134
I0
sg240
I0
sg241
I0
sg136
I0
sg242
I0
sg243
I0
sg133
I0
sg244
I0
sg245
I0
sg246
I0
sg247
I0
sg137
I0
sg248
I0
sg127
I0
sg131
I0
sg249
I0
sg250
I0
sg251
I0
sg128
I0
ssg50
(dp333
g59
I0
sS'sink.n.01'
p334
I0
sg46
I0
sS'water_system.n.02'
p335
I0
sS'bread.n.01'
p336
I0
sg177
I0
sg43
I0
sg44
I0
sg57
I0
sg192
I0
sS'bag.n.04'
p337
I0
sg60
I0
sg58
I0
sg41
I0
sS'avocado.n.01'
p338
I0
sg42
I0
sg205
I0
sg178
I0
sS'bag.n.01'
p339
I0
sg47
I0
sg65
I0
sg55
I0
sg100
I0
sg56
I0
sg64
I0
sg48
I0
sS'mix.n.03'
p340
I0
sg61
I0
sg49
I0
sS'liquid.n.01'
p341
I0
sg62
I0
sS'concoction.n.01'
p342
I0
sg53
I0
sg50
I2
sS'cesspool.n.01'
p343
I0
sg40
I0
sg202
I0
sS'rice.n.01'
p344
I0
sg54
I0
sg189
I0
sg52
I0
sS'pour.v.01'
p345
I0
sg214
I0
sg45
I0
sg187
I0
sS'cut.n.16'
p346
I0
sg51
I0
sg63
I0
ssg40
(dp347
g59
I0
sg334
I0
sg46
I0
sg335
I0
sg336
I0
sg177
I0
sg43
I0
sg44
I2
sg57
I0
sg192
I0
sg337
I0
sg60
I0
sg58
I0
sg41
I2
sg338
I0
sg42
I0
sg205
I0
sg178
I0
sg339
I0
sg47
I0
sg65
I0
sg55
I0
sg100
I0
sg56
I0
sg64
I0
sg48
I0
sg340
I0
sg61
I0
sg49
I0
sg341
I0
sg62
I0
sg342
I0
sg53
I0
sg50
I0
sg343
I0
sg40
I0
sg202
I0
sg344
I0
sg54
I0
sg189
I0
sg52
I0
sg345
I0
sg214
I0
sg45
I0
sg187
I0
sg346
I0
sg51
I0
sg63
I0
ssg8
(dp348
g123
I0
sg317
I0
sg28
I0
sg318
I0
sg39
I0
sg14
I0
sg15
I0
sg35
I0
sg16
I0
sg20
I0
sg21
I0
sg319
I0
sg320
I0
sg22
I0
sg13
I0
sg321
I0
sg322
I0
sg24
I0
sg23
I0
sg323
I0
sg32
I0
sg10
I0
sg31
I0
sg324
I0
sg34
I0
sg325
I0
sg30
I0
sg326
I0
sg37
I0
sg29
I0
sg327
I0
sg9
I2
sg328
I0
sg329
I0
sg330
I0
sg331
I0
sg38
I0
sg8
I0
sg36
I0
sg26
I0
sg25
I0
sg11
I0
sg12
I0
sg203
I0
sg17
I0
sg33
I0
sg27
I0
sg18
I0
sg19
I0
ssg39
(dp349
g14
I0
sg35
I0
sg60
I0
sg132
I0
sg67
I0
sg47
I0
sg127
I0
sg55
I0
sg56
I0
sg69
I0
sg70
I0
sg138
I0
sg62
I0
sg241
I0
sg9
I0
sg136
I0
sg50
I0
sg40
I0
sg8
I0
sg26
I0
sg25
I0
sg134
I0
sg94
I0
sg129
I0
sg131
I0
sg33
I0
sg51
I0
sg137
I0
sg81
I0
sg98
I0
sg54
I0
sg39
I8
sg220
I0
sg90
I0
sg44
I0
sg222
I0
sg16
I0
sg20
I0
sg226
I0
sg21
I0
sg41
I0
sg57
I0
sg24
I0
sg23
I0
sg10
I0
sg125
I0
sg48
I0
sg29
I0
sg133
I0
sg49
I0
sg38
I0
sg11
I0
sg52
I0
sg12
I0
sg17
I0
sg45
I0
sg27
I0
sg74
I0
sg75
I0
sg59
I0
sg84
I0
sg83
I0
sg28
I0
sg46
I0
sg218
I0
sg139
I0
sg135
I0
sg76
I0
sg42
I0
sg124
I0
sg13
I0
sg232
I0
sg95
I0
sg77
I0
sg31
I0
sg78
I0
sg30
I0
sg37
I0
sg63
I0
sg15
I0
sg92
I2
sg221
I0
sg73
I0
sg71
I0
sg87
I0
sg18
I0
sg19
I0
sg66
I0
sg36
I0
sg100
I0
sg91
I0
sg43
I0
sg82
I0
sg130
I0
sg224
I0
sg58
I0
sg228
I0
sg72
I0
sg22
I0
sg89
I0
sg86
I0
sg88
I0
sg85
I0
sg126
I0
sg65
I0
sg32
I0
sg64
I0
sg34
I0
sg96
I0
sg61
I0
sg240
I0
sg53
I0
sg99
I0
sg93
I0
sg68
I0
sg79
I0
sg97
I0
sg128
I0
sg80
I0
sg250
I0
ssg25
(dp350
g14
I0
sg35
I0
sg300
I0
sg144
I0
sg146
I0
sg147
I0
sg118
I0
sg117
I0
sg110
I0
sg9
I0
sg181
I0
sg8
I0
sg39
I0
sg25
I0
sg185
I0
sg315
I0
sg213
I0
sg186
I0
sg33
I0
sg188
I0
sg149
I0
sg26
I8
sg190
I0
sg109
I0
sg15
I0
sg16
I0
sg20
I0
sg106
I0
sg21
I0
sg24
I0
sg23
I0
sg10
I0
sg179
I0
sg119
I0
sg115
I0
sg29
I0
sg198
I0
sS'pepper.n.03'
p351
I0
sg114
I0
sg38
I0
sg11
I0
sg12
I0
sg17
I0
sg27
I0
sg151
I0
sg152
I0
sg153
I0
sg154
I0
sg28
I0
sg103
I0
sg120
I0
sg139
I0
sg104
I0
sg155
I0
sg122
I0
sg113
I0
sg13
I0
sg101
I0
sg121
I0
sg112
I0
sg158
I0
sg207
I0
sg159
I0
sg30
I0
sg37
I0
sg116
I0
sg307
I0
sg160
I0
sg105
I0
sg18
I0
sg19
I0
sg123
I0
sg161
I0
sg36
I0
sg164
I0
sg31
I0
sg102
I0
sg111
I0
sg165
I0
sg22
I0
sg166
I0
sg167
I0
sg302
I0
sg32
I0
sg303
I0
sg34
I0
sg305
I0
sg170
I0
sg108
I0
sS'piece.n.08'
p352
I0
sg162
I0
sg171
I0
sg172
I0
sg174
I0
sg107
I0
ssg134
(dp353
g217
I0
sg218
I0
sg139
I0
sg219
I0
sg220
I0
sg221
I0
sg135
I0
sg130
I0
sg222
I0
sg223
I0
sg224
I0
sg225
I0
sg226
I0
sg227
I0
sg132
I0
sg228
I0
sg229
I0
sg230
I0
sg124
I0
sg231
I0
sg232
I0
sg233
I0
sg234
I0
sg126
I0
sg235
I0
sg129
I0
sg236
I0
sg237
I0
sg125
I0
sg238
I0
sg239
I0
sg134
I2
sg240
I0
sg241
I0
sg136
I0
sg242
I0
sg243
I0
sg133
I0
sg244
I0
sg245
I0
sg246
I0
sg247
I0
sg137
I0
sg248
I0
sg127
I0
sg131
I0
sg249
I0
sg250
I0
sg251
I0
sg128
I0
ssg94
(dp354
g277
I0
sg280
I0
sg278
I0
sg67
I0
sg127
I0
sg282
I0
sg283
I0
sg69
I0
sg70
I0
sg138
I0
sg281
I0
sg241
I0
sg136
I0
sS'whiskey.n.01'
p355
I0
sS'opening.n.01'
p356
I0
sg71
I0
sg272
I0
sg247
I0
sg94
I6
sg131
I0
sg286
I0
sS'carafe.n.01'
p357
I0
sg137
I0
sg125
I0
sg81
I0
sg98
I0
sg271
I0
sg244
I0
sg220
I0
sg90
I0
sS'opening.n.10'
p358
I0
sg255
I0
sg225
I0
sg226
I0
sS'gap.n.03'
p359
I0
sg285
I0
sg233
I0
sg234
I0
sg260
I0
sg132
I0
sS'pepper.n.04'
p360
I0
sg266
I0
sg133
I0
sg134
I0
sS'kettle.n.01'
p361
I0
sg264
I0
sS'curd.n.01'
p362
I0
sS'onion.n.01'
p363
I0
sg74
I0
sg128
I0
sg276
I0
sg84
I0
sg83
I0
sS'carve.v.03'
p364
I0
sg218
I0
sg139
I0
sg135
I0
sg76
I0
sS'fill.v.09'
p365
I0
sg124
I0
sS'fill.v.01'
p366
I0
sg232
I0
sg95
I0
sg77
I0
sg130
I0
sg78
I0
sg92
I0
sg221
I0
sg73
I0
sg222
I0
sg87
I0
sg66
I0
sg100
I0
sg91
I0
sS'batter.n.02'
p367
I0
sg82
I0
sg224
I0
sg279
I0
sg228
I0
sg72
I0
sg80
I0
sg89
I0
sg86
I0
sg88
I0
sg85
I0
sg126
I0
sg258
I0
sg129
I0
sg261
I0
sg96
I0
sg265
I0
sg240
I0
sg267
I0
sg99
I0
sg93
I0
sg68
I0
sg79
I0
sg97
I0
sg75
I0
sg251
I0
sg250
I0
ssg129
(dp368
g217
I0
sg218
I0
sg139
I0
sg219
I0
sg220
I0
sg221
I0
sg135
I0
sg130
I0
sg222
I0
sg223
I0
sg224
I0
sg225
I0
sg226
I0
sg227
I0
sg132
I0
sg228
I0
sg229
I0
sg230
I0
sg124
I0
sg231
I0
sg232
I0
sg233
I0
sg234
I0
sg126
I0
sg235
I0
sg129
I2
sg236
I0
sg237
I0
sg125
I0
sg238
I0
sg239
I0
sg134
I0
sg240
I0
sg241
I0
sg136
I0
sg242
I0
sg243
I0
sg133
I0
sg244
I0
sg245
I0
sg246
I0
sg247
I0
sg137
I0
sg248
I0
sg127
I0
sg131
I0
sg249
I0
sg250
I0
sg251
I0
sg128
I0
ssg131
(dp369
g217
I0
sg218
I0
sg139
I0
sg219
I0
sg220
I0
sg221
I0
sg135
I0
sg130
I0
sg222
I0
sg223
I0
sg224
I0
sg225
I0
sg226
I0
sg227
I0
sg132
I0
sg228
I0
sg229
I0
sg230
I0
sg124
I0
sg231
I0
sg232
I0
sg233
I0
sg234
I0
sg126
I0
sg235
I0
sg129
I0
sg236
I0
sg237
I0
sg125
I0
sg238
I0
sg239
I0
sg134
I0
sg240
I0
sg241
I0
sg136
I0
sg242
I0
sg243
I0
sg133
I0
sg244
I0
sg245
I0
sg246
I0
sg247
I0
sg137
I0
sg248
I0
sg127
I0
sg131
I0
sg249
I0
sg250
I0
sg251
I0
sg128
I0
ssg33
(dp370
g14
I0
sg35
I0
sg60
I0
sg144
I0
sg47
I0
sg145
I0
sg55
I0
sg56
I0
sg146
I0
sg147
I0
sg138
I0
sg62
I0
sg9
I0
sg50
I0
sg40
I0
sg8
I0
sg39
I0
sg25
I0
sg148
I0
sg33
I4
sg51
I0
sg149
I0
sg26
I0
sg44
I0
sg16
I0
sg20
I0
sg289
I0
sg21
I0
sg41
I0
sg57
I0
sg24
I0
sg23
I0
sg10
I0
sg150
I0
sg48
I0
sg29
I0
sg49
I0
sg38
I0
sg11
I0
sg52
I0
sg12
I0
sg169
I0
sg45
I0
sg27
I0
sg151
I0
sg152
I0
sg59
I0
sg153
I0
sg154
I0
sg28
I0
sg46
I0
sg155
I0
sg42
I0
sg156
I0
sg13
I0
sg157
I0
sg158
I0
sg31
I0
sg159
I0
sg30
I0
sg37
I0
sg63
I0
sg15
I0
sg54
I0
sg160
I0
sg170
I0
sg18
I0
sg19
I0
sg161
I0
sg163
I0
sg43
I0
sg164
I0
sg58
I0
sg165
I0
sg22
I0
sg166
I0
sg167
I0
sg168
I0
sg65
I0
sg32
I0
sg64
I0
sg34
I0
sg17
I0
sg61
I0
sg292
I0
sg53
I0
sg36
I0
sg171
I0
sg172
I0
sg173
I0
sg174
I0
ssg51
(dp371
g59
I0
sg334
I0
sg46
I0
sg335
I0
sg336
I0
sg177
I0
sg43
I0
sg44
I0
sg57
I0
sg192
I0
sg337
I0
sg60
I0
sg58
I0
sg41
I0
sg338
I0
sg42
I0
sg205
I0
sg178
I0
sg339
I0
sg47
I0
sg65
I0
sg55
I0
sg100
I0
sg56
I0
sg64
I0
sg48
I0
sg340
I0
sg61
I0
sg49
I0
sg341
I0
sg62
I0
sg342
I0
sg53
I0
sg50
I0
sg343
I0
sg40
I0
sg51
I2
sg344
I0
sg54
I0
sg189
I0
sg52
I0
sg345
I0
sg214
I0
sg45
I0
sg187
I0
sg346
I0
sg202
I0
sg63
I0
ssg137
(dp372
g217
I0
sg218
I0
sg139
I0
sg219
I0
sg220
I0
sg221
I0
sg135
I0
sg130
I0
sg222
I0
sg223
I0
sg224
I0
sg225
I0
sg226
I0
sg227
I0
sg132
I0
sg228
I0
sg229
I0
sg230
I0
sg124
I0
sg231
I0
sg232
I0
sg233
I0
sg234
I0
sg126
I0
sg235
I0
sg129
I0
sg236
I0
sg237
I0
sg125
I0
sg238
I0
sg239
I0
sg134
I0
sg240
I0
sg241
I0
sg136
I0
sg242
I0
sg243
I0
sg133
I0
sg244
I0
sg245
I0
sg246
I0
sg247
I0
sg137
I0
sg248
I2
sg127
I0
sg131
I0
sg249
I0
sg250
I0
sg251
I0
sg128
I0
ssg81
(dp373
g66
I0
sg84
I0
sg83
I0
sg81
I0
sg98
I0
sg77
I0
sg92
I0
sg91
I0
sg90
I0
sg253
I0
sg82
I2
sg254
I0
sg255
I0
sg76
I0
sg256
I0
sg72
I0
sg80
I0
sg257
I0
sg89
I0
sg86
I0
sg88
I0
sg67
I0
sg258
I0
sg259
I0
sg260
I0
sg261
I0
sg85
I0
sg262
I0
sg78
I0
sg69
I0
sg263
I0
sg70
I0
sg264
I0
sg265
I0
sg266
I0
sg95
I0
sg267
I0
sg268
I0
sg99
I0
sg269
I0
sg270
I0
sg93
I0
sg271
I0
sg272
I0
sg73
I0
sg273
I0
sg94
I0
sg68
I0
sg79
I0
sg97
I0
sg96
I0
sg87
I0
sg71
I0
sg74
I0
sg75
I0
ssg98
(dp374
g66
I0
sg84
I0
sg83
I0
sg81
I0
sg98
I0
sg77
I0
sg364
I0
sg92
I0
sg91
I0
sg90
I0
sg367
I0
sg82
I0
sg358
I0
sg255
I0
sg76
I0
sg359
I0
sg365
I0
sg72
I0
sg80
I0
sg100
I0
sg366
I0
sg89
I0
sg86
I0
sg88
I0
sg67
I0
sg258
I0
sg260
I0
sg261
I0
sg85
I0
sg78
I0
sg69
I0
sg360
I0
sg70
I0
sg264
I0
sg265
I0
sg266
I0
sg362
I0
sg95
I0
sg267
I0
sg355
I0
sg99
I2
sg356
I0
sg357
I0
sg93
I0
sg271
I0
sg272
I0
sg73
I0
sg361
I0
sg94
I0
sg68
I0
sg79
I0
sg97
I0
sg96
I0
sg87
I0
sg363
I0
sg71
I0
sg74
I0
sg75
I0
ssg54
(dp375
g177
I0
sg178
I0
sg60
I0
sg132
I0
sg67
I0
sg47
I0
sg127
I0
sg55
I0
sg56
I0
sg69
I0
sg70
I0
sg118
I0
sg62
I0
sg117
I0
sg110
I0
sg136
I0
sg50
I0
sg40
I0
sg183
I0
sg184
I0
sg94
I0
sg131
I0
sg187
I0
sg51
I0
sg137
I0
sg81
I0
sg98
I0
sg54
I0
sg189
I0
sg135
I0
sg90
I0
sg44
I0
sg192
I0
sg122
I0
sg193
I0
sg106
I0
sg41
I0
sg57
I0
sg233
I0
sg234
I0
sg260
I0
sg125
I0
sg119
I0
sg115
I0
sg48
I0
sg49
I0
sg133
I0
sg134
I0
sg114
I0
sg52
I0
sg96
I0
sg45
I0
sg202
I0
sg74
I0
sg75
I0
sg59
I0
sg84
I0
sg83
I0
sg46
I0
sg103
I0
sg120
I0
sg139
I0
sg104
I0
sg76
I0
sg42
I0
sg113
I0
sg124
I0
sg205
I0
sg101
I0
sg121
I0
sg112
I0
sg95
I0
sg100
I0
sg130
I0
sg78
I0
sg63
I0
sg116
I0
sg92
I0
sg109
I0
sg73
I0
sg105
I0
sg87
I0
sg66
I0
sg77
I0
sg91
I0
sg43
I0
sg82
I0
sg102
I0
sg58
I0
sg111
I0
sg72
I0
sg71
I0
sg89
I0
sg86
I0
sg88
I0
sg85
I0
sg126
I0
sg65
I0
sg129
I0
sg64
I0
sg138
I0
sg214
I0
sg61
I0
sg108
I0
sg53
I0
sg99
I0
sg80
I0
sg93
I0
sg68
I0
sg79
I0
sg97
I0
sg128
I0
sg212
I0
sg107
I0
ssg26
(dp376
g14
I0
sg35
I0
sg300
I0
sg144
I0
sg146
I0
sg147
I0
sg118
I0
sg117
I0
sg110
I0
sg9
I0
sg181
I0
sg8
I0
sg39
I0
sg25
I0
sg185
I0
sg315
I0
sg213
I0
sg186
I0
sg33
I0
sg188
I0
sg149
I0
sg26
I0
sg190
I0
sg109
I0
sg15
I0
sg16
I0
sg20
I0
sg106
I0
sg21
I0
sg24
I0
sg23
I0
sg10
I0
sg179
I0
sg119
I0
sg115
I0
sg29
I0
sg198
I0
sg351
I0
sg114
I0
sg38
I0
sg11
I0
sg12
I0
sg17
I0
sg27
I0
sg151
I0
sg152
I0
sg153
I0
sg154
I0
sg28
I0
sg103
I0
sg120
I0
sg139
I0
sg104
I0
sg155
I0
sg122
I0
sg113
I0
sg13
I0
sg101
I0
sg121
I0
sg112
I0
sg158
I0
sg207
I0
sg159
I0
sg30
I0
sg37
I0
sg116
I0
sg307
I0
sg160
I0
sg105
I0
sg18
I0
sg19
I0
sg123
I0
sg161
I0
sg36
I0
sg164
I0
sg31
I0
sg102
I0
sg111
I0
sg165
I0
sg22
I0
sg166
I0
sg167
I0
sg302
I0
sg32
I0
sg303
I0
sg34
I0
sg305
I0
sg170
I0
sg108
I0
sg352
I0
sg162
I0
sg171
I0
sg172
I0
sg174
I0
sg107
I0
ssg135
(dp377
g217
I0
sg218
I0
sg139
I0
sg219
I0
sg220
I0
sg221
I0
sg135
I0
sg130
I0
sg222
I0
sg223
I0
sg224
I0
sg225
I0
sg226
I0
sg227
I0
sg132
I0
sg228
I0
sg229
I0
sg230
I0
sg124
I0
sg231
I0
sg232
I0
sg233
I0
sg234
I0
sg126
I0
sg235
I0
sg129
I0
sg236
I0
sg237
I0
sg125
I0
sg238
I0
sg239
I0
sg134
I0
sg240
I0
sg241
I0
sg136
I2
sg242
I0
sg243
I0
sg133
I0
sg244
I0
sg245
I0
sg246
I0
sg247
I0
sg137
I0
sg248
I0
sg127
I0
sg131
I0
sg249
I0
sg250
I0
sg251
I0
sg128
I0
ssg90
(dp378
g66
I0
sg84
I0
sg83
I0
sg81
I0
sg98
I0
sg77
I0
sg364
I0
sg92
I0
sg91
I0
sg90
I2
sg367
I0
sg82
I0
sg358
I0
sg255
I0
sg76
I0
sg359
I0
sg365
I0
sg72
I0
sg80
I0
sg100
I0
sg366
I0
sg89
I0
sg86
I0
sg88
I0
sg67
I0
sg258
I0
sg260
I0
sg261
I0
sg79
I0
sg78
I0
sg69
I0
sg360
I0
sg70
I0
sg96
I0
sg265
I0
sg266
I0
sg362
I0
sg95
I0
sg85
I0
sg267
I0
sg355
I0
sg99
I0
sg356
I0
sg357
I0
sg93
I0
sg271
I0
sg272
I0
sg73
I0
sg361
I0
sg94
I0
sg68
I0
sg264
I0
sg97
I0
sg87
I0
sg363
I0
sg71
I0
sg74
I0
sg75
I0
ssg44
(dp379
g59
I0
sg334
I0
sg46
I0
sg335
I0
sg336
I0
sg177
I0
sg43
I0
sg44
I0
sg57
I0
sg192
I0
sg337
I0
sg60
I0
sg58
I0
sg41
I0
sg338
I0
sg42
I0
sg205
I0
sg178
I0
sg339
I0
sg47
I0
sg65
I0
sg55
I0
sg100
I0
sg56
I0
sg64
I0
sg48
I0
sg340
I0
sg61
I0
sg49
I0
sg341
I0
sg62
I0
sg342
I0
sg53
I0
sg50
I0
sg343
I0
sg40
I0
sg202
I0
sg344
I0
sg54
I0
sg189
I0
sg52
I0
sg345
I0
sg214
I0
sg45
I0
sg187
I0
sg346
I0
sg51
I0
sg63
I0
ssg105
(dp380
g236
I0
sg103
I0
sg120
I0
sg139
I0
sg133
I0
sg219
I0
sg246
I0
sg109
I0
sg126
I0
sg104
I0
sg130
I0
sg298
I0
sg299
I0
sg102
I0
sg193
I0
sg106
I0
sg300
I0
sg125
I0
sg111
I0
sg113
I0
sg229
I0
sg212
I0
sg124
I0
sg301
I0
sg132
I0
sg101
I0
sg121
I0
sg112
I0
sg234
I0
sg122
I0
sg302
I0
sg129
I0
sg206
I0
sg303
I0
sg233
I0
sg304
I0
sg119
I0
sg115
I0
sg118
I0
sg238
I0
sg305
I0
sg134
I0
sg108
I0
sg110
I0
sg136
I0
sg242
I0
sg306
I0
sg117
I0
sg116
I0
sg114
I0
sg162
I0
sg307
I0
sg183
I0
sg184
I0
sg105
I4
sg248
I0
sg127
I0
sg131
I0
sg308
I0
sg137
I0
sg128
I0
sg230
I0
sg135
I0
sg107
I0
ssg16
(dp381
g14
I0
sg35
I0
sg60
I0
sg132
I0
sg67
I0
sg47
I0
sg127
I0
sg55
I0
sg56
I0
sg69
I0
sg70
I0
sg118
I0
sg62
I0
sg117
I0
sg110
I0
sg9
I0
sg136
I0
sg50
I0
sg40
I0
sg8
I0
sg39
I0
sg25
I0
sg134
I0
sg94
I0
sg129
I0
sg131
I0
sg33
I0
sg51
I0
sg137
I0
sg81
I0
sg98
I0
sg54
I0
sg26
I0
sg135
I0
sg90
I0
sg44
I0
sg105
I0
sg16
I0
sg122
I0
sg20
I0
sg106
I0
sg21
I0
sg41
I0
sg57
I0
sg24
I0
sg23
I0
sg10
I0
sg125
I0
sg119
I0
sg115
I0
sg48
I0
sg29
I0
sg133
I0
sg49
I0
sg114
I0
sg38
I0
sg11
I0
sg52
I0
sg12
I0
sg17
I14
sg45
I0
sg27
I0
sg74
I0
sg75
I0
sg59
I0
sg84
I0
sg83
I0
sg28
I0
sg46
I0
sg103
I0
sg120
I0
sg139
I0
sg104
I0
sg76
I0
sg42
I0
sg113
I0
sg124
I0
sg13
I0
sg101
I0
sg121
I0
sg112
I0
sg95
I0
sg77
I0
sg31
I0
sg78
I0
sg30
I0
sg37
I0
sg63
I0
sg15
I0
sg116
I0
sg92
I0
sg109
I0
sg73
I0
sg71
I0
sg87
I0
sg18
I0
sg19
I0
sg123
I0
sg66
I0
sg36
I0
sg91
I0
sg43
I0
sg82
I0
sg130
I0
sg102
I0
sg58
I0
sg111
I0
sg72
I0
sg22
I0
sg89
I0
sg86
I0
sg88
I0
sg85
I0
sg126
I0
sg65
I0
sg32
I0
sg64
I0
sg34
I0
sg138
I0
sg96
I0
sg61
I0
sg108
I0
sg53
I0
sg99
I0
sg93
I0
sg68
I0
sg79
I0
sg97
I0
sg128
I0
sg80
I0
sg107
I0
ssg122
(dp382
g123
I0
sg162
I0
sg197
I0
sg103
I0
sg120
I0
sg109
I0
sg104
I0
sg191
I0
sg298
I0
sg299
I0
sg102
I0
sg193
I0
sg106
I0
sg300
I0
sg122
I0
sg113
I0
sg212
I0
sg204
I0
sg301
I0
sg101
I0
sg121
I0
sg112
I0
sg196
I0
sg302
I0
sg208
I0
sg206
I0
sg303
I0
sg195
I0
sg304
I0
sg119
I0
sg115
I0
sg118
I0
sg305
I0
sg199
I0
sg108
I0
sg110
I0
sg180
I0
sg194
I0
sg306
I0
sg117
I0
sg116
I0
sg114
I0
sg182
I0
sg111
I0
sg307
I0
sg183
I0
sg184
I0
sg105
I0
sg200
I0
sg201
I0
sg203
I0
sg308
I0
sg309
I0
sg209
I0
sg210
I0
sg107
I0
ssg20
(dp383
g14
I0
sg35
I0
sg300
I0
sg127
I0
sg282
I0
sg283
I0
sg118
I0
sg281
I0
sg117
I0
sg110
I0
sg9
I0
sg136
I0
sg8
I0
sg39
I0
sg25
I0
sg248
I0
sg32
I0
sg131
I0
sg33
I0
sg137
I0
sg26
I0
sg135
I0
sg109
I0
sg15
I0
sg16
I0
sg20
I0
sg106
I6
sg21
I2
sg132
I0
sg285
I0
sg24
I0
sg23
I0
sg10
I0
sg125
I0
sg119
I0
sg115
I0
sg29
I0
sg133
I0
sg134
I0
sg114
I0
sg38
I0
sg11
I0
sg12
I0
sg238
I0
sg27
I0
sg203
I0
sg128
I0
sg276
I0
sg28
I0
sg103
I0
sg120
I0
sg139
I0
sg104
I0
sg122
I0
sg113
I0
sg124
I0
sg13
I0
sg101
I0
sg121
I0
sg112
I0
sg242
I0
sg206
I0
sg130
I0
sg30
I0
sg37
I0
sg116
I0
sg307
I0
sg105
I0
sg18
I0
sg19
I0
sg123
I0
sg36
I0
sg219
I0
sg31
I0
sg102
I0
sg279
I0
sg111
I0
sg229
I0
sg22
I0
sg126
I0
sg302
I0
sg129
I0
sg303
I0
sg34
I0
sg138
I0
sg17
I0
sg305
I0
sg108
I0
sg306
I0
sg162
I0
sg230
I0
sg107
I0
ssg106
(dp384
g138
I0
sg276
I0
sg236
I0
sg103
I0
sg120
I0
sg139
I0
sg133
I0
sg219
I0
sg246
I0
sg109
I0
sg126
I0
sg104
I0
sg130
I0
sg298
I0
sg299
I0
sg102
I0
sg193
I0
sg106
I0
sg300
I0
sg279
I0
sg125
I0
sg111
I0
sg113
I0
sg229
I0
sg212
I0
sg124
I0
sg301
I0
sg132
I0
sg101
I0
sg121
I0
sg112
I0
sg234
I0
sg122
I0
sg302
I0
sg281
I0
sg129
I0
sg282
I0
sg206
I0
sg283
I0
sg303
I0
sg233
I0
sg304
I0
sg119
I0
sg115
I0
sg118
I0
sg238
I0
sg305
I0
sg134
I0
sg108
I0
sg110
I0
sg136
I0
sg242
I0
sg306
I0
sg117
I0
sg286
I0
sg116
I0
sg114
I0
sg162
I0
sg307
I0
sg183
I0
sg184
I0
sg105
I0
sg285
I0
sg248
I0
sg127
I0
sg131
I0
sg308
I0
sg137
I0
sg128
I0
sg230
I0
sg135
I0
sg107
I0
ssg21
(dp385
g123
I0
sg317
I0
sg28
I0
sg318
I0
sg39
I0
sg14
I0
sg15
I0
sg35
I0
sg16
I0
sg20
I0
sg21
I0
sg319
I0
sg320
I0
sg22
I0
sg13
I0
sg321
I0
sg322
I0
sg24
I0
sg23
I0
sg323
I0
sg32
I0
sg10
I0
sg31
I0
sg324
I0
sg34
I0
sg325
I0
sg30
I0
sg326
I0
sg37
I0
sg29
I0
sg327
I0
sg9
I0
sg328
I0
sg329
I0
sg330
I0
sg331
I0
sg38
I0
sg8
I0
sg36
I0
sg26
I0
sg25
I0
sg11
I0
sg12
I0
sg203
I0
sg17
I0
sg33
I0
sg27
I0
sg18
I0
sg19
I0
ssg41
(dp386
g59
I0
sg334
I0
sg46
I0
sg335
I0
sg336
I0
sg177
I0
sg43
I0
sg44
I0
sg57
I0
sg192
I0
sg337
I0
sg60
I0
sg58
I0
sg41
I0
sg338
I0
sg42
I0
sg205
I0
sg178
I0
sg339
I0
sg47
I0
sg65
I0
sg55
I0
sg100
I0
sg56
I0
sg64
I0
sg48
I0
sg340
I0
sg61
I0
sg49
I0
sg341
I0
sg62
I0
sg342
I0
sg53
I0
sg50
I0
sg343
I0
sg40
I0
sg202
I0
sg344
I0
sg54
I0
sg189
I0
sg52
I0
sg345
I0
sg214
I0
sg45
I0
sg187
I0
sg346
I0
sg51
I0
sg63
I0
ssg57
(dp387
g138
I0
sg59
I0
sg46
I0
sg163
I0
sg177
I0
sg43
I0
sg44
I0
sg57
I2
sg192
I0
sg288
I0
sg289
I0
sg60
I0
sg58
I0
sg41
I0
sg42
I0
sg211
I0
sg215
I0
sg156
I0
sg205
I0
sg178
I0
sg290
I0
sg47
I0
sg291
I0
sg65
I0
sg55
I0
sg56
I0
sg64
I0
sg150
I0
sg48
I0
sg169
I0
sg61
I0
sg49
I0
sg292
I0
sg168
I0
sg62
I0
sg157
I0
sg53
I0
sg50
I0
sg40
I0
sg202
I0
sg54
I0
sg189
I0
sg52
I0
sg148
I0
sg145
I0
sg214
I0
sg45
I0
sg187
I0
sg173
I0
sg51
I0
sg293
I0
sg63
I0
ssg24
(dp388
g123
I0
sg276
I0
sg317
I0
sg240
I0
sg28
I0
sg285
I0
sg318
I0
sg284
I0
sg133
I0
sg39
I0
sg248
I0
sg14
I0
sg222
I0
sg129
I0
sg135
I0
sg15
I0
sg35
I0
sg16
I0
sg224
I0
sg20
I0
sg226
I0
sg21
I0
sg279
I0
sg125
I0
sg319
I0
sg320
I0
sg229
I0
sg22
I0
sg124
I0
sg13
I0
sg132
I0
sg321
I0
sg322
I0
sg24
I0
sg23
I0
sg126
I0
sg323
I0
sg127
I0
sg32
I0
sg130
I0
sg282
I0
sg10
I0
sg283
I0
sg31
I0
sg324
I0
sg34
I0
sg325
I0
sg30
I0
sg326
I0
sg238
I0
sg37
I0
sg29
I0
sg327
I0
sg9
I0
sg328
I0
sg134
I0
sg242
I0
sg243
I0
sg219
I0
sg329
I0
sg230
I0
sg330
I0
sg331
I0
sg38
I0
sg8
I0
sg281
I0
sg36
I0
sg245
I0
sg26
I0
sg25
I0
sg137
I0
sg11
I0
sg136
I0
sg12
I0
sg203
I0
sg131
I0
sg17
I0
sg138
I0
sg33
I0
sg27
I0
sg18
I0
sg19
I0
sg128
I0
ssg23
(dp389
g123
I0
sg276
I0
sg317
I0
sg240
I0
sg28
I0
sg285
I0
sg318
I0
sg284
I0
sg133
I0
sg39
I0
sg248
I0
sg14
I0
sg222
I0
sg129
I0
sg135
I0
sg15
I0
sg35
I0
sg16
I0
sg224
I0
sg20
I0
sg226
I0
sg21
I0
sg279
I0
sg125
I0
sg319
I0
sg320
I0
sg229
I0
sg22
I0
sg124
I0
sg13
I0
sg132
I0
sg321
I0
sg322
I0
sg24
I4
sg23
I0
sg126
I0
sg323
I0
sg127
I0
sg32
I0
sg130
I0
sg282
I0
sg10
I0
sg283
I0
sg31
I0
sg324
I0
sg34
I0
sg325
I0
sg30
I0
sg326
I0
sg238
I0
sg37
I0
sg29
I0
sg327
I0
sg9
I0
sg328
I0
sg134
I0
sg242
I0
sg243
I0
sg219
I0
sg329
I0
sg230
I0
sg330
I0
sg331
I0
sg38
I0
sg8
I0
sg281
I0
sg36
I0
sg245
I0
sg26
I0
sg25
I0
sg137
I0
sg11
I0
sg136
I0
sg12
I0
sg203
I0
sg131
I0
sg17
I0
sg138
I0
sg33
I0
sg27
I0
sg18
I0
sg19
I0
sg128
I0
ssg10
(dp390
g14
I0
sg35
I0
sg328
I0
sg67
I0
sg127
I0
sg69
I0
sg70
I0
sg326
I0
sg327
I0
sg241
I0
sg9
I0
sg136
I0
sg8
I0
sg39
I0
sg25
I0
sg134
I0
sg94
I0
sg129
I0
sg131
I0
sg33
I0
sg137
I0
sg81
I0
sg98
I0
sg271
I0
sg26
I0
sg220
I0
sg90
I0
sg15
I0
sg222
I0
sg16
I0
sg20
I0
sg226
I0
sg21
I0
sg132
I0
sg24
I0
sg23
I0
sg10
I8
sg125
I0
sg325
I0
sg321
I0
sg29
I0
sg133
I0
sg266
I0
sg331
I0
sg38
I0
sg11
I0
sg12
I0
sg96
I0
sg27
I0
sg74
I0
sg75
I0
sg84
I0
sg83
I0
sg28
I0
sg218
I0
sg318
I0
sg139
I0
sg135
I0
sg76
I0
sg232
I0
sg320
I0
sg124
I0
sg13
I0
sg319
I0
sg322
I0
sg324
I0
sg95
I0
sg77
I0
sg31
I0
sg78
I0
sg30
I0
sg37
I0
sg330
I0
sg92
I0
sg221
I0
sg73
I0
sg71
I0
sg87
I0
sg18
I0
sg19
I0
sg123
I0
sg66
I0
sg36
I0
sg91
I0
sg82
I0
sg130
I0
sg224
I0
sg228
I0
sg72
I0
sg22
I0
sg89
I0
sg86
I0
sg88
I0
sg85
I0
sg126
I0
sg258
I0
sg32
I0
sg261
I0
sg34
I0
sg17
I0
sg265
I0
sg240
I0
sg267
I0
sg99
I0
sg93
I0
sg68
I0
sg79
I0
sg97
I0
sg128
I0
sg80
I0
sg250
I0
ssg125
(dp391
g276
I0
sg219
I0
sg277
I0
sg135
I0
sg130
I0
sg222
I0
sg223
I0
sg224
I0
sg225
I0
sg226
I0
sg278
I0
sg279
I0
sg132
I0
sg229
I0
sg230
I0
sg124
I0
sg231
I0
sg280
I0
sg233
I0
sg234
I0
sg126
I0
sg235
I0
sg281
I0
sg242
I0
sg129
I0
sg282
I0
sg236
I0
sg283
I0
sg237
I0
sg125
I0
sg138
I0
sg238
I0
sg284
I0
sg134
I0
sg240
I2
sg136
I0
sg127
I0
sg243
I0
sg133
I0
sg245
I0
sg246
I0
sg137
I0
sg285
I0
sg248
I0
sg131
I0
sg249
I0
sg286
I0
sg251
I0
sg128
I0
ssg119
(dp392
g123
I0
sg197
I0
sg103
I0
sg120
I2
sg109
I0
sg104
I0
sg191
I0
sg298
I0
sg299
I0
sg102
I0
sg193
I0
sg106
I0
sg300
I0
sg111
I0
sg113
I0
sg212
I0
sg204
I0
sg301
I0
sg101
I0
sg121
I0
sg112
I0
sg196
I0
sg122
I0
sg302
I0
sg208
I0
sg206
I0
sg303
I0
sg195
I0
sg304
I0
sg119
I0
sg115
I0
sg118
I0
sg305
I0
sg199
I0
sg108
I0
sg110
I0
sg180
I0
sg194
I0
sg306
I0
sg117
I0
sg116
I0
sg114
I0
sg182
I0
sg162
I0
sg307
I0
sg183
I0
sg184
I0
sg105
I0
sg200
I0
sg201
I0
sg203
I0
sg308
I0
sg309
I0
sg209
I0
sg210
I0
sg107
I0
ssg115
(dp393
g123
I0
sg197
I0
sg103
I0
sg120
I0
sg109
I0
sg104
I0
sg191
I0
sg298
I0
sg299
I0
sg102
I0
sg193
I0
sg106
I0
sg300
I0
sg111
I0
sg113
I0
sg212
I0
sg204
I0
sg301
I0
sg101
I0
sg121
I0
sg112
I0
sg196
I0
sg122
I0
sg302
I0
sg208
I0
sg206
I0
sg303
I0
sg195
I0
sg304
I0
sg119
I0
sg115
I2
sg118
I0
sg305
I0
sg199
I0
sg108
I0
sg110
I0
sg180
I0
sg194
I0
sg306
I0
sg117
I0
sg116
I0
sg114
I0
sg182
I0
sg162
I0
sg307
I0
sg183
I0
sg184
I0
sg105
I0
sg200
I0
sg201
I0
sg203
I0
sg308
I0
sg309
I0
sg209
I0
sg210
I0
sg107
I0
ssg48
(dp394
g59
I0
sg334
I0
sg46
I0
sg335
I0
sg336
I0
sg177
I0
sg43
I0
sg44
I0
sg57
I0
sg192
I0
sg337
I0
sg60
I0
sg58
I0
sg41
I0
sg338
I0
sg42
I0
sg205
I0
sg178
I0
sg339
I0
sg47
I0
sg65
I0
sg55
I0
sg100
I0
sg56
I0
sg64
I0
sg48
I0
sg340
I0
sg61
I0
sg49
I2
sg341
I0
sg62
I0
sg342
I0
sg53
I0
sg50
I0
sg343
I0
sg40
I0
sg202
I0
sg344
I0
sg54
I0
sg189
I0
sg52
I0
sg345
I0
sg214
I0
sg45
I0
sg187
I0
sg346
I0
sg51
I0
sg63
I0
ssg29
(dp395
g123
I0
sg317
I0
sg28
I0
sg318
I0
sg39
I0
sg14
I0
sg15
I0
sg35
I0
sg16
I0
sg20
I0
sg21
I0
sg319
I0
sg320
I0
sg22
I0
sg13
I0
sg321
I0
sg322
I0
sg24
I0
sg23
I0
sg323
I0
sg32
I0
sg10
I0
sg31
I0
sg324
I0
sg34
I0
sg325
I0
sg30
I0
sg326
I0
sg37
I0
sg29
I0
sg327
I0
sg9
I0
sg328
I0
sg329
I0
sg330
I0
sg331
I0
sg38
I0
sg8
I0
sg36
I0
sg26
I0
sg25
I0
sg11
I0
sg12
I0
sg203
I0
sg17
I0
sg33
I0
sg27
I0
sg18
I0
sg19
I0
ssg133
(dp396
g217
I0
sg218
I0
sg139
I0
sg219
I0
sg220
I0
sg221
I0
sg135
I0
sg130
I0
sg222
I0
sg223
I0
sg224
I0
sg225
I0
sg226
I0
sg227
I0
sg132
I0
sg228
I0
sg229
I0
sg230
I0
sg124
I0
sg231
I0
sg232
I0
sg233
I0
sg234
I0
sg126
I0
sg235
I0
sg129
I0
sg236
I0
sg237
I0
sg125
I0
sg238
I0
sg239
I0
sg134
I0
sg133
I2
sg241
I0
sg136
I0
sg242
I0
sg243
I0
sg240
I0
sg244
I0
sg245
I0
sg246
I0
sg247
I0
sg137
I0
sg248
I0
sg127
I0
sg131
I0
sg249
I0
sg250
I0
sg251
I0
sg128
I0
ssg49
(dp397
g59
I0
sg84
I0
sg83
I0
sg81
I0
sg98
I0
sg66
I0
sg46
I0
sg92
I0
sg273
I0
sg91
I0
sg177
I0
sg43
I0
sg82
I0
sg44
I0
sg57
I0
sg192
I0
sg253
I0
sg89
I0
sg76
I0
sg60
I0
sg58
I0
sg41
I0
sg90
I0
sg42
I0
sg72
I0
sg71
I0
sg100
I0
sg205
I0
sg178
I0
sg86
I0
sg88
I0
sg67
I0
sg47
I0
sg65
I0
sg77
I0
sg55
I0
sg260
I0
sg56
I0
sg64
I0
sg79
I0
sg262
I0
sg78
I0
sg69
I0
sg48
I0
sg70
I0
sg96
I0
sg61
I0
sg49
I2
sg97
I0
sg62
I0
sg95
I0
sg85
I0
sg53
I0
sg50
I0
sg99
I0
sg40
I0
sg87
I0
sg270
I0
sg202
I0
sg93
I0
sg54
I0
sg189
I0
sg73
I0
sg263
I0
sg52
I0
sg94
I0
sg259
I0
sg68
I0
sg214
I0
sg45
I0
sg269
I0
sg187
I0
sg75
I0
sg51
I0
sg80
I0
sg74
I0
sg63
I0
ssg114
(dp398
g123
I0
sg197
I0
sg103
I0
sg120
I0
sg109
I0
sg104
I0
sg191
I0
sg298
I0
sg299
I0
sg102
I0
sg193
I0
sg106
I0
sg300
I0
sg111
I0
sg113
I0
sg212
I0
sg204
I0
sg301
I0
sg101
I0
sg121
I0
sg112
I0
sg196
I0
sg122
I0
sg302
I0
sg208
I0
sg206
I0
sg303
I0
sg195
I0
sg304
I0
sg119
I0
sg115
I0
sg118
I0
sg305
I0
sg199
I0
sg108
I0
sg110
I0
sg180
I0
sg194
I0
sg306
I0
sg117
I0
sg116
I0
sg114
I2
sg182
I0
sg162
I0
sg307
I0
sg183
I0
sg184
I0
sg105
I0
sg200
I0
sg201
I0
sg203
I0
sg308
I0
sg309
I0
sg209
I0
sg210
I0
sg107
I0
ssg38
(dp399
g161
I0
sg153
I0
sg154
I0
sg149
I0
sg28
I0
sg39
I0
sg14
I0
sg160
I0
sg164
I0
sg15
I0
sg35
I0
sg16
I0
sg20
I0
sg155
I0
sg21
I0
sg165
I0
sg22
I0
sg166
I0
sg13
I0
sg146
I0
sg172
I0
sg24
I0
sg23
I0
sg32
I0
sg10
I0
sg31
I0
sg144
I0
sg34
I0
sg159
I0
sg30
I0
sg147
I0
sg37
I0
sg29
I0
sg9
I0
sg351
I0
sg167
I0
sg352
I0
sg174
I0
sg158
I0
sg38
I2
sg8
I0
sg36
I0
sg26
I0
sg25
I0
sg170
I0
sg11
I0
sg12
I0
sg151
I0
sg171
I0
sg17
I0
sg33
I0
sg27
I0
sg18
I0
sg19
I0
sg152
I0
ssg11
(dp400
g123
I0
sg317
I0
sg28
I0
sg318
I0
sg39
I0
sg14
I0
sg15
I0
sg35
I0
sg16
I0
sg20
I0
sg21
I0
sg319
I0
sg320
I0
sg22
I0
sg13
I0
sg321
I0
sg322
I0
sg24
I0
sg23
I0
sg323
I0
sg32
I0
sg10
I0
sg31
I0
sg324
I0
sg34
I0
sg325
I0
sg30
I0
sg326
I0
sg37
I0
sg29
I0
sg327
I0
sg9
I0
sg328
I0
sg329
I0
sg330
I0
sg331
I0
sg38
I0
sg8
I0
sg36
I0
sg26
I0
sg25
I0
sg11
I0
sg12
I2
sg203
I0
sg17
I0
sg33
I0
sg27
I0
sg18
I0
sg19
I0
ssg52
(dp401
g59
I0
sg334
I0
sg46
I0
sg335
I0
sg336
I0
sg177
I0
sg43
I0
sg44
I0
sg57
I0
sg192
I0
sg337
I0
sg60
I0
sg58
I0
sg41
I0
sg338
I0
sg42
I0
sg205
I0
sg178
I0
sg339
I0
sg47
I0
sg65
I0
sg55
I0
sg100
I0
sg56
I0
sg64
I0
sg48
I0
sg340
I0
sg61
I0
sg49
I0
sg341
I0
sg62
I0
sg342
I0
sg53
I0
sg50
I0
sg343
I0
sg40
I0
sg202
I0
sg344
I0
sg54
I0
sg189
I0
sg52
I2
sg345
I0
sg214
I0
sg45
I0
sg187
I0
sg346
I0
sg51
I0
sg63
I0
ssg12
(dp402
g123
I0
sg317
I0
sg28
I0
sg318
I0
sg39
I0
sg14
I0
sg15
I0
sg35
I0
sg16
I0
sg20
I0
sg21
I0
sg319
I0
sg320
I0
sg22
I0
sg13
I0
sg321
I0
sg322
I0
sg24
I0
sg23
I0
sg323
I0
sg32
I0
sg10
I0
sg31
I0
sg324
I0
sg34
I0
sg325
I0
sg30
I0
sg326
I0
sg37
I0
sg29
I0
sg327
I0
sg9
I0
sg328
I0
sg329
I0
sg330
I0
sg331
I0
sg38
I0
sg8
I0
sg36
I0
sg26
I0
sg25
I0
sg11
I0
sg12
I0
sg203
I0
sg17
I0
sg33
I0
sg27
I0
sg18
I0
sg19
I0
ssg17
(dp403
g14
I0
sg35
I0
sg60
I0
sg132
I0
sg67
I0
sg47
I0
sg127
I0
sg55
I0
sg56
I0
sg69
I0
sg70
I0
sg118
I0
sg62
I0
sg117
I0
sg110
I0
sg9
I0
sg136
I0
sg50
I0
sg40
I0
sg8
I0
sg39
I0
sg25
I0
sg134
I0
sg94
I0
sg129
I0
sg131
I0
sg33
I0
sg51
I0
sg137
I0
sg81
I0
sg98
I0
sg54
I0
sg26
I0
sg135
I0
sg90
I0
sg44
I0
sg105
I0
sg16
I0
sg122
I0
sg20
I0
sg106
I0
sg21
I0
sg41
I0
sg57
I0
sg24
I0
sg23
I0
sg10
I0
sg125
I0
sg119
I0
sg115
I0
sg48
I0
sg29
I0
sg133
I0
sg49
I0
sg114
I0
sg38
I0
sg11
I0
sg52
I0
sg12
I0
sg17
I0
sg45
I0
sg27
I0
sg74
I0
sg75
I0
sg59
I0
sg84
I0
sg83
I0
sg28
I0
sg46
I0
sg103
I0
sg120
I0
sg139
I0
sg104
I0
sg76
I0
sg42
I0
sg113
I0
sg124
I0
sg13
I0
sg101
I0
sg121
I0
sg112
I0
sg95
I0
sg77
I0
sg31
I0
sg78
I0
sg30
I0
sg37
I0
sg63
I0
sg15
I0
sg116
I0
sg92
I0
sg109
I0
sg73
I0
sg71
I0
sg87
I0
sg18
I0
sg19
I0
sg123
I0
sg66
I0
sg36
I0
sg91
I0
sg43
I0
sg82
I0
sg130
I0
sg102
I0
sg58
I0
sg111
I0
sg72
I0
sg22
I0
sg89
I0
sg86
I0
sg88
I0
sg85
I0
sg126
I0
sg65
I0
sg32
I0
sg64
I0
sg34
I0
sg138
I0
sg96
I0
sg61
I0
sg108
I0
sg53
I0
sg99
I0
sg93
I0
sg68
I0
sg79
I0
sg97
I0
sg128
I0
sg80
I0
sg107
I0
ssg45
(dp404
g59
I0
sg334
I0
sg46
I0
sg335
I0
sg336
I0
sg177
I0
sg43
I0
sg44
I0
sg57
I0
sg192
I0
sg337
I0
sg60
I0
sg58
I0
sg41
I0
sg338
I0
sg42
I0
sg205
I0
sg178
I0
sg339
I0
sg47
I0
sg65
I0
sg55
I0
sg100
I0
sg56
I0
sg64
I0
sg48
I0
sg340
I0
sg61
I0
sg49
I0
sg341
I0
sg62
I0
sg342
I0
sg53
I0
sg50
I0
sg343
I0
sg40
I0
sg202
I0
sg344
I0
sg54
I0
sg189
I0
sg52
I0
sg345
I0
sg214
I0
sg45
I2
sg187
I0
sg346
I0
sg51
I0
sg63
I0
ssg27
(dp405
g123
I0
sg59
I0
sg344
I0
sg334
I0
sg28
I0
sg46
I0
sg335
I0
sg318
I0
sg61
I0
sg39
I0
sg345
I0
sg14
I0
sg43
I0
sg44
I0
sg15
I0
sg35
I0
sg16
I0
sg319
I0
sg20
I0
sg21
I0
sg58
I0
sg41
I0
sg338
I0
sg42
I0
sg320
I0
sg22
I0
sg100
I0
sg13
I0
sg337
I0
sg321
I0
sg322
I0
sg339
I0
sg24
I0
sg23
I0
sg65
I0
sg62
I0
sg32
I0
sg55
I0
sg10
I0
sg56
I0
sg31
I0
sg324
I0
sg34
I0
sg325
I0
sg30
I0
sg48
I0
sg47
I0
sg37
I0
sg29
I0
sg327
I0
sg326
I0
sg341
I0
sg9
I0
sg60
I0
sg49
I0
sg340
I0
sg342
I0
sg53
I0
sg336
I0
sg64
I0
sg50
I0
sg343
I0
sg40
I0
sg330
I0
sg331
I0
sg38
I0
sg8
I0
sg51
I0
sg36
I0
sg54
I0
sg26
I0
sg25
I0
sg11
I0
sg57
I0
sg52
I0
sg12
I0
sg203
I1
sg17
I0
sg45
I0
sg33
I0
sg346
I0
sg27
I3
sg18
I0
sg19
I0
sg63
I0
ssg74
(dp406
g123
I0
sg66
I0
sg84
I0
sg83
I0
sg81
I0
sg98
I0
sg77
I0
sg92
I0
sg204
I0
sg318
I0
sg91
I0
sg90
I0
sg253
I0
sg82
I0
sg191
I0
sg254
I0
sg255
I0
sS'pan.n.01'
p407
I0
sg76
I0
sg328
I0
sg195
I0
sg210
I0
sg319
I0
sg256
I0
sg72
I0
sg80
I0
sg325
I0
sg322
I0
sg257
I0
sg89
I0
sg321
I0
sg86
I0
sg88
I0
sg67
I0
sg196
I0
sS'butter.n.01'
p408
I0
sg258
I0
sg259
I0
sg208
I0
sg260
I0
sg261
I0
sg85
I0
sg262
I0
sg78
I0
sg69
I0
sg263
I0
sg70
I0
sg264
I0
sg265
I0
sg266
I0
sg327
I0
sg326
I0
sg180
I0
sg194
I0
sg199
I0
sg95
I0
sg267
I0
sg268
I0
sg99
I0
sg269
I0
sg330
I0
sg331
I0
sg324
I0
sg270
I0
sg182
I0
sg93
I0
sg271
I0
sg272
I0
sg73
I0
sg209
I0
sg200
I0
sg320
I0
sg273
I0
sg94
I0
sg201
I0
sg68
I0
sg79
I0
sg97
I0
sg96
I0
sg87
I0
sg309
I0
sg71
I0
sg74
I0
sg75
I2
ssg75
(dp409
g66
I0
sg84
I0
sg83
I0
sg81
I0
sg98
I0
sg77
I0
sg92
I0
sg91
I0
sg90
I0
sg253
I0
sg82
I0
sg254
I0
sg255
I0
sg76
I0
sg256
I0
sg72
I0
sg80
I0
sg257
I0
sg89
I0
sg86
I0
sg88
I0
sg67
I0
sg258
I0
sg259
I0
sg260
I0
sg261
I0
sg85
I0
sg262
I0
sg78
I0
sg69
I0
sg263
I0
sg70
I0
sg264
I0
sg265
I0
sg266
I0
sg95
I0
sg267
I0
sg268
I0
sg99
I0
sg269
I0
sg270
I0
sg93
I0
sg271
I0
sg272
I0
sg73
I0
sg273
I0
sg94
I0
sg68
I0
sg79
I0
sg97
I0
sg96
I0
sg87
I0
sg71
I0
sg74
I0
sg75
I0
ssg59
(dp410
g138
I0
sg59
I2
sg46
I0
sg163
I0
sg177
I0
sg43
I0
sg44
I0
sg57
I0
sg192
I0
sg288
I0
sg289
I0
sg60
I0
sg58
I0
sg41
I0
sg42
I0
sg211
I0
sg215
I0
sg156
I0
sg205
I0
sg178
I0
sg290
I0
sg47
I0
sg291
I0
sg65
I0
sg55
I0
sg56
I0
sg64
I0
sg150
I0
sg48
I0
sg169
I0
sg61
I0
sg49
I0
sg292
I0
sg168
I0
sg62
I0
sg157
I0
sg53
I0
sg50
I0
sg40
I0
sg202
I0
sg54
I0
sg189
I0
sg52
I0
sg148
I0
sg145
I0
sg214
I0
sg45
I0
sg187
I0
sg173
I0
sg51
I0
sg293
I0
sg63
I0
ssg84
(dp411
g66
I0
sg84
I0
sg83
I0
sg81
I0
sg98
I0
sg77
I0
sg92
I0
sg91
I0
sg90
I0
sg253
I0
sg82
I0
sg254
I0
sg255
I0
sg76
I0
sg256
I0
sg72
I0
sg80
I0
sg257
I0
sg89
I0
sg86
I0
sg88
I0
sg67
I0
sg258
I0
sg259
I0
sg260
I0
sg261
I0
sg85
I0
sg262
I0
sg78
I0
sg69
I0
sg263
I0
sg70
I0
sg264
I0
sg265
I0
sg266
I0
sg95
I0
sg267
I0
sg268
I0
sg99
I0
sg269
I0
sg270
I0
sg93
I0
sg271
I0
sg272
I0
sg73
I0
sg273
I0
sg94
I0
sg68
I0
sg79
I0
sg97
I0
sg96
I0
sg87
I0
sg71
I0
sg74
I0
sg75
I0
ssg83
(dp412
g66
I0
sg84
I2
sg83
I0
sg81
I0
sg98
I0
sg77
I0
sg92
I0
sg91
I0
sg90
I0
sg253
I0
sg82
I0
sg254
I0
sg255
I0
sg76
I0
sg256
I0
sg72
I0
sg80
I0
sg257
I0
sg89
I0
sg86
I0
sg88
I0
sg67
I0
sg258
I0
sg259
I0
sg260
I0
sg261
I0
sg85
I0
sg262
I0
sg78
I0
sg69
I0
sg263
I0
sg70
I0
sg264
I0
sg265
I0
sg266
I0
sg95
I0
sg267
I0
sg268
I0
sg99
I0
sg269
I0
sg270
I0
sg93
I0
sg271
I0
sg272
I0
sg73
I0
sg273
I0
sg94
I0
sg68
I0
sg79
I0
sg97
I0
sg96
I0
sg87
I0
sg71
I0
sg74
I0
sg75
I0
ssg28
(dp413
g123
I0
sg317
I0
sg28
I0
sg318
I0
sg39
I0
sg14
I0
sg15
I0
sg35
I0
sg16
I0
sg20
I0
sg21
I0
sg319
I0
sg320
I0
sg22
I0
sg13
I0
sg321
I0
sg322
I0
sg24
I0
sg23
I0
sg323
I0
sg32
I0
sg10
I0
sg31
I0
sg324
I0
sg34
I0
sg325
I0
sg30
I0
sg326
I0
sg37
I0
sg29
I2
sg327
I0
sg9
I0
sg328
I0
sg329
I0
sg330
I0
sg331
I0
sg38
I0
sg8
I0
sg36
I0
sg26
I0
sg25
I0
sg11
I0
sg12
I0
sg203
I0
sg17
I0
sg33
I0
sg27
I0
sg18
I0
sg19
I0
ssg46
(dp414
g59
I0
sg334
I0
sg46
I0
sg335
I0
sg336
I0
sg177
I0
sg43
I0
sg44
I0
sg57
I0
sg192
I0
sg337
I0
sg60
I0
sg58
I0
sg41
I0
sg338
I0
sg42
I0
sg205
I0
sg178
I0
sg339
I0
sg47
I1
sg65
I0
sg55
I0
sg100
I1
sg56
I0
sg64
I0
sg48
I0
sg340
I0
sg61
I0
sg49
I0
sg341
I0
sg62
I0
sg342
I0
sg53
I0
sg50
I0
sg343
I0
sg40
I0
sg202
I0
sg344
I0
sg54
I0
sg189
I0
sg52
I0
sg345
I0
sg214
I0
sg45
I0
sg187
I0
sg346
I0
sg51
I0
sg63
I0
ssg103
(dp415
g313
I0
sg103
I0
sg120
I0
sg139
I0
sg198
I0
sg314
I0
sg190
I0
sg109
I0
sg104
I2
sg207
I0
sg298
I0
sg299
I0
sg102
I0
sg193
I0
sg106
I0
sg300
I0
sg179
I0
sg111
I0
sg113
I0
sg212
I0
sg301
I0
sg101
I0
sg121
I0
sg112
I0
sg122
I0
sg302
I0
sg213
I0
sg206
I0
sg303
I0
sg304
I0
sg119
I0
sg115
I0
sg118
I0
sg305
I0
sg185
I0
sg108
I0
sg110
I0
sg181
I0
sg306
I0
sg117
I0
sg116
I0
sg114
I0
sg162
I0
sg307
I0
sg183
I0
sg184
I0
sg105
I0
sg315
I0
sg186
I0
sg308
I0
sg188
I0
sg107
I0
ssg120
(dp416
g123
I0
sg197
I0
sg103
I0
sg120
I0
sg109
I0
sg104
I0
sg191
I0
sg298
I0
sg299
I0
sg102
I0
sg193
I0
sg106
I0
sg300
I0
sg111
I0
sg113
I0
sg212
I0
sg204
I0
sg301
I0
sg101
I0
sg121
I0
sg112
I0
sg196
I0
sg122
I0
sg302
I0
sg208
I0
sg206
I0
sg303
I0
sg195
I0
sg304
I0
sg119
I0
sg115
I0
sg118
I0
sg305
I0
sg199
I0
sg108
I0
sg110
I0
sg180
I0
sg194
I0
sg306
I0
sg117
I0
sg116
I0
sg114
I0
sg182
I0
sg162
I0
sg307
I0
sg183
I0
sg184
I0
sg105
I0
sg200
I0
sg201
I0
sg203
I0
sg308
I0
sg309
I0
sg209
I0
sg210
I0
sg107
I0
ssg139
(dp417
g217
I0
sg218
I0
sg139
I1
sg244
I0
sg220
I0
sg221
I0
sg190
I0
sS'add.v.01'
p418
I0
sS'milk.n.01'
p419
I0
sS'pan.n.01'
p420
I0
sS'pan.n.03'
p421
I0
sg227
I0
sg228
I0
sS'butter.n.01'
p422
I0
sS'fill.v.01'
p423
I0
sg232
I0
sg213
I0
sg313
I0
sg207
I0
sg179
I0
sg239
I0
sg185
I0
sg198
I0
sg241
I0
sg181
I0
sS'piece.n.08'
p424
I0
sS'boodle.n.01'
p425
I0
sS'slice.n.06'
p426
I0
sg314
I0
sg247
I0
sS'pizza.n.01'
p427
I0
sg315
I0
sg186
I0
sS'lend.v.01'
p428
I0
sg188
I0
sg250
I0
ssg104
(dp429
g313
I0
sg103
I0
sg120
I0
sg139
I0
sg198
I0
sg314
I0
sg190
I0
sg109
I0
sg104
I0
sg207
I0
sg298
I0
sg299
I0
sg102
I0
sg193
I0
sg106
I0
sg300
I0
sg179
I0
sg111
I0
sg113
I0
sg212
I0
sg301
I0
sg101
I0
sg121
I0
sg112
I0
sg122
I0
sg302
I0
sg213
I0
sg206
I0
sg303
I0
sg304
I0
sg119
I0
sg115
I0
sg118
I0
sg305
I0
sg185
I0
sg108
I0
sg110
I0
sg181
I0
sg306
I0
sg117
I0
sg116
I0
sg114
I0
sg162
I0
sg307
I0
sg183
I0
sg184
I0
sg105
I0
sg315
I0
sg186
I0
sg308
I0
sg188
I0
sg107
I0
ssg76
(dp430
g66
I0
sg84
I0
sg83
I0
sg81
I0
sg98
I0
sg77
I0
sg92
I0
sg91
I0
sg90
I0
sg253
I0
sg82
I0
sg254
I0
sg255
I0
sg76
I2
sg256
I0
sg72
I0
sg80
I0
sg257
I0
sg89
I0
sg86
I0
sg88
I0
sg67
I0
sg258
I0
sg259
I0
sg260
I0
sg261
I0
sg85
I0
sg262
I0
sg78
I0
sg69
I0
sg263
I0
sg70
I0
sg264
I0
sg265
I0
sg266
I0
sg95
I0
sg267
I0
sg268
I0
sg99
I0
sg269
I0
sg270
I0
sg93
I0
sg271
I0
sg272
I0
sg73
I0
sg273
I0
sg94
I0
sg68
I0
sg79
I0
sg97
I0
sg96
I0
sg87
I0
sg71
I0
sg74
I0
sg75
I0
ssg42
(dp431
g59
I0
sg334
I0
sg46
I0
sg335
I0
sg336
I0
sg177
I0
sg43
I0
sg44
I0
sg57
I0
sg192
I0
sg337
I0
sg60
I0
sg58
I0
sg41
I0
sg338
I0
sg42
I0
sg205
I4
sg178
I0
sg339
I0
sg47
I0
sg65
I0
sg55
I0
sg100
I0
sg56
I0
sg64
I0
sg48
I0
sg340
I0
sg61
I0
sg49
I0
sg341
I0
sg62
I0
sg342
I0
sg53
I0
sg50
I0
sg343
I0
sg40
I0
sg202
I0
sg344
I0
sg54
I0
sg189
I0
sg52
I0
sg345
I0
sg214
I0
sg45
I0
sg187
I0
sg346
I0
sg51
I0
sg63
I0
ssg113
(dp432
g123
I0
sg197
I0
sg103
I0
sg120
I0
sg109
I0
sg104
I0
sg191
I0
sg298
I0
sg299
I0
sg102
I0
sg193
I0
sg106
I0
sg300
I0
sg111
I0
sg113
I2
sg212
I0
sg204
I0
sg301
I0
sg101
I0
sg121
I0
sg112
I0
sg196
I0
sg122
I0
sg302
I0
sg208
I0
sg206
I0
sg303
I0
sg195
I0
sg304
I0
sg119
I0
sg115
I0
sg118
I0
sg305
I0
sg199
I0
sg108
I0
sg110
I0
sg180
I0
sg194
I0
sg306
I0
sg117
I0
sg116
I0
sg114
I0
sg182
I0
sg162
I0
sg307
I0
sg183
I0
sg184
I0
sg105
I0
sg200
I0
sg201
I0
sg203
I0
sg308
I0
sg309
I0
sg209
I0
sg210
I0
sg107
I0
ssg124
(dp433
g276
I0
sg219
I0
sg277
I0
sg135
I0
sg130
I0
sg222
I0
sg223
I0
sg224
I0
sg225
I0
sg226
I0
sg278
I0
sg279
I0
sg132
I0
sg229
I0
sg230
I0
sg124
I2
sg231
I0
sg280
I0
sg233
I0
sg234
I0
sg126
I0
sg235
I0
sg281
I0
sg242
I0
sg129
I0
sg282
I0
sg236
I0
sg283
I0
sg237
I0
sg125
I0
sg138
I0
sg238
I0
sg284
I0
sg134
I0
sg240
I0
sg136
I0
sg127
I0
sg243
I0
sg133
I0
sg245
I0
sg246
I0
sg137
I0
sg285
I0
sg248
I0
sg131
I0
sg249
I0
sg286
I0
sg251
I0
sg128
I0
ssg13
(dp434
g14
I0
sg35
I0
sg60
I0
sg132
I0
sg144
I0
sg47
I0
sg127
I0
sg55
I0
sg56
I0
sg146
I0
sg147
I0
sg118
I0
sg62
I0
sg117
I0
sg110
I0
sg9
I0
sg136
I0
sg50
I0
sg40
I0
sg8
I0
sg39
I0
sg25
I0
sg134
I0
sg345
I0
sg129
I0
sg131
I0
sg33
I0
sg51
I0
sg137
I0
sg149
I0
sg334
I0
sg54
I0
sg26
I0
sg135
I0
sg338
I0
sg44
I0
sg16
I0
sg122
I0
sg20
I0
sg106
I0
sg21
I0
sg41
I0
sg57
I0
sg24
I0
sg23
I0
sg10
I0
sg125
I0
sg119
I0
sg115
I0
sg48
I0
sg29
I0
sg133
I0
sg49
I0
sg114
I0
sg38
I0
sg11
I0
sg52
I0
sg12
I0
sg340
I0
sg45
I0
sg27
I0
sg151
I0
sg152
I0
sg59
I0
sg153
I0
sg154
I0
sg28
I0
sg46
I0
sg103
I0
sg120
I0
sg139
I0
sg104
I0
sg155
I0
sg42
I0
sg113
I0
sg124
I0
sg13
I36
sg101
I0
sg121
I0
sg112
I0
sg342
I0
sg100
I0
sg31
I0
sg159
I0
sg30
I0
sg37
I0
sg63
I0
sg116
I0
sg335
I0
sg109
I0
sg160
I0
sg105
I0
sg346
I0
sg18
I0
sg19
I0
sg123
I0
sg161
I0
sg36
I0
sg158
I0
sg164
I0
sg336
I0
sg43
I0
sg15
I0
sg130
I0
sg102
I0
sg58
I0
sg111
I0
sg165
I0
sg22
I0
sg337
I0
sg166
I0
sg339
I0
sg167
I0
sg126
I0
sg65
I0
sg32
I0
sg64
I0
sg34
I0
sg138
I0
sg17
I0
sg61
I0
sg108
I0
sg53
I0
sg343
I0
sg174
I0
sg344
I0
sg171
I0
sg172
I0
sg341
I0
sg128
I0
sg170
I0
sg107
I0
ssg101
(dp435
g313
I0
sg103
I0
sg120
I0
sg139
I0
sg198
I0
sg314
I0
sg190
I0
sg109
I0
sg104
I0
sg207
I0
sg298
I0
sg299
I0
sg102
I0
sg193
I0
sg106
I0
sg300
I0
sg179
I0
sg111
I0
sg113
I0
sg212
I0
sg301
I0
sg101
I2
sg121
I0
sg112
I0
sg122
I0
sg302
I0
sg213
I0
sg206
I0
sg303
I0
sg304
I0
sg119
I0
sg115
I0
sg118
I0
sg305
I0
sg185
I0
sg108
I0
sg110
I0
sg181
I0
sg306
I0
sg117
I0
sg116
I0
sg114
I0
sg162
I0
sg307
I0
sg183
I0
sg184
I0
sg105
I0
sg315
I0
sg186
I0
sg308
I0
sg188
I0
sg107
I0
ssg121
(dp436
g123
I0
sg197
I0
sg103
I0
sg120
I0
sg109
I0
sg104
I0
sg191
I0
sg298
I0
sg299
I0
sg102
I0
sg193
I0
sg106
I0
sg300
I0
sg111
I0
sg113
I0
sg212
I0
sg204
I0
sg301
I0
sg101
I0
sg121
I0
sg112
I0
sg196
I0
sg122
I2
sg302
I0
sg208
I0
sg206
I0
sg303
I0
sg195
I0
sg304
I0
sg119
I0
sg115
I0
sg118
I0
sg305
I0
sg199
I0
sg108
I0
sg110
I0
sg180
I0
sg194
I0
sg306
I0
sg117
I0
sg116
I0
sg114
I0
sg182
I0
sg162
I0
sg307
I0
sg183
I0
sg184
I0
sg105
I0
sg200
I0
sg201
I0
sg203
I0
sg308
I0
sg309
I0
sg209
I0
sg210
I0
sg107
I0
ssg112
(dp437
g123
I0
sg197
I0
sg103
I0
sg120
I0
sg109
I0
sg104
I0
sg191
I0
sg298
I0
sg299
I0
sg102
I0
sg193
I0
sg106
I0
sg300
I0
sg111
I0
sg113
I0
sg212
I0
sg204
I0
sg301
I0
sg101
I0
sg121
I0
sg112
I2
sg196
I0
sg122
I0
sg302
I0
sg208
I0
sg206
I0
sg303
I0
sg195
I0
sg304
I0
sg119
I0
sg115
I0
sg118
I0
sg305
I0
sg199
I0
sg108
I0
sg110
I0
sg180
I0
sg194
I0
sg306
I0
sg117
I0
sg116
I0
sg114
I0
sg182
I0
sg162
I0
sg307
I0
sg183
I0
sg184
I0
sg105
I0
sg200
I0
sg201
I0
sg203
I0
sg308
I0
sg309
I0
sg209
I0
sg210
I0
sg107
I0
ssg95
(dp438
g277
I0
sg280
I0
sg278
I0
sg67
I0
sg127
I0
sg282
I0
sg283
I0
sg69
I0
sg70
I0
sg138
I0
sg281
I0
sg136
I0
sg355
I0
sg356
I0
sg71
I0
sg272
I0
sg94
I0
sg131
I0
sg286
I0
sg357
I0
sg137
I0
sg125
I0
sg81
I0
sg98
I0
sg271
I0
sg90
I0
sg358
I0
sg255
I0
sg225
I0
sg226
I0
sg359
I0
sg285
I0
sg233
I0
sg234
I0
sg260
I0
sg132
I0
sg360
I0
sg266
I0
sg133
I0
sg134
I0
sg361
I0
sg264
I0
sg362
I0
sg363
I0
sg74
I0
sg128
I0
sg276
I0
sg84
I0
sg83
I0
sg364
I0
sg135
I0
sg76
I0
sg365
I0
sg124
I0
sg366
I0
sg95
I2
sg77
I0
sg130
I0
sg78
I0
sg92
I0
sg73
I0
sg222
I0
sg87
I0
sg66
I0
sg100
I0
sg91
I0
sg367
I0
sg82
I0
sg224
I0
sg279
I0
sg72
I0
sg80
I0
sg89
I0
sg86
I0
sg88
I0
sg85
I0
sg126
I0
sg258
I0
sg129
I0
sg261
I0
sg96
I2
sg265
I0
sg240
I0
sg267
I0
sg99
I0
sg93
I0
sg68
I0
sg79
I0
sg97
I0
sg75
I0
sg251
I0
ssg77
(dp439
g256
I0
sg254
I0
sg300
I0
sg67
I0
sg69
I0
sg70
I0
sg118
I0
sg117
I0
sg110
I0
sg181
I0
sg71
I0
sg270
I0
sg253
I0
sg94
I0
sg213
I0
sg186
I0
sg268
I0
sg188
I0
sg81
I0
sg98
I0
sg271
I0
sg272
I0
sg190
I0
sg90
I0
sg255
I0
sg193
I0
sg106
I0
sg260
I0
sg179
I0
sg119
I0
sg115
I0
sg266
I0
sg198
I0
sg185
I0
sg114
I0
sg269
I0
sg264
I0
sg74
I0
sg75
I0
sg84
I0
sg83
I0
sg103
I0
sg120
I0
sg139
I0
sg104
I0
sg76
I0
sg101
I0
sg113
I0
sg257
I0
sg122
I0
sg121
I0
sg112
I0
sg95
I0
sg77
I2
sg207
I0
sg78
I2
sg263
I0
sg116
I0
sg92
I0
sg109
I0
sg73
I0
sg105
I0
sg87
I0
sg66
I0
sg273
I0
sg91
I0
sg82
I0
sg102
I0
sg111
I0
sg72
I0
sg80
I0
sg89
I0
sg86
I0
sg88
I0
sg85
I0
sg258
I0
sg259
I0
sg261
I0
sg262
I0
sg96
I0
sg265
I0
sg108
I0
sg267
I0
sg99
I0
sg93
I0
sg68
I0
sg79
I0
sg97
I0
sg212
I0
sg107
I0
ssg31
(dp440
g28
I0
sg39
I0
sg14
I0
sg15
I0
sg35
I0
sg16
I0
sg20
I0
sg21
I0
sg22
I0
sg13
I0
sg24
I0
sg23
I0
sg32
I0
sg10
I0
sg31
I0
sg34
I0
sg30
I0
sg37
I0
sg29
I0
sg9
I0
sg38
I0
sg8
I0
sg36
I0
sg26
I0
sg25
I0
sg11
I0
sg12
I0
sg17
I0
sg33
I0
sg27
I0
sg18
I0
sg19
I0
ssg78
(dp441
g66
I0
sg84
I0
sg83
I0
sg81
I0
sg98
I0
sg77
I0
sg92
I0
sg91
I0
sg90
I0
sg253
I0
sg82
I0
sg254
I0
sg255
I0
sg76
I0
sg256
I0
sg72
I0
sg80
I0
sg257
I0
sg89
I0
sg86
I0
sg88
I0
sg67
I0
sg258
I0
sg259
I0
sg260
I0
sg261
I0
sg85
I0
sg262
I0
sg78
I0
sg69
I0
sg263
I0
sg70
I0
sg264
I0
sg265
I0
sg266
I0
sg95
I0
sg267
I0
sg268
I0
sg99
I0
sg269
I0
sg270
I0
sg93
I0
sg271
I0
sg272
I0
sg73
I0
sg273
I0
sg94
I0
sg68
I0
sg79
I0
sg97
I0
sg96
I0
sg87
I0
sg71
I0
sg74
I0
sg75
I0
ssg30
(dp442
g123
I1
sg317
I0
sg28
I0
sg318
I0
sg39
I0
sg14
I0
sg15
I0
sg35
I0
sg16
I0
sg20
I0
sg21
I0
sg319
I0
sg320
I0
sg22
I0
sg13
I0
sg321
I0
sg322
I0
sg24
I0
sg23
I0
sg323
I0
sg32
I0
sg10
I0
sg31
I1
sg324
I0
sg34
I0
sg325
I0
sg30
I0
sg326
I0
sg37
I0
sg29
I0
sg327
I0
sg9
I0
sg328
I0
sg329
I0
sg330
I0
sg331
I0
sg38
I0
sg8
I0
sg36
I0
sg26
I0
sg25
I0
sg11
I0
sg12
I0
sg203
I0
sg17
I0
sg33
I0
sg27
I0
sg18
I0
sg19
I0
ssg37
(dp443
g161
I0
sg153
I0
sg154
I0
sg149
I0
sg28
I0
sg39
I0
sg14
I0
sg160
I0
sg164
I0
sg15
I0
sg35
I0
sg16
I0
sg20
I0
sg155
I0
sg21
I0
sg165
I0
sg22
I0
sg166
I0
sg13
I0
sg146
I0
sg172
I0
sg24
I0
sg23
I0
sg32
I0
sg10
I0
sg31
I0
sg144
I0
sg34
I0
sg159
I0
sg30
I0
sg147
I0
sg37
I2
sg29
I0
sg9
I0
sg351
I0
sg167
I0
sg352
I0
sg174
I0
sg158
I0
sg38
I0
sg8
I0
sg36
I0
sg26
I0
sg25
I0
sg170
I0
sg11
I0
sg12
I0
sg151
I0
sg171
I0
sg17
I0
sg33
I0
sg27
I0
sg18
I0
sg19
I0
sg152
I0
ssg63
(dp444
g59
I0
sg46
I0
sg177
I0
sg43
I0
sg44
I0
sg57
I0
sg192
I0
sg60
I0
sg58
I0
sg41
I0
sg42
I0
sg205
I0
sg178
I0
sg47
I0
sg65
I0
sg62
I0
sg55
I0
sg56
I0
sg64
I0
sg48
I0
sg61
I0
sg49
I0
sg63
I0
sg53
I0
sg50
I0
sg40
I0
sg202
I0
sg54
I0
sg189
I0
sg52
I0
sg214
I0
sg45
I0
sg187
I0
sg51
I0
ssg15
(dp445
g123
I0
sg317
I0
sg28
I0
sg318
I0
sg39
I0
sg14
I0
sg15
I2
sg35
I0
sg16
I0
sg20
I0
sg21
I0
sg319
I0
sg320
I0
sg22
I0
sg13
I0
sg321
I0
sg322
I0
sg24
I0
sg23
I0
sg323
I0
sg32
I0
sg10
I0
sg31
I0
sg324
I0
sg34
I0
sg325
I0
sg30
I0
sg326
I0
sg37
I0
sg29
I0
sg327
I0
sg9
I0
sg328
I0
sg329
I0
sg330
I0
sg331
I0
sg38
I0
sg8
I0
sg36
I0
sg26
I0
sg25
I0
sg11
I0
sg12
I0
sg203
I0
sg17
I0
sg33
I0
sg27
I0
sg18
I0
sg19
I0
ssg116
(dp446
g123
I0
sg197
I0
sg103
I0
sg120
I0
sg109
I0
sg104
I0
sg191
I0
sg298
I0
sg299
I0
sg102
I0
sg193
I0
sg106
I0
sg300
I0
sg111
I0
sg113
I0
sg212
I0
sg204
I0
sg301
I0
sg101
I0
sg121
I0
sg112
I0
sg196
I0
sg122
I0
sg302
I0
sg208
I0
sg206
I0
sg303
I0
sg195
I0
sg304
I0
sg119
I0
sg115
I0
sg118
I0
sg305
I0
sg199
I0
sg108
I0
sg110
I0
sg180
I0
sg194
I0
sg306
I0
sg117
I0
sg116
I2
sg114
I0
sg182
I0
sg162
I0
sg307
I0
sg183
I0
sg184
I0
sg105
I0
sg200
I0
sg201
I0
sg203
I0
sg308
I0
sg309
I0
sg209
I0
sg210
I0
sg107
I0
ssg92
(dp447
g66
I0
sg84
I0
sg83
I0
sg81
I0
sg98
I0
sg77
I0
sg364
I0
sg271
I0
sg91
I0
sg90
I0
sg367
I0
sg82
I0
sg358
I0
sg255
I0
sg76
I0
sg359
I0
sg365
I0
sg72
I0
sg80
I0
sg100
I0
sg366
I0
sg89
I0
sg86
I0
sg88
I0
sg67
I0
sg258
I0
sg260
I0
sg261
I0
sg85
I0
sg78
I0
sg69
I0
sg360
I0
sg70
I0
sg264
I0
sg265
I0
sg266
I0
sg362
I0
sg95
I0
sg267
I0
sg355
I0
sg99
I0
sg356
I0
sg357
I0
sg93
I0
sg92
I0
sg272
I0
sg73
I0
sg361
I0
sg94
I0
sg68
I0
sg79
I0
sg97
I0
sg96
I0
sg87
I0
sg363
I0
sg71
I0
sg74
I0
sg75
I0
ssg109
(dp448
g313
I0
sg103
I0
sg120
I0
sg139
I0
sg198
I0
sg314
I0
sg190
I0
sg109
I0
sg104
I0
sg207
I0
sg298
I0
sg299
I0
sg102
I0
sg193
I0
sg106
I0
sg300
I0
sg179
I0
sg111
I0
sg113
I0
sg212
I0
sg301
I0
sg101
I0
sg121
I0
sg112
I0
sg122
I0
sg302
I0
sg213
I0
sg206
I0
sg303
I0
sg304
I0
sg119
I0
sg115
I0
sg118
I0
sg305
I0
sg185
I0
sg108
I0
sg110
I2
sg181
I0
sg306
I0
sg117
I0
sg116
I0
sg114
I0
sg162
I0
sg307
I0
sg183
I0
sg184
I0
sg105
I0
sg315
I0
sg186
I0
sg308
I0
sg188
I0
sg107
I0
ssg73
(dp449
g66
I0
sg84
I0
sg83
I0
sg81
I0
sg98
I0
sg77
I0
sg92
I0
sg91
I0
sg90
I0
sg253
I0
sg82
I0
sg254
I0
sg255
I0
sg76
I0
sg256
I0
sg72
I0
sg80
I0
sg257
I0
sg89
I0
sg86
I0
sg88
I0
sg67
I0
sg258
I0
sg259
I0
sg260
I0
sg261
I0
sg85
I0
sg262
I0
sg78
I0
sg69
I0
sg263
I0
sg70
I0
sg264
I0
sg265
I0
sg266
I0
sg95
I0
sg267
I0
sg268
I0
sg99
I0
sg269
I0
sg270
I0
sg93
I0
sg271
I0
sg272
I0
sg73
I0
sg273
I0
sg94
I0
sg68
I0
sg79
I0
sg97
I0
sg96
I0
sg87
I0
sg71
I0
sg74
I0
sg75
I0
ssg71
(dp450
g66
I0
sg84
I0
sg83
I0
sg81
I0
sg98
I0
sg77
I0
sg92
I0
sg91
I0
sg90
I0
sg253
I0
sg82
I0
sg254
I0
sg255
I0
sg76
I0
sg256
I0
sg72
I2
sg71
I0
sg257
I0
sg89
I0
sg86
I0
sg88
I0
sg67
I0
sg258
I0
sg259
I0
sg260
I0
sg261
I0
sg85
I0
sg262
I0
sg78
I0
sg69
I0
sg263
I0
sg70
I0
sg264
I0
sg265
I0
sg266
I0
sg95
I0
sg267
I0
sg268
I0
sg99
I0
sg269
I0
sg270
I0
sg93
I0
sg271
I0
sg272
I0
sg73
I0
sg273
I0
sg94
I0
sg68
I0
sg79
I0
sg97
I0
sg96
I0
sg87
I0
sg80
I0
sg74
I0
sg75
I0
ssg87
(dp451
g66
I0
sg84
I0
sg83
I0
sg81
I0
sg98
I0
sg77
I0
sg364
I0
sg92
I0
sg91
I0
sg90
I0
sg367
I0
sg82
I0
sg358
I0
sg255
I0
sg76
I0
sg359
I0
sg365
I0
sg72
I0
sg80
I0
sg100
I0
sg366
I0
sg89
I0
sg86
I0
sg88
I0
sg67
I0
sg258
I0
sg260
I0
sg261
I0
sg85
I0
sg78
I0
sg69
I0
sg360
I0
sg70
I0
sg264
I0
sg265
I2
sg266
I0
sg362
I0
sg95
I0
sg267
I0
sg355
I0
sg99
I0
sg356
I0
sg357
I0
sg93
I0
sg271
I0
sg272
I0
sg73
I0
sg361
I0
sg94
I0
sg68
I0
sg79
I0
sg97
I0
sg96
I0
sg87
I0
sg363
I0
sg71
I0
sg74
I0
sg75
I0
ssg18
(dp452
g123
I0
sg317
I0
sg28
I0
sg318
I0
sg39
I0
sg14
I0
sg15
I0
sg35
I0
sg16
I0
sg20
I0
sg21
I0
sg319
I0
sg320
I0
sg22
I0
sg13
I0
sg321
I0
sg322
I0
sg24
I0
sg23
I0
sg323
I0
sg32
I0
sg10
I0
sg31
I0
sg324
I0
sg34
I0
sg325
I0
sg30
I0
sg326
I0
sg37
I0
sg29
I0
sg327
I0
sg9
I0
sg328
I0
sg329
I0
sg330
I0
sg331
I0
sg38
I0
sg8
I0
sg36
I0
sg26
I0
sg25
I0
sg11
I0
sg12
I0
sg203
I0
sg17
I0
sg33
I0
sg27
I0
sg18
I0
sg19
I2
ssg19
(dp453
g123
I0
sg317
I0
sg28
I0
sg318
I0
sg39
I0
sg14
I0
sg15
I0
sg35
I0
sg16
I0
sg20
I0
sg21
I0
sg319
I0
sg320
I0
sg22
I0
sg13
I0
sg321
I0
sg322
I0
sg24
I0
sg23
I0
sg323
I0
sg32
I0
sg10
I0
sg31
I0
sg324
I0
sg34
I0
sg325
I0
sg30
I0
sg326
I0
sg37
I0
sg29
I0
sg327
I0
sg9
I0
sg328
I0
sg329
I0
sg330
I0
sg331
I0
sg38
I0
sg8
I0
sg36
I0
sg26
I0
sg25
I0
sg11
I0
sg12
I0
sg203
I0
sg17
I0
sg33
I0
sg27
I0
sg18
I0
sg19
I0
ssg123
(dp454
g123
I0
sg204
I0
sg318
I0
sS'bowl.n.01'
p455
I0
sg191
I0
sS'bowl.n.08'
p456
I0
sS'add.v.01'
p457
I0
sg407
I0
sg328
I0
sg320
I0
sg408
I0
sS'fill.v.01'
p458
I0
sg319
I0
sg322
I0
sg324
I0
sg196
I0
sg323
I0
sg208
I0
sg197
I0
sg329
I0
sg195
I0
sg325
I0
sg321
I0
sg326
I0
sg199
I0
sg327
I0
sg180
I0
sg194
I0
sg330
I0
sg331
I0
sg182
I0
sg317
I0
sS'put.v.02'
p459
I0
sS'put.v.01'
p460
I0
sg200
I0
sg201
I0
sg203
I0
sS'lend.v.01'
p461
I0
sg309
I0
sg209
I0
sg210
I0
ssg66
(dp462
g66
I2
sg84
I0
sg83
I0
sg81
I0
sg98
I0
sg77
I0
sg92
I0
sg91
I0
sg90
I0
sg253
I0
sg82
I0
sg254
I0
sg255
I0
sg76
I0
sg256
I0
sg72
I0
sg80
I0
sg257
I0
sg89
I0
sg86
I0
sg88
I0
sg67
I0
sg258
I0
sg259
I0
sg260
I0
sg261
I0
sg85
I0
sg262
I0
sg78
I0
sg69
I0
sg263
I0
sg70
I0
sg264
I0
sg265
I0
sg266
I0
sg95
I0
sg267
I0
sg268
I0
sg99
I0
sg269
I0
sg270
I0
sg93
I0
sg271
I0
sg272
I0
sg73
I0
sg273
I0
sg94
I0
sg68
I0
sg79
I0
sg97
I0
sg96
I0
sg87
I0
sg71
I0
sg74
I0
sg75
I0
ssg36
(dp463
g161
I0
sg153
I0
sg154
I0
sg149
I0
sg28
I0
sg39
I0
sg14
I0
sg160
I0
sg164
I0
sg15
I0
sg35
I0
sg16
I0
sg20
I0
sg155
I0
sg21
I0
sg165
I0
sg22
I0
sg166
I0
sg13
I0
sg146
I0
sg172
I0
sg24
I0
sg23
I0
sg32
I0
sg10
I0
sg31
I0
sg144
I0
sg34
I0
sg159
I0
sg30
I0
sg147
I0
sg37
I0
sg29
I0
sg9
I0
sg351
I0
sg167
I0
sg352
I0
sg174
I0
sg158
I0
sg38
I0
sg8
I0
sg36
I2
sg26
I0
sg25
I0
sg170
I0
sg11
I0
sg12
I0
sg151
I0
sg171
I0
sg17
I0
sg33
I0
sg27
I0
sg18
I0
sg19
I0
sg152
I0
ssg100
(dp464
g334
I0
sg364
I0
sg335
I0
sg336
I0
sg338
I0
sg367
I0
sg358
I0
sg359
I0
sg365
I0
sg366
I0
sg337
I0
sg339
I0
sg342
I0
sg100
I0
sS'blend.v.03'
p465
I0
sg360
I0
sS'edit.v.03'
p466
I0
sS'pepper.n.03'
p467
I0
sg362
I0
sS'mix.v.05'
p468
I0
sS'piece.n.08'
p469
I0
sg355
I0
sg343
I0
sg356
I0
sg357
I0
sg344
I0
sS'slice.n.06'
p470
I0
sS'water.n.06'
p471
I0
sg361
I0
sg345
I0
sg340
I0
sg341
I0
sg346
I0
sg363
I0
ssg91
(dp472
g277
I0
sg280
I0
sg278
I0
sg67
I0
sg127
I0
sg282
I0
sg283
I0
sg69
I0
sg70
I0
sg138
I0
sg281
I0
sg136
I0
sg355
I0
sg356
I0
sg71
I0
sg272
I0
sg94
I0
sg131
I0
sg286
I0
sg357
I0
sg137
I0
sg125
I0
sg81
I0
sg98
I0
sg271
I0
sg90
I0
sg358
I0
sg255
I0
sg225
I0
sg226
I0
sg359
I0
sg285
I0
sg233
I0
sg234
I0
sg260
I0
sg132
I0
sg360
I0
sg266
I0
sg133
I0
sg134
I0
sg361
I0
sg264
I0
sg362
I0
sg363
I0
sg74
I0
sg128
I0
sg276
I0
sg84
I0
sg83
I0
sg364
I0
sg135
I0
sg76
I0
sg365
I0
sg124
I0
sg366
I0
sg95
I0
sg77
I0
sg130
I0
sg78
I0
sg92
I0
sg73
I0
sg222
I0
sg87
I0
sg66
I0
sg100
I0
sg91
I4
sg367
I0
sg82
I0
sg224
I0
sg279
I0
sg72
I0
sg80
I0
sg89
I0
sg86
I0
sg88
I0
sg85
I0
sg126
I0
sg258
I0
sg129
I0
sg261
I0
sg96
I0
sg265
I0
sg240
I0
sg267
I0
sg99
I0
sg93
I0
sg68
I0
sg79
I0
sg97
I0
sg75
I0
sg251
I0
ssg43
(dp473
g59
I0
sg334
I0
sg46
I0
sg335
I0
sg336
I0
sg177
I0
sg43
I2
sg44
I0
sg57
I0
sg192
I0
sg337
I0
sg60
I0
sg58
I0
sg41
I0
sg338
I0
sg42
I0
sg205
I0
sg178
I0
sg339
I0
sg47
I0
sg65
I0
sg55
I0
sg100
I0
sg56
I0
sg64
I0
sg48
I0
sg340
I0
sg61
I0
sg49
I0
sg341
I0
sg62
I0
sg342
I0
sg53
I0
sg50
I0
sg343
I0
sg40
I0
sg202
I0
sg344
I0
sg54
I0
sg189
I0
sg52
I0
sg345
I0
sg214
I0
sg45
I0
sg187
I0
sg346
I0
sg51
I0
sg63
I0
ssg82
(dp474
g66
I0
sg84
I0
sg83
I0
sg81
I0
sg98
I0
sg77
I0
sg92
I0
sg91
I0
sg90
I0
sg253
I0
sg82
I0
sg254
I0
sg255
I0
sg76
I0
sg256
I0
sg72
I0
sg80
I0
sg257
I0
sg89
I0
sg86
I0
sg88
I0
sg67
I0
sg258
I0
sg259
I0
sg260
I0
sg261
I0
sg79
I0
sg262
I0
sg78
I0
sg69
I0
sg263
I0
sg70
I0
sg96
I0
sg265
I0
sg266
I0
sg95
I0
sg85
I0
sg267
I0
sg99
I0
sg269
I0
sg270
I0
sg93
I0
sg271
I0
sg272
I0
sg73
I0
sg273
I0
sg94
I0
sg68
I0
sg264
I0
sg97
I0
sg268
I0
sg87
I0
sg71
I0
sg74
I0
sg75
I0
ssg130
(dp475
g217
I0
sg218
I0
sg139
I0
sg219
I0
sg220
I0
sg221
I0
sg135
I0
sg237
I0
sg222
I0
sg223
I0
sg224
I0
sg225
I0
sg226
I0
sg227
I0
sg132
I0
sg228
I0
sg229
I0
sg230
I0
sg124
I0
sg231
I0
sg232
I0
sg233
I0
sg234
I0
sg126
I0
sg235
I0
sg129
I0
sg236
I0
sg130
I0
sg125
I0
sg238
I0
sg239
I0
sg134
I0
sg240
I0
sg241
I0
sg136
I0
sg242
I0
sg243
I0
sg133
I0
sg244
I0
sg245
I0
sg246
I0
sg247
I0
sg137
I0
sg248
I0
sg127
I0
sg131
I2
sg249
I0
sg250
I0
sg251
I0
sg128
I0
ssg102
(dp476
g236
I0
sg103
I0
sg120
I0
sg139
I0
sg133
I0
sg219
I0
sg246
I0
sg109
I0
sg126
I0
sg104
I0
sg130
I0
sg298
I0
sg299
I0
sg102
I4
sg193
I0
sg106
I0
sg300
I0
sg125
I0
sg111
I0
sg113
I0
sg229
I0
sg212
I0
sg124
I0
sg301
I0
sg132
I0
sg101
I0
sg121
I0
sg112
I0
sg234
I0
sg122
I0
sg302
I0
sg129
I0
sg206
I0
sg303
I0
sg233
I0
sg304
I0
sg119
I0
sg115
I0
sg118
I0
sg238
I0
sg305
I0
sg134
I0
sg108
I0
sg110
I0
sg136
I0
sg242
I0
sg306
I0
sg117
I0
sg116
I0
sg114
I0
sg162
I0
sg307
I0
sg183
I0
sg184
I0
sg105
I0
sg248
I0
sg127
I0
sg131
I0
sg308
I0
sg137
I0
sg128
I0
sg230
I0
sg135
I0
sg107
I0
ssg58
(dp477
g138
I0
sg59
I0
sg46
I0
sg163
I0
sg177
I0
sg43
I0
sg44
I0
sg57
I0
sg192
I0
sg288
I0
sg289
I0
sg60
I0
sg58
I2
sg41
I0
sg42
I0
sg211
I0
sg215
I0
sg156
I0
sg205
I0
sg178
I0
sg290
I0
sg47
I0
sg291
I0
sg65
I0
sg55
I0
sg56
I0
sg64
I0
sg150
I0
sg48
I0
sg169
I0
sg61
I0
sg49
I0
sg292
I0
sg168
I0
sg62
I0
sg157
I0
sg53
I0
sg50
I0
sg40
I0
sg202
I0
sg54
I0
sg189
I0
sg52
I0
sg148
I0
sg145
I0
sg214
I0
sg45
I0
sg187
I0
sg173
I0
sg51
I0
sg293
I0
sg63
I0
ssg111
(dp478
g313
I0
sg103
I0
sg120
I0
sg139
I0
sg198
I0
sg314
I0
sg190
I0
sg109
I0
sg104
I0
sg207
I0
sg298
I0
sg299
I0
sg102
I0
sg193
I0
sg106
I0
sg300
I0
sg179
I0
sg111
I2
sg113
I0
sg212
I0
sg301
I0
sg101
I0
sg121
I0
sg112
I0
sg122
I0
sg302
I0
sg213
I0
sg206
I0
sg303
I0
sg304
I0
sg119
I0
sg115
I0
sg118
I0
sg305
I0
sg185
I0
sg108
I0
sg110
I0
sg181
I0
sg306
I0
sg117
I0
sg116
I0
sg114
I0
sg162
I0
sg307
I0
sg183
I0
sg184
I0
sg105
I0
sg315
I0
sg186
I0
sg308
I0
sg188
I0
sg107
I0
ssg72
(dp479
g66
I0
sg84
I0
sg83
I0
sg81
I0
sg98
I0
sg77
I0
sg92
I0
sg91
I0
sg90
I0
sg253
I0
sg82
I0
sg254
I0
sg255
I0
sg76
I0
sg256
I0
sg72
I0
sg80
I0
sg257
I0
sg89
I0
sg86
I0
sg88
I0
sg67
I0
sg258
I0
sg259
I0
sg260
I0
sg261
I0
sg85
I0
sg262
I0
sg78
I0
sg69
I0
sg263
I0
sg70
I0
sg264
I0
sg265
I0
sg266
I0
sg95
I0
sg267
I0
sg268
I0
sg99
I0
sg269
I0
sg270
I0
sg93
I0
sg271
I0
sg272
I0
sg73
I0
sg273
I0
sg94
I0
sg68
I0
sg79
I0
sg97
I0
sg96
I0
sg87
I0
sg71
I0
sg74
I0
sg75
I0
ssg22
(dp480
g14
I0
sg35
I0
sg300
I0
sg127
I0
sg282
I0
sg283
I0
sg118
I0
sg281
I0
sg117
I0
sg110
I0
sg9
I0
sg136
I0
sg8
I0
sg39
I0
sg25
I0
sg248
I0
sg32
I0
sg131
I0
sg33
I0
sg137
I0
sg26
I0
sg135
I0
sg109
I0
sg15
I0
sg16
I0
sg20
I0
sg106
I0
sg21
I0
sg132
I0
sg285
I0
sg24
I0
sg23
I0
sg10
I0
sg125
I0
sg119
I0
sg115
I0
sg29
I0
sg133
I0
sg134
I0
sg114
I0
sg38
I0
sg11
I0
sg12
I0
sg238
I0
sg27
I0
sg203
I0
sg128
I0
sg276
I0
sg28
I0
sg103
I0
sg120
I0
sg139
I0
sg104
I0
sg122
I0
sg113
I0
sg124
I0
sg13
I0
sg101
I0
sg121
I0
sg112
I0
sg242
I0
sg206
I0
sg130
I0
sg30
I0
sg37
I0
sg116
I0
sg307
I0
sg105
I0
sg18
I0
sg19
I0
sg123
I0
sg36
I0
sg219
I0
sg31
I0
sg102
I0
sg279
I0
sg111
I0
sg229
I0
sg22
I6
sg126
I0
sg302
I0
sg129
I0
sg303
I0
sg34
I0
sg138
I0
sg17
I0
sg305
I0
sg108
I0
sg306
I0
sg162
I0
sg230
I0
sg107
I0
ssg89
(dp481
g66
I0
sg84
I0
sg83
I0
sg81
I0
sg98
I0
sg77
I0
sg364
I0
sg92
I0
sg91
I0
sg90
I0
sg367
I0
sg82
I0
sg358
I0
sg255
I0
sg76
I0
sg359
I0
sg365
I0
sg72
I0
sg80
I0
sg100
I0
sg366
I0
sg89
I0
sg86
I0
sg88
I0
sg67
I0
sg258
I0
sg260
I0
sg261
I0
sg85
I0
sg78
I0
sg69
I0
sg360
I0
sg70
I0
sg264
I0
sg265
I0
sg266
I0
sg362
I0
sg95
I0
sg267
I0
sg355
I0
sg99
I0
sg356
I0
sg357
I0
sg93
I0
sg271
I0
sg272
I0
sg73
I0
sg361
I0
sg94
I0
sg68
I0
sg79
I0
sg97
I0
sg96
I0
sg87
I0
sg363
I0
sg71
I0
sg74
I0
sg75
I0
ssg86
(dp482
g66
I0
sg84
I0
sg83
I0
sg81
I0
sg98
I0
sg77
I0
sg92
I0
sg91
I0
sg90
I0
sg253
I0
sg82
I0
sg254
I0
sg255
I0
sg76
I0
sg256
I0
sg72
I0
sg80
I0
sg257
I0
sg89
I0
sg86
I0
sg88
I0
sg67
I0
sg258
I0
sg259
I0
sg260
I0
sg261
I0
sg79
I0
sg262
I0
sg78
I0
sg69
I0
sg263
I0
sg70
I0
sg96
I0
sg265
I0
sg266
I0
sg95
I0
sg85
I0
sg267
I0
sg99
I0
sg269
I0
sg270
I0
sg93
I0
sg271
I0
sg272
I0
sg73
I0
sg273
I0
sg94
I0
sg68
I0
sg264
I0
sg97
I0
sg268
I0
sg87
I0
sg71
I0
sg74
I0
sg75
I0
ssg88
(dp483
g66
I0
sg84
I0
sg83
I0
sg81
I0
sg98
I0
sg77
I0
sg364
I0
sg92
I0
sg91
I0
sg90
I0
sg367
I0
sg82
I0
sg358
I0
sg255
I0
sg76
I0
sg359
I0
sg365
I0
sg72
I0
sg80
I0
sg100
I0
sg366
I0
sg89
I2
sg86
I0
sg88
I0
sg67
I0
sg258
I0
sg260
I0
sg261
I0
sg85
I0
sg78
I0
sg69
I0
sg360
I0
sg70
I0
sg264
I0
sg265
I0
sg266
I0
sg362
I0
sg95
I0
sg267
I0
sg355
I0
sg99
I0
sg356
I0
sg357
I0
sg93
I0
sg271
I0
sg272
I0
sg73
I0
sg361
I0
sg94
I0
sg68
I0
sg79
I0
sg97
I0
sg96
I0
sg87
I0
sg363
I0
sg71
I0
sg74
I0
sg75
I0
ssg85
(dp484
g66
I0
sg84
I0
sg83
I0
sg81
I0
sg98
I0
sg77
I0
sg92
I0
sg91
I0
sg90
I0
sg253
I0
sg82
I0
sg254
I0
sg255
I0
sg76
I0
sg256
I0
sg72
I0
sg80
I0
sg257
I0
sg89
I0
sg86
I2
sg88
I0
sg85
I0
sg258
I0
sg259
I0
sg260
I0
sg261
I0
sg67
I0
sg262
I0
sg78
I0
sg69
I0
sg263
I0
sg70
I0
sg264
I0
sg265
I0
sg266
I0
sg95
I0
sg267
I0
sg268
I0
sg99
I0
sg269
I0
sg270
I0
sg93
I0
sg271
I0
sg272
I0
sg73
I0
sg273
I0
sg94
I0
sg68
I0
sg79
I0
sg97
I0
sg96
I0
sg87
I0
sg71
I0
sg74
I0
sg75
I0
ssg126
(dp485
g276
I0
sg219
I0
sg277
I0
sg135
I0
sg130
I0
sg222
I0
sg223
I0
sg224
I0
sg225
I0
sg226
I0
sg278
I0
sg279
I0
sg132
I0
sg229
I0
sg230
I0
sg124
I0
sg231
I0
sg280
I0
sg233
I0
sg234
I0
sg126
I0
sg235
I2
sg281
I0
sg242
I0
sg129
I0
sg282
I0
sg236
I0
sg283
I0
sg237
I0
sg125
I0
sg138
I0
sg238
I0
sg284
I0
sg134
I0
sg240
I0
sg136
I0
sg127
I0
sg243
I0
sg133
I0
sg245
I0
sg246
I0
sg137
I0
sg285
I0
sg248
I0
sg131
I0
sg249
I0
sg286
I0
sg251
I0
sg128
I0
ssg65
(dp486
g177
I0
sg178
I0
sg60
I0
sg132
I0
sg67
I0
sg47
I0
sg127
I0
sg55
I0
sg56
I0
sg69
I0
sg70
I0
sg118
I0
sg62
I0
sg117
I0
sg110
I0
sg180
I0
sg136
I0
sg50
I0
sg40
I0
sg182
I0
sg183
I0
sg184
I0
sg134
I0
sg94
I0
sg131
I0
sg187
I0
sg51
I0
sg137
I0
sg81
I0
sg98
I0
sg54
I0
sg189
I0
sg135
I0
sg90
I0
sg44
I0
sg192
I0
sg122
I0
sg193
I0
sg106
I0
sg194
I0
sg41
I0
sg57
I0
sg195
I0
sg196
I0
sg260
I0
sg125
I0
sg119
I0
sg115
I0
sg48
I0
sg49
I0
sg133
I0
sg199
I0
sg114
I0
sg200
I0
sg52
I0
sg201
I0
sg96
I0
sg45
I0
sg202
I0
sg74
I0
sg75
I0
sg59
I0
sg84
I0
sg83
I0
sg204
I0
sg46
I0
sg103
I0
sg120
I0
sg104
I0
sg76
I0
sg42
I0
sg113
I0
sg124
I0
sg205
I0
sg101
I0
sg121
I0
sg112
I0
sg95
I0
sg100
I0
sg130
I0
sg78
I0
sg208
I0
sg63
I0
sg191
I0
sg116
I0
sg92
I0
sg109
I0
sg73
I0
sg105
I0
sg87
I0
sg209
I0
sg210
I0
sg123
I0
sg66
I0
sg77
I0
sg91
I0
sg43
I0
sg82
I0
sg102
I0
sg58
I0
sg111
I0
sg72
I0
sg71
I0
sg89
I0
sg86
I0
sg88
I0
sg85
I0
sg126
I0
sg65
I0
sg129
I0
sg64
I0
sg138
I0
sg214
I0
sg61
I0
sg108
I0
sg53
I0
sg99
I0
sg80
I0
sg93
I0
sg68
I0
sg79
I0
sg97
I0
sg128
I0
sg212
I0
sg107
I0
ssg32
(dp487
g161
I0
sg153
I0
sg154
I0
sg149
I0
sg28
I0
sg39
I0
sg14
I0
sg160
I0
sg164
I0
sg15
I0
sg35
I0
sg16
I0
sg20
I0
sg155
I0
sg21
I0
sg165
I0
sg22
I0
sg166
I0
sg13
I0
sg146
I0
sg172
I0
sg24
I0
sg23
I0
sg32
I2
sg10
I0
sg31
I0
sg144
I0
sg34
I0
sg159
I0
sg30
I0
sg147
I0
sg37
I0
sg29
I0
sg9
I0
sg351
I0
sg167
I0
sg352
I0
sg174
I0
sg158
I0
sg38
I0
sg8
I0
sg36
I0
sg26
I0
sg25
I0
sg170
I0
sg11
I0
sg12
I0
sg151
I0
sg171
I0
sg17
I0
sg33
I0
sg27
I0
sg18
I0
sg19
I0
sg152
I0
ssg64
(dp488
g177
I0
sg178
I0
sg60
I0
sg132
I0
sg67
I0
sg47
I0
sg127
I0
sg55
I0
sg56
I0
sg69
I0
sg70
I0
sg118
I0
sg62
I0
sg117
I0
sg110
I0
sg180
I0
sg136
I0
sg50
I0
sg40
I0
sg182
I0
sg183
I0
sg184
I0
sg134
I0
sg94
I0
sg131
I0
sg187
I0
sg51
I0
sg137
I0
sg81
I0
sg98
I0
sg54
I0
sg189
I0
sg135
I0
sg90
I0
sg44
I0
sg192
I0
sg122
I0
sg193
I0
sg106
I0
sg194
I0
sg41
I0
sg57
I0
sg195
I0
sg196
I0
sg260
I0
sg125
I0
sg119
I0
sg115
I0
sg48
I0
sg49
I0
sg133
I0
sg199
I0
sg114
I0
sg200
I0
sg52
I0
sg201
I0
sg96
I0
sg45
I0
sg202
I0
sg74
I0
sg75
I0
sg59
I0
sg84
I0
sg83
I0
sg204
I0
sg46
I0
sg103
I0
sg120
I0
sg104
I0
sg76
I0
sg42
I0
sg113
I0
sg124
I0
sg205
I0
sg101
I0
sg121
I0
sg112
I0
sg95
I0
sg100
I0
sg130
I0
sg78
I0
sg208
I0
sg63
I0
sg191
I0
sg116
I0
sg92
I0
sg109
I0
sg73
I0
sg105
I0
sg87
I0
sg209
I0
sg210
I0
sg123
I0
sg66
I0
sg77
I0
sg91
I0
sg43
I0
sg82
I0
sg102
I0
sg58
I0
sg111
I0
sg72
I0
sg71
I0
sg89
I0
sg86
I0
sg88
I0
sg85
I0
sg126
I0
sg65
I8
sg129
I0
sg64
I0
sg138
I0
sg214
I0
sg61
I0
sg108
I0
sg53
I0
sg99
I0
sg80
I0
sg93
I0
sg68
I0
sg79
I0
sg97
I0
sg128
I0
sg212
I0
sg107
I0
ssg34
(dp489
g161
I0
sg153
I0
sg154
I0
sg149
I0
sg28
I0
sg39
I0
sg14
I0
sg160
I0
sg164
I0
sg15
I0
sg35
I0
sg16
I0
sg20
I0
sg155
I0
sg21
I0
sg165
I0
sg22
I0
sg166
I0
sg13
I0
sg146
I0
sg172
I0
sg24
I0
sg23
I0
sg32
I0
sg10
I0
sg31
I0
sg144
I0
sg34
I2
sg159
I0
sg30
I0
sg147
I0
sg37
I0
sg29
I0
sg9
I0
sg351
I0
sg167
I0
sg352
I0
sg174
I0
sg158
I0
sg38
I0
sg8
I0
sg36
I0
sg26
I0
sg25
I0
sg170
I0
sg11
I0
sg12
I0
sg151
I0
sg171
I0
sg17
I0
sg33
I0
sg27
I0
sg18
I0
sg19
I0
sg152
I0
ssg138
(dp490
g276
I0
sg163
I0
sg277
I0
sg280
I0
sS'add.v.01'
p491
I0
sg288
I0
sg289
I0
sg278
I0
sg279
I0
sg211
I0
sg215
I0
sg156
I0
sS'fill.v.01'
p492
I0
sg290
I0
sg293
I0
sg168
I0
sS'mix.v.05'
p493
I0
sg282
I0
sg283
I0
sS'blend.v.03'
p494
I0
sg150
I0
sg284
I0
sg169
I0
sg138
I0
sg281
I0
sS'water.n.06'
p495
I0
sg157
I0
sS'piece.n.08'
p496
I0
sg292
I0
sS'slice.n.06'
p497
I0
sg285
I0
sg148
I0
sg145
I0
sS'lend.v.01'
p498
I0
sg286
I0
sg291
I0
sg173
I0
ssg96
(dp499
g277
I0
sg280
I0
sg278
I0
sg67
I0
sg127
I0
sg282
I0
sg283
I0
sg69
I0
sg70
I0
sg138
I0
sg281
I0
sg136
I0
sg355
I0
sg356
I0
sg71
I0
sg272
I0
sg94
I0
sg131
I0
sg286
I0
sg357
I0
sg137
I0
sg125
I0
sg81
I0
sg98
I0
sg271
I0
sg90
I0
sg358
I0
sg255
I0
sg225
I0
sg226
I0
sg359
I0
sg285
I0
sg233
I0
sg234
I0
sg260
I0
sg132
I0
sg360
I0
sg266
I0
sg133
I0
sg134
I0
sg361
I0
sg264
I0
sg362
I0
sg363
I0
sg74
I0
sg128
I0
sg276
I0
sg84
I0
sg83
I0
sg364
I0
sg135
I0
sg76
I0
sg365
I0
sg124
I0
sg366
I0
sg95
I0
sg77
I0
sg130
I0
sg78
I0
sg92
I0
sg73
I0
sg222
I0
sg87
I0
sg66
I0
sg100
I0
sg91
I0
sg367
I0
sg82
I0
sg224
I0
sg279
I0
sg72
I0
sg80
I0
sg89
I0
sg86
I0
sg88
I0
sg85
I0
sg126
I0
sg258
I0
sg129
I0
sg261
I0
sg96
I2
sg265
I0
sg240
I0
sg267
I0
sg99
I0
sg93
I0
sg68
I0
sg79
I0
sg97
I0
sg75
I0
sg251
I0
ssg61
(dp500
g177
I0
sg178
I0
sg60
I0
sg179
I0
sg67
I0
sg47
I0
sg145
I0
sg55
I0
sg56
I0
sg69
I0
sg70
I0
sg118
I0
sg62
I0
sg117
I0
sg110
I0
sg181
I0
sg50
I0
sg40
I0
sg183
I0
sg184
I0
sg94
I0
sg186
I0
sg187
I0
sg51
I0
sg188
I0
sg81
I0
sg98
I0
sg54
I0
sg189
I0
sg190
I0
sg90
I0
sg44
I0
sg192
I0
sg122
I0
sg193
I0
sg106
I0
sg41
I0
sg57
I0
sg290
I0
sg293
I0
sg260
I0
sg150
I0
sg119
I0
sg115
I0
sg48
I0
sg49
I0
sg198
I0
sg185
I0
sg114
I0
sg52
I0
sg96
I0
sg45
I0
sg202
I0
sg74
I0
sg75
I0
sg59
I0
sg84
I0
sg83
I0
sg46
I0
sg103
I0
sg120
I0
sg139
I0
sg104
I0
sg76
I0
sg42
I0
sg113
I0
sg156
I0
sg205
I0
sg101
I0
sg121
I0
sg112
I0
sg95
I0
sg100
I0
sg207
I0
sg78
I0
sg63
I0
sg116
I0
sg92
I0
sg109
I0
sg73
I0
sg105
I0
sg87
I0
sg66
I0
sg77
I0
sg91
I0
sg43
I0
sg82
I0
sg102
I0
sg58
I0
sg111
I0
sg72
I0
sg71
I0
sg89
I0
sg86
I0
sg88
I0
sg85
I0
sg168
I0
sg65
I0
sg213
I0
sg64
I0
sg138
I0
sg214
I0
sg61
I0
sg108
I0
sg53
I0
sg99
I0
sg80
I0
sg93
I0
sg68
I0
sg79
I0
sg97
I0
sg173
I0
sg212
I0
sg107
I0
ssg108
(dp501
g138
I0
sg276
I0
sg236
I0
sg103
I0
sg120
I0
sg139
I0
sg133
I0
sg219
I0
sg246
I0
sg109
I0
sg126
I0
sg104
I0
sg130
I0
sg298
I0
sg299
I0
sg102
I0
sg193
I0
sg106
I0
sg300
I0
sg279
I0
sg125
I0
sg111
I0
sg113
I0
sg229
I0
sg212
I0
sg124
I0
sg301
I0
sg132
I0
sg101
I0
sg121
I0
sg112
I0
sg234
I0
sg122
I0
sg302
I0
sg281
I0
sg129
I0
sg282
I0
sg206
I0
sg283
I0
sg303
I0
sg233
I0
sg304
I0
sg119
I0
sg115
I0
sg118
I0
sg238
I0
sg305
I0
sg134
I0
sg108
I0
sg110
I0
sg136
I0
sg242
I0
sg306
I0
sg117
I0
sg286
I0
sg116
I0
sg114
I0
sg162
I0
sg307
I0
sg183
I0
sg184
I0
sg105
I0
sg285
I0
sg248
I0
sg127
I0
sg131
I0
sg308
I0
sg137
I0
sg128
I0
sg230
I0
sg135
I0
sg107
I0
ssg53
(dp502
g177
I0
sg178
I0
sg60
I0
sg132
I0
sg67
I0
sg47
I0
sg127
I0
sg55
I0
sg56
I0
sg69
I0
sg70
I0
sg118
I0
sg62
I0
sg117
I0
sg110
I0
sg136
I0
sg50
I0
sg40
I0
sg270
I0
sg253
I0
sg94
I0
sg129
I0
sg131
I0
sg187
I0
sg51
I0
sg137
I0
sg81
I0
sg98
I0
sg54
I10
sg189
I0
sg135
I0
sg90
I0
sg44
I0
sg192
I0
sg122
I0
sg193
I0
sg106
I0
sg41
I0
sg57
I0
sg233
I0
sg234
I0
sg260
I0
sg125
I0
sg119
I0
sg115
I0
sg48
I0
sg49
I0
sg133
I0
sg134
I0
sg114
I0
sg269
I0
sg52
I0
sg96
I0
sg45
I0
sg202
I0
sg74
I0
sg75
I0
sg59
I0
sg84
I0
sg83
I0
sg46
I0
sg103
I0
sg120
I0
sg139
I0
sg104
I0
sg76
I0
sg42
I0
sg113
I0
sg124
I0
sg205
I0
sg101
I0
sg121
I0
sg112
I0
sg95
I0
sg100
I0
sg130
I0
sg78
I0
sg263
I0
sg63
I0
sg116
I0
sg92
I0
sg109
I0
sg73
I2
sg105
I0
sg87
I0
sg66
I0
sg93
I0
sg77
I0
sg91
I0
sg43
I0
sg82
I0
sg102
I0
sg58
I0
sg111
I0
sg72
I0
sg71
I0
sg89
I0
sg86
I0
sg88
I0
sg85
I0
sg126
I0
sg65
I0
sg259
I0
sg64
I0
sg262
I0
sg138
I0
sg214
I0
sg61
I0
sg108
I0
sg53
I0
sg99
I0
sg80
I0
sg273
I0
sg68
I0
sg79
I0
sg97
I0
sg128
I0
sg212
I0
sg107
I0
ssg99
(dp503
g66
I0
sg84
I0
sg83
I0
sg81
I0
sg98
I0
sg77
I0
sg364
I0
sg92
I0
sg91
I0
sg90
I0
sg367
I0
sg82
I0
sg358
I0
sg255
I0
sg76
I0
sg359
I0
sg365
I0
sg72
I0
sg80
I0
sg100
I0
sg366
I0
sg89
I0
sg86
I0
sg88
I0
sg67
I0
sg258
I0
sg260
I0
sg261
I0
sg85
I0
sg78
I0
sg69
I0
sg360
I0
sg70
I0
sg264
I0
sg265
I0
sg266
I0
sg362
I0
sg95
I0
sg267
I0
sg355
I0
sg99
I0
sg356
I0
sg357
I0
sg93
I0
sg271
I0
sg272
I0
sg73
I0
sg361
I0
sg94
I0
sg68
I0
sg79
I0
sg97
I0
sg96
I0
sg87
I0
sg363
I0
sg71
I0
sg74
I0
sg75
I0
ssg93
(dp504
g304
I0
sg298
I0
sg300
I0
sg67
I0
sg69
I0
sg70
I0
sg118
I0
sg117
I0
sg110
I0
sg180
I0
sg355
I0
sg356
I0
sg71
I0
sg182
I0
sg183
I0
sg184
I0
sg94
I0
sg357
I0
sg101
I0
sg81
I0
sg98
I0
sg271
I0
sg272
I0
sg90
I0
sg358
I0
sg255
I0
sg193
I0
sg106
I0
sg194
I0
sg359
I0
sg195
I0
sg196
I0
sg260
I0
sg119
I0
sg115
I0
sg360
I0
sg266
I0
sg199
I0
sg114
I0
sg200
I0
sg361
I0
sg201
I0
sg96
I0
sg362
I0
sg363
I0
sg74
I0
sg75
I0
sg84
I0
sg83
I0
sg204
I0
sg364
I0
sg103
I0
sg120
I0
sg104
I0
sg76
I0
sg365
I0
sg113
I0
sg366
I0
sg122
I0
sg121
I0
sg112
I0
sg95
I0
sg77
I0
sg78
I0
sg208
I0
sg191
I0
sg116
I0
sg92
I0
sg109
I0
sg73
I0
sg105
I0
sg87
I0
sg209
I0
sg210
I0
sg123
I0
sg66
I0
sg100
I0
sg91
I0
sg367
I0
sg82
I0
sg102
I0
sg111
I0
sg72
I0
sg80
I0
sg89
I0
sg86
I0
sg88
I0
sg85
I0
sg258
I0
sg261
I0
sg264
I0
sg265
I0
sg108
I0
sg267
I0
sg99
I0
sg93
I4
sg68
I0
sg79
I0
sg97
I0
sg212
I0
sg107
I0
ssg68
(dp505
g66
I0
sg84
I0
sg83
I0
sg81
I0
sg98
I0
sg77
I0
sg92
I0
sg91
I0
sg90
I0
sg253
I0
sg82
I0
sg254
I0
sg255
I0
sg76
I0
sg256
I0
sg72
I0
sg80
I0
sg257
I0
sg89
I0
sg86
I0
sg88
I0
sg67
I0
sg258
I0
sg259
I0
sg260
I0
sg261
I0
sg85
I0
sg262
I0
sg78
I0
sg69
I0
sg263
I0
sg70
I0
sg264
I0
sg265
I0
sg266
I0
sg95
I0
sg267
I0
sg268
I0
sg99
I0
sg269
I0
sg270
I0
sg93
I0
sg271
I0
sg272
I0
sg73
I0
sg273
I0
sg94
I0
sg68
I0
sg79
I0
sg97
I0
sg96
I0
sg87
I0
sg71
I0
sg74
I0
sg75
I0
ssg79
(dp506
g128
I0
sg66
I0
sg84
I0
sg83
I0
sg81
I0
sg98
I0
sg77
I0
sg92
I0
sg285
I0
sg276
I0
sg91
I0
sg90
I0
sg222
I0
sg253
I0
sg82
I0
sg135
I0
sg130
I0
sg254
I0
sg255
I0
sg224
I0
sg225
I0
sg76
I0
sg278
I0
sg233
I0
sg125
I0
sg256
I0
sg79
I0
sg80
I6
sg124
I0
sg257
I0
sg89
I0
sg86
I0
sg132
I0
sg88
I0
sg67
I0
sg234
I0
sg251
I0
sg258
I0
sg281
I0
sg131
I0
sg259
I0
sg282
I0
sg260
I0
sg283
I0
sg261
I0
sg85
I0
sg262
I0
sg78
I0
sg69
I0
sg263
I0
sg70
I0
sg264
I0
sg265
I0
sg226
I0
sg266
I0
sg240
I0
sg126
I0
sg134
I0
sg95
I0
sg279
I0
sg267
I0
sg133
I0
sg268
I0
sg99
I0
sg269
I0
sg270
I0
sg129
I0
sg93
I0
sg271
I0
sg272
I0
sg73
I0
sg137
I0
sg136
I0
sg273
I0
sg94
I0
sg127
I0
sg68
I0
sg72
I0
sg97
I0
sg138
I0
sg96
I0
sg87
I0
sg71
I0
sg74
I0
sg75
I0
ssg97
(dp507
g66
I0
sg84
I0
sg83
I0
sg81
I0
sg98
I0
sg77
I0
sg364
I0
sg92
I0
sg91
I0
sg90
I0
sg367
I0
sg82
I0
sg358
I0
sg255
I0
sg76
I0
sg359
I0
sg365
I0
sg72
I0
sg80
I0
sg100
I0
sg366
I0
sg89
I0
sg86
I0
sg88
I0
sg67
I0
sg258
I0
sg260
I0
sg261
I0
sg85
I0
sg78
I0
sg69
I0
sg360
I0
sg70
I0
sg264
I0
sg265
I0
sg266
I0
sg362
I0
sg95
I0
sg267
I0
sg355
I0
sg99
I0
sg356
I0
sg357
I0
sg93
I0
sg271
I0
sg272
I0
sg73
I0
sg361
I0
sg94
I0
sg68
I0
sg79
I0
sg97
I2
sg96
I0
sg87
I0
sg363
I0
sg71
I0
sg74
I0
sg75
I0
ssg128
(dp508
g276
I0
sg219
I0
sg277
I0
sg135
I0
sg130
I0
sg222
I0
sg223
I0
sg224
I0
sg225
I0
sg226
I0
sg278
I0
sg279
I0
sg132
I0
sg229
I0
sg230
I0
sg124
I0
sg231
I0
sg280
I0
sg233
I0
sg234
I0
sg126
I0
sg235
I0
sg281
I0
sg129
I0
sg282
I0
sg236
I0
sg283
I0
sg237
I0
sg125
I0
sg138
I0
sg238
I0
sg284
I0
sg134
I0
sg240
I0
sg136
I0
sg242
I0
sg243
I0
sg133
I0
sg245
I0
sg246
I0
sg137
I0
sg285
I0
sg248
I0
sg127
I0
sg131
I0
sg249
I0
sg286
I0
sg251
I0
sg128
I2
ssg80
(dp509
g128
I0
sg66
I0
sg84
I0
sg83
I0
sg81
I0
sg98
I0
sg77
I0
sg92
I0
sg285
I0
sg276
I0
sg91
I0
sg90
I0
sg222
I0
sg253
I0
sg82
I0
sg135
I0
sg130
I0
sg254
I0
sg255
I0
sg224
I0
sg225
I0
sg76
I0
sg278
I0
sg233
I0
sg125
I0
sg256
I0
sg72
I0
sg80
I0
sg124
I0
sg257
I0
sg89
I0
sg86
I0
sg132
I0
sg88
I0
sg67
I0
sg234
I0
sg251
I0
sg258
I0
sg281
I0
sg131
I0
sg259
I0
sg282
I0
sg260
I0
sg283
I0
sg261
I0
sg85
I0
sg262
I0
sg78
I0
sg69
I0
sg263
I0
sg70
I0
sg264
I0
sg265
I0
sg226
I0
sg266
I0
sg240
I0
sg126
I0
sg134
I0
sg95
I0
sg279
I0
sg267
I0
sg133
I0
sg268
I0
sg99
I0
sg269
I0
sg270
I0
sg129
I0
sg93
I0
sg271
I0
sg272
I0
sg73
I0
sg137
I0
sg136
I0
sg273
I0
sg94
I0
sg127
I0
sg68
I0
sg79
I0
sg97
I0
sg138
I0
sg96
I0
sg87
I0
sg71
I0
sg74
I0
sg75
I0
ssg107
(dp510
g313
I0
sg103
I0
sg120
I0
sg139
I0
sg198
I0
sg314
I0
sg190
I0
sg109
I0
sg104
I0
sg207
I0
sg298
I0
sg299
I0
sg102
I0
sg193
I0
sg106
I0
sg300
I0
sg179
I0
sg111
I0
sg113
I0
sg212
I0
sg301
I0
sg101
I0
sg121
I0
sg112
I0
sg122
I0
sg302
I0
sg213
I0
sg206
I0
sg303
I0
sg304
I0
sg119
I0
sg115
I0
sg118
I0
sg305
I0
sg185
I0
sg108
I2
sg110
I0
sg181
I0
sg306
I0
sg117
I0
sg116
I0
sg114
I0
sg162
I0
sg307
I0
sg183
I0
sg184
I0
sg105
I0
sg315
I0
sg186
I0
sg308
I0
sg188
I0
sg107
I0
sssb.