ccopy_reg
_reconstructor
p0
(cutils.eval
ConfusionMatrix
p1
c__builtin__
object
p2
Ntp3
Rp4
(dp5
S'labels'
p6
(lp7
S'piece.n.08'
p8
aS'slice.n.06'
p9
aS'add.v.01'
p10
aS'lend.v.01'
p11
aS'jar.n.01'
p12
aS'fill.v.01'
p13
aS'gravy.n.01'
p14
aS'gravy.n.02'
p15
aS'cup.n.01'
p16
aS'cola.n.02'
p17
aS'strawberry.n.01'
p18
aS'cut.v.01'
p19
aS'edit.v.03'
p20
aS'fork.n.01'
p21
aS'fork.n.03'
p22
aS'bowl.n.01'
p23
aS'bowl.n.08'
p24
aS'blend.v.03'
p25
aS'mix.v.05'
p26
aS'pour.v.01'
p27
aS'bread.n.01'
p28
aS'pan.n.01'
p29
aS'pan.n.03'
p30
aS'mix.n.03'
p31
aS'pot.n.01'
p32
aS'water.n.06'
p33
aS'vanilla.n.02'
p34
aS'vanilla.n.03'
p35
aS'egg.n.02'
p36
aS'egg.n.01'
p37
aS'concoction.n.01'
p38
aS'butter.n.01'
p39
aS'dough.n.01'
p40
aS'boodle.n.01'
p41
aS'mix.v.04'
p42
aS'measuring_cup.n.01'
p43
aS'meal.n.03'
p44
asS'instanceCount'
p45
I34
sS'matrix'
p46
(dp47
g18
(dp48
S'strawberry.n.01'
p49
I1
ssg28
(dp50
S'bread.n.01'
p51
I1
ssg23
(dp52
g24
I1
ssg24
(dp53
g24
I0
ssg10
(dp54
g11
I3
ssg29
(dp55
g30
I1
ssg30
(dp56
g30
I0
ssg19
(dp57
g20
I1
ssg17
(dp58
S'cola.n.02'
p59
I1
ssg36
(dp60
g37
I2
ssg37
(dp61
g37
I0
ssg32
(dp62
S'pot.n.01'
p63
I1
ssg13
(dp64
S'fill.v.01'
p65
I4
ssg35
(dp66
g35
I0
ssg34
(dp67
g35
I1
ssg42
(dp68
S'mix.v.05'
p69
I1
ssg26
(dp70
g26
I0
ssg14
(dp71
g15
I1
ssg15
(dp72
g15
I0
ssg25
(dp73
g26
I2
ssg40
(dp74
g41
I1
ssg22
(dp75
g22
I0
ssg31
(dp76
S'mix.n.03'
p77
I1
ssg20
(dp78
g20
I0
ssg21
(dp79
g22
I1
ssg33
(dp80
S'water.n.06'
p81
I1
ssg38
(dp82
S'concoction.n.01'
p83
I1
ssg8
(dp84
g9
I2
ssg41
(dp85
g41
I0
ssg9
(dp86
g9
I0
ssg16
(dp87
S'cup.n.01'
p88
I1
ssg27
(dp89
S'pour.v.01'
p90
I1
ssg43
(dp91
S'measuring_cup.n.01'
p92
I1
ssg11
(dp93
g11
I0
ssg12
(dp94
S'jar.n.01'
p95
I1
ssg39
(dp96
S'butter.n.01'
p97
I1
ssg44
(dp98
S'meal.n.03'
p99
I1
sssb.