ccopy_reg
_reconstructor
p0
(cutils.eval
ConfusionMatrix
p1
c__builtin__
object
p2
Ntp3
Rp4
(dp5
S'labels'
p6
(lp7
S'flesh.n.01'
p8
aS'human_body.n.01'
p9
aS'slice.v.03'
p10
aS'jar.n.01'
p11
aS'fill.v.01'
p12
aS'pan.n.01'
p13
aS'pan.n.03'
p14
aS'water.n.06'
p15
aS'add.v.01'
p16
aS'lend.v.01'
p17
aS'chicken.n.01'
p18
aS'chicken.n.02'
p19
aS'corn.n.02'
p20
aS'corn_whiskey.n.01'
p21
aS'chop.v.01'
p22
aS'chop.v.05'
p23
aS'whiskey.n.01'
p24
aS'carafe.n.01'
p25
aS'burner.n.02'
p26
aS'burner.n.01'
p27
aS'pan.n.02'
p28
aS'butter.n.01'
p29
aS'vanilla.n.02'
p30
aS'vanilla.n.03'
p31
aS'put.v.01'
p32
aS'put.v.02'
p33
aS'onion.n.01'
p34
aS'onion.n.03'
p35
aS'beef.n.02'
p36
aS'gripe.n.01'
p37
aS'plate.n.04'
p38
aS'plate.n.10'
p39
aS'liquid.n.01'
p40
aS'pour.v.01'
p41
aS'sink.n.01'
p42
aS'cesspool.n.01'
p43
aS'egg.n.02'
p44
aS'egg.n.01'
p45
aS'dough.n.01'
p46
aS'boodle.n.01'
p47
aS'mix.v.04'
p48
aS'mix.v.05'
p49
aS'apple.n.01'
p50
aS'blend.v.03'
p51
aS'avocado.n.01'
p52
aS'opening.n.01'
p53
aS'gap.n.03'
p54
aS'fill.v.09'
p55
aS'batter.n.02'
p56
aS'bread.n.01'
p57
aS'mix.n.03'
p58
aS'fork.n.01'
p59
aS'branching.n.01'
p60
aS'bowl.n.01'
p61
aS'bowl.n.08'
p62
aS'kettle.n.01'
p63
aS'opening.n.10'
p64
aS'curd.n.01'
p65
aS'teapot.n.01'
p66
aS'water_system.n.02'
p67
aS'rice.n.01'
p68
aS'concoction.n.01'
p69
aS'thermos.n.01'
p70
aS'coffee.n.01'
p71
aS'pitcher.n.02'
p72
aS'milk.n.01'
p73
aS'cheese.n.01'
p74
aS'carve.v.03'
p75
aS'hack.v.07'
p76
aS'pepper.n.04'
p77
aS'pepper.n.03'
p78
aS'wok.n.01'
p79
aS'cut.n.16'
p80
aS'edit.v.03'
p81
aS'bag.n.01'
p82
aS'bag.n.04'
p83
aS'gravy.n.01'
p84
aS'gravy.n.02'
p85
aS'sugar.n.01'
p86
aS'sauce.n.01'
p87
aS'cover.v.01'
p88
aS'cover.v.16'
p89
aS'rib.n.03'
p90
aS'rib.n.01'
p91
aS'bottle.n.01'
p92
aS'fruit_juice.n.01'
p93
aS'blend.v.01'
p94
aS'stadium.n.01'
p95
aS'serve.v.05'
p96
aS'serve.v.11'
p97
aS'cut.v.01'
p98
aS'piece.n.08'
p99
aS'slice.n.06'
p100
aS'mug.n.04'
p101
aS'strawberry.n.01'
p102
aS'glass.n.02'
p103
asS'instanceCount'
p104
I107
sS'matrix'
p105
(dp106
g61
(dp107
g95
I1
sg62
I1
ssg62
(dp108
g62
I0
ssg98
(dp109
S'edit.v.03'
p110
I2
ssg88
(dp111
g89
I1
ssg21
(dp112
g21
I0
ssg84
(dp113
g85
I1
ssg85
(dp114
g85
I0
ssg90
(dp115
g91
I1
ssg91
(dp116
g91
I0
ssg59
(dp117
g60
I1
ssg97
(dp118
g97
I0
ssg9
(dp119
g9
I0
ssg24
(dp120
S'whiskey.n.01'
p121
I1
ssg53
(dp122
g64
I1
sg54
I1
ssg8
(dp123
g9
I1
ssg33
(dp124
g33
I0
ssg32
(dp125
g33
I2
sS'put.v.01'
p126
I1
ssg41
(dp127
S'pour.v.01'
p128
I3
ssg103
(dp129
S'glass.n.02'
p130
I1
ssg11
(dp131
S'jar.n.01'
p132
I2
ssg25
(dp133
S'carafe.n.01'
p134
I1
ssg18
(dp135
g19
I1
ssg42
(dp136
g43
I1
ssg19
(dp137
g19
I0
ssg100
(dp138
g100
I0
ssg15
(dp139
g67
I1
sS'water.n.06'
p140
I3
ssg52
(dp141
S'avocado.n.01'
p142
I1
ssg64
(dp143
g64
I0
ssg16
(dp144
g17
I6
ssg13
(dp145
S'pan.n.01'
p146
I1
sg14
I1
sg28
I1
ssg14
(dp147
g14
I0
ssg28
(dp148
g28
I0
ssg54
(dp149
g54
I0
ssg31
(dp150
g31
I0
ssg30
(dp151
g31
I2
ssg10
(dp152
S'slice.v.03'
p153
I2
ssg46
(dp154
g47
I1
ssg79
(dp155
S'wok.n.01'
p156
I1
ssg77
(dp157
g78
I1
ssg78
(dp158
g78
I0
ssg37
(dp159
g37
I0
ssg95
(dp160
g95
I0
ssg93
(dp161
S'fruit_juice.n.01'
p162
I1
ssg66
(dp163
S'teapot.n.01'
p164
I1
ssg63
(dp165
S'kettle.n.01'
p166
I1
ssg58
(dp167
S'mix.n.03'
p168
I1
ssg65
(dp169
S'curd.n.01'
p170
I1
ssg34
(dp171
S'onion.n.01'
p172
I1
sg35
I1
ssg35
(dp173
g35
I0
ssg102
(dp174
S'strawberry.n.01'
p175
I1
ssg20
(dp176
g21
I1
ssg36
(dp177
g37
I1
ssg75
(dp178
g76
I1
ssg55
(dp179
S'fill.v.01'
p180
I2
ssg92
(dp181
S'bottle.n.01'
p182
I1
ssg12
(dp183
S'fill.v.01'
p184
I13
ssg72
(dp185
S'pitcher.n.02'
p186
I1
ssg69
(dp187
S'concoction.n.01'
p188
I1
sS'mix.n.03'
p189
I1
ssg76
(dp190
g76
I0
ssg38
(dp191
g39
I1
ssg71
(dp192
S'coffee.n.01'
p193
I1
ssg60
(dp194
g60
I0
ssg101
(dp195
S'mug.n.04'
p196
I1
ssg67
(dp197
g67
I0
ssg96
(dp198
g97
I1
ssg80
(dp199
g81
I1
ssg26
(dp200
g27
I1
ssg27
(dp201
g27
I0
ssg74
(dp202
S'cheese.n.01'
p203
I1
ssg39
(dp204
g39
I0
ssg57
(dp205
S'bread.n.01'
p206
I1
ssg56
(dp207
S'batter.n.02'
p208
I1
ssg50
(dp209
S'apple.n.01'
p210
I1
ssg73
(dp211
S'milk.n.01'
p212
I2
ssg44
(dp213
g45
I2
ssg29
(dp214
S'butter.n.01'
p215
I3
ssg68
(dp216
S'rice.n.01'
p217
I2
ssg83
(dp218
g83
I0
ssg23
(dp219
g23
I0
ssg82
(dp220
g83
I1
ssg22
(dp221
g23
I1
ssg48
(dp222
g49
I1
ssg49
(dp223
g49
I0
ssg87
(dp224
S'sauce.n.01'
p225
I1
ssg51
(dp226
S'mix.v.05'
p227
I3
ssg94
(dp228
S'blend.v.01'
p229
I1
ssg17
(dp230
g17
I0
ssg81
(dp231
g81
I0
ssg47
(dp232
g47
I0
ssg99
(dp233
g100
I2
ssg43
(dp234
g43
I0
ssg70
(dp235
S'thermos.n.01'
p236
I1
ssg89
(dp237
g89
I0
ssg40
(dp238
S'liquid.n.01'
p239
I1
ssg45
(dp240
g45
I0
ssg86
(dp241
S'boodle.n.01'
p242
I1
sssb.