ccopy_reg
_reconstructor
p0
(cutils.eval
ConfusionMatrix
p1
c__builtin__
object
p2
Ntp3
Rp4
(dp5
S'labels'
p6
(lp7
S'jar.n.01'
p8
aS'fill.v.01'
p9
aS'thermos.n.01'
p10
aS'coffee.n.01'
p11
aS'wok.n.01'
p12
aS'rice.n.01'
p13
aS'opening.n.01'
p14
aS'opening.n.10'
p15
aS'fill.v.09'
p16
aS'curd.n.01'
p17
aS'bottle.n.01'
p18
aS'fruit_juice.n.01'
p19
aS'gap.n.03'
p20
aS'batter.n.02'
p21
asS'instanceCount'
p22
I17
sS'matrix'
p23
(dp24
g19
(dp25
S'fruit_juice.n.01'
p26
I1
ssg10
(dp27
S'thermos.n.01'
p28
I1
ssg20
(dp29
g20
I0
ssg16
(dp30
S'fill.v.01'
p31
I2
ssg12
(dp32
S'wok.n.01'
p33
I1
ssg13
(dp34
S'rice.n.01'
p35
I1
ssg11
(dp36
S'coffee.n.01'
p37
I1
ssg9
(dp38
S'fill.v.01'
p39
I4
ssg18
(dp40
S'bottle.n.01'
p41
I1
ssg21
(dp42
S'batter.n.02'
p43
I1
ssg17
(dp44
S'curd.n.01'
p45
I1
ssg15
(dp46
g15
I0
ssg8
(dp47
S'jar.n.01'
p48
I1
ssg14
(dp49
g15
I1
sg20
I1
sssb.