ccopy_reg
_reconstructor
p0
(cutils.eval
ConfusionMatrix
p1
c__builtin__
object
p2
Ntp3
Rp4
(dp5
S'labels'
p6
(lp7
S'cup.n.01'
p8
aS'fill.v.01'
p9
aS'cola.n.02'
p10
aS'ice.n.01'
p11
aS'ice.n.05'
p12
aS'bowl.n.01'
p13
aS'blender.n.01'
p14
aS'apple.n.01'
p15
aS'kettle.n.01'
p16
aS'water.n.06'
p17
aS'teapot.n.01'
p18
aS'glass.n.02'
p19
aS'milk.n.01'
p20
asS'instanceCount'
p21
I18
sS'matrix'
p22
(dp23
g10
(dp24
S'cola.n.02'
p25
I1
ssg18
(dp26
S'teapot.n.01'
p27
I1
ssg14
(dp28
S'blender.n.01'
p29
I1
ssg17
(dp30
S'water.n.06'
p31
I2
ssg9
(dp32
S'fill.v.01'
p33
I6
ssg11
(dp34
g12
I1
ssg13
(dp35
S'bowl.n.01'
p36
I1
ssg16
(dp37
S'kettle.n.01'
p38
I1
ssg12
(dp39
g12
I0
ssg15
(dp40
S'apple.n.01'
p41
I1
ssg8
(dp42
S'cup.n.01'
p43
I1
ssg20
(dp44
S'milk.n.01'
p45
I1
ssg19
(dp46
S'glass.n.02'
p47
I1
sssb.