ccopy_reg
_reconstructor
p0
(cutils.eval
ConfusionMatrix
p1
c__builtin__
object
p2
Ntp3
Rp4
(dp5
S'labels'
p6
(lp7
S'saltcellar.n.01'
p8
aS'fill.v.01'
p9
aS'salt.n.02'
p10
aS'measuring_cup.n.01'
p11
aS'meal.n.03'
p12
aS'cup.n.01'
p13
aS'cola.n.02'
p14
aS'ice.n.01'
p15
aS'ice.n.05'
p16
aS'bowl.n.01'
p17
aS'blender.n.01'
p18
aS'apple.n.01'
p19
aS'kettle.n.01'
p20
aS'water.n.06'
p21
asS'instanceCount'
p22
I18
sS'matrix'
p23
(dp24
g10
(dp25
S'salt.n.02'
p26
I1
ssg14
(dp27
S'cola.n.02'
p28
I1
ssg8
(dp29
S'saltcellar.n.01'
p30
I1
ssg18
(dp31
S'blender.n.01'
p32
I1
ssg21
(dp33
S'water.n.06'
p34
I1
ssg9
(dp35
S'fill.v.01'
p36
I6
ssg15
(dp37
g16
I1
ssg17
(dp38
S'bowl.n.01'
p39
I1
ssg20
(dp40
S'kettle.n.01'
p41
I1
ssg16
(dp42
g16
I0
ssg19
(dp43
S'apple.n.01'
p44
I1
ssg11
(dp45
S'measuring_cup.n.01'
p46
I1
ssg13
(dp47
S'cup.n.01'
p48
I1
ssg12
(dp49
S'meal.n.03'
p50
I1
sssb.