ccopy_reg
_reconstructor
p0
(cutils.eval
ConfusionMatrix
p1
c__builtin__
object
p2
Ntp3
Rp4
(dp5
S'labels'
p6
(lp7
S'wok.n.01'
p8
aS'fill.v.01'
p9
aS'rice.n.01'
p10
aS'opening.n.01'
p11
aS'opening.n.10'
p12
aS'fill.v.09'
p13
aS'curd.n.01'
p14
aS'bottle.n.01'
p15
aS'fruit_juice.n.01'
p16
aS'gap.n.03'
p17
aS'batter.n.02'
p18
aS'saltcellar.n.01'
p19
aS'salt.n.02'
p20
aS'measuring_cup.n.01'
p21
aS'meal.n.03'
p22
asS'instanceCount'
p23
I18
sS'matrix'
p24
(dp25
g20
(dp26
S'salt.n.02'
p27
I1
ssg16
(dp28
S'fruit_juice.n.01'
p29
I1
ssg17
(dp30
g17
I0
ssg13
(dp31
S'fill.v.01'
p32
I2
ssg8
(dp33
S'wok.n.01'
p34
I1
ssg19
(dp35
S'saltcellar.n.01'
p36
I1
ssg10
(dp37
S'rice.n.01'
p38
I1
ssg9
(dp39
S'fill.v.01'
p40
I4
ssg15
(dp41
S'bottle.n.01'
p42
I1
ssg18
(dp43
S'batter.n.02'
p44
I1
ssg21
(dp45
S'measuring_cup.n.01'
p46
I1
ssg14
(dp47
S'curd.n.01'
p48
I1
ssg12
(dp49
g12
I0
ssg22
(dp50
S'meal.n.03'
p51
I1
ssg11
(dp52
g12
I1
sg17
I1
sssb.