ccopy_reg
_reconstructor
p0
(cutils.eval
ConfusionMatrix
p1
c__builtin__
object
p2
Ntp3
Rp4
(dp5
S'labels'
p6
(lp7
S'fill.v.01'
p8
aS'pan.n.01'
p9
aS'pan.n.03'
p10
aS'water.n.06'
p11
aS'pitcher.n.02'
p12
aS'milk.n.01'
p13
aS'pot.n.01'
p14
aS'whiskey.n.01'
p15
aS'carafe.n.01'
p16
aS'foam.n.01'
p17
aS'mug.n.04'
p18
aS'jar.n.01'
p19
aS'gravy.n.01'
p20
aS'gravy.n.02'
p21
asS'instanceCount'
p22
I18
sS'matrix'
p23
(dp24
g9
(dp25
g10
I1
ssg18
(dp26
S'mug.n.04'
p27
I1
ssg10
(dp28
g10
I0
ssg21
(dp29
g21
I0
ssg14
(dp30
S'pot.n.01'
p31
I1
ssg11
(dp32
S'water.n.06'
p33
I2
ssg8
(dp34
S'fill.v.01'
p35
I6
ssg12
(dp36
S'pitcher.n.02'
p37
I1
ssg20
(dp38
g21
I1
ssg19
(dp39
S'jar.n.01'
p40
I1
ssg17
(dp41
S'foam.n.01'
p42
I1
ssg16
(dp43
S'carafe.n.01'
p44
I1
ssg13
(dp45
S'milk.n.01'
p46
I1
ssg15
(dp47
S'whiskey.n.01'
p48
I1
sssb.