ccopy_reg
_reconstructor
p0
(cutils.eval
ConfusionMatrix
p1
c__builtin__
object
p2
Ntp3
Rp4
(dp5
S'labels'
p6
(lp7
S'fill.v.01'
p8
aS'foam.n.01'
p9
aS'mug.n.04'
p10
aS'jar.n.01'
p11
aS'gravy.n.01'
p12
aS'gravy.n.02'
p13
aS'thermos.n.01'
p14
aS'coffee.n.01'
p15
aS'wok.n.01'
p16
aS'rice.n.01'
p17
aS'opening.n.01'
p18
aS'opening.n.10'
p19
aS'fill.v.09'
p20
aS'curd.n.01'
p21
asS'instanceCount'
p22
I17
sS'matrix'
p23
(dp24
g12
(dp25
g13
I1
ssg10
(dp26
S'mug.n.04'
p27
I1
ssg18
(dp28
g19
I1
ssg13
(dp29
g13
I0
ssg20
(dp30
S'fill.v.01'
p31
I1
ssg16
(dp32
S'wok.n.01'
p33
I1
ssg14
(dp34
S'thermos.n.01'
p35
I1
ssg15
(dp36
S'coffee.n.01'
p37
I1
ssg8
(dp38
S'fill.v.01'
p39
I5
ssg21
(dp40
S'curd.n.01'
p41
I1
ssg19
(dp42
g19
I0
ssg11
(dp43
S'jar.n.01'
p44
I2
ssg9
(dp45
S'foam.n.01'
p46
I1
ssg17
(dp47
S'rice.n.01'
p48
I1
sssb.