ccopy_reg
_reconstructor
p0
(cutils.eval
ConfusionMatrix
p1
c__builtin__
object
p2
Ntp3
Rp4
(dp5
S'labels'
p6
(lp7
S'knife.n.01'
p8
aS'slice.v.03'
p9
aS'green_onion.n.01'
p10
aS'cheese.n.01'
p11
asS'instanceCount'
p12
I5
sS'matrix'
p13
(dp14
g9
(dp15
S'slice.v.03'
p16
I2
ssg10
(dp17
S'green_onion.n.01'
p18
I1
ssg8
(dp19
S'knife.n.01'
p20
I1
ssg11
(dp21
S'cheese.n.01'
p22
I1
sssb.