ccopy_reg
_reconstructor
p0
(cutils.eval
ConfusionMatrix
p1
c__builtin__
object
p2
Ntp3
Rp4
(dp5
S'labels'
p6
(lp7
S'flesh.n.01'
p8
aS'human_body.n.01'
p9
aS'slice.v.03'
p10
aS'olive.n.01'
p11
aS'olive.n.04'
p12
asS'instanceCount'
p13
I4
sS'matrix'
p14
(dp15
g10
(dp16
S'slice.v.03'
p17
I2
ssg9
(dp18
g9
I0
ssg12
(dp19
g12
I0
ssg11
(dp20
g12
I1
ssg8
(dp21
g9
I1
sssb.