ccopy_reg
_reconstructor
p0
(cutils.eval
ConfusionMatrix
p1
c__builtin__
object
p2
Ntp3
Rp4
(dp5
S'labels'
p6
(lp7
S'milliliter.n.01'
p8
aS'fill.v.01'
p9
aS'bottle.n.01'
p10
aS'fruit_juice.n.01'
p11
aS'pot.n.01'
p12
aS'water.n.06'
p13
asS'instanceCount'
p14
I7
sS'matrix'
p15
(dp16
g11
(dp17
S'fruit_juice.n.01'
p18
I1
ssg8
(dp19
S'milliliter.n.01'
p20
I1
ssg10
(dp21
S'bottle.n.01'
p22
I1
ssg12
(dp23
S'pot.n.01'
p24
I1
ssg13
(dp25
S'water.n.06'
p26
I1
ssg9
(dp27
S'fill.v.01'
p28
I2
sssb.