ccopy_reg
_reconstructor
p0
(cutils.eval
ConfusionMatrix
p1
c__builtin__
object
p2
Ntp3
Rp4
(dp5
S'labels'
p6
(lp7
S'stir.v.08'
p8
aS'stir.v.01'
p9
aS'egg.n.02'
p10
aS'water.n.06'
p11
asS'instanceCount'
p12
I4
sS'matrix'
p13
(dp14
g10
(dp15
S'egg.n.02'
p16
I1
ssg9
(dp17
g9
I1
ssg8
(dp18
g9
I1
ssg11
(dp19
S'water.n.06'
p20
I1
sssb.