ccopy_reg
_reconstructor
p0
(cutils.eval
ConfusionMatrix
p1
c__builtin__
object
p2
Ntp3
Rp4
(dp5
S'labels'
p6
(lp7
S'stir.v.01'
p8
aS'juice.n.01'
p9
aS'fruit_juice.n.01'
p10
aS'coca_cola.n.01'
p11
asS'instanceCount'
p12
I4
sS'matrix'
p13
(dp14
g10
(dp15
g10
I0
ssg8
(dp16
S'stir.v.01'
p17
I2
ssg11
(dp18
S'coca_cola.n.01'
p19
I1
ssg9
(dp20
g10
I1
sssb.