ccopy_reg
_reconstructor
p0
(cutils.eval
ConfusionMatrix
p1
c__builtin__
object
p2
Ntp3
Rp4
(dp5
S'labels'
p6
(lp7
S'stir.v.01'
p8
aS'stir.v.08'
p9
aS'juice.n.01'
p10
aS'fruit_juice.n.01'
p11
aS'arouse.v.06'
p12
aS'coca_cola.n.01'
p13
aS'coke.n.01'
p14
asS'instanceCount'
p15
I4
sS'matrix'
p16
(dp17
g14
(dp18
g14
I0
ssg11
(dp19
g11
I0
ssg12
(dp20
g12
I0
ssg9
(dp21
g9
I0
ssg8
(dp22
g9
I1
sg12
I1
ssg13
(dp23
g14
I1
ssg10
(dp24
g11
I1
sssb.