ccopy_reg
_reconstructor
p0
(cutils.eval
ConfusionMatrix
p1
c__builtin__
object
p2
Ntp3
Rp4
(dp5
S'labels'
p6
(lp7
S'stir.v.01'
p8
aS'stir.v.08'
p9
aS'coffee.n.01'
p10
aS'coffee_bean.n.01'
p11
aS'arouse.v.06'
p12
aS'cream.n.02'
p13
asS'instanceCount'
p14
I4
sS'matrix'
p15
(dp16
g11
(dp17
g11
I0
ssg10
(dp18
g11
I1
ssg13
(dp19
S'cream.n.02'
p20
I1
ssg9
(dp21
g9
I0
sg12
I1
ssg12
(dp22
g12
I0
ssg8
(dp23
g9
I1
sssb.