ccopy_reg
_reconstructor
p0
(cutils.eval
ConfusionMatrix
p1
c__builtin__
object
p2
Ntp3
Rp4
(dp5
S'labels'
p6
(lp7
S'stir.v.08'
p8
aS'arouse.v.06'
p9
aS'butter.n.01'
p10
aS'butter.n.02'
p11
aS'peanut.n.04'
p12
aS'peanut.n.01'
p13
asS'instanceCount'
p14
I4
sS'matrix'
p15
(dp16
g9
(dp17
g9
I0
ssg11
(dp18
g11
I0
ssg10
(dp19
g11
I1
ssg8
(dp20
g9
I2
ssg13
(dp21
g13
I0
ssg12
(dp22
g13
I1
sssb.