ccopy_reg
_reconstructor
p0
(cutils.eval
ConfusionMatrix
p1
c__builtin__
object
p2
Ntp3
Rp4
(dp5
S'labels'
p6
(lp7
S'stir.v.08'
p8
aS'arouse.v.06'
p9
aS'banana.n.02'
p10
aS'banana.n.01'
p11
aS'stir.v.01'
p12
aS'champagne.n.01'
p13
aS'champagne.n.02'
p14
asS'instanceCount'
p15
I4
sS'matrix'
p16
(dp17
g9
(dp18
g9
I0
ssg11
(dp19
g11
I0
ssg10
(dp20
g11
I1
ssg13
(dp21
g14
I1
ssg14
(dp22
g14
I0
ssg8
(dp23
g9
I1
ssg12
(dp24
S'stir.v.08'
p25
I1
sssb.