ccopy_reg
_reconstructor
p0
(cutils.eval
ConfusionMatrix
p1
c__builtin__
object
p2
Ntp3
Rp4
(dp5
S'labels'
p6
(lp7
S'stir.v.01'
p8
aS'stir.v.08'
p9
aS'milk.n.01'
p10
aS'milk.n.04'
p11
aS'arouse.v.06'
p12
aS'apple.n.01'
p13
asS'instanceCount'
p14
I4
sS'matrix'
p15
(dp16
g12
(dp17
g12
I0
ssg9
(dp18
g9
I0
sg12
I1
ssg11
(dp19
g11
I0
ssg13
(dp20
S'apple.n.01'
p21
I1
ssg8
(dp22
g9
I1
ssg10
(dp23
g11
I1
sssb.