ccopy_reg
_reconstructor
p0
(cutils.eval
ConfusionMatrix
p1
c__builtin__
object
p2
Ntp3
Rp4
(dp5
S'labels'
p6
(lp7
S'stir.v.01'
p8
aS'stir.v.08'
p9
aS'champagne.n.01'
p10
aS'champagne.n.02'
p11
aS'vegetable.n.01'
p12
aS'vegetable.n.02'
p13
aS'arouse.v.06'
p14
aS'banana.n.02'
p15
aS'banana.n.01'
p16
aS'sugar.n.01'
p17
aS'carbohydrate.n.01'
p18
aS'coca_cola.n.01'
p19
aS'coke.n.01'
p20
aS'salt.n.02'
p21
aS'water.n.06'
p22
aS'water.n.03'
p23
aS'tea.n.01'
p24
aS'tea.n.04'
p25
aS'egg.n.02'
p26
aS'coffee.n.01'
p27
aS'coffee_bean.n.01'
p28
aS'apple.n.01'
p29
aS'peanut.n.04'
p30
aS'peanut.n.01'
p31
aS'milk.n.01'
p32
aS'milk.n.04'
p33
aS'whiskey.n.01'
p34
aS'juice.n.01'
p35
aS'fruit_juice.n.01'
p36
aS'cream.n.02'
p37
aS'butter.n.01'
p38
aS'butter.n.02'
p39
aS'wine.n.01'
p40
aS'wine.n.02'
p41
aS'tomato.n.01'
p42
aS'tomato.n.02'
p43
aS'cappuccino.n.01'
p44
asS'instanceCount'
p45
I360
sS'matrix'
p46
(dp47
g20
(dp48
g20
I0
sg28
I0
sg40
I0
sg18
I0
sg9
I0
sg33
I0
sg29
I0
sg8
I0
sg19
I0
sg32
I0
sg26
I0
sg38
I0
sg34
I0
sg21
I0
sg14
I0
sg16
I0
sg15
I0
sg37
I0
sg27
I0
sg36
I0
sg43
I0
sg25
I0
sg24
I0
sg13
I0
sg12
I0
sg23
I0
sg44
I0
sg22
I0
sg42
I0
sg11
I0
sg10
I0
sg39
I0
sg31
I0
sg41
I0
sg30
I0
sg35
I0
sg17
I0
ssg28
(dp49
g20
I0
sg28
I0
sg40
I0
sg18
I0
sg9
I0
sg33
I0
sg29
I0
sg8
I0
sg19
I0
sg32
I0
sg26
I0
sg38
I0
sg34
I0
sg21
I0
sg14
I0
sg16
I0
sg15
I0
sg37
I0
sg27
I0
sg36
I0
sg43
I0
sg25
I0
sg24
I0
sg13
I0
sg12
I0
sg23
I0
sg44
I0
sg22
I0
sg42
I0
sg11
I0
sg10
I0
sg39
I0
sg31
I0
sg41
I0
sg30
I0
sg35
I0
sg17
I0
ssg40
(dp50
g20
I0
sg28
I0
sg40
I0
sg18
I0
sg9
I0
sg33
I0
sg29
I0
sg8
I0
sg19
I0
sg32
I0
sg26
I0
sg38
I0
sg34
I0
sg21
I0
sg14
I0
sg16
I0
sg15
I0
sg37
I0
sg27
I0
sg36
I0
sg43
I0
sg25
I0
sg24
I0
sg13
I0
sg12
I0
sg23
I0
sg44
I0
sg22
I0
sg42
I0
sg11
I0
sg10
I0
sg39
I0
sg31
I0
sg41
I9
sg30
I0
sg35
I0
sg17
I0
ssg18
(dp51
g20
I0
sg28
I0
sg40
I0
sg18
I0
sg9
I0
sg33
I0
sg29
I0
sg8
I0
sg19
I0
sg32
I0
sg26
I0
sg38
I0
sg34
I0
sg21
I0
sg14
I0
sg16
I0
sg15
I0
sg37
I0
sg27
I0
sg36
I0
sS'tomato.n.02'
p52
I0
sg25
I0
sg24
I0
sg13
I0
sg12
I0
sg23
I0
sS'cappuccino.n.01'
p53
I0
sg22
I0
sS'tomato.n.01'
p54
I0
sg11
I0
sg10
I0
sg39
I0
sg31
I0
sg41
I0
sg30
I0
sg35
I0
sg17
I0
ssg9
(dp55
g20
I0
sg28
I0
sg40
I0
sg18
I0
sg9
I0
sg33
I0
sg29
I0
sg8
I0
sg19
I0
sg32
I0
sg26
I0
sg38
I0
sg34
I0
sg21
I0
sg14
I90
sg16
I0
sg15
I0
sg37
I0
sg27
I0
sg36
I0
sg43
I0
sg25
I0
sg24
I0
sg13
I0
sg12
I0
sg23
I0
sg44
I0
sg22
I0
sg42
I0
sg11
I0
sg10
I0
sg39
I0
sg31
I0
sg41
I0
sg30
I0
sg35
I0
sg17
I0
ssg33
(dp56
g20
I0
sg28
I0
sg40
I0
sg18
I0
sg9
I0
sg33
I0
sg29
I0
sg8
I0
sg19
I0
sg32
I0
sg26
I0
sg38
I0
sg34
I0
sg21
I0
sg14
I0
sg16
I0
sg15
I0
sg37
I0
sg27
I0
sg36
I0
sg43
I0
sg25
I0
sg24
I0
sg13
I0
sg12
I0
sg23
I0
sg44
I0
sg22
I0
sg42
I0
sg11
I0
sg10
I0
sg39
I0
sg31
I0
sg41
I0
sg30
I0
sg35
I0
sg17
I0
ssg29
(dp57
g20
I0
sg28
I0
sg40
I0
sg18
I0
sg9
I0
sg33
I0
sg29
I9
sg8
I0
sg19
I0
sg32
I0
sg26
I0
sg38
I0
sg34
I0
sg21
I0
sg14
I0
sg16
I0
sg15
I0
sg37
I0
sg27
I0
sg36
I0
sg43
I0
sg25
I0
sg24
I0
sg13
I0
sg12
I0
sg23
I0
sg44
I0
sg22
I0
sg42
I0
sg11
I0
sg10
I0
sg39
I0
sg31
I0
sg41
I0
sg30
I0
sg35
I0
sg17
I0
ssg8
(dp58
g20
I0
sg28
I0
sg40
I0
sg18
I0
sg9
I81
sg33
I0
sg29
I0
sg8
I0
sg19
I0
sg32
I0
sg26
I0
sg38
I0
sg34
I0
sg21
I0
sg14
I9
sg16
I0
sg15
I0
sg37
I0
sg27
I0
sg36
I0
sg43
I0
sg25
I0
sg24
I0
sg13
I0
sg12
I0
sg23
I0
sg44
I0
sg22
I0
sg42
I0
sg11
I0
sg10
I0
sg39
I0
sg31
I0
sg41
I0
sg30
I0
sg35
I0
sg17
I0
ssg19
(dp59
g20
I9
sg28
I0
sg40
I0
sg18
I0
sg9
I0
sg33
I0
sg29
I0
sg8
I0
sg19
I0
sg32
I0
sg26
I0
sg38
I0
sg34
I0
sg21
I0
sg14
I0
sg16
I0
sg15
I0
sg37
I0
sg27
I0
sg36
I0
sg43
I0
sg25
I0
sg24
I0
sg13
I0
sg12
I0
sg23
I0
sg44
I0
sg22
I0
sg42
I0
sg11
I0
sg10
I0
sg39
I0
sg31
I0
sg41
I0
sg30
I0
sg35
I0
sg17
I0
ssg32
(dp60
g20
I0
sg28
I0
sg40
I0
sg18
I0
sg9
I0
sg33
I9
sg29
I0
sg8
I0
sg19
I0
sg32
I0
sg26
I0
sg38
I0
sg34
I0
sg21
I0
sg14
I0
sg16
I0
sg15
I0
sg37
I0
sg27
I0
sg36
I0
sg43
I0
sg25
I0
sg24
I0
sg13
I0
sg12
I0
sg23
I0
sg44
I0
sg22
I0
sg42
I0
sg11
I0
sg10
I0
sg39
I0
sg31
I0
sg41
I0
sg30
I0
sg35
I0
sg17
I0
ssg26
(dp61
g20
I0
sg28
I0
sg40
I0
sg18
I0
sg9
I0
sg33
I0
sg29
I0
sg8
I0
sg19
I0
sg32
I0
sg26
I9
sg38
I0
sg34
I0
sg21
I0
sg14
I0
sg16
I0
sg15
I0
sg37
I0
sg27
I0
sg36
I0
sg43
I0
sg25
I0
sg24
I0
sg13
I0
sg12
I0
sg23
I0
sg44
I0
sg22
I0
sg42
I0
sg11
I0
sg10
I0
sg39
I0
sg31
I0
sg41
I0
sg30
I0
sg35
I0
sg17
I0
ssg38
(dp62
g20
I0
sg28
I0
sg40
I0
sg18
I0
sg9
I0
sg33
I0
sg29
I0
sg8
I0
sg19
I0
sg32
I0
sg26
I0
sg38
I0
sg34
I0
sg21
I0
sg14
I0
sg16
I0
sg15
I0
sg37
I0
sg27
I0
sg36
I0
sg43
I0
sg25
I0
sg24
I0
sg13
I0
sg12
I0
sg23
I0
sg44
I0
sg22
I0
sg42
I0
sg11
I0
sg10
I0
sg39
I9
sg31
I0
sg41
I0
sg30
I0
sg35
I0
sg17
I0
ssg34
(dp63
g20
I0
sg28
I0
sg40
I0
sg18
I0
sg9
I0
sg33
I0
sg29
I0
sg8
I0
sg19
I0
sg32
I0
sg26
I0
sg38
I0
sg24
I0
sg21
I0
sg14
I0
sg16
I0
sg15
I0
sg37
I0
sg27
I0
sg36
I0
sg43
I0
sg25
I0
sg34
I9
sg13
I0
sg12
I0
sg23
I0
sg44
I0
sg22
I0
sg42
I0
sg11
I0
sg10
I0
sg39
I0
sg31
I0
sg41
I0
sg30
I0
sg35
I0
sg17
I0
ssg21
(dp64
g20
I0
sg28
I0
sg40
I0
sg18
I0
sg9
I0
sg33
I0
sg29
I0
sg8
I0
sg19
I0
sg32
I0
sg26
I0
sg38
I0
sg34
I0
sg21
I9
sg14
I0
sg16
I0
sg15
I0
sg37
I0
sg27
I0
sg36
I0
sg43
I0
sg25
I0
sg24
I0
sg13
I0
sg12
I0
sg23
I0
sg44
I0
sg22
I0
sg42
I0
sg11
I0
sg10
I0
sg39
I0
sg31
I0
sg41
I0
sg30
I0
sg35
I0
sg17
I0
ssg14
(dp65
g20
I0
sg28
I0
sg40
I0
sg18
I0
sg9
I0
sg33
I0
sg29
I0
sg8
I0
sg19
I0
sg32
I0
sg26
I0
sg38
I0
sg34
I0
sg21
I0
sg14
I0
sg16
I0
sg15
I0
sg37
I0
sg27
I0
sg36
I0
sg43
I0
sg25
I0
sg24
I0
sg13
I0
sg12
I0
sg23
I0
sg44
I0
sg22
I0
sg42
I0
sg11
I0
sg10
I0
sg39
I0
sg31
I0
sg41
I0
sg30
I0
sg35
I0
sg17
I0
ssg16
(dp66
g20
I0
sg28
I0
sg40
I0
sg18
I0
sg9
I0
sg33
I0
sg29
I0
sg8
I0
sg19
I0
sg32
I0
sg26
I0
sg38
I0
sg34
I0
sg21
I0
sg14
I0
sg16
I0
sg15
I0
sg37
I0
sg27
I0
sg36
I0
sg52
I0
sg25
I0
sg24
I0
sg13
I0
sg12
I0
sg23
I0
sg53
I0
sg22
I0
sg54
I0
sg11
I0
sg10
I0
sg39
I0
sg31
I0
sg41
I0
sg30
I0
sg35
I0
sg17
I0
ssg15
(dp67
g20
I0
sg28
I0
sg40
I0
sg18
I0
sg9
I0
sg33
I0
sg29
I0
sg8
I0
sg19
I0
sg32
I0
sg26
I0
sg38
I0
sg34
I0
sg21
I0
sg14
I0
sg16
I9
sg15
I0
sg37
I0
sg27
I0
sg36
I0
sg52
I0
sg25
I0
sg24
I0
sg13
I0
sg12
I0
sg23
I0
sg53
I0
sg22
I0
sg54
I0
sg11
I0
sg10
I0
sg39
I0
sg31
I0
sg41
I0
sg30
I0
sg35
I0
sg17
I0
ssg37
(dp68
g20
I0
sg28
I0
sg40
I0
sg18
I0
sg9
I0
sg33
I0
sg29
I0
sg8
I0
sg19
I0
sg32
I0
sg26
I0
sg38
I0
sg34
I0
sg21
I0
sg14
I0
sg16
I0
sg15
I0
sg27
I0
sg37
I9
sg36
I0
sg43
I0
sg25
I0
sg24
I0
sg13
I0
sg12
I0
sg23
I0
sg44
I0
sg22
I0
sg42
I0
sg11
I0
sg10
I0
sg39
I0
sg31
I0
sg41
I0
sg30
I0
sg35
I0
sg17
I0
ssg27
(dp69
g20
I0
sg28
I9
sg40
I0
sg18
I0
sg9
I0
sg33
I0
sg29
I0
sg8
I0
sg19
I0
sg32
I0
sg26
I0
sg38
I0
sg34
I0
sg21
I0
sg14
I0
sg16
I0
sg15
I0
sg37
I0
sg27
I0
sg36
I0
sg43
I0
sg25
I0
sg24
I0
sg13
I0
sg12
I0
sg23
I0
sg44
I0
sg22
I0
sg42
I0
sg11
I0
sg10
I0
sg39
I0
sg31
I0
sg41
I0
sg30
I0
sg35
I0
sg17
I0
ssg36
(dp70
g20
I0
sg28
I0
sg40
I0
sg18
I0
sg9
I0
sg33
I0
sg29
I0
sg8
I0
sg19
I0
sg32
I0
sg26
I0
sg38
I0
sg34
I0
sg21
I0
sg14
I0
sg16
I0
sg15
I0
sg37
I0
sg27
I0
sg12
I0
sg43
I0
sg25
I0
sg24
I0
sg13
I0
sg36
I0
sg23
I0
sg44
I0
sg22
I0
sg42
I0
sg11
I0
sg10
I0
sg39
I0
sg31
I0
sg41
I0
sg30
I0
sg35
I0
sg17
I0
ssg43
(dp71
S'coke.n.01'
p72
I0
sS'coffee_bean.n.01'
p73
I0
sS'wine.n.01'
p74
I0
sS'carbohydrate.n.01'
p75
I0
sS'stir.v.08'
p76
I0
sS'milk.n.04'
p77
I0
sS'apple.n.01'
p78
I0
sS'stir.v.01'
p79
I0
sS'coca_cola.n.01'
p80
I0
sS'milk.n.01'
p81
I0
sg43
I0
sS'butter.n.01'
p82
I0
sS'whiskey.n.01'
p83
I0
sS'salt.n.02'
p84
I0
sS'arouse.v.06'
p85
I0
sS'banana.n.01'
p86
I0
sS'banana.n.02'
p87
I0
sS'cream.n.02'
p88
I0
sS'coffee.n.01'
p89
I0
sS'vegetable.n.01'
p90
I0
sS'tea.n.04'
p91
I0
sS'tea.n.01'
p92
I0
sS'vegetable.n.02'
p93
I0
sS'fruit_juice.n.01'
p94
I0
sS'water.n.03'
p95
I0
sg44
I0
sS'water.n.06'
p96
I0
sg42
I0
sS'champagne.n.02'
p97
I0
sS'butter.n.02'
p98
I0
sS'champagne.n.01'
p99
I0
sS'egg.n.02'
p100
I0
sS'peanut.n.01'
p101
I0
sS'wine.n.02'
p102
I0
sS'peanut.n.04'
p103
I0
sS'juice.n.01'
p104
I0
sS'sugar.n.01'
p105
I0
ssg25
(dp106
g20
I0
sg28
I0
sg40
I0
sg18
I0
sg9
I0
sg33
I0
sg29
I0
sg8
I0
sg19
I0
sg32
I0
sg26
I0
sg38
I0
sg34
I0
sg21
I0
sg14
I0
sg16
I0
sg15
I0
sg37
I0
sg27
I0
sg36
I0
sg43
I0
sg25
I0
sg24
I0
sg13
I0
sg12
I0
sg23
I0
sg44
I0
sg22
I0
sg42
I0
sg11
I0
sg10
I0
sg39
I0
sg31
I0
sg41
I0
sg30
I0
sg35
I0
sg17
I0
ssg24
(dp107
g20
I0
sg28
I0
sg40
I0
sg18
I0
sg9
I0
sg33
I0
sg29
I0
sg8
I0
sg19
I0
sg32
I0
sg26
I0
sg38
I0
sg34
I0
sg21
I0
sg14
I0
sg16
I0
sg15
I0
sg37
I0
sg27
I0
sg36
I0
sg43
I0
sg25
I9
sg24
I0
sg13
I0
sg12
I0
sg23
I0
sg44
I0
sg22
I0
sg42
I0
sg11
I0
sg10
I0
sg39
I0
sg31
I0
sg41
I0
sg30
I0
sg35
I0
sg17
I0
ssg13
(dp108
g20
I0
sg28
I0
sg40
I0
sg18
I0
sg9
I0
sg33
I0
sg29
I0
sg8
I0
sg19
I0
sg32
I0
sg26
I0
sg38
I0
sg34
I0
sg21
I0
sg14
I0
sg16
I0
sg15
I0
sg37
I0
sg27
I0
sg36
I0
sg43
I0
sg25
I0
sg24
I0
sg13
I0
sg12
I0
sg23
I0
sg44
I0
sg22
I0
sg42
I0
sg11
I0
sg10
I0
sg39
I0
sg31
I0
sg41
I0
sg30
I0
sg35
I0
sg17
I0
ssg12
(dp109
g20
I0
sg28
I0
sg40
I0
sg18
I0
sg9
I0
sg33
I0
sg29
I0
sg8
I0
sg19
I0
sg32
I0
sg26
I0
sg38
I0
sg34
I0
sg21
I0
sg14
I0
sg16
I0
sg15
I0
sg37
I0
sg27
I0
sg36
I0
sg43
I0
sg25
I0
sg24
I0
sg13
I9
sg12
I0
sg23
I0
sg44
I0
sg22
I0
sg42
I0
sg11
I0
sg10
I0
sg39
I0
sg31
I0
sg41
I0
sg30
I0
sg35
I0
sg17
I0
ssg23
(dp110
g20
I0
sg28
I0
sg40
I0
sg18
I0
sg9
I0
sg33
I0
sg29
I0
sg8
I0
sg19
I0
sg32
I0
sg26
I0
sg38
I0
sg34
I0
sg21
I0
sg14
I0
sg16
I0
sg15
I0
sg37
I0
sg27
I0
sg36
I0
sg43
I0
sg25
I0
sg24
I0
sg13
I0
sg12
I0
sg23
I0
sg44
I0
sg22
I0
sg42
I0
sg11
I0
sg10
I0
sg39
I0
sg31
I0
sg41
I0
sg30
I0
sg35
I0
sg17
I0
ssg44
(dp111
g72
I0
sg73
I0
sg74
I0
sg75
I0
sg76
I0
sg77
I0
sg78
I0
sg79
I0
sg80
I0
sg81
I0
sg100
I0
sg82
I0
sg83
I0
sg84
I0
sg85
I0
sg86
I0
sg87
I0
sg88
I0
sg89
I0
sg90
I0
sg43
I0
sg91
I0
sg92
I0
sg93
I0
sg94
I0
sg95
I0
sg44
I9
sg96
I0
sg42
I0
sg97
I0
sg99
I0
sg98
I0
sg101
I0
sg102
I0
sg103
I0
sg104
I0
sg105
I0
ssg22
(dp112
g20
I0
sg28
I0
sg40
I0
sg18
I0
sg9
I0
sg33
I0
sg29
I0
sg8
I0
sg19
I0
sg32
I0
sg26
I0
sg38
I0
sg34
I0
sg21
I0
sg14
I0
sg16
I0
sg15
I0
sg37
I0
sg27
I0
sg36
I0
sg43
I0
sg25
I0
sg24
I0
sg13
I0
sg12
I0
sg23
I9
sg44
I0
sg22
I0
sg42
I0
sg11
I0
sg10
I0
sg39
I0
sg31
I0
sg41
I0
sg30
I0
sg35
I0
sg17
I0
ssg42
(dp113
g72
I0
sg73
I0
sg74
I0
sg75
I0
sg82
I0
sg76
I0
sg77
I0
sg78
I0
sg79
I0
sg80
I0
sg81
I0
sg100
I0
sg42
I0
sg83
I0
sg84
I0
sg85
I0
sg86
I0
sg87
I0
sg88
I0
sg89
I0
sg90
I0
sg43
I9
sg91
I0
sg92
I0
sg93
I0
sg94
I0
sg95
I0
sg44
I0
sg96
I0
sg97
I0
sg99
I0
sg98
I0
sg101
I0
sg102
I0
sg103
I0
sg104
I0
sg105
I0
ssg11
(dp114
g20
I0
sg28
I0
sg40
I0
sg18
I0
sg9
I0
sg33
I0
sg29
I0
sg8
I0
sg19
I0
sg32
I0
sg26
I0
sg38
I0
sg34
I0
sg21
I0
sg14
I0
sg16
I0
sg15
I0
sg37
I0
sg27
I0
sg36
I0
sg43
I0
sg25
I0
sg24
I0
sg13
I0
sg12
I0
sg23
I0
sg44
I0
sg22
I0
sg42
I0
sg11
I0
sg10
I0
sg39
I0
sg31
I0
sg41
I0
sg30
I0
sg35
I0
sg17
I0
ssg10
(dp115
g20
I0
sg28
I0
sg40
I0
sg18
I0
sg9
I0
sg33
I0
sg29
I0
sg8
I0
sg19
I0
sg32
I0
sg26
I0
sg38
I0
sg34
I0
sg21
I0
sg14
I0
sg16
I0
sg15
I0
sg37
I0
sg27
I0
sg36
I0
sg43
I0
sg25
I0
sg24
I0
sg13
I0
sg12
I0
sg23
I0
sg44
I0
sg22
I0
sg42
I0
sg11
I9
sg10
I0
sg39
I0
sg31
I0
sg41
I0
sg30
I0
sg35
I0
sg17
I0
ssg39
(dp116
g20
I0
sg28
I0
sg40
I0
sg18
I0
sg9
I0
sg33
I0
sg29
I0
sg8
I0
sg19
I0
sg32
I0
sg39
I0
sg38
I0
sg34
I0
sg21
I0
sg14
I0
sg16
I0
sg15
I0
sg37
I0
sg27
I0
sg36
I0
sg43
I0
sg25
I0
sg24
I0
sg13
I0
sg12
I0
sg23
I0
sg44
I0
sg22
I0
sg42
I0
sg11
I0
sg10
I0
sg26
I0
sg31
I0
sg41
I0
sg30
I0
sg35
I0
sg17
I0
ssg31
(dp117
g20
I0
sg28
I0
sg40
I0
sg18
I0
sg9
I0
sg33
I0
sg29
I0
sg8
I0
sg19
I0
sg32
I0
sg26
I0
sg38
I0
sg34
I0
sg21
I0
sg14
I0
sg16
I0
sg15
I0
sg37
I0
sg27
I0
sg36
I0
sg43
I0
sg25
I0
sg24
I0
sg13
I0
sg12
I0
sg23
I0
sg44
I0
sg22
I0
sg42
I0
sg11
I0
sg10
I0
sg39
I0
sg31
I0
sg41
I0
sg30
I0
sg35
I0
sg17
I0
ssg41
(dp118
g20
I0
sg41
I0
sg40
I0
sg18
I0
sg9
I0
sg29
I0
sg33
I0
sg28
I0
sg8
I0
sg19
I0
sg32
I0
sg26
I0
sg38
I0
sg34
I0
sg21
I0
sg14
I0
sg16
I0
sg15
I0
sg37
I0
sg27
I0
sg36
I0
sg43
I0
sg25
I0
sg24
I0
sg13
I0
sg12
I0
sg23
I0
sg44
I0
sg22
I0
sg42
I0
sg11
I0
sg10
I0
sg39
I0
sg31
I0
sg30
I0
sg35
I0
sg17
I0
ssg30
(dp119
g20
I0
sg28
I0
sg40
I0
sg18
I0
sg9
I0
sg33
I0
sg29
I0
sg8
I0
sg19
I0
sg32
I0
sg26
I0
sg38
I0
sg34
I0
sg21
I0
sg14
I0
sg16
I0
sg15
I0
sg37
I0
sg27
I0
sg36
I0
sg43
I0
sg25
I0
sg24
I0
sg13
I0
sg12
I0
sg23
I0
sg44
I0
sg22
I0
sg42
I0
sg11
I0
sg10
I0
sg39
I0
sg31
I9
sg41
I0
sg30
I0
sg35
I0
sg17
I0
ssg35
(dp120
g20
I0
sg28
I0
sg40
I0
sg18
I0
sg9
I0
sg33
I0
sg29
I0
sg8
I0
sg19
I0
sg32
I0
sg26
I0
sg38
I0
sg34
I0
sg21
I0
sg14
I0
sg16
I0
sg15
I0
sg37
I0
sg27
I0
sg36
I9
sg43
I0
sg25
I0
sg24
I0
sg13
I0
sg12
I0
sg23
I0
sg44
I0
sg22
I0
sg42
I0
sg11
I0
sg10
I0
sg39
I0
sg31
I0
sg41
I0
sg30
I0
sg35
I0
sg17
I0
ssg17
(dp121
g20
I0
sg28
I0
sg40
I0
sg18
I9
sg9
I0
sg33
I0
sg29
I0
sg8
I0
sg19
I0
sg32
I0
sg26
I0
sg38
I0
sg34
I0
sg21
I0
sg14
I0
sg16
I0
sg15
I0
sg37
I0
sg27
I0
sg36
I0
sg52
I0
sg25
I0
sg24
I0
sg13
I0
sg12
I0
sg23
I0
sg53
I0
sg22
I0
sg54
I0
sg11
I0
sg10
I0
sg39
I0
sg31
I0
sg41
I0
sg30
I0
sg35
I0
sg17
I0
sssb.