ccopy_reg
_reconstructor
p0
(cutils.eval
ConfusionMatrix
p1
c__builtin__
object
p2
Ntp3
Rp4
(dp5
S'labels'
p6
(lp7
S'fill.v.01'
p8
aS'fill.v.09'
p9
aS'pitcher.n.02'
p10
aS'pitcher.n.03'
p11
aS'milk.n.01'
p12
aS'milk.n.04'
p13
aS'meet.v.04'
p14
aS'kettle.n.01'
p15
aS'kettle.n.02'
p16
aS'water.n.06'
p17
aS'opening.n.01'
p18
aS'gap.n.01'
p19
aS'batter.n.02'
p20
aS'mug.n.04'
p21
aS'countenance.n.03'
p22
aS'cheese.n.01'
p23
aS'slice.v.03'
p24
aS'pan.n.01'
p25
aS'pan.n.04'
p26
aS'water_system.n.02'
p27
aS'flesh.n.01'
p28
aS'human_body.n.01'
p29
asS'instanceCount'
p30
I18
sS'matrix'
p31
(dp32
g23
(dp33
S'cheese.n.01'
p34
I1
ssg20
(dp35
S'batter.n.02'
p36
I1
ssg13
(dp37
g13
I0
ssg12
(dp38
g13
I1
ssg25
(dp39
g26
I1
ssg26
(dp40
g26
I0
ssg9
(dp41
g9
I1
ssg8
(dp42
g14
I1
sg9
I3
ssg11
(dp43
g11
I0
ssg10
(dp44
g11
I1
ssg24
(dp45
S'slice.v.03'
p46
I2
ssg22
(dp47
g22
I0
ssg14
(dp48
g14
I0
ssg29
(dp49
g29
I0
ssg18
(dp50
g19
I1
ssg21
(dp51
g22
I1
ssg28
(dp52
g29
I1
ssg19
(dp53
g19
I0
ssg27
(dp54
g27
I0
ssg17
(dp55
g27
I1
sS'water.n.06'
p56
I1
ssg16
(dp57
g16
I0
ssg15
(dp58
g16
I1
sssb.