ccopy_reg
_reconstructor
p0
(cutils.eval
ConfusionMatrix
p1
c__builtin__
object
p2
Ntp3
Rp4
(dp5
S'labels'
p6
(lp7
S'fill.v.01'
p8
aS'foam.n.01'
p9
aS'mug.n.04'
p10
aS'cheese.n.01'
p11
aS'slice.v.03'
p12
aS'slice.v.02'
p13
aS'pan.n.01'
p14
aS'pan.n.03'
p15
aS'water.n.06'
p16
aS'flesh.n.01'
p17
aS'piece.n.08'
p18
aS'slice.n.06'
p19
aS'pizza.n.01'
p20
aS'knife.n.01'
p21
aS'knife.n.02'
p22
aS'banana.n.02'
p23
aS'onion.n.01'
p24
aS'pepper.n.04'
p25
aS'pepper.n.03'
p26
asS'instanceCount'
p27
I19
sS'matrix'
p28
(dp29
g13
(dp30
g13
I0
ssg11
(dp31
S'cheese.n.01'
p32
I1
ssg15
(dp33
g15
I0
ssg21
(dp34
g22
I1
ssg23
(dp35
S'banana.n.02'
p36
I1
ssg10
(dp37
S'mug.n.04'
p38
I1
ssg25
(dp39
g26
I1
ssg17
(dp40
S'flesh.n.01'
p41
I1
ssg19
(dp42
g19
I0
ssg16
(dp43
S'water.n.06'
p44
I1
ssg26
(dp45
g26
I0
ssg8
(dp46
S'fill.v.01'
p47
I2
ssg22
(dp48
g22
I0
ssg20
(dp49
S'pizza.n.01'
p50
I1
ssg12
(dp51
g13
I5
ssg9
(dp52
S'foam.n.01'
p53
I1
ssg24
(dp54
S'onion.n.01'
p55
I1
ssg18
(dp56
g19
I1
ssg14
(dp57
g15
I1
sssb.