ccopy_reg
_reconstructor
p0
(cutils.eval
ConfusionMatrix
p1
c__builtin__
object
p2
Ntp3
Rp4
(dp5
S'labels'
p6
(lp7
S'slice.v.03'
p8
aS'slice.v.04'
p9
aS'onion.n.01'
p10
aS'pepper.n.04'
p11
aS'pepper.n.01'
p12
aS'fill.v.01'
p13
aS'fill.v.09'
p14
aS'pitcher.n.02'
p15
aS'pitcher.n.03'
p16
aS'milk.n.01'
p17
aS'milk.n.02'
p18
aS'meet.v.04'
p19
aS'kettle.n.01'
p20
aS'water.n.06'
p21
aS'water_system.n.02'
p22
aS'opening.n.01'
p23
aS'batter.n.02'
p24
aS'batter.n.01'
p25
aS'foam.n.01'
p26
aS'mug.n.04'
p27
aS'chump.n.01'
p28
aS'cheese.n.01'
p29
aS'tall_mallow.n.01'
p30
aS'pan.n.01'
p31
aS'pan.n.03'
p32
asS'instanceCount'
p33
I20
sS'matrix'
p34
(dp35
g29
(dp36
g30
I1
ssg24
(dp37
g25
I1
ssg25
(dp38
g25
I0
ssg26
(dp39
S'foam.n.01'
p40
I1
ssg17
(dp41
g18
I1
ssg18
(dp42
g18
I0
ssg31
(dp43
g32
I1
ssg32
(dp44
g32
I0
ssg14
(dp45
g14
I1
ssg13
(dp46
g19
I1
sg14
I3
ssg16
(dp47
g16
I0
ssg15
(dp48
g16
I1
ssg8
(dp49
g9
I2
ssg28
(dp50
g28
I0
ssg9
(dp51
g9
I0
ssg11
(dp52
g12
I1
ssg19
(dp53
g19
I0
ssg30
(dp54
g30
I0
ssg23
(dp55
S'opening.n.01'
p56
I1
ssg27
(dp57
g28
I1
ssg22
(dp58
g22
I0
ssg21
(dp59
g22
I2
ssg20
(dp60
S'kettle.n.01'
p61
I1
ssg12
(dp62
g12
I0
ssg10
(dp63
S'onion.n.01'
p64
I1
sssb.