ccopy_reg
_reconstructor
p0
(cutils.eval
ConfusionMatrix
p1
c__builtin__
object
p2
Ntp3
Rp4
(dp5
S'labels'
p6
(lp7
S'opening.n.01'
p8
aS'gap.n.03'
p9
aS'fill.v.09'
p10
aS'fill.v.01'
p11
aS'batter.n.02'
p12
aS'mug.n.04'
p13
aS'chump.n.01'
p14
aS'cheese.n.01'
p15
aS'tall_mallow.n.01'
p16
aS'slice.v.03'
p17
aS'slice.v.02'
p18
aS'pan.n.01'
p19
aS'pan.n.03'
p20
aS'water.n.06'
p21
aS'flesh.n.01'
p22
aS'pulp.n.02'
p23
aS'piece.n.08'
p24
aS'slice.n.06'
p25
aS'pizza.n.01'
p26
aS'knife.n.01'
p27
aS'knife.n.02'
p28
aS'banana.n.02'
p29
asS'instanceCount'
p30
I18
sS'matrix'
p31
(dp32
g15
(dp33
g16
I1
ssg12
(dp34
S'batter.n.02'
p35
I1
ssg19
(dp36
g20
I1
ssg20
(dp37
g20
I0
ssg9
(dp38
g9
I0
ssg10
(dp39
g11
I1
ssg11
(dp40
S'fill.v.09'
p41
I1
sg11
I1
ssg18
(dp42
g18
I0
ssg17
(dp43
g18
I2
sS'slice.v.03'
p44
I2
ssg14
(dp45
g14
I0
ssg27
(dp46
g28
I1
ssg29
(dp47
S'banana.n.02'
p48
I1
ssg28
(dp49
g28
I0
ssg24
(dp50
g25
I1
ssg16
(dp51
g16
I0
ssg8
(dp52
g9
I1
ssg13
(dp53
g14
I1
ssg22
(dp54
g23
I1
ssg25
(dp55
g25
I0
ssg21
(dp56
S'water.n.06'
p57
I1
ssg26
(dp58
S'pizza.n.01'
p59
I1
ssg23
(dp60
g23
I0
sssb.