ccopy_reg
_reconstructor
p0
(cutils.eval
ConfusionMatrix
p1
c__builtin__
object
p2
Ntp3
Rp4
(dp5
S'labels'
p6
(lp7
S'cheese.n.01'
p8
aS'slice.v.03'
p9
aS'slice.v.02'
p10
aS'fill.v.01'
p11
aS'pan.n.01'
p12
aS'water.n.06'
p13
aS'flesh.n.01'
p14
aS'piece.n.08'
p15
aS'slice.n.01'
p16
aS'knife.n.01'
p17
aS'tongue.n.03'
p18
aS'banana.n.02'
p19
aS'onion.n.01'
p20
aS'pepper.n.04'
p21
aS'pepper.n.03'
p22
aS'pitcher.n.02'
p23
aS'milk.n.01'
p24
asS'instanceCount'
p25
I18
sS'matrix'
p26
(dp27
g10
(dp28
g10
I0
ssg8
(dp29
S'cheese.n.01'
p30
I1
ssg16
(dp31
g16
I0
ssg17
(dp32
g18
I1
ssg19
(dp33
S'banana.n.02'
p34
I1
ssg9
(dp35
g10
I5
ssg21
(dp36
g22
I1
ssg14
(dp37
S'flesh.n.01'
p38
I1
ssg13
(dp39
S'water.n.06'
p40
I1
ssg22
(dp41
g22
I0
ssg11
(dp42
S'fill.v.01'
p43
I2
ssg23
(dp44
S'pitcher.n.02'
p45
I1
ssg18
(dp46
g18
I0
ssg15
(dp47
g16
I1
ssg12
(dp48
S'pan.n.01'
p49
I1
ssg20
(dp50
S'onion.n.01'
p51
I1
ssg24
(dp52
S'milk.n.01'
p53
I1
sssb.