ccopy_reg
_reconstructor
p0
(cutils.eval
ConfusionMatrix
p1
c__builtin__
object
p2
Ntp3
Rp4
(dp5
S'labels'
p6
(lp7
S'knife.n.01'
p8
aS'tongue.n.03'
p9
aS'banana.n.02'
p10
aS'slice.v.03'
p11
aS'slice.v.02'
p12
aS'onion.n.01'
p13
aS'onion.n.02'
p14
aS'pepper.n.04'
p15
aS'pepper.n.03'
p16
aS'fill.v.01'
p17
aS'pitcher.n.02'
p18
aS'pitcher.n.03'
p19
aS'milk.n.01'
p20
aS'milk.n.04'
p21
aS'kettle.n.01'
p22
aS'water.n.06'
p23
aS'opening.n.01'
p24
aS'gap.n.05'
p25
aS'fill.v.09'
p26
aS'batter.n.02'
p27
aS'mug.n.04'
p28
aS'cheese.n.01'
p29
asS'instanceCount'
p30
I19
sS'matrix'
p31
(dp32
g29
(dp33
S'cheese.n.01'
p34
I1
ssg27
(dp35
S'batter.n.02'
p36
I1
ssg21
(dp37
g21
I0
ssg20
(dp38
g21
I1
ssg25
(dp39
g25
I0
ssg26
(dp40
S'fill.v.01'
p41
I1
ssg17
(dp42
S'fill.v.01'
p43
I3
ssg19
(dp44
g19
I0
ssg18
(dp45
g19
I1
ssg12
(dp46
g12
I0
ssg11
(dp47
g12
I1
sS'slice.v.03'
p48
I2
ssg8
(dp49
g9
I1
ssg10
(dp50
S'banana.n.02'
p51
I1
ssg15
(dp52
g16
I1
ssg16
(dp53
g16
I0
ssg24
(dp54
g25
I1
ssg28
(dp55
S'mug.n.04'
p56
I1
ssg23
(dp57
S'water.n.06'
p58
I1
ssg22
(dp59
S'kettle.n.01'
p60
I1
ssg9
(dp61
g9
I0
ssg13
(dp62
g14
I1
ssg14
(dp63
g14
I0
sssb.