ccopy_reg
_reconstructor
p0
(cutils.eval
ConfusionMatrix
p1
c__builtin__
object
p2
Ntp3
Rp4
(dp5
S'labels'
p6
(lp7
S'fill.v.01'
p8
aS'kettle.n.01'
p9
aS'water.n.06'
p10
aS'blender.n.01'
p11
aS'apple.n.01'
p12
aS'pitcher.n.02'
p13
aS'milk.n.01'
p14
aS'bottle.n.01'
p15
aS'fruit_juice.n.01'
p16
aS'juice.n.01'
p17
aS'teapot.n.01'
p18
aS'pot.n.01'
p19
aS'pan.n.03'
p20
aS'ice.n.01'
p21
aS'ice.n.05'
p22
aS'bowl.n.01'
p23
aS'bowl.n.08'
p24
aS'jar.n.01'
p25
aS'whiskey.n.01'
p26
aS'carafe.n.01'
p27
aS'foam.n.01'
p28
aS'mug.n.04'
p29
aS'opening.n.01'
p30
aS'opening.n.10'
p31
aS'fill.v.09'
p32
aS'curd.n.01'
p33
aS'cup.n.01'
p34
aS'cola.n.02'
p35
aS'saltcellar.n.01'
p36
aS'salt.n.02'
p37
asS'instanceCount'
p38
I41
sS'matrix'
p39
(dp40
g23
(dp41
g24
I1
ssg31
(dp42
g31
I0
ssg12
(dp43
S'apple.n.01'
p44
I1
ssg24
(dp45
g24
I0
ssg14
(dp46
S'milk.n.01'
p47
I1
ssg20
(dp48
S'pan.n.03'
p49
I1
ssg28
(dp50
S'foam.n.01'
p51
I1
ssg35
(dp52
S'cola.n.02'
p53
I1
ssg32
(dp54
S'fill.v.01'
p55
I1
ssg15
(dp56
S'bottle.n.01'
p57
I1
ssg19
(dp58
S'pot.n.01'
p59
I1
ssg8
(dp60
S'fill.v.01'
p61
I13
ssg13
(dp62
S'pitcher.n.02'
p63
I1
ssg37
(dp64
S'salt.n.02'
p65
I1
ssg26
(dp66
S'whiskey.n.01'
p67
I1
ssg30
(dp68
g31
I1
ssg29
(dp69
S'mug.n.04'
p70
I1
ssg16
(dp71
g17
I1
ssg18
(dp72
S'teapot.n.01'
p73
I1
ssg11
(dp74
S'blender.n.01'
p75
I1
ssg36
(dp76
S'saltcellar.n.01'
p77
I1
ssg10
(dp78
S'water.n.06'
p79
I4
ssg21
(dp80
g22
I1
ssg34
(dp81
S'cup.n.01'
p82
I1
ssg9
(dp83
S'kettle.n.01'
p84
I1
ssg22
(dp85
g22
I0
ssg33
(dp86
S'curd.n.01'
p87
I1
ssg25
(dp88
S'jar.n.01'
p89
I1
ssg27
(dp90
S'carafe.n.01'
p91
I1
ssg17
(dp92
g17
I0
sssb.