ccopy_reg
_reconstructor
p0
(cutils.eval
ConfusionMatrix
p1
c__builtin__
object
p2
Ntp3
Rp4
(dp5
S'labels'
p6
(lp7
S'fill.v.01'
p8
aS'measuring_cup.n.01'
p9
aS'meal.n.03'
p10
aS'jar.n.01'
p11
aS'gravy.n.01'
p12
aS'gravy.n.02'
p13
aS'kettle.n.01'
p14
aS'water.n.06'
p15
aS'blender.n.01'
p16
aS'apple.n.01'
p17
aS'pitcher.n.02'
p18
aS'milk.n.01'
p19
aS'bottle.n.01'
p20
aS'fruit_juice.n.01'
p21
aS'teapot.n.01'
p22
aS'pot.n.01'
p23
aS'pan.n.03'
p24
aS'ice.n.01'
p25
aS'ice.n.05'
p26
aS'bowl.n.01'
p27
aS'bowl.n.08'
p28
aS'whiskey.n.01'
p29
aS'carafe.n.01'
p30
aS'foam.n.01'
p31
aS'mug.n.04'
p32
aS'opening.n.01'
p33
aS'opening.n.10'
p34
aS'fill.v.09'
p35
aS'curd.n.01'
p36
asS'instanceCount'
p37
I41
sS'matrix'
p38
(dp39
g27
(dp40
g28
I1
ssg34
(dp41
g34
I0
ssg17
(dp42
S'apple.n.01'
p43
I1
ssg28
(dp44
g28
I0
ssg19
(dp45
S'milk.n.01'
p46
I1
ssg24
(dp47
S'pan.n.03'
p48
I1
ssg31
(dp49
S'foam.n.01'
p50
I1
ssg35
(dp51
S'fill.v.01'
p52
I1
ssg20
(dp53
S'bottle.n.01'
p54
I1
ssg23
(dp55
S'pot.n.01'
p56
I1
ssg8
(dp57
S'fill.v.01'
p58
I13
ssg18
(dp59
S'pitcher.n.02'
p60
I1
ssg9
(dp61
S'measuring_cup.n.01'
p62
I1
ssg12
(dp63
g13
I1
ssg13
(dp64
g13
I0
ssg29
(dp65
S'whiskey.n.01'
p66
I1
ssg33
(dp67
g34
I1
ssg32
(dp68
S'mug.n.04'
p69
I1
ssg21
(dp70
S'fruit_juice.n.01'
p71
I1
ssg22
(dp72
S'teapot.n.01'
p73
I1
ssg16
(dp74
S'blender.n.01'
p75
I1
ssg15
(dp76
S'water.n.06'
p77
I4
ssg25
(dp78
g26
I1
ssg14
(dp79
S'kettle.n.01'
p80
I1
ssg26
(dp81
g26
I0
ssg36
(dp82
S'curd.n.01'
p83
I1
ssg11
(dp84
S'jar.n.01'
p85
I2
ssg30
(dp86
S'carafe.n.01'
p87
I1
ssg10
(dp88
S'meal.n.03'
p89
I1
sssb.