ccopy_reg
_reconstructor
p0
(cutils.eval
ConfusionMatrix
p1
c__builtin__
object
p2
Ntp3
Rp4
(dp5
S'labels'
p6
(lp7
S'fill.v.01'
p8
aS'teapot.n.01'
p9
aS'water.n.06'
p10
aS'pot.n.01'
p11
aS'pan.n.03'
p12
aS'ice.n.01'
p13
aS'ice.n.05'
p14
aS'bowl.n.01'
p15
aS'jar.n.01'
p16
aS'whiskey.n.01'
p17
aS'carafe.n.01'
p18
aS'foam.n.01'
p19
aS'mug.n.04'
p20
aS'opening.n.01'
p21
aS'opening.n.10'
p22
aS'fill.v.09'
p23
aS'curd.n.01'
p24
aS'cup.n.01'
p25
aS'cola.n.02'
p26
aS'saltcellar.n.01'
p27
aS'salt.n.02'
p28
aS'thermos.n.01'
p29
aS'coffee.n.01'
p30
aS'wok.n.01'
p31
aS'rice.n.01'
p32
aS'gap.n.03'
p33
aS'batter.n.02'
p34
aS'glass.n.02'
p35
aS'milk.n.01'
p36
asS'instanceCount'
p37
I41
sS'matrix'
p38
(dp39
g32
(dp40
S'rice.n.01'
p41
I1
ssg15
(dp42
S'bowl.n.01'
p43
I1
ssg34
(dp44
S'batter.n.02'
p45
I1
ssg22
(dp46
g22
I0
ssg25
(dp47
S'cup.n.01'
p48
I1
ssg36
(dp49
S'milk.n.01'
p50
I1
ssg12
(dp51
S'pan.n.03'
p52
I1
ssg19
(dp53
S'foam.n.01'
p54
I1
ssg26
(dp55
S'cola.n.02'
p56
I1
ssg27
(dp57
S'saltcellar.n.01'
p58
I1
ssg23
(dp59
S'fill.v.01'
p60
I2
ssg11
(dp61
S'pot.n.01'
p62
I1
ssg8
(dp63
S'fill.v.01'
p64
I12
ssg33
(dp65
g33
I0
ssg35
(dp66
S'glass.n.02'
p67
I1
ssg28
(dp68
S'salt.n.02'
p69
I1
ssg31
(dp70
S'wok.n.01'
p71
I1
ssg30
(dp72
S'coffee.n.01'
p73
I1
ssg17
(dp74
S'whiskey.n.01'
p75
I1
ssg21
(dp76
g22
I1
sg33
I1
ssg20
(dp77
S'mug.n.04'
p78
I1
ssg9
(dp79
S'teapot.n.01'
p80
I1
ssg29
(dp81
S'thermos.n.01'
p82
I1
ssg10
(dp83
S'water.n.06'
p84
I3
ssg13
(dp85
g14
I1
ssg14
(dp86
g14
I0
ssg24
(dp87
S'curd.n.01'
p88
I1
ssg16
(dp89
S'jar.n.01'
p90
I1
ssg18
(dp91
S'carafe.n.01'
p92
I1
sssb.