ccopy_reg
_reconstructor
p0
(cutils.eval
ConfusionMatrix
p1
c__builtin__
object
p2
Ntp3
Rp4
(dp5
S'labels'
p6
(lp7
S'fill.v.01'
p8
aS'pitcher.n.02'
p9
aS'milk.n.01'
p10
aS'bottle.n.01'
p11
aS'fruit_juice.n.01'
p12
aS'juice.n.01'
p13
aS'teapot.n.01'
p14
aS'water.n.06'
p15
aS'pot.n.01'
p16
aS'pan.n.03'
p17
aS'ice.n.01'
p18
aS'ice.n.05'
p19
aS'bowl.n.01'
p20
aS'bowl.n.08'
p21
aS'jar.n.01'
p22
aS'whiskey.n.01'
p23
aS'carafe.n.01'
p24
aS'foam.n.01'
p25
aS'mug.n.04'
p26
aS'opening.n.01'
p27
aS'opening.n.10'
p28
aS'fill.v.09'
p29
aS'curd.n.01'
p30
aS'cup.n.01'
p31
aS'cola.n.02'
p32
aS'saltcellar.n.01'
p33
aS'salt.n.02'
p34
aS'thermos.n.01'
p35
aS'coffee.n.01'
p36
aS'wok.n.01'
p37
aS'rice.n.01'
p38
asS'instanceCount'
p39
I41
sS'matrix'
p40
(dp41
g35
(dp42
S'thermos.n.01'
p43
I1
ssg20
(dp44
g21
I1
ssg28
(dp45
g28
I0
ssg21
(dp46
g21
I0
ssg10
(dp47
S'milk.n.01'
p48
I1
ssg17
(dp49
S'pan.n.03'
p50
I1
ssg25
(dp51
S'foam.n.01'
p52
I1
ssg32
(dp53
S'cola.n.02'
p54
I1
ssg29
(dp55
S'fill.v.01'
p56
I1
ssg11
(dp57
S'bottle.n.01'
p58
I1
ssg16
(dp59
S'pot.n.01'
p60
I1
ssg8
(dp61
S'fill.v.01'
p62
I13
ssg9
(dp63
S'pitcher.n.02'
p64
I1
ssg34
(dp65
S'salt.n.02'
p66
I1
ssg37
(dp67
S'wok.n.01'
p68
I1
ssg36
(dp69
S'coffee.n.01'
p70
I1
ssg23
(dp71
S'whiskey.n.01'
p72
I1
ssg27
(dp73
g28
I1
ssg26
(dp74
S'mug.n.04'
p75
I1
ssg12
(dp76
g13
I1
ssg14
(dp77
S'teapot.n.01'
p78
I1
ssg33
(dp79
S'saltcellar.n.01'
p80
I1
ssg15
(dp81
S'water.n.06'
p82
I3
ssg18
(dp83
g19
I1
ssg31
(dp84
S'cup.n.01'
p85
I1
ssg19
(dp86
g19
I0
ssg30
(dp87
S'curd.n.01'
p88
I1
ssg22
(dp89
S'jar.n.01'
p90
I1
ssg24
(dp91
S'carafe.n.01'
p92
I1
ssg13
(dp93
g13
I0
ssg38
(dp94
S'rice.n.01'
p95
I1
sssb.