ccopy_reg
_reconstructor
p0
(cutils.eval
ConfusionMatrix
p1
c__builtin__
object
p2
Ntp3
Rp4
(dp5
S'labels'
p6
(lp7
S'fill.v.01'
p8
aS'thermos.n.01'
p9
aS'coffee.n.01'
p10
aS'wok.n.01'
p11
aS'rice.n.01'
p12
aS'opening.n.01'
p13
aS'gap.n.03'
p14
aS'fill.v.09'
p15
aS'batter.n.02'
p16
aS'glass.n.02'
p17
aS'milk.n.01'
p18
aS'measuring_cup.n.01'
p19
aS'meal.n.03'
p20
aS'jar.n.01'
p21
aS'gravy.n.01'
p22
aS'gravy.n.02'
p23
aS'kettle.n.01'
p24
aS'water.n.06'
p25
aS'blender.n.01'
p26
aS'apple.n.01'
p27
aS'pitcher.n.02'
p28
aS'bottle.n.01'
p29
aS'fruit_juice.n.01'
p30
aS'teapot.n.01'
p31
aS'pot.n.01'
p32
aS'pan.n.03'
p33
aS'ice.n.01'
p34
aS'methamphetamine.n.01'
p35
aS'bowl.n.01'
p36
asS'instanceCount'
p37
I42
sS'matrix'
p38
(dp39
g12
(dp40
S'rice.n.01'
p41
I1
ssg35
(dp42
g35
I0
ssg36
(dp43
S'bowl.n.01'
p44
I1
ssg16
(dp45
S'batter.n.02'
p46
I1
ssg27
(dp47
S'apple.n.01'
p48
I1
ssg18
(dp49
S'milk.n.01'
p50
I2
ssg33
(dp51
S'pan.n.03'
p52
I1
ssg14
(dp53
g14
I0
ssg15
(dp54
S'fill.v.01'
p55
I1
ssg29
(dp56
S'bottle.n.01'
p57
I1
ssg32
(dp58
S'pot.n.01'
p59
I1
ssg8
(dp60
S'fill.v.01'
p61
I13
ssg28
(dp62
S'pitcher.n.02'
p63
I1
ssg19
(dp64
S'measuring_cup.n.01'
p65
I1
ssg17
(dp66
S'glass.n.02'
p67
I1
ssg22
(dp68
g23
I1
ssg23
(dp69
g23
I0
ssg11
(dp70
S'wok.n.01'
p71
I1
ssg10
(dp72
S'coffee.n.01'
p73
I1
ssg13
(dp74
g14
I1
ssg30
(dp75
S'fruit_juice.n.01'
p76
I1
ssg31
(dp77
S'teapot.n.01'
p78
I1
ssg26
(dp79
S'blender.n.01'
p80
I1
ssg9
(dp81
S'thermos.n.01'
p82
I1
ssg25
(dp83
S'water.n.06'
p84
I4
ssg34
(dp85
g35
I1
ssg24
(dp86
S'kettle.n.01'
p87
I1
ssg21
(dp88
S'jar.n.01'
p89
I1
ssg20
(dp90
S'meal.n.03'
p91
I1
sssb.