ccopy_reg
_reconstructor
p0
(cutils.eval
ConfusionMatrix
p1
c__builtin__
object
p2
Ntp3
Rp4
(dp5
S'labels'
p6
(lp7
S'cup.n.01'
p8
aS'fill.v.01'
p9
aS'cola.n.02'
p10
aS'saltcellar.n.01'
p11
aS'salt.n.02'
p12
aS'thermos.n.01'
p13
aS'coffee.n.01'
p14
aS'wok.n.01'
p15
aS'rice.n.01'
p16
aS'opening.n.01'
p17
aS'gap.n.03'
p18
aS'fill.v.09'
p19
aS'batter.n.02'
p20
aS'glass.n.02'
p21
aS'milk.n.01'
p22
aS'measuring_cup.n.01'
p23
aS'meal.n.03'
p24
aS'meal.n.01'
p25
aS'jar.n.01'
p26
aS'gravy.n.01'
p27
aS'gravy.n.02'
p28
aS'kettle.n.01'
p29
aS'water.n.06'
p30
aS'blender.n.01'
p31
aS'apple.n.01'
p32
aS'pitcher.n.02'
p33
aS'bottle.n.01'
p34
aS'fruit_juice.n.01'
p35
aS'teapot.n.01'
p36
aS'pot.n.01'
p37
asS'instanceCount'
p38
I42
sS'matrix'
p39
(dp40
g13
(dp41
S'thermos.n.01'
p42
I1
ssg20
(dp43
S'batter.n.02'
p44
I1
ssg32
(dp45
S'apple.n.01'
p46
I1
ssg8
(dp47
S'cup.n.01'
p48
I1
ssg22
(dp49
S'milk.n.01'
p50
I2
ssg10
(dp51
S'cola.n.02'
p52
I1
ssg18
(dp53
g18
I0
ssg11
(dp54
S'saltcellar.n.01'
p55
I1
ssg34
(dp56
S'bottle.n.01'
p57
I1
ssg37
(dp58
S'pot.n.01'
p59
I1
ssg9
(dp60
S'fill.v.01'
p61
I13
ssg19
(dp62
S'fill.v.01'
p63
I1
ssg23
(dp64
S'measuring_cup.n.01'
p65
I1
ssg21
(dp66
S'glass.n.02'
p67
I1
ssg27
(dp68
g28
I1
ssg12
(dp69
S'salt.n.02'
p70
I1
ssg28
(dp71
g28
I0
ssg15
(dp72
S'wok.n.01'
p73
I1
ssg14
(dp74
S'coffee.n.01'
p75
I1
ssg17
(dp76
g18
I1
ssg35
(dp77
S'fruit_juice.n.01'
p78
I1
ssg33
(dp79
S'pitcher.n.02'
p80
I1
ssg36
(dp81
S'teapot.n.01'
p82
I1
ssg31
(dp83
S'blender.n.01'
p84
I1
ssg16
(dp85
S'rice.n.01'
p86
I1
ssg30
(dp87
S'water.n.06'
p88
I3
ssg29
(dp89
S'kettle.n.01'
p90
I1
ssg26
(dp91
S'jar.n.01'
p92
I1
ssg25
(dp93
g25
I0
ssg24
(dp94
g25
I1
sssb.