ccopy_reg
_reconstructor
p0
(cutils.eval
ConfusionMatrix
p1
c__builtin__
object
p2
Ntp3
Rp4
(dp5
S'labels'
p6
(lp7
S'fill.v.01'
p8
aS'pan.n.03'
p9
aS'water.n.06'
p10
aS'ice.n.01'
p11
aS'ice.n.05'
p12
aS'bowl.n.01'
p13
aS'jar.n.01'
p14
aS'whiskey.n.01'
p15
aS'carafe.n.01'
p16
aS'foam.n.01'
p17
aS'mug.n.04'
p18
aS'opening.n.01'
p19
aS'opening.n.10'
p20
aS'fill.v.09'
p21
aS'curd.n.01'
p22
aS'cup.n.01'
p23
aS'cola.n.02'
p24
aS'saltcellar.n.01'
p25
aS'salt.n.02'
p26
aS'thermos.n.01'
p27
aS'coffee.n.01'
p28
aS'wok.n.01'
p29
aS'rice.n.01'
p30
aS'gap.n.03'
p31
aS'batter.n.02'
p32
aS'glass.n.02'
p33
aS'milk.n.01'
p34
aS'measuring_cup.n.01'
p35
aS'meal.n.03'
p36
aS'gravy.n.01'
p37
aS'gravy.n.02'
p38
aS'meal.n.01'
p39
aS'kettle.n.01'
p40
aS'blender.n.01'
p41
aS'apple.n.01'
p42
aS'pitcher.n.02'
p43
aS'bottle.n.01'
p44
aS'fruit_juice.n.01'
p45
aS'teapot.n.01'
p46
aS'pot.n.01'
p47
aS'bowl.n.08'
p48
aS'juice.n.01'
p49
aS'methamphetamine.n.01'
p50
asS'instanceCount'
p51
I413
sS'matrix'
p52
(dp53
g30
(dp54
g30
I7
sg50
I0
sg13
I0
sg32
I0
sg42
I0
sg20
I0
sg23
I0
sg34
I0
sg9
I0
sg17
I0
sg24
I0
sg31
I0
sg25
I0
sg44
I0
sS'pot.n.01'
p55
I0
sg8
I0
sS'bowl.n.08'
p56
I0
sg21
I0
sg35
I0
sg33
I0
sg37
I0
sg26
I0
sg38
I0
sg29
I0
sg28
I0
sg15
I0
sg19
I0
sg18
I0
sg45
I0
sg43
I0
sS'teapot.n.01'
p57
I0
sg41
I0
sg27
I0
sg10
I0
sS'juice.n.01'
p58
I0
sg11
I0
sg40
I0
sg12
I0
sg22
I0
sg14
I0
sg16
I0
sg39
I0
sg36
I0
ssg50
(dp59
S'thermos.n.01'
p60
I0
sg50
I0
sS'bowl.n.01'
p61
I0
sS'batter.n.02'
p62
I0
sS'apple.n.01'
p63
I0
sS'milk.n.01'
p64
I0
sS'pan.n.03'
p65
I0
sS'gap.n.03'
p66
I0
sS'fill.v.09'
p67
I0
sS'bottle.n.01'
p68
I0
sS'pot.n.01'
p69
I0
sS'fill.v.01'
p70
I0
sS'pitcher.n.02'
p71
I0
sS'measuring_cup.n.01'
p72
I0
sS'glass.n.02'
p73
I0
sS'gravy.n.01'
p74
I0
sS'gravy.n.02'
p75
I0
sS'wok.n.01'
p76
I0
sS'coffee.n.01'
p77
I0
sS'opening.n.01'
p78
I0
sS'fruit_juice.n.01'
p79
I0
sS'teapot.n.01'
p80
I0
sS'blender.n.01'
p81
I0
sS'rice.n.01'
p82
I0
sS'water.n.06'
p83
I0
sS'ice.n.01'
p84
I0
sS'kettle.n.01'
p85
I0
sS'jar.n.01'
p86
I0
sS'meal.n.03'
p87
I0
ssg13
(dp88
g30
I0
sg50
I0
sg13
I3
sg32
I0
sS'apple.n.01'
p89
I0
sg20
I0
sg23
I0
sg34
I0
sg9
I0
sg17
I0
sg24
I0
sg25
I0
sg21
I0
sS'bottle.n.01'
p90
I0
sg47
I0
sg8
I0
sg48
I4
sg31
I0
sg35
I0
sg33
I0
sg37
I0
sg26
I0
sg38
I0
sg29
I0
sg28
I0
sg15
I0
sg19
I0
sg18
I0
sS'fruit_juice.n.01'
p91
I0
sg46
I0
sS'blender.n.01'
p92
I0
sg27
I0
sg10
I0
sg49
I0
sg11
I0
sS'kettle.n.01'
p93
I0
sg12
I0
sg22
I0
sg14
I0
sg16
I0
sS'pitcher.n.02'
p94
I0
sg36
I0
ssg32
(dp95
g30
I0
sg50
I0
sg13
I0
sg32
I7
sg42
I0
sg20
I0
sg23
I0
sg34
I0
sg9
I0
sg17
I0
sg24
I0
sg25
I0
sg21
I0
sg44
I0
sg47
I0
sg8
I0
sg48
I0
sg31
I0
sg35
I0
sg33
I0
sg37
I0
sg26
I0
sg38
I0
sg29
I0
sg28
I0
sg15
I0
sg19
I0
sg18
I0
sg45
I0
sg43
I0
sg46
I0
sg41
I0
sg27
I0
sg10
I0
sg11
I0
sg40
I0
sg12
I0
sg22
I0
sg14
I0
sg16
I0
sg39
I0
sg36
I0
ssg42
(dp96
S'saltcellar.n.01'
p97
I0
sS'rice.n.01'
p98
I0
sg50
I0
sS'bowl.n.01'
p99
I0
sS'batter.n.02'
p100
I0
sS'opening.n.10'
p101
I0
sg42
I7
sS'fill.v.01'
p102
I0
sS'milk.n.01'
p103
I0
sS'pan.n.03'
p104
I0
sS'foam.n.01'
p105
I0
sS'cola.n.02'
p106
I0
sS'gap.n.03'
p107
I0
sS'fill.v.09'
p108
I0
sg44
I0
sg47
I0
sS'cup.n.01'
p109
I0
sg48
I0
sg43
I0
sS'measuring_cup.n.01'
p110
I0
sS'glass.n.02'
p111
I0
sS'gravy.n.01'
p112
I0
sS'salt.n.02'
p113
I0
sS'gravy.n.02'
p114
I0
sS'wok.n.01'
p115
I0
sS'coffee.n.01'
p116
I0
sS'whiskey.n.01'
p117
I0
sS'opening.n.01'
p118
I0
sS'mug.n.04'
p119
I0
sg45
I0
sg46
I0
sg41
I0
sS'thermos.n.01'
p120
I0
sS'water.n.06'
p121
I0
sg49
I0
sS'ice.n.01'
p122
I0
sg40
I0
sS'ice.n.05'
p123
I0
sS'curd.n.01'
p124
I0
sS'jar.n.01'
p125
I0
sS'carafe.n.01'
p126
I0
sg39
I0
sS'meal.n.03'
p127
I0
ssg20
(dp128
g30
I0
sg13
I0
sg32
I0
sg42
I0
sg20
I0
sg23
I0
sg34
I0
sg9
I0
sg17
I0
sg24
I0
sg25
I0
sg21
I0
sg44
I0
sS'pot.n.01'
p129
I0
sg8
I0
sS'bowl.n.08'
p130
I0
sg31
I0
sg35
I0
sg33
I0
sg37
I0
sg26
I0
sg38
I0
sg29
I0
sg28
I0
sg15
I0
sg19
I0
sg18
I0
sg45
I0
sg43
I0
sS'teapot.n.01'
p131
I0
sg41
I0
sg27
I0
sg10
I0
sg49
I0
sg11
I0
sg40
I0
sg12
I0
sg22
I0
sg14
I0
sg16
I0
sg39
I0
sg36
I0
ssg23
(dp132
g27
I0
sg13
I0
sg32
I0
sg42
I0
sg20
I0
sg17
I0
sg34
I0
sg9
I0
sS'bowl.n.08'
p133
I0
sg24
I0
sg31
I0
sg21
I0
sg44
I0
sg55
I0
sg8
I0
sg43
I0
sg35
I0
sg33
I0
sg37
I0
sg26
I0
sg38
I0
sg29
I0
sg28
I0
sg15
I0
sg19
I0
sg18
I0
sg45
I0
sg57
I0
sg41
I0
sg25
I0
sg10
I0
sg49
I0
sg11
I0
sg23
I7
sg40
I0
sg12
I0
sg22
I0
sg14
I0
sg36
I0
sg16
I0
sg39
I0
sg30
I0
ssg34
(dp134
g30
I0
sg50
I0
sg13
I0
sg32
I0
sg42
I0
sg20
I0
sg23
I0
sg34
I14
sg9
I0
sg17
I0
sg24
I0
sg25
I0
sg21
I0
sg44
I0
sg47
I0
sg8
I0
sg48
I0
sg31
I0
sg35
I0
sg33
I0
sg37
I0
sg26
I0
sg38
I0
sg29
I0
sg28
I0
sg15
I0
sg19
I0
sg18
I0
sg45
I0
sg43
I0
sg46
I0
sg41
I0
sg27
I0
sg10
I0
sg49
I0
sg11
I0
sg40
I0
sg12
I0
sg22
I0
sg14
I0
sg16
I0
sg39
I0
sg36
I0
ssg9
(dp135
g30
I0
sg50
I0
sg13
I0
sg32
I0
sg89
I0
sg20
I0
sg23
I0
sg34
I0
sg9
I7
sg17
I0
sg24
I0
sg25
I0
sg21
I0
sg90
I0
sg47
I0
sg8
I0
sg48
I0
sg31
I0
sg35
I0
sg33
I0
sg37
I0
sg26
I0
sg38
I0
sg29
I0
sg28
I0
sg15
I0
sg19
I0
sg18
I0
sg91
I0
sg46
I0
sg92
I0
sg27
I0
sg10
I0
sg49
I0
sg11
I0
sg93
I0
sg12
I0
sg22
I0
sg14
I0
sg16
I0
sg94
I0
sg36
I0
ssg17
(dp136
g30
I0
sg13
I0
sg32
I0
sg42
I0
sg20
I0
sg23
I0
sg34
I0
sg9
I0
sg17
I7
sg24
I0
sg25
I0
sg21
I0
sg44
I0
sg129
I0
sg8
I0
sg130
I0
sg31
I0
sg35
I0
sg33
I0
sg37
I0
sg26
I0
sg38
I0
sg29
I0
sg28
I0
sg15
I0
sg19
I0
sg18
I0
sg45
I0
sg43
I0
sg131
I0
sg41
I0
sg27
I0
sg10
I0
sg49
I0
sg11
I0
sg40
I0
sg12
I0
sg22
I0
sg14
I0
sg16
I0
sg39
I0
sg36
I0
ssg24
(dp137
g30
I0
sg13
I0
sg32
I0
sg42
I0
sg20
I0
sg23
I0
sg34
I0
sg9
I0
sg17
I0
sg24
I7
sg25
I0
sg21
I0
sg44
I0
sg55
I0
sg8
I0
sg133
I0
sg31
I0
sg35
I0
sg33
I0
sg37
I0
sg26
I0
sg38
I0
sg29
I0
sg28
I0
sg15
I0
sg19
I0
sg18
I0
sg45
I0
sg43
I0
sg57
I0
sg41
I0
sg27
I0
sg10
I0
sg49
I0
sg11
I0
sg40
I0
sg12
I0
sg22
I0
sg14
I0
sg16
I0
sg39
I0
sg36
I0
ssg25
(dp138
g30
I0
sg13
I0
sg32
I0
sg42
I0
sg20
I0
sg23
I0
sg34
I0
sg9
I0
sg17
I0
sg24
I0
sg31
I0
sg25
I7
sg44
I0
sg55
I0
sg8
I0
sg133
I0
sg21
I0
sg35
I0
sg33
I0
sg37
I0
sg26
I0
sg38
I0
sg29
I0
sg28
I0
sg15
I0
sg19
I0
sg18
I0
sg45
I0
sg43
I0
sg57
I0
sg41
I0
sg27
I0
sg10
I0
sg49
I0
sg11
I0
sg40
I0
sg12
I0
sg22
I0
sg14
I0
sg16
I0
sg39
I0
sg36
I0
ssg21
(dp139
g30
I0
sg50
I0
sg13
I0
sg32
I0
sg42
I0
sg20
I0
sg23
I0
sg34
I0
sg9
I0
sg17
I0
sg24
I0
sg25
I0
sg21
I0
sg44
I0
sg47
I0
sg8
I14
sg48
I0
sg31
I0
sg35
I0
sg33
I0
sg37
I0
sg26
I0
sg38
I0
sg29
I0
sg28
I0
sg15
I0
sg19
I0
sg18
I0
sg45
I0
sg43
I0
sg46
I0
sg41
I0
sg27
I0
sg10
I0
sg49
I0
sg11
I0
sg40
I0
sg12
I0
sg22
I0
sg14
I0
sg16
I0
sg39
I0
sg36
I0
ssg44
(dp140
g97
I0
sg98
I0
sg50
I0
sg99
I0
sg100
I0
sg42
I0
sg101
I0
sg102
I0
sg103
I0
sg104
I0
sg105
I0
sg106
I0
sg107
I0
sg108
I0
sg44
I7
sg47
I0
sg109
I0
sg48
I0
sg43
I0
sg110
I0
sg111
I0
sg112
I0
sg113
I0
sg114
I0
sg115
I0
sg116
I0
sg117
I0
sg118
I0
sg119
I0
sg45
I0
sg46
I0
sg41
I0
sg120
I0
sg121
I0
sg49
I0
sg122
I0
sg40
I0
sg123
I0
sg124
I0
sg125
I0
sg126
I0
sg39
I0
sg127
I0
ssg47
(dp141
S'thermos.n.01'
p142
I0
sg50
I0
sg99
I0
sS'batter.n.02'
p143
I0
sS'opening.n.10'
p144
I0
sg89
I0
sg48
I0
sS'milk.n.01'
p145
I0
sg104
I0
sS'foam.n.01'
p146
I0
sS'cola.n.02'
p147
I0
sS'gap.n.03'
p148
I0
sS'fill.v.09'
p149
I0
sg90
I0
sg47
I7
sS'fill.v.01'
p150
I0
sg94
I0
sS'measuring_cup.n.01'
p151
I0
sS'glass.n.02'
p152
I0
sS'gravy.n.01'
p153
I0
sS'salt.n.02'
p154
I0
sS'gravy.n.02'
p155
I0
sS'wok.n.01'
p156
I0
sS'coffee.n.01'
p157
I0
sS'rice.n.01'
p158
I0
sg117
I0
sS'opening.n.01'
p159
I0
sS'mug.n.04'
p160
I0
sg91
I0
sg46
I0
sg92
I0
sS'saltcellar.n.01'
p161
I0
sS'water.n.06'
p162
I0
sg49
I0
sg122
I0
sS'cup.n.01'
p163
I0
sg93
I0
sg123
I0
sS'curd.n.01'
p164
I0
sS'jar.n.01'
p165
I0
sg126
I0
sS'meal.n.01'
p166
I0
sS'meal.n.03'
p167
I0
ssg8
(dp168
g30
I0
sg50
I0
sg13
I0
sg32
I0
sg42
I0
sg20
I0
sg23
I0
sg34
I0
sg9
I0
sg17
I0
sg24
I0
sg25
I0
sg21
I0
sg44
I0
sg47
I0
sg8
I126
sg48
I0
sg31
I0
sg35
I0
sg33
I0
sg37
I0
sg26
I0
sg38
I0
sg29
I0
sg28
I0
sg15
I0
sg19
I0
sg18
I0
sg45
I0
sg43
I0
sg46
I0
sg41
I0
sg27
I0
sg10
I0
sg49
I0
sg11
I0
sg40
I0
sg12
I0
sg22
I0
sg14
I0
sg16
I0
sg39
I0
sg36
I0
ssg48
(dp169
S'thermos.n.01'
p170
I0
sg99
I0
sg143
I0
sg144
I0
sg89
I0
sg48
I0
sg145
I0
sg104
I0
sg146
I0
sS'cola.n.02'
p171
I0
sg148
I0
sg149
I0
sg90
I0
sg47
I0
sg150
I0
sg94
I0
sg151
I0
sg152
I0
sg153
I0
sS'salt.n.02'
p172
I0
sg155
I0
sS'wok.n.01'
p173
I0
sS'coffee.n.01'
p174
I0
sS'rice.n.01'
p175
I0
sg117
I0
sg159
I0
sg160
I0
sg91
I0
sg46
I0
sg92
I0
sS'saltcellar.n.01'
p176
I0
sg162
I0
sg122
I0
sS'cup.n.01'
p177
I0
sg93
I0
sg123
I0
sg164
I0
sg165
I0
sg126
I0
sg49
I0
sg167
I0
ssg31
(dp178
g25
I0
sg30
I0
sg50
I0
sg13
I0
sg32
I0
sg42
I0
sg20
I0
sg23
I0
sg34
I0
sg9
I0
sg17
I0
sg24
I0
sg31
I0
sg21
I0
sg44
I0
sg47
I0
sg8
I0
sg48
I0
sg43
I0
sg35
I0
sg33
I0
sg37
I0
sg26
I0
sg38
I0
sg29
I0
sg28
I0
sg15
I0
sg19
I0
sg18
I0
sg45
I0
sg46
I0
sg41
I0
sg27
I0
sg10
I0
sg11
I0
sg40
I0
sg12
I0
sg22
I0
sg14
I0
sg16
I0
sg39
I0
sg36
I0
ssg35
(dp179
g30
I0
sg50
I0
sg13
I0
sg32
I0
sg42
I0
sg20
I0
sg23
I0
sg34
I0
sg9
I0
sg17
I0
sg24
I0
sg25
I0
sg21
I0
sg44
I0
sg47
I0
sg8
I0
sg48
I0
sg31
I0
sg35
I7
sg33
I0
sg37
I0
sg26
I0
sg38
I0
sg29
I0
sg28
I0
sg15
I0
sg19
I0
sg18
I0
sg45
I0
sg43
I0
sg46
I0
sg41
I0
sg27
I0
sg10
I0
sg11
I0
sg40
I0
sg12
I0
sg22
I0
sg14
I0
sg16
I0
sg39
I0
sg36
I0
ssg33
(dp180
g30
I0
sg50
I0
sg13
I0
sg32
I0
sg42
I0
sg20
I0
sg23
I0
sg34
I0
sg9
I0
sg17
I0
sg24
I0
sg25
I0
sg21
I0
sg44
I0
sg47
I0
sg8
I0
sg48
I0
sg31
I0
sg35
I0
sg33
I7
sg37
I0
sg26
I0
sg38
I0
sg29
I0
sg28
I0
sg15
I0
sg19
I0
sg18
I0
sg45
I0
sg43
I0
sg46
I0
sg41
I0
sg27
I0
sg10
I0
sg11
I0
sg40
I0
sg12
I0
sg22
I0
sg14
I0
sg16
I0
sg39
I0
sg36
I0
ssg37
(dp181
g30
I0
sg50
I0
sg13
I0
sg32
I0
sg42
I0
sg20
I0
sg23
I0
sg34
I0
sg9
I0
sg17
I0
sg24
I0
sg25
I0
sg21
I0
sg44
I0
sg47
I0
sg8
I0
sg48
I0
sg31
I0
sg35
I0
sg33
I0
sg37
I0
sg26
I0
sg38
I7
sg29
I0
sg28
I0
sg15
I0
sg19
I0
sg18
I0
sg45
I0
sg43
I0
sg46
I0
sg41
I0
sg27
I0
sg10
I0
sg11
I0
sg40
I0
sg12
I0
sg22
I0
sg14
I0
sg16
I0
sg39
I0
sg36
I0
ssg26
(dp182
g30
I0
sg13
I0
sg32
I0
sg42
I0
sg20
I0
sg23
I0
sg34
I0
sg9
I0
sg17
I0
sg24
I0
sg31
I0
sg25
I0
sg44
I0
sg55
I0
sg8
I0
sg133
I0
sg21
I0
sg35
I0
sg33
I0
sg37
I0
sg26
I7
sg38
I0
sg29
I0
sg28
I0
sg15
I0
sg19
I0
sg18
I0
sg45
I0
sg43
I0
sg57
I0
sg41
I0
sg27
I0
sg10
I0
sg49
I0
sg11
I0
sg40
I0
sg12
I0
sg22
I0
sg14
I0
sg16
I0
sg39
I0
sg36
I0
ssg38
(dp183
g27
I0
sg50
I0
sg13
I0
sg32
I0
sg42
I0
sg20
I0
sg23
I0
sg34
I0
sg9
I0
sg17
I0
sg24
I0
sg31
I0
sg21
I0
sg44
I0
sg47
I0
sg8
I0
sg48
I0
sg43
I0
sg35
I0
sg33
I0
sg37
I0
sg26
I0
sg38
I0
sg29
I0
sg28
I0
sg15
I0
sg19
I0
sg18
I0
sg45
I0
sg46
I0
sg41
I0
sg25
I0
sg10
I0
sg11
I0
sg40
I0
sg12
I0
sg22
I0
sg14
I0
sg36
I0
sg16
I0
sg39
I0
sg30
I0
ssg29
(dp184
g30
I0
sg50
I0
sg13
I0
sg32
I0
sg42
I0
sg20
I0
sg23
I0
sg34
I0
sg9
I0
sg17
I0
sg24
I0
sg25
I0
sg21
I0
sg44
I0
sg55
I0
sg8
I0
sg56
I0
sg31
I0
sg35
I0
sg33
I0
sg37
I0
sg26
I0
sg38
I0
sg29
I7
sg28
I0
sg15
I0
sg19
I0
sg18
I0
sg45
I0
sg43
I0
sg57
I0
sg41
I0
sg27
I0
sg10
I0
sg58
I0
sg11
I0
sg40
I0
sg12
I0
sg22
I0
sg14
I0
sg16
I0
sg39
I0
sg36
I0
ssg28
(dp185
g30
I0
sg50
I0
sg13
I0
sg32
I0
sg42
I0
sg20
I0
sg23
I0
sg34
I0
sg9
I0
sg17
I0
sg24
I0
sg25
I0
sg21
I0
sg44
I0
sg55
I0
sg8
I0
sg56
I0
sg31
I0
sg35
I0
sg33
I0
sg37
I0
sg26
I0
sg38
I0
sg29
I0
sg28
I7
sg15
I0
sg19
I0
sg18
I0
sg45
I0
sg43
I0
sg57
I0
sg41
I0
sg27
I0
sg10
I0
sg58
I0
sg11
I0
sg40
I0
sg12
I0
sg22
I0
sg14
I0
sg16
I0
sg39
I0
sg36
I0
ssg15
(dp186
g30
I0
sg13
I0
sg32
I0
sg89
I0
sg20
I0
sg23
I0
sg34
I0
sg9
I0
sg17
I0
sg24
I0
sg25
I0
sg21
I0
sg90
I0
sg47
I0
sg8
I0
sg48
I0
sg31
I0
sg35
I0
sg33
I0
sg37
I0
sg26
I0
sg38
I0
sg29
I0
sg28
I0
sg15
I7
sg19
I0
sg18
I0
sg91
I0
sg46
I0
sg92
I0
sg27
I0
sg10
I0
sg49
I0
sg11
I0
sg93
I0
sg12
I0
sg22
I0
sg14
I0
sg16
I0
sg94
I0
sg36
I0
ssg19
(dp187
g30
I0
sg50
I0
sg13
I0
sg32
I0
sg42
I0
sg20
I7
sg23
I0
sg34
I0
sg9
I0
sg17
I0
sg24
I0
sg25
I0
sg21
I0
sg44
I0
sg47
I0
sg8
I0
sg48
I0
sg31
I7
sg35
I0
sg33
I0
sg37
I0
sg26
I0
sg38
I0
sg29
I0
sg28
I0
sg15
I0
sg19
I0
sg18
I0
sg45
I0
sg43
I0
sg46
I0
sg41
I0
sg27
I0
sg10
I0
sg49
I0
sg11
I0
sg40
I0
sg12
I0
sg22
I0
sg14
I0
sg16
I0
sg39
I0
sg36
I0
ssg18
(dp188
g30
I0
sg13
I0
sg32
I0
sg42
I0
sg20
I0
sg23
I0
sg34
I0
sg9
I0
sg17
I0
sg24
I0
sg25
I0
sg21
I0
sg44
I0
sg129
I0
sg8
I0
sg130
I0
sg31
I0
sg35
I0
sg33
I0
sg37
I0
sg26
I0
sg38
I0
sg29
I0
sg28
I0
sg15
I0
sg19
I0
sg18
I7
sg45
I0
sg43
I0
sg131
I0
sg41
I0
sg27
I0
sg10
I0
sg49
I0
sg11
I0
sg40
I0
sg12
I0
sg22
I0
sg14
I0
sg16
I0
sg39
I0
sg36
I0
ssg45
(dp189
g97
I0
sg98
I0
sg50
I0
sg99
I0
sg100
I0
sg42
I0
sg101
I0
sg102
I0
sg103
I0
sg104
I0
sg105
I0
sg106
I0
sg107
I0
sg108
I0
sg44
I0
sg47
I0
sg109
I0
sg48
I0
sg43
I0
sg110
I0
sg111
I0
sg112
I0
sg113
I0
sg114
I0
sg115
I0
sg116
I0
sg117
I0
sg118
I0
sg119
I0
sg45
I5
sg46
I0
sg41
I0
sg120
I0
sg121
I0
sg49
I2
sg122
I0
sg40
I0
sg123
I0
sg124
I0
sg125
I0
sg126
I0
sg39
I0
sg127
I0
ssg43
(dp190
g97
I0
sg98
I0
sg50
I0
sg99
I0
sg100
I0
sg42
I0
sg101
I0
sg102
I0
sg103
I0
sg104
I0
sg105
I0
sg106
I0
sg107
I0
sg108
I0
sg44
I0
sg47
I0
sg109
I0
sg48
I0
sg43
I7
sg110
I0
sg111
I0
sg112
I0
sg113
I0
sg114
I0
sg115
I0
sg116
I0
sg117
I0
sg118
I0
sg119
I0
sg45
I0
sg46
I0
sg41
I0
sg120
I0
sg121
I0
sg49
I0
sg122
I0
sg40
I0
sg123
I0
sg124
I0
sg125
I0
sg126
I0
sg39
I0
sg127
I0
ssg46
(dp191
g142
I0
sg50
I0
sg99
I0
sg143
I0
sg144
I0
sg89
I0
sg48
I0
sg145
I0
sg104
I0
sg146
I0
sg147
I0
sg148
I0
sg149
I0
sg90
I0
sg47
I0
sg150
I0
sg94
I0
sg151
I0
sg152
I0
sg153
I0
sg154
I0
sg155
I0
sg156
I0
sg157
I0
sg158
I0
sg117
I0
sg159
I0
sg160
I0
sg91
I0
sg46
I7
sg92
I0
sg161
I0
sg162
I0
sg49
I0
sg122
I0
sg163
I0
sg93
I0
sg123
I0
sg164
I0
sg165
I0
sg126
I0
sg166
I0
sg167
I0
ssg41
(dp192
g98
I0
sg50
I0
sg99
I0
sg100
I0
sg42
I0
sg101
I0
sg102
I0
sg103
I0
sg104
I0
sg105
I0
sg106
I0
sg107
I0
sg97
I0
sg44
I0
sg47
I0
sg109
I0
sg48
I0
sg108
I0
sg110
I0
sg111
I0
sg112
I0
sg113
I0
sg114
I0
sg115
I0
sg116
I0
sg117
I0
sg118
I0
sg119
I0
sg45
I0
sg43
I0
sg46
I0
sg41
I7
sg120
I0
sg121
I0
sg49
I0
sg122
I0
sg40
I0
sg123
I0
sg124
I0
sg125
I0
sg126
I0
sg39
I0
sg127
I0
ssg27
(dp193
g27
I7
sg50
I0
sg13
I0
sg32
I0
sg42
I0
sg20
I0
sg23
I0
sg34
I0
sg9
I0
sg17
I0
sg24
I0
sg31
I0
sg25
I0
sg44
I0
sg55
I0
sg8
I0
sg56
I0
sg43
I0
sg35
I0
sg33
I0
sg37
I0
sg26
I0
sg38
I0
sg29
I0
sg28
I0
sg15
I0
sg19
I0
sg18
I0
sg45
I0
sg57
I0
sg41
I0
sg21
I0
sg10
I0
sg58
I0
sg11
I0
sg40
I0
sg12
I0
sg22
I0
sg14
I0
sg36
I0
sg16
I0
sg39
I0
sg30
I0
ssg10
(dp194
g30
I0
sg50
I0
sg13
I0
sg32
I0
sg42
I0
sg20
I0
sg23
I0
sg34
I0
sg9
I0
sg17
I0
sg24
I0
sg25
I0
sg21
I0
sg44
I0
sg47
I0
sg8
I0
sg48
I0
sg31
I0
sg35
I0
sg33
I0
sg37
I0
sg26
I0
sg38
I0
sg29
I0
sg28
I0
sg15
I0
sg19
I0
sg18
I0
sg45
I0
sg43
I0
sg46
I0
sg41
I0
sg27
I0
sg10
I28
sg49
I0
sg11
I0
sg40
I0
sg12
I0
sg22
I0
sg14
I0
sg16
I0
sg39
I0
sg36
I0
ssg49
(dp195
g170
I0
sS'bowl.n.01'
p196
I0
sS'opening.n.10'
p197
I0
sS'apple.n.01'
p198
I0
sS'foam.n.01'
p199
I0
sS'milk.n.01'
p200
I0
sS'pan.n.03'
p201
I0
sg133
I0
sg171
I0
sS'fill.v.09'
p202
I0
sS'bottle.n.01'
p203
I0
sS'pot.n.01'
p204
I0
sS'fill.v.01'
p205
I0
sS'pitcher.n.02'
p206
I0
sg172
I0
sg173
I0
sg174
I0
sS'whiskey.n.01'
p207
I0
sS'opening.n.01'
p208
I0
sS'mug.n.04'
p209
I0
sS'fruit_juice.n.01'
p210
I0
sS'teapot.n.01'
p211
I0
sS'blender.n.01'
p212
I0
sg176
I0
sS'water.n.06'
p213
I0
sS'ice.n.01'
p214
I0
sg177
I0
sS'kettle.n.01'
p215
I0
sS'ice.n.05'
p216
I0
sS'curd.n.01'
p217
I0
sS'jar.n.01'
p218
I0
sS'carafe.n.01'
p219
I0
sg49
I0
sg175
I0
ssg11
(dp220
g30
I0
sg50
I1
sg13
I0
sg32
I0
sg89
I0
sg20
I0
sg23
I0
sg34
I0
sg9
I0
sg17
I0
sg24
I0
sg25
I0
sg21
I0
sg90
I0
sg47
I0
sg8
I0
sg48
I0
sg31
I0
sg35
I0
sg33
I0
sg37
I0
sg26
I0
sg38
I0
sg29
I0
sg28
I0
sg15
I0
sg19
I0
sg18
I0
sg91
I0
sg46
I0
sg92
I0
sg27
I0
sg10
I0
sg49
I0
sg11
I0
sg93
I0
sg12
I6
sg22
I0
sg14
I0
sg16
I0
sg94
I0
sg36
I0
ssg40
(dp221
g97
I0
sg98
I0
sg50
I0
sg99
I0
sg100
I0
sg42
I0
sg101
I0
sg102
I0
sg103
I0
sg104
I0
sg105
I0
sg106
I0
sg107
I0
sg108
I0
sg44
I0
sg47
I0
sg109
I0
sg48
I0
sg43
I0
sg110
I0
sg111
I0
sg112
I0
sg113
I0
sg114
I0
sg115
I0
sg116
I0
sg117
I0
sg118
I0
sg119
I0
sg45
I0
sg46
I0
sg41
I0
sg120
I0
sg121
I0
sg49
I0
sg122
I0
sg40
I7
sg123
I0
sg124
I0
sg125
I0
sg126
I0
sg39
I0
sg127
I0
ssg12
(dp222
g30
I0
sg13
I0
sg32
I0
sg89
I0
sg20
I0
sg23
I0
sg34
I0
sg9
I0
sg17
I0
sg24
I0
sg25
I0
sg21
I0
sg90
I0
sg47
I0
sg8
I0
sg48
I0
sg31
I0
sg35
I0
sg33
I0
sg37
I0
sg26
I0
sg38
I0
sg29
I0
sg28
I0
sg15
I0
sg19
I0
sg18
I0
sg91
I0
sg46
I0
sg92
I0
sg27
I0
sg10
I0
sg49
I0
sg11
I0
sg93
I0
sg12
I0
sg22
I0
sg14
I0
sg16
I0
sg94
I0
sg36
I0
ssg22
(dp223
g30
I0
sg13
I0
sg32
I0
sg42
I0
sg20
I0
sg23
I0
sg34
I0
sg9
I0
sg17
I0
sg24
I0
sg25
I0
sg21
I0
sg44
I0
sg129
I0
sg8
I0
sg130
I0
sg31
I0
sg35
I0
sg33
I0
sg37
I0
sg26
I0
sg38
I0
sg29
I0
sg28
I0
sg15
I0
sg19
I0
sg18
I0
sg45
I0
sg43
I0
sg131
I0
sg41
I0
sg27
I0
sg10
I0
sg49
I0
sg11
I0
sg40
I0
sg12
I0
sg22
I7
sg14
I0
sg16
I0
sg39
I0
sg36
I0
ssg14
(dp224
g30
I0
sg50
I0
sg13
I0
sg32
I0
sg42
I0
sg20
I0
sg23
I0
sg34
I0
sg9
I0
sg17
I0
sg24
I0
sg25
I0
sg21
I0
sg44
I0
sg47
I0
sg8
I0
sg48
I0
sg31
I0
sg35
I0
sg33
I0
sg37
I0
sg26
I0
sg38
I0
sg29
I0
sg28
I0
sg15
I0
sg19
I0
sg18
I0
sg45
I0
sg43
I0
sg46
I0
sg41
I0
sg27
I0
sg10
I0
sg49
I0
sg11
I0
sg40
I0
sg12
I0
sg22
I0
sg14
I14
sg16
I0
sg39
I0
sg36
I0
ssg16
(dp225
g30
I0
sg13
I0
sg32
I0
sg89
I0
sg20
I0
sg23
I0
sg34
I0
sg9
I0
sg17
I0
sg24
I0
sg25
I0
sg21
I0
sg90
I0
sg47
I0
sg8
I0
sg48
I0
sg31
I0
sg35
I0
sg33
I0
sg37
I0
sg26
I0
sg38
I0
sg29
I0
sg28
I0
sg15
I0
sg19
I0
sg18
I0
sg91
I0
sg46
I0
sg92
I0
sg27
I0
sg10
I0
sg49
I0
sg11
I0
sg93
I0
sg12
I0
sg22
I0
sg14
I0
sg16
I7
sg94
I0
sg36
I0
ssg39
(dp226
g97
I0
sg98
I0
sg100
I0
sg42
I0
sg101
I0
sg102
I0
sg103
I0
sg105
I0
sg106
I0
sg107
I0
sg108
I0
sg44
I0
sg55
I0
sg109
I0
sg43
I0
sg110
I0
sg111
I0
sg112
I0
sg113
I0
sg114
I0
sg115
I0
sg116
I0
sg118
I0
sg119
I0
sg45
I0
sg57
I0
sg41
I0
sg120
I0
sg121
I0
sg40
I0
sg124
I0
sg125
I0
sg39
I0
sg127
I0
ssg36
(dp227
g30
I0
sg50
I0
sg13
I0
sg32
I0
sg42
I0
sg20
I0
sg23
I0
sg34
I0
sg9
I0
sg17
I0
sg24
I0
sg25
I0
sg21
I0
sg44
I0
sg47
I0
sg8
I0
sg48
I0
sg31
I0
sg35
I0
sg33
I0
sg37
I0
sg26
I0
sg38
I0
sg29
I0
sg28
I0
sg15
I0
sg19
I0
sg18
I0
sg45
I0
sg43
I0
sg46
I0
sg41
I0
sg27
I0
sg10
I0
sg11
I0
sg40
I0
sg12
I0
sg22
I0
sg14
I0
sg16
I0
sg39
I2
sg36
I5
sssb.