ccopy_reg
_reconstructor
p0
(cutils.eval
ConfusionMatrix
p1
c__builtin__
object
p2
Ntp3
Rp4
(dp5
S'labels'
p6
(lp7
S'bread.n.01'
p8
aS'knife.n.01'
p9
aS'slice.v.03'
p10
aS'orange.n.01'
p11
aS'piece.n.08'
p12
aS'meat.n.01'
p13
aS'cleaver.n.01'
p14
aS'bacon.n.01'
p15
aS'bacon.n.02'
p16
aS'cheese.n.01'
p17
aS'vegetable.n.01'
p18
aS'tomato.n.01'
p19
aS'egg.n.02'
p20
aS'zucchini.n.01'
p21
aS'zucchini.n.02'
p22
aS'pizza.n.01'
p23
aS'mushroom.n.05'
p24
aS'flesh.n.01'
p25
aS'pulp.n.02'
p26
aS'cabbage.n.01'
p27
aS'lemon.n.01'
p28
aS'banana.n.02'
p29
asS'instanceCount'
p30
I40
sS'matrix'
p31
(dp32
g24
(dp33
S'mushroom.n.05'
p34
I1
ssg17
(dp35
S'cheese.n.01'
p36
I1
ssg8
(dp37
S'bread.n.01'
p38
I1
ssg11
(dp39
S'orange.n.01'
p40
I1
ssg22
(dp41
g22
I0
ssg21
(dp42
g22
I1
ssg27
(dp43
S'cabbage.n.01'
p44
I1
ssg20
(dp45
S'egg.n.02'
p46
I1
ssg19
(dp47
S'tomato.n.01'
p48
I1
ssg16
(dp49
g16
I0
ssg15
(dp50
g16
I1
ssg13
(dp51
S'meat.n.01'
p52
I1
ssg14
(dp53
S'cleaver.n.01'
p54
I1
ssg10
(dp55
S'slice.v.03'
p56
I16
ssg9
(dp57
S'knife.n.01'
p58
I4
ssg29
(dp59
S'banana.n.02'
p60
I1
ssg12
(dp61
S'piece.n.08'
p62
I3
ssg18
(dp63
S'vegetable.n.01'
p64
I1
ssg25
(dp65
g26
I1
ssg23
(dp66
S'pizza.n.01'
p67
I1
ssg28
(dp68
S'lemon.n.01'
p69
I2
ssg26
(dp70
g26
I0
sssb.