ccopy_reg
_reconstructor
p0
(cutils.eval
ConfusionMatrix
p1
c__builtin__
object
p2
Ntp3
Rp4
(dp5
S'labels'
p6
(lp7
S'ActionCause'
p8
aS'Goal'
p9
aS'ObjectToBeStirred'
p10
aS'ObjectShouldBeUsedForStirring'
p11
asS'instanceCount'
p12
I8
sS'matrix'
p13
(dp14
g8
(dp15
S'ActionCause'
p16
I3
ssg11
(dp17
S'ObjectShouldBeUsedForStirring'
p18
I1
ssg9
(dp19
S'Goal'
p20
I1
ssg10
(dp21
S'ObjectToBeStirred'
p22
I3
sssb.