ccopy_reg
_reconstructor
p0
(cutils.eval
ConfusionMatrix
p1
c__builtin__
object
p2
Ntp3
Rp4
(dp5
S'labels'
p6
(lp7
S'ActionCause'
p8
aS'ObjectToBeStirred'
p9
aS'Goal'
p10
asS'instanceCount'
p11
I7
sS'matrix'
p12
(dp13
g8
(dp14
S'ActionCause'
p15
I3
ssg10
(dp16
S'Goal'
p17
I1
ssg9
(dp18
S'ObjectToBeStirred'
p19
I3
sssb.