ccopy_reg
_reconstructor
p0
(cutils.eval
ConfusionMatrix
p1
c__builtin__
object
p2
Ntp3
Rp4
(dp5
S'labels'
p6
(lp7
S'fill.v.01'
p8
aS'kettle.n.01'
p9
aS'water.n.06'
p10
aS'fill.v.09'
p11
aS'foam.n.01'
p12
aS'mug.n.04'
p13
aS'chump.n.01'
p14
aS'pitcher.n.02'
p15
aS'milk.n.01'
p16
aS'knife.n.01'
p17
aS'banana.n.02'
p18
aS'slice.v.03'
p19
aS'slice.v.02'
p20
aS'piece.n.08'
p21
aS'slice.n.06'
p22
aS'pizza.n.01'
p23
aS'onion.n.01'
p24
aS'onion.n.02'
p25
aS'pepper.n.04'
p26
aS'flesh.n.01'
p27
aS'opening.n.01'
p28
aS'gap.n.03'
p29
aS'batter.n.02'
p30
aS'cheese.n.01'
p31
asS'instanceCount'
p32
I25
sS'matrix'
p33
(dp34
g31
(dp35
S'cheese.n.01'
p36
I1
ssg30
(dp37
S'batter.n.02'
p38
I1
ssg12
(dp39
S'foam.n.01'
p40
I1
ssg16
(dp41
S'milk.n.01'
p42
I1
ssg29
(dp43
g29
I0
ssg11
(dp44
S'fill.v.01'
p45
I1
sg11
I0
ssg8
(dp46
g11
I1
sS'fill.v.01'
p47
I2
ssg15
(dp48
S'pitcher.n.02'
p49
I1
ssg20
(dp50
g20
I0
ssg19
(dp51
g20
I5
ssg14
(dp52
g14
I0
ssg17
(dp53
S'knife.n.01'
p54
I1
ssg18
(dp55
S'banana.n.02'
p56
I1
ssg26
(dp57
S'pepper.n.04'
p58
I1
ssg21
(dp59
g22
I1
ssg28
(dp60
g29
I1
ssg13
(dp61
g14
I1
ssg27
(dp62
S'flesh.n.01'
p63
I1
ssg22
(dp64
g22
I0
ssg10
(dp65
S'water.n.06'
p66
I1
ssg23
(dp67
S'pizza.n.01'
p68
I1
ssg9
(dp69
S'kettle.n.01'
p70
I1
ssg24
(dp71
g25
I1
ssg25
(dp72
g25
I0
sssb.