ccopy_reg
_reconstructor
p0
(cutils.eval
ConfusionMatrix
p1
c__builtin__
object
p2
Ntp3
Rp4
(dp5
S'labels'
p6
(lp7
S'piece.n.08'
p8
aS'slice.n.06'
p9
aS'slice.v.03'
p10
aS'slice.v.04'
p11
aS'onion.n.01'
p12
aS'pepper.n.04'
p13
aS'pepper.n.03'
p14
aS'flesh.n.01'
p15
aS'opening.n.01'
p16
aS'gap.n.05'
p17
aS'fill.v.09'
p18
aS'batter.n.02'
p19
aS'cheese.n.01'
p20
aS'tall_mallow.n.01'
p21
aS'fill.v.01'
p22
aS'pan.n.01'
p23
aS'pan.n.02'
p24
aS'water.n.06'
p25
aS'water.n.03'
p26
aS'meet.v.04'
p27
aS'kettle.n.01'
p28
aS'kettle.n.02'
p29
aS'mug.n.04'
p30
aS'pitcher.n.02'
p31
aS'pitcher.n.05'
p32
aS'milk.n.01'
p33
aS'milk.n.04'
p34
asS'instanceCount'
p35
I23
sS'matrix'
p36
(dp37
g20
(dp38
g21
I1
ssg19
(dp39
S'batter.n.02'
p40
I1
ssg34
(dp41
g34
I0
ssg33
(dp42
g34
I1
ssg23
(dp43
g24
I1
ssg17
(dp44
g17
I0
ssg18
(dp45
S'fill.v.09'
p46
I1
ssg22
(dp47
g27
I1
sS'fill.v.09'
p48
I3
ssg31
(dp49
g32
I1
ssg32
(dp50
g32
I0
ssg10
(dp51
S'slice.v.03'
p52
I1
sg11
I3
ssg11
(dp53
g11
I0
ssg13
(dp54
g14
I1
ssg27
(dp55
g27
I0
ssg14
(dp56
g14
I0
ssg24
(dp57
g24
I0
ssg8
(dp58
g9
I1
ssg21
(dp59
g21
I0
ssg16
(dp60
g17
I1
ssg30
(dp61
S'mug.n.04'
p62
I1
ssg15
(dp63
S'flesh.n.01'
p64
I1
ssg26
(dp65
g26
I0
ssg9
(dp66
g9
I0
ssg25
(dp67
g26
I2
ssg29
(dp68
g29
I0
ssg28
(dp69
g29
I1
ssg12
(dp70
S'onion.n.01'
p71
I1
sssb.