ccopy_reg
_reconstructor
p0
(cutils.eval
ConfusionMatrix
p1
c__builtin__
object
p2
Ntp3
Rp4
(dp5
S'labels'
p6
(lp7
S'cheese.n.01'
p8
aS'slice.v.03'
p9
aS'slice.v.02'
p10
aS'fill.v.01'
p11
aS'fill.v.09'
p12
aS'pan.n.01'
p13
aS'pan.n.03'
p14
aS'water.n.06'
p15
aS'kettle.n.01'
p16
aS'kettle_hole.n.01'
p17
aS'foam.n.01'
p18
aS'mug.n.04'
p19
aS'countenance.n.03'
p20
aS'pitcher.n.02'
p21
aS'pitcher.n.01'
p22
aS'milk.n.01'
p23
aS'milk.n.04'
p24
aS'knife.n.01'
p25
aS'knife.n.02'
p26
aS'banana.n.02'
p27
aS'piece.n.08'
p28
aS'slice.n.06'
p29
aS'pizza.n.01'
p30
aS'onion.n.01'
p31
aS'pepper.n.04'
p32
aS'pepper.n.03'
p33
aS'flesh.n.01'
p34
asS'instanceCount'
p35
I25
sS'matrix'
p36
(dp37
g8
(dp38
S'cheese.n.01'
p39
I1
ssg24
(dp40
g24
I0
ssg18
(dp41
S'foam.n.01'
p42
I1
ssg23
(dp43
g24
I1
ssg13
(dp44
g14
I1
ssg14
(dp45
g14
I0
ssg20
(dp46
g20
I0
ssg12
(dp47
g12
I0
ssg11
(dp48
g12
I4
ssg21
(dp49
g22
I1
ssg22
(dp50
g22
I0
ssg10
(dp51
g10
I0
ssg9
(dp52
g10
I5
ssg25
(dp53
g26
I1
ssg27
(dp54
S'banana.n.02'
p55
I1
ssg26
(dp56
g26
I0
ssg32
(dp57
g33
I1
ssg33
(dp58
g33
I0
ssg28
(dp59
g29
I1
ssg19
(dp60
g20
I1
ssg34
(dp61
S'flesh.n.01'
p62
I1
ssg29
(dp63
g29
I0
ssg15
(dp64
S'water.n.06'
p65
I2
ssg30
(dp66
S'pizza.n.01'
p67
I1
ssg17
(dp68
g17
I0
ssg16
(dp69
g17
I1
ssg31
(dp70
S'onion.n.01'
p71
I1
sssb.