ccopy_reg
_reconstructor
p0
(cutils.eval
ConfusionMatrix
p1
c__builtin__
object
p2
Ntp3
Rp4
(dp5
S'labels'
p6
(lp7
S'fill.v.01'
p8
aS'kettle.n.01'
p9
aS'water.n.06'
p10
aS'fill.v.09'
p11
aS'foam.n.01'
p12
aS'mug.n.04'
p13
aS'chump.n.01'
p14
aS'pitcher.n.02'
p15
aS'milk.n.01'
p16
aS'knife.n.01'
p17
aS'banana.n.02'
p18
aS'slice.v.03'
p19
aS'slice.v.02'
p20
aS'piece.n.08'
p21
aS'slice.n.06'
p22
aS'pizza.n.01'
p23
aS'onion.n.01'
p24
aS'onion.n.02'
p25
aS'pepper.n.04'
p26
aS'flesh.n.01'
p27
aS'opening.n.01'
p28
aS'gap.n.03'
p29
aS'batter.n.02'
p30
aS'cheese.n.01'
p31
aS'pitcher.n.03'
p32
aS'milk.n.04'
p33
aS'tongue.n.03'
p34
aS'banana.n.01'
p35
aS'cut.n.05'
p36
aS'gap.n.01'
p37
aS'batter.n.01'
p38
aS'pan.n.01'
p39
aS'pan.n.04'
p40
aS'body_of_water.n.01'
p41
aS'kettle.n.02'
p42
aS'pepper.n.03'
p43
aS'human_body.n.01'
p44
aS'water_system.n.02'
p45
aS'meet.v.04'
p46
aS'pan.n.03'
p47
aS'pulp.n.02'
p48
aS'water.n.03'
p49
aS'knife.n.02'
p50
aS'gap.n.05'
p51
aS'pan.n.02'
p52
aS'pitcher.n.05'
p53
aS'slice.n.05'
p54
aS'onion.n.03'
p55
aS'pepper.n.01'
p56
aS'slice.v.04'
p57
aS'tall_mallow.n.01'
p58
aS'kettle_hole.n.01'
p59
aS'countenance.n.03'
p60
aS'pitcher.n.01'
p61
asS'instanceCount'
p62
I248
sS'matrix'
p63
(dp64
g31
(dp65
g31
I8
sg54
I0
sg45
I0
sg41
I0
sg57
I0
sg30
I0
sg38
I0
sg33
I0
sg12
I0
sg16
I0
sg39
I0
sg47
I0
sg51
I0
sg29
I0
sg11
I0
sg8
I0
sg32
I0
sg15
I0
sg61
I0
sg53
I0
sg36
I0
sg20
I0
sg19
I0
sg14
I0
sg17
I0
sg35
I0
sg18
I0
sg50
I0
sg26
I0
sg46
I0
sg43
I0
sg40
I0
sg44
I0
sg52
I0
sg21
I0
sg58
I1
sg60
I0
sg28
I0
sg13
I0
sg27
I0
sg49
I0
sg37
I0
sg22
I0
sg10
I0
sg23
I0
sg42
I0
sg59
I0
sg9
I0
sg56
I0
sg55
I0
sg34
I0
sg24
I0
sg48
I0
sg25
I0
ssg54
(dp66
S'cheese.n.01'
p67
I0
sS'batter.n.02'
p68
I0
sS'milk.n.04'
p69
I0
sS'pizza.n.01'
p70
I0
sS'milk.n.01'
p71
I0
sS'pan.n.01'
p72
I0
sg51
I0
sS'fill.v.09'
p73
I0
sS'fill.v.01'
p74
I0
sS'pitcher.n.02'
p75
I0
sg53
I0
sS'slice.v.02'
p76
I0
sS'slice.v.03'
p77
I0
sS'knife.n.01'
p78
I0
sS'banana.n.02'
p79
I0
sS'pepper.n.04'
p80
I0
sS'meet.v.04'
p81
I0
sg52
I0
sS'piece.n.08'
p82
I0
sS'opening.n.01'
p83
I0
sS'mug.n.04'
p84
I0
sS'water.n.03'
p85
I0
sS'water.n.06'
p86
I0
sg54
I0
sS'kettle.n.02'
p87
I0
sS'kettle.n.01'
p88
I0
sg56
I0
sS'tongue.n.03'
p89
I0
sS'onion.n.01'
p90
I0
sg55
I0
ssg45
(dp91
S'cheese.n.01'
p92
I0
sS'batter.n.02'
p93
I0
sS'milk.n.04'
p94
I0
sS'foam.n.01'
p95
I0
sS'milk.n.01'
p96
I0
sS'pan.n.01'
p97
I0
sS'pan.n.04'
p98
I0
sS'gap.n.01'
p99
I0
sS'fill.v.01'
p100
I0
sS'pitcher.n.03'
p101
I0
sS'pitcher.n.02'
p102
I0
sS'slice.v.02'
p103
I0
sS'slice.v.03'
p104
I0
sS'knife.n.01'
p105
I0
sS'banana.n.02'
p106
I0
sS'pepper.n.04'
p107
I0
sg46
I0
sg43
I0
sg44
I0
sS'opening.n.01'
p108
I0
sS'mug.n.04'
p109
I0
sS'flesh.n.01'
p110
I0
sS'fill.v.09'
p111
I0
sg45
I0
sS'water.n.06'
p112
I0
sS'kettle.n.02'
p113
I0
sS'kettle.n.01'
p114
I0
sS'tongue.n.03'
p115
I0
sS'onion.n.01'
p116
I0
sS'onion.n.02'
p117
I0
ssg41
(dp118
S'cheese.n.01'
p119
I0
sg41
I0
sS'batter.n.02'
p120
I0
sg38
I0
sg33
I0
sS'milk.n.01'
p121
I0
sg39
I0
sg40
I0
sS'fill.v.09'
p122
I0
sS'fill.v.01'
p123
I0
sg32
I0
sS'pitcher.n.02'
p124
I0
sg36
I0
sS'slice.v.02'
p125
I0
sS'slice.v.03'
p126
I0
sS'knife.n.01'
p127
I0
sg35
I0
sS'banana.n.02'
p128
I0
sS'pepper.n.04'
p129
I0
sS'piece.n.08'
p130
I0
sS'opening.n.01'
p131
I0
sS'flesh.n.01'
p132
I0
sg37
I0
sS'water.n.06'
p133
I0
sS'pizza.n.01'
p134
I0
sg42
I0
sS'kettle.n.01'
p135
I0
sg34
I0
sS'onion.n.01'
p136
I0
sS'onion.n.02'
p137
I0
ssg57
(dp138
S'cheese.n.01'
p139
I0
sS'batter.n.02'
p140
I0
sS'milk.n.04'
p141
I0
sS'milk.n.01'
p142
I0
sS'pan.n.01'
p143
I0
sS'gap.n.05'
p144
I0
sS'fill.v.09'
p145
I0
sS'fill.v.01'
p146
I0
sS'pitcher.n.02'
p147
I0
sS'pitcher.n.05'
p148
I0
sS'slice.v.03'
p149
I0
sg57
I0
sS'pepper.n.04'
p150
I0
sS'meet.v.04'
p151
I0
sS'pepper.n.03'
p152
I0
sS'pan.n.02'
p153
I0
sS'piece.n.08'
p154
I0
sg58
I0
sS'opening.n.01'
p155
I0
sS'mug.n.04'
p156
I0
sS'flesh.n.01'
p157
I0
sS'water.n.03'
p158
I0
sS'slice.n.06'
p159
I0
sS'water.n.06'
p160
I0
sS'kettle.n.02'
p161
I0
sS'kettle.n.01'
p162
I0
sS'onion.n.01'
p163
I0
ssg30
(dp164
g31
I0
sg54
I0
sg45
I0
sg41
I0
sg57
I0
sg30
I8
sg38
I1
sg33
I0
sg12
I0
sg16
I0
sg39
I0
sg47
I0
sg51
I0
sg29
I0
sg11
I0
sg8
I0
sg32
I0
sg15
I0
sg53
I0
sg36
I0
sg20
I0
sg19
I0
sg14
I0
sg17
I0
sg35
I0
sg18
I0
sg50
I0
sg26
I0
sg46
I0
sg43
I0
sg40
I0
sg44
I0
sg52
I0
sg21
I0
sg58
I0
sg28
I0
sg13
I0
sg27
I0
sg49
I0
sg37
I0
sg22
I0
sg10
I0
sg23
I0
sg42
I0
sg9
I0
sg56
I0
sg55
I0
sg34
I0
sg24
I0
sg48
I0
sg25
I0
ssg38
(dp165
g119
I0
sg41
I0
sg120
I0
sg38
I0
sg33
I0
sg121
I0
sg39
I0
sg40
I0
sg122
I0
sg123
I0
sg32
I0
sg124
I0
sg36
I0
sg125
I0
sg126
I0
sg127
I0
sg35
I0
sg128
I0
sg129
I0
sg130
I0
sg131
I0
sg132
I0
sg37
I0
sg133
I0
sg134
I0
sg42
I0
sg135
I0
sg34
I0
sg136
I0
sg137
I0
ssg33
(dp166
g119
I0
sg54
I0
sS'slice.n.06'
p167
I0
sS'gap.n.03'
p168
I0
sg41
I0
sg57
I0
sg120
I0
sg38
I0
sg33
I0
sg95
I0
sg121
I0
sg39
I0
sS'pan.n.03'
p169
I0
sg51
I0
sg40
I0
sg122
I0
sg123
I0
sg32
I0
sg124
I0
sg61
I0
sg53
I0
sg36
I0
sg125
I0
sg126
I0
sg127
I0
sg35
I0
sg128
I0
sg50
I0
sg129
I0
sg46
I0
sg43
I0
sg44
I0
sg52
I0
sg130
I0
sg58
I0
sg60
I0
sg131
I0
sg109
I0
sg132
I0
sg49
I0
sg37
I0
sg45
I0
sg133
I0
sg134
I0
sg42
I0
sg59
I0
sg135
I0
sg56
I0
sg55
I0
sg34
I0
sg136
I0
sg48
I0
sg137
I0
ssg12
(dp170
g31
I0
sg45
I0
sg30
I0
sg94
I0
sg12
I6
sg16
I0
sg97
I0
sg47
I0
sg29
I0
sg11
I0
sg8
I0
sg101
I0
sg15
I0
sg61
I0
sg20
I0
sg19
I0
sg14
I0
sg17
I0
sg18
I0
sg50
I0
sg26
I0
sg46
I0
sg43
I0
sg98
I0
sg44
I0
sg21
I0
sg60
I0
sg28
I0
sg13
I0
sg27
I0
sg49
I0
sg99
I0
sg22
I0
sg10
I0
sg23
I0
sg113
I0
sg59
I0
sg9
I0
sg115
I0
sg24
I0
sg48
I0
sg25
I0
ssg16
(dp171
g31
I0
sg54
I0
sg45
I0
sg41
I0
sg57
I0
sg30
I0
sg38
I0
sg33
I7
sg12
I0
sg16
I2
sg39
I0
sg169
I0
sg51
I0
sg29
I0
sg11
I0
sg8
I0
sg32
I0
sg15
I0
sg61
I0
sg53
I0
sg36
I0
sg20
I0
sg19
I0
sg14
I0
sg17
I0
sg35
I0
sg18
I0
sg50
I0
sg26
I0
sg46
I0
sg43
I0
sg40
I0
sg44
I0
sg52
I0
sg21
I0
sg58
I0
sg60
I0
sg28
I0
sg13
I0
sg27
I0
sg49
I0
sg37
I0
sg22
I0
sg10
I0
sg23
I0
sg42
I0
sg59
I0
sg9
I0
sg56
I0
sg55
I0
sg34
I0
sg24
I0
sg48
I0
sg25
I0
ssg39
(dp172
g119
I0
sg54
I0
sS'slice.n.06'
p173
I0
sS'gap.n.03'
p174
I0
sg41
I0
sg57
I0
sg120
I0
sg38
I0
sg33
I0
sg95
I0
sg121
I0
sg39
I1
sg47
I3
sg51
I0
sg40
I2
sg122
I0
sg123
I0
sg32
I0
sg124
I0
sg61
I0
sg53
I0
sg36
I0
sg125
I0
sg126
I0
sS'chump.n.01'
p175
I0
sg127
I0
sg35
I0
sg128
I0
sg50
I0
sg129
I0
sg46
I0
sg43
I0
sg44
I0
sg52
I3
sg130
I0
sg58
I0
sg60
I0
sg131
I0
sg109
I0
sg132
I0
sg49
I0
sg37
I0
sg45
I0
sg133
I0
sg134
I0
sg42
I0
sg59
I0
sg135
I0
sg56
I0
sg55
I0
sg34
I0
sg136
I0
sg48
I0
sg137
I0
ssg47
(dp176
S'cheese.n.01'
p177
I0
sS'batter.n.02'
p178
I0
sS'milk.n.04'
p179
I0
sS'foam.n.01'
p180
I0
sS'milk.n.01'
p181
I0
sS'pan.n.01'
p182
I0
sg47
I0
sg174
I0
sS'fill.v.09'
p183
I0
sS'fill.v.01'
p184
I0
sS'pitcher.n.02'
p185
I0
sg61
I0
sS'slice.v.02'
p186
I0
sS'slice.v.03'
p187
I0
sg175
I0
sS'knife.n.01'
p188
I0
sS'banana.n.02'
p189
I0
sg50
I0
sS'pepper.n.04'
p190
I0
sS'meet.v.04'
p191
I0
sS'pepper.n.03'
p192
I0
sS'piece.n.08'
p193
I0
sg60
I0
sS'opening.n.01'
p194
I0
sS'mug.n.04'
p195
I0
sS'flesh.n.01'
p196
I0
sg49
I0
sg173
I0
sS'water.n.06'
p197
I0
sS'pizza.n.01'
p198
I0
sg59
I0
sS'kettle.n.01'
p199
I0
sS'tongue.n.03'
p200
I0
sS'onion.n.01'
p201
I0
sg48
I0
ssg51
(dp202
g67
I0
sg68
I0
sg69
I0
sg70
I0
sg71
I0
sg72
I0
sg51
I0
sg57
I0
sg73
I0
sg74
I0
sg75
I0
sg53
I0
sg76
I0
sg77
I0
sg78
I0
sg79
I0
sg80
I0
sg81
I0
sg152
I0
sS'human_body.n.01'
p203
I0
sg52
I0
sg82
I0
sg58
I0
sg83
I0
sg84
I0
sg157
I0
sg85
I0
sg159
I0
sg86
I0
sg54
I0
sg87
I0
sg88
I0
sg56
I0
sg89
I0
sg90
I0
sg55
I0
ssg29
(dp204
g31
I0
sg30
I0
sg179
I0
sg12
I0
sg16
I0
sg182
I0
sg47
I0
sg29
I0
sg11
I0
sg8
I0
sg15
I0
sg20
I0
sg19
I0
sg14
I0
sg17
I0
sg18
I0
sg50
I0
sg26
I0
sg191
I0
sg192
I0
sg21
I0
sg28
I0
sg13
I0
sg27
I0
sg49
I0
sg22
I0
sg10
I0
sg23
I0
sg9
I0
sg200
I0
sg24
I0
sg48
I0
sg25
I0
ssg11
(dp205
g31
I0
sg54
I0
sg45
I0
sg41
I0
sg57
I0
sg30
I0
sg38
I0
sg33
I0
sg12
I0
sg16
I0
sg39
I0
sg47
I0
sg51
I0
sg29
I0
sg11
I6
sg8
I3
sg32
I0
sg15
I0
sg61
I0
sg53
I0
sg36
I0
sg20
I0
sg19
I0
sg14
I0
sg17
I0
sg35
I0
sg18
I0
sg50
I0
sg26
I0
sg46
I0
sg43
I0
sg40
I0
sg44
I0
sg52
I0
sg21
I0
sg58
I0
sg60
I0
sg28
I0
sg13
I0
sg27
I0
sg49
I0
sg37
I0
sg22
I0
sg10
I0
sg23
I0
sg42
I0
sg59
I0
sg9
I0
sg56
I0
sg55
I0
sg34
I0
sg24
I0
sg48
I0
sg25
I0
ssg8
(dp206
g31
I0
sg54
I0
sg45
I0
sg41
I0
sg57
I0
sg30
I0
sg38
I0
sg33
I0
sg12
I0
sg16
I0
sg39
I0
sg47
I0
sg51
I0
sg29
I0
sg11
I24
sg8
I7
sg32
I0
sg15
I0
sg61
I0
sg53
I0
sg36
I0
sg20
I0
sg19
I0
sg14
I0
sg17
I0
sg35
I0
sg18
I0
sg50
I0
sg26
I0
sg46
I5
sg43
I0
sg40
I0
sg44
I0
sg52
I0
sg21
I0
sg58
I0
sg60
I0
sg28
I0
sg13
I0
sg27
I0
sg49
I0
sg37
I0
sg22
I0
sg10
I0
sg23
I0
sg42
I0
sg59
I0
sg9
I0
sg56
I0
sg55
I0
sg34
I0
sg24
I0
sg48
I0
sg25
I0
ssg32
(dp207
g119
I0
sg41
I0
sg120
I0
sg38
I0
sg33
I0
sg95
I0
sg121
I0
sg39
I0
sg40
I0
sg122
I0
sg123
I0
sg32
I0
sg124
I0
sg36
I0
sg125
I0
sg126
I0
sg127
I0
sg35
I0
sg128
I0
sg129
I0
sg46
I0
sg43
I0
sg44
I0
sg130
I0
sg131
I0
sg109
I0
sg132
I0
sg37
I0
sg45
I0
sg133
I0
sg134
I0
sg42
I0
sg135
I0
sg34
I0
sg136
I0
sg137
I0
ssg15
(dp208
g31
I0
sg54
I0
sg45
I0
sg41
I0
sg57
I0
sg30
I0
sg38
I0
sg33
I0
sg12
I0
sg16
I0
sg39
I0
sg169
I0
sg51
I0
sg29
I0
sg11
I0
sg8
I0
sg32
I2
sg15
I3
sg61
I1
sg53
I3
sg36
I0
sg20
I0
sg19
I0
sg14
I0
sg17
I0
sg35
I0
sg18
I0
sg50
I0
sg26
I0
sg46
I0
sg43
I0
sg40
I0
sg44
I0
sg52
I0
sg21
I0
sg58
I0
sg60
I0
sg28
I0
sg13
I0
sg27
I0
sg49
I0
sg37
I0
sg22
I0
sg10
I0
sg23
I0
sg42
I0
sg59
I0
sg9
I0
sg56
I0
sg55
I0
sg34
I0
sg24
I0
sg48
I0
sg25
I0
ssg61
(dp209
S'cheese.n.01'
p210
I0
sS'milk.n.04'
p211
I0
sS'foam.n.01'
p212
I0
sS'milk.n.01'
p213
I0
sS'pan.n.01'
p214
I0
sS'pan.n.03'
p215
I0
sg60
I0
sS'fill.v.09'
p216
I0
sS'fill.v.01'
p217
I0
sS'pitcher.n.02'
p218
I0
sg61
I0
sS'slice.v.02'
p219
I0
sS'slice.v.03'
p220
I0
sS'knife.n.01'
p221
I0
sS'banana.n.02'
p222
I0
sS'knife.n.02'
p223
I0
sS'pepper.n.04'
p224
I0
sS'pepper.n.03'
p225
I0
sS'piece.n.08'
p226
I0
sS'mug.n.04'
p227
I0
sS'flesh.n.01'
p228
I0
sS'slice.n.06'
p229
I0
sS'water.n.06'
p230
I0
sS'pizza.n.01'
p231
I0
sg59
I0
sS'kettle.n.01'
p232
I0
sS'onion.n.01'
p233
I0
ssg53
(dp234
g67
I0
sg68
I0
sg69
I0
sg70
I0
sg71
I0
sg72
I0
sg51
I0
sg57
I0
sg73
I0
sg74
I0
sg75
I0
sg53
I0
sg76
I0
sg77
I0
sg78
I0
sg79
I0
sg80
I0
sg81
I0
sg152
I0
sg203
I0
sg52
I0
sg82
I0
sg58
I0
sg83
I0
sg84
I0
sg157
I0
sg85
I0
sg159
I0
sg86
I0
sg54
I0
sg87
I0
sg88
I0
sg56
I0
sg89
I0
sg90
I0
sg55
I0
ssg36
(dp235
g119
I0
sg41
I0
sg120
I0
sg38
I0
sg33
I0
sg121
I0
sg39
I0
sg40
I0
sg122
I0
sg123
I0
sg32
I0
sg124
I0
sg36
I0
sg125
I0
sg126
I0
sg127
I0
sg35
I0
sg128
I0
sg129
I0
sg130
I0
sg131
I0
sg132
I0
sg37
I0
sg133
I0
sg134
I0
sg42
I0
sg135
I0
sg34
I0
sg136
I0
sg137
I0
ssg20
(dp236
g31
I0
sg54
I0
sg45
I0
sg41
I0
sg30
I0
sg38
I0
sg33
I0
sg12
I0
sg16
I0
sg39
I0
sg47
I0
sg51
I0
sg29
I0
sg11
I0
sg8
I0
sg32
I0
sg15
I0
sg61
I0
sg53
I0
sg36
I0
sg20
I0
sg19
I0
sg14
I0
sg17
I0
sg35
I0
sg18
I0
sg50
I0
sg26
I0
sg46
I0
sg43
I0
sg40
I0
sg44
I0
sg52
I0
sg21
I0
sg60
I0
sg28
I0
sg13
I0
sg27
I0
sg49
I0
sg37
I0
sg22
I0
sg10
I0
sg23
I0
sg42
I0
sg59
I0
sg9
I0
sg56
I0
sg55
I0
sg34
I0
sg24
I0
sg48
I0
sg25
I0
ssg19
(dp237
g31
I0
sg54
I0
sg45
I0
sg41
I0
sg57
I3
sg30
I0
sg38
I0
sg33
I0
sg12
I0
sg16
I0
sg39
I0
sg47
I0
sg51
I0
sg29
I0
sg11
I0
sg8
I0
sg32
I0
sg15
I0
sg61
I0
sg53
I0
sg36
I0
sg20
I32
sg19
I10
sg14
I0
sg17
I0
sg35
I0
sg18
I0
sg50
I0
sg26
I0
sg46
I0
sg43
I0
sg40
I0
sg44
I0
sg52
I0
sg21
I0
sg58
I0
sg60
I0
sg28
I0
sg13
I0
sg27
I0
sg49
I0
sg37
I0
sg22
I0
sg10
I0
sg23
I0
sg42
I0
sg59
I0
sg9
I0
sg56
I0
sg55
I0
sg34
I0
sg24
I0
sg48
I0
sg25
I0
ssg14
(dp238
g31
I0
sg30
I0
sg12
I0
sg16
I0
sg182
I0
sg47
I0
sg29
I0
sg11
I0
sg8
I0
sg15
I0
sg20
I0
sg19
I0
sg14
I0
sg17
I0
sg18
I0
sg26
I0
sg192
I0
sg21
I0
sg28
I0
sg13
I0
sg27
I0
sg22
I0
sg10
I0
sg23
I0
sg9
I0
sg200
I0
sg24
I0
sg25
I0
ssg17
(dp239
g31
I0
sg54
I0
sg45
I0
sg41
I0
sg30
I0
sg38
I0
sg33
I0
sg12
I0
sg16
I0
sg39
I0
sg47
I0
sg51
I0
sg29
I0
sg11
I0
sg8
I0
sg32
I0
sg15
I0
sg61
I0
sg53
I0
sg36
I0
sg20
I0
sg19
I0
sg14
I0
sg17
I2
sg35
I0
sg18
I0
sg50
I2
sg26
I0
sg46
I0
sg43
I0
sg40
I0
sg44
I0
sg52
I0
sg21
I0
sg60
I0
sg28
I0
sg13
I0
sg27
I0
sg49
I0
sg37
I0
sg22
I0
sg10
I0
sg23
I0
sg42
I0
sg59
I0
sg9
I0
sg56
I0
sg55
I0
sg34
I5
sg24
I0
sg48
I0
sg25
I0
ssg35
(dp240
g119
I0
sg41
I0
sg120
I0
sg38
I0
sg33
I0
sg121
I0
sg39
I0
sg40
I0
sg122
I0
sg123
I0
sg32
I0
sg124
I0
sg36
I0
sg125
I0
sg126
I0
sg127
I0
sg35
I0
sg128
I0
sg129
I0
sg130
I0
sg131
I0
sg132
I0
sg37
I0
sg133
I0
sg134
I0
sg42
I0
sg135
I0
sg34
I0
sg136
I0
sg137
I0
ssg18
(dp241
g31
I0
sg54
I0
sg45
I0
sg41
I0
sg30
I0
sg38
I0
sg33
I0
sg12
I0
sg16
I0
sg39
I0
sg47
I0
sg51
I0
sg29
I0
sg11
I0
sg8
I0
sg32
I0
sg15
I0
sg61
I0
sg53
I0
sg36
I0
sg20
I0
sg19
I0
sg14
I0
sg17
I0
sg35
I1
sg18
I8
sg50
I0
sg26
I0
sg46
I0
sg43
I0
sg40
I0
sg44
I0
sg52
I0
sg21
I0
sg60
I0
sg28
I0
sg13
I0
sg27
I0
sg49
I0
sg37
I0
sg22
I0
sg10
I0
sg23
I0
sg42
I0
sg59
I0
sg9
I0
sg56
I0
sg55
I0
sg34
I0
sg24
I0
sg48
I0
sg25
I0
ssg50
(dp242
S'cheese.n.01'
p243
I0
sS'batter.n.02'
p244
I0
sg179
I0
sS'foam.n.01'
p245
I0
sg181
I0
sS'pan.n.01'
p246
I0
sg169
I0
sg168
I0
sS'fill.v.09'
p247
I0
sS'fill.v.01'
p248
I0
sg185
I0
sg61
I0
sS'slice.v.02'
p249
I0
sS'slice.v.03'
p250
I0
sS'knife.n.01'
p251
I0
sS'banana.n.02'
p252
I0
sg50
I0
sg224
I0
sg191
I0
sg225
I0
sS'piece.n.08'
p253
I0
sg60
I0
sS'opening.n.01'
p254
I0
sS'mug.n.04'
p255
I0
sS'flesh.n.01'
p256
I0
sg49
I0
sg167
I0
sS'water.n.06'
p257
I0
sS'pizza.n.01'
p258
I0
sg59
I0
sS'kettle.n.01'
p259
I0
sg233
I0
sg48
I0
ssg26
(dp260
g31
I0
sg54
I0
sg45
I0
sg41
I0
sg57
I0
sg30
I0
sg38
I0
sg33
I0
sg12
I0
sg16
I0
sg39
I0
sg47
I0
sg51
I0
sg29
I0
sg11
I0
sg8
I0
sg32
I0
sg15
I0
sg61
I0
sg53
I0
sg36
I0
sg20
I0
sg19
I0
sg14
I0
sg17
I0
sg35
I0
sg18
I0
sg223
I0
sg26
I4
sg46
I0
sg43
I4
sg40
I0
sg44
I0
sg52
I0
sg21
I0
sg58
I0
sg60
I0
sg28
I0
sg13
I0
sg27
I0
sg85
I0
sg37
I0
sg22
I0
sg10
I0
sg23
I0
sg42
I0
sg59
I0
sg9
I0
sg56
I1
sg34
I0
sg24
I0
sg55
I0
sg25
I0
ssg46
(dp261
g92
I0
sg54
I0
sg167
I0
sg168
I0
sg57
I0
sg93
I0
sg94
I0
sg95
I0
sg96
I0
sg97
I0
sg169
I0
sg51
I0
sg98
I0
sg99
I0
sg100
I0
sg101
I0
sg102
I0
sg53
I0
sg103
I0
sg104
I0
sg105
I0
sg106
I0
sg50
I0
sg107
I0
sg46
I0
sg43
I0
sg44
I0
sg52
I0
sg253
I0
sg58
I0
sg108
I0
sg109
I0
sg110
I0
sg49
I0
sg111
I0
sg45
I0
sg112
I0
sg258
I0
sg113
I0
sg114
I0
sg56
I0
sg55
I0
sg115
I0
sg116
I0
sg48
I0
sg117
I0
ssg43
(dp262
g92
I0
sg173
I0
sg174
I0
sg57
I0
sg93
I0
sg94
I0
sg95
I0
sg96
I0
sg97
I0
sg47
I0
sg144
I0
sg98
I0
sg99
I0
sg100
I0
sg101
I0
sg102
I0
sg61
I0
sg148
I0
sg103
I0
sg104
I0
sg175
I0
sg105
I0
sg106
I0
sg223
I0
sg107
I0
sg46
I0
sg43
I0
sg44
I0
sg153
I0
sg193
I0
sg58
I0
sg60
I0
sg108
I0
sg109
I0
sg110
I0
sg158
I0
sg111
I0
sg45
I0
sg112
I0
sg198
I0
sg113
I0
sg59
I0
sg114
I0
sg115
I0
sg116
I0
sg117
I0
ssg40
(dp263
g119
I0
sg41
I0
sg120
I0
sg38
I0
sg33
I0
sg95
I0
sg121
I0
sg39
I0
sg40
I0
sg122
I0
sg123
I0
sg32
I0
sg124
I0
sg36
I0
sg125
I0
sg126
I0
sg127
I0
sg35
I0
sg128
I0
sg129
I0
sg46
I0
sg43
I0
sg44
I0
sg130
I0
sg131
I0
sg109
I0
sg132
I0
sg37
I0
sg45
I0
sg133
I0
sg134
I0
sg42
I0
sg135
I0
sg34
I0
sg136
I0
sg137
I0
ssg44
(dp264
g92
I0
sS'slice.n.06'
p265
I0
sg93
I0
sg94
I0
sg95
I0
sg96
I0
sg97
I0
sS'pan.n.02'
p266
I0
sg98
I0
sg99
I0
sg100
I0
sg101
I0
sg102
I0
sS'pitcher.n.05'
p267
I0
sg103
I0
sg104
I0
sg105
I0
sg106
I0
sg107
I0
sg46
I0
sg43
I0
sg44
I0
sS'gap.n.05'
p268
I0
sS'piece.n.08'
p269
I0
sg108
I0
sg109
I0
sg110
I0
sS'water.n.03'
p270
I0
sg111
I0
sg45
I0
sg112
I0
sS'pizza.n.01'
p271
I0
sg113
I0
sg114
I0
sg115
I0
sg116
I0
sS'onion.n.03'
p272
I0
sg117
I0
ssg52
(dp273
g67
I0
sg68
I0
sg69
I0
sg70
I0
sg71
I0
sg72
I0
sg52
I0
sg57
I0
sg73
I0
sg74
I0
sg75
I0
sg53
I0
sg76
I0
sg77
I0
sg78
I0
sg79
I0
sg80
I0
sg81
I0
sg152
I0
sg203
I0
sg51
I0
sg82
I0
sg58
I0
sg83
I0
sg84
I0
sg157
I0
sg85
I0
sg159
I0
sg86
I0
sg54
I0
sg87
I0
sg88
I0
sg56
I0
sg89
I0
sg90
I0
sg55
I0
ssg21
(dp274
g31
I0
sg54
I1
sg41
I0
sg57
I0
sg30
I0
sg38
I0
sg33
I0
sg12
I0
sg16
I0
sg39
I0
sg47
I0
sg51
I0
sg29
I0
sg11
I0
sg8
I0
sg32
I0
sg15
I0
sg61
I0
sg53
I0
sg36
I1
sg20
I0
sg19
I0
sg14
I0
sg17
I0
sg35
I0
sg18
I0
sg50
I0
sg26
I0
sg191
I0
sg192
I0
sg40
I0
sg203
I0
sg52
I0
sg21
I0
sg58
I0
sg60
I0
sg28
I0
sg13
I0
sg27
I0
sg49
I0
sg37
I0
sg22
I7
sg10
I0
sg23
I0
sg42
I0
sg59
I0
sg9
I0
sg56
I0
sg55
I0
sg34
I0
sg24
I0
sg48
I0
sg25
I0
ssg58
(dp275
g139
I0
sg140
I0
sg141
I0
sg142
I0
sg143
I0
sg144
I0
sg145
I0
sg146
I0
sg147
I0
sg148
I0
sg149
I0
sg57
I0
sg150
I0
sg151
I0
sg152
I0
sg153
I0
sg154
I0
sg58
I0
sg155
I0
sg156
I0
sg157
I0
sg158
I0
sg159
I0
sg160
I0
sg161
I0
sg162
I0
sg163
I0
ssg60
(dp276
g210
I0
sg211
I0
sg212
I0
sg213
I0
sg214
I0
sg215
I0
sg60
I0
sg216
I0
sg217
I0
sg218
I0
sg61
I0
sg219
I0
sg220
I0
sg221
I0
sg222
I0
sg223
I0
sg224
I0
sg225
I0
sg226
I0
sg227
I0
sg228
I0
sg229
I0
sg230
I0
sg231
I0
sg59
I0
sg232
I0
sg233
I0
ssg28
(dp277
g31
I0
sg54
I0
sg45
I0
sg41
I0
sg57
I0
sg30
I0
sg38
I0
sg33
I0
sg12
I0
sg16
I0
sg39
I0
sg47
I0
sg51
I3
sg29
I4
sg11
I0
sg8
I0
sg32
I0
sg15
I0
sg53
I0
sg36
I0
sg20
I0
sg19
I0
sg14
I0
sg17
I0
sg35
I0
sg18
I0
sg50
I0
sg26
I0
sg46
I0
sg43
I0
sg40
I0
sg44
I0
sg52
I0
sg21
I0
sg58
I0
sg28
I0
sg13
I0
sg27
I0
sg49
I0
sg37
I2
sg22
I0
sg10
I0
sg23
I0
sg42
I0
sg9
I0
sg56
I0
sg55
I0
sg34
I0
sg24
I0
sg48
I0
sg25
I0
ssg13
(dp278
g31
I0
sg54
I0
sg45
I0
sg57
I0
sg30
I0
sg94
I0
sg12
I0
sg16
I0
sg97
I0
sg47
I0
sg51
I0
sg29
I0
sg11
I0
sg8
I0
sg101
I0
sg15
I0
sg61
I0
sg53
I0
sg20
I0
sg19
I0
sg14
I2
sg17
I0
sg18
I0
sg50
I0
sg26
I0
sg46
I0
sg43
I0
sg98
I0
sg44
I0
sg52
I0
sg21
I0
sg58
I0
sg60
I1
sg28
I0
sg13
I6
sg27
I0
sg49
I0
sg99
I0
sg22
I0
sg10
I0
sg23
I0
sg113
I0
sg59
I0
sg9
I0
sg56
I0
sg55
I0
sg115
I0
sg24
I0
sg48
I0
sg25
I0
ssg27
(dp279
g31
I0
sg45
I0
sg41
I0
sg57
I0
sg30
I0
sg38
I0
sg33
I0
sg12
I0
sg16
I0
sg39
I0
sg47
I0
sg144
I0
sg29
I0
sg11
I0
sg8
I0
sg32
I0
sg15
I0
sg61
I0
sg148
I0
sg36
I0
sg20
I0
sg19
I0
sg14
I0
sg17
I0
sg35
I0
sg18
I0
sg50
I0
sg26
I0
sg46
I0
sg43
I0
sg40
I0
sg44
I2
sg153
I0
sg21
I0
sg58
I0
sg60
I0
sg28
I0
sg13
I0
sg27
I6
sg49
I0
sg37
I0
sg22
I0
sg10
I0
sg23
I0
sg42
I0
sg59
I0
sg9
I0
sg272
I0
sg34
I0
sg24
I0
sg48
I1
sg25
I0
ssg49
(dp280
g243
I0
sg54
I0
sg57
I0
sg244
I0
sg179
I0
sg245
I0
sg181
I0
sg246
I0
sg169
I0
sg51
I0
sg168
I0
sg247
I0
sg248
I0
sg185
I0
sg53
I0
sg249
I0
sg250
I0
sg251
I0
sg252
I0
sg50
I0
sg80
I0
sg191
I0
sg152
I0
sg203
I0
sg52
I0
sg253
I0
sg58
I0
sg254
I0
sg255
I0
sg256
I0
sg49
I0
sg167
I0
sg257
I0
sg258
I0
sg87
I0
sg259
I0
sg56
I0
sg55
I0
sg89
I0
sg90
I0
sg48
I0
ssg37
(dp281
g119
I0
sg41
I0
sg120
I0
sg38
I0
sg33
I0
sg95
I0
sg121
I0
sg39
I0
sg40
I0
sg122
I0
sg123
I0
sg32
I0
sg124
I0
sg36
I0
sg125
I0
sg126
I0
sg127
I0
sg35
I0
sg128
I0
sg129
I0
sg46
I0
sg43
I0
sg44
I0
sg130
I0
sg131
I0
sg109
I0
sg132
I0
sg37
I0
sg45
I0
sg133
I0
sg134
I0
sg42
I0
sg135
I0
sg34
I0
sg136
I0
sg137
I0
ssg22
(dp282
g31
I0
sg57
I0
sg30
I0
sg179
I0
sg12
I0
sg16
I0
sg182
I0
sg47
I0
sg144
I0
sg29
I0
sg11
I0
sg8
I0
sg15
I0
sg61
I0
sg148
I0
sg20
I0
sg19
I0
sg14
I0
sg17
I0
sg18
I0
sg50
I0
sg26
I0
sg191
I0
sg192
I0
sg203
I0
sg153
I0
sg21
I0
sg58
I0
sg60
I0
sg28
I0
sg13
I0
sg27
I0
sg49
I0
sg22
I0
sg10
I0
sg23
I0
sg161
I0
sg59
I0
sg9
I0
sg272
I0
sg200
I0
sg24
I0
sg48
I0
sg25
I0
ssg10
(dp283
g31
I0
sg54
I0
sg45
I1
sg41
I2
sg57
I0
sg30
I0
sg38
I0
sg33
I0
sg12
I0
sg16
I0
sg39
I0
sg47
I0
sg51
I0
sg29
I0
sg11
I0
sg8
I0
sg32
I0
sg15
I0
sg61
I0
sg53
I0
sg36
I0
sg20
I0
sg19
I0
sg14
I0
sg17
I0
sg35
I0
sg18
I0
sg50
I0
sg26
I0
sg46
I0
sg43
I0
sg40
I0
sg44
I0
sg52
I0
sg21
I0
sg58
I0
sg60
I0
sg28
I0
sg13
I0
sg27
I0
sg49
I8
sg37
I0
sg22
I0
sg10
I7
sg23
I0
sg42
I0
sg59
I0
sg9
I0
sg56
I0
sg55
I0
sg34
I0
sg24
I0
sg48
I0
sg25
I0
ssg23
(dp284
g31
I0
sg54
I0
sg41
I0
sg30
I0
sg38
I0
sg33
I0
sg12
I0
sg16
I0
sg39
I0
sg47
I0
sg51
I0
sg29
I0
sg11
I0
sg8
I0
sg32
I0
sg15
I0
sg61
I0
sg53
I0
sg36
I0
sg20
I0
sg19
I0
sg14
I0
sg17
I0
sg35
I0
sg18
I0
sg50
I0
sg26
I0
sg191
I0
sg192
I0
sg40
I0
sg203
I0
sg52
I0
sg21
I0
sg60
I0
sg28
I0
sg13
I0
sg27
I0
sg49
I0
sg37
I0
sg22
I0
sg10
I0
sg23
I8
sg42
I0
sg59
I0
sg9
I0
sg56
I0
sg55
I0
sg34
I0
sg24
I0
sg48
I0
sg25
I0
ssg42
(dp285
g119
I0
sg54
I0
sg159
I0
sg41
I0
sg57
I0
sg120
I0
sg38
I0
sg33
I0
sg95
I0
sg121
I0
sg39
I0
sg51
I0
sg40
I0
sg122
I0
sg123
I0
sg32
I0
sg124
I0
sg53
I0
sg36
I0
sg125
I0
sg126
I0
sg127
I0
sg35
I0
sg128
I0
sg129
I0
sg46
I0
sg43
I0
sg44
I0
sg52
I0
sg130
I0
sg58
I0
sg131
I0
sg109
I0
sg132
I0
sg85
I0
sg37
I0
sg45
I0
sg133
I0
sg134
I0
sg42
I0
sg135
I0
sg56
I0
sg34
I0
sg136
I0
sg55
I0
sg137
I0
ssg59
(dp286
g210
I0
sg211
I0
sg212
I0
sg213
I0
sg214
I0
sg215
I0
sg60
I0
sg216
I0
sg217
I0
sg218
I0
sg61
I0
sg219
I0
sg220
I0
sg221
I0
sg222
I0
sg223
I0
sg224
I0
sg225
I0
sg226
I0
sg227
I0
sg228
I0
sg229
I0
sg230
I0
sg231
I0
sg59
I0
sg232
I0
sg233
I0
ssg9
(dp287
g31
I0
sg54
I0
sg45
I0
sg41
I0
sg57
I0
sg30
I0
sg38
I0
sg33
I0
sg12
I0
sg16
I0
sg39
I0
sg47
I0
sg51
I0
sg29
I0
sg11
I0
sg8
I0
sg32
I0
sg15
I0
sg61
I0
sg53
I0
sg36
I0
sg20
I0
sg19
I0
sg14
I0
sg17
I0
sg35
I0
sg18
I0
sg50
I0
sg26
I0
sg46
I0
sg43
I0
sg40
I0
sg44
I0
sg52
I0
sg21
I0
sg58
I0
sg60
I0
sg28
I0
sg13
I0
sg27
I0
sg49
I0
sg37
I0
sg22
I0
sg10
I0
sg23
I0
sg42
I5
sg59
I1
sg9
I3
sg56
I0
sg55
I0
sg34
I0
sg24
I0
sg48
I0
sg25
I0
ssg56
(dp288
g67
I0
sg68
I0
sg69
I0
sg70
I0
sg71
I0
sg72
I0
sg51
I0
sg73
I0
sg74
I0
sg75
I0
sg53
I0
sg80
I0
sg76
I0
sg77
I0
sg78
I0
sg79
I0
sg56
I0
sg81
I0
sg52
I0
sg82
I0
sg83
I0
sg84
I0
sg85
I0
sg86
I0
sg54
I0
sg87
I0
sg88
I0
sg89
I0
sg90
I0
sg55
I0
ssg55
(dp289
g67
I0
sg68
I0
sg69
I0
sg70
I0
sg71
I0
sg72
I0
sg51
I0
sg73
I0
sg74
I0
sg75
I0
sg53
I0
sg76
I0
sg77
I0
sg78
I0
sg79
I0
sg80
I0
sg81
I0
sg203
I0
sg52
I0
sg82
I0
sg83
I0
sg84
I0
sS'flesh.n.01'
p290
I0
sg85
I0
sg265
I0
sg86
I0
sg54
I0
sg87
I0
sg88
I0
sg56
I0
sg89
I0
sg90
I0
sg55
I0
ssg34
(dp291
g119
I0
sg54
I0
sg173
I0
sg174
I0
sg41
I0
sg120
I0
sg38
I0
sg33
I0
sg95
I0
sg121
I0
sg39
I0
sg47
I0
sg51
I0
sg40
I0
sg122
I0
sg123
I0
sg32
I0
sg124
I0
sg53
I0
sg36
I0
sg125
I0
sg126
I0
sg175
I0
sg127
I0
sg35
I0
sg128
I0
sg129
I0
sg46
I0
sg43
I0
sg44
I0
sg52
I0
sg130
I0
sg131
I0
sg109
I0
sg132
I0
sg85
I0
sg37
I0
sg45
I0
sg133
I0
sg134
I0
sg42
I0
sg135
I0
sg56
I0
sg34
I0
sg136
I0
sg55
I0
sg137
I0
ssg24
(dp292
g31
I0
sg54
I0
sg45
I0
sg41
I0
sg57
I0
sg30
I0
sg38
I0
sg33
I0
sg12
I0
sg16
I0
sg39
I0
sg47
I0
sg51
I0
sg29
I0
sg11
I0
sg8
I0
sg32
I0
sg15
I0
sg61
I0
sg53
I0
sg36
I0
sg20
I0
sg19
I0
sg14
I0
sg17
I0
sg35
I0
sg18
I0
sg223
I0
sg26
I0
sg46
I0
sg43
I0
sg40
I0
sg44
I0
sg52
I0
sg21
I0
sg58
I0
sg60
I0
sg28
I0
sg13
I0
sg27
I0
sg85
I0
sg37
I0
sg22
I0
sg10
I0
sg23
I0
sg42
I0
sg59
I0
sg9
I0
sg56
I0
sg34
I0
sg24
I4
sg55
I2
sg25
I3
ssg48
(dp293
g243
I0
sg244
I0
sg179
I0
sg245
I0
sg181
I0
sg246
I0
sg169
I0
sg168
I0
sg247
I0
sg248
I0
sg185
I0
sg249
I0
sg250
I0
sg251
I0
sg252
I0
sg50
I0
sg191
I0
sg253
I0
sg254
I0
sg255
I0
sg256
I0
sg49
I0
sg167
I0
sg257
I0
sg258
I0
sg259
I0
sg48
I0
ssg25
(dp294
g31
I0
sg45
I0
sg41
I0
sg30
I0
sg38
I0
sg33
I0
sg12
I0
sg16
I0
sg39
I0
sg29
I0
sg11
I0
sg8
I0
sg32
I0
sg15
I0
sg36
I0
sg20
I0
sg19
I0
sg14
I0
sg17
I0
sg35
I0
sg18
I0
sg26
I0
sg46
I0
sg43
I0
sg40
I0
sg44
I0
sg21
I0
sg28
I0
sg13
I0
sg27
I0
sg37
I0
sg22
I0
sg10
I0
sg23
I0
sg42
I0
sg9
I0
sg34
I0
sg24
I0
sg25
I0
sssb.