ccopy_reg
_reconstructor
p0
(cutils.eval
ConfusionMatrix
p1
c__builtin__
object
p2
Ntp3
Rp4
(dp5
S'labels'
p6
(lp7
S'opening.n.01'
p8
aS'gap.n.05'
p9
aS'fill.v.09'
p10
aS'batter.n.02'
p11
aS'cheese.n.01'
p12
aS'slice.v.03'
p13
aS'slice.v.02'
p14
aS'fill.v.01'
p15
aS'pan.n.01'
p16
aS'pan.n.02'
p17
aS'water.n.06'
p18
aS'water.n.03'
p19
aS'meet.v.04'
p20
aS'kettle.n.01'
p21
aS'kettle.n.02'
p22
aS'mug.n.04'
p23
aS'pitcher.n.02'
p24
aS'pitcher.n.05'
p25
aS'milk.n.01'
p26
aS'milk.n.04'
p27
aS'knife.n.01'
p28
aS'tongue.n.03'
p29
aS'banana.n.02'
p30
aS'piece.n.08'
p31
aS'slice.n.05'
p32
aS'pizza.n.01'
p33
aS'onion.n.01'
p34
aS'onion.n.03'
p35
aS'pepper.n.04'
p36
aS'pepper.n.01'
p37
asS'instanceCount'
p38
I25
sS'matrix'
p39
(dp40
g12
(dp41
S'cheese.n.01'
p42
I1
ssg11
(dp43
S'batter.n.02'
p44
I1
ssg27
(dp45
g27
I0
ssg33
(dp46
S'pizza.n.01'
p47
I1
ssg26
(dp48
g27
I1
ssg16
(dp49
g17
I1
ssg9
(dp50
g9
I0
ssg10
(dp51
S'fill.v.09'
p52
I1
ssg15
(dp53
g20
I1
sS'fill.v.09'
p54
I3
ssg24
(dp55
g25
I1
ssg25
(dp56
g25
I0
ssg14
(dp57
g14
I0
ssg13
(dp58
g14
I3
sS'slice.v.03'
p59
I1
ssg28
(dp60
g29
I1
ssg30
(dp61
S'banana.n.02'
p62
I1
ssg36
(dp63
g37
I1
ssg20
(dp64
g20
I0
ssg17
(dp65
g17
I0
ssg31
(dp66
g32
I1
ssg8
(dp67
g9
I1
ssg23
(dp68
S'mug.n.04'
p69
I1
ssg19
(dp70
g19
I0
ssg18
(dp71
g19
I2
ssg32
(dp72
g32
I0
ssg22
(dp73
g22
I0
ssg21
(dp74
g22
I1
ssg37
(dp75
g37
I0
ssg29
(dp76
g29
I0
ssg34
(dp77
g35
I1
ssg35
(dp78
g35
I0
sssb.