ccopy_reg
_reconstructor
p0
(cutils.eval
ConfusionMatrix
p1
c__builtin__
object
p2
Ntp3
Rp4
(dp5
S'labels'
p6
(lp7
S'fill.v.01'
p8
aS'fill.v.09'
p9
aS'pitcher.n.02'
p10
aS'pitcher.n.03'
p11
aS'milk.n.01'
p12
aS'milk.n.04'
p13
aS'knife.n.01'
p14
aS'tongue.n.03'
p15
aS'banana.n.02'
p16
aS'banana.n.01'
p17
aS'slice.v.03'
p18
aS'slice.v.02'
p19
aS'piece.n.08'
p20
aS'cut.n.05'
p21
aS'pizza.n.01'
p22
aS'onion.n.01'
p23
aS'onion.n.02'
p24
aS'pepper.n.04'
p25
aS'flesh.n.01'
p26
aS'opening.n.01'
p27
aS'gap.n.01'
p28
aS'batter.n.02'
p29
aS'batter.n.01'
p30
aS'cheese.n.01'
p31
aS'pan.n.01'
p32
aS'pan.n.04'
p33
aS'water.n.06'
p34
aS'body_of_water.n.01'
p35
aS'kettle.n.01'
p36
aS'kettle.n.02'
p37
asS'instanceCount'
p38
I25
sS'matrix'
p39
(dp40
g31
(dp41
S'cheese.n.01'
p42
I1
ssg35
(dp43
g35
I0
ssg29
(dp44
g30
I1
ssg30
(dp45
g30
I0
ssg13
(dp46
g13
I0
ssg12
(dp47
g13
I1
ssg32
(dp48
g33
I1
ssg33
(dp49
g33
I0
ssg9
(dp50
g9
I1
ssg8
(dp51
g9
I3
ssg11
(dp52
g11
I0
ssg10
(dp53
g11
I1
ssg21
(dp54
g21
I0
ssg19
(dp55
g19
I0
ssg18
(dp56
g19
I5
ssg14
(dp57
g15
I1
ssg17
(dp58
g17
I0
ssg16
(dp59
g17
I1
ssg25
(dp60
S'pepper.n.04'
p61
I1
ssg20
(dp62
g21
I1
ssg27
(dp63
g28
I1
ssg26
(dp64
S'flesh.n.01'
p65
I1
ssg28
(dp66
g28
I0
ssg34
(dp67
g35
I2
ssg22
(dp68
S'pizza.n.01'
p69
I1
ssg37
(dp70
g37
I0
ssg36
(dp71
g37
I1
ssg15
(dp72
g15
I0
ssg23
(dp73
g24
I1
ssg24
(dp74
g24
I0
sssb.