ccopy_reg
_reconstructor
p0
(cutils.eval
ConfusionMatrix
p1
c__builtin__
object
p2
Ntp3
Rp4
(dp5
S'labels'
p6
(lp7
S'flesh.n.01'
p8
aS'pulp.n.02'
p9
aS'slice.v.03'
p10
aS'opening.n.01'
p11
aS'gap.n.03'
p12
aS'fill.v.09'
p13
aS'batter.n.02'
p14
aS'cheese.n.01'
p15
aS'fill.v.01'
p16
aS'pan.n.01'
p17
aS'pan.n.03'
p18
aS'water.n.06'
p19
aS'water.n.03'
p20
aS'meet.v.04'
p21
aS'kettle.n.01'
p22
aS'foam.n.01'
p23
aS'mug.n.04'
p24
aS'pitcher.n.02'
p25
aS'milk.n.01'
p26
aS'milk.n.04'
p27
aS'knife.n.01'
p28
aS'knife.n.02'
p29
aS'banana.n.02'
p30
aS'piece.n.08'
p31
aS'slice.n.06'
p32
aS'pizza.n.01'
p33
aS'slice.v.02'
p34
asS'instanceCount'
p35
I25
sS'matrix'
p36
(dp37
g15
(dp38
S'cheese.n.01'
p39
I1
ssg14
(dp40
S'batter.n.02'
p41
I1
ssg27
(dp42
g27
I0
ssg23
(dp43
S'foam.n.01'
p44
I1
ssg26
(dp45
g27
I1
ssg17
(dp46
g18
I1
ssg18
(dp47
g18
I0
ssg12
(dp48
g12
I0
ssg13
(dp49
S'fill.v.09'
p50
I1
ssg16
(dp51
g21
I1
sS'fill.v.09'
p52
I3
ssg25
(dp53
S'pitcher.n.02'
p54
I1
ssg34
(dp55
g34
I0
ssg10
(dp56
g34
I1
sS'slice.v.03'
p57
I3
ssg28
(dp58
g29
I1
ssg30
(dp59
S'banana.n.02'
p60
I1
ssg29
(dp61
g29
I0
ssg21
(dp62
g21
I0
ssg31
(dp63
g32
I1
ssg11
(dp64
g12
I1
ssg24
(dp65
S'mug.n.04'
p66
I1
ssg8
(dp67
g9
I1
ssg20
(dp68
g20
I0
ssg32
(dp69
g32
I0
ssg19
(dp70
g20
I2
ssg33
(dp71
S'pizza.n.01'
p72
I1
ssg22
(dp73
S'kettle.n.01'
p74
I1
ssg9
(dp75
g9
I0
sssb.