ccopy_reg
_reconstructor
p0
(cutils.eval
ConfusionMatrix
p1
c__builtin__
object
p2
Ntp3
Rp4
(dp5
S'labels'
p6
(lp7
S'slice.v.03'
p8
aS'onion.n.01'
p9
aS'onion.n.02'
p10
aS'pepper.n.04'
p11
aS'pepper.n.03'
p12
aS'flesh.n.01'
p13
aS'human_body.n.01'
p14
aS'slice.v.02'
p15
aS'opening.n.01'
p16
aS'gap.n.01'
p17
aS'fill.v.09'
p18
aS'batter.n.02'
p19
aS'cheese.n.01'
p20
aS'fill.v.01'
p21
aS'pan.n.01'
p22
aS'pan.n.04'
p23
aS'water.n.06'
p24
aS'water_system.n.02'
p25
aS'meet.v.04'
p26
aS'kettle.n.01'
p27
aS'kettle.n.02'
p28
aS'foam.n.01'
p29
aS'mug.n.04'
p30
aS'pitcher.n.02'
p31
aS'pitcher.n.03'
p32
aS'milk.n.01'
p33
aS'milk.n.04'
p34
aS'knife.n.01'
p35
aS'tongue.n.03'
p36
aS'banana.n.02'
p37
asS'instanceCount'
p38
I25
sS'matrix'
p39
(dp40
g20
(dp41
S'cheese.n.01'
p42
I1
ssg19
(dp43
S'batter.n.02'
p44
I1
ssg34
(dp45
g34
I0
ssg29
(dp46
S'foam.n.01'
p47
I1
ssg33
(dp48
g34
I1
ssg22
(dp49
g23
I1
ssg23
(dp50
g23
I0
ssg17
(dp51
g17
I0
ssg21
(dp52
g26
I1
sS'fill.v.09'
p53
I3
ssg32
(dp54
g32
I0
ssg31
(dp55
g32
I1
ssg15
(dp56
g15
I0
ssg8
(dp57
g15
I2
sS'slice.v.03'
p58
I2
ssg35
(dp59
g36
I1
ssg37
(dp60
S'banana.n.02'
p61
I1
ssg11
(dp62
g12
I1
ssg26
(dp63
g26
I0
ssg12
(dp64
g12
I0
ssg14
(dp65
g14
I0
ssg16
(dp66
g17
I1
ssg30
(dp67
S'mug.n.04'
p68
I1
ssg13
(dp69
g14
I1
ssg18
(dp70
S'fill.v.09'
p71
I1
ssg25
(dp72
g25
I0
ssg24
(dp73
g25
I1
sS'water.n.06'
p74
I1
ssg28
(dp75
g28
I0
ssg27
(dp76
g28
I1
ssg36
(dp77
g36
I0
ssg9
(dp78
g10
I1
ssg10
(dp79
g10
I0
sssb.