ccopy_reg
_reconstructor
p0
(cutils.eval
ConfusionMatrix
p1
c__builtin__
object
p2
Ntp3
Rp4
(dp5
S'labels'
p6
(lp7
S'knife.n.01'
p8
aS'tongue.n.03'
p9
aS'banana.n.02'
p10
aS'slice.v.03'
p11
aS'slice.v.02'
p12
aS'piece.n.08'
p13
aS'slice.n.06'
p14
aS'pizza.n.01'
p15
aS'onion.n.01'
p16
aS'pepper.n.04'
p17
aS'pepper.n.03'
p18
aS'flesh.n.01'
p19
aS'opening.n.01'
p20
aS'gap.n.03'
p21
aS'fill.v.09'
p22
aS'fill.v.01'
p23
aS'batter.n.02'
p24
aS'cheese.n.01'
p25
aS'pan.n.01'
p26
aS'pan.n.03'
p27
aS'water.n.06'
p28
aS'kettle.n.01'
p29
aS'foam.n.01'
p30
aS'mug.n.04'
p31
aS'chump.n.01'
p32
asS'instanceCount'
p33
I25
sS'matrix'
p34
(dp35
g25
(dp36
S'cheese.n.01'
p37
I1
ssg24
(dp38
S'batter.n.02'
p39
I1
ssg30
(dp40
S'foam.n.01'
p41
I1
ssg26
(dp42
g27
I1
ssg27
(dp43
g27
I0
ssg21
(dp44
g21
I0
ssg22
(dp45
g23
I1
ssg23
(dp46
S'fill.v.09'
p47
I1
sg23
I2
ssg12
(dp48
g12
I0
ssg11
(dp49
g12
I5
ssg32
(dp50
g32
I0
ssg8
(dp51
g9
I1
ssg10
(dp52
S'banana.n.02'
p53
I1
ssg17
(dp54
g18
I1
ssg18
(dp55
g18
I0
ssg13
(dp56
g14
I1
ssg20
(dp57
g21
I1
ssg31
(dp58
g32
I1
ssg19
(dp59
S'flesh.n.01'
p60
I1
ssg14
(dp61
g14
I0
ssg28
(dp62
S'water.n.06'
p63
I2
ssg15
(dp64
S'pizza.n.01'
p65
I1
ssg29
(dp66
S'kettle.n.01'
p67
I1
ssg9
(dp68
g9
I0
ssg16
(dp69
S'onion.n.01'
p70
I1
sssb.