ccopy_reg
_reconstructor
p0
(cutils.eval
ConfusionMatrix
p1
c__builtin__
object
p2
Ntp3
Rp4
(dp5
S'labels'
p6
(lp7
S'fill.v.01'
p8
aS'foam.n.01'
p9
aS'mug.n.04'
p10
aS'pitcher.n.02'
p11
aS'milk.n.01'
p12
aS'knife.n.01'
p13
aS'tongue.n.03'
p14
aS'banana.n.02'
p15
aS'slice.v.03'
p16
aS'slice.v.02'
p17
aS'piece.n.08'
p18
aS'slice.n.06'
p19
aS'pizza.n.01'
p20
aS'onion.n.01'
p21
aS'pepper.n.04'
p22
aS'flesh.n.01'
p23
aS'opening.n.01'
p24
aS'gap.n.03'
p25
aS'fill.v.09'
p26
aS'batter.n.02'
p27
aS'cheese.n.01'
p28
aS'pan.n.01'
p29
aS'water.n.06'
p30
asS'instanceCount'
p31
I25
sS'matrix'
p32
(dp33
g28
(dp34
S'cheese.n.01'
p35
I1
ssg27
(dp36
S'batter.n.02'
p37
I1
ssg9
(dp38
S'foam.n.01'
p39
I1
ssg12
(dp40
S'milk.n.01'
p41
I1
ssg29
(dp42
S'pan.n.01'
p43
I1
ssg25
(dp44
g25
I0
ssg26
(dp45
S'fill.v.01'
p46
I1
ssg8
(dp47
S'fill.v.01'
p48
I3
ssg11
(dp49
S'pitcher.n.02'
p50
I1
ssg17
(dp51
g17
I0
ssg16
(dp52
g17
I5
ssg13
(dp53
g14
I1
ssg15
(dp54
S'banana.n.02'
p55
I1
ssg22
(dp56
S'pepper.n.04'
p57
I1
ssg18
(dp58
g19
I1
ssg24
(dp59
g25
I1
ssg10
(dp60
S'mug.n.04'
p61
I1
ssg23
(dp62
S'flesh.n.01'
p63
I1
ssg19
(dp64
g19
I0
ssg30
(dp65
S'water.n.06'
p66
I1
ssg20
(dp67
S'pizza.n.01'
p68
I1
ssg14
(dp69
g14
I0
ssg21
(dp70
S'onion.n.01'
p71
I1
sssb.