ccopy_reg
_reconstructor
p0
(cutils.eval
ConfusionMatrix
p1
c__builtin__
object
p2
Ntp3
Rp4
(dp5
S'labels'
p6
(lp7
S'stir.v.08'
p8
aS'peanut.n.04'
p9
aS'peanut.n.03'
p10
aS'apple.n.01'
p11
asS'instanceCount'
p12
I4
sS'matrix'
p13
(dp14
g11
(dp15
S'apple.n.01'
p16
I1
ssg8
(dp17
S'stir.v.08'
p18
I2
ssg9
(dp19
g10
I1
ssg10
(dp20
g10
I0
sssb.