ccopy_reg
_reconstructor
p0
(cutils.eval
ConfusionMatrix
p1
c__builtin__
object
p2
Ntp3
Rp4
(dp5
S'labels'
p6
(lp7
S'put.v.01'
p8
aS'pepper.n.03'
p9
aS'pepper.n.04'
p10
aS'salt.n.02'
p11
aS'egg.n.02'
p12
aS'egg.n.01'
p13
aS'coca_cola.n.01'
p14
aS'coke.n.01'
p15
aS'electric_refrigerator.n.01'
p16
aS'blender.n.01'
p17
aS'banana.n.02'
p18
aS'spread.n.05'
p19
aS'bread.n.01'
p20
aS'bowl.n.01'
p21
aS'bowl.n.03'
p22
aS'cherry.n.03'
p23
aS'soup.n.01'
p24
aS'microwave.n.02'
p25
aS'french_fries.n.01'
p26
aS'bowl.n.08'
p27
aS'rice.n.01'
p28
aS'steak.n.01'
p29
aS'oven.n.01'
p30
aS'pan.n.03'
p31
aS'pizza.n.01'
p32
aS'dish.n.02'
p33
aS'dressing.n.01'
p34
aS'dressing.n.04'
p35
aS'salad.n.01'
p36
aS'cake.n.03'
p37
aS'patty.n.01'
p38
aS'whipped_cream.n.01'
p39
aS'jam.n.01'
p40
aS'refrigerator.n.01'
p41
aS'onion.n.01'
p42
aS'onion.n.03'
p43
aS'beef.n.02'
p44
aS'gripe.n.01'
p45
aS'plate.n.04'
p46
aS'plate.n.13'
p47
aS'spoon.n.01'
p48
aS'batter.n.02'
p49
aS'rib.n.03'
p50
aS'rib.n.01'
p51
aS'mug.n.04'
p52
aS'countenance.n.03'
p53
aS'salmon.n.03'
p54
aS'chicken.n.01'
p55
aS'capsicum.n.01'
p56
aS'salt.n.04'
p57
asS'instanceCount'
p58
I122
sS'matrix'
p59
(dp60
g15
(dp61
g15
I0
sg11
I0
sS'plate.n.13'
p62
I0
sg20
I0
sg18
I0
sg17
I0
sS'plate.n.04'
p63
I0
sg10
I0
sg13
I0
sg57
I0
sS'pan.n.03'
p64
I0
sg9
I0
sg16
I0
sg56
I0
sg19
I0
sg8
I0
sg12
I0
sg55
I0
sg14
I0
sg54
I0
ssg47
(dp65
g47
I0
sS'coke.n.01'
p66
I0
sg55
I0
sg44
I0
sS'dish.n.02'
p67
I0
sS'coca_cola.n.01'
p68
I0
sg54
I0
sg64
I0
sS'microwave.n.02'
p69
I0
sS'egg.n.02'
p70
I0
sS'electric_refrigerator.n.01'
p71
I0
sg48
I0
sg50
I0
sS'salt.n.02'
p72
I0
sg53
I0
sg57
I0
sg46
I0
sg51
I0
sg45
I0
sS'oven.n.01'
p73
I0
sS'pepper.n.03'
p74
I0
sg56
I0
sg52
I0
sS'salad.n.01'
p75
I0
sS'dressing.n.04'
p76
I0
sS'put.v.01'
p77
I0
sS'dressing.n.01'
p78
I0
sg42
I0
sg43
I0
sg49
I0
ssg40
(dp79
S'pizza.n.01'
p80
I0
sS'pan.n.03'
p81
I0
sS'rice.n.01'
p82
I0
sg40
I2
sg41
I0
sS'put.v.01'
p83
I0
sg38
I0
sS'bowl.n.01'
p84
I0
sg39
I0
sg37
I0
sS'french_fries.n.01'
p85
I0
sS'oven.n.01'
p86
I0
sS'steak.n.01'
p87
I0
sS'bowl.n.08'
p88
I0
ssg55
(dp89
g62
I0
sS'salt.n.02'
p90
I0
sg64
I0
sg55
I2
sS'countenance.n.03'
p91
I0
sg57
I0
sg63
I0
sg70
I0
sg66
I0
sS'microwave.n.02'
p92
I0
sS'rib.n.03'
p93
I0
sS'put.v.01'
p94
I0
sg71
I0
sg56
I0
sg74
I0
sg68
I0
sg54
I0
sS'rib.n.01'
p95
I0
sS'mug.n.04'
p96
I0
ssg44
(dp97
g47
I0
sg48
I0
sg53
I0
sg44
I0
sg46
I0
sg42
I0
sg76
I0
sg69
I0
sg77
I0
sg78
I0
sg45
I2
sg50
I0
sg73
I0
sg67
I0
sg72
I0
sg52
I0
sg75
I0
sg51
I0
sg43
I0
sg49
I0
ssg24
(dp98
g27
I0
sS'bread.n.01'
p99
I0
sS'banana.n.02'
p100
I0
sg25
I0
sg24
I2
sg28
I0
sS'put.v.01'
p101
I0
sS'spread.n.05'
p102
I0
sg22
I0
sg21
I0
sg26
I0
sg23
I0
sS'blender.n.01'
p103
I0
ssg41
(dp104
g80
I0
sg81
I0
sg40
I0
sg82
I0
sg41
I2
sg83
I0
sg38
I0
sg84
I0
sg39
I0
sg37
I0
sg85
I0
sg86
I0
sg87
I0
sg88
I0
ssg20
(dp105
g15
I0
sg11
I0
sS'cherry.n.03'
p106
I0
sg18
I0
sg17
I0
sg10
I0
sg13
I0
sS'microwave.n.02'
p107
I0
sS'bowl.n.01'
p108
I0
sg9
I0
sg20
I2
sS'bowl.n.03'
p109
I0
sg16
I0
sg19
I0
sS'soup.n.01'
p110
I0
sg8
I0
sg12
I0
sg14
I0
ssg22
(dp111
g27
I0
sg99
I0
sg100
I0
sg25
I0
sg24
I0
sg28
I0
sg101
I0
sg102
I0
sg22
I0
sg21
I0
sg26
I0
sg23
I0
sg103
I0
ssg21
(dp112
g27
I2
sg99
I0
sg100
I0
sg25
I0
sg24
I0
sg28
I0
sg41
I0
sg103
I0
sg101
I0
sg38
I0
sg22
I2
sg21
I0
sg39
I0
sg37
I0
sg26
I0
sg102
I0
sg23
I0
sg40
I0
ssg33
(dp113
g47
I0
sg48
I0
sg31
I0
sg44
I0
sg46
I0
sg42
I0
sg35
I0
sS'put.v.01'
p114
I0
sg32
I0
sg45
I0
sg29
I0
sg30
I0
sg33
I2
sg34
I0
sg36
I0
sg43
I0
sg49
I0
ssg34
(dp115
g47
I0
sg48
I0
sg31
I0
sg44
I0
sg46
I0
sg42
I0
sg35
I2
sg114
I0
sg32
I0
sg45
I0
sg29
I0
sg30
I0
sg33
I0
sg34
I0
sg36
I0
sg43
I0
sg49
I0
ssg27
(dp116
g23
I0
sg25
I0
sg24
I0
sg28
I0
sg41
I0
sg101
I0
sg38
I0
sg22
I0
sg21
I0
sg39
I0
sg37
I0
sg26
I0
sg27
I0
sg40
I0
ssg54
(dp117
g62
I0
sg90
I0
sg64
I0
sg55
I0
sg91
I0
sg57
I0
sg63
I0
sg70
I0
sg66
I0
sg92
I0
sg93
I0
sg94
I0
sg71
I0
sg56
I0
sg74
I0
sg68
I0
sg54
I2
sg95
I0
sg96
I0
ssg48
(dp118
g47
I0
sg72
I0
sg53
I0
sg44
I0
sg46
I0
sg42
I0
sg76
I0
sg69
I0
sg77
I0
sg78
I0
sg48
I2
sg50
I0
sg73
I0
sg67
I0
sg45
I0
sg52
I0
sg75
I0
sg51
I0
sg43
I0
sg49
I0
ssg31
(dp119
g62
I0
sg66
I0
sg55
I0
sS'refrigerator.n.01'
p120
I0
sg33
I0
sg34
I0
sg54
I0
sg31
I4
sg68
I0
sg92
I0
sg70
I0
sS'patty.n.01'
p121
I0
sg56
I0
sg90
I0
sg91
I0
sg57
I0
sg63
I0
sg95
I0
sg74
I0
sg29
I0
sg30
I0
sg96
I0
sg93
I0
sg35
I0
sS'jam.n.01'
p122
I0
sg114
I0
sg32
I0
sg71
I0
sS'whipped_cream.n.01'
p123
I0
sS'cake.n.03'
p124
I0
sg36
I0
ssg14
(dp125
g15
I2
sg11
I0
sg62
I0
sg20
I0
sg18
I0
sg17
I0
sg63
I0
sg10
I0
sg13
I0
sg57
I0
sg64
I0
sg9
I0
sg16
I0
sg56
I0
sg19
I0
sg8
I0
sg12
I0
sg55
I0
sg14
I0
sg54
I0
ssg53
(dp126
S'plate.n.13'
p127
I0
sg72
I0
sS'pan.n.03'
p128
I0
sS'chicken.n.01'
p129
I0
sg53
I0
sS'beef.n.02'
p130
I0
sS'plate.n.04'
p131
I0
sS'salmon.n.03'
p132
I0
sg51
I0
sg69
I0
sS'gripe.n.01'
p133
I0
sS'spoon.n.01'
p134
I0
sg50
I0
sS'put.v.01'
p135
I0
sg52
I0
sS'onion.n.01'
p136
I0
sS'onion.n.03'
p137
I0
sS'batter.n.02'
p138
I0
ssg25
(dp139
g127
I0
sg129
I0
sg130
I0
sg24
I0
sg99
I0
sg22
I0
sg21
I0
sg138
I0
sg27
I0
sg132
I0
sg128
I0
sg100
I0
sg25
I4
sg134
I0
sg131
I0
sg72
I0
sg53
I0
sg50
I0
sg51
I0
sg133
I0
sg102
I0
sg52
I0
sg103
I0
sg28
I0
sg101
I0
sg26
I0
sg23
I0
sg136
I0
sg137
I0
ssg12
(dp140
g15
I0
sg11
I0
sg62
I0
sg20
I0
sg18
I0
sg17
I0
sg63
I0
sg12
I1
sg13
I1
sg57
I0
sg64
I0
sg9
I0
sg16
I0
sg56
I0
sg19
I0
sg8
I0
sg10
I0
sg55
I0
sg14
I0
sg54
I0
ssg13
(dp141
g15
I0
sg11
I0
sg20
I0
sg18
I0
sg17
I0
sg12
I0
sg13
I0
sg9
I0
sg16
I0
sg19
I0
sg8
I0
sg10
I0
sg14
I0
ssg16
(dp142
g15
I0
sg11
I0
sg62
I0
sg20
I0
sg18
I0
sg17
I0
sg63
I0
sg10
I0
sg13
I0
sg57
I0
sg64
I0
sg9
I0
sg16
I2
sg56
I0
sg19
I0
sg8
I0
sg12
I0
sg55
I0
sg14
I0
sg54
I0
ssg45
(dp143
g47
I0
sg72
I0
sg53
I0
sg44
I0
sg46
I0
sg42
I0
sg76
I0
sg69
I0
sg77
I0
sg78
I0
sg48
I0
sg50
I0
sg73
I0
sg45
I0
sg49
I0
sg52
I0
sg75
I0
sg51
I0
sg43
I0
sg67
I0
ssg50
(dp144
g127
I0
sg72
I0
sg128
I0
sg129
I0
sg53
I0
sg130
I0
sg50
I0
sg132
I0
sg51
I2
sg69
I0
sg133
I0
sg134
I0
sg131
I0
sg135
I0
sg52
I0
sg136
I0
sg137
I0
sg138
I0
ssg11
(dp145
g15
I0
sg127
I0
sg55
I0
sg130
I0
sg20
I0
sg138
I0
sg14
I0
sg54
I0
sg64
I0
sg53
I0
sg69
I0
sg12
I0
sg13
I0
sg16
I0
sg134
I0
sg50
I0
sg11
I3
sg18
I0
sg57
I1
sg131
I0
sg10
I0
sg51
I0
sg9
I0
sg19
I0
sg133
I0
sg56
I0
sg52
I0
sg17
I0
sg8
I0
sg136
I0
sg137
I0
ssg18
(dp146
g15
I0
sg11
I0
sg106
I0
sg20
I0
sg18
I2
sg17
I0
sg10
I0
sg13
I0
sg107
I0
sg108
I0
sg9
I0
sg16
I0
sg109
I0
sg19
I0
sg110
I0
sg8
I0
sg12
I0
sg14
I0
ssg57
(dp147
g62
I0
sg90
I0
sg64
I0
sg55
I0
sg57
I0
sg63
I0
sg70
I0
sg66
I0
sg94
I0
sg71
I0
sg56
I0
sg74
I0
sg68
I0
sg54
I0
ssg46
(dp148
g47
I4
sg66
I0
sg55
I0
sg44
I0
sg67
I0
sg68
I0
sg54
I0
sg64
I0
sg69
I0
sg70
I0
sg71
I0
sg48
I0
sg50
I0
sg72
I0
sg53
I0
sg57
I0
sg46
I0
sg51
I0
sg45
I0
sg73
I0
sg74
I0
sg56
I0
sg52
I0
sg75
I0
sg76
I0
sg77
I0
sg78
I0
sg42
I0
sg43
I0
sg49
I0
ssg10
(dp149
g15
I0
sg11
I0
sg20
I0
sg18
I0
sg17
I0
sg10
I0
sg13
I0
sg9
I0
sg16
I0
sg19
I0
sg8
I0
sg12
I0
sg14
I0
ssg51
(dp150
g127
I0
sg72
I0
sg128
I0
sg129
I0
sg53
I0
sg130
I0
sg131
I0
sg132
I0
sg51
I0
sg69
I0
sg133
I0
sg134
I0
sg50
I0
sg135
I0
sg52
I0
sg136
I0
sg137
I0
sg138
I0
ssg9
(dp151
g15
I0
sg11
I0
sg62
I0
sg20
I0
sg18
I0
sg17
I0
sg63
I0
sg10
I1
sg13
I0
sg57
I0
sg64
I0
sg8
I0
sg16
I0
sg56
I1
sg19
I0
sg9
I0
sg12
I0
sg55
I0
sg14
I0
sg54
I0
ssg19
(dp152
g15
I0
sg11
I0
sg106
I0
sg20
I0
sg18
I0
sg17
I0
sg10
I0
sg13
I0
sg107
I0
sg9
I0
sg19
I2
sg109
I0
sg16
I0
sg108
I0
sg110
I0
sg8
I0
sg12
I0
sg14
I0
ssg29
(dp153
g31
I0
sg120
I0
sg35
I0
sg122
I0
sg121
I0
sg114
I0
sg32
I0
sg29
I2
sg30
I0
sg33
I0
sg124
I0
sg34
I0
sg36
I0
sg123
I0
ssg30
(dp154
g47
I0
sg44
I0
sg120
I0
sg33
I0
sg34
I0
sg31
I0
sg121
I0
sg48
I0
sg46
I0
sg45
I0
sg123
I0
sg30
I4
sg36
I0
sg35
I0
sg122
I0
sg114
I0
sg32
I0
sg29
I0
sg124
I0
sg42
I0
sg43
I0
sg49
I0
ssg38
(dp155
g80
I0
sg81
I0
sg40
I0
sg82
I0
sg41
I0
sg83
I0
sg38
I0
sg84
I0
sg39
I0
sg37
I0
sg85
I0
sg86
I0
sg87
I0
sg88
I0
ssg56
(dp156
g62
I0
sg90
I0
sg64
I0
sg55
I0
sg57
I0
sg63
I0
sg70
I0
sg66
I0
sg94
I0
sg71
I0
sg56
I0
sg74
I0
sg68
I0
sg54
I0
ssg52
(dp157
g127
I0
sg52
I0
sg128
I0
sg129
I0
sg53
I2
sg130
I0
sg131
I0
sg132
I0
sg51
I0
sg69
I0
sg133
I0
sg134
I0
sg50
I0
sg135
I0
sg72
I0
sg136
I0
sg137
I0
sg138
I0
ssg17
(dp158
g15
I0
sg11
I0
sg106
I0
sg20
I0
sg18
I0
sg17
I2
sg10
I0
sg13
I0
sg107
I0
sg108
I0
sg9
I0
sg16
I0
sg109
I0
sg19
I0
sg110
I0
sg8
I0
sg12
I0
sg14
I0
ssg42
(dp159
g47
I0
sg48
I0
sg53
I0
sg44
I0
sg46
I0
sg75
I0
sg76
I0
sg69
I0
sg77
I0
sg78
I0
sg45
I0
sg50
I0
sg73
I0
sg67
I0
sg72
I0
sg52
I0
sg42
I0
sg51
I0
sg43
I2
sg49
I0
ssg35
(dp160
g47
I0
sg48
I0
sg31
I0
sg44
I0
sg46
I0
sg42
I0
sg35
I0
sg114
I0
sg32
I0
sg45
I0
sg29
I0
sg30
I0
sg33
I0
sg34
I0
sg36
I0
sg43
I0
sg49
I0
ssg28
(dp161
g27
I0
sg25
I0
sg24
I0
sg28
I2
sg41
I0
sg101
I0
sg38
I0
sg22
I0
sg21
I0
sg39
I0
sg37
I0
sg26
I0
sg23
I0
sg40
I0
ssg8
(dp162
g15
I0
sg47
I0
sg40
I0
sg55
I0
sg44
I0
sg24
I0
sg41
I0
sg20
I0
sg22
I0
sg21
I0
sg33
I0
sg34
I0
sg27
I0
sg54
I0
sg48
I0
sg31
I0
sg14
I0
sg53
I0
sg25
I0
sg12
I0
sg13
I0
sg16
I0
sg45
I0
sg50
I0
sg11
I0
sg18
I0
sg57
I0
sg46
I0
sg10
I0
sg51
I0
sg9
I0
sg19
I0
sg29
I0
sg30
I0
sg38
I0
sg56
I0
sg52
I0
sg17
I0
sg42
I0
sg35
I0
sg28
I0
sg8
I40
sg32
I0
sg39
I0
sg37
I0
sg26
I0
sg23
I0
sg36
I0
sg43
I0
sg49
I0
ssg32
(dp163
g31
I0
sg120
I0
sg35
I0
sg122
I0
sg121
I0
sg114
I0
sg32
I2
sg29
I0
sg30
I0
sg33
I0
sg124
I0
sg34
I0
sg36
I0
sg123
I0
ssg39
(dp164
g80
I0
sg81
I0
sg40
I0
sg82
I0
sg41
I0
sg83
I0
sg38
I0
sg84
I0
sg39
I2
sg37
I0
sg85
I0
sg86
I0
sg87
I0
sg88
I0
ssg37
(dp165
g80
I0
sg81
I0
sg40
I0
sg82
I0
sg41
I0
sg83
I0
sg38
I2
sg84
I0
sg39
I0
sg37
I0
sg85
I0
sg86
I0
sg87
I0
sg88
I0
ssg26
(dp166
g27
I0
sg25
I0
sg24
I0
sg28
I0
sg41
I0
sg101
I0
sg38
I0
sg22
I0
sg21
I0
sg39
I0
sg37
I0
sg26
I2
sg23
I0
sg40
I0
ssg23
(dp167
g27
I0
sg99
I0
sg100
I0
sg25
I0
sg24
I0
sg28
I0
sg101
I0
sg102
I0
sg22
I0
sg21
I0
sg26
I0
sg23
I2
sg103
I0
ssg36
(dp168
g47
I0
sg48
I0
sg31
I0
sg44
I0
sg46
I0
sg42
I0
sg35
I0
sg114
I0
sg32
I0
sg45
I0
sg29
I0
sg30
I0
sg33
I0
sg34
I0
sg36
I2
sg43
I0
sg49
I0
ssg43
(dp169
g47
I0
sg48
I0
sg53
I0
sg44
I0
sg46
I0
sg42
I0
sg76
I0
sg69
I0
sg77
I0
sg78
I0
sg45
I0
sg50
I0
sg73
I0
sg67
I0
sg72
I0
sg52
I0
sg75
I0
sg51
I0
sg43
I0
sg49
I0
ssg49
(dp170
g47
I0
sg48
I0
sg53
I0
sg44
I0
sg46
I0
sg42
I0
sg76
I0
sg69
I0
sg77
I0
sg78
I0
sg45
I0
sg50
I0
sg73
I0
sg49
I2
sg72
I0
sg52
I0
sg75
I0
sg51
I0
sg43
I0
sg67
I0
sssb.