ccopy_reg
_reconstructor
p0
(cutils.eval
ConfusionMatrix
p1
c__builtin__
object
p2
Ntp3
Rp4
(dp5
S'labels'
p6
(lp7
S'put.v.01'
p8
aS'steak.n.01'
p9
aS'oven.n.01'
p10
aS'pan.n.03'
p11
aS'pizza.n.01'
p12
aS'dish.n.02'
p13
aS'dressing.n.01'
p14
aS'dressing.n.04'
p15
aS'salad.n.01'
p16
asS'instanceCount'
p17
I12
sS'matrix'
p18
(dp19
g11
(dp20
S'pan.n.03'
p21
I1
ssg15
(dp22
g15
I0
ssg8
(dp23
S'put.v.01'
p24
I4
ssg12
(dp25
S'pizza.n.01'
p26
I1
ssg9
(dp27
S'steak.n.01'
p28
I1
ssg10
(dp29
S'oven.n.01'
p30
I2
ssg13
(dp31
S'dish.n.02'
p32
I1
ssg14
(dp33
g15
I1
ssg16
(dp34
S'salad.n.01'
p35
I1
sssb.