ccopy_reg
_reconstructor
p0
(cutils.eval
ConfusionMatrix
p1
c__builtin__
object
p2
Ntp3
Rp4
(dp5
S'labels'
p6
(lp7
S'put.v.01'
p8
aS'french_fries.n.01'
p9
aS'bowl.n.01'
p10
aS'bowl.n.08'
p11
aS'rice.n.01'
p12
aS'cake.n.03'
p13
aS'patty.n.01'
p14
aS'whipped_cream.n.01'
p15
aS'jam.n.01'
p16
aS'refrigerator.n.01'
p17
asS'instanceCount'
p18
I11
sS'matrix'
p19
(dp20
g16
(dp21
S'jam.n.01'
p22
I1
ssg12
(dp23
S'rice.n.01'
p24
I1
ssg17
(dp25
S'refrigerator.n.01'
p26
I1
ssg8
(dp27
S'put.v.01'
p28
I4
ssg14
(dp29
g14
I0
ssg10
(dp30
g11
I1
ssg15
(dp31
S'whipped_cream.n.01'
p32
I1
ssg13
(dp33
g14
I1
ssg9
(dp34
S'french_fries.n.01'
p35
I1
ssg11
(dp36
g11
I0
sssb.