ccopy_reg
_reconstructor
p0
(cutils.eval
ConfusionMatrix
p1
c__builtin__
object
p2
Ntp3
Rp4
(dp5
S'labels'
p6
(lp7
S'put.v.01'
p8
aS'rib.n.03'
p9
aS'rib.n.01'
p10
aS'salt.n.02'
p11
aS'mug.n.04'
p12
aS'countenance.n.03'
p13
aS'microwave.n.02'
p14
aS'salmon.n.03'
p15
aS'plate.n.04'
p16
aS'plate.n.13'
p17
aS'pan.n.03'
p18
aS'chicken.n.01'
p19
asS'instanceCount'
p20
I12
sS'matrix'
p21
(dp22
g17
(dp23
g17
I0
ssg11
(dp24
S'salt.n.02'
p25
I1
ssg18
(dp26
S'pan.n.03'
p27
I1
ssg19
(dp28
S'chicken.n.01'
p29
I1
ssg13
(dp30
g13
I0
ssg12
(dp31
g13
I1
ssg9
(dp32
g10
I1
ssg10
(dp33
g10
I0
ssg14
(dp34
S'microwave.n.02'
p35
I1
ssg8
(dp36
S'put.v.01'
p37
I4
ssg16
(dp38
g17
I1
ssg15
(dp39
S'salmon.n.03'
p40
I1
sssb.