ccopy_reg
_reconstructor
p0
(cutils.eval
ConfusionMatrix
p1
c__builtin__
object
p2
Ntp3
Rp4
(dp5
S'labels'
p6
(lp7
S'put.v.01'
p8
aS'cake.n.03'
p9
aS'patty.n.01'
p10
aS'whipped_cream.n.01'
p11
aS'jam.n.01'
p12
aS'refrigerator.n.01'
p13
aS'steak.n.01'
p14
aS'oven.n.01'
p15
aS'pan.n.03'
p16
aS'pizza.n.01'
p17
asS'instanceCount'
p18
I12
sS'matrix'
p19
(dp20
g16
(dp21
S'pan.n.03'
p22
I1
ssg12
(dp23
S'jam.n.01'
p24
I1
ssg13
(dp25
S'refrigerator.n.01'
p26
I1
ssg8
(dp27
S'put.v.01'
p28
I4
ssg10
(dp29
g10
I0
ssg11
(dp30
S'whipped_cream.n.01'
p31
I1
ssg9
(dp32
g10
I1
ssg14
(dp33
S'steak.n.01'
p34
I1
ssg15
(dp35
S'oven.n.01'
p36
I1
ssg17
(dp37
S'pizza.n.01'
p38
I1
sssb.