ccopy_reg
_reconstructor
p0
(cutils.eval
ConfusionMatrix
p1
c__builtin__
object
p2
Ntp3
Rp4
(dp5
S'labels'
p6
(lp7
S'put.v.01'
p8
aS'pepper.n.03'
p9
aS'pepper.n.04'
p10
aS'salt.n.02'
p11
aS'egg.n.02'
p12
aS'egg.n.01'
p13
aS'coca_cola.n.01'
p14
aS'coke.n.01'
p15
aS'electric_refrigerator.n.01'
p16
aS'blender.n.01'
p17
aS'banana.n.02'
p18
aS'spread.n.05'
p19
aS'bread.n.01'
p20
asS'instanceCount'
p21
I13
sS'matrix'
p22
(dp23
g15
(dp24
g15
I0
ssg11
(dp25
S'salt.n.02'
p26
I1
ssg20
(dp27
S'bread.n.01'
p28
I1
ssg18
(dp29
S'banana.n.02'
p30
I1
ssg17
(dp31
S'blender.n.01'
p32
I1
ssg10
(dp33
g10
I0
ssg13
(dp34
g13
I0
ssg9
(dp35
g10
I1
ssg16
(dp36
S'electric_refrigerator.n.01'
p37
I1
ssg19
(dp38
S'spread.n.05'
p39
I1
ssg8
(dp40
S'put.v.01'
p41
I4
ssg12
(dp42
g13
I1
ssg14
(dp43
g15
I1
sssb.