ccopy_reg
_reconstructor
p0
(cutils.eval
ConfusionMatrix
p1
c__builtin__
object
p2
Ntp3
Rp4
(dp5
S'labels'
p6
(lp7
S'add.v.01'
p8
aS'dressing.n.01'
p9
aS'dressing.n.04'
p10
aS'salad.n.01'
p11
aS'pan.n.03'
p12
aS'butter.n.01'
p13
aS'sauce.n.01'
p14
aS'cream.n.02'
p15
aS'cream.n.03'
p16
aS'mixing_bowl.n.01'
p17
aS'sugar.n.01'
p18
aS'boodle.n.01'
p19
aS'vanilla.n.02'
p20
aS'vanilla.n.03'
p21
aS'vegetable.n.01'
p22
aS'salt.n.02'
p23
aS'meat.n.01'
p24
aS'asparagus.n.02'
p25
aS'pot.n.01'
p26
aS'pot.n.09'
p27
aS'bean.n.01'
p28
asS'instanceCount'
p29
I31
sS'matrix'
p30
(dp31
g23
(dp32
S'salt.n.02'
p33
I1
ssg12
(dp34
S'pan.n.03'
p35
I3
ssg27
(dp36
g27
I0
ssg17
(dp37
S'mixing_bowl.n.01'
p38
I1
ssg8
(dp39
S'add.v.01'
p40
I10
ssg13
(dp41
S'butter.n.01'
p42
I3
ssg15
(dp43
g16
I1
ssg16
(dp44
g16
I0
ssg26
(dp45
g27
I1
ssg9
(dp46
g10
I1
ssg25
(dp47
S'asparagus.n.02'
p48
I1
ssg24
(dp49
S'meat.n.01'
p50
I1
ssg22
(dp51
S'vegetable.n.01'
p52
I1
ssg21
(dp53
g21
I0
ssg20
(dp54
g21
I1
sS'vanilla.n.02'
p55
I1
ssg28
(dp56
S'bean.n.01'
p57
I1
ssg19
(dp58
g19
I0
ssg11
(dp59
S'salad.n.01'
p60
I2
ssg10
(dp61
g10
I0
ssg14
(dp62
S'sauce.n.01'
p63
I1
ssg18
(dp64
g19
I1
sssb.