ccopy_reg
_reconstructor
p0
(cutils.eval
ConfusionMatrix
p1
c__builtin__
object
p2
Ntp3
Rp4
(dp5
S'labels'
p6
(lp7
S'sauce.n.01'
p8
aS'add.v.01'
p9
aS'cream.n.02'
p10
aS'cream.n.03'
p11
aS'mixing_bowl.n.01'
p12
aS'butter.n.01'
p13
aS'sugar.n.01'
p14
aS'boodle.n.01'
p15
aS'pan.n.03'
p16
aS'vanilla.n.02'
p17
aS'vanilla.n.03'
p18
aS'vegetable.n.01'
p19
aS'salt.n.02'
p20
aS'meat.n.01'
p21
aS'kernel.n.01'
p22
aS'asparagus.n.02'
p23
aS'asparagus.n.01'
p24
aS'salad.n.01'
p25
aS'pot.n.01'
p26
aS'pot.n.04'
p27
aS'bean.n.01'
p28
aS'onion.n.03'
p29
aS'milk.n.01'
p30
aS'milk.n.04'
p31
aS'water.n.06'
p32
aS'water_system.n.02'
p33
asS'instanceCount'
p34
I30
sS'matrix'
p35
(dp36
g22
(dp37
g22
I0
ssg12
(dp38
S'mixing_bowl.n.01'
p39
I1
ssg31
(dp40
g31
I0
ssg9
(dp41
S'add.v.01'
p42
I10
ssg30
(dp43
g31
I1
ssg16
(dp44
S'pan.n.03'
p45
I2
ssg27
(dp46
g27
I0
ssg13
(dp47
S'butter.n.01'
p48
I2
ssg26
(dp49
g27
I1
ssg23
(dp50
g24
I1
ssg24
(dp51
g24
I0
ssg21
(dp52
g22
I1
ssg18
(dp53
g18
I0
ssg17
(dp54
g18
I1
sS'vanilla.n.02'
p55
I1
ssg28
(dp56
S'bean.n.01'
p57
I1
ssg8
(dp58
S'sauce.n.01'
p59
I1
ssg20
(dp60
S'salt.n.02'
p61
I1
ssg10
(dp62
g11
I1
ssg11
(dp63
g11
I0
ssg15
(dp64
g15
I0
ssg19
(dp65
S'vegetable.n.01'
p66
I1
ssg33
(dp67
g33
I0
ssg32
(dp68
g33
I1
ssg25
(dp69
S'salad.n.01'
p70
I1
ssg29
(dp71
S'onion.n.03'
p72
I1
ssg14
(dp73
g15
I1
sssb.