ccopy_reg
_reconstructor
p0
(cutils.eval
ConfusionMatrix
p1
c__builtin__
object
p2
Ntp3
Rp4
(dp5
S'labels'
p6
(lp7
S'pan.n.03'
p8
aS'add.v.01'
p9
aS'vanilla.n.02'
p10
aS'butter.n.01'
p11
aS'vegetable.n.01'
p12
aS'salt.n.02'
p13
aS'meat.n.01'
p14
aS'asparagus.n.02'
p15
aS'asparagus.n.01'
p16
aS'salad.n.01'
p17
aS'pot.n.01'
p18
aS'pot.n.04'
p19
aS'bean.n.01'
p20
aS'onion.n.03'
p21
aS'milk.n.01'
p22
aS'milk.n.04'
p23
aS'water.n.06'
p24
aS'water_system.n.02'
p25
aS'egg.n.02'
p26
aS'mixing_bowl.n.01'
p27
aS'apple.n.01'
p28
asS'instanceCount'
p29
I28
sS'matrix'
p30
(dp31
g24
(dp32
g25
I1
ssg13
(dp33
S'salt.n.02'
p34
I1
ssg12
(dp35
S'vegetable.n.01'
p36
I1
ssg26
(dp37
S'egg.n.02'
p38
I1
ssg23
(dp39
g23
I0
ssg17
(dp40
S'salad.n.01'
p41
I1
ssg11
(dp42
S'butter.n.01'
p43
I1
ssg25
(dp44
g25
I0
ssg18
(dp45
g19
I1
ssg8
(dp46
S'pan.n.03'
p47
I2
ssg22
(dp48
g23
I1
ssg15
(dp49
g16
I1
ssg16
(dp50
g16
I0
ssg27
(dp51
S'mixing_bowl.n.01'
p52
I1
ssg14
(dp53
S'meat.n.01'
p54
I1
ssg10
(dp55
S'vanilla.n.02'
p56
I2
ssg20
(dp57
S'bean.n.01'
p58
I1
ssg28
(dp59
S'apple.n.01'
p60
I1
ssg9
(dp61
S'add.v.01'
p62
I10
ssg19
(dp63
g19
I0
ssg21
(dp64
S'onion.n.03'
p65
I1
sssb.