ccopy_reg
_reconstructor
p0
(cutils.eval
ConfusionMatrix
p1
c__builtin__
object
p2
Ntp3
Rp4
(dp5
S'labels'
p6
(lp7
S'add.v.01'
p8
aS'rib.n.03'
p9
aS'corn.n.03'
p10
aS'dish.n.02'
p11
aS'dish.n.01'
p12
aS'egg.n.02'
p13
aS'ingredient.n.03'
p14
aS'concoction.n.01'
p15
aS'mixture.n.01'
p16
aS'cream.n.02'
p17
aS'cream.n.03'
p18
aS'dressing.n.01'
p19
aS'dressing.n.04'
p20
aS'salad.n.01'
p21
aS'pan.n.03'
p22
aS'butter.n.01'
p23
aS'sauce.n.01'
p24
aS'mixing_bowl.n.01'
p25
aS'sugar.n.01'
p26
aS'vanilla.n.02'
p27
asS'instanceCount'
p28
I31
sS'matrix'
p29
(dp30
g10
(dp31
S'corn.n.03'
p32
I1
ssg27
(dp33
S'vanilla.n.02'
p34
I2
ssg25
(dp35
S'mixing_bowl.n.01'
p36
I1
ssg9
(dp37
S'rib.n.03'
p38
I1
ssg13
(dp39
S'egg.n.02'
p40
I1
ssg20
(dp41
g20
I0
ssg16
(dp42
g16
I0
ssg17
(dp43
g18
I2
ssg14
(dp44
S'ingredient.n.03'
p45
I1
ssg18
(dp46
g18
I0
ssg11
(dp47
g12
I1
ssg12
(dp48
g12
I0
ssg22
(dp49
S'pan.n.03'
p50
I3
ssg23
(dp51
S'butter.n.01'
p52
I3
ssg15
(dp53
g16
I1
ssg19
(dp54
g20
I1
ssg8
(dp55
S'add.v.01'
p56
I10
ssg21
(dp57
S'salad.n.01'
p58
I1
ssg24
(dp59
S'sauce.n.01'
p60
I1
ssg26
(dp61
S'sugar.n.01'
p62
I1
sssb.