ccopy_reg
_reconstructor
p0
(cutils.eval
ConfusionMatrix
p1
c__builtin__
object
p2
Ntp3
Rp4
(dp5
S'labels'
p6
(lp7
S'add.v.01'
p8
aS'egg.n.02'
p9
aS'mixing_bowl.n.01'
p10
aS'apple.n.01'
p11
aS'ingredient.n.03'
p12
aS'french_fries.n.01'
p13
aS'steak.n.01'
p14
aS'rib.n.03'
p15
aS'corn.n.03'
p16
aS'dish.n.02'
p17
aS'dish.n.01'
p18
aS'concoction.n.01'
p19
aS'mix.n.03'
p20
aS'cream.n.02'
p21
aS'cream.n.03'
p22
aS'dressing.n.01'
p23
aS'dressing.n.04'
p24
aS'salad.n.01'
p25
aS'pan.n.03'
p26
aS'butter.n.01'
p27
asS'instanceCount'
p28
I27
sS'matrix'
p29
(dp30
g16
(dp31
S'corn.n.03'
p32
I1
ssg18
(dp33
g18
I0
ssg15
(dp34
S'rib.n.03'
p35
I1
ssg9
(dp36
S'egg.n.02'
p37
I2
ssg24
(dp38
g24
I0
ssg20
(dp39
g20
I0
ssg10
(dp40
S'mixing_bowl.n.01'
p41
I1
ssg12
(dp42
S'ingredient.n.03'
p43
I2
ssg26
(dp44
S'pan.n.03'
p45
I1
ssg22
(dp46
g22
I0
ssg14
(dp47
S'steak.n.01'
p48
I1
ssg21
(dp49
g22
I1
ssg17
(dp50
g18
I1
ssg13
(dp51
S'french_fries.n.01'
p52
I1
ssg19
(dp53
g20
I1
ssg27
(dp54
S'butter.n.01'
p55
I1
ssg11
(dp56
S'apple.n.01'
p57
I1
ssg23
(dp58
g24
I1
ssg8
(dp59
S'add.v.01'
p60
I10
ssg25
(dp61
S'salad.n.01'
p62
I1
sssb.