ccopy_reg
_reconstructor
p0
(cutils.eval
ConfusionMatrix
p1
c__builtin__
object
p2
Ntp3
Rp4
(dp5
S'labels'
p6
(lp7
S'add.v.01'
p8
aS'egg.n.02'
p9
aS'ingredient.n.03'
p10
aS'concoction.n.01'
p11
aS'mixture.n.01'
p12
aS'cream.n.02'
p13
aS'cream.n.03'
p14
aS'dressing.n.01'
p15
aS'dressing.n.04'
p16
aS'salad.n.01'
p17
aS'pan.n.03'
p18
aS'butter.n.01'
p19
aS'sauce.n.01'
p20
aS'mixing_bowl.n.01'
p21
aS'sugar.n.01'
p22
aS'vanilla.n.02'
p23
aS'vegetable.n.01'
p24
aS'salt.n.02'
p25
aS'meat.n.01'
p26
asS'instanceCount'
p27
I31
sS'matrix'
p28
(dp29
g25
(dp30
S'salt.n.02'
p31
I1
ssg18
(dp32
S'pan.n.03'
p33
I3
ssg21
(dp34
S'mixing_bowl.n.01'
p35
I1
ssg9
(dp36
S'egg.n.02'
p37
I1
ssg16
(dp38
g16
I0
ssg12
(dp39
g12
I0
ssg13
(dp40
g14
I2
ssg10
(dp41
S'ingredient.n.03'
p42
I1
ssg14
(dp43
g14
I0
ssg26
(dp44
S'meat.n.01'
p45
I1
ssg24
(dp46
S'vegetable.n.01'
p47
I1
ssg23
(dp48
S'vanilla.n.02'
p49
I2
ssg19
(dp50
S'butter.n.01'
p51
I3
ssg11
(dp52
g12
I1
ssg15
(dp53
g16
I1
ssg8
(dp54
S'add.v.01'
p55
I10
ssg17
(dp56
S'salad.n.01'
p57
I1
ssg20
(dp58
S'sauce.n.01'
p59
I1
ssg22
(dp60
S'sugar.n.01'
p61
I1
sssb.