ccopy_reg
_reconstructor
p0
(cutils.eval
ConfusionMatrix
p1
c__builtin__
object
p2
Ntp3
Rp4
(dp5
S'labels'
p6
(lp7
S'add.v.01'
p8
aS'onion.n.03'
p9
aS'milk.n.01'
p10
aS'water.n.06'
p11
aS'water_system.n.02'
p12
aS'egg.n.02'
p13
aS'mixing_bowl.n.01'
p14
aS'apple.n.01'
p15
aS'ingredient.n.03'
p16
aS'french_fries.n.01'
p17
aS'steak.n.01'
p18
aS'rib.n.03'
p19
aS'corn.n.03'
p20
aS'dish.n.02'
p21
aS'dish.n.01'
p22
aS'concoction.n.01'
p23
aS'mix.n.03'
p24
aS'cream.n.02'
p25
aS'cream.n.03'
p26
asS'instanceCount'
p27
I26
sS'matrix'
p28
(dp29
g20
(dp30
S'corn.n.03'
p31
I1
ssg22
(dp32
g22
I0
ssg14
(dp33
S'mixing_bowl.n.01'
p34
I1
ssg19
(dp35
S'rib.n.03'
p36
I1
ssg13
(dp37
S'egg.n.02'
p38
I2
ssg24
(dp39
g24
I0
ssg12
(dp40
g12
I0
ssg11
(dp41
g12
I1
ssg16
(dp42
S'ingredient.n.03'
p43
I2
ssg26
(dp44
g26
I0
ssg18
(dp45
S'steak.n.01'
p46
I1
ssg25
(dp47
g26
I1
ssg21
(dp48
g22
I1
ssg17
(dp49
S'french_fries.n.01'
p50
I1
ssg23
(dp51
g24
I1
ssg15
(dp52
S'apple.n.01'
p53
I1
ssg8
(dp54
S'add.v.01'
p55
I10
ssg10
(dp56
S'milk.n.01'
p57
I1
ssg9
(dp58
S'onion.n.03'
p59
I1
sssb.