ccopy_reg
_reconstructor
p0
(cutils.eval
ConfusionMatrix
p1
c__builtin__
object
p2
Ntp3
Rp4
(dp5
S'labels'
p6
(lp7
S'vegetable.n.01'
p8
aS'add.v.01'
p9
aS'salt.n.02'
p10
aS'meat.n.01'
p11
aS'kernel.n.01'
p12
aS'asparagus.n.02'
p13
aS'asparagus.n.01'
p14
aS'salad.n.01'
p15
aS'pot.n.01'
p16
aS'pot.n.04'
p17
aS'bean.n.01'
p18
aS'onion.n.03'
p19
aS'milk.n.01'
p20
aS'milk.n.04'
p21
aS'water.n.06'
p22
aS'water_system.n.02'
p23
aS'egg.n.02'
p24
aS'mixing_bowl.n.01'
p25
aS'apple.n.01'
p26
aS'ingredient.n.03'
p27
aS'french_fries.n.01'
p28
aS'steak.n.01'
p29
asS'instanceCount'
p30
I26
sS'matrix'
p31
(dp32
g12
(dp33
g12
I0
ssg25
(dp34
S'mixing_bowl.n.01'
p35
I1
ssg21
(dp36
g21
I0
ssg26
(dp37
S'apple.n.01'
p38
I1
ssg9
(dp39
S'add.v.01'
p40
I10
ssg20
(dp41
g21
I1
ssg24
(dp42
S'egg.n.02'
p43
I1
ssg16
(dp44
g17
I1
ssg13
(dp45
g14
I1
ssg14
(dp46
g14
I0
ssg11
(dp47
g12
I1
ssg18
(dp48
S'bean.n.01'
p49
I1
ssg10
(dp50
S'salt.n.02'
p51
I1
ssg27
(dp52
S'ingredient.n.03'
p53
I1
ssg29
(dp54
S'steak.n.01'
p55
I1
ssg8
(dp56
S'vegetable.n.01'
p57
I1
ssg23
(dp58
g23
I0
ssg22
(dp59
g23
I1
ssg28
(dp60
S'french_fries.n.01'
p61
I1
ssg17
(dp62
g17
I0
ssg15
(dp63
S'salad.n.01'
p64
I1
ssg19
(dp65
S'onion.n.03'
p66
I1
sssb.