ccopy_reg
_reconstructor
p0
(cutils.eval
ConfusionMatrix
p1
c__builtin__
object
p2
Ntp3
Rp4
(dp5
S'labels'
p6
(lp7
S'cut.v.01'
p8
aS'cut.v.29'
p9
aS'bread.n.01'
p10
aS'knife.n.01'
p11
aS'bacon.n.01'
p12
asS'instanceCount'
p13
I5
sS'matrix'
p14
(dp15
g8
(dp16
S'cut.v.01'
p17
I1
sg9
I1
ssg11
(dp18
S'knife.n.01'
p19
I1
ssg9
(dp20
g9
I0
ssg12
(dp21
S'bacon.n.01'
p22
I1
ssg10
(dp23
S'bread.n.01'
p24
I1
sssb.