ccopy_reg
_reconstructor
p0
(cutils.eval
ConfusionMatrix
p1
c__builtin__
object
p2
Ntp3
Rp4
(dp5
S'labels'
p6
(lp7
S'cut.v.01'
p8
aS'swerve.v.01'
p9
aS'bacon.n.01'
p10
aS'bacon.n.03'
p11
aS'lemon.n.01'
p12
aS'lemon.n.05'
p13
asS'instanceCount'
p14
I4
sS'matrix'
p15
(dp16
g8
(dp17
S'cut.v.01'
p18
I1
sg9
I1
ssg9
(dp19
g9
I0
ssg11
(dp20
g11
I0
ssg10
(dp21
g11
I1
ssg13
(dp22
g13
I0
ssg12
(dp23
g13
I1
sssb.