ccopy_reg
_reconstructor
p0
(cutils.eval
ConfusionMatrix
p1
c__builtin__
object
p2
Ntp3
Rp4
(dp5
S'labels'
p6
(lp7
S'Amount'
p8
aS'Goal'
p9
aS'ObjectToBeSpilled'
p10
aS'ActionCause'
p11
asS'instanceCount'
p12
I7
sS'matrix'
p13
(dp14
g11
(dp15
S'ActionCause'
p16
I2
ssg8
(dp17
S'Amount'
p18
I1
ssg10
(dp19
S'ObjectToBeSpilled'
p20
I2
ssg9
(dp21
S'Goal'
p22
I2
sssb.