ccopy_reg
_reconstructor
p0
(cutils.eval
ConfusionMatrix
p1
c__builtin__
object
p2
Ntp3
Rp4
(dp5
S'labels'
p6
(lp7
S'ObjectToBeSpilled'
p8
aS'Amount'
p9
aS'Goal'
p10
aS'ActionCause'
p11
asS'instanceCount'
p12
I8
sS'matrix'
p13
(dp14
g11
(dp15
S'ActionCause'
p16
I2
ssg9
(dp17
S'Amount'
p18
I2
ssg8
(dp19
S'ObjectToBeSpilled'
p20
I2
ssg10
(dp21
S'Goal'
p22
I2
sssb.