ccopy_reg
_reconstructor
p0
(cutils.eval
ConfusionMatrix
p1
c__builtin__
object
p2
Ntp3
Rp4
(dp5
S'labels'
p6
(lp7
S'cut.v.01'
p8
aS'pizza.n.01'
p9
aS'piece.n.08'
p10
aS'cabbage.n.01'
p11
asS'instanceCount'
p12
I5
sS'matrix'
p13
(dp14
g10
(dp15
S'piece.n.08'
p16
I1
ssg8
(dp17
S'cut.v.01'
p18
I2
ssg11
(dp19
S'cabbage.n.01'
p20
I1
ssg9
(dp21
S'pizza.n.01'
p22
I1
sssb.