ccopy_reg
_reconstructor
p0
(cutils.eval
ConfusionMatrix
p1
c__builtin__
object
p2
Ntp3
Rp4
(dp5
S'labels'
p6
(lp7
S'cut.v.01'
p8
aS'bacon.n.01'
p9
aS'olive.n.01'
p10
aS'olive.n.04'
p11
asS'instanceCount'
p12
I4
sS'matrix'
p13
(dp14
g10
(dp15
g11
I1
ssg8
(dp16
S'cut.v.01'
p17
I2
ssg9
(dp18
S'bacon.n.01'
p19
I1
ssg11
(dp20
g11
I0
sssb.