ccopy_reg
_reconstructor
p0
(cutils.eval
ConfusionMatrix
p1
c__builtin__
object
p2
Ntp3
Rp4
(dp5
S'labels'
p6
(lp7
S'cake.n.03'
p8
aS'cut.v.01'
p9
aS'fork.n.01'
p10
aS'branching.n.01'
p11
aS'meat.n.01'
p12
aS'cleaver.n.01'
p13
aS'bacon.n.01'
p14
asS'instanceCount'
p15
I8
sS'matrix'
p16
(dp17
g9
(dp18
S'cut.v.01'
p19
I3
ssg14
(dp20
S'bacon.n.01'
p21
I1
ssg12
(dp22
S'meat.n.01'
p23
I1
ssg10
(dp24
g11
I1
ssg8
(dp25
S'cake.n.03'
p26
I1
ssg13
(dp27
S'cleaver.n.01'
p28
I1
ssg11
(dp29
g11
I0
sssb.