ccopy_reg
_reconstructor
p0
(cutils.eval
ConfusionMatrix
p1
c__builtin__
object
p2
Ntp3
Rp4
(dp5
S'labels'
p6
(lp7
S'cut.v.01'
p8
aS'flesh.n.01'
p9
aS'human_body.n.01'
p10
aS'cleaver.n.01'
p11
aS'piece.n.08'
p12
aS'potato.n.01'
p13
asS'instanceCount'
p14
I6
sS'matrix'
p15
(dp16
g8
(dp17
S'cut.v.01'
p18
I2
ssg9
(dp19
g10
I1
ssg10
(dp20
g10
I0
ssg11
(dp21
S'cleaver.n.01'
p22
I1
ssg13
(dp23
S'potato.n.01'
p24
I1
ssg12
(dp25
S'piece.n.08'
p26
I1
sssb.