ccopy_reg
_reconstructor
p0
(cutils.eval
ConfusionMatrix
p1
c__builtin__
object
p2
Ntp3
Rp4
(dp5
S'labels'
p6
(lp7
S'fill.v.01'
p8
aS'fill.v.09'
p9
aS'whiskey.n.01'
p10
aS'carafe.n.01'
p11
aS'kettle.n.01'
p12
aS'kettle.n.02'
p13
aS'water.n.06'
p14
asS'instanceCount'
p15
I6
sS'matrix'
p16
(dp17
g9
(dp18
g9
I0
ssg14
(dp19
S'water.n.06'
p20
I1
ssg8
(dp21
S'fill.v.01'
p22
I1
sg9
I1
ssg13
(dp23
g13
I0
ssg12
(dp24
g13
I1
ssg11
(dp25
S'carafe.n.01'
p26
I1
ssg10
(dp27
S'whiskey.n.01'
p28
I1
sssb.