ccopy_reg
_reconstructor
p0
(cutils.eval
ConfusionMatrix
p1
c__builtin__
object
p2
Ntp3
Rp4
(dp5
S'labels'
p6
(lp7
S'fill.v.01'
p8
aS'glass.n.02'
p9
aS'field_glass.n.01'
p10
aS'milk.n.01'
p11
aS'pan.n.03'
p12
aS'pan.n.01'
p13
aS'water.n.06'
p14
asS'instanceCount'
p15
I6
sS'matrix'
p16
(dp17
g13
(dp18
g13
I0
ssg12
(dp19
g13
I1
ssg10
(dp20
g10
I0
ssg14
(dp21
S'water.n.06'
p22
I1
ssg8
(dp23
S'fill.v.01'
p24
I2
ssg11
(dp25
S'milk.n.01'
p26
I1
ssg9
(dp27
g10
I1
sssb.