ccopy_reg
_reconstructor
p0
(cutils.eval
ConfusionMatrix
p1
c__builtin__
object
p2
Ntp3
Rp4
(dp5
S'labels'
p6
(lp7
S'put.v.01'
p8
aS'pepper.n.03'
p9
aS'pepper.n.04'
p10
aS'salt.n.02'
p11
aS'egg.n.02'
p12
aS'egg.n.01'
p13
aS'salmon.n.03'
p14
aS'plate.n.04'
p15
aS'plate.n.13'
p16
aS'mug.n.04'
p17
aS'countenance.n.03'
p18
aS'microwave.n.02'
p19
aS'spread.n.05'
p20
aS'bread.n.01'
p21
aS'bowl.n.01'
p22
aS'bowl.n.03'
p23
aS'cherry.n.03'
p24
aS'cake.n.03'
p25
aS'whipped_cream.n.01'
p26
aS'rib.n.03'
p27
aS'rib.n.01'
p28
aS'bowl.n.08'
p29
aS'rice.n.01'
p30
aS'pan.n.03'
p31
aS'pizza.n.01'
p32
aS'soup.n.01'
p33
aS'spoon.n.01'
p34
aS'batter.n.02'
p35
aS'dish.n.02'
p36
aS'oven.n.01'
p37
asS'instanceCount'
p38
I37
sS'matrix'
p39
(dp40
g16
(dp41
g16
I0
ssg33
(dp42
S'soup.n.01'
p43
I1
ssg21
(dp44
S'bread.n.01'
p45
I1
ssg23
(dp46
g23
I0
ssg22
(dp47
g23
I1
sg29
I1
ssg35
(dp48
S'batter.n.02'
p49
I1
ssg29
(dp50
g29
I0
ssg14
(dp51
S'salmon.n.03'
p52
I1
ssg31
(dp53
S'pan.n.03'
p54
I1
ssg19
(dp55
S'microwave.n.02'
p56
I2
ssg12
(dp57
g13
I1
ssg13
(dp58
g13
I0
ssg34
(dp59
S'spoon.n.01'
p60
I1
ssg27
(dp61
g28
I1
ssg11
(dp62
S'salt.n.02'
p63
I2
ssg18
(dp64
g18
I0
ssg15
(dp65
g16
I1
ssg10
(dp66
g10
I0
ssg28
(dp67
g28
I0
ssg9
(dp68
g10
I1
ssg20
(dp69
S'spread.n.05'
p70
I1
ssg26
(dp71
S'whipped_cream.n.01'
p72
I1
ssg37
(dp73
S'oven.n.01'
p74
I1
ssg17
(dp75
g18
I1
ssg30
(dp76
S'rice.n.01'
p77
I1
ssg8
(dp78
S'put.v.01'
p79
I12
ssg32
(dp80
S'pizza.n.01'
p81
I1
ssg25
(dp82
S'cake.n.03'
p83
I1
ssg24
(dp84
S'cherry.n.03'
p85
I1
ssg36
(dp86
S'dish.n.02'
p87
I1
sssb.