ccopy_reg
_reconstructor
p0
(cutils.eval
ConfusionMatrix
p1
c__builtin__
object
p2
Ntp3
Rp4
(dp5
S'labels'
p6
(lp7
S'put.v.01'
p8
aS'steak.n.01'
p9
aS'oven.n.01'
p10
aS'dressing.n.01'
p11
aS'dressing.n.04'
p12
aS'salad.n.01'
p13
aS'french_fries.n.01'
p14
aS'blender.n.01'
p15
aS'banana.n.02'
p16
aS'jam.n.01'
p17
aS'refrigerator.n.01'
p18
aS'coca_cola.n.01'
p19
aS'coke.n.01'
p20
aS'electric_refrigerator.n.01'
p21
aS'onion.n.01'
p22
aS'onion.n.03'
p23
aS'beef.n.02'
p24
aS'gripe.n.01'
p25
aS'plate.n.04'
p26
aS'plate.n.13'
p27
aS'pan.n.03'
p28
aS'chicken.n.01'
p29
aS'pepper.n.03'
p30
aS'capsicum.n.01'
p31
aS'salt.n.02'
p32
aS'salt.n.04'
p33
aS'egg.n.02'
p34
aS'salmon.n.03'
p35
aS'mug.n.04'
p36
aS'countenance.n.03'
p37
aS'microwave.n.02'
p38
aS'spread.n.05'
p39
aS'paste.n.03'
p40
aS'bread.n.01'
p41
asS'instanceCount'
p42
I37
sS'matrix'
p43
(dp44
g20
(dp45
g20
I0
ssg27
(dp46
g27
I0
ssg29
(dp47
S'chicken.n.01'
p48
I1
ssg24
(dp49
g25
I1
ssg18
(dp50
S'refrigerator.n.01'
p51
I1
ssg41
(dp52
S'bread.n.01'
p53
I1
ssg19
(dp54
g20
I1
ssg35
(dp55
S'salmon.n.03'
p56
I1
ssg28
(dp57
S'pan.n.03'
p58
I1
ssg37
(dp59
g37
I0
ssg38
(dp60
S'microwave.n.02'
p61
I1
ssg34
(dp62
S'egg.n.02'
p63
I1
ssg21
(dp64
S'electric_refrigerator.n.01'
p65
I1
ssg31
(dp66
g31
I0
ssg32
(dp67
g33
I1
ssg16
(dp68
S'banana.n.02'
p69
I1
ssg33
(dp70
g33
I0
ssg26
(dp71
g27
I2
ssg25
(dp72
g25
I0
ssg39
(dp73
g40
I1
ssg9
(dp74
S'steak.n.01'
p75
I1
ssg10
(dp76
S'oven.n.01'
p77
I1
ssg30
(dp78
g31
I1
ssg40
(dp79
g40
I0
ssg36
(dp80
g37
I1
ssg15
(dp81
S'blender.n.01'
p82
I1
ssg13
(dp83
S'salad.n.01'
p84
I1
ssg12
(dp85
g12
I0
ssg17
(dp86
S'jam.n.01'
p87
I1
ssg8
(dp88
S'put.v.01'
p89
I12
ssg11
(dp90
g12
I1
ssg14
(dp91
S'french_fries.n.01'
p92
I1
ssg22
(dp93
g23
I1
ssg23
(dp94
g23
I0
sssb.