ccopy_reg
_reconstructor
p0
(cutils.eval
ConfusionMatrix
p1
c__builtin__
object
p2
Ntp3
Rp4
(dp5
S'labels'
p6
(lp7
S'add.v.01'
p8
aS'ingredient.n.03'
p9
aS'apple.n.01'
p10
aS'pan.n.03'
p11
aS'butter.n.01'
p12
aS'flour.n.01'
p13
aS'egg.n.02'
p14
aS'mixing_bowl.n.01'
p15
asS'instanceCount'
p16
I11
sS'matrix'
p17
(dp18
g11
(dp19
S'pan.n.03'
p20
I1
ssg13
(dp21
S'flour.n.01'
p22
I1
ssg14
(dp23
S'egg.n.02'
p24
I1
ssg12
(dp25
S'butter.n.01'
p26
I1
ssg15
(dp27
S'mixing_bowl.n.01'
p28
I1
ssg9
(dp29
S'ingredient.n.03'
p30
I1
ssg10
(dp31
S'apple.n.01'
p32
I1
ssg8
(dp33
S'add.v.01'
p34
I4
sssb.