ccopy_reg
_reconstructor
p0
(cutils.eval
ConfusionMatrix
p1
c__builtin__
object
p2
Ntp3
Rp4
(dp5
S'labels'
p6
(lp7
S'add.v.01'
p8
aS'dressing.n.01'
p9
aS'stuffing.n.01'
p10
aS'salad.n.01'
p11
aS'milk.n.01'
p12
aS'milk.n.04'
p13
aS'water.n.06'
p14
aS'onion.n.03'
p15
aS'vegetable.n.01'
p16
asS'instanceCount'
p17
I10
sS'matrix'
p18
(dp19
g16
(dp20
S'vegetable.n.01'
p21
I1
ssg8
(dp22
S'add.v.01'
p23
I4
ssg14
(dp24
S'water.n.06'
p25
I1
ssg9
(dp26
g10
I1
ssg13
(dp27
g13
I0
ssg10
(dp28
g10
I0
ssg11
(dp29
S'salad.n.01'
p30
I1
ssg12
(dp31
g13
I1
ssg15
(dp32
S'onion.n.03'
p33
I1
sssb.