ccopy_reg
_reconstructor
p0
(cutils.eval
ConfusionMatrix
p1
c__builtin__
object
p2
Ntp3
Rp4
(dp5
S'labels'
p6
(lp7
S'add.v.01'
p8
aS'asparagus.n.02'
p9
aS'salad.n.01'
p10
aS'ingredient.n.03'
p11
aS'concoction.n.01'
p12
aS'cream.n.02'
p13
aS'cream.n.03'
p14
aS'pot.n.01'
p15
aS'pot.n.09'
p16
aS'bean.n.01'
p17
aS'mixing_bowl.n.01'
p18
aS'butter.n.01'
p19
aS'sugar.n.01'
p20
aS'pot.n.04'
p21
aS'rib.n.03'
p22
aS'corn.n.03'
p23
aS'dish.n.02'
p24
aS'dish.n.01'
p25
aS'apple.n.01'
p26
aS'pan.n.03'
p27
aS'flour.n.01'
p28
aS'egg.n.02'
p29
aS'vanilla.n.02'
p30
aS'french_fries.n.01'
p31
aS'steak.n.01'
p32
aS'salt.n.02'
p33
aS'meat.n.01'
p34
aS'dressing.n.01'
p35
aS'stuffing.n.01'
p36
aS'milk.n.01'
p37
aS'milk.n.04'
p38
aS'water.n.06'
p39
aS'onion.n.03'
p40
aS'vegetable.n.01'
p41
aS'sauce.n.01'
p42
asS'instanceCount'
p43
I116
sS'matrix'
p44
(dp45
g23
(dp46
S'salt.n.02'
p47
I0
sg23
I2
sS'french_fries.n.01'
p48
I0
sg22
I0
sg21
I0
sS'butter.n.01'
p49
I0
sS'mixing_bowl.n.01'
p50
I0
sS'steak.n.01'
p51
I0
sS'meat.n.01'
p52
I0
sg24
I0
sg25
I0
sS'pot.n.01'
p53
I0
sS'bean.n.01'
p54
I0
sS'add.v.01'
p55
I0
sS'sugar.n.01'
p56
I0
ssg18
(dp57
g23
I0
sg18
I4
sg24
I0
sg25
I0
sg38
I0
sg26
I0
sg8
I0
sg37
I0
sg27
I0
sg16
I0
sg28
I0
sg29
I0
sg19
I0
sg15
I0
sg9
I0
sg17
I0
sg12
I0
sg22
I0
sg13
I0
sg11
I0
sg14
I0
sg36
I0
sg39
I0
sg35
I0
sg21
I0
sg10
I0
sg20
I0
ssg24
(dp58
g47
I0
sg23
I0
sg48
I0
sg50
I0
sg22
I0
sg21
I0
sg49
I0
sg53
I0
sg51
I0
sg52
I0
sg24
I0
sg25
I2
sg54
I0
sg55
I0
sg56
I0
ssg25
(dp59
g47
I0
sg23
I0
sg48
I0
sg22
I0
sg21
I0
sg49
I0
sg50
I0
sg51
I0
sg52
I0
sg24
I0
sg25
I0
sg53
I0
sg54
I0
sg55
I0
sg56
I0
ssg38
(dp60
S'pan.n.03'
p61
I0
sS'flour.n.01'
p62
I0
sg37
I0
sS'egg.n.02'
p63
I0
sS'butter.n.01'
p64
I0
sS'mixing_bowl.n.01'
p65
I0
sg39
I0
sg35
I0
sg36
I0
sg41
I0
sg38
I0
sS'add.v.01'
p66
I0
sS'salad.n.01'
p67
I0
sg40
I0
ssg26
(dp68
g33
I0
sg27
I0
sg28
I0
sg29
I0
sS'butter.n.01'
p69
I0
sS'mixing_bowl.n.01'
p70
I0
sS'ingredient.n.03'
p71
I0
sg32
I0
sg34
I0
sg31
I0
sg26
I2
sS'add.v.01'
p72
I0
ssg8
(dp73
g23
I0
sg18
I0
sg24
I0
sg25
I0
sg38
I0
sg26
I0
sg8
I40
sg37
I0
sg27
I0
sg16
I0
sg28
I0
sg29
I0
sg19
I0
sg15
I0
sg9
I0
sg34
I0
sg30
I0
sg17
I0
sg12
I0
sg42
I0
sg33
I0
sg22
I0
sg13
I0
sg11
I0
sg14
I0
sg32
I0
sg36
I0
sg41
I0
sg39
I0
sg35
I0
sg31
I0
sg21
I0
sg10
I0
sg40
I0
sg20
I0
ssg37
(dp74
g61
I0
sg62
I0
sg63
I0
sg64
I0
sg65
I0
sg39
I0
sg35
I0
sg38
I2
sg41
I0
sg36
I0
sg67
I0
sg66
I0
sg37
I0
sg40
I0
ssg27
(dp75
g70
I0
sg38
I0
sg26
I0
sg72
I0
sg37
I0
sg27
I6
sg28
I0
sg29
I0
sg69
I0
sS'asparagus.n.02'
p76
I0
sg30
I0
sS'concoction.n.01'
p77
I0
sg42
I0
sS'cream.n.02'
p78
I0
sg71
I0
sS'cream.n.03'
p79
I0
sg36
I0
sS'vegetable.n.01'
p80
I0
sg39
I0
sg35
I0
sS'salad.n.01'
p81
I0
sS'onion.n.03'
p82
I0
ssg16
(dp83
g16
I0
sg18
I0
sg10
I0
sg19
I0
sg13
I0
sg11
I0
sg14
I0
sg9
I0
sg15
I0
sg17
I0
sg12
I0
sg8
I0
sg20
I0
ssg28
(dp84
g39
I0
sg27
I0
sg28
I2
sg37
I0
sg29
I0
sg69
I0
sg70
I0
sg71
I0
sg35
I0
sg38
I0
sg36
I0
sg26
I0
sg72
I0
sg67
I0
ssg29
(dp85
g39
I0
sg27
I0
sg28
I0
sg77
I0
sg37
I0
sg29
I4
sg69
I0
sg70
I0
sg71
I0
sg79
I0
sg76
I0
sg38
I0
sg78
I0
sg30
I0
sg36
I0
sg26
I0
sg35
I0
sg72
I0
sg81
I0
sS'sauce.n.01'
p86
I0
ssg19
(dp87
g23
I0
sg18
I0
sg24
I0
sg25
I0
sg38
I0
sg26
I0
sg8
I0
sg37
I0
sg27
I0
sg16
I0
sg28
I0
sg29
I0
sg19
I6
sg15
I0
sg9
I0
sS'vanilla.n.02'
p88
I0
sg17
I0
sg12
I0
sg42
I0
sg22
I0
sg13
I0
sg11
I0
sg14
I0
sg36
I0
sg80
I0
sg39
I0
sg35
I0
sg21
I0
sg10
I0
sg82
I0
sg20
I0
ssg15
(dp89
g23
I0
sg16
I1
sg18
I0
sg22
I0
sg10
I0
sg19
I0
sg15
I0
sg11
I0
sg14
I0
sg9
I0
sg13
I0
sg24
I0
sg25
I0
sg21
I1
sg17
I0
sg12
I0
sg8
I0
sg20
I0
ssg9
(dp90
S'egg.n.02'
p91
I0
sS'pan.n.03'
p92
I0
sg16
I0
sg18
I0
sg10
I0
sg19
I0
sg30
I0
sg13
I0
sg11
I0
sg14
I0
sg9
I2
sg15
I0
sg17
I0
sg12
I0
sg8
I0
sg20
I0
ssg34
(dp93
g33
I0
sS'corn.n.03'
p94
I0
sS'dish.n.01'
p95
I0
sS'rib.n.03'
p96
I0
sS'ingredient.n.03'
p97
I0
sg32
I0
sg34
I2
sg31
I0
sS'apple.n.01'
p98
I0
sS'add.v.01'
p99
I0
sS'dish.n.02'
p100
I0
ssg30
(dp101
g92
I0
sg42
I0
sg91
I0
sS'butter.n.01'
p102
I0
sg78
I0
sS'ingredient.n.03'
p103
I0
sg79
I0
sg76
I0
sg80
I0
sg30
I4
sg77
I0
sS'add.v.01'
p104
I0
sg81
I0
sg82
I0
ssg17
(dp105
g23
I0
sg16
I0
sg18
I0
sg22
I0
sg10
I0
sg19
I0
sg13
I0
sg11
I0
sg14
I0
sg9
I0
sg24
I0
sg25
I0
sg15
I0
sg17
I2
sg12
I0
sg8
I0
sg21
I0
sg20
I0
ssg12
(dp106
g91
I0
sg92
I0
sg16
I0
sg18
I0
sg10
I0
sg19
I0
sg30
I0
sg13
I0
sg11
I0
sg14
I0
sg9
I0
sg15
I0
sg17
I0
sg12
I2
sg8
I0
sg20
I0
ssg42
(dp107
g80
I0
sS'egg.n.02'
p108
I0
sg102
I0
sS'cream.n.02'
p109
I0
sS'pan.n.03'
p110
I0
sS'cream.n.03'
p111
I0
sg42
I2
sg88
I0
sS'add.v.01'
p112
I0
sg82
I0
ssg33
(dp113
g33
I2
sg94
I0
sg95
I0
sg96
I0
sg97
I0
sg32
I0
sg34
I0
sg31
I0
sg98
I0
sg99
I0
sg100
I0
ssg22
(dp114
g47
I0
sg23
I0
sg48
I0
sg50
I0
sg22
I2
sg21
I0
sg49
I0
sg53
I0
sg51
I0
sg52
I0
sg24
I0
sg25
I0
sg54
I0
sg55
I0
sg56
I0
ssg13
(dp115
g91
I0
sg92
I0
sg16
I0
sg18
I0
sg42
I0
sg10
I0
sg19
I0
sg30
I0
sg13
I1
sg11
I0
sg14
I3
sg9
I0
sg80
I0
sg15
I0
sg17
I0
sg12
I0
sg8
I0
sg82
I0
sg20
I0
ssg11
(dp116
g18
I0
sg26
I0
sg8
I0
sg27
I0
sg16
I0
sg28
I0
sg29
I0
sg19
I0
sg15
I0
sg9
I0
sg34
I0
sg30
I0
sg17
I0
sg12
I0
sg33
I0
sg13
I0
sg11
I4
sg14
I0
sg32
I0
sg31
I0
sg10
I0
sg20
I0
ssg14
(dp117
g91
I0
sg92
I0
sg16
I0
sg18
I0
sg10
I0
sg19
I0
sg30
I0
sg13
I0
sg14
I0
sg11
I0
sg9
I0
sg15
I0
sg17
I0
sg12
I0
sg8
I0
sg86
I0
sg20
I0
ssg32
(dp118
g33
I0
sg94
I0
sg95
I0
sg96
I0
sg97
I0
sg32
I2
sg34
I0
sg31
I0
sg98
I0
sg99
I0
sg100
I0
ssg36
(dp119
g61
I0
sg62
I0
sg37
I0
sg63
I0
sg64
I0
sg65
I0
sg39
I0
sg35
I0
sg38
I0
sg41
I0
sg36
I0
sg66
I0
sg67
I0
sg40
I0
ssg41
(dp120
g41
I2
sS'add.v.01'
p121
I0
sg102
I0
sg88
I0
sg109
I0
sS'water.n.06'
p122
I0
sS'dressing.n.01'
p123
I0
sS'milk.n.04'
p124
I0
sg42
I0
sg110
I0
sS'stuffing.n.01'
p125
I0
sS'salad.n.01'
p126
I0
sS'milk.n.01'
p127
I0
sg40
I0
ssg39
(dp128
g61
I0
sg62
I0
sg37
I0
sg63
I0
sg64
I0
sg65
I0
sg39
I2
sg35
I0
sg38
I0
sg41
I0
sg36
I0
sg66
I0
sg67
I0
sg40
I0
ssg35
(dp129
g61
I0
sg62
I0
sg37
I0
sg63
I0
sg64
I0
sg65
I0
sg39
I0
sg35
I0
sg38
I0
sg41
I0
sg36
I2
sg66
I0
sg67
I0
sg40
I0
ssg31
(dp130
g33
I0
sg94
I0
sg95
I0
sg96
I0
sg97
I0
sg32
I0
sg34
I0
sg31
I2
sg98
I0
sg99
I0
sg100
I0
ssg21
(dp131
g23
I0
sg50
I0
sg22
I0
sg21
I0
sg49
I0
sg53
I0
sg24
I0
sg25
I0
sg54
I0
sg55
I0
sg56
I0
ssg10
(dp132
g18
I0
sg38
I0
sg8
I0
sg37
I0
sg92
I0
sg16
I0
sg62
I0
sg91
I0
sg19
I0
sg15
I0
sg9
I0
sg30
I0
sg17
I0
sg12
I0
sg13
I0
sg11
I0
sg14
I0
sg36
I0
sg41
I0
sg39
I0
sg35
I0
sg10
I4
sg40
I0
sg20
I0
ssg40
(dp133
g41
I0
sg121
I0
sg102
I0
sg88
I0
sg109
I0
sg122
I0
sg123
I0
sg124
I0
sg42
I0
sg110
I0
sg125
I0
sg126
I0
sg127
I0
sg40
I2
ssg20
(dp134
g23
I0
sg16
I0
sg18
I0
sg22
I0
sg10
I0
sg19
I0
sg13
I0
sg11
I0
sg14
I0
sg9
I0
sg24
I0
sg25
I0
sg15
I0
sg17
I0
sg12
I0
sg8
I0
sg21
I0
sg20
I2
sssb.