ccopy_reg
_reconstructor
p0
(cutils.eval
ConfusionMatrix
p1
c__builtin__
object
p2
Ntp3
Rp4
(dp5
S'labels'
p6
(lp7
S'add.v.01'
p8
aS'asparagus.n.02'
p9
aS'salad.n.01'
p10
aS'ingredient.n.03'
p11
aS'concoction.n.01'
p12
aS'cream.n.02'
p13
aS'cream.n.03'
p14
aS'pot.n.01'
p15
aS'pot.n.09'
p16
aS'bean.n.01'
p17
aS'mixing_bowl.n.01'
p18
aS'butter.n.01'
p19
aS'sugar.n.01'
p20
asS'instanceCount'
p21
I14
sS'matrix'
p22
(dp23
g16
(dp24
g16
I0
ssg18
(dp25
S'mixing_bowl.n.01'
p26
I1
ssg10
(dp27
S'salad.n.01'
p28
I1
ssg19
(dp29
S'butter.n.01'
p30
I1
ssg13
(dp31
g14
I1
ssg11
(dp32
S'ingredient.n.03'
p33
I1
ssg14
(dp34
g14
I0
ssg9
(dp35
S'asparagus.n.02'
p36
I1
ssg15
(dp37
g16
I1
ssg17
(dp38
S'bean.n.01'
p39
I1
ssg12
(dp40
S'concoction.n.01'
p41
I1
ssg8
(dp42
S'add.v.01'
p43
I4
ssg20
(dp44
S'sugar.n.01'
p45
I1
sssb.