ccopy_reg
_reconstructor
p0
(cutils.eval
ConfusionMatrix
p1
c__builtin__
object
p2
Ntp3
Rp4
(dp5
S'labels'
p6
(lp7
S'add.v.01'
p8
aS'rib.n.03'
p9
aS'corn.n.03'
p10
aS'dish.n.02'
p11
aS'dish.n.01'
p12
aS'french_fries.n.01'
p13
aS'steak.n.01'
p14
aS'salt.n.02'
p15
aS'meat.n.01'
p16
asS'instanceCount'
p17
I11
sS'matrix'
p18
(dp19
g15
(dp20
S'salt.n.02'
p21
I1
ssg10
(dp22
S'corn.n.03'
p23
I1
ssg12
(dp24
g12
I0
ssg9
(dp25
S'rib.n.03'
p26
I1
ssg14
(dp27
S'steak.n.01'
p28
I1
ssg11
(dp29
g12
I1
ssg13
(dp30
S'french_fries.n.01'
p31
I1
ssg8
(dp32
S'add.v.01'
p33
I4
ssg16
(dp34
S'meat.n.01'
p35
I1
sssb.