ccopy_reg
_reconstructor
p0
(cutils.eval
ConfusionMatrix
p1
c__builtin__
object
p2
Ntp3
Rp4
(dp5
S'labels'
p6
(lp7
S'pan.n.03'
p8
aS'add.v.01'
p9
aS'butter.n.01'
p10
aS'flour.n.01'
p11
aS'egg.n.02'
p12
aS'mixing_bowl.n.01'
p13
aS'dressing.n.01'
p14
aS'stuffing.n.01'
p15
aS'salad.n.01'
p16
aS'milk.n.01'
p17
aS'milk.n.04'
p18
aS'water.n.06'
p19
asS'instanceCount'
p20
I13
sS'matrix'
p21
(dp22
g8
(dp23
S'pan.n.03'
p24
I1
ssg11
(dp25
S'flour.n.01'
p26
I1
ssg17
(dp27
g18
I1
ssg12
(dp28
S'egg.n.02'
p29
I1
ssg10
(dp30
S'butter.n.01'
p31
I1
ssg13
(dp32
S'mixing_bowl.n.01'
p33
I1
ssg19
(dp34
S'water.n.06'
p35
I1
ssg14
(dp36
g15
I1
ssg18
(dp37
g18
I0
ssg15
(dp38
g15
I0
ssg9
(dp39
S'add.v.01'
p40
I4
ssg16
(dp41
S'salad.n.01'
p42
I1
sssb.