ccopy_reg
_reconstructor
p0
(cutils.eval
ConfusionMatrix
p1
c__builtin__
object
p2
Ntp3
Rp4
(dp5
S'labels'
p6
(lp7
S'flesh.n.01'
p8
aS'pulp.n.02'
p9
aS'slice.v.03'
p10
aS'fill.v.01'
p11
aS'mug.n.04'
p12
aS'kettle.n.01'
p13
aS'water.n.06'
p14
asS'instanceCount'
p15
I7
sS'matrix'
p16
(dp17
g10
(dp18
S'slice.v.03'
p19
I1
ssg12
(dp20
S'mug.n.04'
p21
I1
ssg8
(dp22
g9
I1
ssg14
(dp23
S'water.n.06'
p24
I1
ssg11
(dp25
S'fill.v.01'
p26
I2
ssg13
(dp27
S'kettle.n.01'
p28
I1
ssg9
(dp29
g9
I0
sssb.