ccopy_reg
_reconstructor
p0
(cutils.eval
ConfusionMatrix
p1
c__builtin__
object
p2
Ntp3
Rp4
(dp5
S'labels'
p6
(lp7
S'cheese.n.01'
p8
aS'slice.v.03'
p9
aS'flesh.n.01'
p10
aS'human_body.n.01'
p11
aS'fill.v.01'
p12
aS'foam.n.01'
p13
aS'mug.n.04'
p14
asS'instanceCount'
p15
I7
sS'matrix'
p16
(dp17
g8
(dp18
S'cheese.n.01'
p19
I1
ssg10
(dp20
g11
I1
ssg12
(dp21
S'fill.v.01'
p22
I1
ssg11
(dp23
g11
I0
ssg9
(dp24
S'slice.v.03'
p25
I2
ssg13
(dp26
S'foam.n.01'
p27
I1
ssg14
(dp28
S'mug.n.04'
p29
I1
sssb.