ccopy_reg
_reconstructor
p0
(cutils.eval
ConfusionMatrix
p1
c__builtin__
object
p2
Ntp3
Rp4
(dp5
S'labels'
p6
(lp7
S'fill.v.01'
p8
aS'kettle.n.01'
p9
aS'water.n.06'
p10
aS'opening.n.01'
p11
aS'gap.n.03'
p12
aS'fill.v.09'
p13
aS'batter.n.02'
p14
aS'piece.n.08'
p15
aS'slice.n.06'
p16
aS'pizza.n.01'
p17
aS'slice.v.03'
p18
asS'instanceCount'
p19
I9
sS'matrix'
p20
(dp21
g18
(dp22
S'slice.v.03'
p23
I1
ssg12
(dp24
g12
I0
ssg13
(dp25
S'fill.v.01'
p26
I1
ssg16
(dp27
g16
I0
ssg10
(dp28
S'water.n.06'
p29
I1
ssg8
(dp30
S'fill.v.01'
p31
I1
ssg9
(dp32
S'kettle.n.01'
p33
I1
ssg14
(dp34
S'batter.n.02'
p35
I1
ssg15
(dp36
g16
I1
ssg17
(dp37
S'pizza.n.01'
p38
I1
ssg11
(dp39
g12
I1
sssb.