ccopy_reg
_reconstructor
p0
(cutils.eval
ConfusionMatrix
p1
c__builtin__
object
p2
Ntp3
Rp4
(dp5
S'labels'
p6
(lp7
S'fill.v.01'
p8
aS'pan.n.01'
p9
aS'water.n.06'
p10
aS'pitcher.n.02'
p11
aS'milk.n.01'
p12
aS'cheese.n.01'
p13
aS'slice.v.03'
p14
asS'instanceCount'
p15
I8
sS'matrix'
p16
(dp17
g9
(dp18
S'pan.n.01'
p19
I1
ssg13
(dp20
S'cheese.n.01'
p21
I1
ssg14
(dp22
S'slice.v.03'
p23
I1
ssg10
(dp24
S'water.n.06'
p25
I1
ssg8
(dp26
S'fill.v.01'
p27
I2
ssg11
(dp28
S'pitcher.n.02'
p29
I1
ssg12
(dp30
S'milk.n.01'
p31
I1
sssb.