ccopy_reg
_reconstructor
p0
(cutils.eval
ConfusionMatrix
p1
c__builtin__
object
p2
Ntp3
Rp4
(dp5
S'labels'
p6
(lp7
S'fill.v.01'
p8
aS'foam.n.01'
p9
aS'mug.n.04'
p10
aS'chump.n.01'
p11
aS'kettle.n.01'
p12
aS'water.n.06'
p13
aS'opening.n.01'
p14
aS'gap.n.03'
p15
aS'fill.v.09'
p16
aS'batter.n.02'
p17
asS'instanceCount'
p18
I9
sS'matrix'
p19
(dp20
g10
(dp21
g11
I1
ssg11
(dp22
g11
I0
ssg15
(dp23
g15
I0
ssg16
(dp24
S'fill.v.01'
p25
I1
ssg13
(dp26
S'water.n.06'
p27
I1
ssg8
(dp28
S'fill.v.01'
p29
I2
ssg12
(dp30
S'kettle.n.01'
p31
I1
ssg17
(dp32
S'batter.n.02'
p33
I1
ssg9
(dp34
S'foam.n.01'
p35
I1
ssg14
(dp36
g15
I1
sssb.