ccopy_reg
_reconstructor
p0
(cutils.eval
ConfusionMatrix
p1
c__builtin__
object
p2
Ntp3
Rp4
(dp5
S'labels'
p6
(lp7
S'jar.n.01'
p8
aS'fill.v.01'
p9
aS'opening.n.01'
p10
aS'gap.n.03'
p11
aS'batter.n.02'
p12
aS'teapot.n.01'
p13
aS'water.n.06'
p14
asS'instanceCount'
p15
I8
sS'matrix'
p16
(dp17
g13
(dp18
S'teapot.n.01'
p19
I1
ssg14
(dp20
S'water.n.06'
p21
I1
ssg9
(dp22
S'fill.v.01'
p23
I3
ssg11
(dp24
g11
I0
ssg12
(dp25
S'batter.n.02'
p26
I1
ssg8
(dp27
S'jar.n.01'
p28
I1
ssg10
(dp29
g11
I1
sssb.