ccopy_reg
_reconstructor
p0
(cutils.eval
ConfusionMatrix
p1
c__builtin__
object
p2
Ntp3
Rp4
(dp5
S'labels'
p6
(lp7
S'fill.v.01'
p8
aS'kettle.n.01'
p9
aS'water.n.06'
p10
aS'whiskey.n.01'
p11
aS'carafe.n.01'
p12
aS'glass.n.02'
p13
aS'milk.n.01'
p14
aS'jar.n.01'
p15
asS'instanceCount'
p16
I11
sS'matrix'
p17
(dp18
g14
(dp19
S'milk.n.01'
p20
I1
ssg10
(dp21
S'water.n.06'
p22
I1
ssg8
(dp23
S'fill.v.01'
p24
I4
ssg9
(dp25
S'kettle.n.01'
p26
I1
ssg15
(dp27
S'jar.n.01'
p28
I1
ssg12
(dp29
S'carafe.n.01'
p30
I1
ssg11
(dp31
S'whiskey.n.01'
p32
I1
ssg13
(dp33
S'glass.n.02'
p34
I1
sssb.