ccopy_reg
_reconstructor
p0
(cutils.eval
ConfusionMatrix
p1
c__builtin__
object
p2
Ntp3
Rp4
(dp5
S'labels'
p6
(lp7
S'fill.v.01'
p8
aS'blender.n.01'
p9
aS'apple.n.01'
p10
aS'cup.n.01'
p11
aS'cola.n.02'
p12
aS'pitcher.n.02'
p13
aS'milk.n.01'
p14
aS'ice.n.01'
p15
aS'ice.n.05'
p16
aS'bowl.n.01'
p17
asS'instanceCount'
p18
I12
sS'matrix'
p19
(dp20
g12
(dp21
S'cola.n.02'
p22
I1
ssg9
(dp23
S'blender.n.01'
p24
I1
ssg11
(dp25
S'cup.n.01'
p26
I1
ssg15
(dp27
g16
I1
ssg13
(dp28
S'pitcher.n.02'
p29
I1
ssg17
(dp30
S'bowl.n.01'
p31
I1
ssg16
(dp32
g16
I0
ssg10
(dp33
S'apple.n.01'
p34
I1
ssg8
(dp35
S'fill.v.01'
p36
I4
ssg14
(dp37
S'milk.n.01'
p38
I1
sssb.