ccopy_reg
_reconstructor
p0
(cutils.eval
ConfusionMatrix
p1
c__builtin__
object
p2
Ntp3
Rp4
(dp5
S'labels'
p6
(lp7
S'fill.v.01'
p8
aS'glass.n.02'
p9
aS'milk.n.01'
p10
aS'jar.n.01'
p11
aS'saltcellar.n.01'
p12
aS'salt.n.02'
p13
aS'gravy.n.01'
p14
aS'gravy.n.02'
p15
asS'instanceCount'
p16
I11
sS'matrix'
p17
(dp18
g14
(dp19
g15
I1
ssg13
(dp20
S'salt.n.02'
p21
I1
ssg15
(dp22
g15
I0
ssg12
(dp23
S'saltcellar.n.01'
p24
I1
ssg8
(dp25
S'fill.v.01'
p26
I4
ssg11
(dp27
S'jar.n.01'
p28
I2
ssg10
(dp29
S'milk.n.01'
p30
I1
ssg9
(dp31
S'glass.n.02'
p32
I1
sssb.