ccopy_reg
_reconstructor
p0
(cutils.eval
ConfusionMatrix
p1
c__builtin__
object
p2
Ntp3
Rp4
(dp5
S'labels'
p6
(lp7
S'wok.n.01'
p8
aS'fill.v.01'
p9
aS'rice.n.01'
p10
aS'pan.n.03'
p11
aS'water.n.06'
p12
aS'thermos.n.01'
p13
aS'coffee.n.01'
p14
aS'teapot.n.01'
p15
asS'instanceCount'
p16
I12
sS'matrix'
p17
(dp18
g11
(dp19
S'pan.n.03'
p20
I1
ssg13
(dp21
S'thermos.n.01'
p22
I1
ssg15
(dp23
S'teapot.n.01'
p24
I1
ssg8
(dp25
S'wok.n.01'
p26
I1
ssg10
(dp27
S'rice.n.01'
p28
I1
ssg14
(dp29
S'coffee.n.01'
p30
I1
ssg12
(dp31
S'water.n.06'
p32
I2
ssg9
(dp33
S'fill.v.01'
p34
I4
sssb.