ccopy_reg
_reconstructor
p0
(cutils.eval
ConfusionMatrix
p1
c__builtin__
object
p2
Ntp3
Rp4
(dp5
S'labels'
p6
(lp7
S'olive.n.01'
p8
aS'olive.n.04'
p9
aS'slice.v.03'
p10
aS'cabbage.n.01'
p11
aS'mushroom.n.05'
p12
aS'meat.n.01'
p13
aS'cleaver.n.01'
p14
asS'instanceCount'
p15
I9
sS'matrix'
p16
(dp17
g12
(dp18
S'mushroom.n.05'
p19
I1
ssg10
(dp20
S'slice.v.03'
p21
I4
ssg8
(dp22
g9
I1
ssg11
(dp23
S'cabbage.n.01'
p24
I1
ssg9
(dp25
g9
I0
ssg13
(dp26
S'meat.n.01'
p27
I1
ssg14
(dp28
S'cleaver.n.01'
p29
I1
sssb.