ccopy_reg
_reconstructor
p0
(cutils.eval
ConfusionMatrix
p1
c__builtin__
object
p2
Ntp3
Rp4
(dp5
S'labels'
p6
(lp7
S'knife.n.01'
p8
aS'tongue.n.03'
p9
aS'banana.n.02'
p10
aS'slice.v.03'
p11
aS'slice.v.02'
p12
aS'cheese.n.01'
p13
aS'flesh.n.01'
p14
aS'human_body.n.01'
p15
aS'onion.n.01'
p16
aS'onion.n.03'
p17
aS'pepper.n.04'
p18
aS'pepper.n.03'
p19
asS'instanceCount'
p20
I10
sS'matrix'
p21
(dp22
g12
(dp23
g12
I0
ssg11
(dp24
g12
I2
sS'slice.v.03'
p25
I2
ssg8
(dp26
g9
I1
ssg10
(dp27
S'banana.n.02'
p28
I1
ssg13
(dp29
S'cheese.n.01'
p30
I1
ssg18
(dp31
g19
I1
ssg14
(dp32
g15
I1
ssg19
(dp33
g19
I0
ssg15
(dp34
g15
I0
ssg9
(dp35
g9
I0
ssg16
(dp36
g17
I1
ssg17
(dp37
g17
I0
sssb.