ccopy_reg
_reconstructor
p0
(cutils.eval
ConfusionMatrix
p1
c__builtin__
object
p2
Ntp3
Rp4
(dp5
S'labels'
p6
(lp7
S'slice.v.03'
p8
aS'slice.v.02'
p9
aS'onion.n.01'
p10
aS'onion.n.03'
p11
aS'pepper.n.04'
p12
aS'pepper.n.01'
p13
aS'piece.n.08'
p14
aS'slice.n.05'
p15
aS'pizza.n.01'
p16
aS'knife.n.01'
p17
aS'tongue.n.03'
p18
aS'banana.n.02'
p19
aS'cheese.n.01'
p20
aS'slice.n.06'
p21
aS'slice.v.04'
p22
aS'knife.n.02'
p23
aS'tall_mallow.n.01'
p24
aS'flesh.n.01'
p25
aS'pulp.n.02'
p26
aS'human_body.n.01'
p27
aS'pepper.n.03'
p28
asS'instanceCount'
p29
I52
sS'matrix'
p30
(dp31
g9
(dp32
g9
I0
sg8
I0
sg24
I0
sg17
I0
sg22
I0
sg19
I0
sg20
I0
sg12
I0
sg23
I0
sg13
I0
sg28
I0
sg15
I0
sg27
I0
sg26
I0
sg18
I0
sg25
I0
sg14
I0
sg16
I0
sg10
I0
sg21
I0
sg11
I0
ssg8
(dp33
g9
I7
sg8
I7
sg24
I0
sg17
I0
sg22
I6
sg19
I0
sg20
I0
sg12
I0
sg23
I0
sg13
I0
sg28
I0
sg15
I0
sg27
I0
sg26
I0
sg18
I0
sg25
I0
sg14
I0
sg16
I0
sg10
I0
sg21
I0
sg11
I0
ssg24
(dp34
S'slice.v.02'
p35
I0
sS'slice.v.03'
p36
I0
sS'knife.n.01'
p37
I0
sS'banana.n.02'
p38
I0
sg22
I0
sg23
I0
sS'pepper.n.04'
p39
I0
sg25
I0
sg21
I0
sS'pizza.n.01'
p40
I0
sS'cheese.n.01'
p41
I0
sS'pepper.n.01'
p42
I0
sS'piece.n.08'
p43
I0
sg24
I0
sS'onion.n.01'
p44
I0
sg26
I0
ssg17
(dp45
g9
I0
sg8
I0
sg24
I0
sg17
I1
sg22
I0
sg19
I0
sg20
I0
sg12
I0
sg23
I1
sg13
I0
sg28
I0
sg15
I0
sg27
I0
sg26
I0
sg18
I2
sg25
I0
sg14
I0
sg16
I0
sg10
I0
sg21
I0
sg11
I0
ssg22
(dp46
g35
I0
sg36
I0
sg37
I0
sg38
I0
sg22
I0
sg23
I0
sg39
I0
sg25
I0
sg21
I0
sg40
I0
sg41
I0
sg42
I0
sg43
I0
sg24
I0
sg44
I0
sg26
I0
ssg19
(dp47
g9
I0
sg8
I0
sg24
I0
sg17
I0
sg22
I0
sg19
I4
sg20
I0
sg12
I0
sg23
I0
sg13
I0
sg28
I0
sg15
I0
sg27
I0
sg26
I0
sg18
I0
sg25
I0
sg14
I0
sg16
I0
sg10
I0
sg21
I0
sg11
I0
ssg20
(dp48
g9
I0
sg20
I2
sg24
I2
sg17
I0
sg22
I0
sg19
I0
sg8
I0
sg12
I0
sg23
I0
sg13
I0
sg28
I0
sg15
I0
sg27
I0
sg26
I0
sg18
I0
sg25
I0
sg14
I0
sg16
I0
sg10
I0
sg21
I0
sg11
I0
ssg12
(dp49
g9
I0
sg8
I0
sS'tall_mallow.n.01'
p50
I0
sg17
I0
sS'slice.v.04'
p51
I0
sg19
I0
sg20
I0
sg12
I1
sS'flesh.n.01'
p52
I0
sg13
I2
sg28
I1
sg15
I0
sg27
I0
sg18
I0
sg14
I0
sg16
I0
sg10
I0
sS'slice.n.06'
p53
I0
sg11
I0
ssg23
(dp54
g35
I0
sg36
I0
sg37
I0
sg38
I0
sg22
I0
sg23
I0
sg25
I0
sg21
I0
sg40
I0
sg41
I0
sg43
I0
sg24
I0
sg26
I0
ssg13
(dp55
g9
I0
sg8
I0
sg50
I0
sg17
I0
sg51
I0
sg19
I0
sg20
I0
sg12
I0
sS'flesh.n.01'
p56
I0
sg13
I0
sg15
I0
sg18
I0
sg14
I0
sg16
I0
sg10
I0
sg53
I0
sg11
I0
ssg28
(dp57
S'slice.v.02'
p58
I0
sS'slice.v.03'
p59
I0
sS'knife.n.01'
p60
I0
sS'banana.n.02'
p61
I0
sS'cheese.n.01'
p62
I0
sS'pepper.n.04'
p63
I0
sg52
I0
sg28
I0
sg27
I0
sS'tongue.n.03'
p64
I0
sS'onion.n.01'
p65
I0
sS'onion.n.03'
p66
I0
ssg15
(dp67
g9
I0
sg8
I0
sg17
I0
sg19
I0
sg20
I0
sg12
I0
sg13
I0
sg15
I0
sg18
I0
sg14
I0
sg16
I0
sg10
I0
sg11
I0
ssg27
(dp68
g58
I0
sg59
I0
sg60
I0
sg61
I0
sg62
I0
sg63
I0
sg52
I0
sS'slice.n.06'
p69
I0
sg28
I0
sS'pizza.n.01'
p70
I0
sg27
I0
sg64
I0
sS'piece.n.08'
p71
I0
sg65
I0
sg66
I0
ssg26
(dp72
g35
I0
sg36
I0
sg37
I0
sg38
I0
sg22
I0
sg23
I0
sg25
I0
sg21
I0
sg40
I0
sg41
I0
sg43
I0
sg24
I0
sg26
I0
ssg18
(dp73
g9
I0
sg8
I0
sg17
I0
sg19
I0
sg20
I0
sg12
I0
sg52
I0
sg13
I0
sg28
I0
sg15
I0
sg27
I0
sg18
I0
sg14
I0
sg16
I0
sg10
I0
sg11
I0
ssg25
(dp74
g35
I0
sg36
I0
sg37
I0
sg38
I0
sg22
I0
sg25
I1
sg63
I0
sg23
I0
sg21
I0
sg28
I0
sg40
I0
sg41
I0
sg27
I2
sg42
I0
sg66
I0
sg64
I0
sg43
I0
sg24
I0
sg65
I0
sg26
I1
ssg14
(dp75
g9
I0
sg8
I0
sg24
I0
sg17
I0
sg22
I0
sg19
I0
sg20
I0
sg12
I0
sg23
I0
sg13
I0
sg15
I1
sS'human_body.n.01'
p76
I0
sg26
I0
sg18
I0
sg25
I0
sg14
I0
sg16
I0
sg10
I0
sg21
I3
sg11
I0
ssg16
(dp77
g9
I0
sg8
I0
sg24
I0
sg17
I0
sg22
I0
sg19
I0
sg20
I0
sg12
I0
sg23
I0
sg13
I0
sg16
I4
sg76
I0
sg26
I0
sg18
I0
sg25
I0
sg14
I0
sg15
I0
sg10
I0
sg21
I0
sg11
I0
ssg10
(dp78
g9
I0
sg8
I0
sg50
I0
sg17
I0
sg51
I0
sg19
I0
sg20
I0
sg12
I0
sg52
I0
sg13
I0
sg28
I0
sg15
I0
sg27
I0
sg18
I0
sg14
I0
sg16
I0
sg10
I1
sg53
I0
sg11
I3
ssg21
(dp79
g35
I0
sg36
I0
sg37
I0
sg38
I0
sg22
I0
sg23
I0
sg39
I0
sg25
I0
sg21
I0
sg40
I0
sg41
I0
sg76
I0
sg42
I0
sS'onion.n.03'
p80
I0
sg43
I0
sg24
I0
sg44
I0
sg26
I0
ssg11
(dp81
g9
I0
sg8
I0
sg17
I0
sg19
I0
sg20
I0
sg12
I0
sg52
I0
sg13
I0
sg28
I0
sg15
I0
sg27
I0
sg18
I0
sg14
I0
sg16
I0
sg10
I0
sg69
I0
sg11
I0
sssb.