ccopy_reg
_reconstructor
p0
(cutils.eval
ConfusionMatrix
p1
c__builtin__
object
p2
Ntp3
Rp4
(dp5
S'labels'
p6
(lp7
S'flesh.n.01'
p8
aS'pulp.n.02'
p9
aS'slice.v.03'
p10
aS'cabbage.n.01'
p11
aS'tomato.n.01'
p12
aS'knife.n.01'
p13
aS'meat.n.01'
p14
aS'cleaver.n.01'
p15
aS'zucchini.n.01'
p16
aS'zucchini.n.02'
p17
aS'egg.n.02'
p18
aS'piece.n.08'
p19
aS'mushroom.n.05'
p20
aS'onion.n.03'
p21
aS'onion.n.02'
p22
aS'mustard.n.02'
p23
aS'mustard.n.01'
p24
aS'vegetable.n.01'
p25
aS'olive.n.01'
p26
aS'olive.n.04'
p27
aS'lemon.n.01'
p28
aS'potato.n.01'
p29
aS'slice.n.06'
p30
aS'green_onion.n.01'
p31
aS'pizza.n.01'
p32
aS'banana.n.02'
p33
aS'bacon.n.01'
p34
aS'bread.n.01'
p35
aS'cheese.n.01'
p36
aS'orange.n.01'
p37
aS'tomato.n.02'
p38
aS'human_body.n.01'
p39
asS'instanceCount'
p40
I260
sS'matrix'
p41
(dp42
g20
(dp43
g20
I5
sg36
I0
sg37
I0
sg17
I0
sg16
I0
sg13
I0
sS'green_onion.n.01'
p44
I0
sg24
I0
sg23
I0
sg18
I0
sg12
I0
sg14
I0
sg29
I0
sg15
I0
sg10
I0
sg26
I0
sg11
I0
sS'banana.n.02'
p45
I0
sg27
I0
sg19
I0
sg25
I0
sg8
I0
sg30
I0
sS'pizza.n.01'
p46
I0
sg9
I0
sg28
I0
sg38
I0
sg21
I0
sg22
I0
ssg36
(dp47
S'mushroom.n.05'
p48
I0
sg36
I5
sS'bread.n.01'
p49
I0
sg37
I0
sS'zucchini.n.02'
p50
I0
sS'zucchini.n.01'
p51
I0
sS'knife.n.01'
p52
I0
sS'green_onion.n.01'
p53
I0
sS'mustard.n.01'
p54
I0
sS'mustard.n.02'
p55
I0
sS'egg.n.02'
p56
I0
sS'tomato.n.01'
p57
I0
sS'bacon.n.01'
p58
I0
sS'meat.n.01'
p59
I0
sS'potato.n.01'
p60
I0
sS'cleaver.n.01'
p61
I0
sS'slice.v.03'
p62
I0
sS'cabbage.n.01'
p63
I0
sS'banana.n.02'
p64
I0
sg39
I0
sS'piece.n.08'
p65
I0
sS'flesh.n.01'
p66
I0
sS'slice.n.06'
p67
I0
sS'pizza.n.01'
p68
I0
sS'pulp.n.02'
p69
I0
sS'lemon.n.01'
p70
I0
sS'onion.n.03'
p71
I0
sS'onion.n.02'
p72
I0
ssg35
(dp73
S'cheese.n.01'
p74
I0
sg35
I5
sS'orange.n.01'
p75
I0
sS'zucchini.n.02'
p76
I0
sS'zucchini.n.01'
p77
I0
sS'cabbage.n.01'
p78
I0
sg31
I0
sS'egg.n.02'
p79
I0
sS'tomato.n.01'
p80
I0
sg34
I0
sS'meat.n.01'
p81
I0
sS'potato.n.01'
p82
I0
sS'cleaver.n.01'
p83
I0
sS'slice.v.03'
p84
I0
sS'olive.n.01'
p85
I0
sS'knife.n.01'
p86
I0
sg33
I0
sS'olive.n.04'
p87
I0
sg39
I0
sS'piece.n.08'
p88
I0
sS'vegetable.n.01'
p89
I0
sS'flesh.n.01'
p90
I0
sS'slice.n.06'
p91
I0
sg32
I0
sS'lemon.n.01'
p92
I0
sS'pulp.n.02'
p93
I0
ssg37
(dp94
g48
I0
sg36
I0
sg49
I0
sg37
I5
sg50
I0
sg51
I0
sg52
I0
sg53
I0
sg54
I0
sg55
I0
sg56
I0
sg57
I0
sg58
I0
sg59
I0
sg60
I0
sg61
I0
sg62
I0
sg63
I0
sg64
I0
sg39
I0
sg65
I0
sg66
I0
sg67
I0
sg68
I0
sg69
I0
sg70
I0
sg71
I0
sg72
I0
ssg17
(dp95
g20
I0
sg36
I0
sS'bread.n.01'
p96
I0
sg37
I0
sg17
I0
sg16
I0
sg13
I0
sS'green_onion.n.01'
p97
I0
sg24
I0
sg23
I0
sg18
I0
sg12
I0
sS'bacon.n.01'
p98
I0
sg14
I0
sg29
I0
sg15
I0
sg10
I0
sg26
I0
sg11
I0
sg27
I0
sg19
I0
sg25
I0
sg8
I0
sg30
I0
sg9
I0
sg28
I0
sg21
I0
sg22
I0
ssg16
(dp99
g20
I0
sg36
I0
sg96
I0
sg37
I0
sg17
I5
sg16
I0
sg13
I0
sg97
I0
sg24
I0
sg23
I0
sg18
I0
sg12
I0
sg98
I0
sg14
I0
sg29
I0
sg15
I0
sg10
I0
sg26
I0
sg11
I0
sg27
I0
sg19
I0
sg25
I0
sg8
I0
sg30
I0
sg9
I0
sg28
I0
sg21
I0
sg22
I0
ssg11
(dp100
g20
I0
sg36
I0
sS'bread.n.01'
p101
I0
sg37
I0
sg17
I0
sg16
I0
sg11
I5
sS'green_onion.n.01'
p102
I0
sg24
I0
sg23
I0
sg18
I0
sg12
I0
sS'bacon.n.01'
p103
I0
sg14
I0
sg15
I0
sg10
I0
sg26
I0
sg13
I0
sS'banana.n.02'
p104
I0
sg27
I0
sg39
I0
sg19
I0
sg25
I0
sg8
I0
sg67
I0
sS'pizza.n.01'
p105
I0
sg9
I0
sS'lemon.n.01'
p106
I0
sg21
I0
sg22
I0
ssg31
(dp107
S'mushroom.n.05'
p108
I0
sg74
I0
sg35
I0
sg75
I0
sS'zucchini.n.02'
p109
I0
sS'zucchini.n.01'
p110
I0
sg78
I0
sg31
I5
sS'mustard.n.01'
p111
I0
sS'mustard.n.02'
p112
I0
sg38
I0
sS'tomato.n.01'
p113
I0
sg34
I0
sg82
I0
sg84
I0
sg85
I0
sg86
I0
sg33
I0
sg87
I0
sg39
I0
sg88
I0
sg89
I0
sg90
I0
sS'slice.n.06'
p114
I0
sg32
I0
sg92
I0
sS'egg.n.02'
p115
I0
sS'onion.n.03'
p116
I0
sS'onion.n.02'
p117
I0
ssg24
(dp118
g20
I0
sg36
I0
sg37
I0
sg17
I0
sg16
I0
sg13
I0
sg97
I0
sg24
I0
sg23
I0
sg18
I0
sg12
I0
sg14
I0
sg29
I0
sg15
I0
sg10
I0
sg26
I0
sg11
I0
sg27
I0
sg19
I0
sg25
I0
sg8
I0
sg30
I0
sg9
I0
sg28
I0
sg21
I0
sg22
I0
ssg23
(dp119
g20
I0
sg36
I0
sg37
I0
sg17
I0
sg16
I0
sg13
I0
sg44
I0
sg24
I4
sg23
I1
sg18
I0
sg12
I0
sg14
I0
sg29
I0
sg15
I0
sg10
I0
sg26
I0
sg11
I0
sg45
I0
sg27
I0
sg19
I0
sg25
I0
sg8
I0
sg30
I0
sg46
I0
sg9
I0
sg28
I0
sg38
I0
sg21
I0
sg22
I0
ssg18
(dp120
g20
I0
sg36
I0
sg96
I0
sg37
I0
sg17
I0
sg16
I0
sg13
I0
sg97
I0
sg24
I0
sg23
I0
sg18
I5
sg12
I0
sg98
I0
sg14
I0
sg29
I0
sg15
I0
sg10
I0
sg26
I0
sg11
I0
sg27
I0
sg19
I0
sg25
I0
sg8
I0
sg30
I0
sg9
I0
sg28
I0
sg21
I0
sg22
I0
ssg12
(dp121
g20
I0
sg36
I0
sS'bread.n.01'
p122
I0
sg37
I0
sg17
I0
sg16
I0
sg11
I0
sg44
I0
sg24
I0
sg23
I0
sg18
I0
sg12
I9
sS'bacon.n.01'
p123
I0
sg14
I0
sg29
I0
sg15
I0
sg10
I0
sg26
I0
sg13
I0
sg45
I0
sg27
I0
sg19
I0
sg25
I0
sg8
I0
sg30
I0
sg46
I0
sg9
I0
sg28
I0
sg38
I1
sg21
I0
sg22
I0
ssg34
(dp124
g74
I0
sg35
I0
sg75
I0
sg76
I0
sg77
I0
sg78
I0
sg31
I0
sg79
I0
sg80
I0
sg34
I5
sg81
I0
sg82
I0
sg83
I0
sg84
I0
sg85
I0
sg86
I0
sg33
I0
sg87
I0
sg39
I0
sg88
I0
sg89
I0
sg90
I0
sg91
I0
sg32
I0
sg92
I0
sg93
I0
ssg14
(dp125
g20
I0
sg36
I0
sg122
I0
sg37
I0
sg17
I0
sg16
I0
sg13
I0
sg24
I0
sg23
I0
sg18
I0
sg12
I0
sg123
I0
sg14
I5
sg29
I0
sg15
I0
sg10
I0
sg26
I0
sg11
I0
sS'banana.n.02'
p126
I0
sg27
I0
sg19
I0
sg25
I0
sg8
I0
sg30
I0
sS'pizza.n.01'
p127
I0
sg9
I0
sg28
I0
sg21
I0
sg22
I0
ssg29
(dp128
S'mushroom.n.05'
p129
I0
sg74
I0
sg35
I0
sg75
I0
sS'zucchini.n.02'
p130
I0
sS'zucchini.n.01'
p131
I0
sg31
I0
sS'mustard.n.01'
p132
I0
sS'mustard.n.02'
p133
I0
sS'egg.n.02'
p134
I0
sS'tomato.n.01'
p135
I0
sg34
I0
sS'cleaver.n.01'
p136
I0
sg29
I5
sS'meat.n.01'
p137
I0
sS'slice.v.03'
p138
I0
sS'olive.n.01'
p139
I0
sS'knife.n.01'
p140
I0
sg33
I0
sS'olive.n.04'
p141
I0
sS'piece.n.08'
p142
I0
sS'vegetable.n.01'
p143
I0
sg30
I0
sg32
I0
sg28
I0
sg38
I0
sS'onion.n.03'
p144
I0
sS'onion.n.02'
p145
I0
ssg15
(dp146
g20
I0
sg36
I0
sg122
I0
sg37
I0
sg17
I0
sg16
I0
sg13
I0
sg24
I0
sg23
I0
sg18
I0
sg12
I0
sg123
I0
sg15
I5
sg29
I0
sg14
I0
sg10
I0
sg26
I0
sg11
I0
sg126
I0
sg27
I0
sg19
I0
sg25
I0
sg8
I0
sg30
I0
sg127
I0
sg9
I0
sg28
I0
sg21
I0
sg22
I0
ssg10
(dp147
g20
I0
sg36
I0
sg35
I0
sg37
I0
sg17
I0
sg16
I0
sg11
I0
sg31
I0
sg24
I0
sg23
I0
sg18
I0
sg12
I0
sg34
I0
sg14
I0
sg29
I0
sg15
I0
sg10
I95
sg26
I0
sg13
I0
sg33
I0
sg27
I0
sg39
I0
sg19
I0
sg25
I0
sg8
I0
sg30
I0
sg32
I0
sg9
I0
sg28
I0
sg38
I0
sg21
I0
sg22
I0
ssg26
(dp148
g20
I0
sg35
I0
sg17
I0
sg16
I0
sg13
I0
sg31
I0
sg24
I0
sg23
I0
sg18
I0
sg12
I0
sg34
I0
sg14
I0
sg29
I0
sg15
I0
sg10
I0
sg26
I0
sg11
I0
sg33
I0
sg27
I5
sg19
I0
sg25
I0
sg8
I0
sg30
I0
sg32
I0
sg9
I0
sg28
I0
sg38
I0
sg21
I0
sg22
I0
ssg13
(dp149
g20
I0
sg36
I0
sg35
I0
sg37
I0
sg17
I0
sg16
I0
sg13
I25
sg31
I0
sg24
I0
sg23
I0
sg18
I0
sg12
I0
sg34
I0
sg14
I0
sg29
I0
sg15
I0
sg10
I0
sg26
I0
sg11
I0
sg33
I0
sg27
I0
sg39
I0
sg19
I0
sg25
I0
sg8
I0
sg30
I0
sg32
I0
sg9
I0
sg28
I0
sg38
I0
sg21
I0
sg22
I0
ssg33
(dp150
g108
I0
sg74
I0
sg35
I0
sg75
I0
sg78
I0
sg31
I0
sg112
I0
sg38
I0
sg113
I0
sg34
I0
sg81
I0
sg82
I0
sg83
I0
sg84
I0
sg85
I0
sg86
I0
sg33
I5
sg87
I0
sg39
I0
sg88
I0
sg89
I0
sg90
I0
sg114
I0
sg32
I0
sg93
I0
sg92
I0
sg116
I0
sg117
I0
ssg27
(dp151
g20
I0
sg35
I0
sg17
I0
sg16
I0
sg13
I0
sg31
I0
sg24
I0
sg23
I0
sg18
I0
sg12
I0
sg34
I0
sg14
I0
sg29
I0
sg15
I0
sg10
I0
sg26
I0
sg11
I0
sg33
I0
sg27
I0
sg19
I0
sg25
I0
sg8
I0
sg30
I0
sg32
I0
sg9
I0
sg28
I0
sg38
I0
sg21
I0
sg22
I0
ssg39
(dp152
S'slice.v.03'
p153
I0
sS'knife.n.01'
p154
I0
sg104
I0
sS'cheese.n.01'
p155
I0
sg90
I0
sS'orange.n.01'
p156
I0
sg103
I0
sg105
I0
sg39
I0
sg106
I0
sg78
I0
sS'piece.n.08'
p157
I0
sg101
I0
sg102
I0
ssg19
(dp158
g20
I0
sg36
I0
sg35
I0
sg37
I0
sg17
I0
sg16
I0
sg13
I0
sg31
I0
sg24
I0
sg23
I0
sg18
I0
sg12
I0
sg34
I0
sg14
I0
sg29
I0
sg15
I0
sg10
I0
sg26
I0
sg11
I0
sg33
I0
sg27
I0
sg39
I0
sg19
I17
sg25
I0
sg8
I0
sg30
I8
sg32
I0
sg9
I0
sg28
I0
sg38
I0
sg21
I0
sg22
I0
ssg25
(dp159
g20
I0
sg35
I0
sg17
I0
sg16
I0
sg13
I0
sg31
I0
sg24
I0
sg23
I0
sg18
I0
sg12
I0
sg34
I0
sg14
I0
sg29
I0
sg15
I0
sg10
I0
sg26
I0
sg11
I0
sg33
I0
sg27
I0
sg19
I0
sg25
I5
sg8
I0
sg30
I0
sg32
I0
sg9
I0
sg28
I0
sg38
I0
sg21
I0
sg22
I0
ssg8
(dp160
g20
I0
sg36
I0
sg101
I0
sg37
I0
sg17
I0
sg16
I0
sg11
I0
sg102
I0
sg24
I0
sg23
I0
sg18
I0
sg12
I0
sg103
I0
sg14
I0
sg15
I0
sg10
I0
sg26
I0
sg13
I0
sg104
I0
sg27
I0
sg39
I1
sg19
I0
sg25
I0
sg8
I0
sg67
I0
sg105
I0
sg9
I4
sg106
I0
sg21
I0
sg22
I0
ssg30
(dp161
g129
I0
sg36
I0
sg49
I0
sg37
I0
sg130
I0
sg131
I0
sg63
I0
sg44
I0
sg132
I0
sg133
I0
sg134
I0
sg135
I0
sg58
I0
sg136
I0
sg29
I0
sg137
I0
sg138
I0
sg139
I0
sg140
I0
sg45
I0
sg141
I0
sg142
I0
sg143
I0
sg66
I0
sg30
I0
sg46
I0
sg69
I0
sg28
I0
sg38
I0
sg144
I0
sg145
I0
ssg32
(dp162
g108
I0
sg74
I0
sg35
I0
sg75
I0
sg78
I0
sg31
I0
sg112
I0
sg38
I0
sg113
I0
sg34
I0
sg81
I0
sg82
I0
sg83
I0
sg84
I0
sg85
I0
sg86
I0
sg33
I0
sg87
I0
sg39
I0
sg88
I0
sg89
I0
sg90
I0
sg114
I0
sg32
I5
sg93
I0
sg92
I0
sg116
I0
sg117
I0
ssg9
(dp163
g20
I0
sg36
I0
sg122
I0
sg37
I0
sg17
I0
sg16
I0
sg11
I0
sg24
I0
sg23
I0
sg18
I0
sg12
I0
sg123
I0
sg14
I0
sg15
I0
sg10
I0
sg26
I0
sg13
I0
sg126
I0
sg27
I0
sg19
I0
sg25
I0
sg8
I0
sg67
I0
sg127
I0
sg9
I0
sg21
I0
sg22
I0
ssg28
(dp164
g129
I0
sg74
I0
sg35
I0
sg75
I0
sg130
I0
sg131
I0
sg78
I0
sg31
I0
sg132
I0
sg133
I0
sg134
I0
sg135
I0
sg34
I0
sg137
I0
sg29
I0
sg136
I0
sg138
I0
sg139
I0
sg140
I0
sg33
I0
sg141
I0
sg39
I0
sg142
I0
sg143
I0
sg90
I0
sg30
I0
sg32
I0
sg28
I10
sg38
I0
sg144
I0
sg145
I0
ssg38
(dp165
g108
I0
sS'slice.v.03'
p166
I0
sg112
I0
sS'knife.n.01'
p167
I0
sg45
I0
sS'olive.n.04'
p168
I0
sg38
I0
sg113
I0
sS'potato.n.01'
p169
I0
sg114
I0
sS'vegetable.n.01'
p170
I0
sg46
I0
sS'lemon.n.01'
p171
I0
sS'olive.n.01'
p172
I0
sS'piece.n.08'
p173
I0
sg44
I0
sg116
I0
sg117
I0
ssg21
(dp174
g20
I0
sg36
I0
sg37
I0
sg17
I0
sg16
I0
sg13
I0
sg44
I0
sg24
I0
sg23
I0
sg18
I0
sg12
I0
sg15
I0
sg29
I0
sg14
I0
sg10
I0
sg26
I0
sg11
I0
sg45
I0
sg27
I0
sg19
I0
sg25
I0
sg8
I0
sg30
I0
sg46
I0
sg9
I0
sg28
I0
sg38
I0
sg21
I0
sg22
I5
ssg22
(dp175
g20
I0
sg36
I0
sg37
I0
sg17
I0
sg16
I0
sg13
I0
sg44
I0
sg24
I0
sg23
I0
sg18
I0
sg12
I0
sg15
I0
sg29
I0
sg14
I0
sg10
I0
sg26
I0
sg11
I0
sg45
I0
sg27
I0
sg19
I0
sg25
I0
sg8
I0
sg30
I0
sg46
I0
sg9
I0
sg28
I0
sg38
I0
sg21
I0
sg22
I0
sssb.