ccopy_reg
_reconstructor
p0
(cutils.eval
ConfusionMatrix
p1
c__builtin__
object
p2
Ntp3
Rp4
(dp5
S'labels'
p6
(lp7
S'knife.n.01'
p8
aS'slice.v.03'
p9
aS'green_onion.n.01'
p10
aS'lemon.n.01'
p11
aS'piece.n.08'
p12
aS'pizza.n.01'
p13
aS'banana.n.02'
p14
aS'bacon.n.01'
p15
aS'bread.n.01'
p16
aS'cheese.n.01'
p17
aS'orange.n.01'
p18
aS'flesh.n.01'
p19
aS'human_body.n.01'
p20
aS'cabbage.n.01'
p21
asS'instanceCount'
p22
I25
sS'matrix'
p23
(dp24
g9
(dp25
S'slice.v.03'
p26
I10
ssg8
(dp27
S'knife.n.01'
p28
I3
ssg14
(dp29
S'banana.n.02'
p30
I1
ssg17
(dp31
S'cheese.n.01'
p32
I1
ssg19
(dp33
g20
I1
ssg20
(dp34
g20
I0
ssg15
(dp35
S'bacon.n.01'
p36
I1
ssg13
(dp37
S'pizza.n.01'
p38
I1
ssg18
(dp39
S'orange.n.01'
p40
I1
ssg11
(dp41
S'lemon.n.01'
p42
I1
ssg21
(dp43
S'cabbage.n.01'
p44
I1
ssg10
(dp45
S'green_onion.n.01'
p46
I1
ssg16
(dp47
S'bread.n.01'
p48
I1
ssg12
(dp49
S'piece.n.08'
p50
I2
sssb.