ccopy_reg
_reconstructor
p0
(cutils.eval
ConfusionMatrix
p1
c__builtin__
object
p2
Ntp3
Rp4
(dp5
S'labels'
p6
(lp7
S'slice.v.03'
p8
aS'mushroom.n.05'
p9
aS'tomato.n.01'
p10
aS'tomato.n.02'
p11
aS'piece.n.08'
p12
aS'onion.n.03'
p13
aS'onion.n.02'
p14
aS'mustard.n.02'
p15
aS'vegetable.n.01'
p16
aS'knife.n.01'
p17
aS'olive.n.01'
p18
aS'olive.n.04'
p19
aS'lemon.n.01'
p20
aS'potato.n.01'
p21
aS'slice.n.06'
p22
aS'green_onion.n.01'
p23
aS'pizza.n.01'
p24
aS'banana.n.02'
p25
asS'instanceCount'
p26
I27
sS'matrix'
p27
(dp28
g9
(dp29
S'mushroom.n.05'
p30
I1
ssg8
(dp31
S'slice.v.03'
p32
I9
ssg15
(dp33
S'mustard.n.02'
p34
I1
ssg17
(dp35
S'knife.n.01'
p36
I3
ssg25
(dp37
S'banana.n.02'
p38
I1
ssg19
(dp39
g19
I0
ssg11
(dp40
g11
I0
ssg10
(dp41
g11
I1
ssg21
(dp42
S'potato.n.01'
p43
I1
ssg22
(dp44
g22
I0
ssg16
(dp45
S'vegetable.n.01'
p46
I1
ssg24
(dp47
S'pizza.n.01'
p48
I1
ssg20
(dp49
S'lemon.n.01'
p50
I2
ssg18
(dp51
g19
I1
ssg12
(dp52
S'piece.n.08'
p53
I1
sg22
I2
ssg23
(dp54
S'green_onion.n.01'
p55
I1
ssg13
(dp56
g14
I1
ssg14
(dp57
g14
I0
sssb.