ccopy_reg
_reconstructor
p0
(cutils.eval
ConfusionMatrix
p1
c__builtin__
object
p2
Ntp3
Rp4
(dp5
S'labels'
p6
(lp7
S'cheese.n.01'
p8
aS'slice.v.03'
p9
aS'orange.n.01'
p10
aS'piece.n.08'
p11
aS'slice.n.06'
p12
aS'flesh.n.01'
p13
aS'pulp.n.02'
p14
aS'cabbage.n.01'
p15
aS'tomato.n.01'
p16
aS'knife.n.01'
p17
aS'meat.n.01'
p18
aS'cleaver.n.01'
p19
aS'zucchini.n.01'
p20
aS'zucchini.n.02'
p21
aS'egg.n.02'
p22
aS'mushroom.n.05'
p23
aS'onion.n.03'
p24
aS'onion.n.02'
p25
aS'mustard.n.02'
p26
aS'mustard.n.01'
p27
asS'instanceCount'
p28
I26
sS'matrix'
p29
(dp30
g23
(dp31
S'mushroom.n.05'
p32
I1
ssg8
(dp33
S'cheese.n.01'
p34
I1
ssg26
(dp35
g27
I1
ssg15
(dp36
S'cabbage.n.01'
p37
I1
ssg22
(dp38
S'egg.n.02'
p39
I1
ssg13
(dp40
g14
I1
ssg9
(dp41
S'slice.v.03'
p42
I9
ssg16
(dp43
S'tomato.n.01'
p44
I2
ssg12
(dp45
g12
I0
ssg24
(dp46
g25
I1
ssg10
(dp47
S'orange.n.01'
p48
I1
ssg21
(dp49
g21
I0
ssg18
(dp50
S'meat.n.01'
p51
I1
ssg20
(dp52
g21
I1
ssg17
(dp53
S'knife.n.01'
p54
I1
ssg11
(dp55
S'piece.n.08'
p56
I2
sg12
I1
ssg25
(dp57
g25
I0
ssg27
(dp58
g27
I0
ssg14
(dp59
g14
I0
ssg19
(dp60
S'cleaver.n.01'
p61
I1
sssb.