ccopy_reg
_reconstructor
p0
(cutils.eval
ConfusionMatrix
p1
c__builtin__
object
p2
Ntp3
Rp4
(dp5
S'labels'
p6
(lp7
S'vegetable.n.01'
p8
aS'knife.n.01'
p9
aS'slice.v.03'
p10
aS'olive.n.01'
p11
aS'olive.n.04'
p12
aS'lemon.n.01'
p13
aS'potato.n.01'
p14
aS'piece.n.08'
p15
aS'green_onion.n.01'
p16
aS'pizza.n.01'
p17
aS'banana.n.02'
p18
aS'bacon.n.01'
p19
aS'bread.n.01'
p20
asS'instanceCount'
p21
I26
sS'matrix'
p22
(dp23
g10
(dp24
S'slice.v.03'
p25
I10
ssg8
(dp26
S'vegetable.n.01'
p27
I1
ssg9
(dp28
S'knife.n.01'
p29
I4
ssg18
(dp30
S'banana.n.02'
p31
I1
ssg12
(dp32
g12
I0
ssg11
(dp33
g12
I1
ssg19
(dp34
S'bacon.n.01'
p35
I1
ssg17
(dp36
S'pizza.n.01'
p37
I1
ssg13
(dp38
S'lemon.n.01'
p39
I2
ssg14
(dp40
S'potato.n.01'
p41
I1
ssg15
(dp42
S'piece.n.08'
p43
I2
ssg20
(dp44
S'bread.n.01'
p45
I1
ssg16
(dp46
S'green_onion.n.01'
p47
I1
sssb.