ccopy_reg
_reconstructor
p0
(cutils.eval
ConfusionMatrix
p1
c__builtin__
object
p2
Ntp3
Rp4
(dp5
S'labels'
p6
(lp7
S'zucchini.n.01'
p8
aS'zucchini.n.02'
p9
aS'slice.v.03'
p10
aS'egg.n.02'
p11
aS'piece.n.08'
p12
aS'slice.n.06'
p13
aS'mushroom.n.05'
p14
aS'tomato.n.01'
p15
aS'onion.n.03'
p16
aS'onion.n.02'
p17
aS'mustard.n.02'
p18
aS'mustard.n.01'
p19
aS'vegetable.n.01'
p20
aS'knife.n.01'
p21
aS'olive.n.01'
p22
aS'olive.n.04'
p23
aS'lemon.n.01'
p24
aS'potato.n.01'
p25
aS'green_onion.n.01'
p26
asS'instanceCount'
p27
I26
sS'matrix'
p28
(dp29
g14
(dp30
S'mushroom.n.05'
p31
I1
ssg10
(dp32
S'slice.v.03'
p33
I9
ssg18
(dp34
g19
I1
ssg21
(dp35
S'knife.n.01'
p36
I2
ssg19
(dp37
g19
I0
ssg11
(dp38
S'egg.n.02'
p39
I1
ssg15
(dp40
S'tomato.n.01'
p41
I1
ssg23
(dp42
g23
I0
ssg13
(dp43
g13
I0
ssg20
(dp44
S'vegetable.n.01'
p45
I1
ssg9
(dp46
g9
I0
ssg24
(dp47
S'lemon.n.01'
p48
I2
ssg8
(dp49
g9
I1
ssg25
(dp50
S'potato.n.01'
p51
I1
ssg12
(dp52
S'piece.n.08'
p53
I1
sg13
I2
ssg22
(dp54
g23
I1
ssg26
(dp55
S'green_onion.n.01'
p56
I1
ssg16
(dp57
g17
I1
ssg17
(dp58
g17
I0
sssb.