ccopy_reg
_reconstructor
p0
(cutils.eval
ConfusionMatrix
p1
c__builtin__
object
p2
Ntp3
Rp4
(dp5
S'labels'
p6
(lp7
S'add.v.01'
p8
aS'asparagus.n.02'
p9
aS'salad.n.01'
p10
aS'rib.n.03'
p11
aS'pan.n.03'
p12
aS'butter.n.01'
p13
aS'vanilla.n.02'
p14
aS'salt.n.02'
p15
aS'meat.n.01'
p16
aS'pot.n.01'
p17
aS'pot.n.09'
p18
aS'bean.n.01'
p19
aS'flour.n.01'
p20
aS'egg.n.02'
p21
aS'mixing_bowl.n.01'
p22
aS'apple.n.01'
p23
aS'onion.n.03'
p24
aS'ingredient.n.03'
p25
aS'corn.n.03'
p26
aS'dish.n.02'
p27
aS'vegetable.n.01'
p28
aS'sauce.n.01'
p29
aS'cream.n.02'
p30
aS'french_fries.n.01'
p31
aS'steak.n.01'
p32
aS'milk.n.01'
p33
aS'milk.n.04'
p34
aS'water.n.06'
p35
aS'sugar.n.01'
p36
asS'instanceCount'
p37
I51
sS'matrix'
p38
(dp39
g26
(dp40
S'corn.n.03'
p41
I1
ssg22
(dp42
S'mixing_bowl.n.01'
p43
I2
ssg27
(dp44
S'dish.n.02'
p45
I1
ssg34
(dp46
g34
I0
ssg23
(dp47
S'apple.n.01'
p48
I1
ssg8
(dp49
S'add.v.01'
p50
I18
ssg33
(dp51
g34
I1
ssg12
(dp52
S'pan.n.03'
p53
I3
ssg18
(dp54
g18
I0
ssg20
(dp55
S'flour.n.01'
p56
I1
ssg21
(dp57
S'egg.n.02'
p58
I2
ssg13
(dp59
S'butter.n.01'
p60
I3
ssg17
(dp61
g18
I1
ssg9
(dp62
S'asparagus.n.02'
p63
I1
ssg16
(dp64
S'meat.n.01'
p65
I1
ssg14
(dp66
S'vanilla.n.02'
p67
I2
ssg19
(dp68
S'bean.n.01'
p69
I1
ssg29
(dp70
S'sauce.n.01'
p71
I1
ssg15
(dp72
S'salt.n.02'
p73
I1
ssg11
(dp74
S'rib.n.03'
p75
I1
ssg30
(dp76
S'cream.n.02'
p77
I1
ssg25
(dp78
S'ingredient.n.03'
p79
I1
ssg32
(dp80
S'steak.n.01'
p81
I1
ssg28
(dp82
S'vegetable.n.01'
p83
I1
ssg35
(dp84
S'water.n.06'
p85
I1
ssg31
(dp86
S'french_fries.n.01'
p87
I1
ssg10
(dp88
S'salad.n.01'
p89
I1
ssg24
(dp90
S'onion.n.03'
p91
I1
ssg36
(dp92
S'sugar.n.01'
p93
I1
sssb.