ccopy_reg
_reconstructor
p0
(cutils.eval
ConfusionMatrix
p1
c__builtin__
object
p2
Ntp3
Rp4
(dp5
S'labels'
p6
(lp7
S'add.v.01'
p8
aS'milk.n.01'
p9
aS'water.n.06'
p10
aS'water_system.n.02'
p11
aS'mixing_bowl.n.01'
p12
aS'butter.n.01'
p13
aS'sugar.n.01'
p14
aS'dressing.n.01'
p15
aS'dressing.n.04'
p16
aS'salad.n.01'
p17
aS'ingredient.n.03'
p18
aS'concoction.n.01'
p19
aS'mixture.n.01'
p20
aS'cream.n.02'
p21
aS'cream.n.03'
p22
aS'asparagus.n.02'
p23
aS'rib.n.03'
p24
aS'pan.n.03'
p25
aS'vanilla.n.02'
p26
aS'salt.n.02'
p27
aS'meat.n.01'
p28
aS'pot.n.01'
p29
aS'pot.n.04'
p30
aS'bean.n.01'
p31
aS'flour.n.01'
p32
aS'egg.n.02'
p33
aS'apple.n.01'
p34
aS'onion.n.03'
p35
aS'corn.n.03'
p36
aS'dish.n.02'
p37
aS'dish.n.01'
p38
aS'vegetable.n.01'
p39
aS'sauce.n.01'
p40
asS'instanceCount'
p41
I52
sS'matrix'
p42
(dp43
g36
(dp44
S'corn.n.03'
p45
I1
ssg12
(dp46
S'mixing_bowl.n.01'
p47
I2
ssg37
(dp48
g38
I1
ssg38
(dp49
g38
I0
ssg34
(dp50
S'apple.n.01'
p51
I1
ssg8
(dp52
S'add.v.01'
p53
I18
ssg9
(dp54
S'milk.n.01'
p55
I1
ssg25
(dp56
S'pan.n.03'
p57
I2
ssg32
(dp58
S'flour.n.01'
p59
I1
ssg30
(dp60
g30
I0
ssg13
(dp61
S'butter.n.01'
p62
I2
ssg29
(dp63
g30
I1
ssg23
(dp64
S'asparagus.n.02'
p65
I1
ssg28
(dp66
S'meat.n.01'
p67
I1
ssg26
(dp68
S'vanilla.n.02'
p69
I2
ssg31
(dp70
S'bean.n.01'
p71
I1
ssg19
(dp72
g20
I1
ssg40
(dp73
S'sauce.n.01'
p74
I1
ssg27
(dp75
S'salt.n.02'
p76
I1
ssg24
(dp77
S'rib.n.03'
p78
I1
ssg20
(dp79
g20
I0
ssg21
(dp80
g22
I2
ssg18
(dp81
S'ingredient.n.03'
p82
I2
ssg22
(dp83
g22
I0
ssg39
(dp84
S'vegetable.n.01'
p85
I1
ssg16
(dp86
g16
I0
ssg11
(dp87
g11
I0
ssg10
(dp88
g11
I1
ssg15
(dp89
g16
I1
ssg33
(dp90
S'egg.n.02'
p91
I2
ssg17
(dp92
S'salad.n.01'
p93
I2
ssg35
(dp94
S'onion.n.03'
p95
I1
ssg14
(dp96
S'sugar.n.01'
p97
I1
sssb.