ccopy_reg
_reconstructor
p0
(cutils.eval
ConfusionMatrix
p1
c__builtin__
object
p2
Ntp3
Rp4
(dp5
S'labels'
p6
(lp7
S'add.v.01'
p8
aS'milk.n.01'
p9
aS'water.n.06'
p10
aS'water_system.n.02'
p11
aS'mixing_bowl.n.01'
p12
aS'butter.n.01'
p13
aS'sugar.n.01'
p14
aS'dressing.n.01'
p15
aS'dressing.n.04'
p16
aS'salad.n.01'
p17
aS'ingredient.n.03'
p18
aS'concoction.n.01'
p19
aS'mixture.n.01'
p20
aS'cream.n.02'
p21
aS'cream.n.03'
p22
aS'asparagus.n.02'
p23
aS'rib.n.03'
p24
aS'pan.n.03'
p25
aS'vanilla.n.02'
p26
aS'salt.n.02'
p27
aS'meat.n.01'
p28
aS'pot.n.01'
p29
aS'pot.n.04'
p30
aS'bean.n.01'
p31
aS'flour.n.01'
p32
aS'egg.n.02'
p33
aS'apple.n.01'
p34
aS'onion.n.03'
p35
aS'corn.n.03'
p36
aS'dish.n.02'
p37
aS'dish.n.01'
p38
aS'vegetable.n.01'
p39
aS'sauce.n.01'
p40
aS'stuffing.n.01'
p41
aS'asparagus.n.01'
p42
aS'kernel.n.01'
p43
aS'french_fries.n.01'
p44
aS'steak.n.01'
p45
aS'pot.n.09'
p46
aS'milk.n.04'
p47
aS'milk.n.02'
p48
aS'boodle.n.01'
p49
aS'mix.n.03'
p50
aS'vanilla.n.01'
p51
aS'corn.n.02'
p52
aS'water.n.03'
p53
aS'carbohydrate.n.01'
p54
aS'salt.n.01'
p55
aS'rib.n.01'
p56
asS'instanceCount'
p57
I521
sS'matrix'
p58
(dp59
g43
(dp60
g43
I0
sS'corn.n.03'
p61
I0
sS'mixing_bowl.n.01'
p62
I0
sS'dish.n.02'
p63
I0
sS'dish.n.01'
p64
I0
sS'milk.n.04'
p65
I0
sS'apple.n.01'
p66
I0
sS'add.v.01'
p67
I0
sS'milk.n.01'
p68
I0
sS'pan.n.03'
p69
I0
sS'flour.n.01'
p70
I0
sS'egg.n.02'
p71
I0
sS'butter.n.01'
p72
I0
sS'pot.n.01'
p73
I0
sS'asparagus.n.02'
p74
I0
sg42
I0
sg51
I0
sS'meat.n.01'
p75
I0
sS'vanilla.n.02'
p76
I0
sS'bean.n.01'
p77
I0
sS'concoction.n.01'
p78
I0
sS'sauce.n.01'
p79
I0
sS'salt.n.02'
p80
I0
sS'rib.n.03'
p81
I0
sg56
I0
sg50
I0
sS'cream.n.02'
p82
I0
sS'ingredient.n.03'
p83
I0
sS'cream.n.03'
p84
I0
sg45
I0
sg41
I0
sg49
I0
sS'vegetable.n.01'
p85
I0
sS'dressing.n.04'
p86
I0
sS'water_system.n.02'
p87
I0
sS'water.n.06'
p88
I0
sS'dressing.n.01'
p89
I0
sg44
I0
sS'pot.n.04'
p90
I0
sS'salad.n.01'
p91
I0
sS'onion.n.03'
p92
I0
sS'sugar.n.01'
p93
I0
ssg36
(dp94
g43
I0
sg36
I8
sg52
I1
sg12
I0
sg54
I0
sg50
I0
sg37
I0
sg38
I0
sg47
I0
sg34
I0
sg8
I0
sg9
I0
sg48
I0
sg25
I0
sg46
I0
sg32
I0
sg30
I0
sg13
I0
sg29
I0
sg23
I0
sg42
I0
sg51
I0
sg28
I0
sg26
I0
sg31
I0
sg19
I0
sg40
I0
sg27
I0
sg55
I0
sg24
I0
sg56
I0
sg20
I0
sg21
I0
sg18
I0
sg22
I0
sg45
I0
sg41
I0
sg49
I0
sg39
I0
sg53
I0
sg16
I0
sg11
I0
sg10
I0
sg15
I0
sg44
I0
sg33
I0
sg17
I0
sg35
I0
sg14
I0
ssg52
(dp95
S'corn.n.03'
p96
I0
sg52
I0
sS'mixing_bowl.n.01'
p97
I0
sg54
I0
sS'dish.n.02'
p98
I0
sS'milk.n.04'
p99
I0
sS'add.v.01'
p100
I0
sS'milk.n.01'
p101
I0
sS'pan.n.03'
p102
I0
sS'pot.n.09'
p103
I0
sS'flour.n.01'
p104
I0
sS'egg.n.02'
p105
I0
sS'butter.n.01'
p106
I0
sS'pot.n.01'
p107
I0
sS'asparagus.n.02'
p108
I0
sS'meat.n.01'
p109
I0
sS'vanilla.n.02'
p110
I0
sS'bean.n.01'
p111
I0
sS'concoction.n.01'
p112
I0
sS'sauce.n.01'
p113
I0
sS'salt.n.02'
p114
I0
sg55
I0
sS'rib.n.03'
p115
I0
sS'mixture.n.01'
p116
I0
sS'cream.n.02'
p117
I0
sS'ingredient.n.03'
p118
I0
sS'steak.n.01'
p119
I0
sS'stuffing.n.01'
p120
I0
sS'vegetable.n.01'
p121
I0
sg53
I0
sS'water.n.06'
p122
I0
sS'dressing.n.01'
p123
I0
sS'french_fries.n.01'
p124
I0
sS'salad.n.01'
p125
I0
sS'sugar.n.01'
p126
I0
ssg12
(dp127
g43
I0
sg36
I0
sg52
I0
sg12
I18
sg54
I0
sg50
I0
sg37
I0
sg38
I0
sg47
I0
sg34
I0
sg8
I0
sg9
I0
sg48
I0
sg25
I0
sg46
I0
sg32
I0
sg30
I0
sg13
I0
sg29
I0
sg23
I0
sg42
I0
sg51
I0
sg28
I0
sg26
I0
sg31
I0
sg19
I0
sg40
I0
sg27
I0
sg55
I0
sg24
I0
sg56
I0
sg20
I0
sg21
I0
sg18
I0
sg22
I0
sg45
I0
sg41
I0
sg49
I0
sg39
I0
sg53
I0
sg16
I0
sg11
I0
sg10
I0
sg15
I0
sg44
I0
sg33
I0
sg17
I0
sg35
I0
sg14
I0
ssg54
(dp128
g96
I0
sg52
I0
sg97
I0
sg54
I0
sg98
I0
sg99
I0
sg100
I0
sg101
I0
sg102
I0
sg103
I0
sg104
I0
sg105
I0
sg106
I0
sg107
I0
sg108
I0
sg109
I0
sg110
I0
sg111
I0
sg112
I0
sg113
I0
sg114
I0
sg55
I0
sg115
I0
sg116
I0
sg117
I0
sg118
I0
sg119
I0
sg120
I0
sg121
I0
sg53
I0
sg122
I0
sg123
I0
sg124
I0
sg125
I0
sg126
I0
ssg50
(dp129
S'kernel.n.01'
p130
I0
sS'corn.n.03'
p131
I0
sS'mixing_bowl.n.01'
p132
I0
sS'dish.n.02'
p133
I0
sS'dish.n.01'
p134
I0
sg65
I0
sS'apple.n.01'
p135
I0
sS'add.v.01'
p136
I0
sg68
I0
sS'pan.n.03'
p137
I0
sS'egg.n.02'
p138
I0
sS'butter.n.01'
p139
I0
sS'asparagus.n.02'
p140
I0
sS'asparagus.n.01'
p141
I0
sg51
I0
sS'meat.n.01'
p142
I0
sS'vanilla.n.02'
p143
I0
sS'concoction.n.01'
p144
I0
sS'sauce.n.01'
p145
I0
sS'salt.n.02'
p146
I0
sS'rib.n.03'
p147
I0
sS'cream.n.02'
p148
I0
sS'ingredient.n.03'
p149
I0
sS'cream.n.03'
p150
I0
sg49
I0
sS'vegetable.n.01'
p151
I0
sg86
I0
sg87
I0
sg88
I0
sS'dressing.n.01'
p152
I0
sS'french_fries.n.01'
p153
I0
sg50
I0
sS'salad.n.01'
p154
I0
sS'onion.n.03'
p155
I0
sg93
I0
ssg37
(dp156
g43
I0
sg36
I0
sg52
I0
sg12
I0
sg54
I0
sg50
I0
sg37
I4
sg38
I5
sg47
I0
sg34
I0
sg8
I0
sg9
I0
sg48
I0
sg25
I0
sg46
I0
sg32
I0
sg30
I0
sg13
I0
sg29
I0
sg23
I0
sg42
I0
sg51
I0
sg28
I0
sg26
I0
sg31
I0
sg19
I0
sg40
I0
sg27
I0
sg55
I0
sg24
I0
sg56
I0
sg20
I0
sg21
I0
sg18
I0
sg22
I0
sg45
I0
sg41
I0
sg49
I0
sg39
I0
sg53
I0
sg16
I0
sg11
I0
sg10
I0
sg15
I0
sg44
I0
sg33
I0
sg17
I0
sg35
I0
sg14
I0
ssg38
(dp157
g43
I0
sg36
I0
sg12
I0
sg50
I0
sg37
I0
sg38
I0
sg65
I0
sg34
I0
sg8
I0
sg9
I0
sg25
I0
sg46
I0
sg32
I0
sg30
I0
sg13
I0
sg29
I0
sg23
I0
sg42
I0
sg51
I0
sg28
I0
sg26
I0
sg31
I0
sg19
I0
sg40
I0
sg27
I0
sg24
I0
sg56
I0
sg20
I0
sg21
I0
sg18
I0
sg22
I0
sg45
I0
sg41
I0
sg49
I0
sg39
I0
sg16
I0
sg11
I0
sg10
I0
sg15
I0
sg44
I0
sg33
I0
sg17
I0
sg35
I0
sg14
I0
ssg47
(dp158
g130
I0
sS'corn.n.03'
p159
I0
sg52
I0
sS'mixing_bowl.n.01'
p160
I0
sg54
I0
sS'dish.n.02'
p161
I0
sg134
I0
sg47
I0
sS'apple.n.01'
p162
I0
sS'add.v.01'
p163
I0
sS'milk.n.01'
p164
I0
sS'pan.n.03'
p165
I0
sS'pot.n.09'
p166
I0
sS'flour.n.01'
p167
I0
sS'egg.n.02'
p168
I0
sS'butter.n.01'
p169
I0
sS'pot.n.01'
p170
I0
sS'asparagus.n.02'
p171
I0
sg141
I0
sg51
I0
sS'meat.n.01'
p172
I0
sS'vanilla.n.02'
p173
I0
sS'bean.n.01'
p174
I0
sS'concoction.n.01'
p175
I0
sg145
I0
sS'salt.n.02'
p176
I0
sg55
I0
sS'rib.n.03'
p177
I0
sg56
I0
sg116
I0
sS'cream.n.02'
p178
I0
sS'ingredient.n.03'
p179
I0
sg150
I0
sS'steak.n.01'
p180
I0
sg120
I0
sg49
I0
sS'pot.n.04'
p181
I0
sg151
I0
sg53
I0
sg86
I0
sg87
I0
sS'water.n.06'
p182
I0
sS'dressing.n.01'
p183
I0
sS'french_fries.n.01'
p184
I0
sg50
I0
sS'salad.n.01'
p185
I0
sS'onion.n.03'
p186
I0
sS'sugar.n.01'
p187
I0
ssg34
(dp188
g43
I0
sg36
I0
sg12
I0
sg50
I0
sg37
I0
sg38
I0
sg47
I0
sg34
I9
sg8
I0
sg9
I0
sg48
I0
sg25
I0
sg46
I0
sg32
I0
sg30
I0
sg13
I0
sg29
I0
sg23
I0
sg42
I0
sg51
I0
sg28
I0
sg26
I0
sg31
I0
sg19
I0
sg40
I0
sg27
I0
sg24
I0
sg56
I0
sg20
I0
sg21
I0
sg18
I0
sg22
I0
sg45
I0
sg41
I0
sg49
I0
sg39
I0
sg16
I0
sg11
I0
sg10
I0
sg15
I0
sg44
I0
sg33
I0
sg17
I0
sg35
I0
sg14
I0
ssg8
(dp189
g43
I0
sg36
I0
sg52
I0
sg12
I0
sg54
I0
sg50
I0
sg37
I0
sg38
I0
sg47
I0
sg34
I0
sg8
I180
sg9
I0
sg48
I0
sg25
I0
sg46
I0
sg32
I0
sg30
I0
sg13
I0
sg29
I0
sg23
I0
sg42
I0
sg51
I0
sg28
I0
sg26
I0
sg31
I0
sg19
I0
sg40
I0
sg27
I0
sg55
I0
sg24
I0
sg56
I0
sg20
I0
sg21
I0
sg18
I0
sg22
I0
sg45
I0
sg41
I0
sg49
I0
sg39
I0
sg53
I0
sg16
I0
sg11
I0
sg10
I0
sg15
I0
sg44
I0
sg33
I0
sg17
I0
sg35
I0
sg14
I0
ssg9
(dp190
g130
I0
sg36
I0
sg52
I0
sg12
I0
sg54
I0
sg50
I0
sg37
I0
sg38
I0
sg47
I6
sg34
I0
sg8
I0
sg9
I2
sg48
I1
sg25
I0
sg46
I0
sg32
I0
sg30
I0
sg13
I0
sg29
I0
sg23
I0
sg141
I0
sg51
I0
sg28
I0
sg26
I0
sg31
I0
sg19
I0
sg40
I0
sg27
I0
sg55
I0
sg24
I0
sg56
I0
sg20
I0
sg21
I0
sg18
I0
sg22
I0
sS'steak.n.01'
p191
I0
sS'stuffing.n.01'
p192
I0
sg49
I0
sg39
I0
sg53
I0
sg16
I0
sg11
I0
sg10
I0
sg15
I0
sS'french_fries.n.01'
p193
I0
sg33
I0
sg17
I0
sg35
I0
sg14
I0
ssg48
(dp194
S'corn.n.03'
p195
I0
sS'mixing_bowl.n.01'
p196
I0
sS'dish.n.02'
p197
I0
sS'apple.n.01'
p198
I0
sS'add.v.01'
p199
I0
sS'milk.n.01'
p200
I0
sg48
I0
sS'pan.n.03'
p201
I0
sS'pot.n.09'
p202
I0
sS'flour.n.01'
p203
I0
sS'egg.n.02'
p204
I0
sS'butter.n.01'
p205
I0
sS'pot.n.01'
p206
I0
sS'meat.n.01'
p207
I0
sS'vanilla.n.02'
p208
I0
sS'bean.n.01'
p209
I0
sS'concoction.n.01'
p210
I0
sS'sauce.n.01'
p211
I0
sS'salt.n.02'
p212
I0
sS'mixture.n.01'
p213
I0
sS'cream.n.02'
p214
I0
sS'ingredient.n.03'
p215
I0
sS'steak.n.01'
p216
I0
sS'stuffing.n.01'
p217
I0
sS'vegetable.n.01'
p218
I0
sS'water.n.06'
p219
I0
sS'dressing.n.01'
p220
I0
sS'french_fries.n.01'
p221
I0
sS'salad.n.01'
p222
I0
sS'onion.n.03'
p223
I0
sS'sugar.n.01'
p224
I0
ssg25
(dp225
g43
I0
sg36
I0
sg52
I0
sg12
I0
sg54
I0
sg50
I0
sg37
I0
sg38
I0
sg47
I0
sg34
I0
sg8
I0
sg9
I0
sg48
I0
sg25
I27
sg46
I0
sg32
I0
sg30
I0
sg13
I0
sg29
I0
sg23
I0
sg42
I0
sg51
I0
sg28
I0
sg26
I0
sg31
I0
sg19
I0
sg40
I0
sg27
I0
sg55
I0
sg24
I0
sg56
I0
sg20
I0
sg21
I0
sg18
I0
sg22
I0
sg45
I0
sg41
I0
sg49
I0
sg39
I0
sg53
I0
sg16
I0
sg11
I0
sg10
I0
sg15
I0
sg44
I0
sg33
I0
sg17
I0
sg35
I0
sg14
I0
ssg46
(dp226
S'corn.n.03'
p227
I0
sg52
I0
sS'mixing_bowl.n.01'
p228
I0
sg54
I0
sS'dish.n.02'
p229
I0
sS'dish.n.01'
p230
I0
sg47
I0
sS'apple.n.01'
p231
I0
sS'add.v.01'
p232
I0
sS'milk.n.01'
p233
I0
sg48
I0
sS'pan.n.03'
p234
I0
sg46
I0
sS'flour.n.01'
p235
I0
sS'egg.n.02'
p236
I0
sS'butter.n.01'
p237
I0
sS'pot.n.01'
p238
I0
sS'asparagus.n.02'
p239
I0
sg172
I0
sS'vanilla.n.02'
p240
I0
sS'bean.n.01'
p241
I0
sS'concoction.n.01'
p242
I0
sS'sauce.n.01'
p243
I0
sg176
I0
sg55
I0
sS'rib.n.03'
p244
I0
sg213
I0
sS'cream.n.02'
p245
I0
sS'ingredient.n.03'
p246
I0
sS'cream.n.03'
p247
I0
sg191
I0
sg192
I0
sS'vegetable.n.01'
p248
I0
sg53
I0
sS'water_system.n.02'
p249
I0
sS'water.n.06'
p250
I0
sS'dressing.n.01'
p251
I0
sg193
I0
sS'salad.n.01'
p252
I0
sS'onion.n.03'
p253
I0
sS'sugar.n.01'
p254
I0
ssg32
(dp255
g43
I0
sg36
I0
sg52
I0
sg12
I0
sg54
I0
sg37
I0
sg38
I0
sg47
I0
sg34
I0
sg8
I0
sg9
I0
sg48
I0
sg25
I0
sg46
I0
sg32
I9
sg30
I0
sg13
I0
sg29
I0
sg23
I0
sg42
I0
sg28
I0
sg26
I0
sg31
I0
sg19
I0
sg40
I0
sg27
I0
sg55
I0
sg24
I0
sg56
I0
sg20
I0
sg21
I0
sg18
I0
sg22
I0
sg45
I0
sg41
I0
sg39
I0
sg53
I0
sg16
I0
sg11
I0
sg10
I0
sg15
I0
sg44
I0
sg33
I0
sg17
I0
sg35
I0
sg14
I0
ssg30
(dp256
g43
I0
sg36
I0
sg12
I0
sg37
I0
sg38
I0
sS'milk.n.04'
p257
I0
sg34
I0
sg8
I0
sg9
I0
sg25
I0
sg32
I0
sg30
I0
sg13
I0
sg29
I0
sg23
I0
sg42
I0
sg28
I0
sg26
I0
sg31
I0
sg19
I0
sg40
I0
sg27
I0
sg24
I0
sg56
I0
sg20
I0
sg21
I0
sg18
I0
sg22
I0
sg45
I0
sg41
I0
sg39
I0
sg16
I0
sg11
I0
sg10
I0
sg15
I0
sg44
I0
sg33
I0
sg17
I0
sg35
I0
sg14
I0
ssg13
(dp258
g43
I0
sg36
I0
sg52
I0
sg12
I0
sg54
I0
sg50
I0
sg37
I0
sg38
I0
sg47
I0
sg34
I0
sg8
I0
sg9
I0
sg48
I0
sg25
I0
sg46
I0
sg32
I0
sg30
I0
sg13
I27
sg29
I0
sg23
I0
sg42
I0
sg51
I0
sg28
I0
sg26
I0
sg31
I0
sg19
I0
sg40
I0
sg27
I0
sg55
I0
sg24
I0
sg56
I0
sg20
I0
sg21
I0
sg18
I0
sg22
I0
sg45
I0
sg41
I0
sg49
I0
sg39
I0
sg53
I0
sg16
I0
sg11
I0
sg10
I0
sg15
I0
sg44
I0
sg33
I0
sg17
I0
sg35
I0
sg14
I0
ssg29
(dp259
g43
I0
sg36
I0
sg52
I0
sg12
I0
sg54
I0
sg37
I0
sg38
I0
sg47
I0
sg34
I0
sg8
I0
sg9
I0
sg48
I0
sg25
I0
sg46
I6
sg32
I0
sg30
I3
sg13
I0
sg29
I0
sg23
I0
sg42
I0
sg28
I0
sg26
I0
sg31
I0
sg19
I0
sg40
I0
sg27
I0
sg55
I0
sg24
I0
sg56
I0
sg20
I0
sg21
I0
sg18
I0
sg22
I0
sg45
I0
sg41
I0
sg39
I0
sg53
I0
sg16
I0
sg11
I0
sg10
I0
sg15
I0
sg44
I0
sg33
I0
sg17
I0
sg35
I0
sg14
I0
ssg23
(dp260
g43
I0
sg36
I0
sg52
I0
sg12
I0
sg54
I0
sg50
I0
sg37
I0
sg38
I0
sg47
I0
sg34
I0
sg8
I0
sg9
I0
sg25
I0
sg46
I0
sg32
I0
sg30
I0
sg13
I0
sg29
I0
sg23
I6
sg42
I3
sg51
I0
sg28
I0
sg26
I0
sg31
I0
sg19
I0
sg40
I0
sg27
I0
sg55
I0
sg24
I0
sg56
I0
sg20
I0
sg21
I0
sg18
I0
sg22
I0
sg45
I0
sg41
I0
sg49
I0
sg39
I0
sg53
I0
sg16
I0
sg11
I0
sg10
I0
sg15
I0
sg44
I0
sg33
I0
sg17
I0
sg35
I0
sg14
I0
ssg42
(dp261
g43
I0
sg61
I0
sg62
I0
sg63
I0
sg64
I0
sg65
I0
sg66
I0
sg67
I0
sg68
I0
sg69
I0
sg70
I0
sg71
I0
sg72
I0
sg73
I0
sg74
I0
sg42
I0
sg51
I0
sg75
I0
sg76
I0
sg77
I0
sg78
I0
sg79
I0
sg80
I0
sg81
I0
sg56
I0
sg50
I0
sg82
I0
sg84
I0
sg83
I0
sg45
I0
sg41
I0
sg49
I0
sg85
I0
sg86
I0
sg87
I0
sg88
I0
sg89
I0
sg44
I0
sg90
I0
sg91
I0
sg92
I0
sg93
I0
ssg51
(dp262
g130
I0
sg131
I0
sg132
I0
sg133
I0
sg134
I0
sg65
I0
sg135
I0
sg136
I0
sg68
I0
sg137
I0
sg138
I0
sg139
I0
sg140
I0
sg141
I0
sg51
I0
sg142
I0
sg143
I0
sg144
I0
sg145
I0
sg146
I0
sg147
I0
sg148
I0
sg149
I0
sg150
I0
sg49
I0
sg151
I0
sg86
I0
sg87
I0
sg88
I0
sg152
I0
sg153
I0
sg50
I0
sg154
I0
sg155
I0
sg93
I0
ssg28
(dp263
g43
I3
sg36
I0
sg52
I0
sg12
I0
sg54
I0
sg50
I0
sg37
I0
sg38
I0
sg47
I0
sg34
I0
sg8
I0
sg9
I0
sg48
I0
sg25
I0
sg166
I0
sg32
I0
sg30
I0
sg13
I0
sg29
I0
sg23
I0
sg42
I0
sg51
I0
sg28
I6
sg26
I0
sg31
I0
sg19
I0
sg40
I0
sg27
I0
sg55
I0
sg24
I0
sg56
I0
sg20
I0
sg21
I0
sg18
I0
sg22
I0
sg45
I0
sg41
I0
sg49
I0
sg39
I0
sg53
I0
sg16
I0
sg11
I0
sg10
I0
sg15
I0
sg44
I0
sg33
I0
sg17
I0
sg35
I0
sg14
I0
ssg26
(dp264
g43
I0
sg36
I0
sg52
I0
sg12
I0
sg54
I0
sg50
I0
sg37
I0
sg38
I0
sg47
I0
sg34
I0
sg8
I0
sg9
I0
sg48
I0
sg25
I0
sg46
I0
sg32
I0
sg30
I0
sg13
I0
sg29
I0
sg23
I0
sg42
I0
sg51
I1
sg28
I0
sg26
I17
sg31
I0
sg19
I0
sg40
I0
sg27
I0
sg55
I0
sg24
I0
sg56
I0
sg20
I0
sg21
I0
sg18
I0
sg22
I0
sg45
I0
sg41
I0
sg49
I0
sg39
I0
sg53
I0
sg16
I0
sg11
I0
sg10
I0
sg15
I0
sg44
I0
sg33
I0
sg17
I0
sg35
I0
sg14
I0
ssg31
(dp265
g43
I0
sg36
I0
sg52
I0
sg12
I0
sg54
I0
sg37
I0
sg38
I0
sg47
I0
sg34
I0
sg8
I0
sg9
I0
sg48
I0
sg25
I0
sg46
I0
sg32
I0
sg30
I0
sg13
I0
sg29
I0
sg23
I0
sg42
I0
sg28
I0
sg26
I0
sg31
I9
sg19
I0
sg40
I0
sg27
I0
sg55
I0
sg24
I0
sg56
I0
sg20
I0
sg21
I0
sg18
I0
sg22
I0
sg45
I0
sg41
I0
sg39
I0
sg53
I0
sg16
I0
sg11
I0
sg10
I0
sg15
I0
sg44
I0
sg33
I0
sg17
I0
sg35
I0
sg14
I0
ssg19
(dp266
g43
I0
sg36
I0
sg52
I0
sg12
I0
sg54
I0
sg50
I1
sg37
I0
sg38
I0
sg47
I0
sg34
I0
sg8
I0
sg9
I0
sg48
I0
sg25
I0
sg46
I0
sg32
I0
sg30
I0
sg13
I0
sg29
I0
sg23
I0
sg42
I0
sg51
I0
sg28
I0
sg26
I0
sg31
I0
sg19
I5
sg40
I0
sg27
I0
sg55
I0
sg24
I0
sg56
I0
sg20
I3
sg21
I0
sg18
I0
sg22
I0
sg45
I0
sg41
I0
sg49
I0
sg39
I0
sg53
I0
sg16
I0
sg11
I0
sg10
I0
sg15
I0
sg44
I0
sg33
I0
sg17
I0
sg35
I0
sg14
I0
ssg40
(dp267
g43
I0
sg36
I0
sg52
I0
sg12
I0
sg54
I0
sg50
I0
sg37
I0
sg38
I0
sg65
I0
sg34
I0
sg8
I0
sg9
I0
sg48
I0
sg25
I0
sg46
I0
sg32
I0
sg30
I0
sg13
I0
sg29
I0
sg23
I0
sg42
I0
sg51
I0
sg28
I0
sg26
I0
sg31
I0
sg19
I0
sg40
I9
sg27
I0
sg55
I0
sg24
I0
sg56
I0
sg20
I0
sg21
I0
sg18
I0
sg22
I0
sg45
I0
sg41
I0
sg49
I0
sg39
I0
sg53
I0
sg16
I0
sg11
I0
sg10
I0
sg15
I0
sg44
I0
sg33
I0
sg17
I0
sg35
I0
sg14
I0
ssg27
(dp268
g43
I0
sg36
I0
sg52
I0
sg12
I0
sg54
I0
sg50
I0
sg37
I0
sg38
I0
sg47
I0
sg34
I0
sg8
I0
sg9
I0
sg48
I0
sg25
I0
sg166
I0
sg32
I0
sg30
I0
sg13
I0
sg29
I0
sg23
I0
sg42
I0
sg51
I0
sg28
I0
sg26
I0
sg31
I0
sg19
I0
sg40
I0
sg27
I8
sg55
I1
sg24
I0
sg56
I0
sg20
I0
sg21
I0
sg18
I0
sg22
I0
sg45
I0
sg41
I0
sg49
I0
sg39
I0
sg53
I0
sg16
I0
sg11
I0
sg10
I0
sg15
I0
sg44
I0
sg33
I0
sg17
I0
sg35
I0
sg14
I0
ssg55
(dp269
g96
I0
sg52
I0
sg97
I0
sg54
I0
sg98
I0
sg99
I0
sg100
I0
sg101
I0
sg102
I0
sg103
I0
sg104
I0
sg105
I0
sg106
I0
sg107
I0
sg108
I0
sg109
I0
sg110
I0
sg111
I0
sg112
I0
sg113
I0
sg114
I0
sg55
I0
sg115
I0
sg116
I0
sg117
I0
sg118
I0
sg119
I0
sg120
I0
sg121
I0
sg53
I0
sg122
I0
sg123
I0
sg124
I0
sg125
I0
sg126
I0
ssg24
(dp270
g43
I0
sg36
I0
sg52
I0
sg12
I0
sg54
I0
sg50
I0
sg37
I0
sg38
I0
sg47
I0
sg34
I0
sg8
I0
sg9
I0
sg25
I0
sg46
I0
sg32
I0
sg30
I0
sg13
I0
sg29
I0
sg23
I0
sg42
I0
sg51
I0
sg28
I0
sg26
I0
sg31
I0
sg19
I0
sg40
I0
sg27
I0
sg55
I0
sg24
I8
sg56
I1
sg20
I0
sg21
I0
sg18
I0
sg22
I0
sg45
I0
sg41
I0
sg49
I0
sg39
I0
sg53
I0
sg16
I0
sg11
I0
sg10
I0
sg15
I0
sg44
I0
sg33
I0
sg17
I0
sg35
I0
sg14
I0
ssg56
(dp271
S'kernel.n.01'
p272
I0
sS'corn.n.03'
p273
I0
sS'mixing_bowl.n.01'
p274
I0
sS'dish.n.02'
p275
I0
sS'dish.n.01'
p276
I0
sg257
I0
sS'apple.n.01'
p277
I0
sS'add.v.01'
p278
I0
sS'milk.n.01'
p279
I0
sS'pan.n.03'
p280
I0
sS'flour.n.01'
p281
I0
sS'egg.n.02'
p282
I0
sS'butter.n.01'
p283
I0
sS'pot.n.01'
p284
I0
sS'asparagus.n.02'
p285
I0
sS'asparagus.n.01'
p286
I0
sS'meat.n.01'
p287
I0
sS'vanilla.n.02'
p288
I0
sS'bean.n.01'
p289
I0
sS'concoction.n.01'
p290
I0
sS'sauce.n.01'
p291
I0
sS'salt.n.02'
p292
I0
sS'rib.n.03'
p293
I0
sg56
I0
sS'cream.n.02'
p294
I0
sS'cream.n.03'
p295
I0
sS'ingredient.n.03'
p296
I0
sS'steak.n.01'
p297
I0
sS'vegetable.n.01'
p298
I0
sS'dressing.n.04'
p299
I0
sS'water_system.n.02'
p300
I0
sS'water.n.06'
p301
I0
sS'dressing.n.01'
p302
I0
sS'french_fries.n.01'
p303
I0
sg181
I0
sS'salad.n.01'
p304
I0
sS'onion.n.03'
p305
I0
sS'sugar.n.01'
p306
I0
ssg20
(dp307
g36
I0
sg52
I0
sg12
I0
sg54
I0
sg37
I0
sg38
I0
sg99
I0
sg34
I0
sg8
I0
sg9
I0
sg48
I0
sg25
I0
sg202
I0
sg32
I0
sg30
I0
sg13
I0
sg29
I0
sg23
I0
sg28
I0
sg26
I0
sg31
I0
sg19
I0
sg40
I0
sg27
I0
sg55
I0
sg24
I0
sg20
I0
sg21
I0
sg18
I0
sg22
I0
sg216
I0
sg217
I0
sg39
I0
sg53
I0
sg16
I0
sg11
I0
sg10
I0
sg15
I0
sg221
I0
sg33
I0
sg17
I0
sg35
I0
sg14
I0
ssg21
(dp308
g43
I0
sg36
I0
sg52
I0
sg12
I0
sg54
I0
sg50
I0
sg37
I0
sg38
I0
sg47
I0
sg34
I0
sg8
I0
sg9
I0
sg48
I0
sg25
I0
sg46
I0
sg32
I0
sg30
I0
sg13
I0
sg29
I0
sg23
I0
sg42
I0
sg51
I0
sg28
I0
sg26
I0
sg31
I0
sg19
I0
sg40
I0
sg27
I0
sg55
I0
sg24
I0
sg56
I0
sg20
I0
sg21
I10
sg18
I0
sg22
I8
sg45
I0
sg41
I0
sg49
I0
sg39
I0
sg53
I0
sg16
I0
sg11
I0
sg10
I0
sg15
I0
sg44
I0
sg33
I0
sg17
I0
sg35
I0
sg14
I0
ssg18
(dp309
g43
I0
sg36
I0
sg52
I0
sg12
I0
sg54
I0
sg50
I0
sg37
I0
sg38
I0
sg47
I0
sg34
I0
sg8
I0
sg9
I0
sg48
I0
sg25
I0
sg46
I0
sg32
I0
sg30
I0
sg13
I0
sg29
I0
sg23
I0
sg42
I0
sg51
I0
sg28
I0
sg26
I0
sg31
I0
sg19
I0
sg40
I0
sg27
I0
sg55
I0
sg24
I0
sg56
I0
sg20
I0
sg21
I0
sg18
I18
sg22
I0
sg45
I0
sg41
I0
sg49
I0
sg39
I0
sg53
I0
sg16
I0
sg11
I0
sg10
I0
sg15
I0
sg44
I0
sg33
I0
sg17
I0
sg35
I0
sg14
I0
ssg22
(dp310
g43
I0
sg36
I0
sg12
I0
sg50
I0
sg37
I0
sg38
I0
sg65
I0
sg34
I0
sg8
I0
sg9
I0
sg25
I0
sg46
I0
sg32
I0
sg30
I0
sg13
I0
sg29
I0
sg23
I0
sg42
I0
sg51
I0
sg28
I0
sg26
I0
sg31
I0
sg19
I0
sg40
I0
sg27
I0
sg24
I0
sg56
I0
sg20
I0
sg21
I0
sg18
I0
sg22
I0
sg45
I0
sg41
I0
sg49
I0
sg39
I0
sg16
I0
sg11
I0
sg10
I0
sg15
I0
sg44
I0
sg33
I0
sg17
I0
sg35
I0
sg14
I0
ssg45
(dp311
g43
I0
sg61
I0
sg52
I0
sg62
I0
sg54
I0
sg63
I0
sg64
I0
sg47
I0
sg66
I0
sg67
I0
sg233
I0
sg48
I0
sg69
I0
sg46
I0
sg70
I0
sg90
I0
sg72
I0
sg73
I0
sg74
I0
sg42
I0
sg75
I0
sg76
I0
sg77
I0
sg78
I0
sg79
I0
sg80
I0
sg55
I0
sg81
I0
sg56
I0
sg213
I0
sg82
I0
sg83
I0
sg84
I0
sg45
I8
sg41
I0
sg85
I0
sg53
I0
sg299
I0
sg249
I0
sg250
I0
sg89
I0
sg44
I0
sg71
I0
sg91
I0
sg92
I0
sg254
I0
ssg41
(dp312
g43
I0
sg61
I0
sg52
I0
sg62
I0
sg54
I0
sg63
I0
sg64
I0
sg99
I0
sg66
I0
sg67
I0
sg233
I0
sg48
I0
sg69
I0
sg46
I0
sg70
I0
sg71
I0
sg72
I0
sg73
I0
sg74
I0
sg42
I0
sg75
I0
sg76
I0
sg77
I0
sg78
I0
sg79
I0
sg80
I0
sg55
I0
sg81
I0
sg213
I0
sg82
I0
sg83
I0
sg84
I0
sg45
I0
sg41
I0
sg85
I0
sg53
I0
sg249
I0
sg250
I0
sg89
I0
sg44
I0
sg90
I0
sg91
I0
sg92
I0
sg254
I0
ssg49
(dp313
g130
I0
sg131
I0
sg132
I0
sg150
I0
sg133
I0
sg134
I0
sg65
I0
sg135
I0
sg136
I0
sg68
I0
sg137
I0
sg138
I0
sg139
I0
sg140
I0
sg141
I0
sg51
I0
sg142
I0
sg143
I0
sg144
I0
sg145
I0
sg146
I0
sg147
I0
sg148
I0
sg149
I0
sg49
I0
sg151
I0
sg86
I0
sg87
I0
sg88
I0
sg152
I0
sg153
I0
sg50
I0
sg154
I0
sg155
I0
sg93
I0
ssg39
(dp314
g43
I0
sg36
I0
sg52
I0
sg12
I0
sg54
I0
sg50
I0
sg37
I0
sg38
I0
sg65
I0
sg34
I0
sg8
I0
sg9
I0
sg48
I0
sg25
I0
sg46
I0
sg32
I0
sg30
I0
sg13
I0
sg29
I0
sg23
I0
sg42
I0
sg51
I0
sg28
I0
sg26
I0
sg31
I0
sg19
I0
sg40
I0
sg27
I0
sg55
I0
sg24
I0
sg56
I0
sg20
I0
sg21
I0
sg18
I0
sg22
I0
sg45
I0
sg41
I0
sg49
I0
sg39
I9
sg53
I0
sg16
I0
sg11
I0
sg10
I0
sg15
I0
sg44
I0
sg33
I0
sg17
I0
sg35
I0
sg14
I0
ssg53
(dp315
g96
I0
sg52
I0
sg97
I0
sg54
I0
sg98
I0
sg99
I0
sg100
I0
sg101
I0
sg102
I0
sg103
I0
sg104
I0
sg105
I0
sg106
I0
sg107
I0
sg108
I0
sg109
I0
sg110
I0
sg111
I0
sg112
I0
sg113
I0
sg114
I0
sg55
I0
sg115
I0
sg116
I0
sg117
I0
sg118
I0
sg119
I0
sg120
I0
sg121
I0
sg53
I0
sg122
I0
sg123
I0
sg124
I0
sg125
I0
sg126
I0
ssg16
(dp316
g130
I0
sg36
I0
sg12
I0
sg50
I0
sg37
I0
sg38
I0
sg65
I0
sg34
I0
sg8
I0
sg9
I0
sg25
I0
sg32
I0
sg30
I0
sg13
I0
sg29
I0
sg23
I0
sg141
I0
sg51
I0
sg28
I0
sg26
I0
sg31
I0
sg19
I0
sg40
I0
sg27
I0
sg24
I0
sg56
I0
sg20
I0
sg21
I0
sg18
I0
sg22
I0
sg297
I0
sg49
I0
sg39
I0
sg16
I0
sg11
I0
sg10
I0
sg15
I0
sg153
I0
sg33
I0
sg17
I0
sg35
I0
sg14
I0
ssg11
(dp317
g130
I0
sg36
I0
sg12
I0
sg50
I0
sg37
I0
sg38
I0
sg65
I0
sg34
I0
sg8
I0
sg9
I0
sg25
I0
sg46
I0
sg32
I0
sg30
I0
sg13
I0
sg29
I0
sg23
I0
sg141
I0
sg51
I0
sg28
I0
sg26
I0
sg31
I0
sg19
I0
sg40
I0
sg27
I0
sg24
I0
sg56
I0
sg20
I0
sg21
I0
sg18
I0
sg22
I0
sg191
I0
sg192
I0
sg49
I0
sg39
I0
sg16
I0
sg11
I0
sg10
I0
sg15
I0
sg193
I0
sg33
I0
sg17
I0
sg35
I0
sg14
I0
ssg10
(dp318
g130
I0
sg36
I0
sg52
I0
sg12
I0
sg54
I0
sg50
I0
sg37
I0
sg38
I0
sg47
I0
sg34
I0
sg8
I0
sg9
I0
sg48
I0
sg25
I0
sg46
I0
sg32
I0
sg30
I0
sg13
I0
sg29
I0
sg23
I0
sg141
I0
sg51
I0
sg28
I0
sg26
I0
sg31
I0
sg19
I0
sg40
I0
sg27
I0
sg55
I0
sg24
I0
sg56
I0
sg20
I0
sg21
I0
sg18
I0
sg22
I0
sg191
I0
sg192
I0
sg49
I0
sg39
I0
sg53
I1
sg16
I0
sg11
I4
sg10
I4
sg15
I0
sg193
I0
sg33
I0
sg17
I0
sg35
I0
sg14
I0
ssg15
(dp319
g43
I0
sg36
I0
sg52
I0
sg12
I0
sg54
I0
sg50
I0
sg37
I0
sg38
I0
sg47
I0
sg34
I0
sg8
I0
sg9
I0
sg48
I0
sg25
I0
sg46
I0
sg32
I0
sg30
I0
sg13
I0
sg29
I0
sg23
I0
sg42
I0
sg51
I0
sg28
I0
sg26
I0
sg31
I0
sg19
I0
sg40
I0
sg27
I0
sg55
I0
sg24
I0
sg56
I0
sg20
I0
sg21
I0
sg18
I0
sg22
I0
sg45
I0
sg41
I5
sg49
I0
sg39
I0
sg53
I0
sg16
I3
sg11
I0
sg10
I0
sg15
I1
sg44
I0
sg33
I0
sg17
I0
sg35
I0
sg14
I0
ssg44
(dp320
g43
I0
sg61
I0
sg52
I0
sg62
I0
sg54
I0
sg50
I0
sg63
I0
sg64
I0
sg47
I0
sg66
I0
sg67
I0
sg233
I0
sg48
I0
sg69
I0
sg46
I0
sg70
I0
sg90
I0
sg72
I0
sg73
I0
sg74
I0
sg42
I0
sg51
I0
sg75
I0
sg76
I0
sg77
I0
sg78
I0
sg79
I0
sg80
I0
sg55
I0
sg81
I0
sg56
I0
sg213
I0
sg82
I0
sg83
I0
sg84
I0
sg45
I0
sg41
I0
sg49
I0
sg85
I0
sg53
I0
sg86
I0
sg249
I0
sg250
I0
sg89
I0
sg44
I9
sg71
I0
sg91
I0
sg92
I0
sg254
I0
ssg33
(dp321
g43
I0
sg36
I0
sg52
I0
sg12
I0
sg54
I0
sg50
I0
sg37
I0
sg38
I0
sg47
I0
sg34
I0
sg8
I0
sg9
I0
sg48
I0
sg25
I0
sg46
I0
sg32
I0
sg33
I18
sg13
I0
sg29
I0
sg23
I0
sg42
I0
sg51
I0
sg28
I0
sg26
I0
sg31
I0
sg19
I0
sg40
I0
sg27
I0
sg55
I0
sg24
I0
sg56
I0
sg20
I0
sg21
I0
sg18
I0
sg22
I0
sg45
I0
sg41
I0
sg49
I0
sg39
I0
sg53
I0
sg16
I0
sg11
I0
sg10
I0
sg15
I0
sg44
I0
sg30
I0
sg17
I0
sg35
I0
sg14
I0
ssg17
(dp322
g43
I0
sg36
I0
sg52
I0
sg12
I0
sg54
I0
sg50
I0
sg37
I0
sg38
I0
sg47
I0
sg34
I0
sg8
I0
sg9
I0
sg48
I0
sg25
I0
sg46
I0
sg32
I0
sg30
I0
sg13
I0
sg29
I0
sg23
I0
sg42
I0
sg51
I0
sg28
I0
sg26
I0
sg31
I0
sg19
I0
sg40
I0
sg27
I0
sg55
I0
sg24
I0
sg56
I0
sg20
I0
sg21
I0
sg18
I0
sg22
I0
sg45
I0
sg41
I0
sg49
I0
sg39
I0
sg53
I0
sg16
I0
sg11
I0
sg10
I0
sg15
I0
sg44
I0
sg33
I0
sg17
I18
sg35
I0
sg14
I0
ssg35
(dp323
g43
I0
sg36
I0
sg12
I0
sg50
I0
sg37
I0
sg38
I0
sg47
I0
sg34
I0
sg8
I0
sg9
I0
sg48
I0
sg25
I0
sg46
I0
sg32
I0
sg30
I0
sg13
I0
sg29
I0
sg23
I0
sg42
I0
sg51
I0
sg28
I0
sg26
I0
sg31
I0
sg19
I0
sg40
I0
sg27
I0
sg24
I0
sg56
I0
sg20
I0
sg21
I0
sg18
I0
sg22
I0
sg45
I0
sg41
I0
sg49
I0
sg39
I0
sg16
I0
sg11
I0
sg10
I0
sg15
I0
sg44
I0
sg33
I0
sg17
I0
sg35
I9
sg14
I0
ssg14
(dp324
g130
I0
sg36
I0
sg52
I0
sg12
I0
sg54
I1
sg50
I0
sg37
I0
sg38
I0
sg47
I0
sg34
I0
sg8
I0
sg9
I0
sg48
I0
sg25
I0
sg46
I0
sg32
I0
sg30
I0
sg13
I0
sg29
I0
sg23
I0
sg141
I0
sg51
I0
sg28
I0
sg26
I0
sg31
I0
sg19
I0
sg40
I0
sg27
I0
sg55
I0
sg24
I0
sg56
I0
sg20
I0
sg21
I0
sg18
I0
sg22
I0
sg191
I0
sg192
I0
sg49
I1
sg39
I0
sg53
I0
sg16
I0
sg11
I0
sg10
I0
sg15
I0
sg193
I0
sg33
I0
sg17
I0
sg35
I0
sg14
I7
sssb.