ccopy_reg
_reconstructor
p0
(cutils.eval
ConfusionMatrix
p1
c__builtin__
object
p2
Ntp3
Rp4
(dp5
S'labels'
p6
(lp7
S'add.v.01'
p8
aS'apple.n.01'
p9
aS'onion.n.03'
p10
aS'ingredient.n.03'
p11
aS'pan.n.03'
p12
aS'vanilla.n.02'
p13
aS'corn.n.03'
p14
aS'dish.n.02'
p15
aS'dish.n.01'
p16
aS'egg.n.02'
p17
aS'vegetable.n.01'
p18
aS'sauce.n.01'
p19
aS'cream.n.02'
p20
aS'cream.n.03'
p21
aS'french_fries.n.01'
p22
aS'butter.n.01'
p23
aS'milk.n.01'
p24
aS'milk.n.04'
p25
aS'water.n.06'
p26
aS'water_system.n.02'
p27
aS'mixing_bowl.n.01'
p28
aS'sugar.n.01'
p29
aS'boodle.n.01'
p30
aS'dressing.n.01'
p31
aS'dressing.n.04'
p32
aS'salad.n.01'
p33
aS'concoction.n.01'
p34
aS'mix.n.03'
p35
aS'asparagus.n.02'
p36
aS'asparagus.n.01'
p37
aS'rib.n.03'
p38
aS'vanilla.n.01'
p39
aS'salt.n.02'
p40
aS'meat.n.01'
p41
aS'kernel.n.01'
p42
asS'instanceCount'
p43
I50
sS'matrix'
p44
(dp45
g42
(dp46
g42
I0
ssg14
(dp47
S'corn.n.03'
p48
I1
ssg28
(dp49
S'mixing_bowl.n.01'
p50
I1
ssg15
(dp51
g16
I1
ssg16
(dp52
g16
I0
ssg25
(dp53
g25
I0
ssg9
(dp54
S'apple.n.01'
p55
I1
ssg8
(dp56
S'add.v.01'
p57
I18
ssg24
(dp58
g25
I1
ssg12
(dp59
S'pan.n.03'
p60
I3
ssg17
(dp61
S'egg.n.02'
p62
I1
ssg23
(dp63
S'butter.n.01'
p64
I3
ssg36
(dp65
g37
I1
ssg37
(dp66
g37
I0
ssg39
(dp67
g39
I0
ssg41
(dp68
g42
I1
ssg13
(dp69
g39
I1
sS'vanilla.n.02'
p70
I1
ssg34
(dp71
g35
I1
ssg19
(dp72
S'sauce.n.01'
p73
I1
ssg40
(dp74
S'salt.n.02'
p75
I1
ssg38
(dp76
S'rib.n.03'
p77
I1
ssg20
(dp78
g21
I2
ssg11
(dp79
S'ingredient.n.03'
p80
I2
ssg21
(dp81
g21
I0
ssg30
(dp82
g30
I0
ssg18
(dp83
S'vegetable.n.01'
p84
I1
ssg32
(dp85
g32
I0
ssg27
(dp86
g27
I0
ssg26
(dp87
g27
I1
ssg31
(dp88
g32
I1
ssg22
(dp89
S'french_fries.n.01'
p90
I1
ssg35
(dp91
g35
I0
ssg33
(dp92
S'salad.n.01'
p93
I2
ssg10
(dp94
S'onion.n.03'
p95
I1
ssg29
(dp96
g30
I1
sssb.