ccopy_reg
_reconstructor
p0
(cutils.eval
ConfusionMatrix
p1
c__builtin__
object
p2
Ntp3
Rp4
(dp5
S'labels'
p6
(lp7
S'add.v.01'
p8
aS'dressing.n.01'
p9
aS'stuffing.n.01'
p10
aS'salad.n.01'
p11
aS'ingredient.n.03'
p12
aS'concoction.n.01'
p13
aS'cream.n.02'
p14
aS'cream.n.03'
p15
aS'asparagus.n.02'
p16
aS'asparagus.n.01'
p17
aS'rib.n.03'
p18
aS'pan.n.03'
p19
aS'butter.n.01'
p20
aS'vanilla.n.02'
p21
aS'salt.n.02'
p22
aS'meat.n.01'
p23
aS'kernel.n.01'
p24
aS'pot.n.01'
p25
aS'pot.n.04'
p26
aS'bean.n.01'
p27
aS'flour.n.01'
p28
aS'egg.n.02'
p29
aS'mixing_bowl.n.01'
p30
aS'apple.n.01'
p31
aS'onion.n.03'
p32
aS'corn.n.03'
p33
aS'dish.n.02'
p34
aS'dish.n.01'
p35
aS'vegetable.n.01'
p36
aS'sauce.n.01'
p37
aS'french_fries.n.01'
p38
aS'steak.n.01'
p39
asS'instanceCount'
p40
I51
sS'matrix'
p41
(dp42
g24
(dp43
g24
I0
ssg33
(dp44
S'corn.n.03'
p45
I1
ssg30
(dp46
S'mixing_bowl.n.01'
p47
I1
ssg34
(dp48
g35
I1
ssg35
(dp49
g35
I0
ssg31
(dp50
S'apple.n.01'
p51
I1
ssg8
(dp52
S'add.v.01'
p53
I18
ssg19
(dp54
S'pan.n.03'
p55
I3
ssg28
(dp56
S'flour.n.01'
p57
I1
ssg29
(dp58
S'egg.n.02'
p59
I2
ssg20
(dp60
S'butter.n.01'
p61
I2
ssg25
(dp62
g26
I1
ssg16
(dp63
g17
I1
ssg17
(dp64
g17
I0
ssg23
(dp65
g24
I1
ssg21
(dp66
S'vanilla.n.02'
p67
I2
ssg27
(dp68
S'bean.n.01'
p69
I1
ssg13
(dp70
S'concoction.n.01'
p71
I1
ssg37
(dp72
S'sauce.n.01'
p73
I1
ssg22
(dp74
S'salt.n.02'
p75
I1
ssg18
(dp76
S'rib.n.03'
p77
I1
ssg14
(dp78
S'cream.n.02'
p79
I1
sg15
I1
ssg12
(dp80
S'ingredient.n.03'
p81
I2
ssg15
(dp82
g15
I0
ssg39
(dp83
S'steak.n.01'
p84
I1
ssg10
(dp85
g10
I0
ssg36
(dp86
S'vegetable.n.01'
p87
I1
ssg9
(dp88
g10
I1
ssg38
(dp89
S'french_fries.n.01'
p90
I1
ssg26
(dp91
g26
I0
ssg11
(dp92
S'salad.n.01'
p93
I2
ssg32
(dp94
S'onion.n.03'
p95
I1
sssb.