ccopy_reg
_reconstructor
p0
(cutils.eval
ConfusionMatrix
p1
c__builtin__
object
p2
Ntp3
Rp4
(dp5
S'labels'
p6
(lp7
S'add.v.01'
p8
aS'french_fries.n.01'
p9
aS'steak.n.01'
p10
aS'pan.n.03'
p11
aS'butter.n.01'
p12
aS'milk.n.01'
p13
aS'milk.n.04'
p14
aS'water.n.06'
p15
aS'mixing_bowl.n.01'
p16
aS'sugar.n.01'
p17
aS'dressing.n.01'
p18
aS'salad.n.01'
p19
aS'ingredient.n.03'
p20
aS'concoction.n.01'
p21
aS'cream.n.02'
p22
aS'asparagus.n.02'
p23
aS'rib.n.03'
p24
aS'vanilla.n.02'
p25
aS'salt.n.02'
p26
aS'meat.n.01'
p27
aS'pot.n.01'
p28
aS'pot.n.09'
p29
aS'bean.n.01'
p30
aS'flour.n.01'
p31
aS'egg.n.02'
p32
aS'apple.n.01'
p33
aS'onion.n.03'
p34
aS'corn.n.03'
p35
aS'dish.n.02'
p36
asS'instanceCount'
p37
I53
sS'matrix'
p38
(dp39
g35
(dp40
S'corn.n.03'
p41
I1
ssg16
(dp42
S'mixing_bowl.n.01'
p43
I2
ssg36
(dp44
S'dish.n.02'
p45
I1
ssg14
(dp46
g14
I0
ssg33
(dp47
S'apple.n.01'
p48
I1
ssg8
(dp49
S'add.v.01'
p50
I18
ssg13
(dp51
g14
I1
ssg11
(dp52
S'pan.n.03'
p53
I3
ssg29
(dp54
g29
I0
ssg31
(dp55
S'flour.n.01'
p56
I1
ssg32
(dp57
S'egg.n.02'
p58
I2
ssg12
(dp59
S'butter.n.01'
p60
I3
ssg28
(dp61
g29
I1
ssg23
(dp62
S'asparagus.n.02'
p63
I1
ssg27
(dp64
S'meat.n.01'
p65
I1
ssg25
(dp66
S'vanilla.n.02'
p67
I2
ssg30
(dp68
S'bean.n.01'
p69
I1
ssg21
(dp70
S'concoction.n.01'
p71
I1
ssg26
(dp72
S'salt.n.02'
p73
I1
ssg24
(dp74
S'rib.n.03'
p75
I1
ssg22
(dp76
S'cream.n.02'
p77
I1
ssg20
(dp78
S'ingredient.n.03'
p79
I2
ssg10
(dp80
S'steak.n.01'
p81
I1
ssg15
(dp82
S'water.n.06'
p83
I1
ssg18
(dp84
S'dressing.n.01'
p85
I1
ssg9
(dp86
S'french_fries.n.01'
p87
I1
ssg19
(dp88
S'salad.n.01'
p89
I2
ssg34
(dp90
S'onion.n.03'
p91
I1
ssg17
(dp92
S'sugar.n.01'
p93
I1
sssb.