ccopy_reg
_reconstructor
p0
(cutils.eval
ConfusionMatrix
p1
c__builtin__
object
p2
Ntp3
Rp4
(dp5
S'labels'
p6
(lp7
S'add.v.01'
p8
aS'ingredient.n.03'
p9
aS'pan.n.03'
p10
aS'vanilla.n.02'
p11
aS'corn.n.03'
p12
aS'corn.n.02'
p13
aS'dish.n.02'
p14
aS'egg.n.02'
p15
aS'vegetable.n.01'
p16
aS'sauce.n.01'
p17
aS'cream.n.02'
p18
aS'french_fries.n.01'
p19
aS'steak.n.01'
p20
aS'butter.n.01'
p21
aS'milk.n.01'
p22
aS'milk.n.04'
p23
aS'water.n.06'
p24
aS'water.n.03'
p25
aS'mixing_bowl.n.01'
p26
aS'sugar.n.01'
p27
aS'carbohydrate.n.01'
p28
aS'dressing.n.01'
p29
aS'stuffing.n.01'
p30
aS'salad.n.01'
p31
aS'concoction.n.01'
p32
aS'mixture.n.01'
p33
aS'asparagus.n.02'
p34
aS'rib.n.03'
p35
aS'salt.n.02'
p36
aS'salt.n.01'
p37
aS'meat.n.01'
p38
aS'pot.n.01'
p39
aS'pot.n.09'
p40
aS'bean.n.01'
p41
aS'flour.n.01'
p42
asS'instanceCount'
p43
I54
sS'matrix'
p44
(dp45
g12
(dp46
g13
I1
ssg13
(dp47
g13
I0
ssg26
(dp48
S'mixing_bowl.n.01'
p49
I2
ssg28
(dp50
g28
I0
ssg14
(dp51
S'dish.n.02'
p52
I1
ssg23
(dp53
g23
I0
ssg8
(dp54
S'add.v.01'
p55
I18
ssg22
(dp56
g23
I1
ssg10
(dp57
S'pan.n.03'
p58
I3
ssg40
(dp59
g40
I0
ssg42
(dp60
S'flour.n.01'
p61
I1
ssg15
(dp62
S'egg.n.02'
p63
I2
ssg21
(dp64
S'butter.n.01'
p65
I3
ssg39
(dp66
g40
I1
ssg34
(dp67
S'asparagus.n.02'
p68
I1
ssg38
(dp69
S'meat.n.01'
p70
I1
ssg11
(dp71
S'vanilla.n.02'
p72
I2
ssg41
(dp73
S'bean.n.01'
p74
I1
ssg32
(dp75
g33
I1
ssg17
(dp76
S'sauce.n.01'
p77
I1
ssg36
(dp78
g37
I1
ssg37
(dp79
g37
I0
ssg35
(dp80
S'rib.n.03'
p81
I1
ssg33
(dp82
g33
I0
ssg18
(dp83
S'cream.n.02'
p84
I2
ssg9
(dp85
S'ingredient.n.03'
p86
I2
ssg20
(dp87
S'steak.n.01'
p88
I1
ssg30
(dp89
g30
I0
ssg16
(dp90
S'vegetable.n.01'
p91
I1
ssg25
(dp92
g25
I0
ssg24
(dp93
g25
I1
ssg29
(dp94
g30
I1
ssg19
(dp95
S'french_fries.n.01'
p96
I1
ssg31
(dp97
S'salad.n.01'
p98
I2
ssg27
(dp99
g28
I1
sssb.