ccopy_reg
_reconstructor
p0
(cutils.eval
ConfusionMatrix
p1
c__builtin__
object
p2
Ntp3
Rp4
(dp5
S'labels'
p6
(lp7
S'pot.n.01'
p8
aS'pot.n.09'
p9
aS'add.v.01'
p10
aS'bean.n.01'
p11
aS'flour.n.01'
p12
aS'egg.n.02'
p13
aS'mixing_bowl.n.01'
p14
aS'apple.n.01'
p15
aS'onion.n.03'
p16
aS'ingredient.n.03'
p17
aS'pan.n.03'
p18
aS'vanilla.n.02'
p19
aS'corn.n.03'
p20
aS'dish.n.02'
p21
aS'dish.n.01'
p22
aS'vegetable.n.01'
p23
aS'sauce.n.01'
p24
aS'cream.n.02'
p25
aS'french_fries.n.01'
p26
aS'steak.n.01'
p27
aS'butter.n.01'
p28
aS'milk.n.01'
p29
aS'water.n.06'
p30
aS'water_system.n.02'
p31
aS'sugar.n.01'
p32
aS'dressing.n.01'
p33
aS'stuffing.n.01'
p34
aS'salad.n.01'
p35
aS'concoction.n.01'
p36
aS'cream.n.03'
p37
aS'asparagus.n.02'
p38
aS'rib.n.03'
p39
asS'instanceCount'
p40
I51
sS'matrix'
p41
(dp42
g20
(dp43
S'corn.n.03'
p44
I1
ssg14
(dp45
S'mixing_bowl.n.01'
p46
I2
ssg21
(dp47
g22
I1
ssg22
(dp48
g22
I0
ssg15
(dp49
S'apple.n.01'
p50
I1
ssg10
(dp51
S'add.v.01'
p52
I18
ssg29
(dp53
S'milk.n.01'
p54
I1
ssg18
(dp55
S'pan.n.03'
p56
I2
ssg9
(dp57
g9
I0
ssg12
(dp58
S'flour.n.01'
p59
I1
ssg13
(dp60
S'egg.n.02'
p61
I2
ssg28
(dp62
S'butter.n.01'
p63
I2
ssg8
(dp64
g9
I1
ssg38
(dp65
S'asparagus.n.02'
p66
I1
ssg19
(dp67
S'vanilla.n.02'
p68
I1
ssg11
(dp69
S'bean.n.01'
p70
I1
ssg36
(dp71
S'concoction.n.01'
p72
I1
ssg24
(dp73
S'sauce.n.01'
p74
I1
ssg39
(dp75
S'rib.n.03'
p76
I1
ssg25
(dp77
S'cream.n.02'
p78
I1
sg37
I1
ssg17
(dp79
S'ingredient.n.03'
p80
I2
ssg37
(dp81
g37
I0
ssg27
(dp82
S'steak.n.01'
p83
I1
ssg34
(dp84
g34
I0
ssg23
(dp85
S'vegetable.n.01'
p86
I1
ssg31
(dp87
g31
I0
ssg30
(dp88
g31
I1
ssg33
(dp89
g34
I1
ssg26
(dp90
S'french_fries.n.01'
p91
I1
ssg35
(dp92
S'salad.n.01'
p93
I2
ssg16
(dp94
S'onion.n.03'
p95
I1
ssg32
(dp96
S'sugar.n.01'
p97
I1
sssb.