ccopy_reg
_reconstructor
p0
(cutils.eval
ConfusionMatrix
p1
c__builtin__
object
p2
Ntp3
Rp4
(dp5
S'labels'
p6
(lp7
S'knife.n.01'
p8
aS'tongue.n.03'
p9
aS'banana.n.02'
p10
aS'slice.v.03'
p11
aS'fill.v.01'
p12
aS'pitcher.n.02'
p13
aS'milk.n.01'
p14
aS'opening.n.01'
p15
aS'gap.n.03'
p16
aS'fill.v.09'
p17
aS'batter.n.02'
p18
aS'onion.n.01'
p19
aS'pepper.n.04'
p20
aS'pepper.n.03'
p21
asS'instanceCount'
p22
I12
sS'matrix'
p23
(dp24
g11
(dp25
S'slice.v.03'
p26
I2
ssg8
(dp27
g9
I1
ssg16
(dp28
g16
I0
ssg10
(dp29
S'banana.n.02'
p30
I1
ssg17
(dp31
S'fill.v.01'
p32
I1
ssg20
(dp33
g21
I1
ssg21
(dp34
g21
I0
ssg12
(dp35
S'fill.v.01'
p36
I1
ssg13
(dp37
S'pitcher.n.02'
p38
I1
ssg18
(dp39
S'batter.n.02'
p40
I1
ssg9
(dp41
g9
I0
ssg19
(dp42
S'onion.n.01'
p43
I1
ssg14
(dp44
S'milk.n.01'
p45
I1
ssg15
(dp46
g16
I1
sssb.