ccopy_reg
_reconstructor
p0
(cutils.eval
ConfusionMatrix
p1
c__builtin__
object
p2
Ntp3
Rp4
(dp5
S'labels'
p6
(lp7
S'opening.n.01'
p8
aS'gap.n.03'
p9
aS'fill.v.09'
p10
aS'fill.v.01'
p11
aS'batter.n.02'
p12
aS'slice.v.03'
p13
aS'onion.n.01'
p14
aS'pepper.n.04'
p15
aS'flesh.n.01'
p16
aS'pulp.n.02'
p17
aS'pan.n.01'
p18
aS'pan.n.03'
p19
aS'water.n.06'
p20
asS'instanceCount'
p21
I11
sS'matrix'
p22
(dp23
g18
(dp24
g19
I1
ssg13
(dp25
S'slice.v.03'
p26
I2
ssg19
(dp27
g19
I0
ssg9
(dp28
g9
I0
ssg10
(dp29
g11
I1
ssg15
(dp30
S'pepper.n.04'
p31
I1
ssg16
(dp32
g17
I1
ssg20
(dp33
S'water.n.06'
p34
I1
ssg11
(dp35
g11
I1
ssg12
(dp36
S'batter.n.02'
p37
I1
ssg14
(dp38
S'onion.n.01'
p39
I1
ssg17
(dp40
g17
I0
ssg8
(dp41
g9
I1
sssb.