ccopy_reg
_reconstructor
p0
(cutils.eval
ConfusionMatrix
p1
c__builtin__
object
p2
Ntp3
Rp4
(dp5
S'labels'
p6
(lp7
S'cheese.n.01'
p8
aS'slice.v.03'
p9
aS'knife.n.01'
p10
aS'tongue.n.03'
p11
aS'banana.n.02'
p12
aS'fill.v.01'
p13
aS'pitcher.n.02'
p14
aS'milk.n.01'
p15
aS'opening.n.01'
p16
aS'gap.n.03'
p17
aS'fill.v.09'
p18
aS'batter.n.02'
p19
asS'instanceCount'
p20
I11
sS'matrix'
p21
(dp22
g8
(dp23
S'cheese.n.01'
p24
I1
ssg10
(dp25
g11
I1
ssg17
(dp26
g17
I0
ssg12
(dp27
S'banana.n.02'
p28
I1
ssg9
(dp29
S'slice.v.03'
p30
I2
ssg18
(dp31
S'fill.v.01'
p32
I1
ssg13
(dp33
S'fill.v.01'
p34
I1
ssg14
(dp35
S'pitcher.n.02'
p36
I1
ssg19
(dp37
S'batter.n.02'
p38
I1
ssg11
(dp39
g11
I0
ssg15
(dp40
S'milk.n.01'
p41
I1
ssg16
(dp42
g17
I1
sssb.