ccopy_reg
_reconstructor
p0
(cutils.eval
ConfusionMatrix
p1
c__builtin__
object
p2
Ntp3
Rp4
(dp5
S'labels'
p6
(lp7
S'piece.n.08'
p8
aS'slice.n.06'
p9
aS'pizza.n.01'
p10
aS'slice.v.03'
p11
aS'slit.v.01'
p12
aS'cheese.n.01'
p13
aS'tall_mallow.n.01'
p14
aS'slice.v.02'
p15
aS'knife.n.01'
p16
aS'tongue.n.03'
p17
aS'banana.n.02'
p18
aS'fill.v.01'
p19
aS'pitcher.n.02'
p20
aS'milk.n.01'
p21
asS'instanceCount'
p22
I11
sS'matrix'
p23
(dp24
g15
(dp25
g15
I0
ssg11
(dp26
g12
I1
sg15
I1
sS'slice.v.03'
p27
I1
ssg19
(dp28
S'fill.v.01'
p29
I1
ssg16
(dp30
g17
I1
ssg18
(dp31
S'banana.n.02'
p32
I1
ssg13
(dp33
g14
I1
ssg9
(dp34
g9
I0
ssg10
(dp35
S'pizza.n.01'
p36
I1
ssg12
(dp37
g12
I0
ssg20
(dp38
S'pitcher.n.02'
p39
I1
ssg17
(dp40
g17
I0
ssg8
(dp41
g9
I1
ssg14
(dp42
g14
I0
ssg21
(dp43
S'milk.n.01'
p44
I1
sssb.