ccopy_reg
_reconstructor
p0
(cutils.eval
ConfusionMatrix
p1
c__builtin__
object
p2
Ntp3
Rp4
(dp5
S'labels'
p6
(lp7
S'flesh.n.01'
p8
aS'pulp.n.02'
p9
aS'slice.v.03'
p10
aS'fill.v.01'
p11
aS'pan.n.01'
p12
aS'pan.n.03'
p13
aS'water.n.06'
p14
aS'kettle.n.01'
p15
aS'fill.v.09'
p16
aS'foam.n.01'
p17
aS'mug.n.04'
p18
aS'chump.n.01'
p19
asS'instanceCount'
p20
I11
sS'matrix'
p21
(dp22
g12
(dp23
g13
I1
ssg10
(dp24
S'slice.v.03'
p25
I1
ssg13
(dp26
g13
I0
ssg8
(dp27
g9
I1
ssg16
(dp28
g16
I0
ssg19
(dp29
g19
I0
ssg14
(dp30
S'water.n.06'
p31
I2
ssg11
(dp32
g16
I1
sS'fill.v.01'
p33
I2
ssg15
(dp34
S'kettle.n.01'
p35
I1
ssg17
(dp36
S'foam.n.01'
p37
I1
ssg9
(dp38
g9
I0
ssg18
(dp39
g19
I1
sssb.