ccopy_reg
_reconstructor
p0
(cutils.eval
ConfusionMatrix
p1
c__builtin__
object
p2
Ntp3
Rp4
(dp5
S'labels'
p6
(lp7
S'add.v.01'
p8
aS'ingredient.n.03'
p9
aS'concoction.n.01'
p10
aS'mixture.n.01'
p11
aS'cream.n.02'
p12
aS'cream.n.03'
p13
aS'egg.n.02'
p14
aS'mixing_bowl.n.01'
p15
aS'onion.n.03'
p16
asS'instanceCount'
p17
I11
sS'matrix'
p18
(dp19
g15
(dp20
S'mixing_bowl.n.01'
p21
I1
ssg14
(dp22
S'egg.n.02'
p23
I1
ssg11
(dp24
g11
I0
ssg12
(dp25
g13
I1
ssg9
(dp26
S'ingredient.n.03'
p27
I2
ssg13
(dp28
g13
I0
ssg10
(dp29
g11
I1
ssg8
(dp30
S'add.v.01'
p31
I4
ssg16
(dp32
S'onion.n.03'
p33
I1
sssb.