ccopy_reg
_reconstructor
p0
(cutils.eval
ConfusionMatrix
p1
c__builtin__
object
p2
Ntp3
Rp4
(dp5
S'labels'
p6
(lp7
S'add.v.01'
p8
aS'corn.n.03'
p9
aS'dish.n.02'
p10
aS'dish.n.01'
p11
aS'mixing_bowl.n.01'
p12
aS'butter.n.01'
p13
aS'sugar.n.01'
p14
aS'pan.n.03'
p15
aS'apple.n.01'
p16
asS'instanceCount'
p17
I12
sS'matrix'
p18
(dp19
g9
(dp20
S'corn.n.03'
p21
I1
ssg13
(dp22
S'butter.n.01'
p23
I2
ssg12
(dp24
S'mixing_bowl.n.01'
p25
I1
ssg15
(dp26
S'pan.n.03'
p27
I1
ssg10
(dp28
g11
I1
ssg11
(dp29
g11
I0
ssg16
(dp30
S'apple.n.01'
p31
I1
ssg8
(dp32
S'add.v.01'
p33
I4
ssg14
(dp34
S'sugar.n.01'
p35
I1
sssb.