ccopy_reg
_reconstructor
p0
(cutils.eval
ConfusionMatrix
p1
c__builtin__
object
p2
Ntp3
Rp4
(dp5
S'labels'
p6
(lp7
S'pan.n.03'
p8
aS'add.v.01'
p9
aS'butter.n.01'
p10
aS'apple.n.01'
p11
aS'vanilla.n.02'
p12
aS'milk.n.01'
p13
aS'milk.n.04'
p14
aS'water.n.06'
p15
aS'water_system.n.02'
p16
asS'instanceCount'
p17
I11
sS'matrix'
p18
(dp19
g8
(dp20
S'pan.n.03'
p21
I2
ssg10
(dp22
S'butter.n.01'
p23
I1
ssg16
(dp24
g16
I0
ssg15
(dp25
g16
I1
ssg12
(dp26
S'vanilla.n.02'
p27
I1
ssg14
(dp28
g14
I0
ssg11
(dp29
S'apple.n.01'
p30
I1
ssg9
(dp31
S'add.v.01'
p32
I4
ssg13
(dp33
g14
I1
sssb.