ccopy_reg
_reconstructor
p0
(cutils.eval
ConfusionMatrix
p1
c__builtin__
object
p2
Ntp3
Rp4
(dp5
S'labels'
p6
(lp7
S'add.v.01'
p8
aS'egg.n.02'
p9
aS'mixing_bowl.n.01'
p10
aS'onion.n.03'
p11
aS'corn.n.03'
p12
aS'dish.n.02'
p13
aS'dish.n.01'
p14
aS'butter.n.01'
p15
aS'sugar.n.01'
p16
asS'instanceCount'
p17
I12
sS'matrix'
p18
(dp19
g12
(dp20
S'corn.n.03'
p21
I1
ssg9
(dp22
S'egg.n.02'
p23
I1
ssg15
(dp24
S'butter.n.01'
p25
I1
ssg10
(dp26
S'mixing_bowl.n.01'
p27
I2
ssg13
(dp28
g14
I1
ssg14
(dp29
g14
I0
ssg8
(dp30
S'add.v.01'
p31
I4
ssg11
(dp32
S'onion.n.03'
p33
I1
ssg16
(dp34
S'sugar.n.01'
p35
I1
sssb.