ccopy_reg
_reconstructor
p0
(cutils.eval
ConfusionMatrix
p1
c__builtin__
object
p2
Ntp3
Rp4
(dp5
S'labels'
p6
(lp7
S'piece.n.08'
p8
aS'slice.n.06'
p9
aS'pizza.n.01'
p10
aS'slice.v.03'
p11
aS'tomato.n.01'
p12
aS'knife.n.01'
p13
aS'green_onion.n.01'
p14
aS'lemon.n.01'
p15
aS'bacon.n.01'
p16
aS'banana.n.02'
p17
aS'cabbage.n.01'
p18
aS'orange.n.01'
p19
aS'bread.n.01'
p20
aS'mushroom.n.05'
p21
aS'olive.n.01'
p22
aS'olive.n.04'
p23
aS'tomato.n.02'
p24
aS'onion.n.03'
p25
aS'onion.n.02'
p26
aS'mustard.n.02'
p27
asS'instanceCount'
p28
I32
sS'matrix'
p29
(dp30
g21
(dp31
S'mushroom.n.05'
p32
I1
ssg11
(dp33
S'slice.v.03'
p34
I11
ssg22
(dp35
g23
I1
ssg13
(dp36
S'knife.n.01'
p37
I4
ssg17
(dp38
S'banana.n.02'
p39
I1
ssg23
(dp40
g23
I0
ssg24
(dp41
g24
I0
ssg12
(dp42
g24
I1
sS'tomato.n.01'
p43
I1
ssg9
(dp44
g9
I0
ssg27
(dp45
S'mustard.n.02'
p46
I1
ssg16
(dp47
S'bacon.n.01'
p48
I1
ssg10
(dp49
S'pizza.n.01'
p50
I1
ssg19
(dp51
S'orange.n.01'
p52
I1
ssg15
(dp53
S'lemon.n.01'
p54
I1
ssg18
(dp55
S'cabbage.n.01'
p56
I1
ssg8
(dp57
S'piece.n.08'
p58
I1
sg9
I2
ssg20
(dp59
S'bread.n.01'
p60
I1
ssg14
(dp61
S'green_onion.n.01'
p62
I1
ssg25
(dp63
g26
I1
ssg26
(dp64
g26
I0
sssb.