ccopy_reg
_reconstructor
p0
(cutils.eval
ConfusionMatrix
p1
c__builtin__
object
p2
Ntp3
Rp4
(dp5
S'labels'
p6
(lp7
S'slice.v.03'
p8
aS'cabbage.n.01'
p9
aS'orange.n.01'
p10
aS'piece.n.08'
p11
aS'slice.n.06'
p12
aS'bread.n.01'
p13
aS'knife.n.01'
p14
aS'mushroom.n.05'
p15
aS'olive.n.01'
p16
aS'olive.n.04'
p17
aS'catsup.n.01'
p18
aS'tomato.n.01'
p19
aS'tomato.n.02'
p20
aS'onion.n.03'
p21
aS'mustard.n.02'
p22
aS'mustard.n.01'
p23
aS'potato.n.01'
p24
aS'cheese.n.01'
p25
aS'lemon.n.01'
p26
aS'zucchini.n.01'
p27
aS'zucchini.n.02'
p28
aS'vegetable.n.01'
p29
aS'meat.n.01'
p30
aS'cleaver.n.01'
p31
asS'instanceCount'
p32
I32
sS'matrix'
p33
(dp34
g15
(dp35
S'mushroom.n.05'
p36
I1
ssg25
(dp37
S'cheese.n.01'
p38
I1
ssg13
(dp39
S'bread.n.01'
p40
I1
ssg10
(dp41
S'orange.n.01'
p42
I1
ssg28
(dp43
g28
I0
ssg27
(dp44
g28
I1
ssg14
(dp45
S'knife.n.01'
p46
I2
ssg23
(dp47
g23
I0
ssg22
(dp48
g23
I1
ssg20
(dp49
g20
I0
ssg19
(dp50
g20
I1
ssg30
(dp51
S'meat.n.01'
p52
I1
ssg24
(dp53
S'potato.n.01'
p54
I1
ssg31
(dp55
S'cleaver.n.01'
p56
I1
ssg8
(dp57
S'slice.v.03'
p58
I11
ssg16
(dp59
g17
I1
ssg9
(dp60
S'cabbage.n.01'
p61
I1
ssg17
(dp62
g17
I0
ssg18
(dp63
S'catsup.n.01'
p64
I1
ssg11
(dp65
S'piece.n.08'
p66
I2
sg12
I1
ssg29
(dp67
S'vegetable.n.01'
p68
I1
ssg12
(dp69
g12
I0
ssg26
(dp70
S'lemon.n.01'
p71
I1
ssg21
(dp72
S'onion.n.03'
p73
I1
sssb.