ccopy_reg
_reconstructor
p0
(cutils.eval
ConfusionMatrix
p1
c__builtin__
object
p2
Ntp3
Rp4
(dp5
S'labels'
p6
(lp7
S'bread.n.01'
p8
aS'knife.n.01'
p9
aS'slice.v.03'
p10
aS'mushroom.n.05'
p11
aS'olive.n.01'
p12
aS'olive.n.04'
p13
aS'tomato.n.01'
p14
aS'tomato.n.02'
p15
aS'piece.n.08'
p16
aS'onion.n.03'
p17
aS'mustard.n.02'
p18
aS'mustard.n.01'
p19
aS'potato.n.01'
p20
aS'slice.n.06'
p21
aS'cheese.n.01'
p22
aS'lemon.n.01'
p23
aS'zucchini.n.01'
p24
aS'zucchini.n.02'
p25
aS'vegetable.n.01'
p26
aS'meat.n.01'
p27
aS'cleaver.n.01'
p28
aS'egg.n.02'
p29
aS'flesh.n.01'
p30
aS'pulp.n.02'
p31
asS'instanceCount'
p32
I31
sS'matrix'
p33
(dp34
g11
(dp35
S'mushroom.n.05'
p36
I1
ssg22
(dp37
S'cheese.n.01'
p38
I1
ssg8
(dp39
S'bread.n.01'
p40
I1
ssg25
(dp41
g25
I0
ssg24
(dp42
g25
I1
ssg19
(dp43
g19
I0
ssg18
(dp44
g19
I1
ssg15
(dp45
g15
I0
ssg14
(dp46
g15
I1
ssg28
(dp47
S'cleaver.n.01'
p48
I1
ssg20
(dp49
S'potato.n.01'
p50
I1
ssg27
(dp51
S'meat.n.01'
p52
I1
ssg10
(dp53
S'slice.v.03'
p54
I11
ssg12
(dp55
g13
I1
ssg9
(dp56
S'knife.n.01'
p57
I2
ssg13
(dp58
g13
I0
ssg16
(dp59
S'piece.n.08'
p60
I2
sg21
I1
ssg26
(dp61
S'vegetable.n.01'
p62
I1
ssg30
(dp63
g31
I1
ssg21
(dp64
g21
I0
ssg31
(dp65
g31
I0
ssg23
(dp66
S'lemon.n.01'
p67
I1
ssg29
(dp68
S'egg.n.02'
p69
I1
ssg17
(dp70
S'onion.n.03'
p71
I1
sssb.