ccopy_reg
_reconstructor
p0
(cutils.eval
ConfusionMatrix
p1
c__builtin__
object
p2
Ntp3
Rp4
(dp5
S'labels'
p6
(lp7
S'knife.n.01'
p8
aS'slice.v.03'
p9
aS'green_onion.n.01'
p10
aS'lemon.n.01'
p11
aS'bacon.n.01'
p12
aS'banana.n.02'
p13
aS'cabbage.n.01'
p14
aS'orange.n.01'
p15
aS'piece.n.08'
p16
aS'slice.n.06'
p17
aS'bread.n.01'
p18
aS'mushroom.n.05'
p19
aS'olive.n.01'
p20
aS'olive.n.04'
p21
aS'tomato.n.01'
p22
aS'tomato.n.02'
p23
aS'onion.n.03'
p24
aS'onion.n.02'
p25
aS'mustard.n.02'
p26
aS'potato.n.01'
p27
aS'cheese.n.01'
p28
asS'instanceCount'
p29
I31
sS'matrix'
p30
(dp31
g19
(dp32
S'mushroom.n.05'
p33
I1
ssg9
(dp34
S'slice.v.03'
p35
I11
ssg20
(dp36
g21
I1
ssg8
(dp37
S'knife.n.01'
p38
I3
ssg13
(dp39
S'banana.n.02'
p40
I1
ssg21
(dp41
g21
I0
ssg23
(dp42
g23
I0
ssg22
(dp43
g23
I1
ssg17
(dp44
g17
I0
ssg26
(dp45
S'mustard.n.02'
p46
I1
ssg12
(dp47
S'bacon.n.01'
p48
I1
ssg18
(dp49
S'bread.n.01'
p50
I1
ssg28
(dp51
S'cheese.n.01'
p52
I1
ssg15
(dp53
S'orange.n.01'
p54
I1
ssg11
(dp55
S'lemon.n.01'
p56
I1
ssg27
(dp57
S'potato.n.01'
p58
I1
ssg14
(dp59
S'cabbage.n.01'
p60
I1
ssg10
(dp61
S'green_onion.n.01'
p62
I1
ssg16
(dp63
S'piece.n.08'
p64
I1
sg17
I2
ssg24
(dp65
g25
I1
ssg25
(dp66
g25
I0
sssb.