ccopy_reg
_reconstructor
p0
(cutils.eval
ConfusionMatrix
p1
c__builtin__
object
p2
Ntp3
Rp4
(dp5
S'labels'
p6
(lp7
S'put.v.01'
p8
aS'pan.n.03'
p9
aS'chicken.n.01'
p10
aS'dressing.n.01'
p11
aS'dressing.n.04'
p12
aS'salad.n.01'
p13
aS'spoon.n.01'
p14
aS'batter.n.02'
p15
aS'spread.n.05'
p16
aS'paste.n.02'
p17
aS'bread.n.01'
p18
aS'onion.n.01'
p19
aS'beef.n.02'
p20
aS'plate.n.04'
p21
aS'plate.n.13'
p22
aS'jam.n.01'
p23
aS'refrigerator.n.01'
p24
aS'rib.n.03'
p25
aS'rib.n.01'
p26
aS'salt.n.02'
p27
aS'steak.n.01'
p28
aS'oven.n.01'
p29
aS'cake.n.03'
p30
aS'patty.n.01'
p31
aS'whipped_cream.n.01'
p32
aS'blender.n.01'
p33
aS'banana.n.02'
p34
aS'bowl.n.01'
p35
aS'cherry.n.03'
p36
aS'cherry.n.01'
p37
aS'pepper.n.03'
p38
aS'capsicum.n.01'
p39
aS'egg.n.02'
p40
aS'egg.n.01'
p41
aS'soup.n.01'
p42
aS'microwave.n.02'
p43
aS'french_fries.n.01'
p44
aS'child.n.01'
p45
aS'pizza.n.01'
p46
aS'dish.n.02'
p47
aS'salmon.n.03'
p48
aS'rice.n.01'
p49
asS'instanceCount'
p50
I55
sS'matrix'
p51
(dp52
g22
(dp53
g22
I0
ssg49
(dp54
S'rice.n.01'
p55
I1
ssg10
(dp56
S'chicken.n.01'
p57
I1
ssg20
(dp58
S'beef.n.02'
p59
I1
ssg42
(dp60
S'soup.n.01'
p61
I1
ssg24
(dp62
S'refrigerator.n.01'
p63
I1
ssg18
(dp64
S'bread.n.01'
p65
I1
ssg35
(dp66
S'bowl.n.01'
p67
I2
ssg15
(dp68
S'batter.n.02'
p69
I1
ssg45
(dp70
g45
I0
ssg46
(dp71
S'pizza.n.01'
p72
I1
ssg48
(dp73
S'salmon.n.03'
p74
I1
ssg9
(dp75
S'pan.n.03'
p76
I2
ssg39
(dp77
g39
I0
ssg40
(dp78
g41
I1
ssg41
(dp79
g41
I0
ssg31
(dp80
g31
I0
ssg14
(dp81
S'spoon.n.01'
p82
I1
ssg25
(dp83
g26
I1
ssg27
(dp84
S'salt.n.02'
p85
I2
ssg34
(dp86
S'banana.n.02'
p87
I1
ssg21
(dp88
g22
I2
ssg26
(dp89
g26
I0
ssg38
(dp90
g39
I1
ssg16
(dp91
g17
I1
ssg28
(dp92
S'steak.n.01'
p93
I1
ssg29
(dp94
S'oven.n.01'
p95
I2
ssg43
(dp96
S'microwave.n.02'
p97
I1
ssg17
(dp98
g17
I0
ssg33
(dp99
S'blender.n.01'
p100
I1
ssg13
(dp101
S'salad.n.01'
p102
I1
ssg12
(dp103
g12
I0
ssg23
(dp104
S'jam.n.01'
p105
I1
ssg8
(dp106
S'put.v.01'
p107
I18
ssg11
(dp108
g12
I1
ssg32
(dp109
S'whipped_cream.n.01'
p110
I1
ssg30
(dp111
g31
I1
ssg44
(dp112
g45
I1
ssg37
(dp113
g37
I0
ssg36
(dp114
g37
I1
ssg19
(dp115
S'onion.n.01'
p116
I1
ssg47
(dp117
S'dish.n.02'
p118
I1
sssb.