ccopy_reg
_reconstructor
p0
(cutils.eval
ConfusionMatrix
p1
c__builtin__
object
p2
Ntp3
Rp4
(dp5
S'labels'
p6
(lp7
S'put.v.01'
p8
aS'pan.n.03'
p9
aS'pizza.n.01'
p10
aS'dish.n.02'
p11
aS'oven.n.01'
p12
aS'salmon.n.03'
p13
aS'plate.n.04'
p14
aS'plate.n.08'
p15
aS'bowl.n.01'
p16
aS'stadium.n.01'
p17
aS'rice.n.01'
p18
aS'mug.n.04'
p19
aS'countenance.n.03'
p20
aS'microwave.n.02'
p21
aS'coca_cola.n.01'
p22
aS'electric_refrigerator.n.01'
p23
aS'chicken.n.01'
p24
aS'dressing.n.01'
p25
aS'dressing.n.04'
p26
aS'salad.n.01'
p27
aS'spoon.n.01'
p28
aS'batter.n.02'
p29
aS'spread.n.05'
p30
aS'bread.n.01'
p31
aS'onion.n.01'
p32
aS'onion.n.03'
p33
aS'beef.n.02'
p34
aS'plate.n.10'
p35
aS'jam.n.01'
p36
aS'refrigerator.n.01'
p37
aS'rib.n.03'
p38
aS'rib.n.06'
p39
aS'salt.n.02'
p40
aS'steak.n.01'
p41
aS'cake.n.03'
p42
aS'patty.n.01'
p43
aS'whipped_cream.n.01'
p44
aS'blender.n.01'
p45
aS'banana.n.02'
p46
aS'cherry.n.03'
p47
aS'pepper.n.03'
p48
aS'pepper.n.04'
p49
aS'egg.n.02'
p50
aS'egg.n.01'
p51
asS'instanceCount'
p52
I56
sS'matrix'
p53
(dp54
g35
(dp55
g35
I0
ssg24
(dp56
S'chicken.n.01'
p57
I1
ssg34
(dp58
S'beef.n.02'
p59
I1
ssg36
(dp60
S'jam.n.01'
p61
I1
ssg37
(dp62
S'refrigerator.n.01'
p63
I1
ssg31
(dp64
S'bread.n.01'
p65
I1
ssg16
(dp66
g17
I2
ssg11
(dp67
S'dish.n.02'
p68
I1
ssg25
(dp69
g26
I1
ssg13
(dp70
S'salmon.n.03'
p71
I1
ssg9
(dp72
S'pan.n.03'
p73
I2
ssg22
(dp74
S'coca_cola.n.01'
p75
I1
ssg46
(dp76
S'banana.n.02'
p77
I1
ssg21
(dp78
S'microwave.n.02'
p79
I1
ssg50
(dp80
g51
I1
ssg51
(dp81
g51
I0
ssg23
(dp82
S'electric_refrigerator.n.01'
p83
I1
ssg28
(dp84
S'spoon.n.01'
p85
I1
ssg38
(dp86
g39
I1
ssg40
(dp87
S'salt.n.02'
p88
I2
ssg15
(dp89
g15
I0
ssg20
(dp90
g20
I0
ssg14
(dp91
g35
I1
sg15
I1
ssg49
(dp92
g49
I0
ssg39
(dp93
g39
I0
ssg48
(dp94
g49
I1
ssg30
(dp95
S'spread.n.05'
p96
I1
ssg41
(dp97
S'steak.n.01'
p98
I1
ssg12
(dp99
S'oven.n.01'
p100
I2
ssg43
(dp101
g43
I0
ssg17
(dp102
g17
I0
ssg19
(dp103
g20
I1
ssg45
(dp104
S'blender.n.01'
p105
I1
ssg32
(dp106
g33
I1
ssg26
(dp107
g26
I0
ssg18
(dp108
S'rice.n.01'
p109
I1
ssg8
(dp110
S'put.v.01'
p111
I18
ssg10
(dp112
S'pizza.n.01'
p113
I1
ssg44
(dp114
S'whipped_cream.n.01'
p115
I1
ssg42
(dp116
g43
I1
ssg47
(dp117
S'cherry.n.03'
p118
I1
ssg27
(dp119
S'salad.n.01'
p120
I1
ssg33
(dp121
g33
I0
ssg29
(dp122
S'batter.n.02'
p123
I1
sssb.