ccopy_reg
_reconstructor
p0
(cutils.eval
ConfusionMatrix
p1
c__builtin__
object
p2
Ntp3
Rp4
(dp5
S'labels'
p6
(lp7
S'piece.n.08'
p8
aS'slice.n.01'
p9
aS'slice.v.03'
p10
aS'slice.v.02'
p11
aS'fill.v.01'
p12
aS'pan.n.01'
p13
aS'pan.n.03'
p14
aS'water.n.06'
p15
aS'flesh.n.01'
p16
aS'kettle.n.01'
p17
aS'knife.n.01'
p18
aS'tongue.n.03'
p19
aS'banana.n.02'
p20
aS'onion.n.01'
p21
aS'pepper.n.04'
p22
aS'pepper.n.03'
p23
aS'cheese.n.01'
p24
aS'mug.n.04'
p25
asS'instanceCount'
p26
I20
sS'matrix'
p27
(dp28
g11
(dp29
g11
I0
ssg10
(dp30
g11
I5
ssg14
(dp31
g14
I0
ssg18
(dp32
g19
I1
ssg20
(dp33
S'banana.n.02'
p34
I1
ssg16
(dp35
S'flesh.n.01'
p36
I1
ssg22
(dp37
g23
I1
ssg9
(dp38
g9
I0
ssg15
(dp39
S'water.n.06'
p40
I2
ssg23
(dp41
g23
I0
ssg12
(dp42
S'fill.v.01'
p43
I3
ssg24
(dp44
S'cheese.n.01'
p45
I1
ssg17
(dp46
S'kettle.n.01'
p47
I1
ssg19
(dp48
g19
I0
ssg8
(dp49
g9
I1
ssg13
(dp50
g14
I1
ssg21
(dp51
S'onion.n.01'
p52
I1
ssg25
(dp53
S'mug.n.04'
p54
I1
sssb.