ccopy_reg
_reconstructor
p0
(cutils.eval
ConfusionMatrix
p1
c__builtin__
object
p2
Ntp3
Rp4
(dp5
S'labels'
p6
(lp7
S'cheese.n.01'
p8
aS'slice.v.03'
p9
aS'fill.v.01'
p10
aS'fill.v.09'
p11
aS'mug.n.04'
p12
aS'pitcher.n.02'
p13
aS'pitcher.n.05'
p14
aS'milk.n.01'
p15
aS'milk.n.04'
p16
aS'opening.n.01'
p17
aS'gap.n.05'
p18
aS'batter.n.02'
p19
aS'piece.n.08'
p20
aS'slice.n.06'
p21
aS'pan.n.01'
p22
aS'pan.n.02'
p23
aS'water.n.06'
p24
aS'water.n.03'
p25
aS'flesh.n.01'
p26
aS'slice.v.02'
p27
aS'meet.v.04'
p28
aS'kettle.n.01'
p29
aS'kettle.n.02'
p30
asS'instanceCount'
p31
I20
sS'matrix'
p32
(dp33
g8
(dp34
S'cheese.n.01'
p35
I1
ssg19
(dp36
S'batter.n.02'
p37
I1
ssg16
(dp38
g16
I0
ssg15
(dp39
g16
I1
ssg22
(dp40
g23
I1
ssg18
(dp41
g18
I0
ssg11
(dp42
g11
I1
ssg10
(dp43
g28
I1
sg11
I3
ssg13
(dp44
g14
I1
ssg14
(dp45
g14
I0
ssg27
(dp46
g27
I0
ssg9
(dp47
g27
I1
sS'slice.v.03'
p48
I2
ssg28
(dp49
g28
I0
ssg23
(dp50
g23
I0
ssg20
(dp51
g21
I1
ssg17
(dp52
g18
I1
ssg12
(dp53
S'mug.n.04'
p54
I1
ssg26
(dp55
S'flesh.n.01'
p56
I1
ssg25
(dp57
g25
I0
ssg21
(dp58
g21
I0
ssg24
(dp59
g25
I2
ssg30
(dp60
g30
I0
ssg29
(dp61
g30
I1
sssb.