ccopy_reg
_reconstructor
p0
(cutils.eval
ConfusionMatrix
p1
c__builtin__
object
p2
Ntp3
Rp4
(dp5
S'labels'
p6
(lp7
S'slice.v.03'
p8
aS'slice.v.02'
p9
aS'onion.n.01'
p10
aS'pepper.n.04'
p11
aS'pepper.n.01'
p12
aS'cheese.n.01'
p13
aS'tall_mallow.n.01'
p14
aS'fill.v.01'
p15
aS'fill.v.09'
p16
aS'foam.n.01'
p17
aS'mug.n.04'
p18
aS'chump.n.01'
p19
aS'pitcher.n.02'
p20
aS'milk.n.01'
p21
aS'opening.n.01'
p22
aS'gap.n.03'
p23
aS'batter.n.02'
p24
aS'piece.n.08'
p25
aS'slice.n.06'
p26
aS'pizza.n.01'
p27
aS'pan.n.01'
p28
aS'water.n.06'
p29
aS'flesh.n.01'
p30
aS'human_body.n.01'
p31
asS'instanceCount'
p32
I22
sS'matrix'
p33
(dp34
g13
(dp35
g14
I1
ssg24
(dp36
S'batter.n.02'
p37
I1
ssg17
(dp38
S'foam.n.01'
p39
I1
ssg21
(dp40
S'milk.n.01'
p41
I1
ssg28
(dp42
S'pan.n.01'
p43
I1
ssg23
(dp44
g23
I0
ssg16
(dp45
S'fill.v.01'
p46
I1
sg16
I0
ssg15
(dp47
S'fill.v.01'
p48
I2
sg16
I1
ssg20
(dp49
S'pitcher.n.02'
p50
I1
ssg9
(dp51
g9
I0
ssg8
(dp52
g9
I2
sS'slice.v.03'
p53
I2
ssg19
(dp54
g19
I0
ssg11
(dp55
g12
I1
ssg12
(dp56
g12
I0
ssg31
(dp57
g31
I0
ssg25
(dp58
g26
I1
ssg14
(dp59
g14
I0
ssg22
(dp60
g23
I1
ssg18
(dp61
g19
I1
ssg30
(dp62
g31
I1
ssg26
(dp63
g26
I0
ssg29
(dp64
S'water.n.06'
p65
I1
ssg27
(dp66
S'pizza.n.01'
p67
I1
ssg10
(dp68
S'onion.n.01'
p69
I1
sssb.