ccopy_reg
_reconstructor
p0
(cutils.eval
ConfusionMatrix
p1
c__builtin__
object
p2
Ntp3
Rp4
(dp5
S'labels'
p6
(lp7
S'fill.v.01'
p8
aS'fill.v.09'
p9
aS'pitcher.n.02'
p10
aS'pitcher.n.03'
p11
aS'milk.n.01'
p12
aS'milk.n.02'
p13
aS'opening.n.01'
p14
aS'gap.n.01'
p15
aS'batter.n.02'
p16
aS'batter.n.01'
p17
aS'piece.n.08'
p18
aS'slice.n.01'
p19
aS'pizza.n.01'
p20
aS'slice.v.03'
p21
aS'pan.n.01'
p22
aS'pan.n.04'
p23
aS'water.n.06'
p24
aS'water.n.03'
p25
aS'flesh.n.01'
p26
aS'human_body.n.01'
p27
aS'slice.v.02'
p28
aS'kettle.n.01'
p29
aS'kettle.n.02'
p30
aS'knife.n.01'
p31
aS'tongue.n.03'
p32
aS'banana.n.02'
p33
aS'onion.n.01'
p34
aS'onion.n.03'
p35
aS'pepper.n.04'
p36
aS'pepper.n.03'
p37
asS'instanceCount'
p38
I23
sS'matrix'
p39
(dp40
g24
(dp41
g25
I2
ssg16
(dp42
g17
I1
ssg17
(dp43
g17
I0
ssg12
(dp44
g13
I1
ssg13
(dp45
g13
I0
ssg22
(dp46
g23
I1
ssg23
(dp47
g23
I0
ssg9
(dp48
g9
I1
ssg8
(dp49
g9
I3
ssg11
(dp50
g11
I0
ssg10
(dp51
g11
I1
ssg28
(dp52
g28
I0
ssg21
(dp53
g28
I1
sS'slice.v.03'
p54
I3
ssg31
(dp55
g32
I1
ssg33
(dp56
S'banana.n.02'
p57
I1
ssg36
(dp58
g37
I1
ssg37
(dp59
g37
I0
ssg27
(dp60
g27
I0
ssg18
(dp61
g19
I1
ssg14
(dp62
g15
I1
ssg26
(dp63
g27
I1
ssg25
(dp64
g25
I0
ssg19
(dp65
g19
I0
ssg15
(dp66
g15
I0
ssg20
(dp67
S'pizza.n.01'
p68
I1
ssg30
(dp69
g30
I0
ssg29
(dp70
g30
I1
ssg32
(dp71
g32
I0
ssg34
(dp72
g35
I1
ssg35
(dp73
g35
I0
sssb.