ccopy_reg
_reconstructor
p0
(cutils.eval
ConfusionMatrix
p1
c__builtin__
object
p2
Ntp3
Rp4
(dp5
S'labels'
p6
(lp7
S'knife.n.01'
p8
aS'knife.n.02'
p9
aS'banana.n.02'
p10
aS'slice.v.03'
p11
aS'slice.v.02'
p12
aS'onion.n.01'
p13
aS'pepper.n.04'
p14
aS'cheese.n.01'
p15
aS'fill.v.01'
p16
aS'fill.v.09'
p17
aS'foam.n.01'
p18
aS'mug.n.04'
p19
aS'chump.n.01'
p20
aS'pitcher.n.02'
p21
aS'milk.n.01'
p22
aS'opening.n.01'
p23
aS'gap.n.03'
p24
aS'batter.n.02'
p25
aS'piece.n.08'
p26
aS'slice.n.05'
p27
aS'pizza.n.01'
p28
aS'pan.n.01'
p29
aS'pan.n.03'
p30
aS'water.n.06'
p31
asS'instanceCount'
p32
I23
sS'matrix'
p33
(dp34
g15
(dp35
S'cheese.n.01'
p36
I1
ssg25
(dp37
S'batter.n.02'
p38
I1
ssg28
(dp39
S'pizza.n.01'
p40
I1
ssg22
(dp41
S'milk.n.01'
p42
I1
ssg29
(dp43
g30
I1
ssg30
(dp44
g30
I0
ssg18
(dp45
S'foam.n.01'
p46
I1
ssg24
(dp47
g24
I0
ssg17
(dp48
S'fill.v.01'
p49
I1
sg17
I0
ssg16
(dp50
S'fill.v.01'
p51
I2
sg17
I1
ssg21
(dp52
S'pitcher.n.02'
p53
I1
ssg12
(dp54
g12
I0
ssg11
(dp55
g12
I3
sS'slice.v.03'
p56
I1
ssg20
(dp57
g20
I0
ssg8
(dp58
g9
I1
ssg10
(dp59
S'banana.n.02'
p60
I1
ssg9
(dp61
g9
I0
ssg14
(dp62
S'pepper.n.04'
p63
I1
ssg26
(dp64
g27
I1
ssg23
(dp65
g24
I1
ssg19
(dp66
g20
I1
ssg31
(dp67
S'water.n.06'
p68
I1
ssg27
(dp69
g27
I0
ssg13
(dp70
S'onion.n.01'
p71
I1
sssb.