ccopy_reg
_reconstructor
p0
(cutils.eval
ConfusionMatrix
p1
c__builtin__
object
p2
Ntp3
Rp4
(dp5
S'labels'
p6
(lp7
S'fill.v.01'
p8
aS'fill.v.09'
p9
aS'pan.n.01'
p10
aS'pan.n.03'
p11
aS'water.n.06'
p12
aS'flesh.n.01'
p13
aS'human_body.n.01'
p14
aS'slice.v.03'
p15
aS'slice.v.02'
p16
aS'kettle.n.01'
p17
aS'kettle_hole.n.01'
p18
aS'knife.n.01'
p19
aS'knife.n.02'
p20
aS'banana.n.02'
p21
aS'onion.n.01'
p22
aS'onion.n.03'
p23
aS'pepper.n.04'
p24
aS'pepper.n.03'
p25
aS'cheese.n.01'
p26
aS'foam.n.01'
p27
aS'mug.n.04'
p28
aS'countenance.n.03'
p29
aS'pitcher.n.02'
p30
aS'pitcher.n.01'
p31
aS'milk.n.01'
p32
asS'instanceCount'
p33
I22
sS'matrix'
p34
(dp35
g26
(dp36
S'cheese.n.01'
p37
I1
ssg27
(dp38
S'foam.n.01'
p39
I1
ssg32
(dp40
S'milk.n.01'
p41
I1
ssg10
(dp42
g11
I1
ssg11
(dp43
g11
I0
ssg21
(dp44
S'banana.n.02'
p45
I1
ssg9
(dp46
g9
I0
ssg8
(dp47
g9
I4
ssg30
(dp48
g31
I1
ssg31
(dp49
g31
I0
ssg16
(dp50
g16
I0
ssg15
(dp51
g16
I2
sS'slice.v.03'
p52
I2
ssg19
(dp53
g20
I1
ssg29
(dp54
g29
I0
ssg20
(dp55
g20
I0
ssg24
(dp56
g25
I1
ssg25
(dp57
g25
I0
ssg14
(dp58
g14
I0
ssg28
(dp59
g29
I1
ssg13
(dp60
g14
I1
ssg12
(dp61
S'water.n.06'
p62
I2
ssg18
(dp63
g18
I0
ssg17
(dp64
g18
I1
ssg22
(dp65
g23
I1
ssg23
(dp66
g23
I0
sssb.