ccopy_reg
_reconstructor
p0
(cutils.eval
ConfusionMatrix
p1
c__builtin__
object
p2
Ntp3
Rp4
(dp5
S'labels'
p6
(lp7
S'olive.n.01'
p8
aS'olive.n.04'
p9
aS'slice.v.03'
p10
aS'orange.n.01'
p11
aS'piece.n.08'
p12
aS'slice.n.06'
p13
aS'meat.n.01'
p14
aS'cleaver.n.01'
p15
aS'vegetable.n.01'
p16
aS'knife.n.01'
p17
aS'bacon.n.01'
p18
aS'lemon.n.01'
p19
aS'cheese.n.01'
p20
aS'flesh.n.01'
p21
aS'human_body.n.01'
p22
aS'mushroom.n.05'
p23
asS'instanceCount'
p24
I23
sS'matrix'
p25
(dp26
g23
(dp27
S'mushroom.n.05'
p28
I1
ssg10
(dp29
S'slice.v.03'
p30
I10
ssg8
(dp31
g9
I1
ssg22
(dp32
g22
I0
ssg17
(dp33
S'knife.n.01'
p34
I1
ssg9
(dp35
g9
I0
ssg21
(dp36
g22
I1
ssg13
(dp37
g13
I0
ssg16
(dp38
S'vegetable.n.01'
p39
I1
ssg18
(dp40
S'bacon.n.01'
p41
I1
ssg20
(dp42
S'cheese.n.01'
p43
I1
ssg11
(dp44
S'orange.n.01'
p45
I1
ssg14
(dp46
S'meat.n.01'
p47
I1
ssg19
(dp48
S'lemon.n.01'
p49
I2
ssg12
(dp50
g13
I1
ssg15
(dp51
S'cleaver.n.01'
p52
I1
sssb.