ccopy_reg
_reconstructor
p0
(cutils.eval
ConfusionMatrix
p1
c__builtin__
object
p2
Ntp3
Rp4
(dp5
S'labels'
p6
(lp7
S'slice.v.03'
p8
aS'cabbage.n.01'
p9
aS'bread.n.01'
p10
aS'knife.n.01'
p11
aS'tomato.n.01'
p12
aS'piece.n.08'
p13
aS'onion.n.03'
p14
aS'onion.n.01'
p15
aS'mustard.n.02'
p16
aS'mustard.n.01'
p17
aS'egg.n.02'
p18
aS'slice.n.06'
p19
aS'pizza.n.01'
p20
aS'banana.n.02'
p21
aS'green_onion.n.01'
p22
aS'potato.n.01'
p23
aS'zucchini.n.01'
p24
aS'zucchini.n.02'
p25
asS'instanceCount'
p26
I29
sS'matrix'
p27
(dp28
g8
(dp29
S'slice.v.03'
p30
I9
ssg16
(dp31
g17
I1
ssg11
(dp32
S'knife.n.01'
p33
I4
ssg21
(dp34
S'banana.n.02'
p35
I1
ssg17
(dp36
g17
I0
ssg18
(dp37
S'egg.n.02'
p38
I1
ssg12
(dp39
S'tomato.n.01'
p40
I2
ssg24
(dp41
g25
I1
ssg19
(dp42
g19
I0
ssg10
(dp43
S'bread.n.01'
p44
I1
ssg25
(dp45
g25
I0
ssg23
(dp46
S'potato.n.01'
p47
I1
ssg9
(dp48
S'cabbage.n.01'
p49
I1
ssg13
(dp50
S'piece.n.08'
p51
I1
sg19
I3
ssg20
(dp52
S'pizza.n.01'
p53
I1
ssg15
(dp54
g15
I0
ssg22
(dp55
S'green_onion.n.01'
p56
I1
ssg14
(dp57
g15
I1
sssb.