ccopy_reg
_reconstructor
p0
(cutils.eval
ConfusionMatrix
p1
c__builtin__
object
p2
Ntp3
Rp4
(dp5
S'labels'
p6
(lp7
S'slice.v.03'
p8
aS'bacon.n.01'
p9
aS'lemon.n.01'
p10
aS'cheese.n.01'
p11
aS'flesh.n.01'
p12
aS'pulp.n.02'
p13
aS'mushroom.n.05'
p14
aS'cabbage.n.01'
p15
aS'bread.n.01'
p16
aS'knife.n.01'
p17
aS'catsup.n.01'
p18
aS'tomato.n.01'
p19
aS'tomato.n.02'
p20
aS'piece.n.08'
p21
aS'onion.n.03'
p22
aS'mustard.n.02'
p23
aS'mustard.n.01'
p24
aS'egg.n.02'
p25
aS'slice.n.06'
p26
asS'instanceCount'
p27
I25
sS'matrix'
p28
(dp29
g14
(dp30
S'mushroom.n.05'
p31
I1
ssg8
(dp32
S'slice.v.03'
p33
I9
ssg23
(dp34
g24
I1
ssg15
(dp35
S'cabbage.n.01'
p36
I1
ssg12
(dp37
g13
I1
ssg20
(dp38
g20
I0
ssg19
(dp39
g20
I1
ssg26
(dp40
g26
I0
ssg9
(dp41
S'bacon.n.01'
p42
I1
ssg16
(dp43
S'bread.n.01'
p44
I1
ssg11
(dp45
S'cheese.n.01'
p46
I1
ssg22
(dp47
S'onion.n.03'
p48
I1
ssg10
(dp49
S'lemon.n.01'
p50
I2
ssg25
(dp51
S'egg.n.02'
p52
I1
ssg18
(dp53
S'catsup.n.01'
p54
I1
ssg17
(dp55
S'knife.n.01'
p56
I1
ssg21
(dp57
S'piece.n.08'
p58
I1
sg26
I1
ssg24
(dp59
g24
I0
ssg13
(dp60
g13
I0
sssb.