ccopy_reg
_reconstructor
p0
(cutils.eval
ConfusionMatrix
p1
c__builtin__
object
p2
Ntp3
Rp4
(dp5
S'labels'
p6
(lp7
S'piece.n.08'
p8
aS'pizza.n.01'
p9
aS'slice.v.03'
p10
aS'knife.n.01'
p11
aS'banana.n.02'
p12
aS'green_onion.n.01'
p13
aS'tomato.n.01'
p14
aS'potato.n.01'
p15
aS'zucchini.n.01'
p16
aS'zucchini.n.02'
p17
aS'olive.n.01'
p18
aS'olive.n.04'
p19
aS'orange.n.01'
p20
aS'meat.n.01'
p21
aS'cleaver.n.01'
p22
aS'vegetable.n.01'
p23
asS'instanceCount'
p24
I28
sS'matrix'
p25
(dp26
g10
(dp27
S'slice.v.03'
p28
I10
ssg18
(dp29
g19
I1
ssg11
(dp30
S'knife.n.01'
p31
I4
ssg12
(dp32
S'banana.n.02'
p33
I1
ssg19
(dp34
g19
I0
ssg14
(dp35
S'tomato.n.01'
p36
I1
ssg16
(dp37
g17
I1
ssg23
(dp38
S'vegetable.n.01'
p39
I1
ssg9
(dp40
S'pizza.n.01'
p41
I1
ssg20
(dp42
S'orange.n.01'
p43
I1
ssg17
(dp44
g17
I0
ssg21
(dp45
S'meat.n.01'
p46
I1
ssg15
(dp47
S'potato.n.01'
p48
I1
ssg8
(dp49
S'piece.n.08'
p50
I3
ssg13
(dp51
S'green_onion.n.01'
p52
I1
ssg22
(dp53
S'cleaver.n.01'
p54
I1
sssb.