ccopy_reg
_reconstructor
p0
(cutils.eval
ConfusionMatrix
p1
c__builtin__
object
p2
Ntp3
Rp4
(dp5
S'labels'
p6
(lp7
S'slice.v.03'
p8
aS'potato.n.01'
p9
aS'piece.n.08'
p10
aS'slice.n.06'
p11
aS'zucchini.n.01'
p12
aS'zucchini.n.02'
p13
aS'olive.n.01'
p14
aS'olive.n.04'
p15
aS'orange.n.01'
p16
aS'meat.n.01'
p17
aS'cleaver.n.01'
p18
aS'vegetable.n.01'
p19
aS'knife.n.01'
p20
aS'bacon.n.01'
p21
aS'lemon.n.01'
p22
aS'cheese.n.01'
p23
aS'flesh.n.01'
p24
aS'human_body.n.01'
p25
asS'instanceCount'
p26
I24
sS'matrix'
p27
(dp28
g8
(dp29
S'slice.v.03'
p30
I10
ssg14
(dp31
g15
I1
ssg25
(dp32
g25
I0
ssg20
(dp33
S'knife.n.01'
p34
I1
ssg15
(dp35
g15
I0
ssg9
(dp36
S'potato.n.01'
p37
I1
ssg11
(dp38
g11
I0
ssg19
(dp39
S'vegetable.n.01'
p40
I1
ssg21
(dp41
S'bacon.n.01'
p42
I1
ssg23
(dp43
S'cheese.n.01'
p44
I1
ssg16
(dp45
S'orange.n.01'
p46
I1
ssg13
(dp47
g13
I0
ssg17
(dp48
S'meat.n.01'
p49
I1
ssg22
(dp50
S'lemon.n.01'
p51
I1
ssg12
(dp52
g13
I1
ssg10
(dp53
g11
I2
ssg24
(dp54
g25
I1
ssg18
(dp55
S'cleaver.n.01'
p56
I1
sssb.