ccopy_reg
_reconstructor
p0
(cutils.eval
ConfusionMatrix
p1
c__builtin__
object
p2
Ntp3
Rp4
(dp5
S'labels'
p6
(lp7
S'meat.n.01'
p8
aS'slice.v.03'
p9
aS'cleaver.n.01'
p10
aS'vegetable.n.01'
p11
aS'knife.n.01'
p12
aS'bacon.n.01'
p13
aS'lemon.n.01'
p14
aS'cheese.n.01'
p15
aS'flesh.n.01'
p16
aS'pulp.n.02'
p17
aS'mushroom.n.05'
p18
aS'cabbage.n.01'
p19
aS'bread.n.01'
p20
asS'instanceCount'
p21
I23
sS'matrix'
p22
(dp23
g18
(dp24
S'mushroom.n.05'
p25
I1
ssg9
(dp26
S'slice.v.03'
p27
I10
ssg11
(dp28
S'vegetable.n.01'
p29
I1
ssg12
(dp30
S'knife.n.01'
p31
I2
ssg15
(dp32
S'cheese.n.01'
p33
I1
ssg16
(dp34
g17
I1
ssg13
(dp35
S'bacon.n.01'
p36
I1
ssg20
(dp37
S'bread.n.01'
p38
I1
ssg8
(dp39
S'meat.n.01'
p40
I1
ssg14
(dp41
S'lemon.n.01'
p42
I2
ssg19
(dp43
S'cabbage.n.01'
p44
I1
ssg17
(dp45
g17
I0
ssg10
(dp46
S'cleaver.n.01'
p47
I1
sssb.