ccopy_reg
_reconstructor
p0
(cutils.eval
ConfusionMatrix
p1
c__builtin__
object
p2
Ntp3
Rp4
(dp5
S'labels'
p6
(lp7
S'catsup.n.01'
p8
aS'tomato.n.01'
p9
aS'tomato.n.02'
p10
aS'piece.n.08'
p11
aS'slice.n.06'
p12
aS'onion.n.03'
p13
aS'onion.n.02'
p14
aS'mustard.n.02'
p15
aS'mustard.n.03'
p16
aS'slice.v.03'
p17
aS'egg.n.02'
p18
aS'pizza.n.01'
p19
aS'knife.n.01'
p20
aS'banana.n.02'
p21
aS'green_onion.n.01'
p22
aS'potato.n.01'
p23
aS'zucchini.n.01'
p24
aS'zucchini.n.02'
p25
aS'olive.n.01'
p26
aS'olive.n.04'
p27
aS'orange.n.01'
p28
asS'instanceCount'
p29
I30
sS'matrix'
p30
(dp31
g17
(dp32
S'slice.v.03'
p33
I9
ssg15
(dp34
g16
I1
ssg16
(dp35
g16
I0
ssg20
(dp36
S'knife.n.01'
p37
I3
ssg21
(dp38
S'banana.n.02'
p39
I1
ssg27
(dp40
g27
I0
ssg10
(dp41
g10
I0
ssg9
(dp42
g10
I1
sS'tomato.n.01'
p43
I1
ssg23
(dp44
S'potato.n.01'
p45
I1
ssg12
(dp46
g12
I0
ssg26
(dp47
g27
I1
ssg19
(dp48
S'pizza.n.01'
p49
I1
ssg28
(dp50
S'orange.n.01'
p51
I1
ssg25
(dp52
g25
I0
ssg18
(dp53
S'egg.n.02'
p54
I1
ssg8
(dp55
S'catsup.n.01'
p56
I1
ssg24
(dp57
g25
I1
ssg11
(dp58
g12
I5
ssg22
(dp59
S'green_onion.n.01'
p60
I1
ssg13
(dp61
g14
I1
ssg14
(dp62
g14
I0
sssb.