ccopy_reg
_reconstructor
p0
(cutils.eval
ConfusionMatrix
p1
c__builtin__
object
p2
Ntp3
Rp4
(dp5
S'labels'
p6
(lp7
S'cheese.n.01'
p8
aS'slice.v.03'
p9
aS'flesh.n.01'
p10
aS'pulp.n.02'
p11
aS'mushroom.n.05'
p12
aS'lemon.n.01'
p13
aS'cabbage.n.01'
p14
aS'bread.n.01'
p15
aS'knife.n.01'
p16
aS'catsup.n.01'
p17
aS'tomato.n.01'
p18
aS'tomato.n.02'
p19
aS'piece.n.08'
p20
aS'onion.n.03'
p21
aS'mustard.n.02'
p22
aS'mustard.n.01'
p23
aS'egg.n.02'
p24
aS'pizza.n.01'
p25
aS'banana.n.02'
p26
asS'instanceCount'
p27
I27
sS'matrix'
p28
(dp29
g12
(dp30
S'mushroom.n.05'
p31
I1
ssg8
(dp32
S'cheese.n.01'
p33
I1
ssg22
(dp34
g23
I1
ssg14
(dp35
S'cabbage.n.01'
p36
I1
ssg26
(dp37
S'banana.n.02'
p38
I1
ssg10
(dp39
g11
I1
ssg19
(dp40
g19
I0
ssg18
(dp41
g19
I1
ssg15
(dp42
S'bread.n.01'
p43
I1
ssg25
(dp44
S'pizza.n.01'
p45
I1
ssg21
(dp46
S'onion.n.03'
p47
I1
ssg13
(dp48
S'lemon.n.01'
p49
I1
ssg24
(dp50
S'egg.n.02'
p51
I1
ssg17
(dp52
S'catsup.n.01'
p53
I1
ssg16
(dp54
S'knife.n.01'
p55
I2
ssg9
(dp56
S'slice.v.03'
p57
I9
ssg23
(dp58
g23
I0
ssg20
(dp59
S'piece.n.08'
p60
I3
ssg11
(dp61
g11
I0
sssb.