ccopy_reg
_reconstructor
p0
(cutils.eval
ConfusionMatrix
p1
c__builtin__
object
p2
Ntp3
Rp4
(dp5
S'labels'
p6
(lp7
S'knife.n.01'
p8
aS'slice.v.03'
p9
aS'green_onion.n.01'
p10
aS'tomato.n.01'
p11
aS'potato.n.01'
p12
aS'piece.n.08'
p13
aS'zucchini.n.01'
p14
aS'zucchini.n.02'
p15
aS'olive.n.01'
p16
aS'olive.n.04'
p17
aS'orange.n.01'
p18
aS'slice.n.05'
p19
aS'meat.n.01'
p20
aS'cleaver.n.01'
p21
aS'vegetable.n.01'
p22
aS'bacon.n.01'
p23
aS'lemon.n.01'
p24
asS'instanceCount'
p25
I26
sS'matrix'
p26
(dp27
g9
(dp28
S'slice.v.03'
p29
I10
ssg16
(dp30
g17
I1
ssg8
(dp31
S'knife.n.01'
p32
I3
ssg17
(dp33
g17
I0
ssg11
(dp34
S'tomato.n.01'
p35
I1
ssg14
(dp36
g15
I1
ssg22
(dp37
S'vegetable.n.01'
p38
I1
ssg23
(dp39
S'bacon.n.01'
p40
I1
ssg19
(dp41
g19
I0
ssg18
(dp42
S'orange.n.01'
p43
I1
ssg15
(dp44
g15
I0
ssg20
(dp45
S'meat.n.01'
p46
I1
ssg24
(dp47
S'lemon.n.01'
p48
I1
ssg12
(dp49
S'potato.n.01'
p50
I1
ssg13
(dp51
S'piece.n.08'
p52
I1
sg19
I1
ssg10
(dp53
S'green_onion.n.01'
p54
I1
ssg21
(dp55
S'cleaver.n.01'
p56
I1
sssb.