ccopy_reg
_reconstructor
p0
(cutils.eval
ConfusionMatrix
p1
c__builtin__
object
p2
Ntp3
Rp4
(dp5
S'labels'
p6
(lp7
S'add.v.01'
p8
aS'dressing.n.01'
p9
aS'stuffing.n.01'
p10
aS'salad.n.01'
p11
aS'egg.n.02'
p12
asS'instanceCount'
p13
I5
sS'matrix'
p14
(dp15
g10
(dp16
g10
I0
ssg11
(dp17
S'salad.n.01'
p18
I1
ssg8
(dp19
S'add.v.01'
p20
I2
ssg12
(dp21
S'egg.n.02'
p22
I1
ssg9
(dp23
g10
I1
sssb.