ccopy_reg
_reconstructor
p0
(cutils.eval
ConfusionMatrix
p1
c__builtin__
object
p2
Ntp3
Rp4
(dp5
S'labels'
p6
(lp7
S'add.v.01'
p8
aS'butter.n.01'
p9
aS'pan.n.03'
p10
aS'flour.n.01'
p11
aS'mixing_bowl.n.01'
p12
aS'egg.n.02'
p13
asS'instanceCount'
p14
I7
sS'matrix'
p15
(dp16
g10
(dp17
S'pan.n.03'
p18
I1
ssg11
(dp19
S'flour.n.01'
p20
I1
ssg13
(dp21
S'egg.n.02'
p22
I1
ssg9
(dp23
S'butter.n.01'
p24
I1
ssg12
(dp25
S'mixing_bowl.n.01'
p26
I1
ssg8
(dp27
S'add.v.01'
p28
I2
sssb.