ccopy_reg
_reconstructor
p0
(cutils.eval
ConfusionMatrix
p1
c__builtin__
object
p2
Ntp3
Rp4
(dp5
S'labels'
p6
(lp7
S'fill.v.01'
p8
aS'measuring_cup.n.01'
p9
aS'meal.n.03'
p10
aS'opening.n.01'
p11
aS'opening.n.10'
p12
aS'fill.v.09'
p13
aS'curd.n.01'
p14
aS'thermos.n.01'
p15
aS'coffee.n.01'
p16
aS'blender.n.01'
p17
aS'apple.n.01'
p18
aS'jar.n.01'
p19
aS'glass.n.02'
p20
aS'milk.n.01'
p21
asS'instanceCount'
p22
I17
sS'matrix'
p23
(dp24
g18
(dp25
S'apple.n.01'
p26
I1
ssg13
(dp27
S'fill.v.01'
p28
I1
ssg15
(dp29
S'thermos.n.01'
p30
I1
ssg16
(dp31
S'coffee.n.01'
p32
I1
ssg17
(dp33
S'blender.n.01'
p34
I1
ssg8
(dp35
S'fill.v.01'
p36
I5
ssg9
(dp37
S'measuring_cup.n.01'
p38
I1
ssg14
(dp39
S'curd.n.01'
p40
I1
ssg12
(dp41
g12
I0
ssg19
(dp42
S'jar.n.01'
p43
I1
ssg10
(dp44
S'meal.n.03'
p45
I1
ssg21
(dp46
S'milk.n.01'
p47
I1
ssg20
(dp48
S'glass.n.02'
p49
I1
ssg11
(dp50
g12
I1
sssb.