ccopy_reg
_reconstructor
p0
(cutils.eval
ConfusionMatrix
p1
c__builtin__
object
p2
Ntp3
Rp4
(dp5
S'labels'
p6
(lp7
S'fill.v.01'
p8
aS'pan.n.03'
p9
aS'water.n.06'
p10
aS'ice.n.01'
p11
aS'ice.n.05'
p12
aS'bowl.n.01'
p13
aS'pot.n.01'
p14
aS'whiskey.n.01'
p15
aS'carafe.n.01'
p16
aS'bottle.n.01'
p17
aS'fruit_juice.n.01'
p18
aS'pitcher.n.02'
p19
aS'milk.n.01'
p20
asS'instanceCount'
p21
I18
sS'matrix'
p22
(dp23
g9
(dp24
S'pan.n.03'
p25
I1
ssg17
(dp26
S'bottle.n.01'
p27
I1
ssg18
(dp28
S'fruit_juice.n.01'
p29
I1
ssg14
(dp30
S'pot.n.01'
p31
I1
ssg10
(dp32
S'water.n.06'
p33
I2
ssg8
(dp34
S'fill.v.01'
p35
I6
ssg11
(dp36
g12
I1
ssg19
(dp37
S'pitcher.n.02'
p38
I1
ssg13
(dp39
S'bowl.n.01'
p40
I1
ssg12
(dp41
g12
I0
ssg20
(dp42
S'milk.n.01'
p43
I1
ssg16
(dp44
S'carafe.n.01'
p45
I1
ssg15
(dp46
S'whiskey.n.01'
p47
I1
sssb.