ccopy_reg
_reconstructor
p0
(cutils.eval
ConfusionMatrix
p1
c__builtin__
object
p2
Ntp3
Rp4
(dp5
S'labels'
p6
(lp7
S'fill.v.01'
p8
aS'bottle.n.01'
p9
aS'fruit_juice.n.01'
p10
aS'pitcher.n.02'
p11
aS'milk.n.01'
p12
aS'saltcellar.n.01'
p13
aS'salt.n.02'
p14
aS'cup.n.01'
p15
aS'cola.n.02'
p16
aS'opening.n.01'
p17
aS'gap.n.03'
p18
aS'fill.v.09'
p19
aS'batter.n.02'
p20
aS'wok.n.01'
p21
aS'rice.n.01'
p22
asS'instanceCount'
p23
I18
sS'matrix'
p24
(dp25
g14
(dp26
S'salt.n.02'
p27
I1
ssg10
(dp28
S'fruit_juice.n.01'
p29
I1
ssg22
(dp30
S'rice.n.01'
p31
I1
ssg16
(dp32
S'cola.n.02'
p33
I1
ssg18
(dp34
g18
I0
ssg13
(dp35
S'saltcellar.n.01'
p36
I1
ssg9
(dp37
S'bottle.n.01'
p38
I1
ssg19
(dp39
S'fill.v.01'
p40
I1
ssg8
(dp41
S'fill.v.01'
p42
I5
ssg11
(dp43
S'pitcher.n.02'
p44
I1
ssg20
(dp45
S'batter.n.02'
p46
I1
ssg15
(dp47
S'cup.n.01'
p48
I1
ssg21
(dp49
S'wok.n.01'
p50
I1
ssg12
(dp51
S'milk.n.01'
p52
I1
ssg17
(dp53
g18
I1
sssb.