ccopy_reg
_reconstructor
p0
(cutils.eval
ConfusionMatrix
p1
c__builtin__
object
p2
Ntp3
Rp4
(dp5
S'labels'
p6
(lp7
S'fill.v.01'
p8
aS'thermos.n.01'
p9
aS'coffee.n.01'
p10
aS'blender.n.01'
p11
aS'apple.n.01'
p12
aS'jar.n.01'
p13
aS'glass.n.02'
p14
aS'milk.n.01'
p15
aS'kettle.n.01'
p16
aS'water.n.06'
p17
aS'teapot.n.01'
p18
asS'instanceCount'
p19
I17
sS'matrix'
p20
(dp21
g18
(dp22
S'teapot.n.01'
p23
I1
ssg11
(dp24
S'blender.n.01'
p25
I1
ssg9
(dp26
S'thermos.n.01'
p27
I1
ssg10
(dp28
S'coffee.n.01'
p29
I1
ssg17
(dp30
S'water.n.06'
p31
I2
ssg8
(dp32
S'fill.v.01'
p33
I6
ssg16
(dp34
S'kettle.n.01'
p35
I1
ssg12
(dp36
S'apple.n.01'
p37
I1
ssg13
(dp38
S'jar.n.01'
p39
I1
ssg15
(dp40
S'milk.n.01'
p41
I1
ssg14
(dp42
S'glass.n.02'
p43
I1
sssb.