ccopy_reg
_reconstructor
p0
(cutils.eval
ConfusionMatrix
p1
c__builtin__
object
p2
Ntp3
Rp4
(dp5
S'labels'
p6
(lp7
S'pot.n.01'
p8
aS'fill.v.01'
p9
aS'water.n.06'
p10
aS'whiskey.n.01'
p11
aS'carafe.n.01'
p12
aS'bottle.n.01'
p13
aS'fruit_juice.n.01'
p14
aS'pitcher.n.02'
p15
aS'milk.n.01'
p16
aS'saltcellar.n.01'
p17
aS'salt.n.02'
p18
aS'cup.n.01'
p19
aS'cola.n.02'
p20
asS'instanceCount'
p21
I18
sS'matrix'
p22
(dp23
g18
(dp24
S'salt.n.02'
p25
I1
ssg14
(dp26
S'fruit_juice.n.01'
p27
I1
ssg20
(dp28
S'cola.n.02'
p29
I1
ssg17
(dp30
S'saltcellar.n.01'
p31
I1
ssg13
(dp32
S'bottle.n.01'
p33
I1
ssg8
(dp34
S'pot.n.01'
p35
I1
ssg10
(dp36
S'water.n.06'
p37
I1
ssg9
(dp38
S'fill.v.01'
p39
I6
ssg15
(dp40
S'pitcher.n.02'
p41
I1
ssg16
(dp42
S'milk.n.01'
p43
I1
ssg19
(dp44
S'cup.n.01'
p45
I1
ssg12
(dp46
S'carafe.n.01'
p47
I1
ssg11
(dp48
S'whiskey.n.01'
p49
I1
sssb.