ccopy_reg
_reconstructor
p0
(cutils.eval
ConfusionMatrix
p1
c__builtin__
object
p2
Ntp3
Rp4
(dp5
S'labels'
p6
(lp7
S'opening.n.01'
p8
aS'gap.n.03'
p9
aS'fill.v.09'
p10
aS'fill.v.01'
p11
aS'batter.n.02'
p12
aS'wok.n.01'
p13
aS'rice.n.01'
p14
aS'jar.n.01'
p15
aS'gravy.n.01'
p16
aS'gravy.n.02'
p17
aS'foam.n.01'
p18
aS'mug.n.04'
p19
aS'measuring_cup.n.01'
p20
aS'meal.n.03'
p21
aS'opening.n.10'
p22
aS'curd.n.01'
p23
asS'instanceCount'
p24
I18
sS'matrix'
p25
(dp26
g16
(dp27
g17
I1
ssg19
(dp28
S'mug.n.04'
p29
I1
ssg17
(dp30
g17
I0
ssg9
(dp31
g9
I0
ssg10
(dp32
g11
I2
ssg13
(dp33
S'wok.n.01'
p34
I1
ssg14
(dp35
S'rice.n.01'
p36
I1
ssg11
(dp37
g11
I4
ssg12
(dp38
S'batter.n.02'
p39
I1
ssg22
(dp40
g22
I0
ssg23
(dp41
S'curd.n.01'
p42
I1
ssg20
(dp43
S'measuring_cup.n.01'
p44
I1
ssg15
(dp45
S'jar.n.01'
p46
I1
ssg18
(dp47
S'foam.n.01'
p48
I1
ssg21
(dp49
S'meal.n.03'
p50
I1
ssg8
(dp51
g22
I1
sg9
I1
sssb.