ccopy_reg
_reconstructor
p0
(cutils.eval
ConfusionMatrix
p1
c__builtin__
object
p2
Ntp3
Rp4
(dp5
S'labels'
p6
(lp7
S'put.v.01'
p8
aS'pizza.n.01'
p9
aS'pan.n.03'
p10
aS'bowl.n.01'
p11
aS'cherry.n.03'
p12
asS'instanceCount'
p13
I6
sS'matrix'
p14
(dp15
g10
(dp16
S'pan.n.03'
p17
I1
ssg12
(dp18
S'cherry.n.03'
p19
I1
ssg11
(dp20
S'bowl.n.01'
p21
I1
ssg8
(dp22
S'put.v.01'
p23
I2
ssg9
(dp24
S'pizza.n.01'
p25
I1
sssb.