ccopy_reg
_reconstructor
p0
(cutils.eval
ConfusionMatrix
p1
c__builtin__
object
p2
Ntp3
Rp4
(dp5
S'labels'
p6
(lp7
S'put.v.01'
p8
aS'rib.n.03'
p9
aS'rib.n.01'
p10
aS'salt.n.02'
p11
aS'microwave.n.02'
p12
aS'mug.n.04'
p13
aS'chump.n.01'
p14
asS'instanceCount'
p15
I6
sS'matrix'
p16
(dp17
g11
(dp18
S'salt.n.02'
p19
I1
ssg14
(dp20
g14
I0
ssg13
(dp21
g14
I1
ssg9
(dp22
g10
I1
ssg10
(dp23
g10
I0
ssg12
(dp24
S'microwave.n.02'
p25
I1
ssg8
(dp26
S'put.v.01'
p27
I2
sssb.