ccopy_reg
_reconstructor
p0
(cutils.eval
ConfusionMatrix
p1
c__builtin__
object
p2
Ntp3
Rp4
(dp5
S'labels'
p6
(lp7
S'put.v.01'
p8
aS'cake.n.03'
p9
aS'cake.n.01'
p10
aS'whipped_cream.n.01'
p11
aS'bread.n.01'
p12
aS'spread.n.05'
p13
asS'instanceCount'
p14
I6
sS'matrix'
p15
(dp16
g8
(dp17
S'put.v.01'
p18
I2
ssg13
(dp19
S'spread.n.05'
p20
I1
ssg11
(dp21
S'whipped_cream.n.01'
p22
I1
ssg9
(dp23
g10
I1
ssg10
(dp24
g10
I0
ssg12
(dp25
S'bread.n.01'
p26
I1
sssb.