ccopy_reg
_reconstructor
p0
(cutils.eval
ConfusionMatrix
p1
c__builtin__
object
p2
Ntp3
Rp4
(dp5
S'labels'
p6
(lp7
S'AC_ADD'
p8
aS'AC_FILL'
p9
aS'AC_CUT'
p10
aS'AC_SLICE'
p11
aS'AC_PUT'
p12
aS'AC_STIR'
p13
asS'instanceCount'
p14
I47
sS'matrix'
p15
(dp16
g12
(dp17
S'AC_ADD'
p18
I3
sg12
I3
sS'AC_CUT'
p19
I1
ssg9
(dp20
S'AC_FILL'
p21
I5
ssg13
(dp22
g18
I3
sS'AC_STIR'
p23
I3
ssg8
(dp24
g18
I9
sg19
I1
ssg11
(dp25
g11
I5
sg19
I5
ssg10
(dp26
g11
I4
sg12
I1
sg19
I4
sssb.