ccopy_reg
_reconstructor
p0
(cutils.eval
ConfusionMatrix
p1
c__builtin__
object
p2
Ntp3
Rp4
(dp5
S'labels'
p6
(lp7
S'ice.n.01'
p8
aS'ice.n.05'
p9
aS'fill.v.01'
p10
aS'bowl.n.01'
p11
aS'bowl.n.08'
p12
aS'teapot.n.01'
p13
aS'water.n.06'
p14
aS'opening.n.01'
p15
aS'gap.n.03'
p16
aS'fill.v.09'
p17
aS'batter.n.02'
p18
aS'pot.n.01'
p19
aS'opening.n.10'
p20
aS'curd.n.01'
p21
aS'foam.n.01'
p22
aS'mug.n.04'
p23
aS'cup.n.01'
p24
aS'cola.n.02'
p25
aS'bottle.n.01'
p26
aS'fruit_juice.n.01'
p27
aS'juice.n.01'
p28
aS'pan.n.01'
p29
aS'pan.n.03'
p30
aS'thermos.n.01'
p31
aS'coffee.n.01'
p32
aS'pitcher.n.02'
p33
aS'milk.n.01'
p34
aS'kettle.n.01'
p35
asS'instanceCount'
p36
I36
sS'matrix'
p37
(dp38
g11
(dp39
g12
I1
ssg18
(dp40
S'batter.n.02'
p41
I1
ssg20
(dp42
g20
I0
ssg22
(dp43
S'foam.n.01'
p44
I1
ssg34
(dp45
S'milk.n.01'
p46
I1
ssg29
(dp47
g30
I1
ssg10
(dp48
S'fill.v.01'
p49
I10
ssg30
(dp50
g30
I0
ssg12
(dp51
g12
I0
ssg25
(dp52
S'cola.n.02'
p53
I1
ssg16
(dp54
g16
I0
ssg17
(dp55
S'fill.v.01'
p56
I2
ssg26
(dp57
S'bottle.n.01'
p58
I1
ssg19
(dp59
S'pot.n.01'
p60
I1
ssg24
(dp61
S'cup.n.01'
p62
I1
ssg33
(dp63
S'pitcher.n.02'
p64
I1
ssg32
(dp65
S'coffee.n.01'
p66
I1
ssg15
(dp67
g20
I1
sg16
I1
ssg23
(dp68
S'mug.n.04'
p69
I1
ssg27
(dp70
g28
I1
ssg13
(dp71
S'teapot.n.01'
p72
I1
ssg31
(dp73
S'thermos.n.01'
p74
I1
ssg14
(dp75
S'water.n.06'
p76
I4
ssg8
(dp77
g9
I1
ssg35
(dp78
S'kettle.n.01'
p79
I1
ssg9
(dp80
g9
I0
ssg21
(dp81
S'curd.n.01'
p82
I1
ssg28
(dp83
g28
I0
sssb.