ccopy_reg
_reconstructor
p0
(cutils.eval
ConfusionMatrix
p1
c__builtin__
object
p2
Ntp3
Rp4
(dp5
S'labels'
p6
(lp7
S'cup.n.01'
p8
aS'fill.v.01'
p9
aS'cola.n.02'
p10
aS'bottle.n.01'
p11
aS'fruit_juice.n.01'
p12
aS'pan.n.01'
p13
aS'pan.n.03'
p14
aS'water.n.06'
p15
aS'thermos.n.01'
p16
aS'coffee.n.01'
p17
aS'pitcher.n.02'
p18
aS'milk.n.01'
p19
aS'kettle.n.01'
p20
aS'wok.n.01'
p21
aS'rice.n.01'
p22
aS'jar.n.01'
p23
aS'gravy.n.01'
p24
aS'gravy.n.02'
p25
aS'saltcellar.n.01'
p26
aS'salt.n.02'
p27
aS'whiskey.n.01'
p28
aS'carafe.n.01'
p29
aS'measuring_cup.n.01'
p30
aS'meal.n.03'
p31
asS'instanceCount'
p32
I35
sS'matrix'
p33
(dp34
g16
(dp35
S'thermos.n.01'
p36
I1
ssg8
(dp37
S'cup.n.01'
p38
I1
ssg19
(dp39
S'milk.n.01'
p40
I1
ssg13
(dp41
g14
I1
ssg14
(dp42
g14
I0
ssg10
(dp43
S'cola.n.02'
p44
I1
ssg26
(dp45
S'saltcellar.n.01'
p46
I1
ssg11
(dp47
S'bottle.n.01'
p48
I1
ssg9
(dp49
S'fill.v.01'
p50
I12
ssg18
(dp51
S'pitcher.n.02'
p52
I1
ssg30
(dp53
S'measuring_cup.n.01'
p54
I1
ssg24
(dp55
g25
I1
ssg27
(dp56
S'salt.n.02'
p57
I1
ssg25
(dp58
g25
I0
ssg21
(dp59
S'wok.n.01'
p60
I1
ssg17
(dp61
S'coffee.n.01'
p62
I1
ssg28
(dp63
S'whiskey.n.01'
p64
I1
ssg12
(dp65
S'fruit_juice.n.01'
p66
I1
ssg22
(dp67
S'rice.n.01'
p68
I1
ssg15
(dp69
S'water.n.06'
p70
I2
ssg20
(dp71
S'kettle.n.01'
p72
I1
ssg23
(dp73
S'jar.n.01'
p74
I2
ssg29
(dp75
S'carafe.n.01'
p76
I1
ssg31
(dp77
S'meal.n.03'
p78
I1
sssb.