ccopy_reg
_reconstructor
p0
(cutils.eval
ConfusionMatrix
p1
c__builtin__
object
p2
Ntp3
Rp4
(dp5
S'labels'
p6
(lp7
S'fill.v.01'
p8
aS'glass.n.02'
p9
aS'milk.n.01'
p10
aS'blender.n.01'
p11
aS'apple.n.01'
p12
aS'ice.n.01'
p13
aS'ice.n.05'
p14
aS'bowl.n.01'
p15
aS'teapot.n.01'
p16
aS'water.n.06'
p17
aS'opening.n.01'
p18
aS'gap.n.03'
p19
aS'fill.v.09'
p20
aS'batter.n.02'
p21
aS'pot.n.01'
p22
aS'opening.n.10'
p23
aS'curd.n.01'
p24
aS'foam.n.01'
p25
aS'mug.n.04'
p26
aS'cup.n.01'
p27
aS'cola.n.02'
p28
aS'bottle.n.01'
p29
aS'fruit_juice.n.01'
p30
aS'juice.n.01'
p31
aS'pan.n.01'
p32
aS'pan.n.03'
p33
aS'thermos.n.01'
p34
aS'coffee.n.01'
p35
asS'instanceCount'
p36
I36
sS'matrix'
p37
(dp38
g15
(dp39
S'bowl.n.01'
p40
I1
ssg21
(dp41
S'batter.n.02'
p42
I1
ssg12
(dp43
S'apple.n.01'
p44
I1
ssg23
(dp45
g23
I0
ssg8
(dp46
S'fill.v.01'
p47
I10
ssg10
(dp48
S'milk.n.01'
p49
I1
ssg32
(dp50
g33
I1
ssg33
(dp51
g33
I0
ssg25
(dp52
S'foam.n.01'
p53
I1
ssg28
(dp54
S'cola.n.02'
p55
I1
ssg19
(dp56
g19
I0
ssg20
(dp57
S'fill.v.01'
p58
I2
ssg29
(dp59
S'bottle.n.01'
p60
I1
ssg22
(dp61
S'pot.n.01'
p62
I1
ssg27
(dp63
S'cup.n.01'
p64
I1
ssg9
(dp65
S'glass.n.02'
p66
I1
ssg35
(dp67
S'coffee.n.01'
p68
I1
ssg18
(dp69
g23
I1
sg19
I1
ssg26
(dp70
S'mug.n.04'
p71
I1
ssg30
(dp72
g31
I1
ssg16
(dp73
S'teapot.n.01'
p74
I1
ssg11
(dp75
S'blender.n.01'
p76
I1
ssg34
(dp77
S'thermos.n.01'
p78
I1
ssg17
(dp79
S'water.n.06'
p80
I3
ssg13
(dp81
g14
I1
ssg14
(dp82
g14
I0
ssg24
(dp83
S'curd.n.01'
p84
I1
ssg31
(dp85
g31
I0
sssb.