ccopy_reg
_reconstructor
p0
(cutils.eval
ConfusionMatrix
p1
c__builtin__
object
p2
Ntp3
Rp4
(dp5
S'labels'
p6
(lp7
S'opening.n.01'
p8
aS'gap.n.03'
p9
aS'fill.v.09'
p10
aS'fill.v.01'
p11
aS'batter.n.02'
p12
aS'pot.n.01'
p13
aS'water.n.06'
p14
aS'opening.n.10'
p15
aS'curd.n.01'
p16
aS'foam.n.01'
p17
aS'mug.n.04'
p18
aS'cup.n.01'
p19
aS'cola.n.02'
p20
aS'bottle.n.01'
p21
aS'fruit_juice.n.01'
p22
aS'juice.n.01'
p23
aS'pan.n.01'
p24
aS'pan.n.03'
p25
aS'thermos.n.01'
p26
aS'coffee.n.01'
p27
aS'pitcher.n.02'
p28
aS'milk.n.01'
p29
aS'kettle.n.01'
p30
aS'wok.n.01'
p31
aS'rice.n.01'
p32
aS'jar.n.01'
p33
asS'instanceCount'
p34
I35
sS'matrix'
p35
(dp36
g32
(dp37
S'rice.n.01'
p38
I1
ssg12
(dp39
S'batter.n.02'
p40
I1
ssg15
(dp41
g15
I0
ssg19
(dp42
S'cup.n.01'
p43
I1
ssg29
(dp44
S'milk.n.01'
p45
I1
ssg24
(dp46
g25
I1
ssg25
(dp47
g25
I0
ssg17
(dp48
S'foam.n.01'
p49
I1
ssg20
(dp50
S'cola.n.02'
p51
I1
ssg9
(dp52
g9
I0
ssg10
(dp53
g11
I2
ssg21
(dp54
S'bottle.n.01'
p55
I1
ssg13
(dp56
S'pot.n.01'
p57
I1
ssg11
(dp58
g11
I10
ssg28
(dp59
S'pitcher.n.02'
p60
I1
ssg31
(dp61
S'wok.n.01'
p62
I1
ssg27
(dp63
S'coffee.n.01'
p64
I1
ssg8
(dp65
g15
I1
sg9
I1
ssg18
(dp66
S'mug.n.04'
p67
I1
ssg22
(dp68
g23
I1
ssg26
(dp69
S'thermos.n.01'
p70
I1
ssg14
(dp71
S'water.n.06'
p72
I3
ssg30
(dp73
S'kettle.n.01'
p74
I1
ssg16
(dp75
S'curd.n.01'
p76
I1
ssg33
(dp77
S'jar.n.01'
p78
I1
ssg23
(dp79
g23
I0
sssb.