ccopy_reg
_reconstructor
p0
(cutils.eval
ConfusionMatrix
p1
c__builtin__
object
p2
Ntp3
Rp4
(dp5
S'labels'
p6
(lp7
S'fill.v.01'
p8
aS'pan.n.01'
p9
aS'pan.n.03'
p10
aS'water.n.06'
p11
aS'thermos.n.01'
p12
aS'coffee.n.01'
p13
aS'pitcher.n.02'
p14
aS'milk.n.01'
p15
aS'kettle.n.01'
p16
aS'wok.n.01'
p17
aS'rice.n.01'
p18
aS'jar.n.01'
p19
aS'gravy.n.01'
p20
aS'gravy.n.02'
p21
aS'saltcellar.n.01'
p22
aS'salt.n.02'
p23
aS'whiskey.n.01'
p24
aS'carafe.n.01'
p25
aS'measuring_cup.n.01'
p26
aS'meal.n.03'
p27
aS'meal.n.01'
p28
aS'glass.n.02'
p29
aS'blender.n.01'
p30
aS'apple.n.01'
p31
asS'instanceCount'
p32
I35
sS'matrix'
p33
(dp34
g12
(dp35
S'thermos.n.01'
p36
I1
ssg31
(dp37
S'apple.n.01'
p38
I1
ssg15
(dp39
S'milk.n.01'
p40
I2
ssg9
(dp41
g10
I1
ssg10
(dp42
g10
I0
ssg22
(dp43
S'saltcellar.n.01'
p44
I1
ssg8
(dp45
S'fill.v.01'
p46
I12
ssg14
(dp47
S'pitcher.n.02'
p48
I1
ssg26
(dp49
S'measuring_cup.n.01'
p50
I1
ssg29
(dp51
S'glass.n.02'
p52
I1
ssg20
(dp53
g21
I1
ssg23
(dp54
S'salt.n.02'
p55
I1
ssg21
(dp56
g21
I0
ssg17
(dp57
S'wok.n.01'
p58
I1
ssg13
(dp59
S'coffee.n.01'
p60
I1
ssg24
(dp61
S'whiskey.n.01'
p62
I1
ssg30
(dp63
S'blender.n.01'
p64
I1
ssg18
(dp65
S'rice.n.01'
p66
I1
ssg11
(dp67
S'water.n.06'
p68
I2
ssg16
(dp69
S'kettle.n.01'
p70
I1
ssg19
(dp71
S'jar.n.01'
p72
I2
ssg25
(dp73
S'carafe.n.01'
p74
I1
ssg28
(dp75
g28
I0
ssg27
(dp76
g28
I1
sssb.