ccopy_reg
_reconstructor
p0
(cutils.eval
ConfusionMatrix
p1
c__builtin__
object
p2
Ntp3
Rp4
(dp5
S'labels'
p6
(lp7
S'add.v.01'
p8
aS'asparagus.n.02'
p9
aS'salad.n.01'
p10
aS'corn.n.03'
p11
aS'dish.n.02'
p12
aS'dish.n.01'
p13
asS'instanceCount'
p14
I6
sS'matrix'
p15
(dp16
g11
(dp17
S'corn.n.03'
p18
I1
ssg10
(dp19
S'salad.n.01'
p20
I1
ssg9
(dp21
S'asparagus.n.02'
p22
I1
ssg12
(dp23
g13
I1
ssg13
(dp24
g13
I0
ssg8
(dp25
S'add.v.01'
p26
I2
sssb.