ccopy_reg
_reconstructor
p0
(cutils.eval
ConfusionMatrix
p1
c__builtin__
object
p2
Ntp3
Rp4
(dp5
S'labels'
p6
(lp7
S'sauce.n.01'
p8
aS'add.v.01'
p9
aS'cream.n.02'
p10
aS'cream.n.03'
p11
aS'onion.n.03'
p12
asS'instanceCount'
p13
I5
sS'matrix'
p14
(dp15
g10
(dp16
g11
I1
ssg12
(dp17
S'onion.n.03'
p18
I1
ssg9
(dp19
S'add.v.01'
p20
I2
ssg11
(dp21
g11
I0
ssg8
(dp22
S'sauce.n.01'
p23
I1
sssb.