ccopy_reg
_reconstructor
p0
(cutils.eval
ConfusionMatrix
p1
c__builtin__
object
p2
Ntp3
Rp4
(dp5
S'labels'
p6
(lp7
S'vegetable.n.01'
p8
aS'add.v.01'
p9
aS'mixing_bowl.n.01'
p10
aS'butter.n.01'
p11
aS'sugar.n.01'
p12
asS'instanceCount'
p13
I6
sS'matrix'
p14
(dp15
g10
(dp16
S'mixing_bowl.n.01'
p17
I1
ssg8
(dp18
S'vegetable.n.01'
p19
I1
ssg9
(dp20
S'add.v.01'
p21
I2
ssg11
(dp22
S'butter.n.01'
p23
I1
ssg12
(dp24
S'sugar.n.01'
p25
I1
sssb.