ccopy_reg
_reconstructor
p0
(cutils.eval
ConfusionMatrix
p1
c__builtin__
object
p2
Ntp3
Rp4
(dp5
S'labels'
p6
(lp7
S'pan.n.03'
p8
aS'add.v.01'
p9
aS'vanilla.n.02'
p10
aS'butter.n.01'
p11
aS'pot.n.01'
p12
aS'pot.n.09'
p13
aS'bean.n.01'
p14
aS'flour.n.01'
p15
aS'egg.n.02'
p16
aS'mixing_bowl.n.01'
p17
aS'rib.n.03'
p18
aS'dressing.n.01'
p19
aS'stuffing.n.01'
p20
aS'salad.n.01'
p21
aS'sauce.n.01'
p22
aS'cream.n.02'
p23
aS'vegetable.n.01'
p24
aS'ingredient.n.03'
p25
aS'sugar.n.01'
p26
aS'apple.n.01'
p27
aS'french_fries.n.01'
p28
aS'steak.n.01'
p29
aS'asparagus.n.02'
p30
aS'corn.n.03'
p31
aS'dish.n.02'
p32
aS'dish.n.01'
p33
aS'milk.n.01'
p34
aS'milk.n.04'
p35
aS'water.n.06'
p36
aS'onion.n.03'
p37
aS'salt.n.02'
p38
aS'meat.n.01'
p39
aS'concoction.n.01'
p40
aS'cream.n.03'
p41
aS'water_system.n.02'
p42
aS'kernel.n.01'
p43
asS'instanceCount'
p44
I290
sS'matrix'
p45
(dp46
g43
(dp47
g43
I0
sS'corn.n.03'
p48
I0
sS'dish.n.02'
p49
I0
sS'dish.n.01'
p50
I0
sS'milk.n.04'
p51
I0
sS'apple.n.01'
p52
I0
sS'add.v.01'
p53
I0
sS'milk.n.01'
p54
I0
sS'pan.n.03'
p55
I0
sS'egg.n.02'
p56
I0
sS'butter.n.01'
p57
I0
sS'asparagus.n.02'
p58
I0
sS'meat.n.01'
p59
I0
sS'concoction.n.01'
p60
I0
sS'salt.n.02'
p61
I0
sS'cream.n.02'
p62
I0
sS'ingredient.n.03'
p63
I0
sS'cream.n.03'
p64
I0
sS'steak.n.01'
p65
I0
sS'water_system.n.02'
p66
I0
sS'water.n.06'
p67
I0
sS'french_fries.n.01'
p68
I0
sS'salad.n.01'
p69
I0
sS'onion.n.03'
p70
I0
ssg31
(dp71
g43
I0
sg31
I5
sS'mixing_bowl.n.01'
p72
I0
sg32
I0
sg33
I0
sg35
I0
sS'apple.n.01'
p73
I0
sS'add.v.01'
p74
I0
sg34
I0
sS'pan.n.03'
p75
I0
sS'egg.n.02'
p76
I0
sS'butter.n.01'
p77
I0
sg30
I0
sg59
I0
sS'vanilla.n.02'
p78
I0
sg60
I0
sS'sauce.n.01'
p79
I0
sg61
I0
sS'rib.n.03'
p80
I0
sS'cream.n.02'
p81
I0
sS'ingredient.n.03'
p82
I0
sg64
I0
sS'steak.n.01'
p83
I0
sS'stuffing.n.01'
p84
I0
sS'vegetable.n.01'
p85
I0
sg42
I0
sg36
I0
sS'dressing.n.01'
p86
I0
sS'french_fries.n.01'
p87
I0
sS'salad.n.01'
p88
I0
sg37
I0
sS'sugar.n.01'
p89
I0
ssg17
(dp90
g31
I0
sg17
I10
sg32
I0
sg33
I0
sg35
I0
sg27
I0
sg9
I0
sg34
I0
sg8
I0
sg13
I0
sg15
I0
sg16
I0
sg11
I0
sg12
I0
sg30
I0
sg39
I0
sg10
I0
sg14
I0
sg40
I0
sg22
I0
sg38
I0
sg18
I0
sg23
I0
sg25
I0
sg41
I0
sg29
I0
sg20
I0
sg24
I0
sg42
I0
sg36
I0
sg19
I0
sg28
I0
sg21
I0
sg37
I0
sg26
I0
ssg32
(dp91
g43
I0
sg31
I0
sg72
I0
sg32
I0
sg33
I5
sg35
I0
sg73
I0
sg74
I0
sg34
I0
sg75
I0
sg76
I0
sg77
I0
sg30
I0
sg59
I0
sg78
I0
sg60
I0
sg79
I0
sg61
I0
sg80
I0
sg81
I0
sg82
I0
sg64
I0
sg83
I0
sg84
I0
sg85
I0
sg42
I0
sg36
I0
sg86
I0
sg87
I0
sg88
I0
sg37
I0
sg89
I0
ssg33
(dp92
g43
I0
sg31
I0
sg72
I0
sg32
I0
sg33
I0
sg35
I0
sg73
I0
sg74
I0
sg34
I0
sg75
I0
sg76
I0
sg77
I0
sg30
I0
sg59
I0
sg78
I0
sg60
I0
sg79
I0
sg61
I0
sg80
I0
sg81
I0
sg82
I0
sg64
I0
sg83
I0
sg84
I0
sg85
I0
sg42
I0
sg36
I0
sg86
I0
sg87
I0
sg88
I0
sg37
I0
sg89
I0
ssg35
(dp93
g43
I0
sg31
I0
sg72
I0
sg32
I0
sg33
I0
sg35
I0
sg73
I0
sg74
I0
sg34
I0
sg75
I0
sS'pot.n.09'
p94
I0
sS'flour.n.01'
p95
I0
sg76
I0
sg77
I0
sS'pot.n.01'
p96
I0
sg30
I0
sg59
I0
sg78
I0
sS'bean.n.01'
p97
I0
sg60
I0
sg79
I0
sg61
I0
sg81
I0
sg82
I0
sg64
I0
sg83
I0
sg85
I0
sg42
I0
sg36
I0
sg87
I0
sg88
I0
sg37
I0
sg89
I0
ssg27
(dp98
g43
I0
sg31
I0
sS'mixing_bowl.n.01'
p99
I0
sg32
I0
sg33
I0
sg35
I0
sg27
I5
sS'add.v.01'
p100
I0
sg34
I0
sg75
I0
sS'pot.n.09'
p101
I0
sS'flour.n.01'
p102
I0
sS'egg.n.02'
p103
I0
sS'butter.n.01'
p104
I0
sS'pot.n.01'
p105
I0
sg30
I0
sg59
I0
sS'bean.n.01'
p106
I0
sg60
I0
sS'sauce.n.01'
p107
I0
sg61
I0
sS'rib.n.03'
p108
I0
sS'cream.n.02'
p109
I0
sS'ingredient.n.03'
p110
I0
sg64
I0
sg29
I0
sS'stuffing.n.01'
p111
I0
sS'vegetable.n.01'
p112
I0
sg42
I0
sg36
I0
sS'dressing.n.01'
p113
I0
sg28
I0
sS'salad.n.01'
p114
I0
sg37
I0
sS'sugar.n.01'
p115
I0
ssg9
(dp116
g43
I0
sg31
I0
sg17
I0
sg32
I0
sg33
I0
sg35
I0
sg27
I0
sg9
I100
sg34
I0
sg8
I0
sg13
I0
sg15
I0
sg16
I0
sg11
I0
sg12
I0
sg30
I0
sg39
I0
sg10
I0
sg14
I0
sg40
I0
sg22
I0
sg38
I0
sg18
I0
sg23
I0
sg25
I0
sg41
I0
sg29
I0
sg20
I0
sg24
I0
sg42
I0
sg36
I0
sg19
I0
sg28
I0
sg21
I0
sg37
I0
sg26
I0
ssg34
(dp117
g43
I0
sg31
I0
sg72
I0
sg32
I0
sg33
I0
sg35
I5
sg73
I0
sg74
I0
sg34
I0
sg75
I0
sg94
I0
sg95
I0
sg76
I0
sg77
I0
sg96
I0
sg30
I0
sg59
I0
sg78
I0
sg97
I0
sg60
I0
sg79
I0
sg61
I0
sg81
I0
sg82
I0
sg64
I0
sg83
I0
sg85
I0
sg42
I0
sg36
I0
sg87
I0
sg88
I0
sg37
I0
sg89
I0
ssg8
(dp118
g43
I0
sg31
I0
sg17
I0
sg32
I0
sg33
I0
sg35
I0
sg73
I0
sg9
I0
sg34
I0
sg8
I15
sg13
I0
sg15
I0
sg16
I0
sg11
I0
sg12
I0
sg30
I0
sg39
I0
sg10
I0
sg14
I0
sg40
I0
sg22
I0
sg38
I0
sg18
I0
sg23
I0
sg25
I0
sg41
I0
sg83
I0
sg20
I0
sg24
I0
sg66
I0
sg36
I0
sg19
I0
sg87
I0
sg21
I0
sg37
I0
sg26
I0
ssg13
(dp119
g17
I0
sS'milk.n.04'
p120
I0
sg27
I0
sg9
I0
sS'milk.n.01'
p121
I0
sg8
I0
sg13
I0
sg15
I0
sg16
I0
sg11
I0
sg12
I0
sg39
I0
sg10
I0
sg14
I0
sg40
I0
sg22
I0
sg38
I0
sg18
I0
sg23
I0
sg25
I0
sg41
I0
sg29
I0
sg20
I0
sg24
I0
sS'water.n.06'
p122
I0
sg19
I0
sg28
I0
sg21
I0
sS'onion.n.03'
p123
I0
sg26
I0
ssg15
(dp124
g17
I0
sg120
I0
sg27
I0
sg9
I0
sg121
I0
sg8
I0
sg13
I0
sg15
I5
sg16
I0
sg11
I0
sg12
I0
sg39
I0
sg10
I0
sg14
I0
sg40
I0
sg22
I0
sg38
I0
sg18
I0
sg23
I0
sg25
I0
sg41
I0
sg29
I0
sg20
I0
sg24
I0
sg122
I0
sg19
I0
sg28
I0
sg21
I0
sg123
I0
sg26
I0
ssg16
(dp125
g43
I0
sg31
I0
sg17
I0
sg32
I0
sg33
I0
sg35
I0
sg27
I0
sg9
I0
sg34
I0
sg8
I0
sg13
I0
sg15
I0
sg16
I10
sg11
I0
sg12
I0
sg30
I0
sg39
I0
sg10
I0
sg14
I0
sg40
I0
sg22
I0
sg38
I0
sg18
I0
sg23
I0
sg25
I0
sg41
I0
sg29
I0
sg20
I0
sg24
I0
sg42
I0
sg36
I0
sg19
I0
sg28
I0
sg21
I0
sg37
I0
sg26
I0
ssg11
(dp126
g43
I0
sg31
I0
sg17
I0
sg32
I0
sg33
I0
sg35
I0
sg27
I0
sg9
I0
sg34
I0
sg8
I0
sg13
I0
sg15
I0
sg16
I0
sg11
I15
sg12
I0
sg30
I0
sg39
I0
sg10
I0
sg14
I0
sg40
I0
sg22
I0
sg38
I0
sg18
I0
sg23
I0
sg25
I0
sg41
I0
sg29
I0
sg20
I0
sg24
I0
sg42
I0
sg36
I0
sg19
I0
sg28
I0
sg21
I0
sg37
I0
sg26
I0
ssg12
(dp127
g17
I0
sg120
I0
sg27
I0
sg9
I0
sg121
I0
sg8
I0
sg13
I5
sg15
I0
sg16
I0
sg11
I0
sg12
I0
sg39
I0
sg10
I0
sg14
I0
sg40
I0
sg22
I0
sg38
I0
sg18
I0
sg23
I0
sg25
I0
sg41
I0
sg29
I0
sg20
I0
sg24
I0
sg122
I0
sg19
I0
sg28
I0
sg21
I0
sg123
I0
sg26
I0
ssg30
(dp128
g43
I0
sg31
I0
sg72
I0
sg32
I0
sg33
I0
sg35
I0
sg73
I0
sg74
I0
sg34
I0
sg75
I0
sg76
I0
sg77
I0
sg30
I5
sg59
I0
sg78
I0
sg60
I0
sg79
I0
sg61
I0
sg80
I0
sg81
I0
sg82
I0
sg64
I0
sg83
I0
sg84
I0
sg85
I0
sg42
I0
sg36
I0
sg86
I0
sg87
I0
sg88
I0
sg37
I0
sg89
I0
ssg39
(dp129
g43
I1
sg48
I0
sS'mixing_bowl.n.01'
p130
I0
sg49
I0
sg50
I0
sg51
I0
sg52
I0
sS'add.v.01'
p131
I0
sg54
I0
sS'pan.n.03'
p132
I0
sS'pot.n.09'
p133
I0
sS'flour.n.01'
p134
I0
sS'egg.n.02'
p135
I0
sS'butter.n.01'
p136
I0
sS'pot.n.01'
p137
I0
sg58
I0
sg39
I4
sS'vanilla.n.02'
p138
I0
sS'bean.n.01'
p139
I0
sg40
I0
sS'sauce.n.01'
p140
I0
sg38
I0
sS'rib.n.03'
p141
I0
sS'cream.n.02'
p142
I0
sS'ingredient.n.03'
p143
I0
sg41
I0
sg65
I0
sS'stuffing.n.01'
p144
I0
sS'vegetable.n.01'
p145
I0
sg66
I0
sg67
I0
sS'dressing.n.01'
p146
I0
sg68
I0
sS'salad.n.01'
p147
I0
sg70
I0
ssg10
(dp148
S'corn.n.03'
p149
I0
sg17
I0
sS'dish.n.02'
p150
I0
sS'dish.n.01'
p151
I0
sS'milk.n.04'
p152
I0
sg9
I0
sS'milk.n.01'
p153
I0
sg8
I0
sg13
I0
sg15
I0
sg16
I0
sg11
I0
sg12
I0
sS'asparagus.n.02'
p154
I0
sg39
I0
sg10
I10
sg14
I0
sg40
I0
sg22
I0
sg38
I0
sg18
I0
sg23
I0
sg25
I0
sg41
I0
sg20
I0
sg24
I0
sS'water_system.n.02'
p155
I0
sS'water.n.06'
p156
I0
sg19
I0
sg21
I0
sS'onion.n.03'
p157
I0
sg26
I0
ssg14
(dp158
g17
I0
sg120
I0
sg27
I0
sg9
I0
sg121
I0
sg8
I0
sg13
I0
sg15
I0
sg16
I0
sg11
I0
sg12
I0
sg39
I0
sg10
I0
sg14
I5
sg40
I0
sg22
I0
sg38
I0
sg18
I0
sg23
I0
sg25
I0
sg41
I0
sg29
I0
sg20
I0
sg24
I0
sg122
I0
sg19
I0
sg28
I0
sg21
I0
sg123
I0
sg26
I0
ssg40
(dp159
g43
I0
sg48
I0
sg130
I0
sg49
I0
sg50
I0
sg51
I0
sg52
I0
sg131
I0
sg54
I0
sg132
I0
sg133
I0
sg134
I0
sg135
I0
sg136
I0
sg137
I0
sg58
I0
sg39
I0
sg138
I0
sg139
I0
sg40
I5
sg140
I0
sg38
I0
sg141
I0
sg142
I0
sg143
I0
sg41
I0
sg65
I0
sg144
I0
sg145
I0
sg66
I0
sg67
I0
sg146
I0
sg68
I0
sg147
I0
sg70
I0
ssg22
(dp160
S'corn.n.03'
p161
I0
sg17
I0
sS'dish.n.02'
p162
I0
sS'dish.n.01'
p163
I0
sS'milk.n.04'
p164
I0
sg27
I0
sg9
I0
sS'milk.n.01'
p165
I0
sg8
I0
sg13
I0
sg15
I0
sg16
I0
sg11
I0
sg12
I0
sS'asparagus.n.02'
p166
I0
sg39
I0
sg10
I0
sg14
I0
sg40
I0
sg22
I5
sg38
I0
sg18
I0
sg23
I0
sg25
I0
sg41
I0
sg29
I0
sg20
I0
sg24
I0
sg42
I0
sS'water.n.06'
p167
I0
sg19
I0
sg28
I0
sg21
I0
sg26
I0
ssg38
(dp168
g43
I0
sg48
I0
sg130
I0
sg49
I0
sg50
I0
sg51
I0
sg52
I0
sg131
I0
sg54
I0
sg132
I0
sg133
I0
sg134
I0
sg135
I0
sg136
I0
sg137
I0
sg58
I0
sg39
I0
sg138
I0
sg139
I0
sg40
I0
sg140
I0
sg38
I5
sg141
I0
sg142
I0
sg143
I0
sg41
I0
sg65
I0
sg144
I0
sg145
I0
sg66
I0
sg67
I0
sg146
I0
sg68
I0
sg147
I0
sg70
I0
ssg18
(dp169
S'corn.n.03'
p170
I0
sg17
I0
sS'dish.n.02'
p171
I0
sS'dish.n.01'
p172
I0
sg27
I0
sg9
I0
sg8
I0
sg13
I0
sg15
I0
sg16
I0
sg11
I0
sg12
I0
sS'asparagus.n.02'
p173
I0
sg39
I0
sg10
I0
sg14
I0
sg40
I0
sg22
I0
sg38
I0
sg18
I5
sg23
I0
sg25
I0
sg41
I0
sg29
I0
sg20
I0
sg24
I0
sg19
I0
sg28
I0
sg21
I0
sS'onion.n.03'
p174
I0
sg26
I0
ssg23
(dp175
g43
I0
sg161
I0
sg17
I0
sg162
I0
sg163
I0
sg164
I0
sg27
I0
sg9
I0
sg165
I0
sg8
I0
sg13
I0
sg15
I0
sg16
I0
sg11
I0
sg12
I0
sg166
I0
sg39
I0
sg10
I0
sg14
I0
sg40
I0
sg22
I0
sg38
I0
sg18
I0
sg23
I7
sg25
I0
sg41
I3
sg29
I0
sg20
I0
sg24
I0
sg42
I0
sg167
I0
sg19
I0
sg28
I0
sg21
I0
sg70
I0
sg26
I0
ssg25
(dp176
g43
I0
sg31
I0
sg17
I0
sg32
I0
sg33
I0
sg35
I0
sg27
I0
sg9
I0
sg34
I0
sg8
I0
sg13
I0
sg15
I0
sg16
I0
sg11
I0
sg12
I0
sg30
I0
sg39
I0
sg10
I0
sg14
I0
sg40
I0
sg22
I0
sg38
I0
sg18
I0
sg23
I0
sg25
I10
sg41
I0
sg29
I0
sg20
I0
sg24
I0
sg42
I0
sg36
I0
sg19
I0
sg28
I0
sg21
I0
sg37
I0
sg26
I0
ssg41
(dp177
g43
I0
sg48
I0
sg130
I0
sg49
I0
sg50
I0
sg51
I0
sg52
I0
sg131
I0
sg54
I0
sg132
I0
sg133
I0
sg134
I0
sg135
I0
sg136
I0
sg137
I0
sg58
I0
sg39
I0
sg138
I0
sg139
I0
sg40
I0
sg140
I0
sg38
I0
sg141
I0
sg142
I0
sg41
I0
sg143
I0
sg65
I0
sg144
I0
sg145
I0
sg66
I0
sg67
I0
sg146
I0
sg68
I0
sg147
I0
sg70
I0
ssg29
(dp178
g43
I0
sg31
I0
sg99
I0
sg32
I0
sg33
I0
sg35
I0
sg27
I0
sg100
I0
sg34
I0
sg75
I0
sg101
I0
sg102
I0
sg103
I0
sg104
I0
sg105
I0
sg30
I0
sg59
I0
sg106
I0
sg60
I0
sg107
I0
sg61
I0
sg108
I0
sg109
I0
sg110
I0
sg64
I0
sg29
I5
sg111
I0
sg112
I0
sg42
I0
sg36
I0
sg113
I0
sg28
I0
sg114
I0
sg37
I0
sg115
I0
ssg20
(dp179
g170
I0
sg17
I0
sg171
I0
sg172
I0
sg27
I0
sg9
I0
sg8
I0
sg13
I0
sg15
I0
sg16
I0
sg11
I0
sg12
I0
sg173
I0
sg39
I0
sg10
I0
sg14
I0
sg40
I0
sg22
I0
sg38
I0
sg18
I0
sg23
I0
sg25
I0
sg41
I0
sg29
I0
sg20
I0
sg24
I0
sg19
I0
sg28
I0
sg21
I0
sg174
I0
sg26
I0
ssg24
(dp180
g161
I0
sg17
I0
sg162
I0
sg163
I0
sg164
I0
sg27
I0
sg9
I0
sg165
I0
sg8
I0
sg13
I0
sg15
I0
sg16
I0
sg11
I0
sg12
I0
sg166
I0
sg39
I0
sg10
I0
sg14
I0
sg40
I0
sg22
I0
sg38
I0
sg18
I0
sg23
I0
sg25
I0
sg41
I0
sg29
I0
sg20
I0
sg24
I5
sg42
I0
sg167
I0
sg19
I0
sg28
I0
sg21
I0
sg26
I0
ssg42
(dp181
g43
I0
sg161
I0
sS'mixing_bowl.n.01'
p182
I0
sg162
I0
sg163
I0
sg164
I0
sS'apple.n.01'
p183
I0
sS'add.v.01'
p184
I0
sg165
I0
sg55
I0
sS'egg.n.02'
p185
I0
sS'butter.n.01'
p186
I0
sg166
I0
sg59
I0
sg78
I0
sg60
I0
sg79
I0
sg61
I0
sg81
I0
sS'ingredient.n.03'
p187
I0
sg64
I0
sS'steak.n.01'
p188
I0
sg85
I0
sg42
I0
sg167
I0
sS'french_fries.n.01'
p189
I0
sS'salad.n.01'
p190
I0
sg70
I0
sS'sugar.n.01'
p191
I0
ssg36
(dp192
g43
I0
sg31
I0
sg72
I0
sg32
I0
sg33
I0
sg35
I0
sg73
I0
sg74
I0
sg34
I0
sg75
I0
sg94
I0
sg95
I0
sg76
I0
sg77
I0
sg96
I0
sg30
I0
sg59
I0
sg78
I0
sg97
I0
sg60
I0
sg79
I0
sg61
I0
sg81
I0
sg82
I0
sg64
I0
sg83
I0
sg85
I0
sg42
I3
sg36
I2
sg87
I0
sg88
I0
sg37
I0
sg89
I0
ssg19
(dp193
g170
I0
sg17
I0
sg171
I0
sg172
I0
sg27
I0
sg9
I0
sg8
I0
sg13
I0
sg15
I0
sg16
I0
sg11
I0
sg12
I0
sg173
I0
sg39
I0
sg10
I0
sg14
I0
sg40
I0
sg22
I0
sg38
I0
sg18
I0
sg23
I0
sg25
I0
sg41
I0
sg29
I0
sg20
I5
sg24
I0
sg19
I0
sg28
I0
sg21
I0
sg174
I0
sg26
I0
ssg28
(dp194
g43
I0
sg31
I0
sg99
I0
sg32
I0
sg33
I0
sg35
I0
sg27
I0
sg100
I0
sg34
I0
sg75
I0
sg101
I0
sg102
I0
sg103
I0
sg104
I0
sg105
I0
sg30
I0
sg59
I0
sg106
I0
sg60
I0
sg107
I0
sg61
I0
sg108
I0
sg109
I0
sg110
I0
sg64
I0
sg29
I0
sg111
I0
sg112
I0
sg42
I0
sg36
I0
sg113
I0
sg28
I5
sg114
I0
sg37
I0
sg115
I0
ssg21
(dp195
g43
I0
sg31
I0
sg17
I0
sg32
I0
sg33
I0
sg35
I0
sg27
I0
sg9
I0
sg34
I0
sg8
I0
sg13
I0
sg15
I0
sg16
I0
sg11
I0
sg12
I0
sg30
I0
sg39
I0
sg10
I0
sg14
I0
sg40
I0
sg22
I0
sg38
I0
sg18
I0
sg23
I0
sg25
I0
sg41
I0
sg29
I0
sg20
I0
sg24
I0
sg42
I0
sg36
I0
sg19
I0
sg28
I0
sg21
I10
sg37
I0
sg26
I0
ssg37
(dp196
g43
I0
sg31
I0
sg72
I0
sg32
I0
sg33
I0
sg35
I0
sg73
I0
sg74
I0
sg34
I0
sg75
I0
sg94
I0
sg95
I0
sg76
I0
sg77
I0
sg96
I0
sg30
I0
sg59
I0
sg78
I0
sg97
I0
sg60
I0
sg61
I0
sS'rib.n.03'
p197
I0
sg62
I0
sg82
I0
sg64
I0
sg83
I0
sS'stuffing.n.01'
p198
I0
sg66
I0
sg36
I0
sS'dressing.n.01'
p199
I0
sg87
I0
sg88
I0
sg37
I5
sg89
I0
ssg26
(dp200
g31
I0
sg17
I0
sg32
I0
sg33
I0
sg35
I0
sg27
I0
sg9
I0
sg34
I0
sg8
I0
sg13
I0
sg15
I0
sg16
I0
sg11
I0
sg12
I0
sg30
I0
sg10
I0
sg14
I0
sg22
I0
sg18
I0
sg23
I0
sg25
I0
sg29
I0
sg20
I0
sg24
I0
sg42
I0
sg36
I0
sg19
I0
sg28
I0
sg21
I0
sg37
I0
sg26
I5
sssb.