ccopy_reg
_reconstructor
p0
(cutils.eval
ConfusionMatrix
p1
c__builtin__
object
p2
Ntp3
Rp4
(dp5
S'labels'
p6
(lp7
S'add.v.01'
p8
aS'onion.n.03'
p9
aS'pan.n.03'
p10
aS'butter.n.01'
p11
aS'salt.n.02'
p12
aS'meat.n.01'
p13
aS'ingredient.n.03'
p14
aS'concoction.n.01'
p15
aS'cream.n.02'
p16
aS'vanilla.n.02'
p17
aS'pot.n.01'
p18
aS'pot.n.09'
p19
aS'bean.n.01'
p20
aS'flour.n.01'
p21
aS'egg.n.02'
p22
aS'mixing_bowl.n.01'
p23
aS'rib.n.03'
p24
aS'dressing.n.01'
p25
aS'stuffing.n.01'
p26
aS'salad.n.01'
p27
asS'instanceCount'
p28
I31
sS'matrix'
p29
(dp30
g12
(dp31
S'salt.n.02'
p32
I1
ssg10
(dp33
S'pan.n.03'
p34
I3
ssg19
(dp35
g19
I0
ssg21
(dp36
S'flour.n.01'
p37
I1
ssg23
(dp38
S'mixing_bowl.n.01'
p39
I1
ssg24
(dp40
S'rib.n.03'
p41
I1
ssg18
(dp42
g19
I1
ssg11
(dp43
S'butter.n.01'
p44
I2
ssg16
(dp45
S'cream.n.02'
p46
I1
ssg14
(dp47
S'ingredient.n.03'
p48
I1
ssg25
(dp49
g26
I1
ssg26
(dp50
g26
I0
ssg22
(dp51
S'egg.n.02'
p52
I1
ssg13
(dp53
S'meat.n.01'
p54
I1
ssg17
(dp55
S'vanilla.n.02'
p56
I2
ssg20
(dp57
S'bean.n.01'
p58
I1
ssg15
(dp59
S'concoction.n.01'
p60
I1
ssg8
(dp61
S'add.v.01'
p62
I10
ssg27
(dp63
S'salad.n.01'
p64
I1
ssg9
(dp65
S'onion.n.03'
p66
I1
sssb.