ccopy_reg
_reconstructor
p0
(cutils.eval
ConfusionMatrix
p1
c__builtin__
object
p2
Ntp3
Rp4
(dp5
S'labels'
p6
(lp7
S'pot.n.01'
p8
aS'pot.n.09'
p9
aS'add.v.01'
p10
aS'bean.n.01'
p11
aS'flour.n.01'
p12
aS'egg.n.02'
p13
aS'mixing_bowl.n.01'
p14
aS'rib.n.03'
p15
aS'dressing.n.01'
p16
aS'stuffing.n.01'
p17
aS'salad.n.01'
p18
aS'sauce.n.01'
p19
aS'cream.n.02'
p20
aS'vegetable.n.01'
p21
aS'ingredient.n.03'
p22
aS'butter.n.01'
p23
aS'sugar.n.01'
p24
aS'apple.n.01'
p25
aS'french_fries.n.01'
p26
aS'steak.n.01'
p27
asS'instanceCount'
p28
I28
sS'matrix'
p29
(dp30
g21
(dp31
S'vegetable.n.01'
p32
I1
ssg9
(dp33
g9
I0
ssg12
(dp34
S'flour.n.01'
p35
I1
ssg14
(dp36
S'mixing_bowl.n.01'
p37
I2
ssg15
(dp38
S'rib.n.03'
p39
I1
ssg13
(dp40
S'egg.n.02'
p41
I1
ssg23
(dp42
S'butter.n.01'
p43
I1
ssg8
(dp44
g9
I1
ssg22
(dp45
S'ingredient.n.03'
p46
I1
ssg16
(dp47
g17
I1
ssg17
(dp48
g17
I0
ssg27
(dp49
S'steak.n.01'
p50
I1
ssg20
(dp51
S'cream.n.02'
p52
I1
ssg26
(dp53
S'french_fries.n.01'
p54
I1
ssg11
(dp55
S'bean.n.01'
p56
I1
ssg25
(dp57
S'apple.n.01'
p58
I1
ssg10
(dp59
S'add.v.01'
p60
I10
ssg18
(dp61
S'salad.n.01'
p62
I1
ssg19
(dp63
S'sauce.n.01'
p64
I1
ssg24
(dp65
S'sugar.n.01'
p66
I1
sssb.