ccopy_reg
_reconstructor
p0
(cutils.eval
ConfusionMatrix
p1
c__builtin__
object
p2
Ntp3
Rp4
(dp5
S'labels'
p6
(lp7
S'add.v.01'
p8
aS'asparagus.n.02'
p9
aS'salad.n.01'
p10
aS'corn.n.03'
p11
aS'dish.n.02'
p12
aS'dish.n.01'
p13
aS'egg.n.02'
p14
aS'milk.n.01'
p15
aS'milk.n.04'
p16
aS'water.n.06'
p17
aS'water_system.n.02'
p18
aS'onion.n.03'
p19
aS'pan.n.03'
p20
aS'butter.n.01'
p21
aS'salt.n.02'
p22
aS'meat.n.01'
p23
aS'ingredient.n.03'
p24
aS'concoction.n.01'
p25
aS'cream.n.02'
p26
aS'cream.n.03'
p27
aS'vanilla.n.02'
p28
asS'instanceCount'
p29
I30
sS'matrix'
p30
(dp31
g22
(dp32
S'salt.n.02'
p33
I1
ssg11
(dp34
S'corn.n.03'
p35
I1
ssg28
(dp36
S'vanilla.n.02'
p37
I2
ssg10
(dp38
S'salad.n.01'
p39
I1
ssg21
(dp40
S'butter.n.01'
p41
I2
ssg20
(dp42
S'pan.n.03'
p43
I3
ssg18
(dp44
g18
I0
ssg17
(dp45
g18
I1
ssg24
(dp46
S'ingredient.n.03'
p47
I1
ssg9
(dp48
S'asparagus.n.02'
p49
I1
ssg27
(dp50
g27
I0
ssg26
(dp51
g27
I1
ssg12
(dp52
g13
I1
ssg13
(dp53
g13
I0
ssg14
(dp54
S'egg.n.02'
p55
I1
ssg16
(dp56
g16
I0
ssg25
(dp57
S'concoction.n.01'
p58
I1
ssg8
(dp59
S'add.v.01'
p60
I10
ssg15
(dp61
g16
I1
ssg19
(dp62
S'onion.n.03'
p63
I1
ssg23
(dp64
S'meat.n.01'
p65
I1
sssb.