ccopy_reg
_reconstructor
p0
(cutils.eval
ConfusionMatrix
p1
c__builtin__
object
p2
Ntp3
Rp4
(dp5
S'labels'
p6
(lp7
S'add.v.01'
p8
aS'apple.n.01'
p9
aS'french_fries.n.01'
p10
aS'steak.n.01'
p11
aS'asparagus.n.02'
p12
aS'salad.n.01'
p13
aS'corn.n.03'
p14
aS'dish.n.02'
p15
aS'dish.n.01'
p16
aS'egg.n.02'
p17
aS'milk.n.01'
p18
aS'milk.n.04'
p19
aS'water.n.06'
p20
aS'water_system.n.02'
p21
aS'onion.n.03'
p22
aS'pan.n.03'
p23
aS'butter.n.01'
p24
aS'salt.n.02'
p25
aS'meat.n.01'
p26
aS'kernel.n.01'
p27
aS'ingredient.n.03'
p28
aS'concoction.n.01'
p29
aS'cream.n.02'
p30
aS'cream.n.03'
p31
asS'instanceCount'
p32
I28
sS'matrix'
p33
(dp34
g27
(dp35
g27
I0
ssg14
(dp36
S'corn.n.03'
p37
I1
ssg15
(dp38
g16
I1
ssg16
(dp39
g16
I0
ssg19
(dp40
g19
I0
ssg9
(dp41
S'apple.n.01'
p42
I1
ssg8
(dp43
S'add.v.01'
p44
I10
ssg18
(dp45
g19
I1
ssg23
(dp46
S'pan.n.03'
p47
I1
ssg17
(dp48
S'egg.n.02'
p49
I1
ssg24
(dp50
S'butter.n.01'
p51
I1
ssg12
(dp52
S'asparagus.n.02'
p53
I1
ssg26
(dp54
g27
I1
ssg29
(dp55
S'concoction.n.01'
p56
I1
ssg25
(dp57
S'salt.n.02'
p58
I1
ssg30
(dp59
g31
I1
ssg28
(dp60
S'ingredient.n.03'
p61
I1
ssg31
(dp62
g31
I0
ssg11
(dp63
S'steak.n.01'
p64
I1
ssg21
(dp65
g21
I0
ssg20
(dp66
g21
I1
ssg10
(dp67
S'french_fries.n.01'
p68
I1
ssg13
(dp69
S'salad.n.01'
p70
I1
ssg22
(dp71
S'onion.n.03'
p72
I1
sssb.