ccopy_reg
_reconstructor
p0
(cutils.eval
ConfusionMatrix
p1
c__builtin__
object
p2
Ntp3
Rp4
(dp5
S'labels'
p6
(lp7
S'add.v.01'
p8
aS'salt.n.02'
p9
aS'meat.n.01'
p10
aS'ingredient.n.03'
p11
aS'concoction.n.01'
p12
aS'cream.n.02'
p13
aS'cream.n.03'
p14
aS'pan.n.03'
p15
aS'vanilla.n.02'
p16
aS'butter.n.01'
p17
aS'pot.n.01'
p18
aS'pot.n.09'
p19
aS'bean.n.01'
p20
aS'flour.n.01'
p21
aS'egg.n.02'
p22
aS'mixing_bowl.n.01'
p23
aS'rib.n.03'
p24
aS'dressing.n.01'
p25
aS'stuffing.n.01'
p26
aS'salad.n.01'
p27
aS'sauce.n.01'
p28
aS'vegetable.n.01'
p29
asS'instanceCount'
p30
I31
sS'matrix'
p31
(dp32
g23
(dp33
S'mixing_bowl.n.01'
p34
I1
ssg8
(dp35
S'add.v.01'
p36
I10
ssg15
(dp37
S'pan.n.03'
p38
I2
ssg19
(dp39
g19
I0
ssg21
(dp40
S'flour.n.01'
p41
I1
ssg22
(dp42
S'egg.n.02'
p43
I1
ssg17
(dp44
S'butter.n.01'
p45
I1
ssg18
(dp46
g19
I1
ssg10
(dp47
S'meat.n.01'
p48
I1
ssg16
(dp49
S'vanilla.n.02'
p50
I2
ssg20
(dp51
S'bean.n.01'
p52
I1
ssg12
(dp53
S'concoction.n.01'
p54
I1
ssg28
(dp55
S'sauce.n.01'
p56
I1
ssg9
(dp57
S'salt.n.02'
p58
I1
ssg24
(dp59
S'rib.n.03'
p60
I1
ssg13
(dp61
S'cream.n.02'
p62
I1
sg14
I1
ssg11
(dp63
S'ingredient.n.03'
p64
I1
ssg14
(dp65
g14
I0
ssg26
(dp66
g26
I0
ssg29
(dp67
S'vegetable.n.01'
p68
I1
ssg25
(dp69
g26
I1
ssg27
(dp70
S'salad.n.01'
p71
I1
sssb.