ccopy_reg
_reconstructor
p0
(cutils.eval
ConfusionMatrix
p1
c__builtin__
object
p2
Ntp3
Rp4
(dp5
S'labels'
p6
(lp7
S'sauce.n.01'
p8
aS'add.v.01'
p9
aS'cream.n.02'
p10
aS'vegetable.n.01'
p11
aS'ingredient.n.03'
p12
aS'mixing_bowl.n.01'
p13
aS'butter.n.01'
p14
aS'sugar.n.01'
p15
aS'apple.n.01'
p16
aS'french_fries.n.01'
p17
aS'steak.n.01'
p18
aS'asparagus.n.02'
p19
aS'salad.n.01'
p20
aS'corn.n.03'
p21
aS'dish.n.02'
p22
aS'dish.n.01'
p23
aS'egg.n.02'
p24
aS'milk.n.01'
p25
aS'milk.n.04'
p26
aS'water.n.06'
p27
aS'water_system.n.02'
p28
asS'instanceCount'
p29
I27
sS'matrix'
p30
(dp31
g27
(dp32
g28
I1
ssg11
(dp33
S'vegetable.n.01'
p34
I1
ssg23
(dp35
g23
I0
ssg13
(dp36
S'mixing_bowl.n.01'
p37
I1
ssg14
(dp38
S'butter.n.01'
p39
I1
ssg28
(dp40
g28
I0
ssg10
(dp41
S'cream.n.02'
p42
I1
ssg12
(dp43
S'ingredient.n.03'
p44
I1
ssg25
(dp45
g26
I1
ssg19
(dp46
S'asparagus.n.02'
p47
I1
ssg18
(dp48
S'steak.n.01'
p49
I1
ssg22
(dp50
g23
I1
ssg17
(dp51
S'french_fries.n.01'
p52
I1
ssg24
(dp53
S'egg.n.02'
p54
I1
ssg26
(dp55
g26
I0
ssg16
(dp56
S'apple.n.01'
p57
I1
ssg21
(dp58
S'corn.n.03'
p59
I1
ssg9
(dp60
S'add.v.01'
p61
I10
ssg20
(dp62
S'salad.n.01'
p63
I1
ssg8
(dp64
S'sauce.n.01'
p65
I1
ssg15
(dp66
S'sugar.n.01'
p67
I1
sssb.