ccopy_reg
_reconstructor
p0
(cutils.eval
ConfusionMatrix
p1
c__builtin__
object
p2
Ntp3
Rp4
(dp5
S'labels'
p6
(lp7
S'pan.n.03'
p8
aS'add.v.01'
p9
aS'vanilla.n.02'
p10
aS'butter.n.01'
p11
aS'pot.n.01'
p12
aS'pot.n.09'
p13
aS'bean.n.01'
p14
aS'flour.n.01'
p15
aS'egg.n.02'
p16
aS'mixing_bowl.n.01'
p17
aS'rib.n.03'
p18
aS'dressing.n.01'
p19
aS'stuffing.n.01'
p20
aS'salad.n.01'
p21
aS'sauce.n.01'
p22
aS'cream.n.02'
p23
aS'vegetable.n.01'
p24
aS'ingredient.n.03'
p25
aS'sugar.n.01'
p26
asS'instanceCount'
p27
I30
sS'matrix'
p28
(dp29
g8
(dp30
S'pan.n.03'
p31
I2
ssg13
(dp32
g13
I0
ssg15
(dp33
S'flour.n.01'
p34
I1
ssg17
(dp35
S'mixing_bowl.n.01'
p36
I2
ssg18
(dp37
S'rib.n.03'
p38
I1
ssg16
(dp39
S'egg.n.02'
p40
I1
ssg11
(dp41
S'butter.n.01'
p42
I2
ssg12
(dp43
g13
I1
ssg24
(dp44
S'vegetable.n.01'
p45
I1
ssg19
(dp46
g20
I1
ssg20
(dp47
g20
I0
ssg23
(dp48
S'cream.n.02'
p49
I1
ssg25
(dp50
S'ingredient.n.03'
p51
I1
ssg10
(dp52
S'vanilla.n.02'
p53
I2
ssg14
(dp54
S'bean.n.01'
p55
I1
ssg9
(dp56
S'add.v.01'
p57
I10
ssg21
(dp58
S'salad.n.01'
p59
I1
ssg22
(dp60
S'sauce.n.01'
p61
I1
ssg26
(dp62
S'sugar.n.01'
p63
I1
sssb.