ccopy_reg
_reconstructor
p0
(cutils.eval
ConfusionMatrix
p1
c__builtin__
object
p2
Ntp3
Rp4
(dp5
S'labels'
p6
(lp7
S'add.v.01'
p8
aS'egg.n.02'
p9
aS'milk.n.01'
p10
aS'milk.n.04'
p11
aS'water.n.06'
p12
aS'onion.n.03'
p13
aS'pan.n.03'
p14
aS'butter.n.01'
p15
aS'salt.n.02'
p16
aS'meat.n.01'
p17
aS'ingredient.n.03'
p18
aS'concoction.n.01'
p19
aS'cream.n.02'
p20
aS'vanilla.n.02'
p21
aS'pot.n.01'
p22
aS'pot.n.09'
p23
aS'bean.n.01'
p24
aS'flour.n.01'
p25
aS'mixing_bowl.n.01'
p26
asS'instanceCount'
p27
I31
sS'matrix'
p28
(dp29
g16
(dp30
S'salt.n.02'
p31
I1
ssg14
(dp32
S'pan.n.03'
p33
I3
ssg23
(dp34
g23
I0
ssg25
(dp35
S'flour.n.01'
p36
I1
ssg26
(dp37
S'mixing_bowl.n.01'
p38
I1
ssg9
(dp39
S'egg.n.02'
p40
I2
ssg15
(dp41
S'butter.n.01'
p42
I2
ssg20
(dp43
S'cream.n.02'
p44
I1
ssg12
(dp45
S'water.n.06'
p46
I1
ssg22
(dp47
g23
I1
ssg18
(dp48
S'ingredient.n.03'
p49
I1
ssg24
(dp50
S'bean.n.01'
p51
I1
ssg17
(dp52
S'meat.n.01'
p53
I1
ssg21
(dp54
S'vanilla.n.02'
p55
I2
ssg11
(dp56
g11
I0
ssg19
(dp57
S'concoction.n.01'
p58
I1
ssg8
(dp59
S'add.v.01'
p60
I10
ssg10
(dp61
g11
I1
ssg13
(dp62
S'onion.n.03'
p63
I1
sssb.