ccopy_reg
_reconstructor
p0
(cutils.eval
ConfusionMatrix
p1
c__builtin__
object
p2
Ntp3
Rp4
(dp5
S'labels'
p6
(lp7
S'fill.v.01'
p8
aS'pitcher.n.02'
p9
aS'milk.n.01'
p10
aS'kettle.n.01'
p11
aS'water.n.06'
p12
aS'foam.n.01'
p13
aS'mug.n.04'
p14
aS'pan.n.01'
p15
aS'pan.n.03'
p16
aS'opening.n.01'
p17
aS'gap.n.03'
p18
aS'fill.v.09'
p19
aS'batter.n.02'
p20
asS'instanceCount'
p21
I15
sS'matrix'
p22
(dp23
g15
(dp24
g15
I0
sg16
I1
sS'water.n.06'
p25
I0
sS'fill.v.01'
p26
I0
ssg14
(dp27
g14
I1
sg13
I0
sS'fill.v.01'
p28
I0
ssg16
(dp29
g15
I0
sg16
I0
sg25
I0
sg26
I0
ssg18
(dp30
g20
I0
sS'fill.v.01'
p31
I0
sg19
I0
sg18
I0
sg17
I0
ssg19
(dp32
g20
I0
sg31
I1
sg17
I0
sg18
I0
sg19
I0
ssg12
(dp33
g15
I0
sg16
I0
sg11
I0
sg12
I2
sS'fill.v.01'
p34
I0
ssg8
(dp35
g15
I0
sg14
I0
sg16
I0
sg18
I0
sg19
I0
sg12
I0
sg8
I4
sg9
I0
sg11
I0
sg20
I0
sg13
I0
sg10
I0
sg17
I0
ssg9
(dp36
g9
I1
sg10
I0
sg8
I0
ssg11
(dp37
g11
I1
sg12
I0
sg34
I0
ssg20
(dp38
g18
I0
sg31
I0
sg19
I0
sg20
I1
sg17
I0
ssg13
(dp39
g14
I0
sg13
I1
sg28
I0
ssg10
(dp40
g9
I0
sg10
I1
sg8
I0
ssg17
(dp41
g20
I0
sg31
I0
sg19
I0
sg18
I1
sg17
I0
sssb.