ccopy_reg
_reconstructor
p0
(cutils.eval
ConfusionMatrix
p1
c__builtin__
object
p2
Ntp3
Rp4
(dp5
S'labels'
p6
(lp7
S'cut.v.01'
p8
aS'tomato.n.01'
p9
aS'knife.n.01'
p10
aS'piece.n.08'
p11
aS'slice.n.06'
p12
aS'potato.n.01'
p13
aS'flesh.n.01'
p14
aS'pulp.n.02'
p15
aS'olive.n.01'
p16
aS'olive.n.04'
p17
aS'pizza.n.01'
p18
aS'fork.n.01'
p19
aS'fork.n.04'
p20
aS'cake.n.03'
p21
aS'cheese.n.01'
p22
aS'vegetable.n.01'
p23
aS'bread.n.01'
p24
aS'meat.n.01'
p25
aS'cleaver.n.01'
p26
aS'lemon.n.01'
p27
aS'egg.n.02'
p28
aS'zucchini.n.01'
p29
aS'zucchini.n.02'
p30
aS'green_onion.n.01'
p31
asS'instanceCount'
p32
I37
sS'matrix'
p33
(dp34
g22
(dp35
S'cheese.n.01'
p36
I1
ssg24
(dp37
S'bread.n.01'
p38
I1
ssg30
(dp39
g30
I0
ssg29
(dp40
g30
I1
ssg31
(dp41
S'green_onion.n.01'
p42
I1
ssg8
(dp43
S'cut.v.01'
p44
I14
ssg28
(dp45
S'egg.n.02'
p46
I1
ssg9
(dp47
S'tomato.n.01'
p48
I1
ssg25
(dp49
S'meat.n.01'
p50
I1
ssg13
(dp51
S'potato.n.01'
p52
I1
ssg26
(dp53
S'cleaver.n.01'
p54
I1
ssg16
(dp55
g17
I1
ssg10
(dp56
S'knife.n.01'
p57
I4
ssg17
(dp58
g17
I0
ssg20
(dp59
g20
I0
ssg19
(dp60
g20
I1
ssg11
(dp61
g12
I3
ssg23
(dp62
S'vegetable.n.01'
p63
I1
ssg14
(dp64
g15
I1
ssg12
(dp65
g12
I0
ssg18
(dp66
S'pizza.n.01'
p67
I1
ssg21
(dp68
S'cake.n.03'
p69
I1
ssg27
(dp70
S'lemon.n.01'
p71
I1
ssg15
(dp72
g15
I0
sssb.