ccopy_reg
_reconstructor
p0
(cutils.eval
ConfusionMatrix
p1
c__builtin__
object
p2
Ntp3
Rp4
(dp5
S'labels'
p6
(lp7
S'zucchini.n.01'
p8
aS'zucchini.n.02'
p9
aS'cut.v.01'
p10
aS'knife.n.01'
p11
aS'green_onion.n.01'
p12
aS'piece.n.08'
p13
aS'slice.n.06'
p14
aS'orange.n.01'
p15
aS'lemon.n.01'
p16
aS'mushroom.n.05'
p17
aS'cabbage.n.01'
p18
aS'banana.n.02'
p19
aS'bacon.n.01'
p20
aS'tomato.n.01'
p21
aS'potato.n.01'
p22
aS'flesh.n.01'
p23
aS'human_body.n.01'
p24
aS'olive.n.01'
p25
aS'olive.n.04'
p26
aS'pizza.n.01'
p27
aS'fork.n.01'
p28
aS'fork.n.04'
p29
aS'cake.n.03'
p30
asS'instanceCount'
p31
I35
sS'matrix'
p32
(dp33
g17
(dp34
S'mushroom.n.05'
p35
I1
ssg15
(dp36
S'orange.n.01'
p37
I1
ssg9
(dp38
g9
I0
ssg8
(dp39
g9
I1
ssg18
(dp40
S'cabbage.n.01'
p41
I1
ssg12
(dp42
S'green_onion.n.01'
p43
I1
ssg10
(dp44
S'cut.v.01'
p45
I14
ssg21
(dp46
S'tomato.n.01'
p47
I1
ssg20
(dp48
S'bacon.n.01'
p49
I1
ssg22
(dp50
S'potato.n.01'
p51
I1
ssg25
(dp52
g26
I1
ssg11
(dp53
S'knife.n.01'
p54
I3
ssg19
(dp55
S'banana.n.02'
p56
I1
ssg26
(dp57
g26
I0
ssg29
(dp58
g29
I0
ssg28
(dp59
g29
I1
ssg24
(dp60
g24
I0
ssg13
(dp61
g14
I3
ssg23
(dp62
g24
I1
ssg14
(dp63
g14
I0
ssg27
(dp64
S'pizza.n.01'
p65
I1
ssg30
(dp66
S'cake.n.03'
p67
I1
ssg16
(dp68
S'lemon.n.01'
p69
I1
sssb.