ccopy_reg
_reconstructor
p0
(cutils.eval
ConfusionMatrix
p1
c__builtin__
object
p2
Ntp3
Rp4
(dp5
S'labels'
p6
(lp7
S'piece.n.08'
p8
aS'slice.n.06'
p9
aS'cut.v.01'
p10
aS'orange.n.01'
p11
aS'lemon.n.01'
p12
aS'mushroom.n.05'
p13
aS'cabbage.n.01'
p14
aS'knife.n.01'
p15
aS'banana.n.02'
p16
aS'bacon.n.01'
p17
aS'tomato.n.01'
p18
aS'potato.n.01'
p19
aS'flesh.n.01'
p20
aS'human_body.n.01'
p21
aS'olive.n.01'
p22
aS'olive.n.04'
p23
aS'pizza.n.01'
p24
aS'fork.n.01'
p25
aS'fork.n.04'
p26
aS'cake.n.03'
p27
aS'cheese.n.01'
p28
aS'vegetable.n.01'
p29
asS'instanceCount'
p30
I35
sS'matrix'
p31
(dp32
g13
(dp33
S'mushroom.n.05'
p34
I1
ssg28
(dp35
S'cheese.n.01'
p36
I1
ssg11
(dp37
S'orange.n.01'
p38
I1
ssg15
(dp39
S'knife.n.01'
p40
I3
ssg10
(dp41
S'cut.v.01'
p42
I14
ssg18
(dp43
S'tomato.n.01'
p44
I1
ssg17
(dp45
S'bacon.n.01'
p46
I1
ssg19
(dp47
S'potato.n.01'
p48
I1
ssg22
(dp49
g23
I1
ssg14
(dp50
S'cabbage.n.01'
p51
I1
ssg16
(dp52
S'banana.n.02'
p53
I1
ssg23
(dp54
g23
I0
ssg26
(dp55
g26
I0
ssg25
(dp56
g26
I1
ssg21
(dp57
g21
I0
ssg8
(dp58
g9
I3
ssg29
(dp59
S'vegetable.n.01'
p60
I1
ssg20
(dp61
g21
I1
ssg9
(dp62
g9
I0
ssg24
(dp63
S'pizza.n.01'
p64
I1
ssg27
(dp65
S'cake.n.03'
p66
I1
ssg12
(dp67
S'lemon.n.01'
p68
I1
sssb.