ccopy_reg
_reconstructor
p0
(cutils.eval
ConfusionMatrix
p1
c__builtin__
object
p2
Ntp3
Rp4
(dp5
S'labels'
p6
(lp7
S'cut.v.01'
p8
aS'bread.n.01'
p9
aS'knife.n.01'
p10
aS'meat.n.01'
p11
aS'cleaver.n.01'
p12
aS'lemon.n.01'
p13
aS'egg.n.02'
p14
aS'piece.n.08'
p15
aS'slice.n.06'
p16
aS'zucchini.n.01'
p17
aS'zucchini.n.02'
p18
aS'green_onion.n.01'
p19
aS'orange.n.01'
p20
aS'mushroom.n.05'
p21
aS'cabbage.n.01'
p22
aS'banana.n.02'
p23
aS'bacon.n.01'
p24
aS'tomato.n.01'
p25
aS'potato.n.01'
p26
asS'instanceCount'
p27
I36
sS'matrix'
p28
(dp29
g21
(dp30
S'mushroom.n.05'
p31
I1
ssg8
(dp32
S'cut.v.01'
p33
I14
ssg10
(dp34
S'knife.n.01'
p35
I4
ssg23
(dp36
S'banana.n.02'
p37
I1
ssg14
(dp38
S'egg.n.02'
p39
I1
ssg25
(dp40
S'tomato.n.01'
p41
I1
ssg26
(dp42
S'potato.n.01'
p43
I1
ssg16
(dp44
g16
I0
ssg24
(dp45
S'bacon.n.01'
p46
I1
ssg9
(dp47
S'bread.n.01'
p48
I1
ssg20
(dp49
S'orange.n.01'
p50
I1
ssg18
(dp51
g18
I0
ssg12
(dp52
S'cleaver.n.01'
p53
I1
ssg13
(dp54
S'lemon.n.01'
p55
I2
ssg17
(dp56
g18
I1
ssg22
(dp57
S'cabbage.n.01'
p58
I1
ssg15
(dp59
g16
I3
ssg19
(dp60
S'green_onion.n.01'
p61
I1
ssg11
(dp62
S'meat.n.01'
p63
I1
sssb.