ccopy_reg
_reconstructor
p0
(cutils.eval
ConfusionMatrix
p1
c__builtin__
object
p2
Ntp3
Rp4
(dp5
S'labels'
p6
(lp7
S'cut.v.01'
p8
aS'knife.n.01'
p9
aS'banana.n.02'
p10
aS'bacon.n.01'
p11
aS'tomato.n.01'
p12
aS'piece.n.08'
p13
aS'slice.n.06'
p14
aS'potato.n.01'
p15
aS'flesh.n.01'
p16
aS'human_body.n.01'
p17
aS'olive.n.01'
p18
aS'olive.n.04'
p19
aS'pizza.n.01'
p20
aS'fork.n.01'
p21
aS'fork.n.04'
p22
aS'cake.n.03'
p23
aS'cheese.n.01'
p24
aS'vegetable.n.01'
p25
aS'bread.n.01'
p26
aS'meat.n.01'
p27
aS'cleaver.n.01'
p28
aS'lemon.n.01'
p29
aS'egg.n.02'
p30
asS'instanceCount'
p31
I37
sS'matrix'
p32
(dp33
g24
(dp34
S'cheese.n.01'
p35
I1
ssg26
(dp36
S'bread.n.01'
p37
I1
ssg8
(dp38
S'cut.v.01'
p39
I14
ssg30
(dp40
S'egg.n.02'
p41
I1
ssg12
(dp42
S'tomato.n.01'
p43
I1
ssg11
(dp44
S'bacon.n.01'
p45
I1
ssg28
(dp46
S'cleaver.n.01'
p47
I1
ssg15
(dp48
S'potato.n.01'
p49
I1
ssg27
(dp50
S'meat.n.01'
p51
I1
ssg18
(dp52
g19
I1
ssg9
(dp53
S'knife.n.01'
p54
I4
ssg10
(dp55
S'banana.n.02'
p56
I1
ssg19
(dp57
g19
I0
ssg22
(dp58
g22
I0
ssg21
(dp59
g22
I1
ssg17
(dp60
g17
I0
ssg13
(dp61
g14
I3
ssg25
(dp62
S'vegetable.n.01'
p63
I1
ssg16
(dp64
g17
I1
ssg14
(dp65
g14
I0
ssg20
(dp66
S'pizza.n.01'
p67
I1
ssg23
(dp68
S'cake.n.03'
p69
I1
ssg29
(dp70
S'lemon.n.01'
p71
I1
sssb.