ccopy_reg
_reconstructor
p0
(cutils.eval
ConfusionMatrix
p1
c__builtin__
object
p2
Ntp3
Rp4
(dp5
S'labels'
p6
(lp7
S'cut.v.01'
p8
aS'flesh.n.01'
p9
aS'pulp.n.02'
p10
aS'olive.n.01'
p11
aS'olive.n.04'
p12
aS'piece.n.08'
p13
aS'pizza.n.01'
p14
aS'fork.n.01'
p15
aS'fork.n.04'
p16
aS'cake.n.03'
p17
aS'cheese.n.01'
p18
aS'vegetable.n.01'
p19
aS'knife.n.01'
p20
aS'bread.n.01'
p21
aS'meat.n.01'
p22
aS'cleaver.n.01'
p23
aS'lemon.n.01'
p24
aS'egg.n.02'
p25
aS'zucchini.n.01'
p26
aS'zucchini.n.02'
p27
aS'green_onion.n.01'
p28
aS'slice.n.06'
p29
aS'orange.n.01'
p30
asS'instanceCount'
p31
I36
sS'matrix'
p32
(dp33
g18
(dp34
S'cheese.n.01'
p35
I1
ssg21
(dp36
S'bread.n.01'
p37
I1
ssg30
(dp38
S'orange.n.01'
p39
I1
ssg27
(dp40
g27
I0
ssg26
(dp41
g27
I1
ssg28
(dp42
S'green_onion.n.01'
p43
I1
ssg8
(dp44
S'cut.v.01'
p45
I14
ssg25
(dp46
S'egg.n.02'
p47
I1
ssg22
(dp48
S'meat.n.01'
p49
I1
ssg23
(dp50
S'cleaver.n.01'
p51
I1
ssg11
(dp52
g12
I1
ssg20
(dp53
S'knife.n.01'
p54
I3
ssg12
(dp55
g12
I0
ssg16
(dp56
g16
I0
ssg15
(dp57
g16
I1
ssg13
(dp58
S'piece.n.08'
p59
I2
sg29
I1
ssg19
(dp60
S'vegetable.n.01'
p61
I1
ssg9
(dp62
g10
I1
ssg29
(dp63
g29
I0
ssg14
(dp64
S'pizza.n.01'
p65
I1
ssg17
(dp66
S'cake.n.03'
p67
I1
ssg24
(dp68
S'lemon.n.01'
p69
I2
ssg10
(dp70
g10
I0
sssb.