ccopy_reg
_reconstructor
p0
(cutils.eval
ConfusionMatrix
p1
c__builtin__
object
p2
Ntp3
Rp4
(dp5
S'labels'
p6
(lp7
S'zucchini.n.01'
p8
aS'zucchini.n.02'
p9
aS'cut.v.01'
p10
aS'knife.n.01'
p11
aS'green_onion.n.01'
p12
aS'piece.n.08'
p13
aS'slice.n.06'
p14
aS'orange.n.01'
p15
aS'lemon.n.01'
p16
aS'mushroom.n.05'
p17
aS'cabbage.n.01'
p18
aS'banana.n.02'
p19
aS'bacon.n.01'
p20
aS'tomato.n.01'
p21
aS'potato.n.01'
p22
aS'flesh.n.01'
p23
aS'human_body.n.01'
p24
aS'olive.n.01'
p25
aS'olive.n.04'
p26
aS'pizza.n.01'
p27
aS'fork.n.01'
p28
aS'fork.n.04'
p29
aS'cake.n.03'
p30
aS'cheese.n.01'
p31
aS'vegetable.n.01'
p32
aS'pulp.n.02'
p33
aS'bread.n.01'
p34
aS'meat.n.01'
p35
aS'cleaver.n.01'
p36
aS'egg.n.02'
p37
aS'bacon.n.02'
p38
asS'instanceCount'
p39
I357
sS'matrix'
p40
(dp41
g17
(dp42
g17
I7
sg31
I0
sS'bread.n.01'
p43
I0
sg15
I0
sg9
I0
sg8
I0
sg18
I0
sg12
I0
sg10
I0
sS'egg.n.02'
p44
I0
sg21
I0
sg38
I0
sg20
I0
sS'meat.n.01'
p45
I0
sg22
I0
sS'cleaver.n.01'
p46
I0
sg25
I0
sg11
I0
sg19
I0
sg26
I0
sg29
I0
sg28
I0
sg24
I0
sg13
I0
sg32
I0
sg23
I0
sg14
I0
sg27
I0
sg30
I0
sg16
I0
sS'pulp.n.02'
p47
I0
ssg31
(dp48
S'mushroom.n.05'
p49
I0
sg31
I7
sg34
I0
sS'orange.n.01'
p50
I0
sS'zucchini.n.02'
p51
I0
sS'zucchini.n.01'
p52
I0
sS'knife.n.01'
p53
I0
sS'green_onion.n.01'
p54
I0
sS'cut.v.01'
p55
I0
sg37
I0
sS'tomato.n.01'
p56
I0
sg38
I0
sS'bacon.n.01'
p57
I0
sg35
I0
sS'potato.n.01'
p58
I0
sg36
I0
sS'olive.n.01'
p59
I0
sS'cabbage.n.01'
p60
I0
sS'banana.n.02'
p61
I0
sS'olive.n.04'
p62
I0
sS'fork.n.04'
p63
I0
sS'fork.n.01'
p64
I0
sS'human_body.n.01'
p65
I0
sS'piece.n.08'
p66
I0
sg32
I0
sS'flesh.n.01'
p67
I0
sS'slice.n.06'
p68
I0
sS'pizza.n.01'
p69
I0
sS'cake.n.03'
p70
I0
sS'lemon.n.01'
p71
I0
sg33
I0
ssg34
(dp72
S'mushroom.n.05'
p73
I0
sS'cheese.n.01'
p74
I0
sg34
I7
sS'orange.n.01'
p75
I0
sg51
I0
sg52
I0
sS'cabbage.n.01'
p76
I0
sg54
I0
sS'cut.v.01'
p77
I0
sg37
I0
sS'tomato.n.01'
p78
I0
sg38
I0
sS'bacon.n.01'
p79
I0
sg35
I0
sS'potato.n.01'
p80
I0
sg36
I0
sS'olive.n.01'
p81
I0
sS'knife.n.01'
p82
I0
sS'banana.n.02'
p83
I0
sS'olive.n.04'
p84
I0
sS'fork.n.04'
p85
I0
sS'fork.n.01'
p86
I0
sS'human_body.n.01'
p87
I0
sS'piece.n.08'
p88
I0
sS'vegetable.n.01'
p89
I0
sS'flesh.n.01'
p90
I0
sS'slice.n.06'
p91
I0
sS'pizza.n.01'
p92
I0
sS'cake.n.03'
p93
I0
sS'lemon.n.01'
p94
I0
sg33
I0
ssg15
(dp95
g17
I0
sg31
I0
sS'bread.n.01'
p96
I0
sg15
I7
sg9
I0
sg8
I0
sg18
I0
sg12
I0
sg10
I0
sg44
I0
sg21
I0
sg38
I0
sg20
I0
sS'meat.n.01'
p97
I0
sg22
I0
sS'cleaver.n.01'
p98
I0
sg25
I0
sg11
I0
sg19
I0
sg26
I0
sg29
I0
sg28
I0
sg24
I0
sg13
I0
sg32
I0
sg23
I0
sg14
I0
sg27
I0
sg30
I0
sg16
I0
sS'pulp.n.02'
p99
I0
ssg9
(dp100
g17
I0
sg74
I0
sg34
I0
sg15
I0
sg9
I0
sg8
I0
sg18
I0
sg12
I0
sg10
I0
sg37
I0
sg21
I0
sg38
I0
sg20
I0
sg35
I0
sg22
I0
sg36
I0
sg25
I0
sg11
I0
sg19
I0
sg26
I0
sg29
I0
sg28
I0
sg24
I0
sg13
I0
sg89
I0
sg23
I0
sg14
I0
sg27
I0
sg30
I0
sg16
I0
sg33
I0
ssg8
(dp101
g17
I0
sg74
I0
sg34
I0
sg15
I0
sg9
I7
sg8
I0
sg18
I0
sg12
I0
sg10
I0
sg37
I0
sg21
I0
sg38
I0
sg20
I0
sg35
I0
sg22
I0
sg36
I0
sg25
I0
sg11
I0
sg19
I0
sg26
I0
sg29
I0
sg28
I0
sg24
I0
sg13
I0
sg89
I0
sg23
I0
sg14
I0
sg27
I0
sg30
I0
sg16
I0
sg33
I0
ssg18
(dp102
g17
I0
sg31
I0
sg43
I0
sg15
I0
sg9
I0
sg8
I0
sg18
I7
sg12
I0
sg10
I0
sg44
I0
sg21
I0
sg38
I0
sg20
I0
sg45
I0
sg22
I0
sg46
I0
sg25
I0
sg11
I0
sg19
I0
sg26
I0
sg29
I0
sg28
I0
sg24
I0
sg13
I0
sg32
I0
sg23
I0
sg14
I0
sg27
I0
sg30
I0
sg16
I0
sg47
I0
ssg12
(dp103
g17
I0
sg74
I0
sg34
I0
sg15
I0
sg9
I0
sg8
I0
sg18
I0
sg12
I7
sg10
I0
sg37
I0
sg21
I0
sg38
I0
sg20
I0
sg35
I0
sg22
I0
sg36
I0
sg25
I0
sg11
I0
sg19
I0
sg26
I0
sg29
I0
sg28
I0
sg24
I0
sg13
I0
sg89
I0
sg23
I0
sg14
I0
sg27
I0
sg30
I0
sg16
I0
sg33
I0
ssg10
(dp104
g17
I0
sg31
I0
sg34
I0
sg15
I0
sg9
I0
sg8
I0
sg18
I0
sg12
I0
sg10
I140
sg37
I0
sg21
I0
sg38
I0
sg20
I0
sg35
I0
sg22
I0
sg36
I0
sg25
I0
sg11
I0
sg19
I0
sg26
I0
sg29
I0
sg28
I0
sg24
I0
sg13
I0
sg32
I0
sg23
I0
sg14
I0
sg27
I0
sg30
I0
sg16
I0
sg33
I0
ssg37
(dp105
S'mushroom.n.05'
p106
I0
sg74
I0
sg34
I0
sS'orange.n.01'
p107
I0
sg51
I0
sg52
I0
sS'cabbage.n.01'
p108
I0
sg54
I0
sg77
I0
sg37
I7
sg78
I0
sg38
I0
sS'bacon.n.01'
p109
I0
sg35
I0
sg80
I0
sg36
I0
sg81
I0
sg82
I0
sS'banana.n.02'
p110
I0
sg84
I0
sg85
I0
sg86
I0
sS'human_body.n.01'
p111
I0
sg88
I0
sg89
I0
sg90
I0
sg91
I0
sg92
I0
sg93
I0
sg94
I0
sg33
I0
ssg21
(dp112
g17
I0
sg31
I0
sg34
I0
sg15
I0
sg9
I0
sg8
I0
sg18
I0
sg12
I0
sg10
I0
sg37
I0
sg21
I7
sg20
I0
sg35
I0
sg22
I0
sg36
I0
sg25
I0
sg11
I0
sg19
I0
sg26
I0
sg29
I0
sg28
I0
sg24
I0
sg13
I0
sg32
I0
sg23
I0
sg14
I0
sg27
I0
sg30
I0
sg16
I0
sg33
I0
ssg38
(dp113
S'mushroom.n.05'
p114
I0
sS'cheese.n.01'
p115
I0
sS'vegetable.n.01'
p116
I0
sS'cut.v.01'
p117
I0
sS'knife.n.01'
p118
I0
sS'banana.n.02'
p119
I0
sS'egg.n.02'
p120
I0
sS'slice.n.06'
p121
I0
sg38
I0
sS'bacon.n.01'
p122
I0
sS'bread.n.01'
p123
I0
sS'orange.n.01'
p124
I0
sS'zucchini.n.02'
p125
I0
sS'meat.n.01'
p126
I0
sS'lemon.n.01'
p127
I0
sS'zucchini.n.01'
p128
I0
sS'cabbage.n.01'
p129
I0
sS'piece.n.08'
p130
I0
sS'green_onion.n.01'
p131
I0
sS'cleaver.n.01'
p132
I0
ssg20
(dp133
g17
I0
sg31
I0
sS'bread.n.01'
p134
I0
sg15
I0
sg9
I0
sg8
I0
sg18
I0
sg12
I0
sg10
I0
sg44
I0
sg21
I0
sg38
I1
sg20
I6
sS'meat.n.01'
p135
I0
sg22
I0
sS'cleaver.n.01'
p136
I0
sg25
I0
sg11
I0
sg19
I0
sg26
I0
sg29
I0
sg28
I0
sg24
I0
sg13
I0
sg32
I0
sg23
I0
sg14
I0
sg27
I0
sg30
I0
sg16
I0
sg47
I0
ssg35
(dp137
g73
I0
sg74
I0
sg34
I0
sg75
I0
sg51
I0
sg52
I0
sg76
I0
sg54
I0
sg77
I0
sg37
I0
sg78
I0
sg38
I0
sg79
I0
sg35
I7
sg80
I0
sg36
I0
sg81
I0
sg82
I0
sg83
I0
sg84
I0
sg85
I0
sg86
I0
sg87
I0
sg88
I0
sg89
I0
sg90
I0
sg91
I0
sg92
I0
sg93
I0
sg94
I0
sg33
I0
ssg22
(dp138
g17
I0
sg31
I0
sg34
I0
sg15
I0
sg9
I0
sg8
I0
sg18
I0
sg12
I0
sg10
I0
sg37
I0
sg21
I0
sg20
I0
sg35
I0
sg22
I7
sg36
I0
sg25
I0
sg11
I0
sg19
I0
sg26
I0
sg29
I0
sg28
I0
sg24
I0
sg13
I0
sg32
I0
sg23
I0
sg14
I0
sg27
I0
sg30
I0
sg16
I0
sg33
I0
ssg36
(dp139
g73
I0
sg74
I0
sg34
I0
sg75
I0
sg51
I0
sg52
I0
sg76
I0
sg54
I0
sg77
I0
sg37
I0
sg78
I0
sg38
I0
sg79
I0
sg36
I7
sg80
I0
sg35
I0
sg81
I0
sg82
I0
sg83
I0
sg84
I0
sg85
I0
sg86
I0
sg87
I0
sg88
I0
sg89
I0
sg90
I0
sg91
I0
sg92
I0
sg93
I0
sg94
I0
sg33
I0
ssg25
(dp140
g17
I0
sg31
I0
sg34
I0
sg15
I0
sg9
I0
sg8
I0
sg18
I0
sg12
I0
sg10
I0
sg37
I0
sg21
I0
sg20
I0
sg35
I0
sg22
I0
sg36
I0
sg25
I0
sg11
I0
sg19
I0
sg26
I7
sg29
I0
sg28
I0
sg24
I0
sg13
I0
sg32
I0
sg23
I0
sg14
I0
sg27
I0
sg30
I0
sg16
I0
sg33
I0
ssg11
(dp141
g17
I0
sg31
I0
sg34
I0
sg15
I0
sg9
I0
sg8
I0
sg18
I0
sg12
I0
sg10
I0
sg37
I0
sg21
I0
sg38
I0
sg20
I0
sg35
I0
sg22
I0
sg36
I0
sg25
I0
sg11
I35
sg19
I0
sg26
I0
sg29
I0
sg28
I0
sg24
I0
sg13
I0
sg32
I0
sg23
I0
sg14
I0
sg27
I0
sg30
I0
sg16
I0
sg33
I0
ssg19
(dp142
g17
I0
sg31
I0
sg134
I0
sg15
I0
sg9
I0
sg8
I0
sg18
I0
sg12
I0
sg10
I0
sg44
I0
sg21
I0
sg38
I0
sg20
I0
sg135
I0
sg22
I0
sg136
I0
sg25
I0
sg11
I0
sg19
I7
sg26
I0
sg29
I0
sg28
I0
sg24
I0
sg13
I0
sg32
I0
sg23
I0
sg14
I0
sg27
I0
sg30
I0
sg16
I0
sg47
I0
ssg26
(dp143
g17
I0
sg31
I0
sg34
I0
sg15
I0
sg9
I0
sg8
I0
sg18
I0
sg12
I0
sg10
I0
sg37
I0
sg21
I0
sg20
I0
sg35
I0
sg22
I0
sg36
I0
sg25
I0
sg11
I0
sg19
I0
sg26
I0
sg29
I0
sg28
I0
sg24
I0
sg13
I0
sg32
I0
sg23
I0
sg14
I0
sg27
I0
sg30
I0
sg16
I0
sg33
I0
ssg29
(dp144
g17
I0
sg31
I0
sg34
I0
sg15
I0
sg9
I0
sg8
I0
sg18
I0
sg12
I0
sg10
I0
sg37
I0
sg21
I0
sg20
I0
sg35
I0
sg22
I0
sg36
I0
sg25
I0
sg11
I0
sg19
I0
sg26
I0
sg29
I0
sg28
I0
sg24
I0
sg13
I0
sg32
I0
sg23
I0
sg14
I0
sg27
I0
sg30
I0
sg16
I0
sg33
I0
ssg28
(dp145
g17
I0
sg31
I0
sg34
I0
sg15
I0
sg9
I0
sg8
I0
sg18
I0
sg12
I0
sg10
I0
sg37
I0
sg21
I0
sg20
I0
sg35
I0
sg22
I0
sg36
I0
sg25
I0
sg11
I0
sg19
I0
sg26
I0
sg29
I7
sg28
I0
sg24
I0
sg13
I0
sg32
I0
sg23
I0
sg14
I0
sg27
I0
sg30
I0
sg16
I0
sg33
I0
ssg24
(dp146
g17
I0
sg31
I0
sg134
I0
sg15
I0
sg9
I0
sg8
I0
sg18
I0
sg12
I0
sg10
I0
sg44
I0
sg21
I0
sg20
I0
sg135
I0
sg22
I0
sg136
I0
sg25
I0
sg11
I0
sg19
I0
sg26
I0
sg29
I0
sg28
I0
sg24
I0
sg13
I0
sg32
I0
sg23
I0
sg14
I0
sg27
I0
sg30
I0
sg16
I0
ssg13
(dp147
g17
I0
sg31
I0
sg34
I0
sg15
I0
sg9
I0
sg8
I0
sg18
I0
sg12
I0
sg10
I0
sg37
I0
sg21
I0
sg38
I0
sg20
I0
sg35
I0
sg22
I0
sg36
I0
sg25
I0
sg11
I0
sg19
I0
sg26
I0
sg29
I0
sg28
I0
sg24
I0
sg13
I4
sg32
I0
sg23
I0
sg14
I24
sg27
I0
sg30
I0
sg16
I0
sg33
I0
ssg32
(dp148
g49
I0
sg31
I0
sg34
I0
sg50
I0
sg51
I0
sg52
I0
sg53
I0
sg54
I0
sg55
I0
sg37
I0
sg56
I0
sg38
I0
sg57
I0
sg35
I0
sg58
I0
sg36
I0
sg59
I0
sg60
I0
sg61
I0
sg62
I0
sg63
I0
sg64
I0
sg65
I0
sg66
I0
sg32
I7
sg67
I0
sg68
I0
sg69
I0
sg70
I0
sg71
I0
sg33
I0
ssg23
(dp149
g17
I0
sg31
I0
sg34
I0
sg15
I0
sg9
I0
sg8
I0
sg18
I0
sg12
I0
sg10
I0
sg37
I0
sg21
I0
sg20
I0
sg35
I0
sg22
I0
sg36
I0
sg25
I0
sg11
I0
sg19
I0
sg26
I0
sg29
I0
sg28
I0
sg24
I4
sg13
I0
sg32
I0
sg23
I0
sg14
I0
sg27
I0
sg30
I0
sg16
I0
sg33
I3
ssg14
(dp150
g17
I0
sg31
I0
sg34
I0
sg15
I0
sg9
I0
sg8
I0
sg18
I0
sg12
I0
sg10
I0
sg37
I0
sg21
I0
sg38
I0
sg20
I0
sg35
I0
sg22
I0
sg36
I0
sg25
I0
sg11
I0
sg19
I0
sg26
I0
sg29
I0
sg28
I0
sg24
I0
sg13
I0
sg32
I0
sg23
I0
sg14
I0
sg27
I0
sg30
I0
sg16
I0
sg33
I0
ssg27
(dp151
g17
I0
sg31
I0
sg34
I0
sg15
I0
sg9
I0
sg8
I0
sg18
I0
sg12
I0
sg10
I0
sg37
I0
sg21
I0
sg20
I0
sg35
I0
sg22
I0
sg36
I0
sg25
I0
sg11
I0
sg19
I0
sg26
I0
sg29
I0
sg28
I0
sg24
I0
sg13
I0
sg32
I0
sg23
I0
sg14
I0
sg27
I7
sg30
I0
sg16
I0
sg33
I0
ssg30
(dp152
g17
I0
sg31
I0
sg34
I0
sg15
I0
sg9
I0
sg8
I0
sg18
I0
sg12
I0
sg10
I0
sg37
I0
sg21
I0
sg20
I0
sg35
I0
sg22
I0
sg36
I0
sg25
I0
sg11
I0
sg19
I0
sg26
I0
sg29
I0
sg28
I0
sg24
I0
sg13
I0
sg32
I0
sg23
I0
sg14
I0
sg27
I0
sg30
I7
sg16
I0
sg33
I0
ssg16
(dp153
g17
I0
sg31
I0
sg34
I0
sg15
I0
sg9
I0
sg8
I0
sg18
I0
sg12
I0
sg10
I0
sg37
I0
sg21
I0
sg38
I0
sg20
I0
sg35
I0
sg22
I0
sg36
I0
sg25
I0
sg11
I0
sg19
I0
sg26
I0
sg29
I0
sg28
I0
sg24
I0
sg13
I0
sg32
I0
sg23
I0
sg14
I0
sg27
I0
sg30
I0
sg16
I14
sg33
I0
ssg33
(dp154
S'mushroom.n.05'
p155
I0
sg74
I0
sg34
I0
sg75
I0
sg51
I0
sg52
I0
sS'cabbage.n.01'
p156
I0
sg54
I0
sg77
I0
sg37
I0
sg78
I0
sS'bacon.n.01'
p157
I0
sg35
I0
sg80
I0
sg36
I0
sg81
I0
sg82
I0
sS'banana.n.02'
p158
I0
sg84
I0
sg85
I0
sg86
I0
sg88
I0
sg89
I0
sg90
I0
sg91
I0
sg92
I0
sg93
I0
sg94
I0
sg33
I0
sssb.