ccopy_reg
_reconstructor
p0
(cutils.eval
ConfusionMatrix
p1
c__builtin__
object
p2
Ntp3
Rp4
(dp5
S'labels'
p6
(lp7
S'piece.n.08'
p8
aS'slice.n.06'
p9
aS'cut.v.01'
p10
aS'pizza.n.01'
p11
aS'fork.n.01'
p12
aS'fork.n.04'
p13
aS'cake.n.03'
p14
aS'cheese.n.01'
p15
aS'vegetable.n.01'
p16
aS'knife.n.01'
p17
aS'bread.n.01'
p18
aS'meat.n.01'
p19
aS'cleaver.n.01'
p20
aS'lemon.n.01'
p21
aS'egg.n.02'
p22
aS'zucchini.n.01'
p23
aS'zucchini.n.02'
p24
aS'green_onion.n.01'
p25
aS'orange.n.01'
p26
aS'mushroom.n.05'
p27
aS'cabbage.n.01'
p28
asS'instanceCount'
p29
I36
sS'matrix'
p30
(dp31
g27
(dp32
S'mushroom.n.05'
p33
I1
ssg15
(dp34
S'cheese.n.01'
p35
I1
ssg16
(dp36
S'vegetable.n.01'
p37
I1
ssg10
(dp38
S'cut.v.01'
p39
I14
ssg17
(dp40
S'knife.n.01'
p41
I3
ssg28
(dp42
S'cabbage.n.01'
p43
I1
ssg22
(dp44
S'egg.n.02'
p45
I1
ssg13
(dp46
g13
I0
ssg9
(dp47
g9
I0
ssg12
(dp48
g13
I1
ssg11
(dp49
S'pizza.n.01'
p50
I1
ssg26
(dp51
S'orange.n.01'
p52
I1
ssg14
(dp53
S'cake.n.03'
p54
I1
ssg19
(dp55
S'meat.n.01'
p56
I1
ssg21
(dp57
S'lemon.n.01'
p58
I2
ssg23
(dp59
g24
I1
ssg24
(dp60
g24
I0
ssg8
(dp61
g9
I3
ssg18
(dp62
S'bread.n.01'
p63
I1
ssg25
(dp64
S'green_onion.n.01'
p65
I1
ssg20
(dp66
S'cleaver.n.01'
p67
I1
sssb.