ccopy_reg
_reconstructor
p0
(cutils.eval
ConfusionMatrix
p1
c__builtin__
object
p2
Ntp3
Rp4
(dp5
S'labels'
p6
(lp7
S'slice.v.03'
p8
aS'egg.n.02'
p9
aS'piece.n.08'
p10
aS'olive.n.01'
p11
aS'slice.v.02'
p12
asS'instanceCount'
p13
I5
sS'matrix'
p14
(dp15
g12
(dp16
g12
I0
ssg8
(dp17
g12
I1
sS'slice.v.03'
p18
I1
ssg10
(dp19
S'piece.n.08'
p20
I1
ssg11
(dp21
S'olive.n.01'
p22
I1
ssg9
(dp23
S'egg.n.02'
p24
I1
sssb.