ccopy_reg
_reconstructor
p0
(cutils.eval
ConfusionMatrix
p1
c__builtin__
object
p2
Ntp3
Rp4
(dp5
S'labels'
p6
(lp7
S'cabbage.n.01'
p8
aS'cut.v.01'
p9
aS'swerve.v.01'
p10
aS'flesh.n.01'
p11
aS'slice.v.03'
p12
aS'slice.v.02'
p13
aS'onion.n.01'
p14
aS'pepper.n.04'
p15
aS'fill.v.01'
p16
aS'meet.v.04'
p17
aS'kettle.n.01'
p18
aS'kettle.n.02'
p19
aS'water.n.06'
p20
aS'water.n.03'
p21
aS'cheese.n.01'
p22
aS'opening.n.01'
p23
aS'gap.n.05'
p24
aS'fill.v.09'
p25
aS'batter.n.02'
p26
aS'put.v.01'
p27
aS'invest.v.01'
p28
aS'beef.n.02'
p29
aS'beef.n.01'
p30
aS'plate.n.04'
p31
aS'plate.n.12'
p32
aS'knife.n.01'
p33
aS'banana.n.02'
p34
aS'pan.n.03'
p35
aS'pan.n.01'
p36
aS'pizza.n.01'
p37
aS'cake.n.03'
p38
aS'patty.n.01'
p39
aS'whipped_cream.n.01'
p40
asS'instanceCount'
p41
I28
sS'matrix'
p42
(dp43
g32
(dp44
g32
I0
ssg22
(dp45
S'cheese.n.01'
p46
I1
ssg10
(dp47
g10
I0
ssg29
(dp48
g30
I1
ssg26
(dp49
S'batter.n.02'
p50
I1
ssg30
(dp51
g30
I0
ssg39
(dp52
g39
I0
ssg36
(dp53
g36
I0
ssg35
(dp54
g36
I1
ssg9
(dp55
g10
I1
ssg25
(dp56
S'fill.v.09'
p57
I1
ssg40
(dp58
S'whipped_cream.n.01'
p59
I1
ssg16
(dp60
g17
I1
ssg13
(dp61
g13
I0
ssg12
(dp62
g13
I4
ssg8
(dp63
S'cabbage.n.01'
p64
I1
ssg34
(dp65
S'banana.n.02'
p66
I1
ssg31
(dp67
g32
I1
ssg15
(dp68
S'pepper.n.04'
p69
I1
ssg17
(dp70
g17
I0
ssg33
(dp71
S'knife.n.01'
p72
I1
ssg24
(dp73
g24
I0
ssg28
(dp74
g28
I0
ssg23
(dp75
g24
I1
ssg11
(dp76
S'flesh.n.01'
p77
I1
ssg21
(dp78
g21
I0
ssg20
(dp79
g21
I1
ssg27
(dp80
g28
I3
ssg37
(dp81
S'pizza.n.01'
p82
I1
ssg19
(dp83
g19
I0
ssg18
(dp84
g19
I1
ssg38
(dp85
g39
I1
ssg14
(dp86
S'onion.n.01'
p87
I2
sssb.