ccopy_reg
_reconstructor
p0
(cutils.eval
ConfusionMatrix
p1
c__builtin__
object
p2
Ntp3
Rp4
(dp5
S'labels'
p6
(lp7
S'cabbage.n.01'
p8
aS'cut.v.01'
p9
aS'swerve.v.01'
p10
aS'flesh.n.01'
p11
aS'slice.v.03'
p12
aS'slice.v.02'
p13
aS'onion.n.01'
p14
aS'pepper.n.04'
p15
aS'fill.v.01'
p16
aS'meet.v.04'
p17
aS'kettle.n.01'
p18
aS'kettle.n.02'
p19
aS'water.n.06'
p20
aS'water.n.03'
p21
aS'cheese.n.01'
p22
aS'opening.n.01'
p23
aS'gap.n.05'
p24
aS'fill.v.09'
p25
aS'batter.n.02'
p26
aS'put.v.01'
p27
aS'invest.v.01'
p28
aS'beef.n.02'
p29
aS'beef.n.01'
p30
aS'plate.n.04'
p31
aS'plate.n.12'
p32
aS'knife.n.01'
p33
aS'banana.n.02'
p34
aS'pan.n.03'
p35
aS'pan.n.01'
p36
aS'pizza.n.01'
p37
aS'cake.n.03'
p38
aS'patty.n.01'
p39
aS'whipped_cream.n.01'
p40
aS'meat.n.01'
p41
aS'kernel.n.01'
p42
aS'cleaver.n.01'
p43
aS'frame.v.04'
p44
aS'pepper.n.03'
p45
aS'salt.n.02'
p46
aS'egg.n.02'
p47
aS'testis.n.01'
p48
aS'bread.n.01'
p49
aS'bacon.n.01'
p50
aS'bacon.n.03'
p51
aS'chicken.n.01'
p52
aS'piece.n.08'
p53
aS'slice.n.01'
p54
aS'foam.n.01'
p55
aS'mug.n.04'
p56
aS'lemon.n.01'
p57
aS'lemon.n.04'
p58
aS'pitcher.n.02'
p59
aS'pitcher.n.03'
p60
aS'milk.n.01'
p61
aS'milk.n.04'
p62
asS'instanceCount'
p63
I285
sS'matrix'
p64
(dp65
g32
(dp66
g32
I0
sg10
I0
sg22
I0
sS'bacon.n.03'
p67
I0
sS'bread.n.01'
p68
I0
sg26
I0
sS'milk.n.04'
p69
I0
sg30
I0
sg39
I0
sS'milk.n.01'
p70
I0
sg36
I0
sg35
I0
sg9
I0
sS'frame.v.04'
p71
I0
sg25
I0
sS'egg.n.02'
p72
I0
sg40
I0
sg29
I0
sS'testis.n.01'
p73
I0
sS'bacon.n.01'
p74
I0
sg16
I0
sS'pitcher.n.03'
p75
I0
sS'pitcher.n.02'
p76
I0
sS'lemon.n.04'
p77
I0
sS'meat.n.01'
p78
I0
sS'salt.n.02'
p79
I0
sS'cleaver.n.01'
p80
I0
sg13
I0
sg12
I0
sg8
I0
sg34
I0
sg31
I0
sg15
I0
sg17
I0
sS'pepper.n.03'
p81
I0
sg33
I0
sS'chicken.n.01'
p82
I0
sg24
I0
sg28
I0
sg23
I0
sg11
I0
sg21
I0
sg20
I0
sg27
I0
sg37
I0
sg19
I0
sg18
I0
sg38
I0
sS'lemon.n.01'
p83
I0
sg14
I0
sS'kernel.n.01'
p84
I0
ssg22
(dp85
g32
I0
sg22
I5
sg10
I0
sg29
I0
sg68
I0
sg26
I0
sg62
I0
sg30
I0
sg39
I0
sg61
I0
sg36
I0
sg35
I0
sg9
I0
sg71
I0
sg25
I0
sg72
I0
sg40
I0
sg73
I0
sg16
I0
sg60
I0
sg59
I0
sg58
I0
sg78
I0
sg79
I0
sg80
I0
sg13
I0
sg12
I0
sg8
I0
sg34
I0
sg31
I0
sg15
I0
sg17
I0
sg81
I0
sg33
I0
sS'foam.n.01'
p86
I0
sg24
I0
sS'piece.n.08'
p87
I0
sg28
I0
sg23
I0
sS'mug.n.04'
p88
I0
sg11
I0
sg21
I0
sS'slice.n.01'
p89
I0
sg20
I0
sg27
I0
sg37
I0
sg19
I0
sg18
I0
sg38
I0
sg57
I0
sg14
I0
sg84
I0
ssg10
(dp90
g32
I0
sg22
I0
sg10
I0
sg29
I0
sg51
I0
sg49
I0
sg26
I0
sg62
I0
sg30
I0
sg39
I0
sg61
I0
sg36
I0
sg35
I0
sg9
I0
sg44
I0
sg25
I0
sg47
I0
sg40
I0
sg48
I0
sg50
I0
sg16
I0
sg60
I0
sg59
I0
sg58
I0
sg41
I0
sg46
I0
sg43
I0
sg13
I0
sg12
I0
sg8
I0
sg34
I0
sg31
I0
sg15
I0
sg17
I0
sg45
I0
sg33
I0
sg55
I0
sg52
I0
sg24
I0
sg53
I0
sg28
I0
sg23
I0
sg56
I0
sg11
I0
sg21
I0
sg54
I0
sg20
I0
sg27
I0
sg37
I0
sg19
I0
sg18
I0
sg38
I0
sg57
I0
sg14
I0
sg42
I0
ssg29
(dp91
g32
I0
sg22
I0
sg10
I0
sg29
I0
sg67
I0
sg68
I0
sg26
I0
sg69
I0
sg30
I5
sg39
I0
sg70
I0
sg36
I0
sg35
I0
sg9
I0
sg71
I0
sg25
I0
sg72
I0
sg40
I0
sg73
I0
sg74
I0
sg16
I0
sg75
I0
sg76
I0
sg77
I0
sg78
I0
sg79
I0
sg80
I0
sg13
I0
sg12
I0
sg8
I0
sg34
I0
sg31
I0
sg15
I0
sg17
I0
sg81
I0
sg33
I0
sg82
I0
sg24
I0
sg28
I0
sg23
I0
sg11
I0
sg21
I0
sg20
I0
sg27
I0
sg37
I0
sg19
I0
sg18
I0
sg38
I0
sg83
I0
sg14
I0
sg84
I0
ssg51
(dp92
S'plate.n.12'
p93
I0
sS'invest.v.01'
p94
I0
sS'swerve.v.01'
p95
I0
sg42
I0
sg48
I0
sg49
I0
sS'milk.n.04'
p96
I0
sg52
I0
sS'fill.v.01'
p97
I0
sS'milk.n.01'
p98
I0
sS'pan.n.01'
p99
I0
sS'pan.n.03'
p100
I0
sS'cut.v.01'
p101
I0
sg44
I0
sS'fill.v.09'
p102
I0
sS'cabbage.n.01'
p103
I0
sg47
I0
sS'beef.n.02'
p104
I0
sg51
I0
sg50
I0
sS'patty.n.01'
p105
I0
sS'pitcher.n.03'
p106
I0
sS'pitcher.n.02'
p107
I0
sS'kettle.n.01'
p108
I0
sg41
I0
sg43
I0
sS'slice.v.02'
p109
I0
sg46
I0
sS'knife.n.01'
p110
I0
sS'lemon.n.01'
p111
I0
sS'banana.n.02'
p112
I0
sS'plate.n.04'
p113
I0
sS'pepper.n.04'
p114
I0
sS'meet.v.04'
p115
I0
sg45
I0
sg55
I0
sS'whipped_cream.n.01'
p116
I0
sg53
I0
sg56
I0
sS'flesh.n.01'
p117
I0
sS'water.n.03'
p118
I0
sg54
I0
sS'water.n.06'
p119
I0
sS'put.v.01'
p120
I0
sS'pizza.n.01'
p121
I0
sS'kettle.n.02'
p122
I0
sS'lemon.n.04'
p123
I0
sS'cake.n.03'
p124
I0
sS'beef.n.01'
p125
I0
sS'slice.v.03'
p126
I0
sS'onion.n.01'
p127
I0
ssg49
(dp128
S'plate.n.12'
p129
I0
sg94
I0
sg95
I0
sg42
I0
sg51
I0
sg49
I5
sS'cheese.n.01'
p130
I0
sS'batter.n.02'
p131
I0
sg96
I0
sg52
I0
sg105
I0
sg98
I0
sg99
I0
sg100
I0
sg101
I0
sg44
I0
sg102
I0
sg103
I0
sg47
I0
sS'beef.n.02'
p132
I0
sg48
I0
sg50
I0
sg97
I0
sg106
I0
sg107
I0
sg43
I0
sg41
I0
sg109
I0
sg46
I0
sg110
I0
sg111
I0
sS'banana.n.02'
p133
I0
sS'plate.n.04'
p134
I0
sg114
I0
sg45
I0
sg55
I0
sg116
I0
sg53
I0
sS'opening.n.01'
p135
I0
sg56
I0
sg117
I0
sg118
I0
sg54
I0
sg119
I0
sg120
I0
sg121
I0
sg123
I0
sg124
I0
sS'gap.n.05'
p136
I0
sS'beef.n.01'
p137
I0
sg126
I0
sS'onion.n.01'
p138
I0
ssg26
(dp139
g32
I0
sg22
I0
sg10
I0
sg29
I0
sg68
I0
sg26
I5
sg62
I0
sg30
I0
sg39
I0
sg61
I0
sg36
I0
sg35
I0
sg9
I0
sg71
I0
sg25
I0
sg72
I0
sg40
I0
sg73
I0
sg16
I0
sg60
I0
sg59
I0
sg58
I0
sg78
I0
sg79
I0
sg80
I0
sg13
I0
sg12
I0
sg8
I0
sg34
I0
sg31
I0
sg15
I0
sg17
I0
sg81
I0
sg33
I0
sg86
I0
sg24
I0
sg87
I0
sg28
I0
sg23
I0
sg88
I0
sg11
I0
sg21
I0
sg89
I0
sg20
I0
sg27
I0
sg37
I0
sg19
I0
sg18
I0
sg38
I0
sg57
I0
sg14
I0
sg84
I0
ssg62
(dp140
S'plate.n.12'
p141
I0
sS'cheese.n.01'
p142
I0
sS'swerve.v.01'
p143
I0
sS'invest.v.01'
p144
I0
sS'testis.n.01'
p145
I0
sS'bread.n.01'
p146
I0
sS'batter.n.02'
p147
I0
sg62
I0
sS'beef.n.01'
p148
I0
sg86
I0
sg61
I0
sS'pan.n.01'
p149
I0
sS'pan.n.03'
p150
I0
sS'cut.v.01'
p151
I0
sS'frame.v.04'
p152
I0
sS'fill.v.09'
p153
I0
sS'egg.n.02'
p154
I0
sS'beef.n.02'
p155
I0
sS'bacon.n.03'
p156
I0
sS'bacon.n.01'
p157
I0
sS'fill.v.01'
p158
I0
sg60
I0
sg59
I0
sS'kettle.n.01'
p159
I0
sS'meat.n.01'
p160
I0
sS'salt.n.02'
p161
I0
sS'cleaver.n.01'
p162
I0
sS'slice.v.02'
p163
I0
sS'slice.v.03'
p164
I0
sS'cabbage.n.01'
p165
I0
sS'banana.n.02'
p166
I0
sS'plate.n.04'
p167
I0
sS'pepper.n.04'
p168
I0
sS'meet.v.04'
p169
I0
sS'pepper.n.03'
p170
I0
sS'knife.n.01'
p171
I0
sS'chicken.n.01'
p172
I0
sS'gap.n.05'
p173
I0
sg87
I0
sS'opening.n.01'
p174
I0
sg88
I0
sS'flesh.n.01'
p175
I0
sS'water.n.03'
p176
I0
sg89
I0
sS'water.n.06'
p177
I0
sS'put.v.01'
p178
I0
sS'pizza.n.01'
p179
I0
sS'kettle.n.02'
p180
I0
sg58
I0
sS'kernel.n.01'
p181
I0
sg57
I0
sS'onion.n.01'
p182
I0
ssg30
(dp183
g32
I0
sg22
I0
sg10
I0
sg28
I0
sg67
I0
sg68
I0
sg26
I0
sg69
I0
sg30
I0
sg39
I0
sg70
I0
sg36
I0
sg35
I0
sg9
I0
sg71
I0
sg25
I0
sg72
I0
sg40
I0
sg29
I0
sg73
I0
sg74
I0
sg16
I0
sg75
I0
sg76
I0
sg77
I0
sg78
I0
sg79
I0
sg80
I0
sg13
I0
sg12
I0
sg8
I0
sg34
I0
sg31
I0
sg15
I0
sg17
I0
sg81
I0
sg33
I0
sg82
I0
sg24
I0
sg23
I0
sg11
I0
sg21
I0
sg20
I0
sg27
I0
sg37
I0
sg19
I0
sg18
I0
sg38
I0
sg83
I0
sg14
I0
sg84
I0
ssg39
(dp184
g32
I0
sg28
I0
sg10
I0
sg22
I0
sg51
I0
sg49
I0
sg26
I0
sg30
I0
sg16
I0
sg36
I0
sg35
I0
sg9
I0
sg44
I0
sg25
I0
sg47
I0
sg40
I0
sg29
I0
sg48
I0
sg50
I0
sg39
I0
sg41
I0
sg46
I0
sg43
I0
sg13
I0
sg12
I0
sg8
I0
sg34
I0
sg31
I0
sg15
I0
sg17
I0
sg45
I0
sg33
I0
sg55
I0
sg52
I0
sg24
I0
sg53
I0
sg23
I0
sg56
I0
sg11
I0
sg21
I0
sg54
I0
sg20
I0
sg27
I0
sg37
I0
sg19
I0
sg18
I0
sg38
I0
sg14
I0
sg42
I0
ssg61
(dp185
g141
I0
sg142
I0
sg143
I0
sg144
I0
sg145
I0
sg146
I0
sg147
I0
sg62
I5
sg148
I0
sg86
I0
sg61
I0
sg149
I0
sg150
I0
sg151
I0
sg152
I0
sg153
I0
sg154
I0
sg155
I0
sg156
I0
sg157
I0
sg158
I0
sg60
I0
sg59
I0
sg159
I0
sg160
I0
sg161
I0
sg162
I0
sg163
I0
sg164
I0
sg165
I0
sg166
I0
sg167
I0
sg168
I0
sg169
I0
sg170
I0
sg171
I0
sg172
I0
sg173
I0
sg87
I0
sg174
I0
sg88
I0
sg175
I0
sg176
I0
sg89
I0
sg177
I0
sg178
I0
sg179
I0
sg180
I0
sg58
I0
sg181
I0
sg57
I0
sg182
I0
ssg36
(dp186
g32
I0
sg22
I0
sg10
I0
sg28
I0
sg51
I0
sg49
I0
sg26
I0
sg96
I0
sg30
I0
sg39
I0
sg98
I0
sg36
I5
sg35
I0
sg9
I0
sg44
I0
sg25
I0
sg47
I0
sg40
I0
sg29
I0
sg48
I0
sg50
I0
sg16
I0
sg106
I0
sg107
I0
sg123
I0
sg41
I0
sg46
I0
sg43
I0
sg13
I0
sg12
I0
sg8
I0
sg34
I0
sg31
I0
sg15
I0
sg17
I0
sg45
I0
sg33
I0
sg55
I0
sg52
I0
sg24
I0
sg53
I0
sg23
I0
sg56
I0
sg11
I0
sg21
I0
sg54
I0
sg20
I0
sg27
I0
sg37
I0
sg19
I0
sg18
I0
sg38
I0
sg111
I0
sg14
I0
sg42
I0
ssg35
(dp187
g32
I0
sg22
I0
sg10
I0
sg28
I0
sg51
I0
sg49
I0
sg26
I0
sg96
I0
sg30
I0
sg39
I0
sg98
I0
sg36
I10
sg35
I0
sg9
I0
sg44
I0
sg25
I0
sg47
I0
sg40
I0
sg29
I0
sg48
I0
sg50
I0
sg16
I0
sg106
I0
sg107
I0
sg123
I0
sg41
I0
sg46
I0
sg43
I0
sg13
I0
sg12
I0
sg8
I0
sg34
I0
sg31
I0
sg15
I0
sg17
I0
sg45
I0
sg33
I0
sg55
I0
sg52
I0
sg24
I0
sg53
I0
sg23
I0
sg56
I0
sg11
I0
sg21
I0
sg54
I0
sg20
I0
sg27
I0
sg37
I0
sg19
I0
sg18
I0
sg38
I0
sg111
I0
sg14
I0
sg42
I0
ssg9
(dp188
g32
I0
sg22
I0
sg10
I25
sg29
I0
sg51
I0
sg49
I0
sg26
I0
sg62
I0
sg30
I0
sg39
I0
sg61
I0
sg36
I0
sg35
I0
sg9
I0
sg44
I0
sg25
I0
sg47
I0
sg40
I0
sg48
I0
sg50
I0
sg16
I0
sg60
I0
sg59
I0
sg58
I0
sg41
I0
sg46
I0
sg43
I0
sg13
I0
sg12
I0
sg8
I0
sg34
I0
sg31
I0
sg15
I0
sg17
I0
sg45
I0
sg33
I0
sg55
I0
sg52
I0
sg24
I0
sg53
I0
sg28
I0
sg23
I0
sg56
I0
sg11
I0
sg21
I0
sg54
I0
sg20
I0
sg27
I0
sg37
I0
sg19
I0
sg18
I0
sg38
I0
sg57
I0
sg14
I0
sg42
I0
ssg44
(dp189
g129
I0
sg94
I0
sg95
I0
sg42
I0
sg51
I0
sg49
I0
sg130
I0
sg131
I0
sS'milk.n.04'
p190
I0
sg52
I0
sg105
I0
sS'milk.n.01'
p191
I0
sg99
I0
sg100
I0
sg101
I0
sg44
I0
sg102
I0
sg47
I0
sg132
I0
sg48
I0
sg50
I0
sg97
I0
sS'pitcher.n.03'
p192
I0
sS'pitcher.n.02'
p193
I0
sS'lemon.n.04'
p194
I0
sg41
I0
sg43
I0
sg109
I0
sg46
I0
sg110
I0
sS'lemon.n.01'
p195
I0
sg133
I0
sg134
I0
sg114
I0
sS'meet.v.04'
p196
I0
sg45
I0
sg55
I0
sg116
I0
sg53
I0
sg135
I0
sg56
I0
sg118
I0
sg54
I0
sg119
I0
sg120
I0
sg121
I0
sS'kettle.n.02'
p197
I0
sS'kettle.n.01'
p198
I0
sg124
I0
sg136
I0
sg137
I0
sg126
I0
sg138
I0
ssg25
(dp199
g32
I0
sg22
I0
sg10
I0
sg29
I0
sg51
I0
sg49
I0
sg26
I0
sg62
I0
sg30
I0
sg39
I0
sg61
I0
sg36
I0
sg35
I0
sg9
I0
sg44
I0
sg25
I5
sg47
I0
sg40
I0
sg48
I0
sg50
I0
sg16
I0
sg60
I0
sg59
I0
sg58
I0
sg41
I0
sg46
I0
sg43
I0
sg13
I0
sg12
I0
sg8
I0
sg34
I0
sg31
I0
sg15
I0
sg17
I0
sg45
I0
sg33
I0
sg55
I0
sg52
I0
sg24
I0
sg53
I0
sg28
I0
sg23
I0
sg56
I0
sg11
I0
sg21
I0
sg54
I0
sg20
I0
sg27
I0
sg37
I0
sg19
I0
sg18
I0
sg38
I0
sg57
I0
sg14
I0
sg42
I0
ssg47
(dp200
g129
I0
sg94
I0
sg95
I0
sg42
I0
sg51
I0
sg49
I0
sg130
I0
sg131
I0
sg190
I0
sg52
I0
sg105
I0
sg191
I0
sg99
I0
sg100
I0
sg101
I0
sg44
I0
sg102
I0
sg47
I0
sg132
I0
sg48
I5
sg50
I0
sg97
I0
sg192
I0
sg193
I0
sg194
I0
sg41
I0
sg43
I0
sg109
I0
sg46
I0
sg110
I0
sg195
I0
sg133
I0
sg134
I0
sg114
I0
sg196
I0
sg45
I0
sg55
I0
sg116
I0
sg53
I0
sg135
I0
sg56
I0
sg118
I0
sg54
I0
sg119
I0
sg120
I0
sg121
I0
sg197
I0
sg198
I0
sg124
I0
sg136
I0
sg137
I0
sg126
I0
sg138
I0
ssg40
(dp201
g32
I0
sg22
I0
sg10
I0
sg28
I0
sg51
I0
sg49
I0
sg26
I0
sg30
I0
sg39
I0
sg36
I0
sg35
I0
sg9
I0
sg44
I0
sg25
I0
sg47
I0
sg29
I0
sg48
I0
sg50
I0
sg16
I0
sg41
I0
sg46
I0
sg43
I0
sg13
I0
sg12
I0
sg8
I0
sg34
I0
sg31
I0
sg15
I0
sg17
I0
sg45
I0
sg33
I0
sg55
I0
sg52
I0
sg40
I5
sg53
I0
sg23
I0
sg56
I0
sg11
I0
sg21
I0
sg54
I0
sg20
I0
sg27
I0
sg37
I0
sg19
I0
sg18
I0
sg38
I0
sg24
I0
sg14
I0
sg42
I0
ssg48
(dp202
g129
I0
sg94
I0
sg95
I0
sg42
I0
sg51
I0
sg49
I0
sg130
I0
sg131
I0
sg190
I0
sg52
I0
sg105
I0
sg191
I0
sg99
I0
sg100
I0
sg101
I0
sg44
I0
sg102
I0
sg47
I0
sg132
I0
sg48
I0
sg50
I0
sg97
I0
sg192
I0
sg193
I0
sg194
I0
sg41
I0
sg43
I0
sg109
I0
sg46
I0
sg110
I0
sg195
I0
sg133
I0
sg134
I0
sg114
I0
sg196
I0
sg45
I0
sg55
I0
sg116
I0
sg53
I0
sg135
I0
sg56
I0
sg118
I0
sg54
I0
sg119
I0
sg120
I0
sg121
I0
sg197
I0
sg198
I0
sg124
I0
sg136
I0
sg137
I0
sg126
I0
sg138
I0
ssg50
(dp203
g93
I0
sg94
I0
sg95
I0
sg42
I0
sg51
I5
sg49
I0
sg96
I0
sg52
I0
sg97
I0
sg98
I0
sg99
I0
sg100
I0
sg101
I0
sg44
I0
sg102
I0
sg103
I0
sg47
I0
sg104
I0
sg48
I0
sg50
I0
sg105
I0
sg106
I0
sg107
I0
sg108
I0
sg43
I0
sg41
I0
sg109
I0
sg46
I0
sg110
I0
sg111
I0
sg112
I0
sg113
I0
sg114
I0
sg115
I0
sg45
I0
sg55
I0
sg116
I0
sg53
I0
sg56
I0
sg117
I0
sg118
I0
sg54
I0
sg119
I0
sg120
I0
sg121
I0
sg122
I0
sg123
I0
sg124
I0
sg125
I0
sg126
I0
sg127
I0
ssg16
(dp204
g32
I0
sg22
I0
sg10
I0
sg29
I0
sg51
I0
sg49
I0
sg26
I0
sg62
I0
sg30
I0
sg39
I0
sg61
I0
sg36
I0
sg35
I0
sg9
I0
sg44
I0
sg25
I15
sg47
I0
sg40
I0
sg48
I0
sg50
I0
sg16
I0
sg60
I0
sg59
I0
sg58
I0
sg41
I0
sg46
I0
sg43
I0
sg13
I0
sg12
I0
sg8
I0
sg34
I0
sg31
I0
sg15
I0
sg17
I5
sg45
I0
sg33
I0
sg55
I0
sg52
I0
sg24
I0
sg53
I0
sg28
I0
sg23
I0
sg56
I0
sg11
I0
sg21
I0
sg54
I0
sg20
I0
sg27
I0
sg37
I0
sg19
I0
sg18
I0
sg38
I0
sg57
I0
sg14
I0
sg42
I0
ssg60
(dp205
g141
I0
sg142
I0
sg143
I0
sg144
I0
sg145
I0
sg146
I0
sg147
I0
sg62
I0
sg148
I0
sg86
I0
sg61
I0
sg149
I0
sg150
I0
sg151
I0
sg152
I0
sg153
I0
sg154
I0
sg155
I0
sg156
I0
sg157
I0
sg158
I0
sg60
I0
sg59
I0
sg159
I0
sg160
I0
sg161
I0
sg162
I0
sg163
I0
sg164
I0
sg165
I0
sg166
I0
sg167
I0
sg168
I0
sg169
I0
sg170
I0
sg171
I0
sg172
I0
sg173
I0
sg87
I0
sg174
I0
sg88
I0
sg175
I0
sg176
I0
sg89
I0
sg177
I0
sg178
I0
sg179
I0
sg180
I0
sg58
I0
sg181
I0
sg57
I0
sg182
I0
ssg59
(dp206
g141
I0
sg142
I0
sg143
I0
sg144
I0
sg145
I0
sg146
I0
sg147
I0
sg62
I0
sg148
I0
sg86
I0
sg61
I0
sg149
I0
sg150
I0
sg151
I0
sg152
I0
sg153
I0
sg154
I0
sg155
I0
sg156
I0
sg157
I0
sg158
I0
sg60
I5
sg59
I0
sg159
I0
sg160
I0
sg161
I0
sg162
I0
sg163
I0
sg164
I0
sg165
I0
sg166
I0
sg167
I0
sg168
I0
sg169
I0
sg170
I0
sg171
I0
sg172
I0
sg173
I0
sg87
I0
sg174
I0
sg88
I0
sg175
I0
sg176
I0
sg89
I0
sg177
I0
sg178
I0
sg179
I0
sg180
I0
sg58
I0
sg181
I0
sg57
I0
sg182
I0
ssg58
(dp207
g141
I0
sg142
I0
sg143
I0
sg144
I0
sg145
I0
sg146
I0
sg147
I0
sg62
I0
sg148
I0
sg86
I0
sg61
I0
sg149
I0
sg150
I0
sg151
I0
sg152
I0
sg153
I0
sg154
I0
sg155
I0
sg156
I0
sg157
I0
sg158
I0
sg60
I0
sg59
I0
sg159
I0
sg160
I0
sg161
I0
sg162
I0
sg163
I0
sg164
I0
sg165
I0
sg166
I0
sg167
I0
sg168
I0
sg169
I0
sg170
I0
sg171
I0
sg172
I0
sg173
I0
sg87
I0
sg174
I0
sg88
I0
sg175
I0
sg176
I0
sg89
I0
sg177
I0
sg178
I0
sg179
I0
sg180
I0
sg58
I0
sg181
I0
sg57
I0
sg182
I0
ssg41
(dp208
g129
I0
sg94
I0
sg95
I0
sg42
I5
sg51
I0
sg49
I0
sg130
I0
sg131
I0
sg190
I0
sg52
I0
sg105
I0
sg191
I0
sg99
I0
sg100
I0
sg101
I0
sg44
I0
sg102
I0
sg47
I0
sg132
I0
sg48
I0
sg50
I0
sg97
I0
sg192
I0
sg193
I0
sg194
I0
sg41
I0
sg43
I0
sg109
I0
sg46
I0
sg110
I0
sg195
I0
sg133
I0
sg134
I0
sg114
I0
sg196
I0
sg45
I0
sg55
I0
sg116
I0
sg53
I0
sg135
I0
sg56
I0
sg118
I0
sg54
I0
sg119
I0
sg120
I0
sg121
I0
sg197
I0
sg198
I0
sg124
I0
sg136
I0
sg137
I0
sg126
I0
sg138
I0
ssg46
(dp209
g129
I0
sg94
I0
sg95
I0
sg42
I0
sg51
I0
sg49
I0
sg130
I0
sg131
I0
sg190
I0
sg52
I0
sg105
I0
sg191
I0
sg99
I0
sg100
I0
sg101
I0
sg44
I0
sg102
I0
sg47
I0
sg132
I0
sg48
I0
sg50
I0
sg97
I0
sg192
I0
sg193
I0
sg194
I0
sg43
I0
sg41
I0
sg109
I0
sg46
I5
sg110
I0
sg195
I0
sg133
I0
sg134
I0
sg114
I0
sg196
I0
sg45
I0
sg55
I0
sg116
I0
sg53
I0
sg135
I0
sg56
I0
sg118
I0
sg54
I0
sg119
I0
sg120
I0
sg121
I0
sg197
I0
sg198
I0
sg124
I0
sg136
I0
sg137
I0
sg126
I0
sg138
I0
ssg43
(dp210
g129
I0
sg94
I0
sg95
I0
sg42
I0
sg51
I0
sg49
I0
sg130
I0
sg131
I0
sg190
I0
sg52
I0
sg105
I0
sg191
I0
sg99
I0
sg100
I0
sg101
I0
sg44
I0
sg102
I0
sg47
I0
sg132
I0
sg48
I0
sg50
I0
sg97
I0
sg192
I0
sg193
I0
sg194
I0
sg43
I5
sg41
I0
sg109
I0
sg46
I0
sg110
I0
sg195
I0
sg133
I0
sg134
I0
sg114
I0
sg196
I0
sg45
I0
sg55
I0
sg116
I0
sg53
I0
sg135
I0
sg56
I0
sg118
I0
sg54
I0
sg119
I0
sg120
I0
sg121
I0
sg197
I0
sg198
I0
sg124
I0
sg136
I0
sg137
I0
sg126
I0
sg138
I0
ssg13
(dp211
g32
I0
sg22
I0
sg10
I0
sg29
I0
sg51
I0
sg49
I0
sg26
I0
sg62
I0
sg30
I0
sg39
I0
sg61
I0
sg36
I0
sg35
I0
sg9
I0
sg44
I0
sg25
I0
sg47
I0
sg40
I0
sg48
I0
sg50
I0
sg16
I0
sg60
I0
sg59
I0
sg58
I0
sg41
I0
sg46
I0
sg43
I0
sg13
I0
sg12
I0
sg8
I0
sg34
I0
sg31
I0
sg15
I0
sg17
I0
sg45
I0
sg33
I0
sg55
I0
sg52
I0
sg24
I0
sg53
I0
sg28
I0
sg23
I0
sg56
I0
sg11
I0
sg21
I0
sg54
I0
sg20
I0
sg27
I0
sg37
I0
sg19
I0
sg18
I0
sg38
I0
sg57
I0
sg14
I0
sg42
I0
ssg12
(dp212
g32
I0
sg22
I0
sg10
I0
sg29
I0
sg51
I0
sg49
I0
sg26
I0
sg62
I0
sg30
I0
sg39
I0
sg61
I0
sg36
I0
sg35
I0
sg9
I0
sg44
I0
sg25
I0
sg47
I0
sg40
I0
sg48
I0
sg50
I0
sg16
I0
sg60
I0
sg59
I0
sg58
I0
sg41
I0
sg46
I0
sg43
I0
sg13
I25
sg12
I0
sg8
I0
sg34
I0
sg31
I0
sg15
I0
sg17
I0
sg45
I0
sg33
I0
sg55
I0
sg52
I0
sg24
I0
sg53
I0
sg28
I0
sg23
I0
sg56
I0
sg11
I0
sg21
I0
sg54
I0
sg20
I0
sg27
I0
sg37
I0
sg19
I0
sg18
I0
sg38
I0
sg57
I0
sg14
I0
sg42
I0
ssg8
(dp213
g32
I0
sg22
I0
sg10
I0
sg29
I0
sg146
I0
sg26
I0
sg62
I0
sg30
I0
sg39
I0
sg61
I0
sg36
I0
sg35
I0
sg9
I0
sg25
I0
sg40
I0
sg156
I0
sg157
I0
sg16
I0
sg60
I0
sg59
I0
sg58
I0
sg13
I0
sg12
I0
sg8
I5
sg34
I0
sg31
I0
sg15
I0
sg17
I0
sg33
I0
sg86
I0
sg172
I0
sg24
I0
sg87
I0
sg28
I0
sg23
I0
sg88
I0
sg11
I0
sg21
I0
sg89
I0
sg20
I0
sg27
I0
sg37
I0
sg19
I0
sg18
I0
sg38
I0
sg57
I0
sg14
I0
ssg34
(dp214
g32
I0
sg22
I0
sg10
I0
sg28
I0
sg67
I0
sg68
I0
sg26
I0
sg69
I0
sg30
I0
sg39
I0
sg70
I0
sg36
I0
sg35
I0
sg9
I0
sg71
I0
sg25
I0
sg72
I0
sg40
I0
sg29
I0
sg73
I0
sg74
I0
sg16
I0
sg75
I0
sg76
I0
sg77
I0
sg78
I0
sg79
I0
sg80
I0
sg13
I0
sg12
I0
sg8
I0
sg34
I5
sg31
I0
sg15
I0
sg17
I0
sg81
I0
sg33
I0
sg82
I0
sg24
I0
sg23
I0
sg11
I0
sg21
I0
sg20
I0
sg27
I0
sg37
I0
sg19
I0
sg18
I0
sg38
I0
sg83
I0
sg14
I0
sg84
I0
ssg31
(dp215
g32
I5
sg22
I0
sg10
I0
sg28
I0
sg67
I0
sg68
I0
sg26
I0
sg69
I0
sg30
I0
sg39
I0
sg70
I0
sg36
I0
sg35
I0
sg9
I0
sg71
I0
sg25
I0
sg72
I0
sg40
I0
sg29
I0
sg73
I0
sg74
I0
sg16
I0
sg75
I0
sg76
I0
sg77
I0
sg78
I0
sg79
I0
sg80
I0
sg13
I0
sg12
I0
sg8
I0
sg34
I0
sg31
I0
sg15
I0
sg17
I0
sg81
I0
sg33
I0
sg82
I0
sg24
I0
sg23
I0
sg11
I0
sg21
I0
sg20
I0
sg27
I0
sg37
I0
sg19
I0
sg18
I0
sg38
I0
sg83
I0
sg14
I0
sg84
I0
ssg15
(dp216
g32
I0
sg22
I0
sg10
I0
sg29
I0
sg51
I0
sg49
I0
sg26
I0
sg62
I0
sg30
I0
sg39
I0
sg61
I0
sg36
I0
sg35
I0
sg9
I0
sg44
I0
sg25
I0
sg47
I0
sg40
I0
sg48
I0
sg50
I0
sg16
I0
sg60
I0
sg59
I0
sg58
I0
sg41
I0
sg46
I0
sg43
I0
sg13
I0
sg12
I0
sg8
I0
sg34
I0
sg31
I0
sg15
I5
sg17
I0
sg45
I0
sg33
I0
sg55
I0
sg52
I0
sg24
I0
sg53
I0
sg28
I0
sg23
I0
sg56
I0
sg11
I0
sg21
I0
sg54
I0
sg20
I0
sg27
I0
sg37
I0
sg19
I0
sg18
I0
sg38
I0
sg57
I0
sg14
I0
sg42
I0
ssg17
(dp217
g32
I0
sg22
I0
sg10
I0
sg29
I0
sS'bacon.n.03'
p218
I0
sg26
I0
sg62
I0
sg30
I0
sg39
I0
sg61
I0
sg36
I0
sg35
I0
sg9
I0
sS'frame.v.04'
p219
I0
sg25
I0
sS'egg.n.02'
p220
I0
sg40
I0
sS'testis.n.01'
p221
I0
sS'bacon.n.01'
p222
I0
sg16
I0
sg60
I0
sg59
I0
sg58
I0
sS'meat.n.01'
p223
I0
sS'salt.n.02'
p224
I0
sS'cleaver.n.01'
p225
I0
sg13
I0
sg12
I0
sg8
I0
sg34
I0
sg31
I0
sg15
I0
sg17
I0
sS'pepper.n.03'
p226
I0
sg33
I0
sg86
I0
sS'chicken.n.01'
p227
I0
sg24
I0
sg87
I0
sg28
I0
sg23
I0
sg88
I0
sg11
I0
sg21
I0
sg89
I0
sg20
I0
sg27
I0
sg37
I0
sg19
I0
sg18
I0
sg38
I0
sg57
I0
sg14
I0
sS'kernel.n.01'
p228
I0
ssg45
(dp229
g129
I0
sg94
I0
sg95
I0
sg42
I0
sg51
I0
sg49
I0
sg130
I0
sg131
I0
sg190
I0
sg52
I0
sg105
I0
sg191
I0
sg99
I0
sg100
I0
sg101
I0
sg44
I0
sg102
I0
sg47
I0
sg132
I0
sg48
I0
sg50
I0
sg97
I0
sg192
I0
sg193
I0
sg194
I0
sg43
I0
sg41
I0
sg109
I0
sg46
I0
sg110
I0
sg195
I0
sg133
I0
sg134
I0
sg114
I5
sg196
I0
sg45
I0
sg55
I0
sg116
I0
sg53
I0
sg135
I0
sg56
I0
sg118
I0
sg54
I0
sg119
I0
sg120
I0
sg121
I0
sg197
I0
sg198
I0
sg124
I0
sg136
I0
sg137
I0
sg126
I0
sg138
I0
ssg33
(dp230
g32
I0
sg22
I0
sg10
I0
sg28
I0
sg51
I0
sg49
I0
sg26
I0
sg69
I0
sg33
I10
sg39
I0
sg70
I0
sg36
I0
sg35
I0
sg9
I0
sg44
I0
sg25
I0
sg47
I0
sg40
I0
sg29
I0
sg48
I0
sg50
I0
sg16
I0
sg75
I0
sg76
I0
sg77
I0
sg41
I0
sg46
I0
sg43
I0
sg13
I0
sg12
I0
sg8
I0
sg83
I0
sg34
I0
sg31
I0
sg15
I0
sg17
I0
sg45
I0
sg55
I0
sg52
I0
sg24
I0
sg53
I0
sg23
I0
sg56
I0
sg11
I0
sg21
I0
sg54
I0
sg20
I0
sg27
I0
sg37
I0
sg19
I0
sg18
I0
sg38
I0
sg30
I0
sg14
I0
sg42
I0
ssg55
(dp231
g94
I0
sg95
I0
sg42
I0
sg51
I0
sg49
I0
sg142
I0
sg147
I0
sg62
I0
sg52
I0
sg55
I5
sg61
I0
sg99
I0
sg97
I0
sg100
I0
sg101
I0
sg44
I0
sg102
I0
sg165
I0
sg47
I0
sg48
I0
sg50
I0
sg105
I0
sg60
I0
sg59
I0
sg159
I0
sg43
I0
sg41
I0
sg109
I0
sg46
I0
sg110
I0
sg114
I0
sg169
I0
sg45
I0
sg116
I0
sg53
I0
sg174
I0
sg56
I0
sg175
I0
sg118
I0
sg54
I0
sg119
I0
sg120
I0
sg121
I0
sg180
I0
sg58
I0
sg124
I0
sg173
I0
sg57
I0
sg126
I0
sg182
I0
ssg52
(dp232
g93
I0
sg94
I0
sg52
I5
sg42
I0
sg51
I0
sg49
I0
sg96
I0
sg95
I0
sg97
I0
sg98
I0
sg99
I0
sg100
I0
sg101
I0
sg44
I0
sg102
I0
sg103
I0
sg47
I0
sg104
I0
sg48
I0
sg50
I0
sg105
I0
sg106
I0
sg107
I0
sg108
I0
sg41
I0
sg43
I0
sg109
I0
sg46
I0
sg110
I0
sg111
I0
sg112
I0
sg113
I0
sg114
I0
sg115
I0
sg45
I0
sg55
I0
sg116
I0
sg53
I0
sg56
I0
sg117
I0
sg118
I0
sg54
I0
sg119
I0
sg120
I0
sg121
I0
sg122
I0
sg123
I0
sg124
I0
sg125
I0
sg126
I0
sg127
I0
ssg24
(dp233
g32
I0
sg22
I0
sg10
I0
sg29
I0
sg68
I0
sg26
I0
sg62
I0
sg30
I0
sg39
I0
sg61
I0
sg36
I0
sg35
I0
sg9
I0
sg71
I0
sg25
I0
sg72
I0
sg40
I0
sg73
I0
sg16
I0
sg60
I0
sg59
I0
sg58
I0
sg78
I0
sg79
I0
sg80
I0
sg13
I0
sg12
I0
sg8
I0
sg34
I0
sg31
I0
sg15
I0
sg17
I0
sg81
I0
sg33
I0
sg86
I0
sg24
I0
sg87
I0
sg28
I0
sg23
I0
sg88
I0
sg11
I0
sg21
I0
sg89
I0
sg20
I0
sg27
I0
sg37
I0
sg19
I0
sg18
I0
sg38
I0
sg57
I0
sg14
I0
sg84
I0
ssg53
(dp234
g94
I0
sg95
I0
sg42
I0
sg51
I0
sg49
I0
sg142
I0
sg147
I0
sg62
I0
sg52
I0
sg97
I0
sg61
I0
sg99
I0
sg100
I0
sg101
I0
sg44
I0
sg102
I0
sg165
I0
sg47
I0
sg48
I0
sg50
I0
sg105
I0
sg60
I0
sg59
I0
sg159
I0
sg41
I0
sg43
I0
sg109
I0
sg46
I0
sg110
I0
sg114
I0
sg169
I0
sg45
I0
sg55
I0
sg116
I0
sg53
I0
sg174
I0
sg56
I0
sg175
I0
sg118
I0
sg54
I5
sg119
I0
sg120
I0
sg121
I0
sg180
I0
sg58
I0
sg124
I0
sg173
I0
sg57
I0
sg126
I0
sg182
I0
ssg28
(dp235
g32
I0
sg28
I0
sg10
I0
sg29
I0
sg51
I0
sg49
I0
sg22
I0
sg26
I0
sg69
I0
sg30
I0
sg39
I0
sg70
I0
sg36
I0
sg35
I0
sg9
I0
sg44
I0
sg25
I0
sg47
I0
sg40
I0
sg48
I0
sg50
I0
sg16
I0
sg75
I0
sg76
I0
sg77
I0
sg41
I0
sg46
I0
sg43
I0
sg13
I0
sg12
I0
sg8
I0
sg34
I0
sg31
I0
sg15
I0
sg17
I0
sg45
I0
sg33
I0
sg55
I0
sg52
I0
sg24
I0
sg53
I0
sg23
I0
sg56
I0
sg11
I0
sg21
I0
sg54
I0
sg20
I0
sg27
I0
sg37
I0
sg19
I0
sg18
I0
sg38
I0
sg83
I0
sg14
I0
sg42
I0
ssg23
(dp236
g32
I0
sg22
I0
sg10
I0
sg29
I0
sg68
I0
sg26
I0
sg62
I0
sg30
I0
sg39
I0
sg61
I0
sg36
I0
sg35
I0
sg9
I0
sg71
I0
sg25
I0
sg72
I0
sg40
I0
sg73
I0
sg16
I0
sg60
I0
sg59
I0
sg58
I0
sg78
I0
sg79
I0
sg80
I0
sg13
I0
sg12
I0
sg8
I0
sg34
I0
sg31
I0
sg15
I0
sg17
I0
sg81
I0
sg33
I0
sg86
I0
sg24
I5
sg87
I0
sg28
I0
sg23
I0
sg88
I0
sg11
I0
sg21
I0
sg89
I0
sg20
I0
sg27
I0
sg37
I0
sg19
I0
sg18
I0
sg38
I0
sg57
I0
sg14
I0
sg84
I0
ssg56
(dp237
g94
I0
sg95
I0
sg42
I0
sg51
I0
sg49
I0
sg142
I0
sg147
I0
sg62
I0
sg52
I0
sg97
I0
sg61
I0
sg99
I0
sg100
I0
sg101
I0
sg44
I0
sg102
I0
sg165
I0
sg47
I0
sg48
I0
sg50
I0
sg105
I0
sg60
I0
sg59
I0
sg159
I0
sg43
I0
sg41
I0
sg109
I0
sg46
I0
sg110
I0
sg114
I0
sg169
I0
sg45
I0
sg55
I0
sg116
I0
sg53
I0
sg174
I0
sg56
I5
sg175
I0
sg118
I0
sg54
I0
sg119
I0
sg120
I0
sg121
I0
sg180
I0
sg58
I0
sg124
I0
sg173
I0
sg57
I0
sg126
I0
sg182
I0
ssg11
(dp238
g32
I0
sg22
I0
sg10
I0
sg29
I0
sg146
I0
sg26
I0
sg62
I0
sg30
I0
sg39
I0
sg61
I0
sg36
I0
sg35
I0
sg9
I0
sg25
I0
sg40
I0
sg156
I0
sg157
I0
sg16
I0
sg60
I0
sg59
I0
sg58
I0
sg13
I0
sg12
I0
sg8
I0
sg34
I0
sg31
I0
sg15
I0
sg17
I0
sg33
I0
sg86
I0
sg172
I0
sg24
I0
sg87
I0
sg28
I0
sg23
I0
sg88
I0
sg11
I5
sg21
I0
sg89
I0
sg20
I0
sg27
I0
sg37
I0
sg19
I0
sg18
I0
sg38
I0
sg57
I0
sg14
I0
ssg21
(dp239
g32
I0
sg22
I0
sg10
I0
sg29
I0
sg51
I0
sg49
I0
sg26
I0
sg62
I0
sg30
I0
sg39
I0
sg61
I0
sg36
I0
sg35
I0
sg9
I0
sg44
I0
sg25
I0
sg47
I0
sg40
I0
sg48
I0
sg50
I0
sg16
I0
sg60
I0
sg59
I0
sg58
I0
sg41
I0
sg46
I0
sg43
I0
sg13
I0
sg12
I0
sg8
I0
sg34
I0
sg31
I0
sg15
I0
sg17
I0
sg45
I0
sg33
I0
sg55
I0
sg52
I0
sg24
I0
sg53
I0
sg28
I0
sg23
I0
sg56
I0
sg11
I0
sg21
I0
sg54
I0
sg20
I0
sg27
I0
sg37
I0
sg19
I0
sg18
I0
sg38
I0
sg57
I0
sg14
I0
sg42
I0
ssg54
(dp240
g94
I0
sg95
I0
sg42
I0
sg51
I0
sg49
I0
sg142
I0
sg147
I0
sg62
I0
sg52
I0
sg97
I0
sg61
I0
sg99
I0
sg100
I0
sg101
I0
sg44
I0
sg102
I0
sg165
I0
sg47
I0
sg48
I0
sg50
I0
sg105
I0
sg60
I0
sg59
I0
sg159
I0
sg41
I0
sg43
I0
sg109
I0
sg46
I0
sg110
I0
sg114
I0
sg169
I0
sg45
I0
sg55
I0
sg116
I0
sg53
I0
sg174
I0
sg56
I0
sg175
I0
sg118
I0
sg54
I0
sg119
I0
sg120
I0
sg121
I0
sg180
I0
sg58
I0
sg124
I0
sg173
I0
sg57
I0
sg126
I0
sg182
I0
ssg20
(dp241
g32
I0
sg22
I0
sg10
I0
sg29
I0
sg51
I0
sg49
I0
sg26
I0
sg62
I0
sg30
I0
sg39
I0
sg61
I0
sg36
I0
sg35
I0
sg9
I0
sg44
I0
sg25
I0
sg47
I0
sg40
I0
sg48
I0
sg50
I0
sg16
I0
sg60
I0
sg59
I0
sg58
I0
sg41
I0
sg46
I0
sg43
I0
sg13
I0
sg12
I0
sg8
I0
sg34
I0
sg31
I0
sg15
I0
sg17
I0
sg45
I0
sg33
I0
sg55
I0
sg52
I0
sg24
I0
sg53
I0
sg28
I0
sg23
I0
sg56
I0
sg11
I0
sg21
I10
sg54
I0
sg20
I0
sg27
I0
sg37
I0
sg19
I0
sg18
I0
sg38
I0
sg57
I0
sg14
I0
sg42
I0
ssg27
(dp242
g32
I0
sg22
I0
sg10
I0
sg29
I0
sg51
I0
sg49
I0
sg26
I0
sg69
I0
sg30
I0
sg39
I0
sg70
I0
sg36
I0
sg35
I0
sg9
I0
sg44
I5
sg25
I0
sg47
I0
sg40
I0
sg48
I0
sg50
I0
sg16
I0
sg75
I0
sg76
I0
sg77
I0
sg41
I0
sg46
I0
sg43
I0
sg13
I0
sg12
I0
sg8
I0
sg34
I0
sg31
I0
sg15
I0
sg17
I0
sg45
I0
sg33
I0
sg55
I0
sg52
I0
sg24
I0
sg53
I0
sg28
I20
sg23
I0
sg56
I0
sg11
I0
sg21
I0
sg54
I0
sg20
I0
sg27
I0
sg37
I0
sg19
I0
sg18
I0
sg38
I0
sg83
I0
sg14
I0
sg42
I0
ssg37
(dp243
g32
I0
sg28
I0
sg10
I0
sg22
I0
sg51
I0
sg49
I0
sg26
I0
sg62
I0
sg30
I0
sg39
I0
sg61
I0
sg36
I0
sg35
I0
sg9
I0
sg44
I0
sg25
I0
sg47
I0
sg40
I0
sg29
I0
sg48
I0
sg50
I0
sg16
I0
sg60
I0
sg59
I0
sg58
I0
sg41
I0
sg46
I0
sg43
I0
sg13
I0
sg12
I0
sg8
I0
sg34
I0
sg31
I0
sg15
I0
sg17
I0
sg45
I0
sg33
I0
sg55
I0
sg52
I0
sg24
I0
sg53
I0
sg23
I0
sg56
I0
sg11
I0
sg21
I0
sg54
I0
sg20
I0
sg27
I0
sg37
I10
sg19
I0
sg18
I0
sg38
I0
sg57
I0
sg14
I0
sg42
I0
ssg19
(dp244
g32
I0
sg22
I0
sg10
I0
sg29
I0
sg218
I0
sg26
I0
sg62
I0
sg30
I0
sg39
I0
sg61
I0
sg36
I0
sg35
I0
sg9
I0
sg219
I0
sg25
I0
sg220
I0
sg40
I0
sg221
I0
sg222
I0
sg16
I0
sg60
I0
sg59
I0
sg58
I0
sg223
I0
sg224
I0
sg225
I0
sg13
I0
sg12
I0
sg8
I0
sg34
I0
sg31
I0
sg15
I0
sg17
I0
sg226
I0
sg33
I0
sg86
I0
sg227
I0
sg24
I0
sg87
I0
sg28
I0
sg23
I0
sg88
I0
sg11
I0
sg21
I0
sg89
I0
sg20
I0
sg27
I0
sg37
I0
sg19
I0
sg18
I0
sg38
I0
sg57
I0
sg14
I0
sg228
I0
ssg18
(dp245
g32
I0
sg22
I0
sg10
I0
sg29
I0
sg218
I0
sg26
I0
sg62
I0
sg30
I0
sg39
I0
sg61
I0
sg36
I0
sg35
I0
sg9
I0
sg219
I0
sg25
I0
sg220
I0
sg40
I0
sg221
I0
sg222
I0
sg16
I0
sg60
I0
sg59
I0
sg58
I0
sg223
I0
sg224
I0
sg225
I0
sg13
I0
sg12
I0
sg8
I0
sg34
I0
sg31
I0
sg15
I0
sg17
I0
sg226
I0
sg33
I0
sg86
I0
sg227
I0
sg24
I0
sg87
I0
sg28
I0
sg23
I0
sg88
I0
sg11
I0
sg21
I0
sg89
I0
sg20
I0
sg27
I0
sg37
I0
sg19
I5
sg18
I0
sg38
I0
sg57
I0
sg14
I0
sg228
I0
ssg38
(dp246
g32
I0
sg22
I0
sg10
I0
sg28
I0
sg51
I0
sg49
I0
sg26
I0
sg30
I0
sg39
I5
sg36
I0
sg35
I0
sg9
I0
sg44
I0
sg25
I0
sg47
I0
sg40
I0
sg29
I0
sg48
I0
sg50
I0
sg16
I0
sg41
I0
sg46
I0
sg43
I0
sg13
I0
sg12
I0
sg8
I0
sg34
I0
sg31
I0
sg15
I0
sg17
I0
sg45
I0
sg33
I0
sg55
I0
sg52
I0
sg24
I0
sg53
I0
sg23
I0
sg56
I0
sg11
I0
sg21
I0
sg54
I0
sg20
I0
sg27
I0
sg37
I0
sg19
I0
sg18
I0
sg38
I0
sg14
I0
sg42
I0
ssg57
(dp247
g141
I0
sg142
I0
sg143
I0
sg144
I0
sg145
I0
sg146
I0
sg147
I0
sg62
I0
sg148
I0
sg86
I0
sg61
I0
sg149
I0
sg150
I0
sg151
I0
sg152
I0
sg153
I0
sg154
I0
sg155
I0
sg156
I0
sg157
I0
sg158
I0
sg60
I0
sg59
I0
sg159
I0
sg160
I0
sg161
I0
sg162
I0
sg163
I0
sg164
I0
sg165
I0
sg166
I0
sg167
I0
sg168
I0
sg169
I0
sg170
I0
sg171
I0
sg172
I0
sg173
I0
sg87
I0
sg174
I0
sg88
I0
sg175
I0
sg176
I0
sg89
I0
sg177
I0
sg178
I0
sg179
I0
sg180
I0
sg58
I5
sg181
I0
sg57
I0
sg182
I0
ssg14
(dp248
g32
I0
sg22
I0
sg10
I0
sg29
I0
sg67
I0
sg68
I0
sg26
I0
sg62
I0
sg30
I0
sg39
I0
sg61
I0
sg36
I0
sg35
I0
sg9
I0
sg71
I0
sg25
I0
sg72
I0
sg40
I0
sg73
I0
sg74
I0
sg16
I0
sg60
I0
sg59
I0
sg58
I0
sg78
I0
sg79
I0
sg80
I0
sg13
I0
sg12
I0
sg8
I0
sg34
I0
sg31
I0
sg15
I0
sg17
I0
sg81
I0
sg33
I0
sg86
I0
sg82
I0
sg24
I0
sg87
I0
sg28
I0
sg23
I0
sg88
I0
sg11
I0
sg21
I0
sg89
I0
sg20
I0
sg27
I0
sg37
I0
sg19
I0
sg18
I0
sg38
I0
sg57
I0
sg14
I10
sg84
I0
ssg42
(dp249
g129
I0
sg42
I0
sg95
I0
sg94
I0
sg51
I0
sg49
I0
sg130
I0
sg131
I0
sg190
I0
sg52
I0
sg105
I0
sg191
I0
sg99
I0
sg100
I0
sg101
I0
sg44
I0
sg102
I0
sg47
I0
sg132
I0
sg48
I0
sg50
I0
sg97
I0
sg192
I0
sg193
I0
sg194
I0
sg41
I0
sg43
I0
sg109
I0
sg46
I0
sg110
I0
sg195
I0
sg133
I0
sg134
I0
sg114
I0
sg196
I0
sg45
I0
sg55
I0
sg116
I0
sg53
I0
sg135
I0
sg56
I0
sg118
I0
sg54
I0
sg119
I0
sg120
I0
sg121
I0
sg197
I0
sg198
I0
sg124
I0
sg136
I0
sg137
I0
sg126
I0
sg138
I0
sssb.