ccopy_reg
_reconstructor
p0
(cutils.eval
ConfusionMatrix
p1
c__builtin__
object
p2
Ntp3
Rp4
(dp5
S'labels'
p6
(lp7
S'put.v.01'
p8
aS'invest.v.01'
p9
aS'pan.n.03'
p10
aS'pan.n.01'
p11
aS'pizza.n.01'
p12
aS'cake.n.03'
p13
aS'patty.n.01'
p14
aS'whipped_cream.n.01'
p15
aS'cut.v.01'
p16
aS'swerve.v.01'
p17
aS'meat.n.01'
p18
aS'kernel.n.01'
p19
aS'cleaver.n.01'
p20
aS'frame.v.04'
p21
aS'pepper.n.03'
p22
aS'pepper.n.04'
p23
aS'salt.n.02'
p24
aS'egg.n.02'
p25
aS'testis.n.01'
p26
aS'bread.n.01'
p27
aS'knife.n.01'
p28
aS'fill.v.01'
p29
aS'fill.v.09'
p30
aS'water.n.06'
p31
aS'water.n.03'
p32
aS'bacon.n.01'
p33
aS'bacon.n.03'
p34
aS'chicken.n.01'
p35
aS'piece.n.08'
p36
aS'slice.n.01'
p37
aS'slice.v.03'
p38
aS'slice.v.02'
p39
aS'foam.n.01'
p40
aS'mug.n.04'
p41
asS'instanceCount'
p42
I30
sS'matrix'
p43
(dp44
g9
(dp45
g9
I0
ssg17
(dp46
g17
I0
ssg19
(dp47
g19
I0
ssg34
(dp48
g34
I0
ssg27
(dp49
S'bread.n.01'
p50
I1
ssg35
(dp51
S'chicken.n.01'
p52
I1
ssg14
(dp53
g14
I0
ssg11
(dp54
g11
I1
ssg10
(dp55
g11
I2
ssg16
(dp56
g17
I3
ssg21
(dp57
g21
I0
ssg30
(dp58
g30
I0
ssg25
(dp59
g26
I1
ssg26
(dp60
g26
I0
ssg33
(dp61
g34
I1
ssg29
(dp62
g30
I2
ssg18
(dp63
g19
I1
ssg20
(dp64
S'cleaver.n.01'
p65
I1
ssg39
(dp66
g39
I0
ssg24
(dp67
S'salt.n.02'
p68
I1
ssg28
(dp69
S'knife.n.01'
p70
I1
ssg23
(dp71
g23
I0
ssg22
(dp72
g23
I1
ssg40
(dp73
S'foam.n.01'
p74
I1
ssg15
(dp75
S'whipped_cream.n.01'
p76
I1
ssg36
(dp77
g37
I1
ssg41
(dp78
S'mug.n.04'
p79
I1
ssg32
(dp80
g32
I0
ssg37
(dp81
g37
I0
ssg31
(dp82
g32
I1
ssg8
(dp83
g9
I3
sg21
I1
ssg12
(dp84
S'pizza.n.01'
p85
I2
ssg13
(dp86
g14
I1
ssg38
(dp87
g39
I1
sssb.