ccopy_reg
_reconstructor
p0
(cutils.eval
ConfusionMatrix
p1
c__builtin__
object
p2
Ntp3
Rp4
(dp5
S'labels'
p6
(lp7
S'cut.v.01'
p8
aS'swerve.v.01'
p9
aS'meat.n.01'
p10
aS'kernel.n.01'
p11
aS'cleaver.n.01'
p12
aS'put.v.01'
p13
aS'frame.v.04'
p14
aS'pepper.n.03'
p15
aS'pepper.n.04'
p16
aS'salt.n.02'
p17
aS'egg.n.02'
p18
aS'testis.n.01'
p19
aS'bread.n.01'
p20
aS'knife.n.01'
p21
aS'fill.v.01'
p22
aS'fill.v.09'
p23
aS'pan.n.01'
p24
aS'water.n.06'
p25
aS'water.n.03'
p26
aS'bacon.n.01'
p27
aS'bacon.n.03'
p28
aS'invest.v.01'
p29
aS'pan.n.03'
p30
aS'chicken.n.01'
p31
aS'piece.n.08'
p32
aS'slice.n.01'
p33
aS'pizza.n.01'
p34
aS'slice.v.03'
p35
aS'slice.v.02'
p36
aS'foam.n.01'
p37
aS'mug.n.04'
p38
aS'lemon.n.01'
p39
aS'lemon.n.04'
p40
aS'pitcher.n.02'
p41
aS'pitcher.n.03'
p42
aS'milk.n.01'
p43
aS'milk.n.04'
p44
asS'instanceCount'
p45
I29
sS'matrix'
p46
(dp47
g11
(dp48
g11
I0
ssg9
(dp49
g9
I0
ssg29
(dp50
g29
I0
ssg19
(dp51
g19
I0
ssg20
(dp52
S'bread.n.01'
p53
I1
ssg44
(dp54
g44
I0
ssg31
(dp55
S'chicken.n.01'
p56
I1
ssg37
(dp57
S'foam.n.01'
p58
I1
ssg43
(dp59
g44
I1
ssg24
(dp60
S'pan.n.01'
p61
I1
ssg30
(dp62
S'pan.n.01'
p63
I1
ssg8
(dp64
g9
I4
ssg14
(dp65
g14
I0
ssg23
(dp66
g23
I0
ssg18
(dp67
g19
I1
ssg28
(dp68
g28
I0
ssg27
(dp69
g28
I1
ssg22
(dp70
g23
I3
ssg42
(dp71
g42
I0
ssg41
(dp72
g42
I1
ssg10
(dp73
g11
I1
ssg12
(dp74
S'cleaver.n.01'
p75
I1
ssg36
(dp76
g36
I0
ssg17
(dp77
S'salt.n.02'
p78
I1
ssg21
(dp79
S'knife.n.01'
p80
I1
ssg16
(dp81
g16
I0
ssg15
(dp82
g16
I1
ssg32
(dp83
g33
I1
ssg38
(dp84
S'mug.n.04'
p85
I1
ssg26
(dp86
g26
I0
ssg33
(dp87
g33
I0
ssg25
(dp88
g26
I1
ssg13
(dp89
g29
I1
sg14
I1
ssg34
(dp90
S'pizza.n.01'
p91
I1
ssg40
(dp92
g40
I0
ssg39
(dp93
g40
I1
ssg35
(dp94
g36
I1
sssb.