ccopy_reg
_reconstructor
p0
(cutils.eval
ConfusionMatrix
p1
c__builtin__
object
p2
Ntp3
Rp4
(dp5
S'labels'
p6
(lp7
S'piece.n.08'
p8
aS'slice.n.01'
p9
aS'pizza.n.01'
p10
aS'slice.v.03'
p11
aS'slice.v.02'
p12
aS'fill.v.01'
p13
aS'fill.v.09'
p14
aS'foam.n.01'
p15
aS'mug.n.04'
p16
aS'cut.v.01'
p17
aS'swerve.v.01'
p18
aS'lemon.n.01'
p19
aS'lemon.n.04'
p20
aS'pitcher.n.02'
p21
aS'pitcher.n.03'
p22
aS'milk.n.01'
p23
aS'milk.n.04'
p24
aS'cabbage.n.01'
p25
aS'flesh.n.01'
p26
aS'onion.n.01'
p27
aS'pepper.n.04'
p28
aS'meet.v.04'
p29
aS'kettle.n.01'
p30
aS'kettle.n.02'
p31
aS'water.n.06'
p32
aS'water.n.03'
p33
aS'cheese.n.01'
p34
aS'opening.n.01'
p35
aS'gap.n.05'
p36
aS'batter.n.02'
p37
asS'instanceCount'
p38
I26
sS'matrix'
p39
(dp40
g34
(dp41
S'cheese.n.01'
p42
I1
ssg18
(dp43
g18
I0
ssg37
(dp44
S'batter.n.02'
p45
I1
ssg24
(dp46
g24
I0
ssg15
(dp47
S'foam.n.01'
p48
I1
ssg23
(dp49
g24
I1
ssg17
(dp50
g18
I2
ssg14
(dp51
g14
I1
ssg13
(dp52
g29
I1
sg14
I2
ssg22
(dp53
g22
I0
ssg21
(dp54
g22
I1
ssg30
(dp55
g31
I1
ssg12
(dp56
g12
I0
ssg11
(dp57
g12
I4
ssg25
(dp58
S'cabbage.n.01'
p59
I1
ssg28
(dp60
S'pepper.n.04'
p61
I1
ssg29
(dp62
g29
I0
ssg36
(dp63
g36
I0
ssg8
(dp64
g9
I1
ssg35
(dp65
g36
I1
ssg16
(dp66
S'mug.n.04'
p67
I1
ssg26
(dp68
S'flesh.n.01'
p69
I1
ssg33
(dp70
g33
I0
ssg9
(dp71
g9
I0
ssg32
(dp72
g33
I1
ssg10
(dp73
S'pizza.n.01'
p74
I1
ssg31
(dp75
g31
I0
ssg20
(dp76
g20
I0
ssg19
(dp77
g20
I1
ssg27
(dp78
S'onion.n.01'
p79
I1
sssb.