ccopy_reg
_reconstructor
p0
(cutils.eval
ConfusionMatrix
p1
c__builtin__
object
p2
Ntp3
Rp4
(dp5
S'labels'
p6
(lp7
S'slice.v.03'
p8
aS'slice.v.02'
p9
aS'onion.n.01'
p10
aS'pepper.n.04'
p11
aS'fill.v.01'
p12
aS'meet.v.04'
p13
aS'kettle.n.01'
p14
aS'kettle.n.02'
p15
aS'water.n.06'
p16
aS'water.n.03'
p17
aS'cheese.n.01'
p18
aS'opening.n.01'
p19
aS'gap.n.05'
p20
aS'fill.v.09'
p21
aS'batter.n.02'
p22
aS'put.v.01'
p23
aS'invest.v.01'
p24
aS'beef.n.02'
p25
aS'beef.n.01'
p26
aS'plate.n.04'
p27
aS'plate.n.12'
p28
aS'knife.n.01'
p29
aS'banana.n.02'
p30
aS'pan.n.03'
p31
aS'pan.n.01'
p32
aS'pizza.n.01'
p33
aS'cake.n.03'
p34
aS'patty.n.01'
p35
aS'whipped_cream.n.01'
p36
aS'cut.v.01'
p37
aS'swerve.v.01'
p38
aS'meat.n.01'
p39
aS'kernel.n.01'
p40
aS'cleaver.n.01'
p41
aS'frame.v.04'
p42
aS'pepper.n.03'
p43
aS'salt.n.02'
p44
aS'egg.n.02'
p45
aS'testis.n.01'
p46
asS'instanceCount'
p47
I31
sS'matrix'
p48
(dp49
g28
(dp50
g28
I0
ssg18
(dp51
S'cheese.n.01'
p52
I1
ssg26
(dp53
g26
I0
ssg25
(dp54
g26
I1
ssg22
(dp55
S'batter.n.02'
p56
I1
ssg38
(dp57
g38
I0
ssg35
(dp58
g35
I0
ssg32
(dp59
g32
I0
ssg37
(dp60
g38
I1
ssg31
(dp61
g32
I1
ssg20
(dp62
g20
I0
ssg42
(dp63
g42
I0
ssg21
(dp64
S'fill.v.09'
p65
I1
ssg45
(dp66
g46
I1
ssg46
(dp67
g46
I0
ssg12
(dp68
g13
I1
ssg39
(dp69
g40
I1
ssg44
(dp70
S'salt.n.02'
p71
I1
ssg41
(dp72
S'cleaver.n.01'
p73
I1
ssg9
(dp74
g9
I0
ssg8
(dp75
g9
I3
ssg29
(dp76
S'knife.n.01'
p77
I1
ssg30
(dp78
S'banana.n.02'
p79
I1
ssg27
(dp80
g28
I1
ssg11
(dp81
S'pepper.n.04'
p82
I1
ssg13
(dp83
g13
I0
ssg43
(dp84
S'pepper.n.04'
p85
I1
ssg36
(dp86
S'whipped_cream.n.01'
p87
I1
ssg24
(dp88
g24
I0
ssg19
(dp89
g20
I1
ssg17
(dp90
g17
I0
ssg16
(dp91
g17
I1
ssg23
(dp92
g24
I3
sg42
I1
ssg33
(dp93
S'pizza.n.01'
p94
I1
ssg15
(dp95
g15
I0
ssg14
(dp96
g15
I1
ssg34
(dp97
g35
I1
ssg10
(dp98
S'onion.n.01'
p99
I2
ssg40
(dp100
g40
I0
sssb.