ccopy_reg
_reconstructor
p0
(cutils.eval
ConfusionMatrix
p1
c__builtin__
object
p2
Ntp3
Rp4
(dp5
S'labels'
p6
(lp7
S'cut.v.01'
p8
aS'swerve.v.01'
p9
aS'bread.n.01'
p10
aS'knife.n.01'
p11
aS'fill.v.01'
p12
aS'fill.v.09'
p13
aS'pan.n.01'
p14
aS'water.n.06'
p15
aS'water.n.03'
p16
aS'bacon.n.01'
p17
aS'bacon.n.03'
p18
aS'put.v.01'
p19
aS'invest.v.01'
p20
aS'pan.n.03'
p21
aS'chicken.n.01'
p22
aS'piece.n.08'
p23
aS'slice.n.01'
p24
aS'pizza.n.01'
p25
aS'slice.v.03'
p26
aS'slice.v.02'
p27
aS'foam.n.01'
p28
aS'mug.n.04'
p29
aS'lemon.n.01'
p30
aS'lemon.n.04'
p31
aS'pitcher.n.02'
p32
aS'pitcher.n.03'
p33
aS'milk.n.01'
p34
aS'milk.n.04'
p35
aS'cabbage.n.01'
p36
aS'flesh.n.01'
p37
asS'instanceCount'
p38
I26
sS'matrix'
p39
(dp40
g20
(dp41
g20
I0
ssg22
(dp42
S'chicken.n.01'
p43
I1
ssg10
(dp44
S'bread.n.01'
p45
I1
ssg35
(dp46
g35
I0
ssg9
(dp47
g9
I0
ssg28
(dp48
S'foam.n.01'
p49
I1
ssg34
(dp50
g35
I1
ssg14
(dp51
S'pan.n.01'
p52
I1
ssg21
(dp53
S'pan.n.01'
p54
I1
ssg8
(dp55
g9
I4
ssg13
(dp56
g13
I0
ssg36
(dp57
S'cabbage.n.01'
p58
I1
ssg18
(dp59
g18
I0
ssg17
(dp60
g18
I1
ssg12
(dp61
g13
I3
ssg33
(dp62
g33
I0
ssg32
(dp63
g33
I1
ssg27
(dp64
g27
I0
ssg26
(dp65
g27
I2
ssg11
(dp66
S'knife.n.01'
p67
I1
ssg23
(dp68
g24
I1
ssg29
(dp69
S'mug.n.04'
p70
I1
ssg37
(dp71
S'flesh.n.01'
p72
I1
ssg16
(dp73
g16
I0
ssg24
(dp74
g24
I0
ssg15
(dp75
g16
I1
ssg19
(dp76
g20
I1
ssg25
(dp77
S'pizza.n.01'
p78
I1
ssg31
(dp79
g31
I0
ssg30
(dp80
g31
I1
sssb.