ccopy_reg
_reconstructor
p0
(cutils.eval
ConfusionMatrix
p1
c__builtin__
object
p2
Ntp3
Rp4
(dp5
S'labels'
p6
(lp7
S'cut.v.01'
p8
aS'swerve.v.01'
p9
aS'lemon.n.01'
p10
aS'lemon.n.04'
p11
aS'fill.v.01'
p12
aS'fill.v.09'
p13
aS'pitcher.n.02'
p14
aS'pitcher.n.03'
p15
aS'milk.n.01'
p16
aS'milk.n.04'
p17
aS'cabbage.n.01'
p18
aS'flesh.n.01'
p19
aS'slice.v.03'
p20
aS'slice.v.02'
p21
aS'onion.n.01'
p22
aS'pepper.n.04'
p23
aS'meet.v.04'
p24
aS'kettle.n.01'
p25
aS'kettle.n.02'
p26
aS'water.n.06'
p27
aS'water.n.03'
p28
aS'cheese.n.01'
p29
aS'opening.n.01'
p30
aS'gap.n.05'
p31
aS'batter.n.02'
p32
aS'put.v.01'
p33
aS'invest.v.01'
p34
aS'beef.n.02'
p35
aS'beef.n.01'
p36
aS'plate.n.04'
p37
aS'plate.n.12'
p38
aS'knife.n.01'
p39
aS'banana.n.02'
p40
asS'instanceCount'
p41
I27
sS'matrix'
p42
(dp43
g38
(dp44
g38
I0
ssg29
(dp45
S'cheese.n.01'
p46
I1
ssg9
(dp47
g9
I0
ssg34
(dp48
g34
I0
ssg32
(dp49
S'batter.n.02'
p50
I1
ssg17
(dp51
g17
I0
ssg36
(dp52
g36
I0
ssg16
(dp53
g17
I1
ssg8
(dp54
g9
I2
ssg13
(dp55
g13
I1
ssg35
(dp56
g36
I1
ssg12
(dp57
g24
I1
sg13
I1
ssg15
(dp58
g15
I0
ssg14
(dp59
g15
I1
ssg25
(dp60
g26
I1
ssg21
(dp61
g21
I0
ssg20
(dp62
g21
I4
ssg18
(dp63
S'cabbage.n.01'
p64
I1
ssg40
(dp65
S'banana.n.02'
p66
I1
ssg37
(dp67
g38
I1
ssg23
(dp68
S'pepper.n.04'
p69
I1
ssg24
(dp70
g24
I0
ssg39
(dp71
S'knife.n.01'
p72
I1
ssg31
(dp73
g31
I0
ssg30
(dp74
g31
I1
ssg19
(dp75
S'flesh.n.01'
p76
I1
ssg28
(dp77
g28
I0
ssg27
(dp78
g28
I1
ssg33
(dp79
g34
I1
ssg26
(dp80
g26
I0
ssg11
(dp81
g11
I0
ssg10
(dp82
g11
I1
ssg22
(dp83
S'onion.n.01'
p84
I2
sssb.