ccopy_reg
_reconstructor
p0
(cutils.eval
ConfusionMatrix
p1
c__builtin__
object
p2
Ntp3
Rp4
(dp5
S'labels'
p6
(lp7
S'cheese.n.01'
p8
aS'slice.v.03'
p9
aS'slice.v.02'
p10
aS'opening.n.01'
p11
aS'gap.n.05'
p12
aS'fill.v.09'
p13
aS'batter.n.02'
p14
aS'put.v.01'
p15
aS'invest.v.01'
p16
aS'onion.n.01'
p17
aS'beef.n.02'
p18
aS'beef.n.01'
p19
aS'plate.n.04'
p20
aS'plate.n.12'
p21
aS'knife.n.01'
p22
aS'banana.n.02'
p23
aS'pan.n.03'
p24
aS'pan.n.01'
p25
aS'pizza.n.01'
p26
aS'cake.n.03'
p27
aS'patty.n.01'
p28
aS'whipped_cream.n.01'
p29
aS'cut.v.01'
p30
aS'swerve.v.01'
p31
aS'meat.n.01'
p32
aS'kernel.n.01'
p33
aS'cleaver.n.01'
p34
aS'frame.v.04'
p35
aS'pepper.n.03'
p36
aS'pepper.n.04'
p37
aS'salt.n.02'
p38
aS'egg.n.02'
p39
aS'testis.n.01'
p40
aS'bread.n.01'
p41
aS'fill.v.01'
p42
aS'water.n.06'
p43
aS'water.n.03'
p44
asS'instanceCount'
p45
I31
sS'matrix'
p46
(dp47
g21
(dp48
g21
I0
ssg8
(dp49
S'cheese.n.01'
p50
I1
ssg19
(dp51
g19
I0
ssg18
(dp52
g19
I1
ssg41
(dp53
S'bread.n.01'
p54
I1
ssg14
(dp55
S'batter.n.02'
p56
I1
ssg31
(dp57
g31
I0
ssg42
(dp58
S'fill.v.09'
p59
I1
ssg25
(dp60
g25
I1
ssg30
(dp61
g31
I2
ssg24
(dp62
g25
I1
ssg12
(dp63
g12
I0
ssg35
(dp64
g35
I0
ssg13
(dp65
S'fill.v.09'
p66
I1
ssg39
(dp67
g40
I1
ssg40
(dp68
g40
I0
ssg28
(dp69
g28
I0
ssg32
(dp70
g33
I1
ssg38
(dp71
S'salt.n.02'
p72
I1
ssg34
(dp73
S'cleaver.n.01'
p74
I1
ssg10
(dp75
g10
I0
ssg9
(dp76
g10
I2
ssg22
(dp77
S'knife.n.01'
p78
I2
ssg23
(dp79
S'banana.n.02'
p80
I1
ssg20
(dp81
g21
I1
ssg37
(dp82
g37
I0
ssg36
(dp83
g37
I1
ssg29
(dp84
S'whipped_cream.n.01'
p85
I1
ssg11
(dp86
g12
I1
ssg44
(dp87
g44
I0
ssg43
(dp88
g44
I1
ssg15
(dp89
g16
I3
sg35
I1
ssg26
(dp90
S'pizza.n.01'
p91
I1
ssg16
(dp92
g16
I0
ssg27
(dp93
g28
I1
ssg17
(dp94
S'onion.n.01'
p95
I1
ssg33
(dp96
g33
I0
sssb.