ccopy_reg
_reconstructor
p0
(cutils.eval
ConfusionMatrix
p1
c__builtin__
object
p2
Ntp3
Rp4
(dp5
S'labels'
p6
(lp7
S'fill.v.01'
p8
aS'pitcher.n.02'
p9
aS'milk.n.01'
p10
aS'teapot.n.01'
p11
aS'water.n.06'
p12
aS'thermos.n.01'
p13
aS'coffee.n.01'
p14
aS'saltcellar.n.01'
p15
aS'salt.n.02'
p16
aS'cup.n.01'
p17
aS'cola.n.02'
p18
aS'whiskey.n.01'
p19
aS'carafe.n.01'
p20
aS'pot.n.01'
p21
aS'measuring_cup.n.01'
p22
aS'meal.n.03'
p23
aS'glass.n.02'
p24
aS'jar.n.01'
p25
aS'gravy.n.01'
p26
aS'gravy.n.02'
p27
aS'bottle.n.01'
p28
aS'fruit_juice.n.01'
p29
aS'opening.n.01'
p30
aS'opening.n.10'
p31
aS'fill.v.09'
p32
aS'curd.n.01'
p33
aS'blender.n.01'
p34
aS'apple.n.01'
p35
aS'ice.n.01'
p36
aS'ice.n.05'
p37
aS'bowl.n.01'
p38
aS'kettle.n.01'
p39
aS'pan.n.01'
p40
aS'pan.n.03'
p41
aS'wok.n.01'
p42
aS'rice.n.01'
p43
aS'gap.n.03'
p44
aS'batter.n.02'
p45
aS'foam.n.01'
p46
aS'mug.n.04'
p47
asS'instanceCount'
p48
I118
sS'matrix'
p49
(dp50
g43
(dp51
g40
I0
sg47
I0
sg41
I0
sg44
I0
sS'fill.v.09'
p52
I0
sg42
I0
sg43
I2
sS'water.n.06'
p53
I0
sS'fill.v.01'
p54
I0
sS'kettle.n.01'
p55
I0
sg45
I0
sS'jar.n.01'
p56
I0
sg46
I0
sS'opening.n.01'
p57
I0
ssg32
(dp58
S'pan.n.01'
p59
I0
sg47
I0
sg29
I0
sS'teapot.n.01'
p60
I0
sg32
I0
sg28
I0
sS'rice.n.01'
p61
I0
sg44
I0
sS'water.n.06'
p62
I0
sS'fill.v.01'
p63
I4
sS'pitcher.n.02'
p64
I0
sg45
I0
sS'pan.n.03'
p65
I0
sg33
I0
sg31
I0
sg46
I0
sS'wok.n.01'
p66
I0
sS'milk.n.01'
p67
I0
sg30
I0
ssg45
(dp68
g59
I0
sg47
I0
sg65
I0
sg44
I0
sg52
I0
sg66
I0
sS'fruit_juice.n.01'
p69
I0
sg61
I0
sS'water.n.06'
p70
I0
sS'fill.v.01'
p71
I0
sS'bottle.n.01'
p72
I0
sg45
I2
sS'curd.n.01'
p73
I0
sS'opening.n.10'
p74
I0
sg46
I0
sg57
I0
ssg35
(dp75
S'cola.n.02'
p76
I0
sg34
I0
sS'pot.n.01'
p77
I0
sS'water.n.06'
p78
I0
sS'fill.v.01'
p79
I0
sg36
I0
sg38
I0
sg37
I0
sS'measuring_cup.n.01'
p80
I0
sg35
I2
sS'cup.n.01'
p81
I0
sS'carafe.n.01'
p82
I0
sS'whiskey.n.01'
p83
I0
sS'meal.n.03'
p84
I0
ssg31
(dp85
S'mug.n.04'
p86
I0
sg29
I0
sg60
I0
sg32
I0
sg28
I0
sS'gap.n.03'
p87
I0
sg62
I0
sg63
I0
sg64
I0
sS'batter.n.02'
p88
I0
sg33
I0
sg31
I0
sS'foam.n.01'
p89
I0
sg67
I0
sg30
I0
ssg17
(dp90
S'salt.n.02'
p91
I0
sg18
I0
sS'saltcellar.n.01'
p92
I0
sS'thermos.n.01'
p93
I0
sS'coffee.n.01'
p94
I0
sS'fill.v.01'
p95
I0
sS'ice.n.01'
p96
I0
sS'bowl.n.01'
p97
I0
sS'ice.n.05'
p98
I0
sS'apple.n.01'
p99
I0
sg17
I2
sg20
I0
sg19
I0
sS'blender.n.01'
p100
I0
ssg10
(dp101
g32
I0
sg31
I0
sg10
I4
sg15
I0
sg28
I0
sg21
I0
sg8
I0
sg9
I0
sg22
I0
sg24
I0
sg26
I0
sg16
I0
sg27
I0
sg14
I0
sg30
I0
sg29
I0
sg11
I0
sg13
I0
sg12
I0
sg39
I0
sg33
I0
sg25
I0
sg23
I0
ssg40
(dp102
g40
I0
sg47
I0
sg41
I2
sg44
I0
sg52
I0
sg42
I0
sg43
I0
sg53
I0
sg54
I0
sg55
I0
sg45
I0
sg56
I0
sg46
I0
sg57
I0
ssg38
(dp103
g76
I0
sg34
I0
sg77
I0
sg78
I0
sg79
I0
sg36
I0
sg38
I2
sg37
I0
sg80
I0
sg35
I0
sg81
I0
sg82
I0
sg83
I0
sg84
I0
ssg46
(dp104
g59
I0
sg47
I0
sg65
I0
sg44
I0
sg52
I0
sg66
I0
sg69
I0
sg61
I0
sg70
I0
sg71
I0
sg72
I0
sg45
I0
sg73
I0
sg74
I0
sg46
I2
sg57
I0
ssg18
(dp105
g91
I0
sg18
I2
sg92
I0
sg93
I0
sg94
I0
sg95
I0
sg96
I0
sg97
I0
sg98
I0
sg99
I0
sg17
I0
sg20
I0
sg19
I0
sg100
I0
ssg44
(dp106
g59
I0
sg47
I0
sg65
I0
sg44
I0
sg52
I0
sg66
I0
sg69
I0
sg61
I0
sg70
I0
sg71
I0
sg72
I0
sg45
I0
sg73
I0
sg74
I0
sg46
I0
sg57
I0
ssg15
(dp107
g16
I0
sg18
I0
sg11
I0
sg15
I2
sg13
I0
sg14
I0
sg12
I0
sg8
I0
sg9
I0
sg17
I0
sg20
I0
sg10
I0
sg19
I0
ssg28
(dp108
g86
I0
sg29
I0
sg60
I0
sg32
I0
sg28
I2
sg87
I0
sg62
I0
sg63
I0
sg64
I0
sg88
I0
sg33
I0
sg31
I0
sg89
I0
sg67
I0
sg30
I0
ssg21
(dp109
g26
I0
sg27
I0
sg34
I0
sg21
I2
sS'water.n.06'
p110
I0
sS'fill.v.01'
p111
I0
sg36
I0
sg38
I0
sg37
I0
sg35
I0
sg22
I0
sg25
I0
sS'milk.n.01'
p112
I0
sg24
I0
sg23
I0
ssg8
(dp113
g43
I0
sg32
I0
sg45
I0
sg35
I0
sg31
I0
sg17
I0
sg10
I0
sg40
I0
sg38
I0
sg46
I0
sg18
I0
sg44
I0
sg15
I0
sg28
I0
sg21
I0
sg8
I36
sg9
I0
sg22
I0
sg24
I0
sg26
I0
sg16
I0
sg27
I0
sg42
I0
sg14
I0
sg41
I0
sg19
I0
sg30
I0
sg47
I0
sg29
I0
sg11
I0
sg34
I0
sg13
I0
sg12
I0
sg36
I0
sg39
I0
sg37
I0
sg33
I0
sg25
I0
sg20
I0
sg23
I0
ssg9
(dp114
g16
I0
sg29
I0
sg11
I0
sg15
I0
sg28
I0
sg13
I0
sg14
I0
sg12
I0
sg8
I0
sg9
I2
sg32
I0
sg33
I0
sg31
I0
sg10
I0
sg30
I0
ssg22
(dp115
g26
I0
sg27
I0
sg34
I0
sg21
I0
sg110
I0
sg111
I0
sg36
I0
sg38
I0
sg37
I0
sg35
I0
sg22
I2
sg25
I0
sg112
I0
sg24
I0
sg23
I0
ssg24
(dp116
g26
I0
sg27
I0
sg21
I0
sg110
I0
sg111
I0
sg39
I0
sg22
I0
sg25
I0
sg112
I0
sg24
I2
sg23
I0
ssg26
(dp117
g26
I0
sg27
I2
sg21
I0
sg110
I0
sg111
I0
sg39
I0
sg22
I0
sg25
I0
sg112
I0
sg24
I0
sg23
I0
ssg16
(dp118
g16
I2
sg18
I0
sg11
I0
sg15
I0
sg13
I0
sg14
I0
sg12
I0
sg8
I0
sg9
I0
sg17
I0
sg20
I0
sg10
I0
sg19
I0
ssg27
(dp119
g26
I0
sg27
I0
sg21
I0
sg110
I0
sg111
I0
sg39
I0
sg22
I0
sg25
I0
sg112
I0
sg24
I0
sg23
I0
ssg42
(dp120
g40
I0
sg47
I0
sg41
I0
sg44
I0
sg52
I0
sg42
I2
sg43
I0
sg53
I0
sg54
I0
sg55
I0
sg45
I0
sg56
I0
sg46
I0
sg57
I0
ssg14
(dp121
g16
I0
sg18
I0
sg11
I0
sg15
I0
sg13
I0
sg14
I2
sg12
I0
sg8
I0
sg9
I0
sg17
I0
sg20
I0
sg10
I0
sg19
I0
ssg41
(dp122
g40
I0
sg47
I0
sg41
I0
sg44
I0
sg52
I0
sg42
I0
sg43
I0
sg53
I0
sg54
I0
sg55
I0
sg45
I0
sg56
I0
sg46
I0
sg57
I0
ssg19
(dp123
g91
I0
sg18
I0
sg92
I0
sg93
I0
sg94
I0
sg95
I0
sg96
I0
sg97
I0
sg98
I0
sg99
I0
sg17
I0
sg20
I0
sg19
I2
sg100
I0
ssg30
(dp124
g59
I0
sg47
I0
sg29
I0
sg60
I0
sg32
I0
sg28
I0
sg61
I0
sg44
I2
sg62
I0
sg63
I0
sg64
I0
sg45
I0
sg65
I0
sg33
I0
sg31
I2
sg46
I0
sg66
I0
sg67
I0
sg30
I0
ssg47
(dp125
g59
I0
sg47
I2
sg65
I0
sg44
I0
sg52
I0
sg66
I0
sg69
I0
sg61
I0
sg70
I0
sg71
I0
sg72
I0
sg45
I0
sg73
I0
sg74
I0
sg46
I0
sg57
I0
ssg29
(dp126
g86
I0
sg29
I2
sg60
I0
sg32
I0
sg28
I0
sg87
I0
sg62
I0
sg63
I0
sg64
I0
sg88
I0
sg33
I0
sg31
I0
sg89
I0
sg67
I0
sg30
I0
ssg11
(dp127
g16
I0
sg29
I0
sg11
I2
sg15
I0
sg28
I0
sg13
I0
sg14
I0
sg12
I0
sg8
I0
sg9
I0
sg32
I0
sg33
I0
sg31
I0
sg10
I0
sg30
I0
ssg34
(dp128
g76
I0
sg34
I2
sg77
I0
sg78
I0
sg79
I0
sg36
I0
sg38
I0
sg37
I0
sg80
I0
sg35
I0
sg81
I0
sg82
I0
sg83
I0
sg84
I0
ssg13
(dp129
g16
I0
sg18
I0
sg11
I0
sg15
I0
sg13
I2
sg14
I0
sg12
I0
sg8
I0
sg9
I0
sg17
I0
sg20
I0
sg10
I0
sg19
I0
ssg12
(dp130
g43
I0
sg32
I0
sg45
I0
sg35
I0
sg31
I0
sg46
I0
sg10
I0
sg40
I0
sg38
I0
sg44
I0
sg15
I0
sg28
I0
sg21
I0
sg8
I0
sg9
I0
sg22
I0
sg24
I0
sg26
I0
sg16
I0
sg27
I0
sg42
I0
sg14
I0
sg41
I0
sg30
I0
sg47
I0
sg29
I0
sg11
I0
sg34
I0
sg13
I0
sg12
I8
sg36
I0
sg39
I0
sg37
I0
sg33
I0
sg25
I0
sg23
I0
ssg36
(dp131
g76
I0
sg34
I0
sg77
I0
sg78
I0
sg79
I0
sg36
I0
sg38
I0
sg37
I2
sg80
I0
sg35
I0
sg81
I0
sg82
I0
sg83
I0
sg84
I0
ssg39
(dp132
S'gravy.n.01'
p133
I0
sg40
I0
sg41
I0
sS'gravy.n.02'
p134
I0
sg42
I0
sg43
I0
sS'water.n.06'
p135
I0
sS'fill.v.01'
p136
I0
sg39
I2
sS'jar.n.01'
p137
I0
sS'milk.n.01'
p138
I0
sS'glass.n.02'
p139
I0
ssg37
(dp140
g76
I0
sg34
I0
sg77
I0
sg78
I0
sg79
I0
sg36
I0
sg38
I0
sg37
I0
sg80
I0
sg35
I0
sg81
I0
sg82
I0
sg83
I0
sg84
I0
ssg33
(dp141
g86
I0
sg29
I0
sg60
I0
sg32
I0
sg28
I0
sg87
I0
sg62
I0
sg63
I0
sg64
I0
sg88
I0
sg33
I2
sg31
I0
sg89
I0
sg67
I0
sg30
I0
ssg25
(dp142
g26
I0
sg40
I0
sg41
I0
sg27
I0
sg42
I0
sg43
I0
sg21
I0
sg110
I0
sg111
I0
sg39
I0
sg22
I0
sg25
I4
sg112
I0
sg24
I0
sg23
I0
ssg20
(dp143
g91
I0
sg18
I0
sg92
I0
sg93
I0
sg94
I0
sg95
I0
sg96
I0
sg97
I0
sg98
I0
sg99
I0
sg17
I0
sg20
I2
sg19
I0
sg100
I0
ssg23
(dp144
g26
I0
sg27
I0
sg34
I0
sg21
I0
sg110
I0
sg111
I0
sg36
I0
sg38
I0
sg37
I0
sg35
I0
sg22
I0
sg25
I0
sg112
I0
sg24
I0
sg23
I2
sssb.