ccopy_reg
_reconstructor
p0
(cutils.eval
ConfusionMatrix
p1
c__builtin__
object
p2
Ntp3
Rp4
(dp5
S'labels'
p6
(lp7
S'fill.v.01'
p8
aS'thermos.n.01'
p9
aS'coffee.n.01'
p10
aS'saltcellar.n.01'
p11
aS'salt.n.02'
p12
aS'cup.n.01'
p13
aS'cola.n.02'
p14
aS'whiskey.n.01'
p15
aS'carafe.n.01'
p16
asS'instanceCount'
p17
I12
sS'matrix'
p18
(dp19
g12
(dp20
S'salt.n.02'
p21
I1
ssg14
(dp22
S'cola.n.02'
p23
I1
ssg11
(dp24
S'saltcellar.n.01'
p25
I1
ssg9
(dp26
S'thermos.n.01'
p27
I1
ssg10
(dp28
S'coffee.n.01'
p29
I1
ssg13
(dp30
S'cup.n.01'
p31
I1
ssg8
(dp32
S'fill.v.01'
p33
I4
ssg16
(dp34
S'carafe.n.01'
p35
I1
ssg15
(dp36
S'whiskey.n.01'
p37
I1
sssb.