ccopy_reg
_reconstructor
p0
(cutils.eval
ConfusionMatrix
p1
c__builtin__
object
p2
Ntp3
Rp4
(dp5
S'labels'
p6
(lp7
S'fill.v.01'
p8
aS'blender.n.01'
p9
aS'apple.n.01'
p10
aS'ice.n.01'
p11
aS'ice.n.05'
p12
aS'bowl.n.01'
p13
aS'pot.n.01'
p14
aS'water.n.06'
p15
aS'measuring_cup.n.01'
p16
aS'meal.n.03'
p17
asS'instanceCount'
p18
I12
sS'matrix'
p19
(dp20
g9
(dp21
S'blender.n.01'
p22
I1
ssg14
(dp23
S'pot.n.01'
p24
I1
ssg15
(dp25
S'water.n.06'
p26
I1
ssg8
(dp27
S'fill.v.01'
p28
I4
ssg11
(dp29
g12
I1
ssg13
(dp30
S'bowl.n.01'
p31
I1
ssg12
(dp32
g12
I0
ssg16
(dp33
S'measuring_cup.n.01'
p34
I1
ssg10
(dp35
S'apple.n.01'
p36
I1
ssg17
(dp37
S'meal.n.03'
p38
I1
sssb.