ccopy_reg
_reconstructor
p0
(cutils.eval
ConfusionMatrix
p1
c__builtin__
object
p2
Ntp3
Rp4
(dp5
S'labels'
p6
(lp7
S'opening.n.01'
p8
aS'gap.n.03'
p9
aS'fill.v.09'
p10
aS'fill.v.01'
p11
aS'batter.n.02'
p12
aS'foam.n.01'
p13
aS'mug.n.04'
p14
aS'bottle.n.01'
p15
aS'fruit_juice.n.01'
p16
aS'opening.n.10'
p17
aS'curd.n.01'
p18
asS'instanceCount'
p19
I12
sS'matrix'
p20
(dp21
g14
(dp22
S'mug.n.04'
p23
I1
ssg16
(dp24
S'fruit_juice.n.01'
p25
I1
ssg9
(dp26
g9
I0
ssg10
(dp27
g11
I2
ssg15
(dp28
S'bottle.n.01'
p29
I1
ssg11
(dp30
g11
I2
ssg12
(dp31
S'batter.n.02'
p32
I1
ssg18
(dp33
S'curd.n.01'
p34
I1
ssg17
(dp35
g17
I0
ssg13
(dp36
S'foam.n.01'
p37
I1
ssg8
(dp38
g17
I1
sg9
I1
sssb.