ccopy_reg
_reconstructor
p0
(cutils.eval
ConfusionMatrix
p1
c__builtin__
object
p2
Ntp3
Rp4
(dp5
S'labels'
p6
(lp7
S'stir.v.08'
p8
aS'stir.v.01'
p9
aS'egg.n.02'
p10
aS'whiskey.n.01'
p11
aS'milk.n.01'
p12
aS'tomato.n.01'
p13
asS'instanceCount'
p14
I8
sS'matrix'
p15
(dp16
g10
(dp17
S'egg.n.02'
p18
I1
ssg13
(dp19
S'tomato.n.01'
p20
I1
ssg12
(dp21
S'milk.n.01'
p22
I1
ssg8
(dp23
g9
I1
sS'stir.v.08'
p24
I1
ssg9
(dp25
g9
I2
ssg11
(dp26
S'whiskey.n.01'
p27
I1
sssb.