ccopy_reg
_reconstructor
p0
(cutils.eval
ConfusionMatrix
p1
c__builtin__
object
p2
Ntp3
Rp4
(dp5
S'labels'
p6
(lp7
S'stir.v.01'
p8
aS'milk.n.01'
p9
aS'stir.v.08'
p10
aS'tomato.n.01'
p11
aS'butter.n.01'
p12
aS'champagne.n.01'
p13
asS'instanceCount'
p14
I8
sS'matrix'
p15
(dp16
g11
(dp17
S'tomato.n.01'
p18
I1
ssg12
(dp19
S'butter.n.01'
p20
I1
ssg13
(dp21
S'champagne.n.01'
p22
I1
ssg10
(dp23
S'stir.v.08'
p24
I2
ssg8
(dp25
S'stir.v.01'
p26
I2
ssg9
(dp27
S'milk.n.01'
p28
I1
sssb.