ccopy_reg
_reconstructor
p0
(cutils.eval
ConfusionMatrix
p1
c__builtin__
object
p2
Ntp3
Rp4
(dp5
S'labels'
p6
(lp7
S'stir.v.08'
p8
aS'peanut.n.04'
p9
aS'peanut.n.03'
p10
aS'stir.v.01'
p11
aS'tea.n.01'
p12
aS'sugar.n.01'
p13
aS'coffee.n.01'
p14
asS'instanceCount'
p15
I8
sS'matrix'
p16
(dp17
g14
(dp18
S'coffee.n.01'
p19
I1
ssg8
(dp20
S'stir.v.08'
p21
I2
ssg11
(dp22
S'stir.v.01'
p23
I2
ssg10
(dp24
g10
I0
ssg9
(dp25
g10
I1
ssg12
(dp26
S'tea.n.01'
p27
I1
ssg13
(dp28
S'sugar.n.01'
p29
I1
sssb.