ccopy_reg
_reconstructor
p0
(cutils.eval
ConfusionMatrix
p1
c__builtin__
object
p2
Ntp3
Rp4
(dp5
S'labels'
p6
(lp7
S'stir.v.01'
p8
aS'water.n.06'
p9
aS'juice.n.01'
p10
aS'fruit_juice.n.01'
p11
aS'stir.v.08'
p12
aS'cream.n.02'
p13
aS'salt.n.02'
p14
asS'instanceCount'
p15
I8
sS'matrix'
p16
(dp17
g14
(dp18
S'salt.n.02'
p19
I1
ssg11
(dp20
g11
I0
ssg13
(dp21
S'cream.n.02'
p22
I1
ssg9
(dp23
S'water.n.06'
p24
I1
ssg12
(dp25
S'stir.v.01'
p26
I1
sS'stir.v.08'
p27
I1
ssg8
(dp28
S'stir.v.01'
p29
I2
ssg10
(dp30
g11
I1
sssb.