ccopy_reg
_reconstructor
p0
(cutils.eval
ConfusionMatrix
p1
c__builtin__
object
p2
Ntp3
Rp4
(dp5
S'labels'
p6
(lp7
S'vegetable.n.01'
p8
aS'stir.v.08'
p9
aS'banana.n.02'
p10
aS'stir.v.01'
p11
aS'wine.n.01'
p12
aS'cappuccino.n.01'
p13
asS'instanceCount'
p14
I8
sS'matrix'
p15
(dp16
g8
(dp17
S'vegetable.n.01'
p18
I1
ssg10
(dp19
S'banana.n.02'
p20
I1
ssg12
(dp21
S'wine.n.01'
p22
I1
ssg13
(dp23
S'cappuccino.n.01'
p24
I1
ssg9
(dp25
S'stir.v.08'
p26
I2
ssg11
(dp27
S'stir.v.01'
p28
I2
sssb.