ccopy_reg
_reconstructor
p0
(cutils.eval
ConfusionMatrix
p1
c__builtin__
object
p2
Ntp3
Rp4
(dp5
S'labels'
p6
(lp7
S'stir.v.08'
p8
aS'butter.n.01'
p9
aS'stir.v.01'
p10
aS'champagne.n.01'
p11
aS'water.n.06'
p12
aS'juice.n.01'
p13
aS'fruit_juice.n.01'
p14
asS'instanceCount'
p15
I8
sS'matrix'
p16
(dp17
g14
(dp18
g14
I0
ssg9
(dp19
S'butter.n.01'
p20
I1
ssg12
(dp21
S'water.n.06'
p22
I1
ssg11
(dp23
S'champagne.n.01'
p24
I1
ssg8
(dp25
S'stir.v.08'
p26
I1
ssg10
(dp27
S'stir.v.01'
p28
I3
ssg13
(dp29
g14
I1
sssb.