ccopy_reg
_reconstructor
p0
(cutils.eval
ConfusionMatrix
p1
c__builtin__
object
p2
Ntp3
Rp4
(dp5
S'labels'
p6
(lp7
S'stir.v.08'
p8
aS'stir.v.01'
p9
aS'cream.n.02'
p10
aS'salt.n.02'
p11
aS'vegetable.n.01'
p12
aS'banana.n.02'
p13
asS'instanceCount'
p14
I8
sS'matrix'
p15
(dp16
g11
(dp17
S'salt.n.02'
p18
I1
ssg12
(dp19
S'vegetable.n.01'
p20
I1
ssg13
(dp21
S'banana.n.02'
p22
I1
ssg10
(dp23
S'cream.n.02'
p24
I1
ssg8
(dp25
g9
I1
sS'stir.v.08'
p26
I3
ssg9
(dp27
g9
I0
sssb.