ccopy_reg
_reconstructor
p0
(cutils.eval
ConfusionMatrix
p1
c__builtin__
object
p2
Ntp3
Rp4
(dp5
S'labels'
p6
(lp7
S'stir.v.01'
p8
aS'coca_cola.n.01'
p9
aS'stir.v.08'
p10
aS'apple.n.01'
p11
aS'egg.n.02'
p12
aS'whiskey.n.01'
p13
asS'instanceCount'
p14
I8
sS'matrix'
p15
(dp16
g12
(dp17
S'egg.n.02'
p18
I1
ssg10
(dp19
S'stir.v.01'
p20
I1
sS'stir.v.08'
p21
I1
ssg11
(dp22
S'apple.n.01'
p23
I1
ssg8
(dp24
S'stir.v.01'
p25
I2
ssg9
(dp26
S'coca_cola.n.01'
p27
I1
ssg13
(dp28
S'whiskey.n.01'
p29
I1
sssb.