ccopy_reg
_reconstructor
p0
(cutils.eval
ConfusionMatrix
p1
c__builtin__
object
p2
Ntp3
Rp4
(dp5
S'labels'
p6
(lp7
S'cut.v.01'
p8
aS'bacon.n.01'
p9
aS'bread.n.01'
p10
aS'knife.n.01'
p11
aS'mushroom.n.05'
p12
aS'zucchini.n.01'
p13
aS'zucchini.n.02'
p14
aS'flesh.n.01'
p15
aS'human_body.n.01'
p16
aS'banana.n.02'
p17
aS'vegetable.n.01'
p18
aS'olive.n.01'
p19
aS'olive.n.04'
p20
aS'lemon.n.01'
p21
aS'egg.n.02'
p22
aS'piece.n.08'
p23
aS'slice.n.06'
p24
aS'cabbage.n.01'
p25
aS'orange.n.01'
p26
asS'instanceCount'
p27
I29
sS'matrix'
p28
(dp29
g12
(dp30
S'mushroom.n.05'
p31
I1
ssg18
(dp32
S'vegetable.n.01'
p33
I1
ssg8
(dp34
S'cut.v.01'
p35
I12
ssg11
(dp36
S'knife.n.01'
p37
I3
ssg17
(dp38
S'banana.n.02'
p39
I1
ssg15
(dp40
g16
I1
ssg22
(dp41
S'egg.n.02'
p42
I1
ssg20
(dp43
g20
I0
ssg24
(dp44
g24
I0
ssg19
(dp45
g20
I1
ssg9
(dp46
S'bacon.n.01'
p47
I1
ssg10
(dp48
S'bread.n.01'
p49
I1
ssg16
(dp50
g16
I0
ssg14
(dp51
g14
I0
ssg21
(dp52
S'lemon.n.01'
p53
I1
ssg13
(dp54
g14
I1
ssg25
(dp55
S'cabbage.n.01'
p56
I1
ssg23
(dp57
g24
I2
ssg26
(dp58
S'orange.n.01'
p59
I1
sssb.