ccopy_reg
_reconstructor
p0
(cutils.eval
ConfusionMatrix
p1
c__builtin__
object
p2
Ntp3
Rp4
(dp5
S'labels'
p6
(lp7
S'cut.v.01'
p8
aS'flesh.n.01'
p9
aS'human_body.n.01'
p10
aS'knife.n.01'
p11
aS'banana.n.02'
p12
aS'vegetable.n.01'
p13
aS'olive.n.01'
p14
aS'olive.n.04'
p15
aS'lemon.n.01'
p16
aS'egg.n.02'
p17
aS'piece.n.08'
p18
aS'slice.n.06'
p19
aS'cabbage.n.01'
p20
aS'orange.n.01'
p21
aS'potato.n.01'
p22
aS'tomato.n.01'
p23
aS'pizza.n.01'
p24
aS'fork.n.01'
p25
aS'fork.n.04'
p26
aS'cake.n.03'
p27
asS'instanceCount'
p28
I32
sS'matrix'
p29
(dp30
g13
(dp31
S'vegetable.n.01'
p32
I1
ssg8
(dp33
S'cut.v.01'
p34
I12
ssg11
(dp35
S'knife.n.01'
p36
I3
ssg12
(dp37
S'banana.n.02'
p38
I1
ssg9
(dp39
g10
I1
ssg17
(dp40
S'egg.n.02'
p41
I1
ssg23
(dp42
S'tomato.n.01'
p43
I1
ssg15
(dp44
g15
I0
ssg19
(dp45
g19
I0
ssg14
(dp46
g15
I1
ssg21
(dp47
S'orange.n.01'
p48
I1
ssg24
(dp49
S'pizza.n.01'
p50
I1
ssg10
(dp51
g10
I0
ssg26
(dp52
g26
I0
ssg27
(dp53
S'cake.n.03'
p54
I1
ssg25
(dp55
g26
I1
ssg16
(dp56
S'lemon.n.01'
p57
I1
ssg22
(dp58
S'potato.n.01'
p59
I1
ssg20
(dp60
S'cabbage.n.01'
p61
I1
ssg18
(dp62
g19
I4
sssb.