ccopy_reg
_reconstructor
p0
(cutils.eval
ConfusionMatrix
p1
c__builtin__
object
p2
Ntp3
Rp4
(dp5
S'labels'
p6
(lp7
S'cut.v.01'
p8
aS'lemon.n.01'
p9
aS'egg.n.02'
p10
aS'piece.n.08'
p11
aS'slice.n.06'
p12
aS'cabbage.n.01'
p13
aS'orange.n.01'
p14
aS'potato.n.01'
p15
aS'tomato.n.01'
p16
aS'knife.n.01'
p17
aS'pizza.n.01'
p18
aS'fork.n.01'
p19
aS'fork.n.04'
p20
aS'cake.n.03'
p21
aS'cheese.n.01'
p22
aS'meat.n.01'
p23
aS'cleaver.n.01'
p24
aS'green_onion.n.01'
p25
asS'instanceCount'
p26
I32
sS'matrix'
p27
(dp28
g22
(dp29
S'cheese.n.01'
p30
I1
ssg8
(dp31
S'cut.v.01'
p32
I12
ssg13
(dp33
S'cabbage.n.01'
p34
I1
ssg10
(dp35
S'egg.n.02'
p36
I1
ssg16
(dp37
S'tomato.n.01'
p38
I1
ssg20
(dp39
g20
I0
ssg12
(dp40
g12
I0
ssg19
(dp41
g20
I1
ssg18
(dp42
S'pizza.n.01'
p43
I1
ssg14
(dp44
S'orange.n.01'
p45
I1
ssg21
(dp46
S'cake.n.03'
p47
I1
ssg23
(dp48
S'meat.n.01'
p49
I1
ssg9
(dp50
S'lemon.n.01'
p51
I2
ssg15
(dp52
S'potato.n.01'
p53
I1
ssg17
(dp54
S'knife.n.01'
p55
I2
ssg11
(dp56
g12
I4
ssg25
(dp57
S'green_onion.n.01'
p58
I1
ssg24
(dp59
S'cleaver.n.01'
p60
I1
sssb.