ccopy_reg
_reconstructor
p0
(cutils.eval
ConfusionMatrix
p1
c__builtin__
object
p2
Ntp3
Rp4
(dp5
S'labels'
p6
(lp7
S'cut.v.01'
p8
aS'lemon.n.01'
p9
aS'knife.n.01'
p10
aS'green_onion.n.01'
p11
aS'bacon.n.01'
p12
aS'bread.n.01'
p13
aS'mushroom.n.05'
p14
aS'zucchini.n.01'
p15
aS'zucchini.n.02'
p16
aS'flesh.n.01'
p17
aS'human_body.n.01'
p18
aS'banana.n.02'
p19
aS'vegetable.n.01'
p20
aS'olive.n.01'
p21
aS'olive.n.04'
p22
aS'egg.n.02'
p23
aS'piece.n.08'
p24
asS'instanceCount'
p25
I29
sS'matrix'
p26
(dp27
g14
(dp28
S'mushroom.n.05'
p29
I1
ssg20
(dp30
S'vegetable.n.01'
p31
I1
ssg8
(dp32
S'cut.v.01'
p33
I12
ssg10
(dp34
S'knife.n.01'
p35
I4
ssg19
(dp36
S'banana.n.02'
p37
I1
ssg17
(dp38
g18
I1
ssg23
(dp39
S'egg.n.02'
p40
I1
ssg22
(dp41
g22
I0
ssg21
(dp42
g22
I1
ssg12
(dp43
S'bacon.n.01'
p44
I1
ssg13
(dp45
S'bread.n.01'
p46
I1
ssg18
(dp47
g18
I0
ssg16
(dp48
g16
I0
ssg9
(dp49
S'lemon.n.01'
p50
I2
ssg15
(dp51
g16
I1
ssg11
(dp52
S'green_onion.n.01'
p53
I1
ssg24
(dp54
S'piece.n.08'
p55
I1
sssb.