ccopy_reg
_reconstructor
p0
(cutils.eval
ConfusionMatrix
p1
c__builtin__
object
p2
Ntp3
Rp4
(dp5
S'labels'
p6
(lp7
S'cheese.n.01'
p8
aS'cut.v.01'
p9
aS'meat.n.01'
p10
aS'cleaver.n.01'
p11
aS'lemon.n.01'
p12
aS'knife.n.01'
p13
aS'green_onion.n.01'
p14
aS'bacon.n.01'
p15
aS'bread.n.01'
p16
aS'mushroom.n.05'
p17
aS'zucchini.n.01'
p18
aS'zucchini.n.02'
p19
aS'flesh.n.01'
p20
aS'human_body.n.01'
p21
aS'banana.n.02'
p22
aS'vegetable.n.01'
p23
aS'olive.n.01'
p24
aS'olive.n.04'
p25
asS'instanceCount'
p26
I29
sS'matrix'
p27
(dp28
g17
(dp29
S'mushroom.n.05'
p30
I1
ssg8
(dp31
S'cheese.n.01'
p32
I1
ssg23
(dp33
S'vegetable.n.01'
p34
I1
ssg9
(dp35
S'cut.v.01'
p36
I12
ssg13
(dp37
S'knife.n.01'
p38
I4
ssg22
(dp39
S'banana.n.02'
p40
I1
ssg20
(dp41
g21
I1
ssg25
(dp42
g25
I0
ssg24
(dp43
g25
I1
ssg15
(dp44
S'bacon.n.01'
p45
I1
ssg16
(dp46
S'bread.n.01'
p47
I1
ssg21
(dp48
g21
I0
ssg19
(dp49
g19
I0
ssg10
(dp50
S'meat.n.01'
p51
I1
ssg12
(dp52
S'lemon.n.01'
p53
I1
ssg18
(dp54
g19
I1
ssg14
(dp55
S'green_onion.n.01'
p56
I1
ssg11
(dp57
S'cleaver.n.01'
p58
I1
sssb.