ccopy_reg
_reconstructor
p0
(cutils.eval
ConfusionMatrix
p1
c__builtin__
object
p2
Ntp3
Rp4
(dp5
S'labels'
p6
(lp7
S'piece.n.08'
p8
aS'potato.n.01'
p9
aS'cut.v.01'
p10
aS'tomato.n.01'
p11
aS'knife.n.01'
p12
aS'pizza.n.01'
p13
aS'fork.n.01'
p14
aS'fork.n.04'
p15
aS'cake.n.03'
p16
aS'cheese.n.01'
p17
aS'meat.n.01'
p18
aS'cleaver.n.01'
p19
aS'lemon.n.01'
p20
aS'green_onion.n.01'
p21
aS'bacon.n.01'
p22
aS'bread.n.01'
p23
aS'mushroom.n.05'
p24
aS'zucchini.n.01'
p25
aS'zucchini.n.02'
p26
asS'instanceCount'
p27
I31
sS'matrix'
p28
(dp29
g24
(dp30
S'mushroom.n.05'
p31
I1
ssg17
(dp32
S'cheese.n.01'
p33
I1
ssg10
(dp34
S'cut.v.01'
p35
I12
ssg12
(dp36
S'knife.n.01'
p37
I3
ssg22
(dp38
S'bacon.n.01'
p39
I1
ssg11
(dp40
S'tomato.n.01'
p41
I1
ssg15
(dp42
g15
I0
ssg25
(dp43
g26
I1
ssg14
(dp44
g15
I1
ssg13
(dp45
S'pizza.n.01'
p46
I1
ssg16
(dp47
S'cake.n.03'
p48
I1
ssg18
(dp49
S'meat.n.01'
p50
I1
ssg20
(dp51
S'lemon.n.01'
p52
I1
ssg9
(dp53
S'potato.n.01'
p54
I1
ssg26
(dp55
g26
I0
ssg8
(dp56
S'piece.n.08'
p57
I2
ssg23
(dp58
S'bread.n.01'
p59
I1
ssg21
(dp60
S'green_onion.n.01'
p61
I1
ssg19
(dp62
S'cleaver.n.01'
p63
I1
sssb.