ccopy_reg
_reconstructor
p0
(cutils.eval
ConfusionMatrix
p1
c__builtin__
object
p2
Ntp3
Rp4
(dp5
S'labels'
p6
(lp7
S'put.v.01'
p8
aS'cake.n.03'
p9
aS'cake.n.01'
p10
aS'whipped_cream.n.01'
p11
aS'pan.n.03'
p12
aS'pizza.n.01'
p13
aS'onion.n.01'
p14
aS'beef.n.02'
p15
aS'plate.n.04'
p16
aS'plate.n.08'
p17
aS'chicken.n.01'
p18
aS'pepper.n.03'
p19
aS'capsicum.n.01'
p20
aS'salt.n.02'
p21
aS'egg.n.02'
p22
aS'egg.n.01'
p23
asS'instanceCount'
p24
I17
sS'matrix'
p25
(dp26
g21
(dp27
g21
I1
sg22
I0
sg23
I0
sg19
I0
sg20
I0
sS'put.v.01'
p28
I0
ssg12
(dp29
g12
I2
sg18
I0
sS'put.v.01'
p30
I0
sg13
I0
ssg17
(dp31
g16
I0
sg14
I0
sg17
I0
sS'put.v.01'
p32
I0
sg15
I0
ssg15
(dp33
g16
I0
sg17
I0
sg14
I0
sg32
I0
sg15
I1
ssg16
(dp34
g16
I0
sg17
I1
sg14
I0
sg32
I0
sg15
I0
ssg22
(dp35
g21
I0
sg22
I0
sg23
I1
sg19
I0
sg20
I0
sg28
I0
ssg23
(dp36
g21
I0
sg22
I0
sg23
I0
sg19
I0
sg20
I0
sg28
I0
ssg8
(dp37
g21
I0
sg12
I0
sg17
I0
sg15
I0
sg16
I0
sg22
I0
sg23
I0
sg8
I5
sg13
I0
sg20
I0
sg11
I0
sg9
I0
sg19
I0
sg10
I0
sg18
I0
sg14
I0
ssg13
(dp38
g12
I0
sg30
I0
sg13
I1
ssg20
(dp39
g21
I0
sg22
I0
sg23
I0
sg19
I0
sg20
I0
sg28
I0
ssg11
(dp40
g11
I1
sg9
I0
sg10
I0
sg8
I0
ssg9
(dp41
g11
I0
sg9
I0
sg10
I1
sg8
I0
ssg19
(dp42
g21
I0
sg22
I0
sg23
I0
sg28
I0
sg20
I1
sg19
I0
ssg10
(dp43
g11
I0
sg9
I0
sg8
I0
sg10
I0
ssg18
(dp44
S'pan.n.03'
p45
I0
sg18
I1
sS'put.v.01'
p46
I0
ssg14
(dp47
g16
I0
sg17
I0
sg14
I1
sg32
I0
sg15
I0
sssb.