ccopy_reg
_reconstructor
p0
(cutils.eval
ConfusionMatrix
p1
c__builtin__
object
p2
Ntp3
Rp4
(dp5
S'labels'
p6
(lp7
S'put.v.01'
p8
aS'pepper.n.03'
p9
aS'capsicum.n.01'
p10
aS'salt.n.02'
p11
aS'egg.n.02'
p12
aS'egg.n.01'
p13
asS'instanceCount'
p14
I4
sS'matrix'
p15
(dp16
g11
(dp17
S'salt.n.02'
p18
I1
ssg12
(dp19
g13
I1
ssg13
(dp20
g13
I0
ssg9
(dp21
g10
I1
ssg10
(dp22
g10
I0
ssg8
(dp23
S'put.v.01'
p24
I1
sssb.