ccopy_reg
_reconstructor
p0
(cutils.eval
ConfusionMatrix
p1
c__builtin__
object
p2
Ntp3
Rp4
(dp5
S'labels'
p6
(lp7
S'pan.n.03'
p8
aS'add.v.01'
p9
aS'vanilla.n.02'
p10
aS'mixing_bowl.n.01'
p11
aS'butter.n.01'
p12
aS'sugar.n.01'
p13
aS'salt.n.02'
p14
aS'meat.n.01'
p15
aS'rib.n.03'
p16
aS'asparagus.n.02'
p17
aS'salad.n.01'
p18
aS'apple.n.01'
p19
aS'dressing.n.01'
p20
aS'stuffing.n.01'
p21
asS'instanceCount'
p22
I23
sS'matrix'
p23
(dp24
g14
(dp25
S'salt.n.02'
p26
I1
ssg8
(dp27
S'pan.n.03'
p28
I2
ssg16
(dp29
S'rib.n.03'
p30
I1
ssg18
(dp31
S'salad.n.01'
p32
I2
ssg12
(dp33
S'butter.n.01'
p34
I2
ssg11
(dp35
S'mixing_bowl.n.01'
p36
I1
ssg20
(dp37
g21
I1
ssg17
(dp38
S'asparagus.n.02'
p39
I1
ssg15
(dp40
S'meat.n.01'
p41
I1
ssg10
(dp42
S'vanilla.n.02'
p43
I1
ssg21
(dp44
g21
I0
ssg19
(dp45
S'apple.n.01'
p46
I1
ssg9
(dp47
S'add.v.01'
p48
I8
ssg13
(dp49
S'sugar.n.01'
p50
I1
sssb.