ccopy_reg
_reconstructor
p0
(cutils.eval
ConfusionMatrix
p1
c__builtin__
object
p2
Ntp3
Rp4
(dp5
S'labels'
p6
(lp7
S'add.v.01'
p8
aS'asparagus.n.02'
p9
aS'salad.n.01'
p10
aS'apple.n.01'
p11
aS'pan.n.03'
p12
aS'butter.n.01'
p13
aS'dressing.n.01'
p14
aS'stuffing.n.01'
p15
aS'flour.n.01'
p16
aS'egg.n.02'
p17
aS'mixing_bowl.n.01'
p18
aS'milk.n.01'
p19
aS'milk.n.04'
p20
aS'water.n.06'
p21
aS'water_system.n.02'
p22
aS'french_fries.n.01'
p23
aS'steak.n.01'
p24
asS'instanceCount'
p25
I23
sS'matrix'
p26
(dp27
g12
(dp28
S'pan.n.03'
p29
I1
ssg16
(dp30
S'flour.n.01'
p31
I1
ssg10
(dp32
S'salad.n.01'
p33
I2
ssg13
(dp34
S'butter.n.01'
p35
I1
ssg22
(dp36
g22
I0
ssg18
(dp37
S'mixing_bowl.n.01'
p38
I1
ssg21
(dp39
g22
I1
ssg14
(dp40
g15
I1
ssg9
(dp41
S'asparagus.n.02'
p42
I1
ssg20
(dp43
g20
I0
ssg24
(dp44
S'steak.n.01'
p45
I1
ssg23
(dp46
S'french_fries.n.01'
p47
I1
ssg17
(dp48
S'egg.n.02'
p49
I2
ssg15
(dp50
g15
I0
ssg11
(dp51
S'apple.n.01'
p52
I1
ssg8
(dp53
S'add.v.01'
p54
I8
ssg19
(dp55
g20
I1
sssb.