ccopy_reg
_reconstructor
p0
(cutils.eval
ConfusionMatrix
p1
c__builtin__
object
p2
Ntp3
Rp4
(dp5
S'labels'
p6
(lp7
S'pan.n.03'
p8
aS'add.v.01'
p9
aS'butter.n.01'
p10
aS'vanilla.n.02'
p11
aS'corn.n.03'
p12
aS'dish.n.02'
p13
aS'ingredient.n.03'
p14
aS'concoction.n.01'
p15
aS'cream.n.02'
p16
aS'cream.n.03'
p17
aS'mixing_bowl.n.01'
p18
aS'sugar.n.01'
p19
aS'salt.n.02'
p20
aS'meat.n.01'
p21
aS'rib.n.03'
p22
asS'instanceCount'
p23
I25
sS'matrix'
p24
(dp25
g20
(dp26
S'salt.n.02'
p27
I1
ssg8
(dp28
S'pan.n.03'
p29
I2
ssg22
(dp30
S'rib.n.03'
p31
I1
ssg18
(dp32
S'mixing_bowl.n.01'
p33
I1
ssg10
(dp34
S'butter.n.01'
p35
I2
ssg16
(dp36
g17
I1
ssg12
(dp37
S'corn.n.03'
p38
I1
ssg14
(dp39
S'ingredient.n.03'
p40
I2
ssg17
(dp41
g17
I0
ssg21
(dp42
S'meat.n.01'
p43
I1
ssg13
(dp44
S'dish.n.02'
p45
I1
ssg11
(dp46
S'vanilla.n.02'
p47
I2
ssg15
(dp48
S'concoction.n.01'
p49
I1
ssg9
(dp50
S'add.v.01'
p51
I8
ssg19
(dp52
S'sugar.n.01'
p53
I1
sssb.