ccopy_reg
_reconstructor
p0
(cutils.eval
ConfusionMatrix
p1
c__builtin__
object
p2
Ntp3
Rp4
(dp5
S'labels'
p6
(lp7
S'add.v.01'
p8
aS'salt.n.02'
p9
aS'meat.n.01'
p10
aS'rib.n.03'
p11
aS'asparagus.n.02'
p12
aS'salad.n.01'
p13
aS'apple.n.01'
p14
aS'pan.n.03'
p15
aS'butter.n.01'
p16
aS'dressing.n.01'
p17
aS'stuffing.n.01'
p18
aS'flour.n.01'
p19
aS'egg.n.02'
p20
aS'mixing_bowl.n.01'
p21
aS'milk.n.01'
p22
aS'milk.n.04'
p23
aS'water.n.06'
p24
asS'instanceCount'
p25
I23
sS'matrix'
p26
(dp27
g9
(dp28
S'salt.n.02'
p29
I1
ssg15
(dp30
S'pan.n.03'
p31
I1
ssg19
(dp32
S'flour.n.01'
p33
I1
ssg11
(dp34
S'rib.n.03'
p35
I1
ssg13
(dp36
S'salad.n.01'
p37
I2
ssg16
(dp38
S'butter.n.01'
p39
I1
ssg21
(dp40
S'mixing_bowl.n.01'
p41
I1
ssg24
(dp42
S'water.n.06'
p43
I1
ssg17
(dp44
g18
I1
ssg12
(dp45
S'asparagus.n.02'
p46
I1
ssg23
(dp47
g23
I0
ssg10
(dp48
S'meat.n.01'
p49
I1
ssg20
(dp50
S'egg.n.02'
p51
I1
ssg18
(dp52
g18
I0
ssg14
(dp53
S'apple.n.01'
p54
I1
ssg8
(dp55
S'add.v.01'
p56
I8
ssg22
(dp57
g23
I1
sssb.