ccopy_reg
_reconstructor
p0
(cutils.eval
ConfusionMatrix
p1
c__builtin__
object
p2
Ntp3
Rp4
(dp5
S'labels'
p6
(lp7
S'add.v.01'
p8
aS'flour.n.01'
p9
aS'egg.n.02'
p10
aS'mixing_bowl.n.01'
p11
aS'milk.n.01'
p12
aS'milk.n.04'
p13
aS'water.n.06'
p14
aS'water_system.n.02'
p15
aS'french_fries.n.01'
p16
aS'steak.n.01'
p17
aS'onion.n.03'
p18
aS'sauce.n.01'
p19
aS'cream.n.02'
p20
aS'cream.n.03'
p21
aS'pot.n.01'
p22
aS'pot.n.04'
p23
aS'bean.n.01'
p24
aS'vegetable.n.01'
p25
asS'instanceCount'
p26
I22
sS'matrix'
p27
(dp28
g25
(dp29
S'vegetable.n.01'
p30
I1
ssg9
(dp31
S'flour.n.01'
p32
I1
ssg10
(dp33
S'egg.n.02'
p34
I2
ssg15
(dp35
g15
I0
ssg11
(dp36
S'mixing_bowl.n.01'
p37
I1
ssg14
(dp38
g15
I1
ssg21
(dp39
g21
I0
ssg24
(dp40
S'bean.n.01'
p41
I1
ssg17
(dp42
S'steak.n.01'
p43
I1
ssg20
(dp44
g21
I1
ssg19
(dp45
S'sauce.n.01'
p46
I1
ssg16
(dp47
S'french_fries.n.01'
p48
I1
ssg22
(dp49
g23
I1
ssg13
(dp50
g13
I0
ssg8
(dp51
S'add.v.01'
p52
I8
ssg12
(dp53
g13
I1
ssg18
(dp54
S'onion.n.03'
p55
I1
ssg23
(dp56
g23
I0
sssb.