ccopy_reg
_reconstructor
p0
(cutils.eval
ConfusionMatrix
p1
c__builtin__
object
p2
Ntp3
Rp4
(dp5
S'labels'
p6
(lp7
S'add.v.01'
p8
aS'egg.n.02'
p9
aS'french_fries.n.01'
p10
aS'steak.n.01'
p11
aS'onion.n.03'
p12
aS'sauce.n.01'
p13
aS'cream.n.02'
p14
aS'cream.n.03'
p15
aS'pot.n.01'
p16
aS'pot.n.04'
p17
aS'bean.n.01'
p18
aS'vegetable.n.01'
p19
aS'pan.n.03'
p20
aS'butter.n.01'
p21
aS'vanilla.n.02'
p22
aS'corn.n.03'
p23
aS'dish.n.02'
p24
aS'dish.n.01'
p25
asS'instanceCount'
p26
I22
sS'matrix'
p27
(dp28
g25
(dp29
g25
I0
ssg19
(dp30
S'vegetable.n.01'
p31
I1
ssg22
(dp32
S'vanilla.n.02'
p33
I1
ssg9
(dp34
S'egg.n.02'
p35
I1
ssg21
(dp36
S'butter.n.01'
p37
I1
ssg20
(dp38
S'pan.n.03'
p39
I1
ssg14
(dp40
g15
I1
ssg15
(dp41
g15
I0
ssg11
(dp42
S'steak.n.01'
p43
I1
ssg13
(dp44
S'sauce.n.01'
p45
I1
ssg10
(dp46
S'french_fries.n.01'
p47
I1
ssg16
(dp48
g17
I1
ssg18
(dp49
S'bean.n.01'
p50
I1
ssg23
(dp51
S'corn.n.03'
p52
I1
ssg8
(dp53
S'add.v.01'
p54
I8
ssg17
(dp55
g17
I0
ssg12
(dp56
S'onion.n.03'
p57
I1
ssg24
(dp58
g25
I1
sssb.