ccopy_reg
_reconstructor
p0
(cutils.eval
ConfusionMatrix
p1
c__builtin__
object
p2
Ntp3
Rp4
(dp5
S'labels'
p6
(lp7
S'fill.v.01'
p8
aS'pan.n.01'
p9
aS'pan.n.03'
p10
aS'water.n.06'
p11
aS'put.v.01'
p12
aS'onion.n.01'
p13
aS'beef.n.02'
p14
aS'plate.n.04'
p15
aS'plate.n.11'
p16
aS'kettle.n.01'
p17
aS'piece.n.08'
p18
aS'slice.n.06'
p19
aS'pizza.n.01'
p20
aS'slice.v.03'
p21
aS'cut.v.01'
p22
aS'bread.n.01'
p23
aS'knife.n.01'
p24
aS'knife.n.02'
p25
aS'meat.n.01'
p26
aS'cleaver.n.01'
p27
aS'helicopter.n.01'
p28
aS'banana.n.02'
p29
aS'pitcher.n.02'
p30
aS'milk.n.01'
p31
aS'milk.n.02'
p32
aS'cabbage.n.01'
p33
aS'opening.n.01'
p34
aS'fill.v.09'
p35
aS'batter.n.02'
p36
aS'chicken.n.01'
p37
aS'bacon.n.01'
p38
aS'bacon.n.02'
p39
aS'cake.n.03'
p40
aS'whipped_cream.n.01'
p41
aS'pepper.n.03'
p42
aS'pepper.n.04'
p43
aS'salt.n.02'
p44
aS'salt.n.01'
p45
aS'egg.n.02'
p46
aS'egg.n.01'
p47
aS'cabbage.n.03'
p48
aS'gap.n.03'
p49
aS'capsicum.n.01'
p50
aS'foam.n.01'
p51
aS'mug.n.04'
p52
aS'chump.n.01'
p53
aS'cut.v.32'
p54
aS'put.v.02'
p55
aS'patty.n.01'
p56
aS'onion.n.03'
p57
aS'pepper.n.01'
p58
aS'flesh.n.01'
p59
aS'human_body.n.01'
p60
aS'edit.v.03'
p61
aS'lemon.n.01'
p62
aS'lemon.n.05'
p63
aS'cheese.n.01'
p64
aS'onion.n.02'
p65
aS'plate.n.13'
p66
aS'water.n.03'
p67
aS'plate.n.08'
p68
aS'kettle_hole.n.01'
p69
aS'slice.n.05'
p70
aS'pitcher.n.01'
p71
aS'strategic_arms_limitation_talks.n.01'
p72
aS'slice.v.02'
p73
aS'pulp.n.02'
p74
aS'denture.n.01'
p75
aS'wimp.n.01'
p76
aS'cake.n.01'
p77
asS'instanceCount'
p78
I398
sS'matrix'
p79
(dp80
g66
(dp81
g66
I0
sg64
I0
sS'chicken.n.01'
p82
I0
sS'slice.v.03'
p83
I0
sg61
I0
sg54
I0
sS'batter.n.02'
p84
I0
sS'knife.n.01'
p85
I0
sg56
I0
sS'pan.n.01'
p86
I0
sS'pan.n.03'
p87
I0
sS'cut.v.01'
p88
I0
sS'gap.n.03'
p89
I0
sS'fill.v.09'
p90
I0
sS'egg.n.02'
p91
I0
sS'egg.n.01'
p92
I0
sS'beef.n.02'
p93
I0
sS'bacon.n.02'
p94
I0
sS'bacon.n.01'
p95
I0
sS'fill.v.01'
p96
I0
sS'capsicum.n.01'
p97
I0
sS'meat.n.01'
p98
I0
sS'cleaver.n.01'
p99
I0
sS'salt.n.02'
p100
I0
sS'cabbage.n.01'
p101
I0
sS'cabbage.n.03'
p102
I0
sS'knife.n.02'
p103
I0
sS'plate.n.04'
p104
I0
sS'pepper.n.04'
p105
I0
sg58
I0
sS'pepper.n.03'
p106
I0
sS'water.n.06'
p107
I0
sS'foam.n.01'
p108
I0
sg60
I0
sS'whipped_cream.n.01'
p109
I0
sS'piece.n.08'
p110
I0
sS'bread.n.01'
p111
I0
sS'opening.n.01'
p112
I0
sS'mug.n.04'
p113
I0
sg59
I0
sS'helicopter.n.01'
p114
I0
sS'slice.n.06'
p115
I0
sg55
I0
sS'put.v.01'
p116
I0
sS'pizza.n.01'
p117
I0
sg63
I0
sS'kettle.n.01'
p118
I0
sS'cake.n.03'
p119
I0
sg62
I0
sS'onion.n.01'
p120
I0
sg57
I0
sg65
I0
ssg64
(dp121
g66
I0
sg64
I7
sS'plate.n.11'
p122
I0
sg70
I0
sg82
I0
sg83
I0
sg61
I0
sg54
I0
sg84
I0
sg72
I0
sg68
I0
sg56
I0
sS'milk.n.01'
p123
I0
sS'milk.n.02'
p124
I0
sg86
I0
sg87
I0
sg88
I0
sg89
I0
sg90
I0
sg91
I0
sg92
I0
sg93
I0
sg94
I0
sg95
I0
sg96
I0
sS'banana.n.02'
p125
I0
sg97
I0
sg71
I0
sS'meat.n.01'
p126
I0
sg75
I0
sS'knife.n.01'
p127
I0
sg73
I0
sg100
I0
sS'chump.n.01'
p128
I0
sg101
I0
sS'cleaver.n.01'
p129
I0
sg102
I0
sS'knife.n.02'
p130
I0
sg104
I0
sg105
I0
sg58
I0
sg106
I0
sg107
I0
sg108
I0
sg60
I0
sg109
I0
sS'piece.n.08'
p131
I0
sS'bread.n.01'
p132
I0
sg112
I0
sg113
I0
sg59
I0
sg67
I0
sS'helicopter.n.01'
p133
I0
sS'slice.n.06'
p134
I0
sg55
I0
sg116
I0
sg117
I0
sg69
I0
sg63
I0
sS'kettle.n.01'
p135
I0
sg119
I0
sg74
I0
sg62
I0
sg120
I0
sS'pitcher.n.02'
p136
I0
sg57
I0
sg65
I0
ssg16
(dp137
S'cheese.n.01'
p138
I0
sg16
I0
sg37
I0
sg14
I0
sg23
I0
sg36
I0
sg33
I0
sS'slice.n.05'
p139
I0
sg31
I0
sg32
I0
sg9
I0
sg10
I0
sg22
I0
sg35
I0
sg46
I0
sg47
I0
sg39
I0
sg38
I0
sg8
I0
sg30
I0
sS'pitcher.n.01'
p140
I0
sg26
I0
sg44
I0
sg27
I0
sS'slice.v.02'
p141
I0
sg21
I0
sg45
I0
sg24
I0
sg29
I0
sg25
I0
sg15
I0
sg43
I0
sg42
I0
sS'human_body.n.01'
p142
I0
sg41
I0
sg18
I0
sg34
I0
sS'flesh.n.01'
p143
I0
sS'water.n.03'
p144
I0
sg28
I0
sg19
I0
sg11
I0
sg12
I0
sg20
I0
sS'kettle_hole.n.01'
p145
I0
sg17
I0
sg40
I0
sS'lemon.n.01'
p146
I0
sg13
I0
sS'onion.n.03'
p147
I0
ssg70
(dp148
S'cheese.n.01'
p149
I0
sg122
I0
sS'chicken.n.01'
p150
I0
sS'beef.n.02'
p151
I0
sg132
I0
sS'batter.n.02'
p152
I0
sg127
I0
sg70
I0
sg123
I0
sg124
I0
sS'pan.n.01'
p153
I0
sS'pan.n.03'
p154
I0
sS'cut.v.01'
p155
I0
sS'fill.v.09'
p156
I0
sS'cabbage.n.01'
p157
I0
sS'bacon.n.01'
p158
I0
sS'fill.v.01'
p159
I0
sg136
I0
sg71
I0
sg126
I0
sg129
I0
sS'slice.v.02'
p160
I0
sS'slice.v.03'
p161
I0
sS'chump.n.01'
p162
I0
sg68
I0
sg125
I0
sg130
I0
sS'plate.n.04'
p163
I0
sS'pepper.n.04'
p164
I0
sS'pepper.n.03'
p165
I0
sS'human_body.n.01'
p166
I0
sg131
I0
sS'opening.n.01'
p167
I0
sS'mug.n.04'
p168
I0
sS'flesh.n.01'
p169
I0
sg67
I0
sg133
I0
sS'water.n.06'
p170
I0
sS'put.v.01'
p171
I0
sS'pizza.n.01'
p172
I0
sg69
I0
sg135
I0
sS'lemon.n.01'
p173
I0
sS'onion.n.01'
p174
I0
sS'onion.n.03'
p175
I0
ssg37
(dp176
g66
I0
sg64
I0
sg16
I0
sg70
I0
sg37
I6
sg75
I0
sg14
I0
sg49
I0
sg53
I0
sg23
I0
sg36
I0
sg76
I1
sg72
I0
sg33
I0
sg51
I0
sg31
I0
sg32
I0
sg9
I0
sg10
I0
sg22
I0
sg48
I0
sg35
I0
sg46
I0
sg47
I0
sg39
I0
sg38
I0
sg8
I0
sg30
I0
sg71
I0
sg26
I0
sg69
I0
sg54
I0
sg44
I0
sg27
I0
sg73
I0
sg21
I0
sg45
I0
sg24
I0
sg77
I0
sg29
I0
sg25
I0
sg15
I0
sg43
I0
sg58
I0
sg42
I0
sg60
I0
sg41
I0
sg56
I0
sg50
I0
sg18
I0
sg68
I0
sg34
I0
sg52
I0
sg59
I0
sg67
I0
sg28
I0
sg19
I0
sg11
I0
sg12
I0
sg20
I0
sg61
I0
sg63
I0
sg17
I0
sg40
I0
sg74
I0
sg62
I0
sg65
I0
sg13
I0
sg57
I0
sg55
I0
ssg75
(dp177
S'cheese.n.01'
p178
I0
sS'chicken.n.01'
p179
I0
sS'slice.v.03'
p180
I0
sS'water.n.06'
p181
I0
sS'foam.n.01'
p182
I0
sS'pan.n.01'
p183
I0
sS'fill.v.01'
p184
I0
sS'pan.n.03'
p185
I0
sS'cut.v.01'
p186
I0
sS'egg.n.02'
p187
I0
sS'egg.n.01'
p188
I0
sS'beef.n.02'
p189
I0
sS'bacon.n.01'
p190
I0
sS'patty.n.01'
p191
I0
sg75
I0
sS'salt.n.02'
p192
I0
sS'chump.n.01'
p193
I0
sS'plate.n.04'
p194
I0
sS'pepper.n.04'
p195
I0
sS'pepper.n.03'
p196
I0
sS'whipped_cream.n.01'
p197
I0
sS'piece.n.08'
p198
I0
sS'mug.n.04'
p199
I0
sS'flesh.n.01'
p200
I0
sg134
I0
sS'put.v.02'
p201
I0
sS'put.v.01'
p202
I0
sS'pizza.n.01'
p203
I0
sS'kettle.n.01'
p204
I0
sS'cake.n.03'
p205
I0
sS'lemon.n.01'
p206
I0
sS'onion.n.01'
p207
I0
sg74
I0
ssg14
(dp208
g66
I0
sg64
I0
sg16
I0
sg70
I0
sg37
I0
sg75
I0
sg14
I7
sg89
I0
sg193
I0
sg23
I0
sg36
I0
sg33
I0
sg56
I0
sg31
I0
sg32
I0
sg9
I0
sg10
I0
sg22
I0
sg102
I0
sg35
I0
sg46
I0
sg47
I0
sg39
I0
sg38
I0
sg8
I0
sg30
I0
sg71
I0
sg26
I0
sg69
I0
sg54
I0
sg44
I0
sg27
I0
sg160
I0
sg21
I0
sg45
I0
sg24
I0
sg29
I0
sg25
I0
sg15
I0
sg43
I0
sg58
I0
sg42
I0
sg108
I0
sg60
I0
sg41
I0
sg97
I0
sg18
I0
sg68
I0
sg34
I0
sg113
I0
sg59
I0
sg67
I0
sg28
I0
sg19
I0
sg11
I0
sg12
I0
sg20
I0
sg61
I0
sg63
I0
sg17
I0
sg40
I0
sg74
I0
sg62
I0
sg65
I0
sg13
I0
sg57
I0
sg55
I0
ssg49
(dp209
g66
I0
sg64
I0
sS'chicken.n.01'
p210
I0
sS'salt.n.02'
p211
I0
sg61
I0
sg53
I0
sS'bread.n.01'
p212
I0
sS'batter.n.02'
p213
I0
sg76
I0
sg72
I0
sS'knife.n.01'
p214
I0
sg51
I0
sS'milk.n.01'
p215
I0
sS'milk.n.02'
p216
I0
sg86
I0
sS'pan.n.03'
p217
I0
sS'cut.v.01'
p218
I0
sg49
I0
sS'fill.v.09'
p219
I0
sS'egg.n.02'
p220
I0
sS'egg.n.01'
p221
I0
sg93
I0
sS'bacon.n.02'
p222
I0
sS'bacon.n.01'
p223
I0
sS'fill.v.01'
p224
I0
sS'pitcher.n.02'
p225
I0
sS'meat.n.01'
p226
I0
sg54
I0
sS'cleaver.n.01'
p227
I0
sg73
I0
sS'slice.v.03'
p228
I0
sS'salt.n.01'
p229
I0
sS'cabbage.n.01'
p230
I0
sg77
I0
sS'banana.n.02'
p231
I0
sS'knife.n.02'
p232
I0
sg104
I0
sS'pepper.n.04'
p233
I0
sg58
I0
sS'pepper.n.03'
p234
I0
sg60
I0
sS'whipped_cream.n.01'
p235
I0
sg56
I0
sg50
I0
sS'piece.n.08'
p236
I0
sS'opening.n.01'
p237
I0
sg52
I0
sg48
I0
sg59
I0
sS'helicopter.n.01'
p238
I0
sS'slice.n.06'
p239
I0
sS'water.n.06'
p240
I0
sS'put.v.01'
p241
I0
sS'pizza.n.01'
p242
I0
sg63
I0
sS'kettle.n.01'
p243
I0
sS'cake.n.03'
p244
I0
sg62
I0
sg65
I0
sS'onion.n.01'
p245
I0
sg57
I0
sg55
I0
ssg53
(dp246
S'cheese.n.01'
p247
I0
sS'slice.n.05'
p248
I0
sg210
I0
sg211
I0
sg49
I0
sg229
I0
sg212
I0
sg213
I0
sg72
I0
sg214
I0
sg51
I0
sg215
I0
sg216
I0
sg183
I0
sg217
I0
sg218
I0
sg231
I0
sg219
I0
sg220
I0
sg221
I0
sg189
I0
sg222
I0
sg223
I0
sg224
I0
sg225
I0
sS'pitcher.n.01'
p249
I0
sg226
I0
sg75
I0
sg227
I0
sg73
I0
sg228
I0
sg53
I0
sg230
I0
sg48
I0
sg232
I0
sg194
I0
sg233
I0
sS'pepper.n.01'
p250
I0
sg234
I0
sS'human_body.n.01'
p251
I0
sg235
I0
sg191
I0
sg50
I0
sg236
I0
sS'plate.n.08'
p252
I0
sg237
I0
sg52
I0
sS'flesh.n.01'
p253
I0
sg238
I0
sg239
I0
sg240
I0
sg241
I0
sg242
I0
sS'kettle_hole.n.01'
p254
I0
sg243
I0
sg244
I0
sg74
I0
sS'lemon.n.01'
p255
I0
sg245
I0
sS'onion.n.03'
p256
I0
sg201
I0
ssg23
(dp257
S'plate.n.13'
p258
I0
sg149
I0
sg16
I0
sg70
I0
sg37
I0
sg14
I0
sg49
I0
sg53
I0
sg23
I7
sg36
I0
sg76
I0
sg33
I0
sg51
I0
sg31
I0
sg32
I0
sg9
I0
sg10
I0
sg22
I0
sg48
I0
sg35
I0
sg46
I0
sg47
I0
sg39
I0
sg38
I0
sg8
I0
sg30
I0
sg71
I0
sg26
I0
sS'cut.v.32'
p259
I0
sg44
I0
sg27
I0
sg160
I0
sg21
I0
sg45
I0
sS'edit.v.03'
p260
I0
sg24
I0
sg77
I0
sg29
I0
sg25
I0
sg15
I0
sg43
I0
sS'pepper.n.01'
p261
I0
sg42
I0
sS'human_body.n.01'
p262
I0
sg41
I0
sg50
I0
sg18
I0
sg68
I0
sg34
I0
sg52
I0
sS'flesh.n.01'
p263
I0
sg67
I0
sg28
I0
sg19
I0
sg11
I0
sg12
I0
sg20
I0
sg69
I0
sS'lemon.n.05'
p264
I0
sg17
I0
sg40
I0
sS'lemon.n.01'
p265
I0
sS'onion.n.02'
p266
I0
sg13
I0
sg175
I0
sS'put.v.02'
p267
I0
ssg36
(dp268
g66
I0
sg64
I0
sg16
I0
sg70
I0
sg37
I0
sg14
I0
sg49
I0
sg53
I0
sg23
I0
sg36
I7
sg76
I0
sg72
I0
sg33
I0
sg51
I0
sg31
I0
sg32
I0
sg9
I0
sg10
I0
sg22
I0
sg48
I0
sg35
I0
sg46
I0
sg47
I0
sg39
I0
sg38
I0
sg8
I0
sg30
I0
sg71
I0
sg27
I0
sg69
I0
sg54
I0
sg44
I0
sg26
I0
sg73
I0
sg21
I0
sg45
I0
sg24
I0
sg77
I0
sg29
I0
sg25
I0
sg15
I0
sg43
I0
sg58
I0
sg42
I0
sg60
I0
sg41
I0
sg56
I0
sg50
I0
sg18
I0
sg68
I0
sg34
I0
sg52
I0
sg59
I0
sg67
I0
sg28
I0
sg19
I0
sg11
I0
sg12
I0
sg20
I0
sg61
I0
sg63
I0
sg17
I0
sg40
I0
sg62
I0
sg65
I0
sg13
I0
sg57
I0
sg55
I0
ssg76
(dp269
S'chicken.n.01'
p270
I0
sS'salt.n.02'
p271
I0
sS'bread.n.01'
p272
I0
sS'batter.n.02'
p273
I0
sg76
I0
sS'cabbage.n.01'
p274
I0
sS'foam.n.01'
p275
I0
sS'milk.n.01'
p276
I0
sS'pan.n.03'
p277
I0
sS'cut.v.01'
p278
I0
sS'banana.n.02'
p279
I0
sS'fill.v.09'
p280
I0
sS'egg.n.02'
p281
I0
sS'egg.n.01'
p282
I0
sS'bacon.n.02'
p283
I0
sS'bacon.n.01'
p284
I0
sS'fill.v.01'
p285
I0
sS'pitcher.n.02'
p286
I0
sS'meat.n.01'
p287
I0
sS'opening.n.01'
p288
I0
sS'cleaver.n.01'
p289
I0
sS'slice.v.02'
p290
I0
sS'slice.v.03'
p291
I0
sS'salt.n.01'
p292
I0
sS'knife.n.01'
p293
I0
sS'lemon.n.01'
p294
I0
sS'cabbage.n.03'
p295
I0
sS'knife.n.02'
p296
I0
sS'pepper.n.04'
p297
I0
sS'pepper.n.03'
p298
I0
sS'human_body.n.01'
p299
I0
sS'whipped_cream.n.01'
p300
I0
sS'capsicum.n.01'
p301
I0
sS'gap.n.03'
p302
I0
sS'mug.n.04'
p303
I0
sS'flesh.n.01'
p304
I0
sS'helicopter.n.01'
p305
I0
sS'put.v.01'
p306
I0
sS'lemon.n.05'
p307
I0
sS'cake.n.03'
p308
I0
sg77
I0
sS'onion.n.01'
p309
I0
ssg72
(dp310
g247
I0
sS'chicken.n.01'
p311
I0
sS'salt.n.02'
p312
I0
sS'batter.n.02'
p313
I0
sS'cabbage.n.01'
p314
I0
sS'foam.n.01'
p315
I0
sS'milk.n.01'
p316
I0
sS'pan.n.03'
p317
I0
sS'cut.v.01'
p318
I0
sS'gap.n.03'
p319
I0
sS'fill.v.09'
p320
I0
sS'egg.n.02'
p321
I0
sS'egg.n.01'
p322
I0
sS'bacon.n.01'
p323
I0
sS'fill.v.01'
p324
I0
sS'pitcher.n.02'
p325
I0
sg73
I0
sS'slice.v.03'
p326
I0
sg128
I0
sS'knife.n.01'
p327
I0
sS'banana.n.02'
p328
I0
sS'pepper.n.04'
p329
I0
sg250
I0
sS'pepper.n.03'
p330
I0
sg251
I0
sS'whipped_cream.n.01'
p331
I0
sg72
I0
sS'opening.n.01'
p332
I0
sS'mug.n.04'
p333
I0
sg253
I0
sS'put.v.01'
p334
I0
sS'pizza.n.01'
p335
I0
sS'cake.n.03'
p336
I0
sg255
I0
sS'onion.n.01'
p337
I0
sg256
I0
ssg33
(dp338
g66
I0
sg64
I0
sg16
I0
sg70
I0
sg37
I0
sg14
I0
sg49
I0
sg53
I0
sg23
I0
sg36
I0
sg76
I0
sg72
I0
sg24
I0
sg51
I0
sg31
I0
sg32
I0
sg9
I0
sg10
I0
sg22
I0
sg48
I3
sg35
I0
sg46
I0
sg47
I0
sg39
I0
sg38
I0
sg8
I0
sg30
I0
sg71
I0
sg26
I0
sg69
I0
sg54
I0
sg44
I0
sg27
I0
sg73
I0
sg21
I0
sg45
I0
sg33
I4
sg77
I0
sg29
I0
sg25
I0
sg15
I0
sg43
I0
sg58
I0
sg42
I0
sg60
I0
sg41
I0
sg56
I0
sg50
I0
sg18
I0
sg68
I0
sg34
I0
sg52
I0
sg59
I0
sg67
I0
sg28
I0
sg19
I0
sg11
I0
sg12
I0
sg20
I0
sg61
I0
sg63
I0
sg17
I0
sg40
I0
sg62
I0
sg65
I0
sg13
I0
sg57
I0
sg55
I0
ssg51
(dp339
g66
I0
sg64
I0
sg210
I0
sg211
I0
sg49
I0
sg53
I0
sg212
I0
sg213
I0
sg76
I0
sg72
I0
sg214
I0
sg51
I6
sg215
I0
sg216
I0
sg86
I0
sg217
I0
sg218
I0
sg231
I0
sg219
I0
sg220
I0
sg221
I0
sg93
I0
sg222
I0
sg223
I0
sg224
I0
sg225
I0
sg226
I0
sg54
I0
sg75
I0
sg227
I0
sg73
I0
sg228
I0
sg229
I0
sg230
I0
sg77
I0
sg48
I0
sg232
I0
sg104
I0
sg233
I0
sg58
I0
sg234
I0
sg60
I0
sg235
I0
sg56
I0
sg50
I0
sg236
I0
sg237
I0
sg52
I0
sg59
I0
sg238
I0
sg239
I0
sg240
I0
sg241
I0
sg242
I0
sg61
I0
sg63
I0
sg243
I0
sg244
I0
sg74
I0
sg62
I0
sg65
I0
sg245
I0
sg57
I0
sg55
I0
ssg31
(dp340
g149
I0
sg16
I0
sg70
I0
sg37
I0
sg14
I0
sg49
I0
sg53
I0
sg23
I0
sg36
I0
sg76
I0
sg72
I0
sg33
I0
sg51
I0
sg31
I3
sg32
I4
sg9
I0
sg10
I0
sg22
I0
sg48
I0
sg35
I0
sg46
I0
sg47
I0
sg39
I0
sg38
I0
sg8
I0
sg30
I0
sg71
I0
sg26
I0
sg44
I0
sg27
I0
sg73
I0
sg21
I0
sg45
I0
sg24
I0
sg77
I0
sg29
I0
sg25
I0
sg15
I0
sg43
I0
sg250
I0
sg42
I0
sg251
I0
sg41
I0
sg50
I0
sg18
I0
sg68
I0
sg34
I0
sg52
I0
sg253
I0
sg67
I0
sg28
I0
sg19
I0
sg11
I0
sg12
I0
sg20
I0
sg69
I0
sg307
I0
sg17
I0
sg40
I0
sg255
I0
sg13
I0
sg175
I0
ssg32
(dp341
g149
I0
sg16
I0
sg70
I0
sg37
I0
sg14
I0
sg49
I0
sg53
I0
sg23
I0
sg36
I0
sg33
I0
sg51
I0
sg31
I0
sg32
I0
sg9
I0
sg10
I0
sg22
I0
sg48
I0
sg35
I0
sg46
I0
sg47
I0
sg39
I0
sg38
I0
sg8
I0
sg30
I0
sg71
I0
sg27
I0
sg44
I0
sg26
I0
sg141
I0
sg21
I0
sg45
I0
sg24
I0
sg29
I0
sg25
I0
sg15
I0
sg43
I0
sg42
I0
sg142
I0
sg41
I0
sg50
I0
sg18
I0
sg68
I0
sg34
I0
sg52
I0
sg143
I0
sg67
I0
sg28
I0
sg19
I0
sg11
I0
sg12
I0
sg20
I0
sg69
I0
sg17
I0
sg40
I0
sg146
I0
sg13
I0
sg175
I0
ssg9
(dp342
g66
I0
sg64
I0
sg16
I0
sg70
I0
sg37
I0
sg75
I0
sg14
I0
sg89
I0
sg193
I0
sg23
I0
sg36
I0
sg33
I0
sg56
I0
sg31
I0
sg32
I0
sg9
I0
sg10
I7
sg22
I0
sg102
I0
sg35
I0
sg46
I0
sg47
I0
sg39
I0
sg38
I0
sg8
I0
sg30
I0
sg71
I0
sg26
I0
sg69
I0
sg54
I0
sg44
I0
sg27
I0
sg160
I0
sg21
I0
sg45
I0
sg24
I0
sg29
I0
sg25
I0
sg15
I0
sg43
I0
sg58
I0
sg42
I0
sg108
I0
sg60
I0
sg41
I0
sg97
I0
sg18
I0
sg68
I0
sg34
I0
sg113
I0
sg59
I0
sg67
I0
sg28
I0
sg19
I0
sg11
I0
sg12
I0
sg20
I0
sg61
I0
sg63
I0
sg17
I0
sg40
I0
sg74
I0
sg62
I0
sg65
I0
sg13
I0
sg57
I0
sg55
I0
ssg10
(dp343
g66
I0
sg64
I0
sg16
I0
sg70
I0
sg37
I0
sg75
I0
sg14
I0
sg49
I0
sg53
I0
sg23
I0
sg36
I0
sg76
I0
sg72
I0
sg33
I0
sg51
I0
sg31
I0
sg32
I0
sg9
I1
sg10
I13
sg22
I0
sg48
I0
sg35
I0
sg46
I0
sg47
I0
sg39
I0
sg38
I0
sg8
I0
sg30
I0
sg71
I0
sg26
I0
sg69
I0
sg54
I0
sg44
I0
sg27
I0
sg73
I0
sg21
I0
sg45
I0
sg24
I0
sg77
I0
sg29
I0
sg25
I0
sg15
I0
sg43
I0
sg58
I0
sg42
I0
sg60
I0
sg41
I0
sg56
I0
sg50
I0
sg18
I0
sg68
I0
sg34
I0
sg52
I0
sg59
I0
sg67
I0
sg28
I0
sg19
I0
sg11
I0
sg12
I0
sg20
I0
sg61
I0
sg63
I0
sg17
I0
sg40
I0
sg74
I0
sg62
I0
sg65
I0
sg13
I0
sg57
I0
sg55
I0
ssg22
(dp344
g66
I0
sg64
I0
sg16
I0
sg70
I0
sg37
I0
sg75
I0
sg14
I0
sg49
I0
sg53
I0
sg23
I0
sg36
I0
sg76
I0
sg72
I0
sg33
I0
sg51
I0
sg31
I0
sg32
I0
sg9
I0
sg10
I0
sg22
I29
sg48
I0
sg35
I0
sg46
I0
sg47
I0
sg39
I0
sg38
I0
sg8
I0
sg30
I0
sg71
I0
sg26
I0
sg69
I0
sg54
I3
sg44
I0
sg27
I0
sg73
I0
sg21
I0
sg45
I0
sg24
I0
sg77
I0
sg29
I0
sg25
I0
sg15
I0
sg43
I0
sg58
I0
sg42
I0
sg60
I0
sg41
I0
sg56
I0
sg50
I0
sg18
I0
sg68
I0
sg34
I0
sg52
I0
sg59
I0
sg67
I0
sg28
I0
sg19
I0
sg11
I0
sg12
I0
sg20
I0
sg61
I3
sg63
I0
sg17
I0
sg40
I0
sg74
I0
sg62
I0
sg65
I0
sg13
I0
sg57
I0
sg55
I0
ssg48
(dp345
g66
I0
sg64
I0
sg210
I0
sg211
I0
sg49
I0
sg53
I0
sg212
I0
sg213
I0
sg76
I0
sg214
I0
sg51
I0
sg215
I0
sg216
I0
sg86
I0
sg217
I0
sg218
I0
sg48
I0
sg219
I0
sg220
I0
sg221
I0
sg93
I0
sg222
I0
sg223
I0
sg224
I0
sg225
I0
sg226
I0
sg54
I0
sg227
I0
sg290
I0
sg228
I0
sg229
I0
sg230
I0
sg77
I0
sg231
I0
sg232
I0
sg104
I0
sg233
I0
sg58
I0
sg234
I0
sg60
I0
sg235
I0
sg56
I0
sg50
I0
sg236
I0
sg237
I0
sg52
I0
sg59
I0
sg238
I0
sg239
I0
sg240
I0
sg241
I0
sg242
I0
sg61
I0
sg63
I0
sg243
I0
sg244
I0
sg62
I0
sg65
I0
sg245
I0
sg57
I0
sg55
I0
ssg35
(dp346
g66
I0
sg64
I0
sg16
I0
sg70
I0
sg37
I0
sg14
I0
sg49
I0
sg53
I0
sg23
I0
sg36
I0
sg76
I0
sg72
I0
sg33
I0
sg51
I0
sg31
I0
sg32
I0
sg9
I0
sg10
I0
sg22
I0
sg48
I0
sg35
I2
sg46
I0
sg47
I0
sg39
I0
sg38
I0
sg8
I5
sg30
I0
sg71
I0
sg26
I0
sg69
I0
sg54
I0
sg44
I0
sg27
I0
sg73
I0
sg21
I0
sg45
I0
sg24
I0
sg77
I0
sg29
I0
sg25
I0
sg15
I0
sg43
I0
sg58
I0
sg42
I0
sg60
I0
sg41
I0
sg56
I0
sg50
I0
sg18
I0
sg68
I0
sg34
I0
sg52
I0
sg59
I0
sg67
I0
sg28
I0
sg19
I0
sg11
I0
sg12
I0
sg20
I0
sg61
I0
sg63
I0
sg17
I0
sg40
I0
sg62
I0
sg65
I0
sg13
I0
sg57
I0
sg55
I0
ssg46
(dp347
g66
I0
sg64
I0
sg16
I0
sg37
I0
sg75
I0
sg14
I0
sg49
I0
sg53
I0
sg23
I0
sg36
I0
sg76
I0
sg72
I0
sg33
I0
sg51
I0
sg31
I0
sg32
I0
sg9
I0
sg10
I0
sg22
I0
sg48
I0
sg35
I0
sg46
I0
sg47
I7
sg39
I0
sg38
I0
sg8
I0
sg30
I0
sg26
I0
sg54
I0
sg44
I0
sg27
I0
sg73
I0
sg21
I0
sg45
I0
sg24
I0
sg77
I0
sg29
I0
sg25
I0
sg15
I0
sg43
I0
sg58
I0
sg42
I0
sg60
I0
sg41
I0
sg56
I0
sg50
I0
sg18
I0
sg34
I0
sg52
I0
sg59
I0
sg28
I0
sg19
I0
sg11
I0
sg12
I0
sg20
I0
sg61
I0
sg63
I0
sg17
I0
sg40
I0
sg74
I0
sg62
I0
sg65
I0
sg13
I0
sg57
I0
sg55
I0
ssg47
(dp348
g66
I0
sg64
I0
sg16
I0
sg37
I0
sg75
I0
sg14
I0
sg49
I0
sg53
I0
sg23
I0
sg36
I0
sg76
I0
sg72
I0
sg33
I0
sg51
I0
sg31
I0
sg32
I0
sg9
I0
sg10
I0
sg22
I0
sg48
I0
sg35
I0
sg46
I0
sg47
I0
sg39
I0
sg38
I0
sg8
I0
sg30
I0
sg26
I0
sg54
I0
sg44
I0
sg27
I0
sg73
I0
sg21
I0
sg45
I0
sg24
I0
sg77
I0
sg29
I0
sg25
I0
sg15
I0
sg43
I0
sg58
I0
sg42
I0
sg60
I0
sg41
I0
sg56
I0
sg50
I0
sg18
I0
sg34
I0
sg52
I0
sg59
I0
sg28
I0
sg19
I0
sg11
I0
sg12
I0
sg20
I0
sg61
I0
sg63
I0
sg17
I0
sg40
I0
sg74
I0
sg62
I0
sg65
I0
sg13
I0
sg57
I0
sg55
I0
ssg39
(dp349
g66
I0
sg64
I0
sg16
I0
sg37
I0
sg14
I0
sg49
I0
sg53
I0
sg23
I0
sg36
I0
sg76
I0
sg33
I0
sg51
I0
sg31
I0
sg32
I0
sg9
I0
sg10
I0
sg22
I0
sg48
I0
sg35
I0
sg46
I0
sg47
I0
sg39
I0
sg38
I0
sg8
I0
sg30
I0
sg26
I0
sg54
I0
sg44
I0
sg27
I0
sg290
I0
sg21
I0
sg45
I0
sg24
I0
sg77
I0
sg29
I0
sg25
I0
sg15
I0
sg43
I0
sg58
I0
sg42
I0
sg60
I0
sg41
I0
sg56
I0
sg50
I0
sg18
I0
sg34
I0
sg52
I0
sg59
I0
sg28
I0
sg19
I0
sg11
I0
sg12
I0
sg20
I0
sg61
I0
sg63
I0
sg17
I0
sg40
I0
sg62
I0
sg65
I0
sg13
I0
sg57
I0
sg55
I0
ssg38
(dp350
g66
I0
sg64
I0
sg16
I0
sg70
I0
sg37
I0
sg75
I0
sg14
I0
sg49
I0
sg53
I0
sg23
I0
sg36
I0
sg76
I0
sg72
I0
sg33
I0
sg51
I0
sg31
I0
sg32
I0
sg9
I0
sg10
I0
sg22
I0
sg48
I0
sg35
I0
sg46
I0
sg47
I0
sg39
I4
sg38
I3
sg8
I0
sg30
I0
sg71
I0
sg27
I0
sg69
I0
sg54
I0
sg44
I0
sg26
I0
sg73
I0
sg21
I0
sg45
I0
sg24
I0
sg77
I0
sg29
I0
sg25
I0
sg15
I0
sg43
I0
sg58
I0
sg42
I0
sg60
I0
sg41
I0
sg56
I0
sg50
I0
sg18
I0
sg68
I0
sg34
I0
sg52
I0
sg59
I0
sg67
I0
sg28
I0
sg19
I0
sg11
I0
sg12
I0
sg20
I0
sg61
I0
sg63
I0
sg17
I0
sg40
I0
sg74
I0
sg62
I0
sg65
I0
sg13
I0
sg57
I0
sg55
I0
ssg8
(dp351
g66
I0
sg64
I0
sg16
I0
sg70
I0
sg37
I0
sg75
I0
sg14
I0
sg49
I0
sg53
I0
sg23
I0
sg36
I0
sg76
I0
sg72
I0
sg33
I0
sg51
I0
sg31
I0
sg32
I0
sg9
I0
sg10
I0
sg22
I0
sg48
I0
sg35
I8
sg46
I0
sg47
I0
sg39
I0
sg38
I0
sg8
I20
sg30
I0
sg71
I0
sg26
I0
sg69
I0
sg54
I0
sg44
I0
sg27
I0
sg73
I0
sg21
I0
sg45
I0
sg24
I0
sg77
I0
sg29
I0
sg25
I0
sg15
I0
sg43
I0
sg58
I0
sg42
I0
sg60
I0
sg41
I0
sg56
I0
sg50
I0
sg18
I0
sg68
I0
sg34
I0
sg52
I0
sg59
I0
sg67
I0
sg28
I0
sg19
I0
sg11
I0
sg12
I0
sg20
I0
sg61
I0
sg63
I0
sg17
I0
sg40
I0
sg74
I0
sg62
I0
sg65
I0
sg13
I0
sg57
I0
sg55
I0
ssg30
(dp352
g149
I0
sg16
I0
sg70
I0
sg37
I0
sg14
I0
sg49
I0
sg53
I0
sg23
I0
sg36
I0
sg76
I0
sg72
I0
sg33
I0
sg51
I0
sg31
I0
sg32
I0
sg9
I0
sg10
I0
sg22
I0
sg48
I0
sg35
I0
sg46
I0
sg47
I0
sg39
I0
sg38
I0
sg8
I0
sg30
I4
sg71
I3
sg26
I0
sg44
I0
sg27
I0
sg73
I0
sg21
I0
sg45
I0
sg24
I0
sg77
I0
sg29
I0
sg25
I0
sg15
I0
sg43
I0
sg250
I0
sg42
I0
sg251
I0
sg41
I0
sg50
I0
sg18
I0
sg68
I0
sg34
I0
sg52
I0
sg253
I0
sg67
I0
sg28
I0
sg19
I0
sg11
I0
sg12
I0
sg20
I0
sg69
I0
sg307
I0
sg17
I0
sg40
I0
sg255
I0
sg13
I0
sg175
I0
ssg71
(dp353
g149
I0
sg122
I0
sg150
I0
sg151
I0
sg132
I0
sg152
I0
sg127
I0
sg172
I0
sg123
I0
sg124
I0
sg153
I0
sg154
I0
sg155
I0
sg156
I0
sg157
I0
sg158
I0
sg159
I0
sg136
I0
sg71
I0
sg126
I0
sg129
I0
sg160
I0
sg161
I0
sg162
I0
sg68
I0
sg125
I0
sg130
I0
sg163
I0
sg164
I0
sg165
I0
sg166
I0
sg131
I0
sg167
I0
sg168
I0
sg169
I0
sg67
I0
sg133
I0
sg170
I0
sg171
I0
sg70
I0
sg69
I0
sg135
I0
sg173
I0
sg174
I0
sg175
I0
ssg26
(dp354
g258
I0
sg149
I0
sg16
I0
sg70
I0
sg37
I0
sg14
I0
sg49
I0
sg53
I0
sg23
I0
sg36
I0
sg76
I0
sg33
I0
sg51
I0
sg31
I0
sg32
I0
sg9
I0
sg10
I0
sg22
I0
sg48
I0
sg35
I0
sg46
I0
sg47
I0
sg39
I0
sg38
I0
sg8
I0
sg30
I0
sg71
I0
sg26
I7
sg259
I0
sg44
I0
sg27
I0
sg160
I0
sg21
I0
sg45
I0
sg260
I0
sg24
I0
sg77
I0
sg29
I0
sg25
I0
sg15
I0
sg43
I0
sg261
I0
sg42
I0
sg262
I0
sg41
I0
sg50
I0
sg18
I0
sg68
I0
sg34
I0
sg52
I0
sg263
I0
sg67
I0
sg28
I0
sg19
I0
sg11
I0
sg12
I0
sg20
I0
sg69
I0
sg264
I0
sg17
I0
sg40
I0
sg265
I0
sg266
I0
sg13
I0
sg175
I0
sg267
I0
ssg69
(dp355
g149
I0
sg122
I0
sg150
I0
sg151
I0
sg132
I0
sg152
I0
sg127
I0
sg172
I0
sg123
I0
sg124
I0
sg153
I0
sg154
I0
sg155
I0
sg156
I0
sg157
I0
sg158
I0
sg159
I0
sg136
I0
sg71
I0
sg126
I0
sg129
I0
sg160
I0
sg161
I0
sg162
I0
sg68
I0
sg125
I0
sg130
I0
sg163
I0
sg164
I0
sg165
I0
sg166
I0
sg131
I0
sg167
I0
sg168
I0
sg169
I0
sg67
I0
sg133
I0
sg170
I0
sg171
I0
sg70
I0
sg69
I0
sg135
I0
sg173
I0
sg174
I0
sg175
I0
ssg54
(dp356
g66
I0
sg64
I0
sg82
I0
sg83
I0
sg61
I0
sg54
I0
sg84
I0
sg85
I0
sg56
I0
sg86
I0
sg87
I0
sg88
I0
sg89
I0
sg90
I0
sg91
I0
sg92
I0
sg93
I0
sg94
I0
sg95
I0
sg96
I0
sg97
I0
sg98
I0
sg99
I0
sg100
I0
sg101
I0
sg102
I0
sg103
I0
sg104
I0
sg105
I0
sg58
I0
sg106
I0
sg107
I0
sg108
I0
sg60
I0
sg109
I0
sg110
I0
sg111
I0
sg112
I0
sg113
I0
sg59
I0
sg114
I0
sg115
I0
sg55
I0
sg116
I0
sg117
I0
sg63
I0
sg118
I0
sg119
I0
sg62
I0
sg120
I0
sg57
I0
sg65
I0
ssg44
(dp357
g66
I0
sg64
I0
sg16
I0
sg37
I0
sg14
I0
sg49
I0
sg53
I0
sg23
I0
sg36
I0
sg76
I0
sg72
I1
sg33
I0
sg51
I0
sg31
I0
sg32
I0
sg9
I0
sg10
I0
sg22
I0
sg48
I0
sg35
I0
sg46
I0
sg47
I0
sg39
I0
sg38
I0
sg8
I0
sg30
I0
sg26
I0
sg54
I0
sg75
I0
sg27
I0
sg73
I0
sg44
I3
sg45
I3
sg24
I0
sg77
I0
sg29
I0
sg25
I0
sg15
I0
sg43
I0
sg58
I0
sg42
I0
sg60
I0
sg41
I0
sg56
I0
sg50
I0
sg18
I0
sg34
I0
sg52
I0
sg59
I0
sg28
I0
sg19
I0
sg11
I0
sg12
I0
sg20
I0
sg61
I0
sg63
I0
sg17
I0
sg40
I0
sg74
I0
sg62
I0
sg21
I0
sg65
I0
sg13
I0
sg57
I0
sg55
I0
ssg27
(dp358
g258
I0
sg149
I0
sg16
I0
sg70
I0
sg37
I0
sg14
I0
sg49
I0
sg53
I0
sg23
I0
sg36
I0
sg76
I0
sg33
I0
sg51
I0
sg31
I0
sg32
I0
sg9
I0
sg10
I0
sg22
I0
sg48
I0
sg35
I0
sg46
I0
sg47
I0
sg39
I0
sg38
I0
sg8
I0
sg30
I0
sg71
I0
sg27
I0
sg259
I0
sg44
I0
sg26
I0
sg160
I0
sg21
I0
sg45
I0
sg260
I0
sg24
I0
sg77
I0
sg29
I0
sg25
I0
sg15
I0
sg43
I0
sg261
I0
sg42
I0
sg262
I0
sg41
I0
sg50
I0
sg18
I0
sg68
I0
sg34
I0
sg52
I0
sg263
I0
sg67
I0
sg28
I7
sg19
I0
sg11
I0
sg12
I0
sg20
I0
sg69
I0
sg264
I0
sg17
I0
sg40
I0
sg265
I0
sg266
I0
sg13
I0
sg175
I0
sg267
I0
ssg73
(dp359
g247
I0
sg122
I0
sg248
I0
sg311
I0
sg312
I0
sg292
I0
sS'bread.n.01'
p360
I0
sg313
I0
sg76
I0
sg314
I0
sg315
I0
sg316
I0
sS'milk.n.02'
p361
I0
sS'pan.n.01'
p362
I0
sg317
I0
sg318
I0
sg319
I0
sg320
I0
sg321
I0
sg322
I0
sS'beef.n.02'
p363
I0
sg283
I0
sg323
I0
sg324
I0
sg325
I0
sg249
I0
sS'meat.n.01'
p364
I0
sS'cleaver.n.01'
p365
I0
sg73
I0
sg326
I0
sg128
I0
sg327
I0
sg77
I0
sg328
I0
sS'knife.n.02'
p366
I0
sS'plate.n.04'
p367
I0
sg329
I0
sg250
I0
sg330
I0
sg251
I0
sg331
I0
sg301
I0
sg72
I0
sg252
I0
sg332
I0
sg333
I0
sg295
I0
sg253
I0
sg144
I0
sS'helicopter.n.01'
p368
I0
sS'water.n.06'
p369
I0
sg334
I0
sg335
I0
sS'piece.n.08'
p370
I0
sg254
I0
sg307
I0
sS'kettle.n.01'
p371
I0
sg336
I0
sg255
I0
sg337
I0
sg256
I0
ssg21
(dp372
g66
I0
sg64
I0
sg16
I0
sg70
I0
sg37
I0
sg75
I0
sg14
I0
sg49
I0
sg53
I0
sg23
I0
sg36
I0
sg76
I0
sg72
I0
sg33
I0
sg51
I0
sg31
I0
sg32
I0
sg9
I0
sg10
I0
sg22
I0
sg48
I0
sg35
I0
sg46
I0
sg47
I0
sg39
I0
sg38
I0
sg8
I0
sg30
I0
sg71
I0
sg26
I0
sg69
I0
sg54
I0
sg44
I0
sg27
I0
sg73
I5
sg21
I30
sg45
I0
sg24
I0
sg77
I0
sg29
I0
sg25
I0
sg15
I0
sg43
I0
sg58
I0
sg42
I0
sg60
I0
sg41
I0
sg56
I0
sg50
I0
sg18
I0
sg68
I0
sg34
I0
sg52
I0
sg59
I0
sg67
I0
sg28
I0
sg19
I0
sg11
I0
sg12
I0
sg20
I0
sg61
I0
sg63
I0
sg17
I0
sg40
I0
sg74
I0
sg62
I0
sg65
I0
sg13
I0
sg57
I0
sg55
I0
ssg45
(dp373
g16
I0
sg37
I0
sg14
I0
sg49
I0
sg53
I0
sg23
I0
sg36
I0
sg76
I0
sg33
I0
sg51
I0
sg31
I0
sg32
I0
sg9
I0
sg10
I0
sg22
I0
sg48
I0
sg35
I0
sg46
I0
sg47
I0
sg39
I0
sg38
I0
sg8
I0
sg30
I0
sg26
I0
sg44
I0
sg27
I0
sg290
I0
sg21
I0
sg45
I0
sg24
I0
sg294
I0
sg29
I0
sg25
I0
sg15
I0
sg43
I0
sg42
I0
sg299
I0
sg41
I0
sg50
I0
sg18
I0
sg34
I0
sg52
I0
sg304
I0
sg28
I0
sg19
I0
sg11
I0
sg12
I0
sg20
I0
sg307
I0
sg17
I0
sg40
I0
sg77
I0
sg13
I0
ssg24
(dp374
g258
I0
sg149
I0
sg16
I0
sg70
I0
sg37
I0
sg14
I0
sg49
I0
sg53
I0
sg23
I0
sg36
I0
sg76
I0
sg72
I0
sg33
I0
sg51
I0
sg31
I0
sg32
I0
sg9
I0
sg10
I0
sg22
I0
sg48
I0
sg35
I0
sg46
I0
sg47
I0
sg39
I0
sg38
I0
sg8
I0
sg30
I0
sg71
I0
sg26
I0
sg259
I0
sg44
I0
sg27
I0
sg73
I0
sg21
I0
sg45
I0
sg260
I0
sg24
I1
sg77
I0
sg29
I0
sg25
I13
sg15
I0
sg43
I0
sg250
I0
sg42
I0
sg251
I0
sg41
I0
sg50
I0
sg18
I0
sg68
I0
sg34
I0
sg52
I0
sg253
I0
sg67
I0
sg28
I0
sg19
I0
sg11
I0
sg12
I0
sg20
I0
sg69
I0
sg264
I0
sg17
I0
sg40
I0
sg255
I0
sg266
I0
sg13
I0
sg175
I0
sg267
I0
ssg77
(dp375
g270
I0
sg271
I0
sg272
I0
sg273
I0
sg76
I0
sg274
I0
sg275
I0
sg276
I0
sg277
I0
sg278
I0
sg279
I0
sg280
I0
sg281
I0
sg282
I0
sg283
I0
sg284
I0
sg285
I0
sg286
I0
sg287
I0
sg288
I0
sg289
I0
sg290
I0
sg291
I0
sg292
I0
sg293
I0
sg294
I0
sg295
I0
sg296
I0
sg297
I0
sg298
I0
sg299
I0
sg300
I0
sg301
I0
sg302
I0
sg303
I0
sg304
I0
sg305
I0
sg306
I0
sg307
I0
sg308
I0
sg77
I0
sg309
I0
ssg29
(dp376
g149
I0
sg16
I0
sg70
I0
sg37
I0
sg14
I0
sg49
I0
sg53
I0
sg23
I0
sg36
I0
sg76
I0
sg72
I0
sg33
I0
sg51
I0
sg31
I0
sg32
I0
sg9
I0
sg10
I0
sg22
I0
sg48
I0
sg35
I0
sg46
I0
sg47
I0
sg39
I0
sg38
I0
sg8
I0
sg30
I0
sg71
I0
sg26
I0
sg44
I0
sg27
I0
sg73
I0
sg21
I0
sg45
I0
sg24
I0
sg77
I0
sg29
I7
sg25
I0
sg15
I0
sg43
I0
sg250
I0
sg42
I0
sg251
I0
sg41
I0
sg50
I0
sg18
I0
sg68
I0
sg34
I0
sg52
I0
sg253
I0
sg67
I0
sg28
I0
sg19
I0
sg11
I0
sg12
I0
sg20
I0
sg69
I0
sg307
I0
sg17
I0
sg40
I0
sg255
I0
sg13
I0
sg175
I0
ssg25
(dp377
g258
I0
sg149
I0
sg16
I0
sg70
I0
sg37
I0
sg14
I0
sg49
I0
sg53
I0
sg23
I0
sg36
I0
sg76
I0
sg33
I0
sg51
I0
sg31
I0
sg32
I0
sg9
I0
sg10
I0
sg22
I0
sg48
I0
sg35
I0
sg46
I0
sg47
I0
sg39
I0
sg38
I0
sg8
I0
sg30
I0
sg71
I0
sg26
I0
sg259
I0
sg44
I0
sg27
I0
sg160
I0
sg21
I0
sg45
I0
sg260
I0
sg24
I0
sg77
I0
sg29
I0
sg25
I0
sg15
I0
sg43
I0
sg261
I0
sg42
I0
sg262
I0
sg41
I0
sg50
I0
sg18
I0
sg68
I0
sg34
I0
sg52
I0
sg263
I0
sg67
I0
sg28
I0
sg19
I0
sg11
I0
sg12
I0
sg20
I0
sg69
I0
sg264
I0
sg17
I0
sg40
I0
sg265
I0
sg266
I0
sg13
I0
sg175
I0
sg267
I0
ssg15
(dp378
g66
I2
sg64
I0
sg16
I2
sg70
I0
sg37
I0
sg75
I1
sg14
I0
sg89
I0
sg193
I0
sg23
I0
sg36
I0
sg33
I0
sg56
I0
sg31
I0
sg32
I0
sg9
I0
sg10
I0
sg22
I0
sg102
I0
sg35
I0
sg46
I0
sg47
I0
sg39
I0
sg38
I0
sg8
I0
sg30
I0
sg71
I0
sg26
I0
sg69
I0
sg54
I0
sg44
I0
sg27
I0
sg160
I0
sg21
I0
sg45
I0
sg24
I0
sg29
I0
sg25
I0
sg15
I0
sg43
I0
sg58
I0
sg42
I0
sg108
I0
sg60
I0
sg41
I0
sg97
I0
sg18
I0
sg68
I2
sg34
I0
sg113
I0
sg59
I0
sg67
I0
sg28
I0
sg19
I0
sg11
I0
sg12
I0
sg20
I0
sg61
I0
sg63
I0
sg17
I0
sg40
I0
sg74
I0
sg62
I0
sg65
I0
sg13
I0
sg57
I0
sg55
I0
ssg43
(dp379
g66
I0
sg64
I0
sg16
I0
sg248
I0
sg37
I0
sg75
I0
sg14
I0
sg49
I0
sg53
I0
sg23
I0
sg36
I0
sg76
I0
sg72
I0
sg33
I0
sg51
I0
sg31
I0
sg32
I0
sg9
I0
sg10
I0
sg22
I0
sg48
I0
sg35
I0
sg46
I0
sg47
I0
sg39
I0
sg38
I0
sg8
I0
sg30
I0
sg249
I0
sg26
I0
sg254
I0
sg54
I0
sg44
I0
sg27
I0
sg73
I0
sg21
I0
sg45
I0
sg24
I0
sg77
I0
sg29
I0
sg25
I0
sg15
I0
sg43
I3
sg58
I3
sg42
I1
sg60
I0
sg41
I0
sg56
I0
sg50
I0
sg18
I0
sg252
I0
sg34
I0
sg52
I0
sg59
I0
sg28
I0
sg19
I0
sg11
I0
sg12
I0
sg20
I0
sg61
I0
sg63
I0
sg17
I0
sg40
I0
sg74
I0
sg62
I0
sg65
I0
sg13
I0
sg57
I0
sg55
I0
ssg58
(dp380
g66
I0
sg64
I0
sg82
I0
sg83
I0
sg61
I0
sg54
I0
sg84
I0
sg327
I0
sg56
I0
sg316
I0
sg86
I0
sg87
I0
sg88
I0
sg89
I0
sg90
I0
sg91
I0
sg92
I0
sg93
I0
sg94
I0
sg95
I0
sg96
I0
sg328
I0
sg97
I0
sg98
I0
sg99
I0
sg73
I0
sg100
I0
sg128
I0
sg101
I0
sg102
I0
sg103
I0
sg104
I0
sg105
I0
sg58
I0
sg106
I0
sg107
I0
sg108
I0
sg60
I0
sg109
I0
sg72
I0
sg111
I0
sg112
I0
sg113
I0
sg59
I0
sg114
I0
sg115
I0
sg55
I0
sg116
I0
sg117
I0
sg110
I0
sg63
I0
sg118
I0
sg119
I0
sg62
I0
sg120
I0
sg325
I0
sg57
I0
sg65
I0
ssg42
(dp381
g66
I0
sg64
I0
sg16
I0
sg248
I0
sg37
I0
sg75
I0
sg14
I0
sg49
I0
sg53
I0
sg23
I0
sg36
I0
sg76
I0
sg72
I0
sg33
I0
sg51
I0
sg31
I0
sg32
I0
sg9
I0
sg10
I0
sg22
I0
sg48
I0
sg35
I0
sg46
I0
sg47
I0
sg39
I0
sg38
I0
sg8
I0
sg30
I0
sg249
I0
sg27
I0
sg254
I0
sg54
I0
sg44
I0
sg26
I0
sg73
I0
sg21
I0
sg45
I0
sg24
I0
sg77
I0
sg29
I0
sg25
I0
sg15
I0
sg43
I2
sg58
I0
sg42
I1
sg60
I0
sg41
I0
sg56
I0
sg50
I4
sg18
I0
sg252
I0
sg34
I0
sg52
I0
sg59
I0
sg28
I0
sg19
I0
sg11
I0
sg12
I0
sg20
I0
sg61
I0
sg63
I0
sg17
I0
sg40
I0
sg74
I0
sg62
I0
sg65
I0
sg13
I0
sg57
I0
sg55
I0
ssg60
(dp382
g66
I0
sg64
I0
sg122
I0
sg248
I0
sg82
I0
sg83
I0
sg61
I0
sg292
I0
sg54
I0
sg84
I0
sg76
I0
sg327
I0
sg56
I0
sg316
I0
sg361
I0
sg86
I0
sg87
I0
sg88
I0
sg89
I0
sg90
I0
sg91
I0
sg92
I0
sg93
I0
sg94
I0
sg95
I0
sg96
I0
sg328
I0
sg97
I0
sg249
I0
sg98
I0
sg252
I0
sg99
I0
sg73
I0
sg100
I0
sg128
I0
sg101
I0
sg77
I0
sg102
I0
sg103
I0
sg104
I0
sg105
I0
sg58
I0
sg106
I0
sg107
I0
sg108
I0
sg60
I0
sg109
I0
sg72
I0
sg111
I0
sg112
I0
sg113
I0
sg59
I0
sg144
I0
sg114
I0
sg115
I0
sg55
I0
sg116
I0
sg117
I0
sg110
I0
sg254
I0
sg63
I0
sg118
I0
sg119
I0
sg62
I0
sg120
I0
sg325
I0
sg57
I0
sg65
I0
ssg41
(dp383
g66
I0
sg64
I0
sg16
I0
sg37
I0
sg75
I0
sg14
I0
sg49
I0
sg53
I0
sg23
I0
sg36
I0
sg76
I0
sg72
I0
sg33
I0
sg51
I0
sg31
I0
sg32
I0
sg9
I0
sg10
I0
sg22
I0
sg48
I0
sg35
I0
sg46
I0
sg47
I0
sg39
I0
sg38
I0
sg8
I0
sg30
I0
sg26
I0
sg54
I0
sg44
I0
sg27
I0
sg73
I0
sg21
I0
sg45
I0
sg24
I0
sg77
I0
sg29
I0
sg25
I0
sg15
I0
sg43
I0
sg58
I0
sg42
I0
sg60
I0
sg41
I7
sg56
I0
sg50
I0
sg18
I0
sg34
I0
sg52
I0
sg59
I0
sg28
I0
sg19
I0
sg11
I0
sg12
I0
sg20
I0
sg61
I0
sg63
I0
sg17
I0
sg40
I0
sg74
I0
sg62
I0
sg65
I0
sg13
I0
sg57
I0
sg55
I0
ssg56
(dp384
g66
I0
sg64
I0
sg82
I0
sg83
I0
sg61
I0
sg54
I0
sg84
I0
sg96
I0
sg86
I0
sg87
I0
sg88
I0
sg89
I0
sg90
I0
sg91
I0
sg92
I0
sg93
I0
sg94
I0
sg95
I0
sg56
I0
sg97
I0
sg75
I0
sg100
I0
sg193
I0
sg101
I0
sg102
I0
sg104
I0
sg105
I0
sg58
I0
sg106
I0
sg107
I0
sg108
I0
sg60
I0
sg109
I0
sg198
I0
sg112
I0
sg113
I0
sg59
I0
sg134
I0
sg55
I0
sg116
I0
sg117
I0
sg63
I0
sg204
I0
sg119
I0
sg74
I0
sg62
I0
sg120
I0
sg57
I0
sg65
I0
ssg50
(dp385
g66
I0
sg64
I0
sg210
I0
sg211
I0
sg49
I0
sg53
I0
sg212
I0
sg213
I0
sg76
I0
sg214
I0
sg51
I0
sg215
I0
sg216
I0
sg86
I0
sg217
I0
sg218
I0
sg231
I0
sg225
I0
sg220
I0
sg221
I0
sg93
I0
sg222
I0
sg223
I0
sg224
I0
sg50
I0
sg226
I0
sg54
I0
sg227
I0
sg290
I0
sg228
I0
sg229
I0
sg230
I0
sg77
I0
sg48
I0
sg232
I0
sg104
I0
sg233
I0
sg58
I0
sg234
I0
sg60
I0
sg235
I0
sg56
I0
sg236
I0
sg237
I0
sg52
I0
sg59
I0
sg238
I0
sg219
I0
sg239
I0
sg240
I0
sg241
I0
sg242
I0
sg61
I0
sg63
I0
sg243
I0
sg244
I0
sg62
I0
sg65
I0
sg245
I0
sg57
I0
sg55
I0
ssg18
(dp386
g258
I0
sg149
I0
sg16
I0
sg70
I3
sg37
I0
sg14
I0
sg49
I0
sg53
I0
sg23
I0
sg36
I0
sg33
I0
sg51
I0
sg31
I0
sg32
I0
sg9
I0
sg10
I0
sg22
I0
sg48
I0
sg35
I0
sg46
I0
sg47
I0
sg39
I0
sg38
I0
sg8
I0
sg30
I0
sg71
I0
sg26
I0
sg259
I0
sg44
I0
sg27
I0
sg160
I0
sg21
I0
sg45
I0
sg260
I0
sg24
I0
sg29
I0
sg25
I0
sg15
I0
sg43
I0
sg261
I0
sg42
I0
sg266
I0
sg262
I0
sg41
I0
sg191
I0
sg50
I0
sg18
I0
sg68
I0
sg34
I0
sg52
I0
sg200
I0
sg67
I0
sg28
I0
sg19
I4
sg11
I0
sg12
I0
sg20
I0
sg69
I0
sg264
I0
sg17
I0
sg40
I0
sg74
I0
sg206
I0
sg75
I0
sg13
I0
sg175
I0
sg201
I0
ssg68
(dp387
g149
I0
sg150
I0
sg151
I0
sg132
I0
sg152
I0
sg127
I0
sg172
I0
sg123
I0
sg124
I0
sg153
I0
sg154
I0
sg155
I0
sg156
I0
sg157
I0
sg158
I0
sg159
I0
sg136
I0
sg71
I0
sg126
I0
sg129
I0
sg160
I0
sg161
I0
sg162
I0
sg68
I0
sg125
I0
sg130
I0
sg163
I0
sg164
I0
sg165
I0
sg166
I0
sg131
I0
sg167
I0
sg168
I0
sg169
I0
sg67
I0
sg133
I0
sg170
I0
sg171
I0
sg70
I0
sg69
I0
sg135
I0
sg173
I0
sg174
I0
sg175
I0
ssg34
(dp388
g66
I0
sg64
I0
sg16
I0
sg70
I0
sg37
I0
sg14
I0
sg49
I4
sg53
I0
sg23
I0
sg36
I0
sg76
I0
sg72
I0
sg33
I0
sg51
I0
sg31
I0
sg32
I0
sg9
I0
sg10
I0
sg22
I0
sg48
I0
sg35
I0
sg46
I0
sg47
I0
sg39
I0
sg38
I0
sg8
I0
sg30
I0
sg71
I0
sg27
I0
sg69
I0
sg54
I0
sg44
I0
sg26
I0
sg73
I0
sg21
I0
sg45
I0
sg24
I0
sg77
I0
sg29
I0
sg25
I0
sg15
I0
sg43
I0
sg58
I0
sg42
I0
sg60
I0
sg41
I0
sg56
I0
sg50
I0
sg18
I0
sg68
I0
sg34
I3
sg52
I0
sg59
I0
sg67
I0
sg28
I0
sg19
I0
sg11
I0
sg12
I0
sg20
I0
sg61
I0
sg63
I0
sg17
I0
sg40
I0
sg62
I0
sg65
I0
sg13
I0
sg57
I0
sg55
I0
ssg52
(dp389
g66
I0
sg64
I0
sg248
I0
sg210
I0
sg211
I0
sg49
I0
sg53
I4
sg212
I0
sg213
I0
sg76
I0
sg72
I0
sg214
I0
sg51
I0
sg215
I0
sg216
I0
sg86
I0
sg217
I0
sg218
I0
sg231
I0
sg219
I0
sg220
I0
sg221
I0
sg93
I0
sg222
I0
sg223
I0
sg224
I0
sg225
I0
sg249
I0
sg226
I0
sg254
I0
sg54
I0
sg75
I0
sg227
I0
sg73
I0
sg228
I0
sg229
I0
sg230
I0
sg77
I0
sg48
I0
sg232
I0
sg104
I0
sg233
I0
sg58
I0
sg234
I0
sg60
I0
sg235
I0
sg56
I0
sg50
I0
sg236
I0
sg252
I0
sg237
I0
sg52
I3
sg59
I0
sg238
I0
sg239
I0
sg240
I0
sg241
I0
sg242
I0
sg61
I0
sg63
I0
sg243
I0
sg244
I0
sg74
I0
sg62
I0
sg65
I0
sg245
I0
sg57
I0
sg55
I0
ssg59
(dp390
g66
I0
sg64
I0
sg122
I0
sg248
I0
sg82
I0
sg83
I0
sg61
I0
sg292
I0
sg54
I0
sg84
I0
sg76
I0
sg327
I0
sg56
I0
sg316
I0
sg361
I0
sg86
I0
sg87
I0
sg88
I0
sg89
I0
sg90
I0
sg91
I0
sg92
I0
sg93
I0
sg94
I0
sg95
I0
sg96
I0
sg328
I0
sg97
I0
sg249
I0
sg98
I0
sg252
I0
sg75
I0
sg99
I0
sg73
I0
sg100
I0
sg128
I0
sg101
I0
sg77
I0
sg102
I0
sg103
I0
sg104
I0
sg105
I0
sg58
I0
sg106
I0
sg107
I0
sg108
I0
sg60
I6
sg109
I0
sg72
I0
sg111
I0
sg112
I0
sg113
I0
sg59
I0
sg144
I0
sg114
I0
sg134
I0
sg55
I0
sg116
I0
sg117
I0
sg198
I0
sg254
I0
sg63
I0
sg204
I0
sg119
I0
sg74
I1
sg62
I0
sg120
I0
sg325
I0
sg57
I0
sg65
I0
ssg67
(dp391
g149
I0
sg122
I0
sg150
I0
sg151
I0
sg132
I0
sg152
I0
sg127
I0
sg172
I0
sg123
I0
sg124
I0
sg153
I0
sg154
I0
sg155
I0
sg156
I0
sg157
I0
sg158
I0
sg159
I0
sg136
I0
sg71
I0
sg126
I0
sg129
I0
sg141
I0
sg161
I0
sg68
I0
sg125
I0
sg130
I0
sg163
I0
sg142
I0
sg131
I0
sg167
I0
sg143
I0
sg67
I0
sg133
I0
sg170
I0
sg171
I0
sg70
I0
sg69
I0
sg135
I0
sg146
I0
sg174
I0
sg175
I0
ssg28
(dp392
g258
I0
sg149
I0
sg16
I0
sg70
I0
sg37
I0
sg14
I0
sg49
I0
sg53
I0
sg23
I0
sg36
I0
sg76
I0
sg33
I0
sg51
I0
sg31
I0
sg32
I0
sg9
I0
sg10
I0
sg22
I0
sg48
I0
sg35
I0
sg46
I0
sg47
I0
sg39
I0
sg38
I0
sg8
I0
sg30
I0
sg71
I0
sg26
I0
sg259
I0
sg44
I0
sg27
I0
sg160
I0
sg21
I0
sg45
I0
sg260
I0
sg24
I0
sg77
I0
sg29
I0
sg25
I0
sg15
I0
sg43
I0
sg261
I0
sg42
I0
sg262
I0
sg41
I0
sg50
I0
sg18
I0
sg68
I0
sg34
I0
sg52
I0
sg263
I0
sg67
I0
sg28
I0
sg19
I0
sg11
I0
sg12
I0
sg20
I0
sg69
I0
sg264
I0
sg17
I0
sg40
I0
sg265
I0
sg266
I0
sg13
I0
sg175
I0
sg267
I0
ssg19
(dp393
g258
I0
sg178
I0
sg16
I0
sg37
I0
sg14
I0
sg49
I0
sg53
I0
sg23
I0
sg36
I0
sg33
I0
sg51
I0
sg31
I0
sg32
I0
sg9
I0
sg10
I0
sg22
I0
sg48
I0
sg35
I0
sg46
I0
sg47
I0
sg39
I0
sg38
I0
sg8
I0
sg30
I0
sg26
I0
sg259
I0
sg44
I0
sg27
I0
sg21
I0
sg45
I0
sg24
I0
sg29
I0
sg25
I0
sg15
I0
sg43
I0
sg261
I0
sg42
I0
sg262
I0
sg41
I0
sg191
I0
sg50
I0
sg18
I0
sg34
I0
sg52
I0
sS'onion.n.03'
p394
I0
sg200
I0
sg28
I0
sg19
I0
sg11
I0
sg12
I0
sg20
I0
sg260
I0
sg264
I0
sg17
I0
sg40
I0
sg75
I0
sg206
I0
sg266
I0
sg13
I0
sg74
I0
sg201
I0
ssg11
(dp395
g66
I0
sg64
I0
sg16
I0
sg70
I0
sg37
I0
sg75
I0
sg14
I0
sg49
I0
sg53
I0
sg23
I0
sg36
I0
sg33
I0
sg51
I0
sg31
I0
sg32
I0
sg9
I0
sg10
I0
sg22
I0
sg48
I0
sg35
I0
sg46
I0
sg47
I0
sg39
I0
sg38
I0
sg8
I0
sg30
I0
sg71
I0
sg26
I0
sg69
I0
sg54
I0
sg44
I0
sg27
I0
sg160
I0
sg21
I0
sg45
I0
sg24
I0
sg29
I0
sg25
I0
sg15
I0
sg43
I0
sg58
I0
sg42
I0
sg60
I0
sg41
I0
sg56
I0
sg50
I0
sg18
I0
sg68
I0
sg34
I0
sg52
I0
sg59
I0
sg67
I4
sg28
I0
sg19
I0
sg11
I10
sg12
I0
sg20
I0
sg61
I0
sg63
I0
sg17
I0
sg40
I0
sg74
I0
sg62
I0
sg65
I0
sg13
I0
sg57
I0
sg55
I0
ssg12
(dp396
g66
I0
sg64
I0
sg16
I0
sg70
I0
sg37
I0
sg75
I0
sg14
I0
sg49
I0
sg53
I0
sg23
I0
sg36
I0
sg76
I0
sg72
I0
sg33
I0
sg51
I0
sg31
I0
sg32
I0
sg9
I0
sg10
I0
sg22
I0
sg48
I0
sg35
I0
sg46
I0
sg47
I0
sg39
I0
sg38
I0
sg8
I0
sg30
I0
sg71
I0
sg26
I0
sg69
I0
sg54
I0
sg44
I0
sg27
I0
sg73
I0
sg21
I0
sg45
I0
sg24
I0
sg77
I0
sg29
I0
sg25
I0
sg15
I0
sg43
I0
sg58
I0
sg42
I0
sg60
I0
sg41
I0
sg56
I0
sg50
I0
sg18
I0
sg68
I0
sg34
I0
sg52
I0
sg59
I0
sg67
I0
sg28
I0
sg19
I0
sg11
I0
sg12
I23
sg20
I0
sg61
I0
sg63
I0
sg17
I0
sg40
I0
sg74
I0
sg62
I0
sg65
I0
sg13
I0
sg57
I0
sg55
I12
ssg20
(dp397
g66
I0
sg64
I0
sg16
I0
sg70
I0
sg37
I0
sg75
I0
sg14
I0
sg49
I0
sg53
I0
sg23
I0
sg36
I0
sg72
I0
sg33
I0
sg51
I0
sg31
I0
sg32
I0
sg9
I0
sg10
I0
sg22
I0
sg48
I0
sg35
I0
sg46
I0
sg47
I0
sg39
I0
sg38
I0
sg8
I0
sg30
I0
sg71
I0
sg26
I0
sg69
I0
sg54
I0
sg44
I0
sg27
I0
sg73
I0
sg21
I0
sg45
I0
sg24
I0
sg29
I0
sg25
I0
sg15
I0
sg43
I0
sg58
I0
sg42
I0
sg60
I0
sg41
I0
sg56
I0
sg50
I0
sg18
I0
sg68
I0
sg34
I0
sg52
I0
sg59
I0
sg67
I0
sg28
I0
sg19
I0
sg11
I0
sg12
I0
sg20
I14
sg61
I0
sg63
I0
sg17
I0
sg40
I0
sg74
I0
sg62
I0
sg65
I0
sg13
I0
sg57
I0
sg55
I0
ssg61
(dp398
g66
I0
sg64
I0
sg82
I0
sg83
I0
sg54
I0
sg84
I0
sg85
I0
sg56
I0
sg86
I0
sg87
I0
sg88
I0
sg89
I0
sg90
I0
sg91
I0
sg92
I0
sg93
I0
sg94
I0
sg95
I0
sg96
I0
sg97
I0
sg98
I0
sg99
I0
sg100
I0
sg101
I0
sg102
I0
sg103
I0
sg104
I0
sg105
I0
sg61
I0
sg106
I0
sg107
I0
sg108
I0
sg60
I0
sg109
I0
sg110
I0
sg111
I0
sg112
I0
sg113
I0
sg59
I0
sg114
I0
sg115
I0
sg55
I0
sg116
I0
sg117
I0
sg63
I0
sg118
I0
sg119
I0
sg62
I0
sg58
I0
sg120
I0
sg57
I0
sg65
I0
ssg63
(dp399
g66
I0
sg64
I0
sg82
I0
sg83
I0
sg61
I0
sg54
I0
sg84
I0
sg76
I0
sg85
I0
sg56
I0
sg276
I0
sg86
I0
sg87
I0
sg88
I0
sg89
I0
sg90
I0
sg91
I0
sg92
I0
sg93
I0
sg94
I0
sg95
I0
sg96
I0
sg279
I0
sg97
I0
sg98
I0
sg99
I0
sg290
I0
sg100
I0
sg292
I0
sg101
I0
sg77
I0
sg102
I0
sg103
I0
sg104
I0
sg105
I0
sg58
I0
sg106
I0
sg107
I0
sg108
I0
sg60
I0
sg109
I0
sg110
I0
sg111
I0
sg112
I0
sg113
I0
sg59
I0
sg114
I0
sg115
I0
sg55
I0
sg116
I0
sg117
I0
sg63
I0
sg118
I0
sg119
I0
sg62
I0
sg120
I0
sg286
I0
sg57
I0
sg65
I0
ssg17
(dp400
g258
I0
sg149
I0
sg16
I0
sg70
I0
sg37
I0
sg14
I0
sg49
I0
sg53
I0
sg23
I0
sg36
I0
sg33
I0
sg51
I0
sg31
I0
sg32
I0
sg9
I0
sg10
I0
sg22
I0
sg48
I0
sg35
I0
sg46
I0
sg47
I0
sg39
I0
sg38
I0
sg8
I0
sg30
I0
sg71
I0
sg26
I0
sg259
I0
sg44
I0
sg27
I0
sg160
I0
sg21
I0
sg45
I0
sg260
I0
sg24
I0
sg29
I0
sg25
I0
sg15
I0
sg43
I0
sg261
I0
sg42
I0
sg266
I0
sg262
I0
sg41
I0
sg191
I0
sg50
I0
sg18
I0
sg68
I0
sg34
I0
sg52
I0
sg200
I0
sg67
I0
sg28
I0
sg19
I0
sg11
I0
sg12
I0
sg20
I0
sg69
I3
sg264
I0
sg17
I4
sg40
I0
sg74
I0
sg206
I0
sg75
I0
sg13
I0
sg175
I0
sg201
I0
ssg40
(dp401
g66
I0
sg64
I0
sg16
I0
sg37
I0
sg75
I0
sg14
I0
sg49
I0
sg53
I0
sg23
I0
sg36
I0
sg76
I0
sg72
I0
sg33
I0
sg51
I0
sg31
I0
sg32
I0
sg9
I0
sg10
I0
sg22
I0
sg48
I0
sg35
I0
sg46
I0
sg47
I0
sg39
I0
sg38
I0
sg8
I0
sg30
I0
sg26
I0
sg54
I0
sg44
I0
sg27
I0
sg73
I0
sg21
I0
sg45
I0
sg24
I0
sg77
I1
sg29
I0
sg25
I0
sg15
I0
sg43
I0
sg58
I0
sg42
I0
sg60
I0
sg41
I0
sg56
I2
sg50
I0
sg18
I0
sg34
I0
sg52
I0
sg59
I0
sg28
I0
sg19
I0
sg11
I0
sg12
I0
sg20
I0
sg61
I0
sg63
I0
sg17
I0
sg40
I4
sg74
I0
sg62
I0
sg65
I0
sg13
I0
sg57
I0
sg55
I0
ssg74
(dp402
g178
I0
sg179
I0
sg180
I0
sg181
I0
sg182
I0
sg183
I0
sg184
I0
sg185
I0
sg186
I0
sg187
I0
sg188
I0
sg189
I0
sg190
I0
sg191
I0
sg75
I0
sg192
I0
sg193
I0
sg194
I0
sg195
I0
sg196
I0
sg197
I0
sg198
I0
sg199
I0
sg200
I0
sg134
I0
sg201
I0
sg202
I0
sg203
I0
sg204
I0
sg205
I0
sg206
I0
sg207
I0
sg74
I0
ssg62
(dp403
g66
I0
sg64
I0
sg122
I0
sg248
I0
sg82
I0
sg83
I0
sg61
I0
sg292
I0
sg54
I0
sg84
I0
sg76
I0
sg327
I0
sg56
I0
sg316
I0
sg361
I0
sg86
I0
sg87
I0
sg88
I0
sg89
I0
sg90
I0
sg91
I0
sg92
I0
sg93
I0
sg94
I0
sg95
I0
sg96
I0
sg328
I0
sg97
I0
sg249
I0
sg98
I0
sg252
I0
sg75
I0
sg99
I0
sg73
I0
sg100
I0
sg128
I0
sg101
I0
sg77
I0
sg102
I0
sg103
I0
sg104
I0
sg105
I0
sg58
I0
sg106
I0
sg107
I0
sg108
I0
sg60
I0
sg109
I0
sg72
I0
sg111
I0
sg112
I0
sg113
I0
sg59
I0
sg144
I0
sg114
I0
sg134
I0
sg55
I0
sg116
I0
sg117
I0
sg198
I0
sg254
I0
sg63
I3
sg204
I0
sg119
I0
sg74
I0
sg62
I4
sg120
I0
sg325
I0
sg57
I0
sg65
I0
ssg65
(dp404
g66
I0
sg64
I0
sg82
I0
sg83
I0
sg61
I0
sg54
I0
sg84
I0
sg85
I0
sg96
I0
sg86
I0
sg87
I0
sg88
I0
sg89
I0
sg90
I0
sg91
I0
sg92
I0
sg93
I0
sg94
I0
sg95
I0
sg56
I0
sg97
I0
sg98
I0
sg99
I0
sg100
I0
sg101
I0
sg102
I0
sg103
I0
sg104
I0
sg105
I0
sg58
I0
sg106
I0
sg107
I0
sg108
I0
sg60
I0
sg109
I0
sg110
I0
sg111
I0
sg112
I0
sg113
I0
sg59
I0
sg114
I0
sg115
I0
sg55
I0
sg116
I0
sg117
I0
sg63
I0
sg118
I0
sg119
I0
sg62
I0
sg120
I0
sg57
I0
sg65
I0
ssg13
(dp405
g66
I0
sg64
I0
sg16
I0
sg70
I0
sg37
I0
sg75
I0
sg14
I0
sg49
I0
sg53
I0
sg23
I0
sg36
I0
sg76
I0
sg72
I0
sg33
I0
sg51
I0
sg31
I0
sg32
I0
sg9
I0
sg10
I0
sg22
I0
sg48
I0
sg35
I0
sg46
I0
sg47
I0
sg39
I0
sg38
I0
sg8
I0
sg30
I0
sg71
I0
sg26
I0
sg69
I0
sg54
I0
sg44
I0
sg27
I0
sg73
I0
sg21
I0
sg45
I0
sg24
I0
sg77
I0
sg29
I0
sg25
I0
sg15
I0
sg43
I0
sg58
I0
sg42
I0
sg60
I0
sg41
I0
sg56
I0
sg50
I0
sg18
I0
sg68
I0
sg34
I0
sg52
I0
sg59
I0
sg67
I0
sg28
I0
sg19
I0
sg11
I0
sg12
I0
sg20
I0
sg61
I0
sg63
I0
sg17
I0
sg40
I0
sg74
I0
sg62
I0
sg65
I2
sg13
I6
sg57
I6
sg55
I0
ssg57
(dp406
g66
I0
sg64
I0
sg122
I0
sg70
I0
sg82
I0
sg83
I0
sg61
I0
sg54
I0
sg84
I0
sg72
I0
sg68
I0
sg56
I0
sg123
I0
sg124
I0
sg86
I0
sg87
I0
sg88
I0
sg89
I0
sg90
I0
sg91
I0
sg92
I0
sg93
I0
sg94
I0
sg95
I0
sg96
I0
sg125
I0
sg97
I0
sg71
I0
sg126
I0
sg127
I0
sg73
I0
sg100
I0
sg128
I0
sg101
I0
sg129
I0
sg102
I0
sg130
I0
sg104
I0
sg105
I0
sg58
I0
sg106
I0
sg107
I0
sg108
I0
sg60
I0
sg109
I0
sg131
I0
sg132
I0
sg112
I0
sg113
I0
sg59
I0
sg67
I0
sg133
I0
sg115
I0
sg55
I0
sg116
I0
sg117
I0
sg69
I0
sg63
I0
sg135
I0
sg119
I0
sg62
I0
sg120
I0
sg136
I0
sg57
I0
sg65
I0
ssg55
(dp407
g66
I0
sg64
I0
sg82
I0
sg83
I0
sg61
I0
sg54
I0
sg84
I0
sg85
I0
sg96
I0
sg86
I0
sg87
I0
sg88
I0
sg89
I0
sg90
I0
sg91
I0
sg92
I0
sg93
I0
sg94
I0
sg95
I0
sg56
I0
sg97
I0
sg98
I0
sg75
I0
sg99
I0
sg100
I0
sg193
I0
sg101
I0
sg102
I0
sg103
I0
sg104
I0
sg105
I0
sg58
I0
sg106
I0
sg107
I0
sg108
I0
sg60
I0
sg109
I0
sg198
I0
sg111
I0
sg112
I0
sg113
I0
sg59
I0
sg114
I0
sg134
I0
sg55
I0
sg116
I0
sg117
I0
sg63
I0
sg204
I0
sg119
I0
sg74
I0
sg62
I0
sg120
I0
sg57
I0
sg65
I0
sssb.