ccopy_reg
_reconstructor
p0
(cutils.eval
ConfusionMatrix
p1
c__builtin__
object
p2
Ntp3
Rp4
(dp5
S'labels'
p6
(lp7
S'cut.v.01'
p8
aS'bread.n.01'
p9
aS'knife.n.01'
p10
aS'knife.n.02'
p11
aS'meat.n.01'
p12
aS'cleaver.n.01'
p13
aS'helicopter.n.01'
p14
aS'banana.n.02'
p15
aS'slice.v.03'
p16
aS'fill.v.01'
p17
aS'pitcher.n.02'
p18
aS'milk.n.01'
p19
aS'cabbage.n.01'
p20
aS'cabbage.n.03'
p21
aS'opening.n.01'
p22
aS'gap.n.03'
p23
aS'fill.v.09'
p24
aS'batter.n.02'
p25
aS'put.v.01'
p26
aS'pan.n.03'
p27
aS'chicken.n.01'
p28
aS'wimp.n.01'
p29
aS'bacon.n.01'
p30
aS'bacon.n.02'
p31
aS'cake.n.03'
p32
aS'cake.n.01'
p33
aS'whipped_cream.n.01'
p34
aS'pepper.n.03'
p35
aS'capsicum.n.01'
p36
aS'salt.n.02'
p37
aS'salt.n.01'
p38
aS'egg.n.02'
p39
aS'egg.n.01'
p40
aS'foam.n.01'
p41
aS'mug.n.04'
p42
aS'onion.n.01'
p43
aS'pepper.n.04'
p44
aS'flesh.n.01'
p45
aS'human_body.n.01'
p46
aS'slice.v.02'
p47
aS'lemon.n.01'
p48
aS'lemon.n.05'
p49
asS'instanceCount'
p50
I39
sS'matrix'
p51
(dp52
g28
(dp53
g29
I1
ssg37
(dp54
g38
I1
ssg9
(dp55
S'bread.n.01'
p56
I1
ssg25
(dp57
S'batter.n.02'
p58
I1
ssg29
(dp59
g29
I0
ssg20
(dp60
g21
I1
ssg41
(dp61
S'foam.n.01'
p62
I1
ssg19
(dp63
S'milk.n.01'
p64
I1
ssg27
(dp65
S'pan.n.03'
p66
I1
ssg8
(dp67
S'cut.v.01'
p68
I5
ssg15
(dp69
S'banana.n.02'
p70
I1
ssg24
(dp71
S'fill.v.01'
p72
I1
ssg39
(dp73
g40
I1
ssg40
(dp74
g40
I0
ssg31
(dp75
g31
I0
ssg30
(dp76
g31
I1
ssg17
(dp77
S'fill.v.01'
p78
I2
ssg18
(dp79
S'pitcher.n.02'
p80
I1
ssg13
(dp81
g14
I1
ssg22
(dp82
g23
I1
ssg12
(dp83
S'meat.n.01'
p84
I1
ssg47
(dp85
g47
I0
ssg16
(dp86
g47
I1
sS'slice.v.03'
p87
I2
ssg38
(dp88
g38
I0
ssg10
(dp89
g11
I2
ssg48
(dp90
g49
I1
ssg21
(dp91
g21
I0
ssg11
(dp92
g11
I0
ssg44
(dp93
S'pepper.n.04'
p94
I1
ssg35
(dp95
g36
I1
ssg46
(dp96
g46
I0
ssg34
(dp97
S'whipped_cream.n.01'
p98
I1
ssg36
(dp99
g36
I0
ssg23
(dp100
g23
I0
ssg42
(dp101
S'mug.n.04'
p102
I1
ssg45
(dp103
g46
I1
ssg14
(dp104
g14
I0
ssg26
(dp105
S'put.v.01'
p106
I3
ssg49
(dp107
g49
I0
ssg32
(dp108
g33
I1
ssg33
(dp109
g33
I0
ssg43
(dp110
S'onion.n.01'
p111
I1
sssb.