ccopy_reg
_reconstructor
p0
(cutils.eval
ConfusionMatrix
p1
c__builtin__
object
p2
Ntp3
Rp4
(dp5
S'labels'
p6
(lp7
S'fill.v.01'
p8
aS'fill.v.09'
p9
aS'mug.n.04'
p10
aS'chump.n.01'
p11
aS'slice.v.03'
p12
aS'onion.n.01'
p13
aS'onion.n.03'
p14
aS'pepper.n.04'
p15
aS'pepper.n.03'
p16
aS'flesh.n.01'
p17
aS'human_body.n.01'
p18
aS'slice.v.02'
p19
aS'cut.v.01'
p20
aS'lemon.n.01'
p21
aS'cheese.n.01'
p22
aS'put.v.01'
p23
aS'pan.n.03'
p24
aS'pizza.n.01'
p25
aS'pan.n.01'
p26
aS'water.n.06'
p27
aS'beef.n.02'
p28
aS'plate.n.04'
p29
aS'plate.n.08'
p30
aS'kettle.n.01'
p31
aS'kettle_hole.n.01'
p32
aS'piece.n.08'
p33
aS'slice.n.05'
p34
aS'bread.n.01'
p35
aS'knife.n.01'
p36
aS'knife.n.02'
p37
aS'meat.n.01'
p38
aS'cleaver.n.01'
p39
aS'helicopter.n.01'
p40
aS'banana.n.02'
p41
aS'pitcher.n.02'
p42
aS'pitcher.n.01'
p43
aS'milk.n.01'
p44
asS'instanceCount'
p45
I39
sS'matrix'
p46
(dp47
g22
(dp48
S'cheese.n.01'
p49
I1
ssg28
(dp50
S'beef.n.02'
p51
I1
ssg35
(dp52
S'bread.n.01'
p53
I1
ssg36
(dp54
g37
I2
ssg34
(dp55
g34
I0
ssg44
(dp56
S'milk.n.01'
p57
I1
ssg26
(dp58
S'pan.n.03'
p59
I1
ssg24
(dp60
S'pan.n.03'
p61
I1
ssg20
(dp62
S'cut.v.01'
p63
I3
ssg9
(dp64
g9
I0
ssg8
(dp65
g9
I4
ssg42
(dp66
g43
I1
ssg43
(dp67
g43
I0
ssg38
(dp68
S'meat.n.01'
p69
I1
ssg39
(dp70
g40
I1
ssg19
(dp71
g19
I0
ssg12
(dp72
g19
I2
sS'slice.v.03'
p73
I3
ssg11
(dp74
g11
I0
ssg30
(dp75
g30
I0
ssg41
(dp76
S'banana.n.02'
p77
I1
ssg37
(dp78
g37
I0
ssg29
(dp79
g30
I1
ssg15
(dp80
g16
I1
ssg16
(dp81
g16
I0
ssg18
(dp82
g18
I0
ssg33
(dp83
g34
I1
ssg10
(dp84
g11
I1
ssg17
(dp85
g18
I1
ssg40
(dp86
g40
I0
ssg27
(dp87
S'water.n.06'
p88
I2
ssg23
(dp89
S'put.v.01'
p90
I2
ssg25
(dp91
S'pizza.n.01'
p92
I2
ssg32
(dp93
g32
I0
ssg31
(dp94
g32
I1
ssg21
(dp95
S'lemon.n.01'
p96
I1
ssg13
(dp97
S'onion.n.01'
p98
I1
sg14
I1
ssg14
(dp99
g14
I0
sssb.