ccopy_reg
_reconstructor
p0
(cutils.eval
ConfusionMatrix
p1
c__builtin__
object
p2
Ntp3
Rp4
(dp5
S'labels'
p6
(lp7
S'flesh.n.01'
p8
aS'human_body.n.01'
p9
aS'slice.v.03'
p10
aS'cut.v.01'
p11
aS'lemon.n.01'
p12
aS'cheese.n.01'
p13
aS'put.v.01'
p14
aS'pan.n.03'
p15
aS'pizza.n.01'
p16
aS'fill.v.01'
p17
aS'pan.n.01'
p18
aS'water.n.06'
p19
aS'water.n.03'
p20
aS'onion.n.01'
p21
aS'onion.n.03'
p22
aS'beef.n.02'
p23
aS'plate.n.04'
p24
aS'plate.n.11'
p25
aS'fill.v.09'
p26
aS'kettle.n.01'
p27
aS'kettle_hole.n.01'
p28
aS'piece.n.08'
p29
aS'slice.n.05'
p30
aS'slice.v.02'
p31
aS'bread.n.01'
p32
aS'knife.n.01'
p33
aS'knife.n.02'
p34
aS'meat.n.01'
p35
aS'cleaver.n.01'
p36
aS'helicopter.n.01'
p37
aS'banana.n.02'
p38
aS'pitcher.n.02'
p39
aS'pitcher.n.01'
p40
aS'milk.n.01'
p41
aS'milk.n.02'
p42
aS'cabbage.n.01'
p43
aS'opening.n.01'
p44
aS'batter.n.02'
p45
asS'instanceCount'
p46
I39
sS'matrix'
p47
(dp48
g13
(dp49
S'cheese.n.01'
p50
I1
ssg25
(dp51
g25
I0
ssg23
(dp52
S'beef.n.02'
p53
I1
ssg32
(dp54
S'bread.n.01'
p55
I1
ssg45
(dp56
S'batter.n.02'
p57
I1
ssg43
(dp58
S'cabbage.n.01'
p59
I1
ssg30
(dp60
g30
I0
ssg41
(dp61
g42
I1
ssg42
(dp62
g42
I0
ssg18
(dp63
S'pan.n.03'
p64
I1
ssg15
(dp65
S'pan.n.03'
p66
I1
ssg11
(dp67
S'cut.v.01'
p68
I4
ssg26
(dp69
g26
I1
ssg17
(dp70
g26
I1
sS'fill.v.01'
p71
I2
ssg39
(dp72
g40
I1
ssg40
(dp73
g40
I0
ssg35
(dp74
S'meat.n.01'
p75
I1
ssg36
(dp76
g37
I1
ssg31
(dp77
g31
I0
ssg10
(dp78
g31
I1
sS'slice.v.03'
p79
I3
ssg33
(dp80
g34
I2
ssg38
(dp81
S'banana.n.02'
p82
I1
ssg34
(dp83
g34
I0
ssg24
(dp84
g25
I1
ssg9
(dp85
g9
I0
ssg29
(dp86
g30
I1
ssg44
(dp87
S'opening.n.01'
p88
I1
ssg8
(dp89
g9
I1
ssg20
(dp90
g20
I0
ssg37
(dp91
g37
I0
ssg19
(dp92
g20
I2
ssg14
(dp93
S'put.v.01'
p94
I2
ssg16
(dp95
S'pizza.n.01'
p96
I2
ssg28
(dp97
g28
I0
ssg27
(dp98
g28
I1
ssg12
(dp99
S'lemon.n.01'
p100
I1
ssg21
(dp101
g22
I1
ssg22
(dp102
g22
I0
sssb.