ccopy_reg
_reconstructor
p0
(cutils.eval
ConfusionMatrix
p1
c__builtin__
object
p2
Ntp3
Rp4
(dp5
S'labels'
p6
(lp7
S'put.v.01'
p8
aS'pan.n.03'
p9
aS'chicken.n.01'
p10
aS'cut.v.01'
p11
aS'bacon.n.01'
p12
aS'put.v.02'
p13
aS'cake.n.03'
p14
aS'patty.n.01'
p15
aS'whipped_cream.n.01'
p16
aS'pepper.n.03'
p17
aS'salt.n.02'
p18
aS'egg.n.02'
p19
aS'egg.n.01'
p20
aS'fill.v.01'
p21
aS'foam.n.01'
p22
aS'mug.n.04'
p23
aS'chump.n.01'
p24
aS'slice.v.03'
p25
aS'onion.n.01'
p26
aS'pepper.n.04'
p27
aS'flesh.n.01'
p28
aS'pulp.n.02'
p29
aS'lemon.n.01'
p30
aS'cheese.n.01'
p31
aS'pizza.n.01'
p32
aS'pan.n.01'
p33
aS'water.n.06'
p34
aS'beef.n.02'
p35
aS'plate.n.04'
p36
aS'denture.n.01'
p37
aS'kettle.n.01'
p38
aS'piece.n.08'
p39
aS'slice.n.06'
p40
asS'instanceCount'
p41
I40
sS'matrix'
p42
(dp43
g31
(dp44
S'cheese.n.01'
p45
I1
ssg10
(dp46
S'chicken.n.01'
p47
I1
ssg25
(dp48
S'slice.v.03'
p49
I4
ssg34
(dp50
S'water.n.06'
p51
I2
ssg21
(dp52
S'fill.v.01'
p53
I3
ssg33
(dp54
S'pan.n.03'
p55
I1
ssg9
(dp56
S'pan.n.03'
p57
I2
ssg11
(dp58
S'cut.v.01'
p59
I2
ssg19
(dp60
g20
I1
ssg20
(dp61
g20
I0
ssg35
(dp62
S'beef.n.02'
p63
I1
ssg12
(dp64
S'bacon.n.01'
p65
I1
ssg15
(dp66
g15
I0
ssg37
(dp67
g37
I0
ssg18
(dp68
S'salt.n.02'
p69
I1
ssg24
(dp70
g24
I0
ssg36
(dp71
g37
I1
ssg27
(dp72
S'pepper.n.04'
p73
I1
ssg17
(dp74
S'pepper.n.03'
p75
I1
ssg22
(dp76
S'foam.n.01'
p77
I1
ssg16
(dp78
S'whipped_cream.n.01'
p79
I1
ssg39
(dp80
g40
I1
ssg23
(dp81
g24
I1
ssg28
(dp82
g29
I1
ssg40
(dp83
g40
I0
ssg13
(dp84
g13
I0
ssg8
(dp85
g13
I3
sS'put.v.01'
p86
I2
ssg32
(dp87
S'pizza.n.01'
p88
I2
ssg38
(dp89
S'kettle.n.01'
p90
I1
ssg14
(dp91
g15
I1
ssg30
(dp92
S'lemon.n.01'
p93
I1
ssg26
(dp94
S'onion.n.01'
p95
I2
ssg29
(dp96
g29
I0
sssb.