ccopy_reg
_reconstructor
p0
(cutils.eval
ConfusionMatrix
p1
c__builtin__
object
p2
Ntp3
Rp4
(dp5
S'labels'
p6
(lp7
S'knife.n.01'
p8
aS'banana.n.02'
p9
aS'slice.v.03'
p10
aS'fill.v.01'
p11
aS'pitcher.n.02'
p12
aS'milk.n.01'
p13
aS'cabbage.n.01'
p14
aS'cut.v.01'
p15
aS'opening.n.01'
p16
aS'gap.n.03'
p17
aS'fill.v.09'
p18
aS'batter.n.02'
p19
aS'put.v.01'
p20
aS'pan.n.03'
p21
aS'chicken.n.01'
p22
aS'bacon.n.01'
p23
aS'cake.n.03'
p24
aS'whipped_cream.n.01'
p25
aS'pepper.n.03'
p26
aS'pepper.n.04'
p27
aS'salt.n.02'
p28
aS'strategic_arms_limitation_talks.n.01'
p29
aS'egg.n.02'
p30
aS'egg.n.01'
p31
aS'foam.n.01'
p32
aS'mug.n.04'
p33
aS'chump.n.01'
p34
aS'onion.n.01'
p35
aS'onion.n.03'
p36
aS'pepper.n.01'
p37
aS'flesh.n.01'
p38
aS'human_body.n.01'
p39
aS'slice.v.02'
p40
aS'lemon.n.01'
p41
aS'cheese.n.01'
p42
aS'pizza.n.01'
p43
asS'instanceCount'
p44
I38
sS'matrix'
p45
(dp46
g42
(dp47
S'cheese.n.01'
p48
I1
ssg22
(dp49
S'chicken.n.01'
p50
I1
ssg28
(dp51
g29
I1
ssg19
(dp52
S'batter.n.02'
p53
I1
ssg14
(dp54
S'cabbage.n.01'
p55
I1
ssg32
(dp56
S'foam.n.01'
p57
I1
ssg13
(dp58
S'milk.n.01'
p59
I1
ssg21
(dp60
S'pan.n.03'
p61
I2
ssg15
(dp62
S'cut.v.01'
p63
I3
ssg17
(dp64
g17
I0
ssg18
(dp65
S'fill.v.01'
p66
I1
ssg30
(dp67
g31
I1
ssg31
(dp68
g31
I0
ssg23
(dp69
S'bacon.n.01'
p70
I1
ssg11
(dp71
S'fill.v.01'
p72
I2
ssg12
(dp73
S'pitcher.n.02'
p74
I1
ssg40
(dp75
g40
I0
ssg10
(dp76
g40
I1
sS'slice.v.03'
p77
I3
ssg34
(dp78
g34
I0
ssg8
(dp79
S'knife.n.01'
p80
I1
ssg9
(dp81
S'banana.n.02'
p82
I1
ssg27
(dp83
g27
I0
sg37
I1
ssg37
(dp84
g37
I0
ssg26
(dp85
g27
I1
ssg39
(dp86
g39
I0
ssg25
(dp87
S'whipped_cream.n.01'
p88
I1
ssg29
(dp89
g29
I0
ssg16
(dp90
g17
I1
ssg33
(dp91
g34
I1
ssg38
(dp92
g39
I1
ssg20
(dp93
S'put.v.01'
p94
I4
ssg43
(dp95
S'pizza.n.01'
p96
I1
ssg24
(dp97
S'cake.n.03'
p98
I1
ssg41
(dp99
S'lemon.n.01'
p100
I1
ssg35
(dp101
g36
I1
ssg36
(dp102
g36
I0
sssb.