ccopy_reg
_reconstructor
p0
(cutils.eval
ConfusionMatrix
p1
c__builtin__
object
p2
Ntp3
Rp4
(dp5
S'labels'
p6
(lp7
S'put.v.01'
p8
aS'put.v.02'
p9
aS'cake.n.03'
p10
aS'whipped_cream.n.01'
p11
aS'pepper.n.03'
p12
aS'capsicum.n.01'
p13
aS'salt.n.02'
p14
aS'egg.n.02'
p15
aS'egg.n.01'
p16
aS'fill.v.01'
p17
aS'foam.n.01'
p18
aS'mug.n.04'
p19
aS'slice.v.03'
p20
aS'onion.n.01'
p21
aS'onion.n.03'
p22
aS'pepper.n.04'
p23
aS'pepper.n.01'
p24
aS'flesh.n.01'
p25
aS'human_body.n.01'
p26
aS'cut.v.01'
p27
aS'edit.v.03'
p28
aS'lemon.n.01'
p29
aS'lemon.n.05'
p30
aS'cheese.n.01'
p31
aS'pan.n.03'
p32
aS'pizza.n.01'
p33
aS'pan.n.01'
p34
aS'water.n.06'
p35
aS'onion.n.02'
p36
aS'beef.n.02'
p37
aS'plate.n.04'
p38
aS'plate.n.13'
p39
aS'kettle.n.01'
p40
aS'piece.n.08'
p41
aS'slice.n.06'
p42
aS'bread.n.01'
p43
aS'knife.n.01'
p44
aS'knife.n.02'
p45
aS'cut.v.32'
p46
aS'meat.n.01'
p47
aS'cleaver.n.01'
p48
aS'helicopter.n.01'
p49
asS'instanceCount'
p50
I41
sS'matrix'
p51
(dp52
g39
(dp53
g39
I0
ssg31
(dp54
S'cheese.n.01'
p55
I1
ssg20
(dp56
S'slice.v.03'
p57
I4
ssg35
(dp58
S'water.n.06'
p59
I2
ssg18
(dp60
S'foam.n.01'
p61
I1
ssg34
(dp62
S'pan.n.03'
p63
I1
ssg32
(dp64
S'pan.n.03'
p65
I1
ssg27
(dp66
g28
I2
sg46
I1
ssg15
(dp67
g16
I1
ssg16
(dp68
g16
I0
ssg37
(dp69
S'beef.n.02'
p70
I1
ssg17
(dp71
S'fill.v.01'
p72
I3
ssg13
(dp73
g13
I0
ssg47
(dp74
S'meat.n.01'
p75
I1
ssg23
(dp76
g24
I1
ssg46
(dp77
g46
I0
ssg48
(dp78
g49
I1
ssg14
(dp79
S'salt.n.02'
p80
I1
ssg44
(dp81
g45
I1
ssg45
(dp82
g45
I0
ssg38
(dp83
g39
I1
ssg24
(dp84
g24
I0
ssg28
(dp85
g28
I0
ssg12
(dp86
g13
I1
ssg26
(dp87
g26
I0
ssg11
(dp88
S'whipped_cream.n.01'
p89
I1
ssg41
(dp90
g42
I1
ssg43
(dp91
S'bread.n.01'
p92
I1
ssg19
(dp93
S'mug.n.04'
p94
I1
ssg25
(dp95
g26
I1
ssg49
(dp96
g49
I0
ssg42
(dp97
g42
I0
ssg9
(dp98
g9
I0
ssg8
(dp99
g9
I4
ssg33
(dp100
S'pizza.n.01'
p101
I2
ssg30
(dp102
g30
I0
ssg40
(dp103
S'kettle.n.01'
p104
I1
ssg10
(dp105
S'cake.n.03'
p106
I1
ssg29
(dp107
g30
I1
ssg21
(dp108
g22
I1
sg36
I1
ssg22
(dp109
g22
I0
ssg36
(dp110
g36
I0
sssb.