ccopy_reg
_reconstructor
p0
(cutils.eval
ConfusionMatrix
p1
c__builtin__
object
p2
Ntp3
Rp4
(dp5
S'labels'
p6
(lp7
S'fill.v.01'
p8
aS'pitcher.n.02'
p9
aS'pitcher.n.03'
p10
aS'milk.n.01'
p11
aS'milk.n.04'
p12
aS'kettle.n.01'
p13
aS'kettle.n.02'
p14
aS'water.n.06'
p15
aS'knife.n.01'
p16
aS'tongue.n.03'
p17
aS'banana.n.02'
p18
aS'slice.v.03'
p19
asS'instanceCount'
p20
I9
sS'matrix'
p21
(dp22
g14
(dp23
g14
I0
ssg16
(dp24
g17
I1
ssg18
(dp25
S'banana.n.02'
p26
I1
ssg19
(dp27
S'slice.v.03'
p28
I1
ssg15
(dp29
S'water.n.06'
p30
I1
ssg8
(dp31
S'fill.v.01'
p32
I2
ssg10
(dp33
g10
I0
ssg9
(dp34
g10
I1
ssg13
(dp35
g14
I1
ssg17
(dp36
g17
I0
ssg12
(dp37
g12
I0
ssg11
(dp38
g12
I1
sssb.