ccopy_reg
_reconstructor
p0
(cutils.eval
ConfusionMatrix
p1
c__builtin__
object
p2
Ntp3
Rp4
(dp5
S'labels'
p6
(lp7
S'tomato.n.01'
p8
aS'tomato.n.02'
p9
aS'piece.n.08'
p10
aS'slice.n.01'
p11
aS'onion.n.03'
p12
aS'onion.n.02'
p13
aS'mustard.n.02'
p14
aS'cheese.n.01'
p15
aS'slice.v.03'
p16
aS'fill.v.01'
p17
aS'foam.n.01'
p18
aS'mug.n.04'
p19
aS'chump.n.01'
p20
asS'instanceCount'
p21
I9
sS'matrix'
p22
(dp23
g15
(dp24
S'cheese.n.01'
p25
I1
ssg14
(dp26
S'mustard.n.02'
p27
I1
ssg16
(dp28
S'slice.v.03'
p29
I1
ssg9
(dp30
g9
I0
ssg8
(dp31
g9
I1
ssg11
(dp32
g11
I0
ssg20
(dp33
g20
I0
ssg17
(dp34
S'fill.v.01'
p35
I1
ssg19
(dp36
g20
I1
ssg10
(dp37
g11
I1
ssg18
(dp38
S'foam.n.01'
p39
I1
ssg12
(dp40
g13
I1
ssg13
(dp41
g13
I0
sssb.