ccopy_reg
_reconstructor
p0
(cutils.eval
ConfusionMatrix
p1
c__builtin__
object
p2
Ntp3
Rp4
(dp5
S'labels'
p6
(lp7
S'fill.v.01'
p8
aS'fill.v.09'
p9
aS'pan.n.01'
p10
aS'pan.n.03'
p11
aS'water.n.06'
p12
aS'pitcher.n.02'
p13
aS'pitcher.n.03'
p14
aS'milk.n.01'
p15
aS'kettle.n.01'
p16
aS'kettle.n.02'
p17
asS'instanceCount'
p18
I9
sS'matrix'
p19
(dp20
g10
(dp21
g11
I1
ssg17
(dp22
g17
I0
ssg11
(dp23
g11
I0
ssg9
(dp24
g9
I0
ssg12
(dp25
S'water.n.06'
p26
I2
ssg8
(dp27
g9
I3
ssg14
(dp28
g14
I0
ssg13
(dp29
g14
I1
ssg16
(dp30
g17
I1
ssg15
(dp31
S'milk.n.01'
p32
I1
sssb.