ccopy_reg
_reconstructor
p0
(cutils.eval
ConfusionMatrix
p1
c__builtin__
object
p2
Ntp3
Rp4
(dp5
S'labels'
p6
(lp7
S'opening.n.01'
p8
aS'gap.n.03'
p9
aS'fill.v.09'
p10
aS'fill.v.01'
p11
aS'batter.n.02'
p12
aS'knife.n.01'
p13
aS'tongue.n.03'
p14
aS'banana.n.02'
p15
aS'slice.v.03'
p16
aS'glass.n.02'
p17
aS'milk.n.01'
p18
aS'strawberry.n.01'
p19
aS'cut.v.01'
p20
aS'edit.v.03'
p21
aS'piece.n.08'
p22
aS'slice.n.06'
p23
aS'put.v.01'
p24
aS'put.v.02'
p25
aS'lodge.v.02'
p26
aS'stick.v.08'
p27
aS'pizza.n.01'
p28
aS'pan.n.01'
p29
aS'pan.n.03'
p30
aS'measuring_cup.n.01'
p31
aS'meal.n.03'
p32
aS'add.v.01'
p33
aS'lend.v.01'
p34
aS'mixing_bowl.n.01'
p35
aS'butter.n.01'
p36
aS'sugar.n.01'
p37
aS'boodle.n.01'
p38
aS'blend.v.03'
p39
aS'mix.v.05'
p40
aS'avocado.n.01'
p41
aS'thermos.n.01'
p42
aS'coffee.n.01'
p43
aS'pepper.n.03'
p44
aS'salt.n.02'
p45
aS'salt.n.04'
p46
aS'egg.n.02'
p47
aS'egg.n.01'
p48
aS'cut.v.32'
p49
aS'squash.n.02'
p50
aS'squash.n.01'
p51
aS'liquid.n.01'
p52
aS'pour.v.01'
p53
aS'sink.n.01'
p54
aS'cesspool.n.01'
p55
aS'chicken.n.01'
p56
aS'wimp.n.01'
p57
aS'corn.n.02'
p58
aS'corn.n.03'
p59
aS'chop.v.01'
p60
aS'chop.v.05'
p61
aS'vanilla.n.02'
p62
aS'vanilla.n.03'
p63
aS'concoction.n.01'
p64
aS'opening.n.10'
p65
aS'curd.n.01'
p66
aS'tomato.n.01'
p67
aS'tomato.n.02'
p68
aS'slice.n.04'
p69
aS'onion.n.03'
p70
aS'onion.n.02'
p71
aS'mustard.n.02'
p72
aS'pitcher.n.02'
p73
aS'bread.n.01'
p74
aS'mix.n.03'
p75
aS'cut.n.16'
p76
aS'bag.n.01'
p77
aS'bag.n.04'
p78
aS'cup.n.01'
p79
aS'cola.n.02'
p80
aS'carve.v.03'
p81
aS'hack.v.07'
p82
aS'pepper.n.04'
p83
aS'onion.n.01'
p84
aS'sauce.n.01'
p85
aS'beef.n.02'
p86
aS'gripe.n.01'
p87
aS'plate.n.04'
p88
aS'plate.n.13'
p89
aS'flesh.n.01'
p90
aS'human_body.n.01'
p91
aS'slice.v.02'
p92
aS'rum.n.01'
p93
aS'shaker.n.03'
p94
aS'take.v.04'
p95
aS'assume.v.03'
p96
aS'decant.v.01'
p97
aS'whiskey.n.01'
p98
aS'carafe.n.01'
p99
aS'cover.v.01'
p100
aS'cover.v.16'
p101
aS'rib.n.03'
p102
aS'rib.n.01'
p103
aS'teapot.n.01'
p104
aS'water.n.06'
p105
aS'slice.n.05'
p106
asS'instanceCount'
p107
I93
sS'matrix'
p108
(dp109
g20
(dp110
g21
I1
sg49
I1
ssg100
(dp111
g101
I1
ssg31
(dp112
S'measuring_cup.n.01'
p113
I1
ssg102
(dp114
g103
I1
ssg103
(dp115
g103
I0
ssg91
(dp116
g91
I0
ssg98
(dp117
S'whiskey.n.01'
p118
I1
ssg8
(dp119
g65
I1
sg9
I1
ssg90
(dp120
g91
I1
ssg25
(dp121
g25
I0
ssg24
(dp122
g25
I3
ssg94
(dp123
S'shaker.n.03'
p124
I1
ssg53
(dp125
S'pour.v.01'
p126
I2
ssg85
(dp127
S'sauce.n.01'
p128
I1
ssg14
(dp129
g14
I0
ssg99
(dp130
S'carafe.n.01'
p131
I1
ssg97
(dp132
S'pour.v.01'
p133
I1
ssg56
(dp134
g57
I1
ssg54
(dp135
g55
I1
ssg105
(dp136
S'water.n.06'
p137
I2
ssg95
(dp138
g96
I1
ssg41
(dp139
S'avocado.n.01'
p140
I1
ssg65
(dp141
g65
I0
ssg106
(dp142
g106
I0
ssg33
(dp143
g34
I4
ssg29
(dp144
S'pan.n.01'
p145
I1
sg30
I2
ssg30
(dp146
g30
I0
ssg9
(dp147
g9
I0
ssg79
(dp148
S'cup.n.01'
p149
I1
ssg63
(dp150
g63
I0
ssg62
(dp151
g63
I1
ssg92
(dp152
g92
I0
ssg16
(dp153
g92
I1
sS'slice.v.03'
p154
I2
ssg15
(dp155
S'banana.n.02'
p156
I1
ssg83
(dp157
S'pepper.n.03'
p158
I1
ssg44
(dp159
S'pepper.n.03'
p160
I1
ssg93
(dp161
S'rum.n.01'
p162
I1
ssg87
(dp163
g87
I0
ssg104
(dp164
S'teapot.n.01'
p165
I1
ssg75
(dp166
S'mix.n.03'
p167
I1
ssg66
(dp168
S'curd.n.01'
p169
I1
ssg84
(dp170
S'onion.n.01'
p171
I1
sS'onion.n.03'
p172
I1
ssg70
(dp173
g71
I1
ssg71
(dp174
g71
I0
ssg19
(dp175
S'strawberry.n.01'
p176
I1
ssg59
(dp177
g59
I0
ssg58
(dp178
g59
I1
ssg86
(dp179
g87
I1
ssg81
(dp180
g82
I1
ssg26
(dp181
g27
I1
ssg35
(dp182
S'mixing_bowl.n.01'
p183
I1
ssg27
(dp184
g27
I0
ssg72
(dp185
S'mustard.n.02'
p186
I1
ssg10
(dp187
g11
I2
ssg11
(dp188
g11
I8
ssg73
(dp189
S'pitcher.n.02'
p190
I1
ssg51
(dp191
g51
I0
ssg50
(dp192
g51
I1
ssg64
(dp193
S'concoction.n.01'
p194
I1
ssg45
(dp195
g46
I1
ssg13
(dp196
g14
I1
ssg46
(dp197
g46
I0
ssg88
(dp198
g89
I1
ssg43
(dp199
S'coffee.n.01'
p200
I1
ssg23
(dp201
g23
I0
ssg69
(dp202
g69
I0
ssg28
(dp203
S'pizza.n.01'
p204
I1
ssg76
(dp205
S'edit.v.03'
p206
I1
ssg89
(dp207
g89
I0
ssg82
(dp208
g82
I0
ssg74
(dp209
S'bread.n.01'
p210
I1
ssg12
(dp211
S'batter.n.02'
p212
I1
ssg57
(dp213
g57
I0
ssg18
(dp214
S'milk.n.01'
p215
I2
ssg80
(dp216
S'cola.n.02'
p217
I1
ssg47
(dp218
g48
I2
ssg36
(dp219
S'butter.n.01'
p220
I1
ssg78
(dp221
g78
I0
ssg96
(dp222
g96
I0
ssg61
(dp223
g61
I0
ssg77
(dp224
g78
I1
ssg60
(dp225
g61
I1
ssg40
(dp226
g40
I0
ssg17
(dp227
S'glass.n.02'
p228
I1
ssg39
(dp229
g40
I2
ssg34
(dp230
g34
I0
ssg21
(dp231
g21
I0
ssg38
(dp232
g38
I0
ssg22
(dp233
g23
I1
sg69
I1
sg106
I1
ssg55
(dp234
g55
I0
ssg48
(dp235
g48
I0
ssg42
(dp236
S'thermos.n.01'
p237
I1
ssg49
(dp238
g49
I0
ssg101
(dp239
g101
I0
ssg68
(dp240
g68
I0
ssg52
(dp241
S'liquid.n.01'
p242
I1
ssg32
(dp243
S'meal.n.03'
p244
I1
ssg67
(dp245
g68
I1
ssg37
(dp246
g38
I1
sssb.