ccopy_reg
_reconstructor
p0
(cutils.eval
ConfusionMatrix
p1
c__builtin__
object
p2
Ntp3
Rp4
(dp5
S'labels'
p6
(lp7
S'cut.v.01'
p8
aS'cut.v.32'
p9
aS'squash.n.02'
p10
aS'squash.n.01'
p11
aS'liquid.n.01'
p12
aS'pour.v.01'
p13
aS'sink.n.01'
p14
aS'cesspool.n.01'
p15
aS'add.v.01'
p16
aS'lend.v.01'
p17
aS'chicken.n.01'
p18
aS'wimp.n.01'
p19
aS'corn.n.02'
p20
aS'corn_whiskey.n.01'
p21
aS'chop.v.01'
p22
aS'chop.v.05'
p23
aS'vanilla.n.02'
p24
aS'vanilla.n.03'
p25
aS'egg.n.02'
p26
aS'egg.n.01'
p27
aS'concoction.n.01'
p28
aS'blend.v.03'
p29
aS'mix.v.05'
p30
aS'opening.n.01'
p31
aS'opening.n.10'
p32
aS'fill.v.09'
p33
aS'fill.v.01'
p34
aS'curd.n.01'
p35
aS'tomato.n.01'
p36
aS'tomato.n.02'
p37
aS'piece.n.08'
p38
aS'slice.n.04'
p39
aS'onion.n.03'
p40
aS'onion.n.02'
p41
aS'mustard.n.02'
p42
aS'pitcher.n.02'
p43
aS'milk.n.01'
p44
aS'bread.n.01'
p45
aS'pan.n.01'
p46
aS'pan.n.03'
p47
aS'mix.n.03'
p48
aS'cut.n.16'
p49
aS'edit.v.03'
p50
aS'bag.n.01'
p51
aS'bag.n.04'
p52
aS'cup.n.01'
p53
aS'cola.n.02'
p54
aS'carve.v.03'
p55
aS'hack.v.07'
p56
aS'pepper.n.04'
p57
aS'pepper.n.03'
p58
aS'onion.n.01'
p59
aS'put.v.01'
p60
aS'sauce.n.01'
p61
aS'put.v.02'
p62
aS'beef.n.02'
p63
aS'gripe.n.01'
p64
aS'plate.n.04'
p65
aS'plate.n.13'
p66
aS'flesh.n.01'
p67
aS'human_body.n.01'
p68
aS'slice.v.03'
p69
aS'rum.n.01'
p70
aS'shaker.n.03'
p71
aS'take.v.04'
p72
aS'assume.v.03'
p73
aS'decant.v.01'
p74
aS'whiskey.n.01'
p75
aS'carafe.n.01'
p76
aS'cover.v.01'
p77
aS'cover.v.16'
p78
aS'rib.n.03'
p79
aS'rib.n.01'
p80
aS'teapot.n.01'
p81
aS'water.n.06'
p82
aS'slice.n.06'
p83
aS'pizza.n.01'
p84
aS'apple.n.01'
p85
aS'saltcellar.n.01'
p86
aS'salt.n.02'
p87
aS'wok.n.01'
p88
aS'rice.n.01'
p89
aS'kettle.n.01'
p90
aS'burner.n.02'
p91
aS'burner.n.01'
p92
aS'pan.n.02'
p93
aS'butter.n.01'
p94
aS'cheese.n.01'
p95
aS'pot.n.01'
p96
aS'serve.v.05'
p97
aS'serve.v.11'
p98
aS'jar.n.01'
p99
aS'gravy.n.01'
p100
aS'gravy.n.02'
p101
asS'instanceCount'
p102
I92
sS'matrix'
p103
(dp104
g8
(dp105
S'edit.v.03'
p106
I1
sg9
I1
ssg77
(dp107
g78
I1
ssg21
(dp108
g21
I0
ssg100
(dp109
g101
I1
ssg101
(dp110
g101
I0
ssg79
(dp111
g80
I1
ssg80
(dp112
g80
I0
ssg98
(dp113
g98
I0
ssg68
(dp114
g68
I0
ssg75
(dp115
S'whiskey.n.01'
p116
I1
ssg31
(dp117
g32
I1
ssg67
(dp118
g68
I1
ssg82
(dp119
S'water.n.06'
p120
I4
ssg60
(dp121
g62
I1
sS'put.v.01'
p122
I1
ssg71
(dp123
S'shaker.n.03'
p124
I1
ssg13
(dp125
S'pour.v.01'
p126
I2
ssg99
(dp127
S'jar.n.01'
p128
I1
ssg76
(dp129
S'carafe.n.01'
p130
I1
ssg74
(dp131
S'pour.v.01'
p132
I1
ssg18
(dp133
g19
I1
ssg14
(dp134
g15
I1
ssg62
(dp135
g62
I0
ssg97
(dp136
g98
I1
ssg32
(dp137
g32
I0
ssg16
(dp138
g17
I5
ssg46
(dp139
g47
I2
sg93
I1
ssg47
(dp140
g47
I0
ssg93
(dp141
g93
I0
ssg53
(dp142
S'cup.n.01'
p143
I1
ssg25
(dp144
g25
I0
ssg24
(dp145
g25
I2
ssg69
(dp146
S'slice.v.03'
p147
I3
ssg88
(dp148
S'wok.n.01'
p149
I1
ssg57
(dp150
g58
I1
ssg58
(dp151
g58
I0
ssg70
(dp152
S'rum.n.01'
p153
I1
ssg64
(dp154
g64
I0
ssg81
(dp155
S'teapot.n.01'
p156
I1
ssg90
(dp157
S'kettle.n.01'
p158
I1
ssg48
(dp159
S'mix.n.03'
p160
I1
ssg35
(dp161
S'curd.n.01'
p162
I1
ssg59
(dp163
S'onion.n.01'
p164
I1
sS'onion.n.03'
p165
I1
ssg40
(dp166
g41
I1
ssg41
(dp167
g41
I0
ssg20
(dp168
g21
I1
ssg63
(dp169
g64
I1
ssg55
(dp170
g56
I1
ssg72
(dp171
g73
I1
ssg42
(dp172
S'mustard.n.02'
p173
I1
ssg33
(dp174
g34
I1
ssg96
(dp175
S'pot.n.01'
p176
I1
ssg34
(dp177
g34
I11
ssg43
(dp178
S'pitcher.n.02'
p179
I1
ssg11
(dp180
g11
I0
ssg10
(dp181
g11
I1
ssg28
(dp182
S'concoction.n.01'
p183
I1
ssg56
(dp184
g56
I0
ssg73
(dp185
g73
I0
ssg85
(dp186
S'apple.n.01'
p187
I1
ssg83
(dp188
g83
I0
ssg39
(dp189
g39
I0
ssg84
(dp190
S'pizza.n.01'
p191
I1
ssg49
(dp192
g50
I1
ssg91
(dp193
g92
I1
ssg92
(dp194
g92
I0
ssg66
(dp195
g66
I0
ssg95
(dp196
S'cheese.n.01'
p197
I1
ssg87
(dp198
S'salt.n.02'
p199
I1
ssg45
(dp200
S'bread.n.01'
p201
I1
ssg19
(dp202
g19
I0
ssg44
(dp203
S'milk.n.01'
p204
I1
ssg54
(dp205
S'cola.n.02'
p206
I1
ssg86
(dp207
S'saltcellar.n.01'
p208
I1
ssg26
(dp209
g27
I1
ssg27
(dp210
g27
I0
ssg52
(dp211
g52
I0
ssg65
(dp212
g66
I1
ssg23
(dp213
g23
I0
ssg51
(dp214
g52
I1
ssg22
(dp215
g23
I1
ssg94
(dp216
S'butter.n.01'
p217
I1
ssg30
(dp218
g30
I0
ssg61
(dp219
S'sauce.n.01'
p220
I1
ssg29
(dp221
g30
I1
ssg17
(dp222
g17
I0
ssg50
(dp223
g50
I0
ssg38
(dp224
g83
I3
sg39
I1
ssg15
(dp225
g15
I0
ssg89
(dp226
S'rice.n.01'
p227
I1
ssg9
(dp228
g9
I0
ssg78
(dp229
g78
I0
ssg37
(dp230
g37
I0
ssg12
(dp231
S'liquid.n.01'
p232
I1
ssg36
(dp233
g37
I1
sssb.