ccopy_reg
_reconstructor
p0
(cutils.eval
ConfusionMatrix
p1
c__builtin__
object
p2
Ntp3
Rp4
(dp5
S'labels'
p6
(lp7
S'tomato.n.01'
p8
aS'tomato.n.02'
p9
aS'piece.n.08'
p10
aS'slice.n.04'
p11
aS'onion.n.03'
p12
aS'onion.n.02'
p13
aS'mustard.n.02'
p14
aS'fill.v.01'
p15
aS'pitcher.n.02'
p16
aS'milk.n.01'
p17
aS'pour.v.01'
p18
aS'bread.n.01'
p19
aS'pan.n.01'
p20
aS'pan.n.03'
p21
aS'mix.n.03'
p22
aS'cut.n.16'
p23
aS'edit.v.03'
p24
aS'bag.n.01'
p25
aS'bag.n.04'
p26
aS'cup.n.01'
p27
aS'cola.n.02'
p28
aS'carve.v.03'
p29
aS'hack.v.07'
p30
aS'pepper.n.04'
p31
aS'pepper.n.03'
p32
aS'onion.n.01'
p33
aS'put.v.01'
p34
aS'put.v.02'
p35
aS'sauce.n.01'
p36
aS'beef.n.02'
p37
aS'gripe.n.01'
p38
aS'plate.n.04'
p39
aS'plate.n.13'
p40
aS'flesh.n.01'
p41
aS'human_body.n.01'
p42
aS'slice.v.03'
p43
aS'rum.n.01'
p44
aS'shaker.n.03'
p45
aS'take.v.04'
p46
aS'assume.v.03'
p47
aS'decant.v.01'
p48
aS'whiskey.n.01'
p49
aS'carafe.n.01'
p50
aS'add.v.01'
p51
aS'lend.v.01'
p52
aS'cover.v.01'
p53
aS'cover.v.16'
p54
aS'rib.n.03'
p55
aS'rib.n.01'
p56
aS'teapot.n.01'
p57
aS'water.n.06'
p58
aS'slice.n.06'
p59
aS'pizza.n.01'
p60
aS'apple.n.01'
p61
aS'saltcellar.n.01'
p62
aS'salt.n.02'
p63
aS'wok.n.01'
p64
aS'rice.n.01'
p65
aS'kettle.n.01'
p66
aS'burner.n.02'
p67
aS'burner.n.01'
p68
aS'pan.n.02'
p69
aS'butter.n.01'
p70
aS'vanilla.n.02'
p71
aS'vanilla.n.03'
p72
aS'cheese.n.01'
p73
aS'pot.n.01'
p74
aS'serve.v.05'
p75
aS'serve.v.11'
p76
aS'cut.v.01'
p77
aS'jar.n.01'
p78
aS'gravy.n.01'
p79
aS'gravy.n.02'
p80
aS'water_system.n.02'
p81
aS'concoction.n.01'
p82
aS'blend.v.01'
p83
aS'bowl.n.01'
p84
aS'bowl.n.08'
p85
aS'bottle.n.01'
p86
aS'fruit_juice.n.01'
p87
aS'walnut.n.01'
p88
aS'walnut.n.02'
p89
aS'get.v.01'
p90
aS'make.v.02'
p91
aS'pear.n.01'
p92
aS'pear.n.02'
p93
aS'blend.v.03'
p94
aS'mix.v.05'
p95
aS'egg.n.02'
p96
aS'egg.n.01'
p97
aS'dough.n.01'
p98
aS'boodle.n.01'
p99
aS'mix.v.04'
p100
asS'instanceCount'
p101
I95
sS'matrix'
p102
(dp103
g84
(dp104
g85
I2
ssg85
(dp105
g85
I0
ssg77
(dp106
S'edit.v.03'
p107
I1
ssg53
(dp108
g54
I1
ssg79
(dp109
g80
I1
ssg80
(dp110
g80
I0
ssg55
(dp111
g56
I1
ssg56
(dp112
g56
I0
ssg89
(dp113
g89
I0
ssg88
(dp114
g89
I1
ssg76
(dp115
g76
I0
ssg42
(dp116
g42
I0
ssg49
(dp117
S'whiskey.n.01'
p118
I1
ssg41
(dp119
g42
I1
ssg58
(dp120
g81
I1
sS'water.n.06'
p121
I4
ssg34
(dp122
g35
I3
ssg45
(dp123
S'shaker.n.03'
p124
I1
ssg18
(dp125
S'pour.v.01'
p126
I2
ssg78
(dp127
S'jar.n.01'
p128
I1
ssg50
(dp129
S'carafe.n.01'
p130
I1
ssg48
(dp131
S'pour.v.01'
p132
I1
ssg59
(dp133
g59
I0
ssg35
(dp134
g35
I0
ssg75
(dp135
g76
I1
ssg61
(dp136
S'apple.n.01'
p137
I1
ssg51
(dp138
g52
I4
ssg20
(dp139
g21
I2
sg69
I1
ssg21
(dp140
g21
I0
ssg69
(dp141
g69
I0
ssg27
(dp142
S'cup.n.01'
p143
I1
ssg72
(dp144
g72
I0
ssg71
(dp145
g72
I1
ssg43
(dp146
S'slice.v.03'
p147
I3
ssg98
(dp148
g99
I1
ssg90
(dp149
g91
I1
ssg64
(dp150
S'wok.n.01'
p151
I1
ssg31
(dp152
g32
I1
ssg32
(dp153
g32
I0
ssg44
(dp154
S'rum.n.01'
p155
I1
ssg38
(dp156
g38
I0
ssg87
(dp157
S'fruit_juice.n.01'
p158
I1
ssg57
(dp159
S'teapot.n.01'
p160
I1
ssg66
(dp161
S'kettle.n.01'
p162
I1
ssg52
(dp163
g52
I0
ssg33
(dp164
S'onion.n.01'
p165
I1
sS'onion.n.03'
p166
I1
ssg12
(dp167
g13
I1
ssg13
(dp168
g13
I0
ssg37
(dp169
g38
I1
ssg29
(dp170
g30
I1
ssg91
(dp171
g91
I0
ssg46
(dp172
g47
I1
ssg14
(dp173
S'mustard.n.02'
p174
I1
ssg16
(dp175
S'pitcher.n.02'
p176
I1
ssg86
(dp177
S'bottle.n.01'
p178
I1
ssg74
(dp179
S'pot.n.01'
p180
I1
ssg15
(dp181
S'fill.v.01'
p182
I12
ssg93
(dp183
g93
I0
ssg92
(dp184
g93
I1
ssg82
(dp185
S'mix.n.03'
p186
I1
ssg30
(dp187
g30
I0
ssg47
(dp188
g47
I0
ssg81
(dp189
g81
I0
ssg11
(dp190
g11
I0
ssg60
(dp191
S'pizza.n.01'
p192
I1
ssg23
(dp193
g24
I1
ssg67
(dp194
g68
I1
ssg68
(dp195
g68
I0
ssg40
(dp196
g40
I0
ssg73
(dp197
S'cheese.n.01'
p198
I1
ssg63
(dp199
S'salt.n.02'
p200
I1
ssg19
(dp201
S'bread.n.01'
p202
I1
ssg17
(dp203
S'milk.n.01'
p204
I1
ssg28
(dp205
S'cola.n.02'
p206
I1
ssg62
(dp207
S'saltcellar.n.01'
p208
I1
ssg9
(dp209
g9
I0
ssg8
(dp210
g9
I1
ssg26
(dp211
g26
I0
ssg39
(dp212
g40
I1
ssg25
(dp213
g26
I1
ssg100
(dp214
S'mix.v.05'
p215
I1
ssg95
(dp216
g95
I0
ssg36
(dp217
S'sauce.n.01'
p218
I1
ssg94
(dp219
g95
I1
ssg83
(dp220
S'blend.v.01'
p221
I1
ssg22
(dp222
S'mix.n.03'
p223
I1
ssg24
(dp224
g24
I0
ssg99
(dp225
g99
I0
ssg10
(dp226
g59
I3
sg11
I1
ssg97
(dp227
g97
I0
ssg65
(dp228
S'rice.n.01'
p229
I2
ssg54
(dp230
g54
I0
ssg96
(dp231
g97
I1
ssg70
(dp232
S'butter.n.01'
p233
I2
sssb.