ccopy_reg
_reconstructor
p0
(cutils.eval
ConfusionMatrix
p1
c__builtin__
object
p2
Ntp3
Rp4
(dp5
S'labels'
p6
(lp7
S'water.n.06'
p8
aS'water_system.n.02'
p9
aS'rice.n.01'
p10
aS'pour.v.01'
p11
aS'concoction.n.01'
p12
aS'mix.n.03'
p13
aS'put.v.01'
p14
aS'put.v.02'
p15
aS'blend.v.01'
p16
aS'bowl.n.01'
p17
aS'bowl.n.08'
p18
aS'fill.v.01'
p19
aS'bottle.n.01'
p20
aS'fruit_juice.n.01'
p21
aS'walnut.n.01'
p22
aS'walnut.n.02'
p23
aS'get.v.01'
p24
aS'make.v.02'
p25
aS'pear.n.01'
p26
aS'blend.v.03'
p27
aS'mix.v.05'
p28
aS'bowl.n.03'
p29
aS'add.v.01'
p30
aS'lend.v.01'
p31
aS'butter.n.01'
p32
aS'egg.n.02'
p33
aS'egg.n.01'
p34
aS'dough.n.01'
p35
aS'boodle.n.01'
p36
aS'mix.v.04'
p37
aS'ice.n.01'
p38
aS'ice.n.05'
p39
aS'fork.n.01'
p40
aS'branching.n.01'
p41
aS'bread.n.01'
p42
aS'piece.n.08'
p43
aS'slice.n.06'
p44
aS'jar.n.01'
p45
aS'mug.n.04'
p46
aS'opening.n.01'
p47
aS'gap.n.03'
p48
aS'fill.v.09'
p49
aS'batter.n.02'
p50
aS'knife.n.01'
p51
aS'tongue.n.03'
p52
aS'banana.n.02'
p53
aS'slice.v.03'
p54
aS'glass.n.02'
p55
aS'milk.n.01'
p56
aS'strawberry.n.01'
p57
aS'cut.v.01'
p58
aS'edit.v.03'
p59
aS'lodge.v.02'
p60
aS'stick.v.08'
p61
aS'pizza.n.01'
p62
aS'pan.n.01'
p63
aS'measuring_cup.n.01'
p64
aS'meal.n.03'
p65
aS'mixing_bowl.n.01'
p66
aS'sugar.n.01'
p67
aS'avocado.n.01'
p68
aS'thermos.n.01'
p69
aS'coffee.n.01'
p70
aS'pepper.n.03'
p71
aS'salt.n.02'
p72
aS'salt.n.04'
p73
aS'cut.v.32'
p74
aS'squash.n.02'
p75
aS'squash.n.01'
p76
aS'liquid.n.01'
p77
aS'sink.n.01'
p78
aS'cesspool.n.01'
p79
aS'chicken.n.01'
p80
aS'wimp.n.01'
p81
aS'corn.n.02'
p82
aS'corn.n.03'
p83
aS'chop.v.01'
p84
aS'chop.v.05'
p85
aS'vanilla.n.02'
p86
aS'vanilla.n.03'
p87
aS'opening.n.10'
p88
aS'curd.n.01'
p89
aS'tomato.n.01'
p90
aS'tomato.n.02'
p91
aS'slice.n.04'
p92
aS'onion.n.03'
p93
aS'onion.n.02'
p94
aS'mustard.n.02'
p95
aS'pitcher.n.02'
p96
aS'cut.n.16'
p97
aS'bag.n.01'
p98
aS'bag.n.04'
p99
aS'cup.n.01'
p100
aS'cola.n.02'
p101
asS'instanceCount'
p102
I96
sS'matrix'
p103
(dp104
g29
(dp105
g29
I0
ssg17
(dp106
g29
I1
sS'bowl.n.01'
p107
I1
sg18
I2
ssg18
(dp108
g18
I0
ssg58
(dp109
g59
I1
sg74
I1
ssg64
(dp110
S'measuring_cup.n.01'
p111
I1
ssg23
(dp112
g23
I0
ssg40
(dp113
g41
I1
ssg22
(dp114
g23
I1
ssg47
(dp115
g88
I1
sg48
I1
ssg15
(dp116
g15
I0
ssg14
(dp117
g15
I2
ssg11
(dp118
S'pour.v.01'
p119
I3
ssg52
(dp120
g52
I0
ssg45
(dp121
S'jar.n.01'
p122
I1
ssg80
(dp123
g81
I1
ssg78
(dp124
g79
I1
ssg9
(dp125
g9
I0
ssg8
(dp126
g9
I1
ssg68
(dp127
S'avocado.n.01'
p128
I1
ssg88
(dp129
g88
I0
ssg30
(dp130
g31
I4
ssg63
(dp131
S'pan.n.01'
p132
I2
ssg53
(dp133
S'banana.n.02'
p134
I1
ssg100
(dp135
S'cup.n.01'
p136
I1
ssg87
(dp137
g87
I0
ssg86
(dp138
g87
I1
ssg54
(dp139
S'slice.v.03'
p140
I1
ssg35
(dp141
g36
I1
ssg24
(dp142
g25
I1
ssg71
(dp143
S'pepper.n.03'
p144
I1
ssg34
(dp145
g34
I0
ssg21
(dp146
S'fruit_juice.n.01'
p147
I1
ssg38
(dp148
g39
I1
ssg39
(dp149
g39
I0
ssg31
(dp150
g31
I0
ssg89
(dp151
S'curd.n.01'
p152
I1
ssg93
(dp153
g94
I1
ssg65
(dp154
S'meal.n.03'
p155
I1
ssg57
(dp156
S'strawberry.n.01'
p157
I1
ssg83
(dp158
g83
I0
ssg82
(dp159
g83
I1
ssg60
(dp160
g61
I1
ssg25
(dp161
g25
I0
ssg66
(dp162
S'mixing_bowl.n.01'
p163
I1
ssg61
(dp164
g61
I0
ssg95
(dp165
S'mustard.n.02'
p166
I1
ssg49
(dp167
S'fill.v.01'
p168
I2
ssg20
(dp169
S'bottle.n.01'
p170
I1
ssg19
(dp171
S'fill.v.01'
p172
I9
ssg96
(dp173
S'pitcher.n.02'
p174
I1
ssg26
(dp175
S'pear.n.01'
p176
I1
ssg76
(dp177
g76
I0
ssg75
(dp178
g76
I1
ssg12
(dp179
S'concoction.n.01'
p180
I1
sg13
I1
ssg72
(dp181
g73
I1
ssg51
(dp182
g52
I1
ssg73
(dp183
g73
I0
ssg70
(dp184
S'coffee.n.01'
p185
I1
ssg41
(dp186
g41
I0
ssg46
(dp187
S'mug.n.04'
p188
I1
ssg44
(dp189
g44
I0
ssg92
(dp190
g92
I0
ssg62
(dp191
S'pizza.n.01'
p192
I1
ssg97
(dp193
S'edit.v.03'
p194
I1
ssg10
(dp195
S'rice.n.01'
p196
I1
ssg42
(dp197
S'bread.n.01'
p198
I2
ssg50
(dp199
S'batter.n.02'
p200
I1
ssg81
(dp201
g81
I0
ssg56
(dp202
S'milk.n.01'
p203
I2
ssg101
(dp204
S'cola.n.02'
p205
I1
ssg33
(dp206
g34
I3
ssg32
(dp207
S'butter.n.01'
p208
I2
ssg99
(dp209
g99
I0
ssg85
(dp210
g85
I0
ssg98
(dp211
g99
I1
ssg84
(dp212
g85
I1
ssg37
(dp213
S'mix.v.05'
p214
I1
ssg28
(dp215
g28
I0
ssg55
(dp216
S'glass.n.02'
p217
I1
ssg27
(dp218
g28
I4
ssg16
(dp219
S'blend.v.01'
p220
I1
ssg13
(dp221
g13
I1
ssg59
(dp222
g59
I0
ssg36
(dp223
g36
I0
ssg43
(dp224
g44
I2
sg92
I1
ssg79
(dp225
g79
I0
ssg48
(dp226
g48
I0
ssg69
(dp227
S'thermos.n.01'
p228
I1
ssg74
(dp229
g74
I0
ssg91
(dp230
g91
I0
ssg77
(dp231
S'liquid.n.01'
p232
I1
ssg94
(dp233
g94
I0
ssg90
(dp234
g91
I1
ssg67
(dp235
S'boodle.n.01'
p236
I1
sssb.