ccopy_reg
_reconstructor
p0
(cutils.eval
ConfusionMatrix
p1
c__builtin__
object
p2
Ntp3
Rp4
(dp5
S'labels'
p6
(lp7
S'piece.n.08'
p8
aS'slice.n.06'
p9
aS'cut.v.01'
p10
aS'pizza.n.01'
p11
aS'fork.n.01'
p12
aS'fork.n.04'
p13
aS'cake.n.03'
p14
asS'instanceCount'
p15
I6
sS'matrix'
p16
(dp17
g10
(dp18
S'cut.v.01'
p19
I2
ssg13
(dp20
g13
I0
ssg9
(dp21
g9
I0
ssg12
(dp22
g13
I1
ssg11
(dp23
S'pizza.n.01'
p24
I1
ssg14
(dp25
S'cake.n.03'
p26
I1
ssg8
(dp27
g9
I1
sssb.