ccopy_reg
_reconstructor
p0
(cutils.eval
ConfusionMatrix
p1
c__builtin__
object
p2
Ntp3
Rp4
(dp5
S'labels'
p6
(lp7
S'cut.v.01'
p8
aS'knife.n.01'
p9
aS'banana.n.02'
p10
aS'zucchini.n.01'
p11
aS'zucchini.n.02'
p12
asS'instanceCount'
p13
I5
sS'matrix'
p14
(dp15
g12
(dp16
g12
I0
ssg8
(dp17
S'cut.v.01'
p18
I2
ssg9
(dp19
S'knife.n.01'
p20
I1
ssg10
(dp21
S'banana.n.02'
p22
I1
ssg11
(dp23
g12
I1
sssb.