ccopy_reg
_reconstructor
p0
(cutils.eval
ConfusionMatrix
p1
c__builtin__
object
p2
Ntp3
Rp4
(dp5
S'labels'
p6
(lp7
S'cut.v.01'
p8
aS'mushroom.n.05'
p9
aS'piece.n.08'
p10
aS'slice.n.06'
p11
aS'potato.n.01'
p12
asS'instanceCount'
p13
I5
sS'matrix'
p14
(dp15
g9
(dp16
S'mushroom.n.05'
p17
I1
ssg10
(dp18
g11
I1
ssg8
(dp19
S'cut.v.01'
p20
I2
ssg11
(dp21
g11
I0
ssg12
(dp22
S'potato.n.01'
p23
I1
sssb.