ccopy_reg
_reconstructor
p0
(cutils.eval
ConfusionMatrix
p1
c__builtin__
object
p2
Ntp3
Rp4
(dp5
S'labels'
p6
(lp7
S'fill.v.01'
p8
aS'bottle.n.01'
p9
aS'fruit_juice.n.01'
p10
aS'whiskey.n.01'
p11
aS'carafe.n.01'
p12
aS'wok.n.01'
p13
aS'rice.n.01'
p14
aS'pitcher.n.02'
p15
aS'milk.n.01'
p16
aS'pot.n.01'
p17
aS'water.n.06'
p18
aS'kettle.n.01'
p19
aS'teapot.n.01'
p20
aS'opening.n.01'
p21
aS'opening.n.10'
p22
aS'fill.v.09'
p23
aS'curd.n.01'
p24
aS'jar.n.01'
p25
aS'saltcellar.n.01'
p26
aS'salt.n.02'
p27
aS'pan.n.01'
p28
aS'pan.n.03'
p29
aS'foam.n.01'
p30
aS'mug.n.04'
p31
aS'gap.n.03'
p32
aS'batter.n.02'
p33
aS'gravy.n.01'
p34
aS'gravy.n.02'
p35
aS'cup.n.01'
p36
aS'cola.n.02'
p37
aS'blender.n.01'
p38
aS'apple.n.01'
p39
aS'ice.n.01'
p40
aS'ice.n.05'
p41
aS'bowl.n.01'
p42
aS'measuring_cup.n.01'
p43
aS'meal.n.03'
p44
aS'glass.n.02'
p45
aS'thermos.n.01'
p46
aS'coffee.n.01'
p47
asS'instanceCount'
p48
I59
sS'matrix'
p49
(dp50
g46
(dp51
g46
I1
sg47
I0
sS'milk.n.01'
p52
I0
sg45
I0
sS'fill.v.01'
p53
I0
ssg23
(dp54
g34
I0
sg35
I0
sg20
I0
sg23
I0
sS'water.n.06'
p55
I0
sS'fill.v.01'
p56
I2
sg32
I0
sg33
I0
sg24
I0
sg22
I0
sS'jar.n.01'
p57
I0
sg21
I0
ssg33
(dp58
g34
I0
sg35
I0
sg32
I0
sS'fill.v.09'
p59
I0
sS'fill.v.01'
p60
I0
sg33
I1
sg57
I0
sS'opening.n.01'
p61
I0
ssg39
(dp62
g39
I1
sS'fill.v.01'
p63
I0
sg37
I0
sg38
I0
sg36
I0
ssg22
(dp64
g20
I0
sg23
I0
sg55
I0
sg56
I0
sg24
I0
sg22
I0
sg21
I0
ssg30
(dp65
g28
I0
sg31
I0
sg29
I0
sS'water.n.06'
p66
I0
sS'fill.v.01'
p67
I0
sg30
I1
ssg16
(dp68
g46
I0
sg13
I0
sg14
I0
sg47
I0
sS'fill.v.01'
p69
I0
sg15
I0
sg16
I2
sg45
I0
ssg28
(dp70
g28
I0
sg31
I0
sg29
I1
sg66
I0
sg67
I0
sg30
I0
ssg29
(dp71
g28
I0
sg31
I0
sg29
I0
sg66
I0
sg67
I0
sg30
I0
ssg37
(dp72
g39
I0
sg63
I0
sg37
I1
sg38
I0
sg36
I0
ssg32
(dp73
g34
I0
sg35
I0
sg32
I0
sg59
I0
sg60
I0
sg33
I0
sg57
I0
sg61
I0
ssg26
(dp74
g27
I0
sg25
I0
sS'fill.v.01'
p75
I0
sg26
I1
ssg9
(dp76
g9
I1
sg10
I0
sg12
I0
sg11
I0
sg8
I0
ssg17
(dp77
g19
I0
sg17
I1
sg18
I0
sS'fill.v.01'
p78
I0
ssg8
(dp79
g46
I0
sg23
I0
sg33
I0
sg39
I0
sg22
I0
sg30
I0
sg16
I0
sg28
I0
sg29
I0
sg37
I0
sg32
I0
sg26
I0
sg9
I0
sg17
I0
sg8
I18
sg15
I0
sg42
I0
sg43
I0
sg45
I0
sg34
I0
sg27
I0
sg35
I0
sg13
I0
sg47
I0
sg11
I0
sg21
I0
sg31
I0
sg10
I0
sg20
I0
sg38
I0
sg14
I0
sg18
I0
sg40
I0
sg36
I0
sg19
I0
sg41
I0
sg24
I0
sg25
I0
sg12
I0
sg44
I0
ssg15
(dp80
g13
I0
sg15
I1
sg14
I0
sg16
I0
sg69
I0
ssg42
(dp81
S'fill.v.01'
p82
I0
sg40
I0
sg42
I1
sg41
I0
sg43
I0
sg44
I0
ssg43
(dp83
g82
I0
sg40
I0
sg42
I0
sg41
I0
sg43
I1
sg44
I0
ssg45
(dp84
g46
I0
sg47
I0
sg52
I0
sg45
I1
sg53
I0
ssg34
(dp85
g34
I0
sg35
I1
sg32
I0
sg59
I0
sg60
I0
sg33
I0
sg57
I0
sg61
I0
ssg27
(dp86
g27
I1
sg25
I0
sg26
I0
sg75
I0
ssg35
(dp87
g34
I0
sg35
I0
sg32
I0
sg59
I0
sg60
I0
sg33
I0
sg57
I0
sg61
I0
ssg13
(dp88
g13
I1
sg15
I0
sg14
I0
sg16
I0
sg69
I0
ssg47
(dp89
g46
I0
sg47
I1
sg52
I0
sg45
I0
sg53
I0
ssg11
(dp90
g9
I0
sg10
I0
sg12
I0
sg11
I1
sg8
I0
ssg21
(dp91
g34
I0
sg35
I0
sg20
I0
sg23
I0
sg55
I0
sg56
I0
sg32
I1
sg33
I0
sg24
I0
sg22
I1
sg57
I0
sg21
I0
ssg31
(dp92
g28
I0
sg31
I1
sg29
I0
sg66
I0
sg67
I0
sg30
I0
ssg10
(dp93
g9
I0
sg10
I1
sg12
I0
sg11
I0
sg8
I0
ssg20
(dp94
g20
I1
sg23
I0
sg55
I0
sg56
I0
sg24
I0
sg22
I0
sg21
I0
ssg38
(dp95
g39
I0
sg63
I0
sg36
I0
sg37
I0
sg38
I1
ssg14
(dp96
g13
I0
sg15
I0
sg14
I1
sg16
I0
sg69
I0
ssg18
(dp97
g28
I0
sg31
I0
sg29
I0
sg20
I0
sg23
I0
sg17
I0
sg18
I4
sg78
I0
sg19
I0
sg24
I0
sg22
I0
sg30
I0
sg21
I0
ssg40
(dp98
g82
I0
sg40
I0
sg42
I0
sg41
I1
sg43
I0
sg44
I0
ssg36
(dp99
g39
I0
sg63
I0
sg37
I0
sg38
I0
sg36
I1
ssg19
(dp100
g19
I1
sg17
I0
sg18
I0
sg78
I0
ssg41
(dp101
g82
I0
sg40
I0
sg42
I0
sg41
I0
sg43
I0
sg44
I0
ssg24
(dp102
g20
I0
sg23
I0
sg55
I0
sg56
I0
sg24
I1
sg22
I0
sg21
I0
ssg25
(dp103
g34
I0
sg27
I0
sg35
I0
sg32
I0
sg26
I0
sg59
I0
sg75
I0
sg33
I0
sg25
I2
sg61
I0
ssg12
(dp104
g9
I0
sg10
I0
sg12
I1
sg11
I0
sg8
I0
ssg44
(dp105
g82
I0
sg40
I0
sg42
I0
sg41
I0
sg43
I0
sg44
I1
sssb.