ccopy_reg
_reconstructor
p0
(cutils.eval
ConfusionMatrix
p1
c__builtin__
object
p2
Ntp3
Rp4
(dp5
S'labels'
p6
(lp7
S'fill.v.01'
p8
aS'foam.n.01'
p9
aS'mug.n.04'
p10
aS'jar.n.01'
p11
aS'kettle.n.01'
p12
aS'water.n.06'
p13
aS'pitcher.n.02'
p14
aS'milk.n.01'
p15
aS'ice.n.01'
p16
aS'ice.n.05'
p17
aS'bowl.n.01'
p18
aS'saltcellar.n.01'
p19
aS'salt.n.02'
p20
asS'instanceCount'
p21
I17
sS'matrix'
p22
(dp23
g10
(dp24
S'mug.n.04'
p25
I1
ssg19
(dp26
S'saltcellar.n.01'
p27
I1
ssg13
(dp28
S'water.n.06'
p29
I1
ssg8
(dp30
S'fill.v.01'
p31
I6
ssg16
(dp32
g17
I1
ssg14
(dp33
S'pitcher.n.02'
p34
I1
ssg18
(dp35
S'bowl.n.01'
p36
I1
ssg12
(dp37
S'kettle.n.01'
p38
I1
ssg17
(dp39
g17
I0
ssg11
(dp40
S'jar.n.01'
p41
I1
ssg9
(dp42
S'foam.n.01'
p43
I1
ssg15
(dp44
S'milk.n.01'
p45
I1
ssg20
(dp46
S'salt.n.02'
p47
I1
sssb.