ccopy_reg
_reconstructor
p0
(cutils.eval
ConfusionMatrix
p1
c__builtin__
object
p2
Ntp3
Rp4
(dp5
S'labels'
p6
(lp7
S'fill.v.01'
p8
aS'kettle.n.01'
p9
aS'water.n.06'
p10
aS'pitcher.n.02'
p11
aS'milk.n.01'
p12
aS'ice.n.01'
p13
aS'ice.n.05'
p14
aS'bowl.n.01'
p15
aS'saltcellar.n.01'
p16
aS'salt.n.02'
p17
aS'thermos.n.01'
p18
aS'coffee.n.01'
p19
aS'pot.n.01'
p20
asS'instanceCount'
p21
I18
sS'matrix'
p22
(dp23
g17
(dp24
S'salt.n.02'
p25
I1
ssg16
(dp26
S'saltcellar.n.01'
p27
I1
ssg20
(dp28
S'pot.n.01'
p29
I1
ssg18
(dp30
S'thermos.n.01'
p31
I1
ssg19
(dp32
S'coffee.n.01'
p33
I1
ssg10
(dp34
S'water.n.06'
p35
I2
ssg8
(dp36
S'fill.v.01'
p37
I6
ssg13
(dp38
g14
I1
ssg11
(dp39
S'pitcher.n.02'
p40
I1
ssg15
(dp41
S'bowl.n.01'
p42
I1
ssg9
(dp43
S'kettle.n.01'
p44
I1
ssg14
(dp45
g14
I0
ssg12
(dp46
S'milk.n.01'
p47
I1
sssb.