ccopy_reg
_reconstructor
p0
(cutils.eval
ConfusionMatrix
p1
c__builtin__
object
p2
Ntp3
Rp4
(dp5
S'labels'
p6
(lp7
S'fill.v.01'
p8
aS'thermos.n.01'
p9
aS'coffee.n.01'
p10
aS'pot.n.01'
p11
aS'water.n.06'
p12
aS'jar.n.01'
p13
aS'gravy.n.01'
p14
aS'gravy.n.02'
p15
aS'bottle.n.01'
p16
aS'fruit_juice.n.01'
p17
aS'glass.n.02'
p18
aS'milk.n.01'
p19
aS'teapot.n.01'
p20
aS'opening.n.01'
p21
aS'opening.n.10'
p22
aS'fill.v.09'
p23
aS'curd.n.01'
p24
aS'wok.n.01'
p25
aS'rice.n.01'
p26
aS'pan.n.03'
p27
aS'gap.n.03'
p28
aS'batter.n.02'
p29
aS'blender.n.01'
p30
aS'apple.n.01'
p31
aS'whiskey.n.01'
p32
aS'carafe.n.01'
p33
aS'cup.n.01'
p34
aS'cola.n.02'
p35
aS'measuring_cup.n.01'
p36
aS'meal.n.03'
p37
aS'kettle.n.01'
p38
aS'pitcher.n.02'
p39
aS'ice.n.01'
p40
aS'ice.n.05'
p41
aS'bowl.n.01'
p42
aS'saltcellar.n.01'
p43
aS'salt.n.02'
p44
aS'methamphetamine.n.01'
p45
aS'bowl.n.08'
p46
aS'foam.n.01'
p47
aS'mug.n.04'
p48
asS'instanceCount'
p49
I177
sS'matrix'
p50
(dp51
g43
(dp52
g45
I0
sg42
I0
sg46
I0
sS'milk.n.01'
p53
I0
sS'foam.n.01'
p54
I0
sg43
I3
sS'bottle.n.01'
p55
I0
sS'pot.n.01'
p56
I0
sS'fill.v.01'
p57
I0
sg39
I0
sS'gravy.n.01'
p58
I0
sg44
I0
sS'gravy.n.02'
p59
I0
sS'coffee.n.01'
p60
I0
sS'mug.n.04'
p61
I0
sS'fruit_juice.n.01'
p62
I0
sS'thermos.n.01'
p63
I0
sS'water.n.06'
p64
I0
sg40
I0
sg38
I0
sg41
I0
sS'jar.n.01'
p65
I0
ssg9
(dp66
g45
I0
sg42
I0
sg46
I0
sg19
I0
sg43
I0
sg16
I0
sg11
I0
sg8
I0
sg39
I0
sg18
I0
sg14
I0
sg44
I0
sg15
I0
sg10
I0
sg17
I0
sg20
I0
sg9
I3
sg12
I0
sg40
I0
sg38
I0
sg41
I0
sg13
I0
ssg45
(dp67
g58
I0
sS'salt.n.02'
p68
I0
sg62
I0
sg59
I0
sS'saltcellar.n.01'
p69
I0
sg55
I0
sS'coffee.n.01'
p70
I0
sS'thermos.n.01'
p71
I0
sg45
I0
sS'water.n.06'
p72
I0
sS'fill.v.01'
p73
I0
sS'ice.n.01'
p74
I0
sS'bowl.n.01'
p75
I0
sS'pot.n.01'
p76
I0
sg65
I0
sg46
I0
ssg42
(dp77
g45
I0
sg42
I2
sg46
I1
sg53
I0
sg54
I0
sg43
I0
sg55
I0
sg56
I0
sg57
I0
sg39
I0
sg58
I0
sg44
I0
sg59
I0
sg60
I0
sg61
I0
sg62
I0
sg63
I0
sg64
I0
sg40
I0
sg38
I0
sg41
I0
sg65
I0
ssg29
(dp78
g29
I3
sg22
I0
sg31
I0
sS'foam.n.01'
p79
I0
sg27
I0
sS'cola.n.02'
p80
I0
sg28
I0
sg23
I0
sS'fill.v.01'
p81
I0
sS'measuring_cup.n.01'
p82
I0
sg25
I0
sg32
I0
sg21
I0
sS'mug.n.04'
p83
I0
sg30
I0
sg26
I0
sS'water.n.06'
p84
I0
sS'cup.n.01'
p85
I0
sg24
I0
sS'jar.n.01'
p86
I0
sg33
I0
sS'meal.n.03'
p87
I0
ssg31
(dp88
g48
I0
sg27
I0
sg28
I0
sg23
I0
sg25
I0
sg26
I0
sg84
I0
sg81
I0
sS'pitcher.n.02'
p89
I0
sS'kettle.n.01'
p90
I0
sS'milk.n.01'
p91
I0
sg29
I0
sg31
I3
sg24
I0
sg22
I0
sS'jar.n.01'
p92
I0
sg47
I0
sg33
I0
sg30
I0
sg32
I0
sg21
I0
ssg22
(dp93
g29
I0
sg22
I0
sg31
I0
sg34
I0
sS'milk.n.01'
p94
I0
sg27
I0
sg35
I0
sg28
I0
sg23
I0
sg81
I0
sg36
I0
sS'glass.n.02'
p95
I0
sg25
I0
sg32
I0
sg21
I0
sS'teapot.n.01'
p96
I0
sg30
I0
sg26
I0
sg84
I0
sg24
I0
sg33
I0
sg37
I0
ssg34
(dp97
S'batter.n.02'
p98
I0
sS'opening.n.10'
p99
I0
sg34
I3
sg94
I0
sS'pan.n.03'
p100
I0
sg35
I0
sS'gap.n.03'
p101
I0
sS'fill.v.09'
p102
I0
sS'bottle.n.01'
p103
I0
sS'fill.v.01'
p104
I0
sg36
I0
sg95
I0
sS'gravy.n.01'
p105
I0
sS'gravy.n.02'
p106
I0
sS'wok.n.01'
p107
I0
sS'opening.n.01'
p108
I0
sS'fruit_juice.n.01'
p109
I0
sg96
I0
sS'rice.n.01'
p110
I0
sS'water.n.06'
p111
I0
sS'curd.n.01'
p112
I0
sS'jar.n.01'
p113
I0
sg37
I0
ssg19
(dp114
g110
I0
sg42
I0
sS'apple.n.01'
p115
I0
sg99
I0
sg34
I0
sg19
I6
sg47
I0
sg35
I0
sg43
I0
sg102
I0
sg16
I0
sg11
I0
sg8
I0
sg39
I0
sg36
I0
sg18
I0
sg14
I0
sg44
I0
sg15
I0
sg107
I0
sg10
I0
sS'whiskey.n.01'
p116
I0
sg108
I0
sg48
I0
sg17
I0
sg20
I0
sS'blender.n.01'
p117
I0
sg9
I0
sg12
I0
sg40
I0
sg38
I0
sg41
I0
sg112
I0
sg13
I0
sS'carafe.n.01'
p118
I0
sg37
I0
ssg27
(dp119
g29
I0
sg22
I0
sg31
I0
sg79
I0
sg27
I3
sg80
I0
sg28
I0
sg23
I0
sg81
I0
sg82
I0
sg25
I0
sg32
I0
sg21
I0
sg83
I0
sg30
I0
sg26
I0
sg84
I0
sg85
I0
sg24
I0
sg86
I0
sg33
I0
sg87
I0
ssg46
(dp120
g58
I0
sg68
I0
sg62
I0
sg59
I0
sg69
I0
sg55
I0
sg70
I0
sg71
I0
sg45
I0
sg72
I0
sg73
I0
sg74
I0
sg75
I0
sg76
I0
sg65
I0
sg46
I0
ssg35
(dp121
g98
I0
sg99
I0
sg34
I0
sg94
I0
sg100
I0
sg35
I3
sg101
I0
sg102
I0
sg103
I0
sg104
I0
sg36
I0
sg95
I0
sg105
I0
sg106
I0
sg107
I0
sg108
I0
sg109
I0
sg96
I0
sg110
I0
sg111
I0
sg112
I0
sg113
I0
sg37
I0
ssg28
(dp122
g29
I0
sg22
I0
sg31
I0
sg79
I0
sg27
I0
sg80
I0
sg28
I0
sg23
I0
sg81
I0
sg82
I0
sg25
I0
sg32
I0
sg21
I0
sg83
I0
sg30
I0
sg26
I0
sg84
I0
sg85
I0
sg24
I0
sg86
I0
sg33
I0
sg87
I0
ssg23
(dp123
g29
I0
sg22
I0
sg31
I0
sg34
I0
sg94
I0
sg27
I0
sg79
I0
sg35
I0
sg28
I0
sg23
I0
sg81
I6
sg36
I0
sg95
I0
sg25
I0
sg32
I0
sg21
I0
sg83
I0
sg96
I0
sg30
I0
sg26
I0
sg84
I0
sg24
I0
sg86
I0
sg33
I0
sg37
I0
ssg16
(dp124
g45
I0
sg75
I0
sg46
I0
sg19
I0
sS'cola.n.02'
p125
I0
sg69
I0
sg16
I3
sg11
I0
sg8
I0
sS'measuring_cup.n.01'
p126
I0
sg18
I0
sg14
I0
sg68
I0
sg15
I0
sg10
I0
sg17
I0
sg20
I0
sg9
I0
sg12
I0
sg74
I0
sS'cup.n.01'
p127
I0
sg13
I0
sS'meal.n.03'
p128
I0
ssg11
(dp129
g45
I0
sg42
I0
sg46
I0
sg19
I0
sg43
I0
sg16
I0
sg11
I3
sg8
I0
sg39
I0
sg18
I0
sg14
I0
sg44
I0
sg15
I0
sg10
I0
sg17
I0
sg20
I0
sg9
I0
sg12
I0
sg40
I0
sg38
I0
sg41
I0
sg13
I0
ssg8
(dp130
g43
I0
sg9
I0
sg45
I0
sg42
I0
sg29
I0
sg31
I0
sg22
I0
sg34
I0
sg19
I0
sg27
I0
sg46
I0
sg35
I0
sg28
I0
sg23
I0
sg16
I0
sg11
I0
sg8
I54
sg39
I0
sg36
I0
sg18
I0
sg14
I0
sg44
I0
sg15
I0
sg25
I0
sg10
I0
sg47
I0
sg32
I0
sg21
I0
sg48
I0
sg17
I0
sg20
I0
sg30
I0
sg26
I0
sg12
I0
sg40
I0
sg38
I0
sg41
I0
sg24
I0
sg13
I0
sg33
I0
sg37
I0
ssg39
(dp131
g44
I0
sg43
I0
sg56
I0
sg63
I0
sg60
I0
sg64
I0
sg57
I0
sg40
I0
sg39
I3
sg42
I0
sg38
I0
sg41
I0
sg92
I0
sg115
I0
sg48
I0
sg47
I0
sg118
I0
sg53
I0
sg116
I0
sg117
I0
ssg36
(dp132
g98
I0
sg99
I0
sg34
I0
sg94
I0
sg100
I0
sg35
I0
sg101
I0
sg102
I0
sg103
I0
sg104
I0
sg36
I3
sg95
I0
sg105
I0
sg106
I0
sg107
I0
sg108
I0
sg109
I0
sg96
I0
sg110
I0
sg111
I0
sg112
I0
sg113
I0
sg37
I0
ssg18
(dp133
g110
I0
sg99
I0
sg34
I0
sg19
I0
sg35
I0
sg102
I0
sg16
I0
sg11
I0
sg8
I0
sg36
I0
sg18
I3
sg14
I0
sg15
I0
sg107
I0
sg10
I0
sg108
I0
sg17
I0
sg20
I0
sg9
I0
sg12
I0
sg112
I0
sg13
I0
sg37
I0
ssg14
(dp134
g45
I0
sg75
I0
sg46
I0
sg19
I0
sg125
I0
sg69
I0
sg16
I0
sg11
I0
sg8
I0
sg126
I0
sg18
I0
sg14
I0
sg68
I0
sg15
I3
sg10
I0
sg17
I0
sg20
I0
sg9
I0
sg12
I0
sg74
I0
sg127
I0
sg13
I0
sg128
I0
ssg44
(dp135
g45
I0
sg42
I0
sg46
I0
sg53
I0
sg54
I0
sg43
I0
sg55
I0
sg56
I0
sg57
I0
sg39
I0
sg58
I0
sg44
I3
sg59
I0
sg60
I0
sg61
I0
sg62
I0
sg63
I0
sg64
I0
sg40
I0
sg38
I0
sg41
I0
sg65
I0
ssg15
(dp136
g45
I0
sg75
I0
sg46
I0
sg19
I0
sg125
I0
sg69
I0
sg16
I0
sg11
I0
sg8
I0
sg126
I0
sg18
I0
sg14
I0
sg68
I0
sg15
I0
sg10
I0
sg17
I0
sg20
I0
sg9
I0
sg12
I0
sg74
I0
sg127
I0
sg13
I0
sg128
I0
ssg25
(dp137
g29
I0
sg22
I0
sg31
I0
sg34
I0
sg94
I0
sg27
I0
sg35
I0
sg28
I0
sg23
I0
sg81
I0
sg36
I0
sg95
I0
sg25
I3
sg32
I0
sg21
I0
sg96
I0
sg30
I0
sg26
I0
sg84
I0
sg24
I0
sg33
I0
sg37
I0
ssg10
(dp138
g45
I0
sg42
I0
sg46
I0
sg19
I0
sg43
I0
sg16
I0
sg11
I0
sg8
I0
sg39
I0
sg18
I0
sg14
I0
sg44
I0
sg15
I0
sg10
I3
sg17
I0
sg20
I0
sg9
I0
sg12
I0
sg40
I0
sg38
I0
sg41
I0
sg13
I0
ssg47
(dp139
S'bowl.n.01'
p140
I0
sS'batter.n.02'
p141
I0
sg115
I0
sg47
I3
sg91
I0
sS'pan.n.03'
p142
I0
sS'gap.n.03'
p143
I0
sS'saltcellar.n.01'
p144
I0
sS'fill.v.01'
p145
I0
sg89
I0
sS'salt.n.02'
p146
I0
sg116
I0
sS'opening.n.01'
p147
I0
sg48
I0
sg117
I0
sS'fill.v.09'
p148
I0
sS'water.n.06'
p149
I0
sS'ice.n.01'
p150
I0
sg90
I0
sS'ice.n.05'
p151
I0
sg92
I0
sg118
I0
ssg32
(dp152
g48
I0
sg27
I0
sg28
I0
sg23
I0
sg25
I0
sg26
I0
sg84
I0
sg81
I0
sg89
I0
sg90
I0
sg91
I0
sg29
I0
sg31
I0
sg24
I0
sg22
I0
sg92
I0
sg47
I0
sg33
I0
sg32
I3
sg30
I0
sg21
I0
ssg21
(dp153
g29
I0
sg22
I3
sg31
I0
sg34
I0
sg94
I0
sg27
I0
sg79
I0
sg35
I0
sg28
I3
sg23
I0
sg81
I0
sg36
I0
sg95
I0
sg25
I0
sg32
I0
sg21
I0
sg83
I0
sg96
I0
sg30
I0
sg26
I0
sg84
I0
sg24
I0
sg86
I0
sg33
I0
sg37
I0
ssg48
(dp154
g140
I0
sg141
I0
sg115
I0
sg47
I0
sg91
I0
sg142
I0
sg143
I0
sg144
I0
sg145
I0
sg89
I0
sg146
I0
sg116
I0
sg147
I0
sg48
I3
sg117
I0
sg148
I0
sg149
I0
sg150
I0
sg90
I0
sg151
I0
sg92
I0
sg118
I0
ssg17
(dp155
g45
I0
sg75
I0
sg46
I0
sg19
I0
sg125
I0
sg69
I0
sg16
I0
sg11
I0
sg8
I0
sg126
I0
sg18
I0
sg14
I0
sg68
I0
sg15
I0
sg10
I0
sg17
I3
sg20
I0
sg9
I0
sg12
I0
sg74
I0
sg127
I0
sg13
I0
sg128
I0
ssg20
(dp156
g110
I0
sg99
I0
sg34
I0
sg19
I0
sg35
I0
sg102
I0
sg16
I0
sg11
I0
sg8
I0
sg36
I0
sg18
I0
sg14
I0
sg15
I0
sg107
I0
sg10
I0
sg108
I0
sg17
I0
sg20
I3
sg9
I0
sg12
I0
sg112
I0
sg13
I0
sg37
I0
ssg30
(dp157
g48
I0
sg27
I0
sg26
I0
sg28
I0
sg23
I0
sg25
I0
sg30
I3
sg84
I0
sg81
I0
sg89
I0
sg90
I0
sg91
I0
sg29
I0
sg31
I0
sg24
I0
sg22
I0
sg92
I0
sg47
I0
sg33
I0
sg32
I0
sg21
I0
ssg26
(dp158
g29
I0
sg22
I0
sg31
I0
sg34
I0
sg94
I0
sg27
I0
sg35
I0
sg28
I0
sg23
I0
sg81
I0
sg36
I0
sg95
I0
sg25
I0
sg32
I0
sg21
I0
sg96
I0
sg30
I0
sg26
I3
sg84
I0
sg24
I0
sg33
I0
sg37
I0
ssg12
(dp159
g43
I0
sg9
I0
sg45
I0
sg42
I0
sg29
I0
sg31
I0
sg22
I0
sg34
I0
sg19
I0
sg27
I0
sg46
I0
sg35
I0
sg28
I0
sg23
I0
sg16
I0
sg11
I0
sg8
I0
sg39
I0
sg36
I0
sg18
I0
sg14
I0
sg44
I0
sg15
I0
sg25
I0
sg10
I0
sg47
I0
sg32
I0
sg21
I0
sg48
I0
sg17
I0
sg20
I0
sg30
I0
sg26
I0
sg12
I12
sg40
I0
sg38
I0
sg41
I0
sg24
I0
sg13
I0
sg33
I0
sg37
I0
ssg40
(dp160
g45
I1
sg42
I0
sg46
I0
sg53
I0
sg54
I0
sg43
I0
sg55
I0
sg56
I0
sg57
I0
sg39
I0
sg58
I0
sg44
I0
sg59
I0
sg60
I0
sg61
I0
sg62
I0
sg63
I0
sg64
I0
sg40
I0
sg38
I0
sg41
I2
sg65
I0
ssg38
(dp161
g44
I0
sg43
I0
sg56
I0
sg63
I0
sg60
I0
sg64
I0
sg57
I0
sg40
I0
sg39
I0
sg42
I0
sg38
I3
sg41
I0
sg92
I0
sg115
I0
sg48
I0
sg47
I0
sg118
I0
sg53
I0
sg116
I0
sg117
I0
ssg41
(dp162
g44
I0
sg43
I0
sg56
I0
sg63
I0
sg60
I0
sg64
I0
sg57
I0
sg40
I0
sg39
I0
sg42
I0
sg38
I0
sg41
I0
sS'jar.n.01'
p163
I0
sg54
I0
sg53
I0
sg61
I0
ssg24
(dp164
g29
I0
sg22
I0
sg31
I0
sg34
I0
sg94
I0
sg27
I0
sg35
I0
sg28
I0
sg23
I0
sg81
I0
sg36
I0
sg95
I0
sg25
I0
sg32
I0
sg21
I0
sg96
I0
sg30
I0
sg26
I0
sg84
I0
sg24
I3
sg33
I0
sg37
I0
ssg13
(dp165
g45
I0
sg75
I0
sg141
I0
sg115
I0
sg46
I0
sg19
I0
sg142
I0
sg47
I0
sg125
I0
sg143
I0
sg69
I0
sg16
I0
sg11
I0
sg8
I0
sg89
I0
sg126
I0
sg18
I0
sg14
I0
sg68
I0
sg15
I0
sg10
I0
sg148
I0
sg116
I0
sg147
I0
sg48
I0
sg17
I0
sg20
I0
sg117
I0
sg9
I0
sg12
I0
sg74
I0
sg127
I0
sg90
I0
sg151
I0
sg13
I6
sg118
I0
sg128
I0
ssg33
(dp166
g48
I0
sg27
I0
sg28
I0
sg23
I0
sg25
I0
sg26
I0
sg84
I0
sg81
I0
sg89
I0
sg90
I0
sg91
I0
sg29
I0
sg31
I0
sg24
I0
sg22
I0
sg92
I0
sg47
I0
sg33
I3
sg30
I0
sg32
I0
sg21
I0
ssg37
(dp167
g98
I0
sg99
I0
sg34
I0
sg94
I0
sg100
I0
sg35
I0
sg101
I0
sg102
I0
sg103
I0
sg104
I0
sg36
I0
sg95
I0
sg105
I0
sg106
I0
sg107
I0
sg108
I0
sg109
I0
sg96
I0
sg110
I0
sg111
I0
sg112
I0
sg113
I0
sg37
I3
sssb.