ccopy_reg
_reconstructor
p0
(cutils.eval
ConfusionMatrix
p1
c__builtin__
object
p2
Ntp3
Rp4
(dp5
S'labels'
p6
(lp7
S'fill.v.01'
p8
aS'thermos.n.01'
p9
aS'coffee.n.01'
p10
aS'pot.n.01'
p11
aS'water.n.06'
p12
aS'jar.n.01'
p13
aS'gravy.n.01'
p14
aS'gravy.n.02'
p15
aS'bottle.n.01'
p16
aS'fruit_juice.n.01'
p17
aS'glass.n.02'
p18
aS'milk.n.01'
p19
aS'teapot.n.01'
p20
asS'instanceCount'
p21
I18
sS'matrix'
p22
(dp23
g14
(dp24
g15
I1
ssg17
(dp25
S'fruit_juice.n.01'
p26
I1
ssg15
(dp27
g15
I0
ssg20
(dp28
S'teapot.n.01'
p29
I1
ssg16
(dp30
S'bottle.n.01'
p31
I1
ssg10
(dp32
S'coffee.n.01'
p33
I1
ssg9
(dp34
S'thermos.n.01'
p35
I1
ssg11
(dp36
S'pot.n.01'
p37
I1
ssg12
(dp38
S'water.n.06'
p39
I2
ssg8
(dp40
S'fill.v.01'
p41
I6
ssg13
(dp42
S'jar.n.01'
p43
I1
ssg19
(dp44
S'milk.n.01'
p45
I1
ssg18
(dp46
S'glass.n.02'
p47
I1
sssb.