ccopy_reg
_reconstructor
p0
(cutils.eval
ConfusionMatrix
p1
c__builtin__
object
p2
Ntp3
Rp4
(dp5
S'labels'
p6
(lp7
S'add.v.01'
p8
aS'ingredient.n.03'
p9
aS'concoction.n.01'
p10
aS'cream.n.02'
p11
aS'cream.n.03'
p12
aS'asparagus.n.02'
p13
aS'salad.n.01'
p14
asS'instanceCount'
p15
I7
sS'matrix'
p16
(dp17
g14
(dp18
S'salad.n.01'
p19
I1
ssg11
(dp20
g12
I1
ssg9
(dp21
S'ingredient.n.03'
p22
I1
ssg12
(dp23
g12
I0
ssg13
(dp24
S'asparagus.n.02'
p25
I1
ssg10
(dp26
S'concoction.n.01'
p27
I1
ssg8
(dp28
S'add.v.01'
p29
I2
sssb.