ccopy_reg
_reconstructor
p0
(cutils.eval
ConfusionMatrix
p1
c__builtin__
object
p2
Ntp3
Rp4
(dp5
S'labels'
p6
(lp7
S'sauce.n.01'
p8
aS'add.v.01'
p9
aS'cream.n.02'
p10
aS'cream.n.03'
p11
aS'french_fries.n.01'
p12
aS'steak.n.01'
p13
asS'instanceCount'
p14
I6
sS'matrix'
p15
(dp16
g10
(dp17
g11
I1
ssg11
(dp18
g11
I0
ssg13
(dp19
S'steak.n.01'
p20
I1
ssg12
(dp21
S'french_fries.n.01'
p22
I1
ssg9
(dp23
S'add.v.01'
p24
I2
ssg8
(dp25
S'sauce.n.01'
p26
I1
sssb.