ccopy_reg
_reconstructor
p0
(cutils.eval
ConfusionMatrix
p1
c__builtin__
object
p2
Ntp3
Rp4
(dp5
S'labels'
p6
(lp7
S'add.v.01'
p8
aS'salt.n.02'
p9
aS'meat.n.01'
p10
aS'mixing_bowl.n.01'
p11
aS'butter.n.01'
p12
aS'sugar.n.01'
p13
asS'instanceCount'
p14
I7
sS'matrix'
p15
(dp16
g9
(dp17
S'salt.n.02'
p18
I1
ssg12
(dp19
S'butter.n.01'
p20
I1
ssg11
(dp21
S'mixing_bowl.n.01'
p22
I1
ssg10
(dp23
S'meat.n.01'
p24
I1
ssg8
(dp25
S'add.v.01'
p26
I2
ssg13
(dp27
S'sugar.n.01'
p28
I1
sssb.