ccopy_reg
_reconstructor
p0
(cutils.eval
ConfusionMatrix
p1
c__builtin__
object
p2
Ntp3
Rp4
(dp5
S'labels'
p6
(lp7
S'add.v.01'
p8
aS'milk.n.01'
p9
aS'milk.n.04'
p10
aS'water.n.06'
p11
aS'corn.n.03'
p12
aS'dish.n.02'
p13
aS'dish.n.01'
p14
asS'instanceCount'
p15
I6
sS'matrix'
p16
(dp17
g12
(dp18
S'corn.n.03'
p19
I1
ssg11
(dp20
S'water.n.06'
p21
I1
ssg13
(dp22
g14
I1
ssg14
(dp23
g14
I0
ssg10
(dp24
g10
I0
ssg8
(dp25
S'add.v.01'
p26
I2
ssg9
(dp27
g10
I1
sssb.