ccopy_reg
_reconstructor
p0
(cutils.eval
ConfusionMatrix
p1
c__builtin__
object
p2
Ntp3
Rp4
(dp5
S'labels'
p6
(lp7
S'add.v.01'
p8
aS'ingredient.n.03'
p9
aS'dressing.n.01'
p10
aS'stuffing.n.01'
p11
aS'salad.n.01'
p12
aS'onion.n.03'
p13
aS'vegetable.n.01'
p14
aS'salt.n.02'
p15
aS'meat.n.01'
p16
aS'mixing_bowl.n.01'
p17
aS'butter.n.01'
p18
aS'sugar.n.01'
p19
aS'pot.n.01'
p20
aS'pot.n.09'
p21
aS'bean.n.01'
p22
aS'rib.n.03'
p23
aS'milk.n.01'
p24
aS'milk.n.04'
p25
aS'water.n.06'
p26
aS'corn.n.03'
p27
aS'dish.n.02'
p28
aS'dish.n.01'
p29
aS'sauce.n.01'
p30
aS'cream.n.02'
p31
aS'cream.n.03'
p32
aS'french_fries.n.01'
p33
aS'steak.n.01'
p34
aS'concoction.n.01'
p35
aS'asparagus.n.02'
p36
aS'egg.n.02'
p37
aS'pan.n.03'
p38
aS'apple.n.01'
p39
aS'vanilla.n.02'
p40
aS'flour.n.01'
p41
asS'instanceCount'
p42
I58
sS'matrix'
p43
(dp44
g27
(dp45
g27
I1
sg26
I0
sg28
I0
sg29
I0
sg25
I0
sS'add.v.01'
p46
I0
sg24
I0
ssg17
(dp47
g15
I0
sS'pan.n.03'
p48
I0
sg41
I0
sS'egg.n.02'
p49
I0
sg18
I0
sg17
I2
sg16
I0
sS'vanilla.n.02'
p50
I0
sS'add.v.01'
p51
I0
sg19
I0
ssg28
(dp52
g27
I0
sg26
I0
sg28
I0
sg29
I1
sg25
I0
sg46
I0
sg24
I0
ssg29
(dp53
g27
I0
sg26
I0
sg28
I0
sg29
I0
sg25
I0
sg46
I0
sg24
I0
ssg25
(dp54
g27
I0
sg26
I0
sg28
I0
sg29
I0
sg25
I0
sg46
I0
sg24
I0
ssg39
(dp55
g39
I1
sS'pan.n.03'
p56
I0
sS'add.v.01'
p57
I0
sg40
I0
ssg8
(dp58
g27
I0
sg17
I0
sg28
I0
sg29
I0
sg25
I0
sg39
I0
sg8
I20
sg24
I0
sg38
I0
sg21
I0
sg41
I0
sg37
I0
sg18
I0
sg20
I0
sg36
I0
sg16
I0
sg40
I0
sg22
I0
sg35
I0
sg30
I0
sg15
I0
sg23
I0
sg31
I0
sg9
I0
sg32
I0
sg34
I0
sg11
I0
sg14
I0
sg26
I0
sg10
I0
sg33
I0
sg12
I0
sg13
I0
sg19
I0
ssg24
(dp59
g27
I0
sg26
I0
sg28
I0
sg29
I0
sg25
I1
sg46
I0
sg24
I0
ssg38
(dp60
g38
I3
sg41
I0
sg37
I0
sS'butter.n.01'
p61
I0
sS'mixing_bowl.n.01'
p62
I0
sg40
I0
sg39
I0
sS'add.v.01'
p63
I0
ssg21
(dp64
g22
I0
sg20
I0
sS'add.v.01'
p65
I0
sg23
I0
sg21
I0
ssg41
(dp66
g48
I0
sg41
I1
sg49
I0
sS'butter.n.01'
p67
I0
sg62
I0
sg50
I0
sS'add.v.01'
p68
I0
ssg37
(dp69
g38
I0
sg41
I0
sg37
I2
sg61
I0
sg62
I0
sg50
I0
sg63
I0
ssg18
(dp70
g15
I0
sg38
I0
sg41
I0
sg37
I0
sg18
I3
sg17
I0
sg16
I0
sg50
I0
sg51
I0
sg19
I0
ssg20
(dp71
g22
I0
sg21
I1
sg65
I0
sg23
I0
sg20
I0
ssg36
(dp72
S'salad.n.01'
p73
I0
sS'cream.n.02'
p74
I0
sS'cream.n.03'
p75
I0
sS'ingredient.n.03'
p76
I0
sg36
I1
sg35
I0
sS'add.v.01'
p77
I0
ssg16
(dp78
g15
I0
sg18
I0
sg17
I0
sg16
I1
sg51
I0
sg19
I0
ssg40
(dp79
g56
I0
sg41
I0
sg49
I0
sg67
I0
sg62
I0
sg40
I2
sg39
I0
sg57
I0
ssg22
(dp80
g22
I1
sg21
I0
sg65
I0
sg23
I0
sg20
I0
ssg35
(dp81
g73
I0
sg74
I0
sg76
I0
sg75
I0
sg36
I0
sg35
I1
sg77
I0
ssg30
(dp82
g31
I0
sg32
I0
sg34
I0
sg33
I0
sS'add.v.01'
p83
I0
sg30
I1
ssg15
(dp84
g15
I1
sg18
I0
sg17
I0
sg16
I0
sg51
I0
sg19
I0
ssg23
(dp85
g23
I1
sg21
I0
sg65
I0
sg22
I0
sg20
I0
ssg31
(dp86
g73
I0
sg31
I0
sg32
I2
sg76
I0
sg36
I0
sg34
I0
sg33
I0
sg35
I0
sg83
I0
sg30
I0
ssg9
(dp87
g8
I0
sg74
I0
sg9
I2
sg10
I0
sg36
I0
sg75
I0
sg11
I0
sg35
I0
sg12
I0
ssg32
(dp88
g73
I0
sg31
I0
sg32
I0
sg76
I0
sg36
I0
sg34
I0
sg33
I0
sg35
I0
sg83
I0
sg30
I0
ssg34
(dp89
g31
I0
sg32
I0
sg34
I1
sg33
I0
sg83
I0
sg30
I0
ssg11
(dp90
g11
I0
sg12
I0
sg8
I0
sg9
I0
sg10
I0
ssg14
(dp91
g14
I1
sS'add.v.01'
p92
I0
sg13
I0
ssg26
(dp93
g27
I0
sg26
I1
sg28
I0
sg29
I0
sg25
I0
sg46
I0
sg24
I0
ssg10
(dp94
g11
I1
sg12
I0
sg8
I0
sg9
I0
sg10
I0
ssg33
(dp95
g31
I0
sg32
I0
sg34
I0
sg33
I1
sg83
I0
sg30
I0
ssg12
(dp96
g12
I2
sg74
I0
sg9
I0
sg10
I0
sg36
I0
sg75
I0
sg11
I0
sg35
I0
sg8
I0
ssg13
(dp97
g14
I0
sg92
I0
sg13
I1
ssg19
(dp98
g15
I0
sg18
I0
sg17
I0
sg16
I0
sg51
I0
sg19
I1
sssb.