ccopy_reg
_reconstructor
p0
(cutils.eval
ConfusionMatrix
p1
c__builtin__
object
p2
Ntp3
Rp4
(dp5
S'labels'
p6
(lp7
S'pan.n.03'
p8
aS'add.v.01'
p9
aS'butter.n.01'
p10
aS'egg.n.02'
p11
aS'mixing_bowl.n.01'
p12
aS'sugar.n.01'
p13
aS'vanilla.n.02'
p14
asS'instanceCount'
p15
I26
sS'matrix'
p16
(dp17
g8
(dp18
S'pan.n.03'
p19
I5
ssg11
(dp20
S'egg.n.02'
p21
I2
ssg10
(dp22
S'butter.n.01'
p23
I6
ssg12
(dp24
S'mixing_bowl.n.01'
p25
I1
ssg14
(dp26
S'vanilla.n.02'
p27
I3
ssg9
(dp28
S'add.v.01'
p29
I8
ssg13
(dp30
S'sugar.n.01'
p31
I1
sssb.