ccopy_reg
_reconstructor
p0
(cutils.eval
ConfusionMatrix
p1
c__builtin__
object
p2
Ntp3
Rp4
(dp5
S'labels'
p6
(lp7
S'slice.v.03'
p8
aS'slice.v.02'
p9
aS'onion.n.01'
p10
aS'pepper.n.04'
p11
aS'fill.v.01'
p12
aS'pan.n.01'
p13
aS'water.n.06'
p14
asS'instanceCount'
p15
I6
sS'matrix'
p16
(dp17
g9
(dp18
g9
I0
ssg8
(dp19
g9
I1
ssg11
(dp20
S'pepper.n.04'
p21
I1
ssg14
(dp22
S'water.n.06'
p23
I1
ssg12
(dp24
S'fill.v.01'
p25
I1
ssg13
(dp26
S'pan.n.01'
p27
I1
ssg10
(dp28
S'onion.n.01'
p29
I1
sssb.