ccopy_reg
_reconstructor
p0
(cutils.eval
ConfusionMatrix
p1
c__builtin__
object
p2
Ntp3
Rp4
(dp5
S'labels'
p6
(lp7
S'cut.v.01'
p8
aS'swerve.v.01'
p9
aS'bacon.n.01'
p10
aS'bacon.n.03'
p11
aS'flesh.n.01'
p12
aS'slice.v.03'
p13
aS'slice.v.02'
p14
asS'instanceCount'
p15
I4
sS'matrix'
p16
(dp17
g14
(dp18
g14
I0
ssg13
(dp19
g14
I1
ssg8
(dp20
g9
I1
ssg9
(dp21
g9
I0
ssg12
(dp22
S'flesh.n.01'
p23
I1
ssg11
(dp24
g11
I0
ssg10
(dp25
g11
I1
sssb.