ccopy_reg
_reconstructor
p0
(cutils.eval
ConfusionMatrix
p1
c__builtin__
object
p2
Ntp3
Rp4
(dp5
S'labels'
p6
(lp7
S'slice.v.03'
p8
aS'egg.n.02'
p9
aS'piece.n.08'
p10
aS'knife.n.01'
p11
aS'banana.n.02'
p12
aS'banana.n.01'
p13
asS'instanceCount'
p14
I6
sS'matrix'
p15
(dp16
g8
(dp17
S'slice.v.03'
p18
I2
ssg11
(dp19
S'knife.n.01'
p20
I1
ssg13
(dp21
g13
I0
ssg12
(dp22
g13
I1
ssg9
(dp23
S'egg.n.02'
p24
I1
ssg10
(dp25
S'piece.n.08'
p26
I1
sssb.