ccopy_reg
_reconstructor
p0
(cutils.eval
ConfusionMatrix
p1
c__builtin__
object
p2
Ntp3
Rp4
(dp5
S'labels'
p6
(lp7
S'meat.n.01'
p8
aS'kernel.n.03'
p9
aS'slice.v.03'
p10
aS'slice.v.02'
p11
aS'cleaver.n.01'
p12
aS'helicopter.n.01'
p13
aS'lemon.n.01'
p14
asS'instanceCount'
p15
I5
sS'matrix'
p16
(dp17
g11
(dp18
g11
I0
ssg10
(dp19
g11
I1
sS'slice.v.03'
p20
I1
ssg9
(dp21
g9
I0
ssg13
(dp22
g13
I0
ssg8
(dp23
g9
I1
ssg14
(dp24
S'lemon.n.01'
p25
I1
ssg12
(dp26
g13
I1
sssb.