ccopy_reg
_reconstructor
p0
(cutils.eval
ConfusionMatrix
p1
c__builtin__
object
p2
Ntp3
Rp4
(dp5
S'labels'
p6
(lp7
S'slice.v.03'
p8
aS'mushroom.n.05'
p9
aS'tomato.n.01'
p10
aS'tomato.n.02'
p11
aS'knife.n.01'
p12
asS'instanceCount'
p13
I5
sS'matrix'
p14
(dp15
g9
(dp16
S'mushroom.n.05'
p17
I1
ssg8
(dp18
S'slice.v.03'
p19
I2
ssg10
(dp20
g11
I1
ssg12
(dp21
S'knife.n.01'
p22
I1
ssg11
(dp23
g11
I0
sssb.