ccopy_reg
_reconstructor
p0
(cutils.eval
ConfusionMatrix
p1
c__builtin__
object
p2
Ntp3
Rp4
(dp5
S'labels'
p6
(lp7
S'pot.n.01'
p8
aS'fill.v.01'
p9
aS'water.n.06'
p10
aS'saltcellar.n.01'
p11
aS'salt.n.02'
p12
aS'measuring_cup.n.01'
p13
aS'meal.n.03'
p14
aS'pan.n.03'
p15
aS'blender.n.01'
p16
aS'apple.n.01'
p17
aS'wok.n.01'
p18
aS'rice.n.01'
p19
aS'ice.n.01'
p20
aS'ice.n.05'
p21
aS'bowl.n.01'
p22
aS'cup.n.01'
p23
aS'cola.n.02'
p24
aS'thermos.n.01'
p25
aS'coffee.n.01'
p26
aS'glass.n.02'
p27
aS'milk.n.01'
p28
asS'instanceCount'
p29
I30
sS'matrix'
p30
(dp31
g12
(dp32
S'salt.n.02'
p33
I1
ssg15
(dp34
S'pan.n.03'
p35
I1
ssg19
(dp36
S'rice.n.01'
p37
I1
ssg24
(dp38
S'cola.n.02'
p39
I1
ssg11
(dp40
S'saltcellar.n.01'
p41
I1
ssg18
(dp42
S'wok.n.01'
p43
I1
ssg26
(dp44
S'coffee.n.01'
p45
I1
ssg16
(dp46
S'blender.n.01'
p47
I1
ssg8
(dp48
S'pot.n.01'
p49
I1
ssg10
(dp50
S'water.n.06'
p51
I2
ssg9
(dp52
S'fill.v.01'
p53
I10
ssg20
(dp54
g21
I1
ssg22
(dp55
S'bowl.n.01'
p56
I1
ssg25
(dp57
S'thermos.n.01'
p58
I1
ssg21
(dp59
g21
I0
ssg17
(dp60
S'apple.n.01'
p61
I1
ssg13
(dp62
S'measuring_cup.n.01'
p63
I1
ssg23
(dp64
S'cup.n.01'
p65
I1
ssg28
(dp66
S'milk.n.01'
p67
I1
ssg27
(dp68
S'glass.n.02'
p69
I1
ssg14
(dp70
S'meal.n.03'
p71
I1
sssb.