ccopy_reg
_reconstructor
p0
(cutils.eval
ConfusionMatrix
p1
c__builtin__
object
p2
Ntp3
Rp4
(dp5
S'labels'
p6
(lp7
S'fill.v.01'
p8
aS'blender.n.01'
p9
aS'apple.n.01'
p10
aS'wok.n.01'
p11
aS'rice.n.01'
p12
aS'ice.n.01'
p13
aS'ice.n.05'
p14
aS'bowl.n.01'
p15
aS'cup.n.01'
p16
aS'cola.n.02'
p17
aS'thermos.n.01'
p18
aS'coffee.n.01'
p19
aS'glass.n.02'
p20
aS'milk.n.01'
p21
aS'jar.n.01'
p22
aS'whiskey.n.01'
p23
aS'carafe.n.01'
p24
aS'foam.n.01'
p25
aS'mug.n.04'
p26
aS'bottle.n.01'
p27
aS'fruit_juice.n.01'
p28
aS'juice.n.01'
p29
asS'instanceCount'
p30
I29
sS'matrix'
p31
(dp32
g12
(dp33
S'rice.n.01'
p34
I1
ssg15
(dp35
S'bowl.n.01'
p36
I1
ssg10
(dp37
S'apple.n.01'
p38
I1
ssg25
(dp39
S'foam.n.01'
p40
I1
ssg21
(dp41
S'milk.n.01'
p42
I1
ssg17
(dp43
S'cola.n.02'
p44
I1
ssg27
(dp45
S'bottle.n.01'
p46
I1
ssg8
(dp47
S'fill.v.01'
p48
I10
ssg20
(dp49
S'glass.n.02'
p50
I1
ssg11
(dp51
S'wok.n.01'
p52
I1
ssg19
(dp53
S'coffee.n.01'
p54
I1
ssg23
(dp55
S'whiskey.n.01'
p56
I1
ssg26
(dp57
S'mug.n.04'
p58
I1
ssg28
(dp59
g29
I1
ssg9
(dp60
S'blender.n.01'
p61
I1
ssg18
(dp62
S'thermos.n.01'
p63
I1
ssg16
(dp64
S'cup.n.01'
p65
I1
ssg13
(dp66
g14
I1
ssg14
(dp67
g14
I0
ssg22
(dp68
S'jar.n.01'
p69
I1
ssg24
(dp70
S'carafe.n.01'
p71
I1
ssg29
(dp72
g29
I0
sssb.