ccopy_reg
_reconstructor
p0
(cutils.eval
ConfusionMatrix
p1
c__builtin__
object
p2
Ntp3
Rp4
(dp5
S'labels'
p6
(lp7
S'jar.n.01'
p8
aS'fill.v.01'
p9
aS'gravy.n.01'
p10
aS'gravy.n.02'
p11
aS'opening.n.01'
p12
aS'gap.n.03'
p13
aS'fill.v.09'
p14
aS'batter.n.02'
p15
aS'teapot.n.01'
p16
aS'water.n.06'
p17
aS'opening.n.10'
p18
aS'curd.n.01'
p19
aS'pot.n.01'
p20
aS'saltcellar.n.01'
p21
aS'salt.n.02'
p22
aS'measuring_cup.n.01'
p23
aS'meal.n.03'
p24
aS'pan.n.03'
p25
aS'blender.n.01'
p26
aS'apple.n.01'
p27
aS'wok.n.01'
p28
aS'rice.n.01'
p29
asS'instanceCount'
p30
I30
sS'matrix'
p31
(dp32
g29
(dp33
S'rice.n.01'
p34
I1
ssg15
(dp35
S'batter.n.02'
p36
I1
ssg18
(dp37
g18
I0
ssg27
(dp38
S'apple.n.01'
p39
I1
ssg25
(dp40
S'pan.n.03'
p41
I1
ssg13
(dp42
g13
I0
ssg14
(dp43
S'fill.v.01'
p44
I2
ssg20
(dp45
S'pot.n.01'
p46
I1
ssg9
(dp47
S'fill.v.01'
p48
I8
ssg23
(dp49
S'measuring_cup.n.01'
p50
I1
ssg10
(dp51
g11
I1
ssg22
(dp52
S'salt.n.02'
p53
I1
ssg11
(dp54
g11
I0
ssg28
(dp55
S'wok.n.01'
p56
I1
ssg12
(dp57
g18
I1
sg13
I1
ssg16
(dp58
S'teapot.n.01'
p59
I1
ssg26
(dp60
S'blender.n.01'
p61
I1
ssg21
(dp62
S'saltcellar.n.01'
p63
I1
ssg17
(dp64
S'water.n.06'
p65
I3
ssg19
(dp66
S'curd.n.01'
p67
I1
ssg8
(dp68
S'jar.n.01'
p69
I1
ssg24
(dp70
S'meal.n.03'
p71
I1
sssb.