ccopy_reg
_reconstructor
p0
(cutils.eval
ConfusionMatrix
p1
c__builtin__
object
p2
Ntp3
Rp4
(dp5
S'labels'
p6
(lp7
S'put.v.01'
p8
aS'invest.v.01'
p9
aS'cake.n.03'
p10
aS'patty.n.01'
p11
aS'whipped_cream.n.01'
p12
aS'onion.n.01'
p13
aS'onion.n.03'
p14
aS'beef.n.02'
p15
aS'plate.n.04'
p16
aS'plate.n.11'
p17
aS'pan.n.03'
p18
aS'chicken.n.01'
p19
aS'wimp.n.01'
p20
asS'instanceCount'
p21
I10
sS'matrix'
p22
(dp23
g9
(dp24
g9
I0
ssg17
(dp25
g17
I0
ssg19
(dp26
g20
I1
ssg15
(dp27
S'beef.n.02'
p28
I1
ssg16
(dp29
g17
I1
ssg18
(dp30
S'pan.n.03'
p31
I1
ssg8
(dp32
g9
I3
ssg11
(dp33
g11
I0
ssg12
(dp34
S'whipped_cream.n.01'
p35
I1
ssg10
(dp36
g11
I1
ssg20
(dp37
g20
I0
ssg13
(dp38
g14
I1
ssg14
(dp39
g14
I0
sssb.