ccopy_reg
_reconstructor
p0
(cutils.eval
ConfusionMatrix
p1
c__builtin__
object
p2
Ntp3
Rp4
(dp5
S'labels'
p6
(lp7
S'put.v.01'
p8
aS'pepper.n.03'
p9
aS'pepper.n.04'
p10
aS'salt.n.02'
p11
aS'egg.n.02'
p12
aS'egg.n.01'
p13
aS'cake.n.03'
p14
aS'whipped_cream.n.01'
p15
aS'onion.n.01'
p16
aS'onion.n.03'
p17
aS'beef.n.02'
p18
aS'plate.n.04'
p19
aS'plate.n.13'
p20
asS'instanceCount'
p21
I11
sS'matrix'
p22
(dp23
g20
(dp24
g20
I0
ssg11
(dp25
S'salt.n.02'
p26
I1
ssg18
(dp27
S'beef.n.02'
p28
I1
ssg19
(dp29
g20
I1
ssg10
(dp30
g10
I0
ssg13
(dp31
g13
I0
ssg9
(dp32
g10
I1
ssg15
(dp33
S'whipped_cream.n.01'
p34
I1
ssg14
(dp35
S'cake.n.03'
p36
I1
ssg8
(dp37
S'put.v.01'
p38
I3
ssg12
(dp39
g13
I1
ssg16
(dp40
g17
I1
ssg17
(dp41
g17
I0
sssb.