ccopy_reg
_reconstructor
p0
(cutils.eval
ConfusionMatrix
p1
c__builtin__
object
p2
Ntp3
Rp4
(dp5
S'labels'
p6
(lp7
S'put.v.01'
p8
aS'pepper.n.03'
p9
aS'pepper.n.04'
p10
aS'salt.n.02'
p11
aS'egg.n.02'
p12
aS'egg.n.01'
p13
aS'cake.n.03'
p14
aS'whipped_cream.n.01'
p15
aS'onion.n.01'
p16
aS'onion.n.03'
p17
aS'beef.n.02'
p18
aS'plate.n.04'
p19
aS'plate.n.13'
p20
aS'invest.v.01'
p21
aS'patty.n.01'
p22
aS'plate.n.11'
p23
aS'pan.n.03'
p24
aS'chicken.n.01'
p25
aS'wimp.n.01'
p26
aS'plate.n.08'
p27
aS'pizza.n.01'
p28
aS'capsicum.n.01'
p29
aS'salt.n.01'
p30
aS'cake.n.01'
p31
asS'instanceCount'
p32
I51
sS'matrix'
p33
(dp34
g20
(dp35
g20
I0
sg11
I0
sg18
I0
sg19
I0
sg10
I0
sg13
I0
sg9
I0
sg15
I0
sg14
I0
sg8
I0
sg12
I0
sg16
I0
sg17
I0
ssg21
(dp36
g21
I0
sg23
I0
sg25
I0
sS'beef.n.02'
p37
I0
sS'plate.n.04'
p38
I0
sg24
I0
sS'put.v.01'
p39
I0
sg22
I0
sS'whipped_cream.n.01'
p40
I0
sS'cake.n.03'
p41
I0
sg26
I0
sS'onion.n.01'
p42
I0
sS'onion.n.03'
p43
I0
ssg23
(dp44
g21
I0
sg23
I0
sg25
I0
sg37
I0
sg38
I0
sg24
I0
sg39
I0
sg22
I0
sg40
I0
sg41
I0
sg26
I0
sg42
I0
sg43
I0
ssg25
(dp45
g21
I0
sg23
I0
sg25
I2
sg37
I0
sg38
I0
sS'egg.n.02'
p46
I0
sS'egg.n.01'
p47
I0
sg24
I0
sg39
I0
sg22
I0
sg29
I0
sg40
I0
sg41
I0
sS'pepper.n.03'
p48
I0
sg26
I1
sg27
I0
sg30
I0
sg28
I0
sg42
I0
sg43
I0
sS'salt.n.02'
p49
I0
ssg18
(dp50
g20
I0
sg11
I0
sg23
I0
sg25
I0
sg18
I3
sg19
I0
sg10
I0
sg13
I0
sg26
I0
sg24
I0
sg9
I0
sg22
I0
sg21
I0
sg15
I0
sg14
I0
sg8
I0
sg12
I0
sg27
I0
sg28
I0
sg16
I0
sg17
I0
ssg26
(dp51
g21
I0
sg23
I0
sg25
I0
sg37
I0
sg38
I0
sg24
I0
sg39
I0
sg22
I0
sg40
I0
sg41
I0
sg26
I0
sg42
I0
sg43
I0
ssg24
(dp52
g21
I0
sg23
I0
sg25
I0
sg37
I0
sg26
I0
sg24
I6
sg46
I0
sg47
I0
sg22
I0
sg29
I0
sg49
I0
sg30
I0
sg27
I0
sg38
I0
sg48
I0
sg40
I0
sg39
I0
sg28
I0
sg41
I0
sg31
I0
sg42
I0
sg43
I0
ssg12
(dp53
g20
I0
sg11
I0
sS'pan.n.03'
p54
I0
sS'chicken.n.01'
p55
I0
sg18
I0
sg19
I0
sg12
I0
sg13
I3
sg30
I0
sg9
I0
sS'pizza.n.01'
p56
I0
sg29
I0
sg15
I0
sg14
I0
sg8
I0
sg31
I0
sg10
I0
sg16
I0
sg17
I0
ssg13
(dp57
g20
I0
sg11
I0
sg54
I0
sg55
I0
sg18
I0
sg19
I0
sg12
I0
sg13
I0
sg30
I0
sg9
I0
sg56
I0
sg29
I0
sg15
I0
sg14
I0
sg8
I0
sg31
I0
sg10
I0
sg16
I0
sg17
I0
ssg22
(dp58
g21
I0
sg23
I0
sg25
I0
sg37
I0
sg38
I0
sg24
I0
sg39
I0
sg22
I0
sg40
I0
sg41
I0
sg26
I0
sg42
I0
sg43
I0
ssg29
(dp59
g49
I0
sg54
I0
sg55
I0
sg46
I0
sg47
I0
sg30
I0
sg48
I0
sg56
I0
sg29
I0
sS'whipped_cream.n.01'
p60
I0
sS'cake.n.03'
p61
I0
sS'put.v.01'
p62
I0
sg31
I0
ssg11
(dp63
g20
I0
sg11
I1
sg54
I0
sg55
I0
sg18
I0
sg19
I0
sg12
I0
sg13
I0
sg30
I2
sg9
I0
sg56
I0
sg29
I0
sg15
I0
sg14
I0
sg8
I0
sg31
I0
sg10
I0
sg16
I0
sg17
I0
ssg30
(dp64
g49
I0
sg30
I0
sg55
I0
sg46
I0
sg47
I0
sg54
I0
sg48
I0
sg56
I0
sg29
I0
sg60
I0
sg61
I0
sg62
I0
sg31
I0
ssg27
(dp65
S'pan.n.03'
p66
I0
sg27
I0
sS'beef.n.02'
p67
I0
sS'plate.n.04'
p68
I0
sS'put.v.01'
p69
I0
sg28
I0
sS'chicken.n.01'
p70
I0
sS'onion.n.01'
p71
I0
sS'onion.n.03'
p72
I0
ssg19
(dp73
g20
I1
sg11
I0
sg23
I1
sg25
I0
sg18
I0
sg19
I0
sg10
I0
sg13
I0
sg26
I0
sg24
I0
sg9
I0
sg22
I0
sg21
I0
sg15
I0
sg14
I0
sg8
I0
sg12
I0
sg27
I1
sg28
I0
sg16
I0
sg17
I0
ssg10
(dp74
g20
I0
sg11
I0
sg18
I0
sg19
I0
sg10
I0
sg13
I0
sg9
I0
sg15
I0
sg14
I0
sg8
I0
sg12
I0
sg16
I0
sg17
I0
ssg9
(dp75
g20
I0
sg11
I0
sg54
I0
sg55
I0
sg18
I0
sg19
I0
sg10
I1
sg13
I0
sg30
I0
sg8
I0
sg56
I0
sg29
I2
sg15
I0
sg14
I0
sg9
I0
sg31
I0
sg12
I0
sg16
I0
sg17
I0
ssg15
(dp76
g20
I0
sg21
I0
sg23
I0
sg25
I0
sg18
I0
sg26
I0
sg24
I0
sg12
I0
sg13
I0
sg22
I0
sS'capsicum.n.01'
p77
I0
sg11
I0
sS'salt.n.01'
p78
I0
sg19
I0
sg10
I0
sg9
I0
sg15
I3
sg8
I0
sS'pizza.n.01'
p79
I0
sg14
I0
sg31
I0
sg16
I0
sg17
I0
ssg8
(dp80
g20
I0
sg21
I3
sg23
I0
sg25
I0
sg18
I0
sg26
I0
sg24
I0
sg12
I0
sg13
I0
sg22
I0
sg29
I0
sg11
I0
sg30
I0
sg27
I0
sg19
I0
sg10
I0
sg9
I0
sg15
I0
sg8
I12
sg28
I0
sg14
I0
sg31
I0
sg16
I0
sg17
I0
ssg28
(dp81
g49
I0
sg66
I0
sg27
I0
sg67
I0
sg68
I0
sg46
I0
sg47
I0
sg30
I0
sg69
I0
sg28
I3
sg29
I0
sg60
I0
sg61
I0
sg48
I0
sg31
I0
sg70
I0
sg71
I0
sg72
I0
ssg14
(dp82
g20
I0
sg21
I0
sg23
I0
sg25
I0
sg18
I0
sg26
I0
sg24
I0
sg12
I0
sg13
I0
sg22
I1
sg77
I0
sg11
I0
sg78
I0
sg19
I0
sg10
I0
sg9
I0
sg15
I0
sg8
I0
sg79
I0
sg14
I1
sg31
I1
sg16
I0
sg17
I0
ssg31
(dp83
S'salt.n.02'
p84
I0
sS'pan.n.03'
p85
I0
sS'egg.n.02'
p86
I0
sS'egg.n.01'
p87
I0
sg78
I0
sS'pepper.n.03'
p88
I0
sg79
I0
sg77
I0
sg60
I0
sg61
I0
sS'put.v.01'
p89
I0
sg31
I0
ssg16
(dp90
g20
I0
sg11
I0
sg23
I0
sg25
I0
sg18
I0
sg19
I0
sg10
I0
sg13
I0
sg26
I0
sg24
I0
sg9
I0
sg22
I0
sg21
I0
sg15
I0
sg14
I0
sg8
I0
sg12
I0
sg27
I0
sg28
I0
sg16
I0
sg17
I3
ssg17
(dp91
g20
I0
sg11
I0
sg23
I0
sg25
I0
sg18
I0
sg19
I0
sg10
I0
sg13
I0
sg26
I0
sg24
I0
sg9
I0
sg22
I0
sg21
I0
sg15
I0
sg14
I0
sg8
I0
sg12
I0
sg27
I0
sg28
I0
sg16
I0
sg17
I0
sssb.