ccopy_reg
_reconstructor
p0
(cutils.eval
ConfusionMatrix
p1
c__builtin__
object
p2
Ntp3
Rp4
(dp5
S'labels'
p6
(lp7
S'AC_FILL_INGREDIENT'
p8
aS'AC_FILL_INGREDIENT_ML'
p9
aS'AC_FILL_INGREDIENT_L'
p10
asS'instanceCount'
p11
I8
sS'matrix'
p12
(dp13
g8
(dp14
g8
I4
ssg9
(dp15
g9
I2
ssg10
(dp16
g10
I2
sssb.