ccopy_reg
_reconstructor
p0
(cutils.eval
ConfusionMatrix
p1
c__builtin__
object
p2
Ntp3
Rp4
(dp5
S'labels'
p6
(lp7
S'cut.v.01'
p8
aS'cut.v.33'
p9
aS'mushroom.n.05'
p10
aS'piece.n.08'
p11
aS'potato.n.01'
p12
aS'potato.n.02'
p13
asS'instanceCount'
p14
I5
sS'matrix'
p15
(dp16
g10
(dp17
S'mushroom.n.05'
p18
I1
ssg8
(dp19
S'cut.v.01'
p20
I1
sg9
I1
ssg9
(dp21
g9
I0
ssg13
(dp22
g13
I0
ssg12
(dp23
g13
I1
ssg11
(dp24
S'piece.n.08'
p25
I1
sssb.