ccopy_reg
_reconstructor
p0
(cutils.eval
ConfusionMatrix
p1
c__builtin__
object
p2
Ntp3
Rp4
(dp5
S'labels'
p6
(lp7
S'olive.n.01'
p8
aS'olive.n.03'
p9
aS'cut.v.01'
p10
aS'swerve.v.01'
p11
aS'egg.n.02'
p12
aS'piece.n.08'
p13
asS'instanceCount'
p14
I5
sS'matrix'
p15
(dp16
g9
(dp17
g9
I0
ssg8
(dp18
g9
I1
ssg10
(dp19
S'cut.v.01'
p20
I1
sg11
I1
ssg11
(dp21
g11
I0
ssg12
(dp22
S'egg.n.02'
p23
I1
ssg13
(dp24
S'piece.n.08'
p25
I1
sssb.