ccopy_reg
_reconstructor
p0
(cutils.eval
ConfusionMatrix
p1
c__builtin__
object
p2
Ntp3
Rp4
(dp5
S'labels'
p6
(lp7
S'cut.v.01'
p8
aS'swerve.v.01'
p9
aS'meat.n.01'
p10
aS'kernel.n.01'
p11
aS'cleaver.n.01'
p12
aS'bread.n.01'
p13
aS'knife.n.01'
p14
asS'instanceCount'
p15
I6
sS'matrix'
p16
(dp17
g11
(dp18
g11
I0
ssg8
(dp19
S'cut.v.01'
p20
I1
sg9
I1
ssg9
(dp21
g9
I0
ssg13
(dp22
S'bread.n.01'
p23
I1
ssg10
(dp24
g11
I1
ssg14
(dp25
S'knife.n.01'
p26
I1
ssg12
(dp27
S'cleaver.n.01'
p28
I1
sssb.