ccopy_reg
_reconstructor
p0
(cutils.eval
ConfusionMatrix
p1
c__builtin__
object
p2
Ntp3
Rp4
(dp5
S'labels'
p6
(lp7
S'fill.v.01'
p8
aS'pan.n.03'
p9
aS'water.n.06'
p10
aS'cup.n.01'
p11
aS'cola.n.02'
p12
aS'wok.n.01'
p13
aS'rice.n.01'
p14
aS'pot.n.01'
p15
aS'opening.n.01'
p16
aS'opening.n.10'
p17
aS'fill.v.09'
p18
aS'curd.n.01'
p19
aS'glass.n.02'
p20
aS'milk.n.01'
p21
aS'saltcellar.n.01'
p22
aS'salt.n.02'
p23
aS'jar.n.01'
p24
aS'gravy.n.01'
p25
aS'gravy.n.02'
p26
aS'ice.n.01'
p27
aS'ice.n.05'
p28
aS'bowl.n.01'
p29
aS'foam.n.01'
p30
aS'mug.n.04'
p31
aS'bottle.n.01'
p32
aS'fruit_juice.n.01'
p33
aS'gap.n.03'
p34
aS'batter.n.02'
p35
asS'instanceCount'
p36
I36
sS'matrix'
p37
(dp38
g14
(dp39
S'rice.n.01'
p40
I1
ssg29
(dp41
S'bowl.n.01'
p42
I1
ssg35
(dp43
S'batter.n.02'
p44
I1
ssg17
(dp45
g17
I0
ssg8
(dp46
S'fill.v.01'
p47
I10
ssg21
(dp48
S'milk.n.01'
p49
I1
ssg9
(dp50
S'pan.n.03'
p51
I1
ssg30
(dp52
S'foam.n.01'
p53
I1
ssg12
(dp54
S'cola.n.02'
p55
I1
ssg34
(dp56
g34
I0
ssg22
(dp57
S'saltcellar.n.01'
p58
I1
ssg32
(dp59
S'bottle.n.01'
p60
I1
ssg15
(dp61
S'pot.n.01'
p62
I1
ssg11
(dp63
S'cup.n.01'
p64
I1
ssg20
(dp65
S'glass.n.02'
p66
I1
ssg25
(dp67
g26
I1
ssg23
(dp68
S'salt.n.02'
p69
I1
ssg26
(dp70
g26
I0
ssg13
(dp71
S'wok.n.01'
p72
I1
ssg16
(dp73
g17
I1
sg34
I1
ssg31
(dp74
S'mug.n.04'
p75
I1
ssg33
(dp76
S'fruit_juice.n.01'
p77
I1
ssg18
(dp78
S'fill.v.01'
p79
I2
ssg10
(dp80
S'water.n.06'
p81
I2
ssg27
(dp82
g28
I1
ssg28
(dp83
g28
I0
ssg19
(dp84
S'curd.n.01'
p85
I1
ssg24
(dp86
S'jar.n.01'
p87
I1
sssb.