ccopy_reg
_reconstructor
p0
(cutils.eval
ConfusionMatrix
p1
c__builtin__
object
p2
Ntp3
Rp4
(dp5
S'labels'
p6
(lp7
S'opening.n.01'
p8
aS'opening.n.10'
p9
aS'fill.v.09'
p10
aS'fill.v.01'
p11
aS'curd.n.01'
p12
aS'glass.n.02'
p13
aS'milk.n.01'
p14
aS'saltcellar.n.01'
p15
aS'salt.n.02'
p16
aS'jar.n.01'
p17
aS'gravy.n.01'
p18
aS'gravy.n.02'
p19
aS'ice.n.01'
p20
aS'ice.n.05'
p21
aS'bowl.n.01'
p22
aS'foam.n.01'
p23
aS'mug.n.04'
p24
aS'bottle.n.01'
p25
aS'fruit_juice.n.01'
p26
aS'gap.n.03'
p27
aS'batter.n.02'
p28
aS'whiskey.n.01'
p29
aS'carafe.n.01'
p30
aS'pitcher.n.02'
p31
aS'teapot.n.01'
p32
aS'water.n.06'
p33
asS'instanceCount'
p34
I35
sS'matrix'
p35
(dp36
g22
(dp37
S'bowl.n.01'
p38
I1
ssg28
(dp39
S'batter.n.02'
p40
I1
ssg9
(dp41
g9
I0
ssg23
(dp42
S'foam.n.01'
p43
I1
ssg14
(dp44
S'milk.n.01'
p45
I2
ssg27
(dp46
g27
I0
ssg10
(dp47
g11
I2
ssg25
(dp48
S'bottle.n.01'
p49
I1
ssg11
(dp50
g11
I10
ssg31
(dp51
S'pitcher.n.02'
p52
I1
ssg13
(dp53
S'glass.n.02'
p54
I1
ssg18
(dp55
g19
I1
ssg16
(dp56
S'salt.n.02'
p57
I1
ssg19
(dp58
g19
I0
ssg29
(dp59
S'whiskey.n.01'
p60
I1
ssg8
(dp61
g9
I1
sg27
I1
ssg24
(dp62
S'mug.n.04'
p63
I1
ssg26
(dp64
S'fruit_juice.n.01'
p65
I1
ssg32
(dp66
S'teapot.n.01'
p67
I1
ssg15
(dp68
S'saltcellar.n.01'
p69
I1
ssg33
(dp70
S'water.n.06'
p71
I1
ssg20
(dp72
g21
I1
ssg21
(dp73
g21
I0
ssg12
(dp74
S'curd.n.01'
p75
I1
ssg17
(dp76
S'jar.n.01'
p77
I2
ssg30
(dp78
S'carafe.n.01'
p79
I1
sssb.