ccopy_reg
_reconstructor
p0
(cutils.eval
ConfusionMatrix
p1
c__builtin__
object
p2
Ntp3
Rp4
(dp5
S'labels'
p6
(lp7
S'jar.n.01'
p8
aS'fill.v.01'
p9
aS'teapot.n.01'
p10
aS'water.n.06'
p11
aS'kettle.n.01'
p12
aS'blender.n.01'
p13
aS'apple.n.01'
p14
aS'thermos.n.01'
p15
aS'coffee.n.01'
p16
aS'measuring_cup.n.01'
p17
aS'meal.n.03'
p18
aS'pan.n.03'
p19
aS'cup.n.01'
p20
aS'cola.n.02'
p21
aS'wok.n.01'
p22
aS'rice.n.01'
p23
aS'pot.n.01'
p24
aS'opening.n.01'
p25
aS'opening.n.10'
p26
aS'fill.v.09'
p27
aS'curd.n.01'
p28
aS'glass.n.02'
p29
aS'milk.n.01'
p30
asS'instanceCount'
p31
I35
sS'matrix'
p32
(dp33
g15
(dp34
S'thermos.n.01'
p35
I1
ssg14
(dp36
S'apple.n.01'
p37
I1
ssg26
(dp38
g26
I0
ssg20
(dp39
S'cup.n.01'
p40
I1
ssg30
(dp41
S'milk.n.01'
p42
I1
ssg19
(dp43
S'pan.n.03'
p44
I1
ssg21
(dp45
S'cola.n.02'
p46
I1
ssg27
(dp47
S'fill.v.01'
p48
I1
ssg24
(dp49
S'pot.n.01'
p50
I1
ssg9
(dp51
S'fill.v.01'
p52
I11
ssg17
(dp53
S'measuring_cup.n.01'
p54
I1
ssg29
(dp55
S'glass.n.02'
p56
I1
ssg22
(dp57
S'wok.n.01'
p58
I1
ssg16
(dp59
S'coffee.n.01'
p60
I1
ssg25
(dp61
g26
I1
ssg10
(dp62
S'teapot.n.01'
p63
I1
ssg13
(dp64
S'blender.n.01'
p65
I1
ssg23
(dp66
S'rice.n.01'
p67
I1
ssg11
(dp68
S'water.n.06'
p69
I4
ssg12
(dp70
S'kettle.n.01'
p71
I1
ssg28
(dp72
S'curd.n.01'
p73
I1
ssg8
(dp74
S'jar.n.01'
p75
I1
ssg18
(dp76
S'meal.n.03'
p77
I1
sssb.