ccopy_reg
_reconstructor
p0
(cutils.eval
ConfusionMatrix
p1
c__builtin__
object
p2
Ntp3
Rp4
(dp5
S'labels'
p6
(lp7
S'fill.v.01'
p8
aS'kettle.n.01'
p9
aS'water.n.06'
p10
aS'blender.n.01'
p11
aS'apple.n.01'
p12
aS'thermos.n.01'
p13
aS'coffee.n.01'
p14
aS'measuring_cup.n.01'
p15
aS'meal.n.03'
p16
aS'pan.n.03'
p17
aS'cup.n.01'
p18
aS'cola.n.02'
p19
aS'wok.n.01'
p20
aS'rice.n.01'
p21
aS'pot.n.01'
p22
aS'opening.n.01'
p23
aS'opening.n.10'
p24
aS'fill.v.09'
p25
aS'curd.n.01'
p26
aS'glass.n.02'
p27
aS'milk.n.01'
p28
aS'saltcellar.n.01'
p29
aS'salt.n.02'
p30
aS'jar.n.01'
p31
aS'gravy.n.01'
p32
aS'gravy.n.02'
p33
asS'instanceCount'
p34
I36
sS'matrix'
p35
(dp36
g13
(dp37
S'thermos.n.01'
p38
I1
ssg12
(dp39
S'apple.n.01'
p40
I1
ssg24
(dp41
g24
I0
ssg18
(dp42
S'cup.n.01'
p43
I1
ssg28
(dp44
S'milk.n.01'
p45
I1
ssg17
(dp46
S'pan.n.03'
p47
I1
ssg19
(dp48
S'cola.n.02'
p49
I1
ssg29
(dp50
S'saltcellar.n.01'
p51
I1
ssg22
(dp52
S'pot.n.01'
p53
I1
ssg8
(dp54
S'fill.v.01'
p55
I11
ssg25
(dp56
S'fill.v.01'
p57
I1
ssg15
(dp58
S'measuring_cup.n.01'
p59
I1
ssg27
(dp60
S'glass.n.02'
p61
I1
ssg32
(dp62
g33
I1
ssg30
(dp63
S'salt.n.02'
p64
I1
ssg33
(dp65
g33
I0
ssg20
(dp66
S'wok.n.01'
p67
I1
ssg14
(dp68
S'coffee.n.01'
p69
I1
ssg23
(dp70
g24
I1
ssg11
(dp71
S'blender.n.01'
p72
I1
ssg21
(dp73
S'rice.n.01'
p74
I1
ssg10
(dp75
S'water.n.06'
p76
I3
ssg9
(dp77
S'kettle.n.01'
p78
I1
ssg26
(dp79
S'curd.n.01'
p80
I1
ssg31
(dp81
S'jar.n.01'
p82
I1
ssg16
(dp83
S'meal.n.03'
p84
I1
sssb.