ccopy_reg
_reconstructor
p0
(cutils.eval
ConfusionMatrix
p1
c__builtin__
object
p2
Ntp3
Rp4
(dp5
S'labels'
p6
(lp7
S'wok.n.01'
p8
aS'fill.v.01'
p9
aS'rice.n.01'
p10
aS'pot.n.01'
p11
aS'water.n.06'
p12
aS'opening.n.01'
p13
aS'opening.n.10'
p14
aS'fill.v.09'
p15
aS'curd.n.01'
p16
aS'glass.n.02'
p17
aS'milk.n.01'
p18
aS'saltcellar.n.01'
p19
aS'salt.n.02'
p20
aS'jar.n.01'
p21
aS'gravy.n.01'
p22
aS'gravy.n.02'
p23
aS'ice.n.01'
p24
aS'ice.n.05'
p25
aS'bowl.n.01'
p26
aS'foam.n.01'
p27
aS'mug.n.04'
p28
aS'bottle.n.01'
p29
aS'fruit_juice.n.01'
p30
aS'gap.n.03'
p31
aS'batter.n.02'
p32
aS'whiskey.n.01'
p33
aS'carafe.n.01'
p34
aS'pitcher.n.02'
p35
asS'instanceCount'
p36
I36
sS'matrix'
p37
(dp38
g10
(dp39
S'rice.n.01'
p40
I1
ssg26
(dp41
S'bowl.n.01'
p42
I1
ssg32
(dp43
S'batter.n.02'
p44
I1
ssg14
(dp45
g14
I0
ssg27
(dp46
S'foam.n.01'
p47
I1
ssg18
(dp48
S'milk.n.01'
p49
I2
ssg31
(dp50
g31
I0
ssg19
(dp51
S'saltcellar.n.01'
p52
I1
ssg29
(dp53
S'bottle.n.01'
p54
I1
ssg11
(dp55
S'pot.n.01'
p56
I1
ssg9
(dp57
S'fill.v.01'
p58
I10
ssg35
(dp59
S'pitcher.n.02'
p60
I1
ssg17
(dp61
S'glass.n.02'
p62
I1
ssg22
(dp63
g23
I1
ssg20
(dp64
S'salt.n.02'
p65
I1
ssg23
(dp66
g23
I0
ssg8
(dp67
S'wok.n.01'
p68
I1
ssg33
(dp69
S'whiskey.n.01'
p70
I1
ssg13
(dp71
g14
I1
sg31
I1
ssg28
(dp72
S'mug.n.04'
p73
I1
ssg30
(dp74
S'fruit_juice.n.01'
p75
I1
ssg15
(dp76
S'fill.v.01'
p77
I2
ssg12
(dp78
S'water.n.06'
p79
I1
ssg24
(dp80
g25
I1
ssg25
(dp81
g25
I0
ssg16
(dp82
S'curd.n.01'
p83
I1
ssg21
(dp84
S'jar.n.01'
p85
I1
ssg34
(dp86
S'carafe.n.01'
p87
I1
sssb.