ccopy_reg
_reconstructor
p0
(cutils.eval
ConfusionMatrix
p1
c__builtin__
object
p2
Ntp3
Rp4
(dp5
S'labels'
p6
(lp7
S'ice.n.01'
p8
aS'ice.n.05'
p9
aS'fill.v.01'
p10
aS'bowl.n.01'
p11
aS'bowl.n.08'
p12
aS'foam.n.01'
p13
aS'mug.n.04'
p14
aS'bottle.n.01'
p15
aS'fruit_juice.n.01'
p16
aS'opening.n.01'
p17
aS'gap.n.03'
p18
aS'fill.v.09'
p19
aS'batter.n.02'
p20
aS'whiskey.n.01'
p21
aS'carafe.n.01'
p22
aS'pitcher.n.02'
p23
aS'milk.n.01'
p24
aS'jar.n.01'
p25
aS'teapot.n.01'
p26
aS'water.n.06'
p27
aS'kettle.n.01'
p28
aS'blender.n.01'
p29
aS'apple.n.01'
p30
aS'thermos.n.01'
p31
aS'coffee.n.01'
p32
aS'measuring_cup.n.01'
p33
aS'meal.n.03'
p34
asS'instanceCount'
p35
I35
sS'matrix'
p36
(dp37
g11
(dp38
g12
I1
ssg20
(dp39
S'batter.n.02'
p40
I1
ssg30
(dp41
S'apple.n.01'
p42
I1
ssg13
(dp43
S'foam.n.01'
p44
I1
ssg24
(dp45
S'milk.n.01'
p46
I1
ssg12
(dp47
g12
I0
ssg18
(dp48
g18
I0
ssg19
(dp49
S'fill.v.01'
p50
I1
ssg15
(dp51
S'bottle.n.01'
p52
I1
ssg10
(dp53
S'fill.v.01'
p54
I11
ssg23
(dp55
S'pitcher.n.02'
p56
I1
ssg33
(dp57
S'measuring_cup.n.01'
p58
I1
ssg32
(dp59
S'coffee.n.01'
p60
I1
ssg21
(dp61
S'whiskey.n.01'
p62
I1
ssg17
(dp63
g18
I1
ssg14
(dp64
S'mug.n.04'
p65
I1
ssg16
(dp66
S'fruit_juice.n.01'
p67
I1
ssg26
(dp68
S'teapot.n.01'
p69
I1
ssg29
(dp70
S'blender.n.01'
p71
I1
ssg31
(dp72
S'thermos.n.01'
p73
I1
ssg27
(dp74
S'water.n.06'
p75
I2
ssg8
(dp76
g9
I1
ssg28
(dp77
S'kettle.n.01'
p78
I1
ssg9
(dp79
g9
I0
ssg25
(dp80
S'jar.n.01'
p81
I1
ssg22
(dp82
S'carafe.n.01'
p83
I1
ssg34
(dp84
S'meal.n.03'
p85
I1
sssb.