ccopy_reg
_reconstructor
p0
(cutils.eval
ConfusionMatrix
p1
c__builtin__
object
p2
Ntp3
Rp4
(dp5
S'labels'
p6
(lp7
S'fill.v.01'
p8
aS'bottle.n.01'
p9
aS'fruit_juice.n.01'
p10
aS'saltcellar.n.01'
p11
aS'salt.n.02'
p12
aS'measuring_cup.n.01'
p13
aS'meal.n.03'
p14
aS'opening.n.01'
p15
aS'opening.n.10'
p16
aS'fill.v.09'
p17
aS'curd.n.01'
p18
aS'jar.n.01'
p19
aS'gravy.n.01'
p20
aS'gravy.n.02'
p21
aS'glass.n.02'
p22
aS'milk.n.01'
p23
aS'gap.n.03'
p24
aS'batter.n.02'
p25
aS'blender.n.01'
p26
aS'apple.n.01'
p27
aS'foam.n.01'
p28
aS'mug.n.04'
p29
aS'pitcher.n.02'
p30
asS'instanceCount'
p31
I30
sS'matrix'
p32
(dp33
g25
(dp34
S'batter.n.02'
p35
I1
ssg16
(dp36
g16
I0
ssg27
(dp37
S'apple.n.01'
p38
I1
ssg28
(dp39
S'foam.n.01'
p40
I1
ssg23
(dp41
S'milk.n.01'
p42
I2
ssg24
(dp43
g24
I0
ssg11
(dp44
S'saltcellar.n.01'
p45
I1
ssg9
(dp46
S'bottle.n.01'
p47
I1
ssg8
(dp48
S'fill.v.01'
p49
I8
ssg30
(dp50
S'pitcher.n.02'
p51
I1
ssg13
(dp52
S'measuring_cup.n.01'
p53
I1
ssg22
(dp54
S'glass.n.02'
p55
I1
ssg20
(dp56
g21
I1
ssg12
(dp57
S'salt.n.02'
p58
I1
ssg21
(dp59
g21
I0
ssg15
(dp60
g16
I1
sg24
I1
ssg29
(dp61
S'mug.n.04'
p62
I1
ssg10
(dp63
S'fruit_juice.n.01'
p64
I1
ssg26
(dp65
S'blender.n.01'
p66
I1
ssg17
(dp67
S'fill.v.01'
p68
I2
ssg18
(dp69
S'curd.n.01'
p70
I1
ssg19
(dp71
S'jar.n.01'
p72
I1
ssg14
(dp73
S'meal.n.03'
p74
I1
sssb.