ccopy_reg
_reconstructor
p0
(cutils.eval
ConfusionMatrix
p1
c__builtin__
object
p2
Ntp3
Rp4
(dp5
S'labels'
p6
(lp7
S'put.v.01'
p8
aS'bowl.n.01'
p9
aS'rice.n.01'
p10
aS'spoon.n.01'
p11
aS'batter.n.02'
p12
aS'pan.n.03'
p13
aS'pizza.n.01'
p14
aS'blender.n.01'
p15
aS'banana.n.02'
p16
aS'pepper.n.03'
p17
aS'pepper.n.04'
p18
aS'salt.n.02'
p19
aS'egg.n.02'
p20
aS'egg.n.01'
p21
aS'onion.n.01'
p22
aS'onion.n.03'
p23
aS'beef.n.02'
p24
aS'gripe.n.01'
p25
aS'plate.n.04'
p26
aS'plate.n.13'
p27
aS'coca_cola.n.01'
p28
aS'coke.n.01'
p29
aS'electric_refrigerator.n.01'
p30
aS'salmon.n.03'
p31
aS'dressing.n.01'
p32
aS'dressing.n.04'
p33
aS'salad.n.01'
p34
aS'dish.n.02'
p35
aS'oven.n.01'
p36
aS'mug.n.04'
p37
aS'countenance.n.03'
p38
aS'microwave.n.02'
p39
aS'soup.n.01'
p40
aS'cake.n.03'
p41
aS'whipped_cream.n.01'
p42
aS'french_fries.n.01'
p43
asS'instanceCount'
p44
I43
sS'matrix'
p45
(dp46
g27
(dp47
g27
I0
ssg29
(dp48
g29
I0
ssg24
(dp49
g25
I1
ssg40
(dp50
S'soup.n.01'
p51
I1
ssg9
(dp52
S'bowl.n.01'
p53
I1
ssg12
(dp54
S'batter.n.02'
p55
I1
ssg32
(dp56
g33
I1
ssg28
(dp57
g29
I1
ssg31
(dp58
S'salmon.n.03'
p59
I1
ssg13
(dp60
S'pan.n.03'
p61
I1
ssg38
(dp62
g38
I0
ssg39
(dp63
S'microwave.n.02'
p64
I2
ssg20
(dp65
g21
I1
ssg21
(dp66
g21
I0
ssg30
(dp67
S'electric_refrigerator.n.01'
p68
I1
ssg11
(dp69
S'spoon.n.01'
p70
I1
ssg19
(dp71
S'salt.n.02'
p72
I1
ssg16
(dp73
S'banana.n.02'
p74
I1
ssg26
(dp75
g27
I2
ssg18
(dp76
g18
I0
ssg17
(dp77
g18
I1
ssg42
(dp78
S'whipped_cream.n.01'
p79
I1
ssg36
(dp80
S'oven.n.01'
p81
I1
ssg25
(dp82
g25
I0
ssg37
(dp83
g38
I1
ssg15
(dp84
S'blender.n.01'
p85
I1
ssg34
(dp86
S'salad.n.01'
p87
I1
ssg33
(dp88
g33
I0
ssg10
(dp89
S'rice.n.01'
p90
I1
ssg8
(dp91
S'put.v.01'
p92
I14
ssg14
(dp93
S'pizza.n.01'
p94
I1
ssg41
(dp95
S'cake.n.03'
p96
I1
ssg43
(dp97
S'french_fries.n.01'
p98
I1
ssg22
(dp99
g23
I1
ssg23
(dp100
g23
I0
ssg35
(dp101
S'dish.n.02'
p102
I1
sssb.