ccopy_reg
_reconstructor
p0
(cutils.eval
ConfusionMatrix
p1
c__builtin__
object
p2
Ntp3
Rp4
(dp5
S'labels'
p6
(lp7
S'put.v.01'
p8
aS'steak.n.01'
p9
aS'oven.n.01'
p10
aS'pan.n.03'
p11
aS'chicken.n.01'
p12
aS'bowl.n.01'
p13
aS'stadium.n.01'
p14
aS'cherry.n.03'
p15
aS'rib.n.03'
p16
aS'rib.n.06'
p17
aS'salt.n.02'
p18
aS'bowl.n.08'
p19
aS'rice.n.01'
p20
aS'spoon.n.01'
p21
aS'batter.n.02'
p22
aS'pizza.n.01'
p23
aS'blender.n.01'
p24
aS'banana.n.02'
p25
aS'pepper.n.03'
p26
aS'pepper.n.04'
p27
aS'egg.n.02'
p28
aS'egg.n.01'
p29
aS'onion.n.01'
p30
aS'onion.n.03'
p31
aS'beef.n.02'
p32
aS'gripe.n.01'
p33
aS'plate.n.04'
p34
aS'plate.n.11'
p35
aS'coca_cola.n.01'
p36
aS'electric_refrigerator.n.01'
p37
aS'salmon.n.03'
p38
aS'dressing.n.01'
p39
aS'dressing.n.04'
p40
aS'salad.n.01'
p41
aS'dish.n.02'
p42
asS'instanceCount'
p43
I44
sS'matrix'
p44
(dp45
g35
(dp46
g35
I0
ssg12
(dp47
S'chicken.n.01'
p48
I1
ssg32
(dp49
g33
I1
ssg13
(dp50
g14
I1
sg19
I1
ssg22
(dp51
S'batter.n.02'
p52
I1
ssg39
(dp53
g40
I1
ssg19
(dp54
g19
I0
ssg38
(dp55
S'salmon.n.03'
p56
I1
ssg11
(dp57
S'pan.n.03'
p58
I2
ssg36
(dp59
S'coca_cola.n.01'
p60
I1
ssg28
(dp61
g29
I1
ssg29
(dp62
g29
I0
ssg37
(dp63
S'electric_refrigerator.n.01'
p64
I1
ssg21
(dp65
S'spoon.n.01'
p66
I1
ssg34
(dp67
g35
I2
ssg18
(dp68
S'salt.n.02'
p69
I2
ssg25
(dp70
S'banana.n.02'
p71
I1
ssg16
(dp72
g17
I1
ssg27
(dp73
g27
I0
ssg17
(dp74
g17
I0
ssg26
(dp75
g27
I1
ssg9
(dp76
S'steak.n.01'
p77
I1
ssg10
(dp78
S'oven.n.01'
p79
I2
ssg33
(dp80
g33
I0
ssg14
(dp81
g14
I0
ssg24
(dp82
S'blender.n.01'
p83
I1
ssg41
(dp84
S'salad.n.01'
p85
I1
ssg40
(dp86
g40
I0
ssg20
(dp87
S'rice.n.01'
p88
I1
ssg8
(dp89
S'put.v.01'
p90
I14
ssg23
(dp91
S'pizza.n.01'
p92
I1
ssg15
(dp93
S'cherry.n.03'
p94
I1
ssg30
(dp95
g31
I1
ssg31
(dp96
g31
I0
ssg42
(dp97
S'dish.n.02'
p98
I1
sssb.