ccopy_reg
_reconstructor
p0
(cutils.eval
ConfusionMatrix
p1
c__builtin__
object
p2
Ntp3
Rp4
(dp5
S'labels'
p6
(lp7
S'put.v.01'
p8
aS'jam.n.01'
p9
aS'refrigerator.n.01'
p10
aS'spread.n.05'
p11
aS'bread.n.01'
p12
aS'steak.n.01'
p13
aS'oven.n.01'
p14
aS'pan.n.03'
p15
aS'chicken.n.01'
p16
aS'bowl.n.01'
p17
aS'stadium.n.01'
p18
aS'cherry.n.03'
p19
aS'rib.n.03'
p20
aS'rib.n.06'
p21
aS'salt.n.02'
p22
aS'bowl.n.08'
p23
aS'rice.n.01'
p24
aS'spoon.n.01'
p25
aS'batter.n.02'
p26
aS'pizza.n.01'
p27
aS'blender.n.01'
p28
aS'banana.n.02'
p29
aS'pepper.n.03'
p30
aS'pepper.n.04'
p31
aS'egg.n.02'
p32
aS'egg.n.01'
p33
aS'onion.n.01'
p34
aS'onion.n.03'
p35
aS'beef.n.02'
p36
aS'gripe.n.01'
p37
aS'plate.n.04'
p38
aS'plate.n.11'
p39
aS'coca_cola.n.01'
p40
aS'electric_refrigerator.n.01'
p41
aS'salmon.n.03'
p42
asS'instanceCount'
p43
I44
sS'matrix'
p44
(dp45
g39
(dp46
g39
I0
ssg24
(dp47
S'rice.n.01'
p48
I1
ssg16
(dp49
S'chicken.n.01'
p50
I1
ssg36
(dp51
g37
I1
ssg10
(dp52
S'refrigerator.n.01'
p53
I1
ssg12
(dp54
S'bread.n.01'
p55
I1
ssg17
(dp56
g18
I1
sg23
I1
ssg26
(dp57
S'batter.n.02'
p58
I1
ssg23
(dp59
g23
I0
ssg42
(dp60
S'salmon.n.03'
p61
I1
ssg15
(dp62
S'pan.n.03'
p63
I2
ssg40
(dp64
S'coca_cola.n.01'
p65
I1
ssg32
(dp66
g33
I1
ssg33
(dp67
g33
I0
ssg41
(dp68
S'electric_refrigerator.n.01'
p69
I1
ssg25
(dp70
S'spoon.n.01'
p71
I1
ssg38
(dp72
g39
I2
ssg22
(dp73
S'salt.n.02'
p74
I2
ssg29
(dp75
S'banana.n.02'
p76
I1
ssg20
(dp77
g21
I1
ssg31
(dp78
g31
I0
ssg21
(dp79
g21
I0
ssg30
(dp80
g31
I1
ssg11
(dp81
S'spread.n.05'
p82
I1
ssg13
(dp83
S'steak.n.01'
p84
I1
ssg14
(dp85
S'oven.n.01'
p86
I1
ssg37
(dp87
g37
I0
ssg18
(dp88
g18
I0
ssg28
(dp89
S'blender.n.01'
p90
I1
ssg9
(dp91
S'jam.n.01'
p92
I1
ssg8
(dp93
S'put.v.01'
p94
I14
ssg27
(dp95
S'pizza.n.01'
p96
I1
ssg19
(dp97
S'cherry.n.03'
p98
I1
ssg34
(dp99
g35
I1
ssg35
(dp100
g35
I0
sssb.