ccopy_reg
_reconstructor
p0
(cutils.eval
ConfusionMatrix
p1
c__builtin__
object
p2
Ntp3
Rp4
(dp5
S'labels'
p6
(lp7
S'put.v.01'
p8
aS'dressing.n.01'
p9
aS'dressing.n.04'
p10
aS'salad.n.01'
p11
aS'dish.n.02'
p12
aS'oven.n.01'
p13
aS'mug.n.04'
p14
aS'countenance.n.03'
p15
aS'microwave.n.02'
p16
aS'soup.n.01'
p17
aS'cake.n.03'
p18
aS'patty.n.01'
p19
aS'whipped_cream.n.01'
p20
aS'french_fries.n.01'
p21
aS'jam.n.01'
p22
aS'refrigerator.n.01'
p23
aS'spread.n.05'
p24
aS'bread.n.01'
p25
aS'boodle.n.01'
p26
aS'steak.n.01'
p27
aS'pan.n.03'
p28
aS'chicken.n.01'
p29
aS'bowl.n.01'
p30
aS'bowl.n.03'
p31
aS'cherry.n.03'
p32
aS'rib.n.03'
p33
aS'rib.n.01'
p34
aS'salt.n.02'
p35
aS'rice.n.01'
p36
aS'spoon.n.01'
p37
aS'batter.n.02'
p38
asS'instanceCount'
p39
I41
sS'matrix'
p40
(dp41
g36
(dp42
S'rice.n.01'
p43
I1
ssg29
(dp44
S'chicken.n.01'
p45
I1
ssg17
(dp46
S'soup.n.01'
p47
I1
ssg23
(dp48
S'refrigerator.n.01'
p49
I1
ssg25
(dp50
g26
I1
ssg31
(dp51
g31
I0
ssg30
(dp52
g31
I2
ssg12
(dp53
S'dish.n.02'
p54
I1
ssg28
(dp55
S'pan.n.03'
p56
I1
ssg16
(dp57
S'microwave.n.02'
p58
I2
ssg19
(dp59
g19
I0
ssg37
(dp60
S'spoon.n.01'
p61
I1
ssg35
(dp62
S'salt.n.02'
p63
I1
ssg15
(dp64
g15
I0
ssg33
(dp65
g34
I1
ssg34
(dp66
g34
I0
ssg24
(dp67
S'spread.n.05'
p68
I1
ssg20
(dp69
S'whipped_cream.n.01'
p70
I1
ssg13
(dp71
S'oven.n.01'
p72
I2
ssg26
(dp73
g26
I0
ssg14
(dp74
g15
I1
ssg10
(dp75
g10
I0
ssg22
(dp76
S'jam.n.01'
p77
I1
ssg8
(dp78
S'put.v.01'
p79
I14
ssg9
(dp80
g10
I1
ssg27
(dp81
S'steak.n.01'
p82
I1
ssg18
(dp83
g19
I1
ssg21
(dp84
S'french_fries.n.01'
p85
I1
ssg32
(dp86
S'cherry.n.03'
p87
I1
ssg11
(dp88
S'salad.n.01'
p89
I1
ssg38
(dp90
S'batter.n.02'
p91
I1
sssb.