ccopy_reg
_reconstructor
p0
(cutils.eval
ConfusionMatrix
p1
c__builtin__
object
p2
Ntp3
Rp4
(dp5
S'labels'
p6
(lp7
S'put.v.01'
p8
aS'mug.n.04'
p9
aS'countenance.n.03'
p10
aS'microwave.n.02'
p11
aS'soup.n.01'
p12
aS'cake.n.03'
p13
aS'patty.n.01'
p14
aS'whipped_cream.n.01'
p15
aS'french_fries.n.01'
p16
aS'jam.n.01'
p17
aS'refrigerator.n.01'
p18
aS'spread.n.05'
p19
aS'bread.n.01'
p20
aS'boodle.n.01'
p21
aS'steak.n.01'
p22
aS'oven.n.01'
p23
aS'pan.n.03'
p24
aS'chicken.n.01'
p25
aS'bowl.n.01'
p26
aS'bowl.n.03'
p27
aS'cherry.n.03'
p28
aS'rib.n.03'
p29
aS'rib.n.06'
p30
aS'salt.n.02'
p31
aS'rice.n.01'
p32
aS'spoon.n.01'
p33
aS'batter.n.02'
p34
aS'pizza.n.01'
p35
aS'blender.n.01'
p36
aS'banana.n.02'
p37
asS'instanceCount'
p38
I41
sS'matrix'
p39
(dp40
g32
(dp41
S'rice.n.01'
p42
I1
ssg25
(dp43
S'chicken.n.01'
p44
I1
ssg12
(dp45
S'soup.n.01'
p46
I1
ssg18
(dp47
S'refrigerator.n.01'
p48
I1
ssg20
(dp49
g21
I1
ssg27
(dp50
g27
I0
ssg26
(dp51
g27
I2
ssg34
(dp52
S'batter.n.02'
p53
I1
ssg24
(dp54
S'pan.n.03'
p55
I2
ssg37
(dp56
S'banana.n.02'
p57
I1
ssg11
(dp58
S'microwave.n.02'
p59
I2
ssg14
(dp60
g14
I0
ssg33
(dp61
S'spoon.n.01'
p62
I1
ssg31
(dp63
S'salt.n.02'
p64
I1
ssg10
(dp65
g10
I0
ssg29
(dp66
g30
I1
ssg30
(dp67
g30
I0
ssg21
(dp68
g21
I0
ssg15
(dp69
S'whipped_cream.n.01'
p70
I1
ssg23
(dp71
S'oven.n.01'
p72
I1
ssg19
(dp73
S'spread.n.05'
p74
I1
ssg9
(dp75
g10
I1
ssg36
(dp76
S'blender.n.01'
p77
I1
ssg17
(dp78
S'jam.n.01'
p79
I1
ssg8
(dp80
S'put.v.01'
p81
I14
ssg35
(dp82
S'pizza.n.01'
p83
I1
ssg22
(dp84
S'steak.n.01'
p85
I1
ssg13
(dp86
g14
I1
ssg16
(dp87
S'french_fries.n.01'
p88
I1
ssg28
(dp89
S'cherry.n.03'
p90
I1
sssb.