ccopy_reg
_reconstructor
p0
(cutils.eval
ConfusionMatrix
p1
c__builtin__
object
p2
Ntp3
Rp4
(dp5
S'labels'
p6
(lp7
S'put.v.01'
p8
aS'pan.n.03'
p9
aS'pizza.n.01'
p10
aS'blender.n.01'
p11
aS'banana.n.02'
p12
aS'pepper.n.03'
p13
aS'pepper.n.04'
p14
aS'salt.n.02'
p15
aS'egg.n.02'
p16
aS'egg.n.01'
p17
aS'onion.n.01'
p18
aS'onion.n.03'
p19
aS'beef.n.02'
p20
aS'gripe.n.01'
p21
aS'plate.n.04'
p22
aS'plate.n.13'
p23
aS'coca_cola.n.01'
p24
aS'coke.n.01'
p25
aS'electric_refrigerator.n.01'
p26
aS'salmon.n.03'
p27
aS'dressing.n.01'
p28
aS'dressing.n.04'
p29
aS'salad.n.01'
p30
aS'dish.n.02'
p31
aS'oven.n.01'
p32
aS'mug.n.04'
p33
aS'microwave.n.02'
p34
aS'microwave.n.01'
p35
aS'soup.n.01'
p36
aS'cake.n.03'
p37
aS'whipped_cream.n.01'
p38
aS'french_fries.n.01'
p39
aS'jam.n.01'
p40
aS'refrigerator.n.01'
p41
aS'spread.n.05'
p42
aS'paste.n.03'
p43
aS'bread.n.01'
p44
asS'instanceCount'
p45
I43
sS'matrix'
p46
(dp47
g23
(dp48
g23
I0
ssg25
(dp49
g25
I0
ssg20
(dp50
g21
I1
ssg36
(dp51
S'soup.n.01'
p52
I1
ssg41
(dp53
S'refrigerator.n.01'
p54
I1
ssg44
(dp55
S'bread.n.01'
p56
I1
ssg31
(dp57
S'dish.n.02'
p58
I1
ssg28
(dp59
g29
I1
ssg27
(dp60
S'salmon.n.03'
p61
I1
ssg9
(dp62
S'pan.n.03'
p63
I1
ssg24
(dp64
g25
I1
ssg35
(dp65
g35
I0
ssg34
(dp66
g35
I1
sS'microwave.n.02'
p67
I1
ssg16
(dp68
g17
I1
ssg17
(dp69
g17
I0
ssg26
(dp70
S'electric_refrigerator.n.01'
p71
I1
ssg15
(dp72
S'salt.n.02'
p73
I1
ssg12
(dp74
S'banana.n.02'
p75
I1
ssg22
(dp76
g23
I2
ssg14
(dp77
g14
I0
ssg13
(dp78
g14
I1
ssg42
(dp79
g43
I1
ssg38
(dp80
S'whipped_cream.n.01'
p81
I1
ssg32
(dp82
S'oven.n.01'
p83
I1
ssg21
(dp84
g21
I0
ssg43
(dp85
g43
I0
ssg33
(dp86
S'mug.n.04'
p87
I1
ssg11
(dp88
S'blender.n.01'
p89
I1
ssg30
(dp90
S'salad.n.01'
p91
I1
ssg29
(dp92
g29
I0
ssg40
(dp93
S'jam.n.01'
p94
I1
ssg8
(dp95
S'put.v.01'
p96
I14
ssg10
(dp97
S'pizza.n.01'
p98
I1
ssg37
(dp99
S'cake.n.03'
p100
I1
ssg39
(dp101
S'french_fries.n.01'
p102
I1
ssg18
(dp103
g19
I1
ssg19
(dp104
g19
I0
sssb.