ccopy_reg
_reconstructor
p0
(cutils.eval
ConfusionMatrix
p1
c__builtin__
object
p2
Ntp3
Rp4
(dp5
S'labels'
p6
(lp7
S'put.v.01'
p8
aS'bowl.n.01'
p9
aS'rice.n.01'
p10
aS'spoon.n.01'
p11
aS'batter.n.02'
p12
aS'pan.n.03'
p13
aS'pizza.n.01'
p14
aS'blender.n.01'
p15
aS'banana.n.02'
p16
aS'pepper.n.03'
p17
aS'pepper.n.04'
p18
aS'salt.n.02'
p19
aS'egg.n.02'
p20
aS'egg.n.01'
p21
aS'onion.n.01'
p22
aS'onion.n.03'
p23
aS'beef.n.02'
p24
aS'gripe.n.01'
p25
aS'plate.n.04'
p26
aS'plate.n.13'
p27
aS'coca_cola.n.01'
p28
aS'coke.n.01'
p29
aS'electric_refrigerator.n.01'
p30
aS'salmon.n.03'
p31
aS'dressing.n.01'
p32
aS'dressing.n.04'
p33
aS'salad.n.01'
p34
aS'dish.n.02'
p35
aS'oven.n.01'
p36
aS'mug.n.04'
p37
aS'countenance.n.03'
p38
aS'microwave.n.02'
p39
aS'soup.n.01'
p40
aS'cake.n.03'
p41
aS'whipped_cream.n.01'
p42
aS'french_fries.n.01'
p43
aS'salt.n.04'
p44
aS'microwave.n.01'
p45
aS'patty.n.01'
p46
aS'jam.n.01'
p47
aS'refrigerator.n.01'
p48
aS'spread.n.05'
p49
aS'paste.n.03'
p50
aS'bread.n.01'
p51
aS'steak.n.01'
p52
aS'chicken.n.01'
p53
aS'boodle.n.01'
p54
aS'bowl.n.03'
p55
aS'cherry.n.03'
p56
aS'rib.n.03'
p57
aS'rib.n.06'
p58
aS'rib.n.01'
p59
aS'capsicum.n.01'
p60
aS'stadium.n.01'
p61
aS'bowl.n.08'
p62
aS'plate.n.11'
p63
asS'instanceCount'
p64
I427
sS'matrix'
p65
(dp66
g27
(dp67
g27
I0
sg29
I0
sg47
I0
sg53
I0
sg24
I0
sg40
I0
sg46
I0
sg51
I0
sS'bowl.n.03'
p68
I0
sg9
I0
sg12
I0
sg32
I0
sg28
I0
sg31
I0
sg13
I0
sg45
I0
sg38
I0
sg39
I0
sg20
I0
sg21
I0
sg48
I0
sg30
I0
sg11
I0
sS'rib.n.03'
p69
I0
sg19
I0
sg16
I0
sg44
I0
sg26
I0
sg18
I0
sg59
I0
sg17
I0
sg49
I0
sg42
I0
sg36
I0
sg25
I0
sS'boodle.n.01'
p70
I0
sg50
I0
sg37
I0
sg15
I0
sg34
I0
sg33
I0
sg10
I0
sg8
I0
sg14
I0
sg52
I0
sg41
I0
sg43
I0
sS'cherry.n.03'
p71
I0
sg22
I0
sg23
I0
sg35
I0
ssg29
(dp72
g29
I0
sg27
I0
sS'plate.n.11'
p73
I0
sg47
I0
sg53
I0
sg24
I0
sg40
I0
sg46
I0
sg51
I0
sg9
I0
sg12
I0
sg32
I0
sg28
I0
sg31
I0
sg13
I0
sS'bowl.n.08'
p74
I0
sg45
I0
sg38
I0
sg39
I0
sg20
I0
sg21
I0
sg48
I0
sg30
I0
sg11
I0
sS'rib.n.03'
p75
I0
sg19
I0
sg16
I0
sg44
I0
sg26
I0
sg18
I0
sS'rib.n.06'
p76
I0
sg17
I0
sg49
I0
sg42
I0
sg36
I0
sg25
I0
sg50
I0
sg37
I0
sg15
I0
sg34
I0
sg33
I0
sg10
I0
sg8
I0
sg14
I0
sg52
I0
sg41
I0
sg43
I0
sS'cherry.n.03'
p77
I0
sg22
I0
sg23
I0
sg35
I0
ssg63
(dp78
S'coke.n.01'
p79
I0
sg63
I0
sS'rice.n.01'
p80
I0
sS'chicken.n.01'
p81
I0
sS'beef.n.02'
p82
I0
sS'soup.n.01'
p83
I0
sS'refrigerator.n.01'
p84
I0
sS'bread.n.01'
p85
I0
sS'bowl.n.01'
p86
I0
sS'batter.n.02'
p87
I0
sS'dressing.n.01'
p88
I0
sg62
I0
sS'salmon.n.03'
p89
I0
sS'pan.n.03'
p90
I0
sS'coca_cola.n.01'
p91
I0
sS'countenance.n.03'
p92
I0
sS'microwave.n.02'
p93
I0
sS'egg.n.02'
p94
I0
sS'egg.n.01'
p95
I0
sS'electric_refrigerator.n.01'
p96
I0
sS'spoon.n.01'
p97
I0
sS'plate.n.04'
p98
I0
sS'salt.n.02'
p99
I0
sS'banana.n.02'
p100
I0
sS'rib.n.03'
p101
I0
sS'pepper.n.04'
p102
I0
sS'rib.n.06'
p103
I0
sS'pepper.n.03'
p104
I0
sS'spread.n.05'
p105
I0
sS'steak.n.01'
p106
I0
sS'oven.n.01'
p107
I0
sS'gripe.n.01'
p108
I0
sg61
I0
sS'mug.n.04'
p109
I0
sS'blender.n.01'
p110
I0
sS'salad.n.01'
p111
I0
sS'dressing.n.04'
p112
I0
sS'jam.n.01'
p113
I0
sS'put.v.01'
p114
I0
sS'pizza.n.01'
p115
I0
sS'cherry.n.03'
p116
I0
sS'onion.n.01'
p117
I0
sS'onion.n.03'
p118
I0
sS'dish.n.02'
p119
I0
ssg47
(dp120
S'plate.n.13'
p121
I0
sS'coke.n.01'
p122
I0
sg63
I0
sS'rice.n.01'
p123
I0
sg53
I0
sS'beef.n.02'
p124
I0
sS'soup.n.01'
p125
I0
sg46
I0
sg51
I0
sg55
I0
sS'bowl.n.01'
p126
I0
sS'pizza.n.01'
p127
I0
sS'dish.n.02'
p128
I0
sS'coca_cola.n.01'
p129
I0
sS'salmon.n.03'
p130
I0
sS'pan.n.03'
p131
I0
sg62
I0
sg45
I0
sS'banana.n.02'
p132
I0
sS'microwave.n.02'
p133
I0
sS'egg.n.02'
p134
I0
sS'egg.n.01'
p135
I0
sS'electric_refrigerator.n.01'
p136
I0
sS'spoon.n.01'
p137
I0
sg57
I0
sg102
I0
sS'salt.n.02'
p138
I0
sS'countenance.n.03'
p139
I0
sg44
I0
sS'plate.n.04'
p140
I0
sg48
I0
sg59
I0
sg58
I0
sS'pepper.n.03'
p141
I0
sg49
I0
sS'whipped_cream.n.01'
p142
I0
sS'oven.n.01'
p143
I0
sS'gripe.n.01'
p144
I0
sg60
I0
sg54
I0
sg50
I0
sg61
I0
sS'mug.n.04'
p145
I0
sS'blender.n.01'
p146
I0
sS'onion.n.01'
p147
I0
sS'dressing.n.04'
p148
I0
sg47
I7
sS'put.v.01'
p149
I0
sS'dressing.n.01'
p150
I0
sg52
I0
sS'cake.n.03'
p151
I0
sS'french_fries.n.01'
p152
I0
sg56
I0
sS'salad.n.01'
p153
I0
sS'onion.n.03'
p154
I0
sS'batter.n.02'
p155
I0
ssg53
(dp156
g121
I0
sg122
I0
sg63
I0
sg123
I0
sg53
I7
sg124
I0
sg125
I0
sg46
I0
sg51
I0
sg55
I0
sg126
I0
sg127
I0
sg128
I0
sg129
I0
sg130
I0
sg131
I0
sg62
I0
sg45
I0
sg132
I0
sg133
I0
sg134
I0
sg135
I0
sg136
I0
sg137
I0
sg57
I0
sg102
I0
sg138
I0
sg139
I0
sg44
I0
sg140
I0
sg48
I0
sg59
I0
sg58
I0
sg141
I0
sg49
I0
sg142
I0
sg143
I0
sg144
I0
sg60
I0
sg54
I0
sg50
I0
sg61
I0
sg145
I0
sg146
I0
sg147
I0
sg148
I0
sg47
I0
sg149
I0
sg150
I0
sg52
I0
sg151
I0
sg152
I0
sg56
I0
sg153
I0
sg154
I0
sg155
I0
ssg24
(dp157
g27
I0
sg29
I0
sg63
I0
sg47
I0
sg53
I0
sg24
I0
sg40
I0
sg46
I0
sg51
I0
sS'bowl.n.03'
p158
I0
sg9
I0
sg12
I0
sg32
I0
sg28
I0
sg31
I0
sg13
I0
sg62
I0
sg45
I0
sg38
I0
sg39
I0
sg20
I0
sg21
I0
sg48
I0
sg30
I0
sg11
I0
sS'rib.n.03'
p159
I0
sg19
I0
sg16
I0
sg44
I0
sg26
I0
sg18
I0
sS'rib.n.06'
p160
I0
sg17
I0
sg49
I0
sg42
I0
sg36
I0
sg25
I7
sg60
I0
sS'boodle.n.01'
p161
I0
sg50
I0
sg61
I0
sg37
I0
sg15
I0
sg34
I0
sg33
I0
sg10
I0
sg8
I0
sg14
I0
sg52
I0
sg41
I0
sg43
I0
sS'cherry.n.03'
p162
I0
sg22
I0
sg23
I0
sg35
I0
ssg40
(dp163
g27
I0
sg29
I0
sg73
I0
sg47
I0
sg53
I0
sg24
I0
sg40
I7
sg46
I0
sg51
I0
sg55
I0
sg9
I0
sg12
I0
sg32
I0
sg28
I0
sg31
I0
sg13
I0
sg74
I0
sg45
I0
sg38
I0
sg39
I0
sg20
I0
sg21
I0
sg48
I0
sg30
I0
sg11
I0
sg57
I0
sg19
I0
sg16
I0
sg44
I0
sg26
I0
sg18
I0
sg59
I0
sg58
I0
sg17
I0
sg49
I0
sg42
I0
sg36
I0
sg25
I0
sg54
I0
sg50
I0
sg37
I0
sg15
I0
sg34
I0
sg33
I0
sg10
I0
sg8
I0
sg14
I0
sg52
I0
sg41
I0
sg43
I0
sg56
I0
sg22
I0
sg23
I0
sg35
I0
ssg46
(dp164
g121
I0
sg122
I0
sg123
I0
sg53
I0
sg124
I0
sg125
I0
sg48
I0
sg51
I0
sg55
I0
sg126
I0
sg127
I0
sg128
I0
sg136
I0
sg130
I0
sg131
I0
sg129
I0
sg45
I0
sg132
I0
sg133
I0
sg134
I0
sg135
I0
sg46
I0
sg137
I0
sg57
I0
sg138
I0
sg139
I0
sg44
I0
sg140
I0
sg59
I0
sg58
I0
sg141
I0
sg49
I0
sg142
I0
sg143
I0
sg144
I0
sg60
I0
sg54
I0
sg50
I0
sg145
I0
sg146
I0
sg147
I0
sg148
I0
sg47
I0
sg149
I0
sg150
I0
sg52
I0
sg151
I0
sg152
I0
sg56
I0
sg153
I0
sg154
I0
sg155
I0
ssg51
(dp165
g121
I0
sg122
I0
sg63
I0
sg123
I0
sg53
I0
sg124
I0
sg125
I0
sg46
I0
sg51
I3
sg55
I0
sg126
I0
sg127
I0
sg128
I0
sg129
I0
sg130
I0
sg131
I0
sg62
I0
sg45
I0
sg132
I0
sg133
I0
sg134
I0
sg135
I0
sg136
I0
sg137
I0
sg57
I0
sg102
I0
sg138
I0
sg139
I0
sg44
I0
sg140
I0
sg48
I0
sg59
I0
sg58
I0
sg141
I0
sg49
I0
sg142
I0
sg143
I0
sg144
I0
sg60
I0
sg54
I4
sg50
I0
sg61
I0
sg145
I0
sg146
I0
sg147
I0
sg148
I0
sg47
I0
sg149
I0
sg150
I0
sg52
I0
sg151
I0
sg152
I0
sg56
I0
sg153
I0
sg154
I0
sg155
I0
ssg55
(dp166
S'plate.n.13'
p167
I0
sg123
I0
sS'chicken.n.01'
p168
I0
sS'beef.n.02'
p169
I0
sS'soup.n.01'
p170
I0
sS'refrigerator.n.01'
p171
I0
sS'bread.n.01'
p172
I0
sg55
I0
sg126
I0
sg155
I0
sS'dressing.n.01'
p173
I0
sS'coca_cola.n.01'
p174
I0
sS'salmon.n.03'
p175
I0
sS'pan.n.03'
p176
I0
sS'microwave.n.01'
p177
I0
sg132
I0
sS'microwave.n.02'
p178
I0
sS'egg.n.02'
p179
I0
sS'patty.n.01'
p180
I0
sg137
I0
sS'plate.n.04'
p181
I0
sS'salt.n.02'
p182
I0
sg139
I0
sS'salt.n.04'
p183
I0
sg57
I0
sg59
I0
sg58
I0
sS'pepper.n.03'
p184
I0
sg54
I0
sS'whipped_cream.n.01'
p185
I0
sS'oven.n.01'
p186
I0
sS'gripe.n.01'
p187
I0
sg60
I0
sS'spread.n.05'
p188
I0
sS'mug.n.04'
p189
I0
sg146
I0
sS'onion.n.01'
p190
I0
sS'dressing.n.04'
p191
I0
sS'jam.n.01'
p192
I0
sS'put.v.01'
p193
I0
sg127
I0
sS'electric_refrigerator.n.01'
p194
I0
sS'steak.n.01'
p195
I0
sS'cake.n.03'
p196
I0
sS'french_fries.n.01'
p197
I0
sg56
I0
sS'salad.n.01'
p198
I0
sS'onion.n.03'
p199
I0
sS'dish.n.02'
p200
I0
ssg9
(dp201
g27
I0
sg29
I0
sg63
I0
sg192
I0
sg168
I0
sg24
I0
sg40
I0
sg180
I0
sg172
I0
sg55
I7
sg9
I1
sg12
I0
sg32
I0
sg28
I0
sg31
I0
sg13
I0
sg62
I4
sg177
I0
sg38
I0
sg39
I0
sg20
I0
sg21
I0
sg171
I0
sg30
I0
sg11
I0
sg57
I0
sg19
I0
sg16
I0
sg183
I0
sg26
I0
sg18
I0
sg59
I0
sg58
I0
sg17
I0
sg188
I0
sg42
I0
sg36
I0
sg25
I0
sg60
I0
sg54
I0
sg61
I2
sg37
I0
sg15
I0
sg34
I0
sg33
I0
sg10
I0
sg8
I0
sg14
I0
sg195
I0
sg41
I0
sg43
I0
sg56
I0
sg22
I0
sg23
I0
sg35
I0
ssg12
(dp202
g27
I0
sg29
I0
sg63
I0
sg192
I0
sg168
I0
sg24
I0
sg40
I0
sg180
I0
sg172
I0
sg55
I0
sg9
I0
sg12
I7
sg32
I0
sg28
I0
sg31
I0
sg13
I0
sg62
I0
sg38
I0
sg39
I0
sg20
I0
sg21
I0
sg171
I0
sg30
I0
sg11
I0
sg57
I0
sg19
I0
sg16
I0
sg183
I0
sg26
I0
sg18
I0
sS'rib.n.01'
p203
I0
sg58
I0
sg17
I0
sg188
I0
sg42
I0
sg36
I0
sg25
I0
sg60
I0
sg54
I0
sg61
I0
sg37
I0
sg15
I0
sg34
I0
sg33
I0
sg10
I0
sg8
I0
sg14
I0
sg195
I0
sg41
I0
sg43
I0
sg56
I0
sg22
I0
sg23
I0
sg35
I0
ssg32
(dp204
g27
I0
sg29
I0
sg73
I0
sg47
I0
sg53
I0
sg24
I0
sg40
I0
sg46
I0
sg51
I0
sg68
I0
sg9
I0
sg14
I0
sg12
I0
sg28
I0
sg31
I0
sg13
I0
sg74
I0
sg45
I0
sg38
I0
sg39
I0
sg20
I0
sg21
I0
sg48
I0
sg30
I0
sg11
I0
sg69
I0
sg19
I0
sg16
I0
sg44
I0
sg26
I0
sg18
I0
sg59
I0
sg76
I0
sg17
I0
sg49
I0
sg42
I0
sg36
I0
sg25
I0
sg70
I0
sg50
I0
sS'stadium.n.01'
p205
I0
sg37
I0
sg15
I0
sg34
I0
sg33
I7
sg10
I0
sg8
I0
sg32
I0
sg52
I0
sg41
I0
sg43
I0
sg71
I0
sg22
I0
sg23
I0
sg35
I0
ssg28
(dp206
g27
I0
sg29
I4
sg63
I0
sg47
I0
sg53
I0
sg24
I0
sg40
I0
sg46
I0
sg51
I0
sg68
I0
sg9
I0
sg12
I0
sg32
I0
sg28
I3
sg31
I0
sg13
I0
sg62
I0
sg45
I0
sg38
I0
sg39
I0
sg20
I0
sg21
I0
sg48
I0
sg30
I0
sg11
I0
sg69
I0
sg19
I0
sg16
I0
sg44
I0
sg26
I0
sg18
I0
sg59
I0
sg103
I0
sg17
I0
sg49
I0
sg42
I0
sg36
I0
sg25
I0
sg70
I0
sg50
I0
sg61
I0
sg37
I0
sg15
I0
sg34
I0
sg33
I0
sg10
I0
sg8
I0
sg14
I0
sg52
I0
sg41
I0
sg43
I0
sg71
I0
sg22
I0
sg23
I0
sg35
I0
ssg31
(dp207
g27
I0
sg29
I0
sg63
I0
sg47
I0
sg53
I0
sg24
I0
sg40
I0
sg46
I0
sg51
I0
sg68
I0
sg9
I0
sg12
I0
sg32
I0
sg28
I0
sg31
I7
sg13
I0
sg62
I0
sg45
I0
sg38
I0
sg39
I0
sg20
I0
sg21
I0
sg48
I0
sg30
I0
sg11
I0
sg69
I0
sg19
I0
sg16
I0
sg44
I0
sg26
I0
sg18
I0
sg59
I0
sg103
I0
sg17
I0
sg49
I0
sg42
I0
sg36
I0
sg25
I0
sg70
I0
sg50
I0
sg61
I0
sg37
I0
sg15
I0
sg34
I0
sg33
I0
sg10
I0
sg8
I0
sg14
I0
sg52
I0
sg41
I0
sg43
I0
sg71
I0
sg22
I0
sg23
I0
sg35
I0
ssg13
(dp208
g27
I0
sg29
I0
sg63
I0
sg47
I0
sg53
I0
sg24
I0
sg40
I0
sg46
I0
sg51
I0
sg55
I0
sg9
I0
sg12
I0
sg32
I0
sg28
I0
sg31
I0
sg13
I14
sg62
I0
sg45
I0
sg38
I0
sg39
I0
sg20
I0
sg21
I0
sg48
I0
sg30
I0
sg11
I0
sg57
I0
sg19
I0
sg16
I0
sg44
I0
sg26
I0
sg18
I0
sg59
I0
sg58
I0
sg17
I0
sg49
I0
sg42
I0
sg36
I0
sg25
I0
sg60
I0
sg54
I0
sg50
I0
sg61
I0
sg37
I0
sg15
I0
sg34
I0
sg33
I0
sg10
I0
sg8
I0
sg14
I0
sg52
I0
sg41
I0
sg43
I0
sg56
I0
sg22
I0
sg23
I0
sg35
I0
ssg62
(dp209
g79
I0
sg63
I0
sg80
I0
sg81
I0
sg82
I0
sg83
I0
sg84
I0
sg85
I0
sg86
I0
sg87
I0
sg88
I0
sg62
I0
sg89
I0
sg90
I0
sg91
I0
sg92
I0
sg93
I0
sg94
I0
sg95
I0
sg96
I0
sg97
I0
sg98
I0
sg99
I0
sg100
I0
sg101
I0
sg102
I0
sg103
I0
sg104
I0
sg105
I0
sg106
I0
sg107
I0
sg108
I0
sg61
I0
sg109
I0
sg110
I0
sg111
I0
sg112
I0
sg113
I0
sg114
I0
sg115
I0
sg116
I0
sg117
I0
sg118
I0
sg119
I0
ssg45
(dp210
g121
I0
sg122
I0
sg53
I0
sg124
I0
sg125
I0
sg46
I0
sg51
I0
sg68
I0
sS'bowl.n.01'
p211
I0
sS'pizza.n.01'
p212
I0
sg128
I0
sg129
I0
sg130
I0
sg131
I0
sg45
I0
sg133
I0
sg134
I0
sg135
I0
sg136
I0
sg69
I0
sS'pepper.n.04'
p213
I0
sg138
I0
sS'banana.n.02'
p214
I0
sg44
I0
sg140
I0
sg48
I0
sg59
I0
sg141
I0
sg49
I0
sg142
I0
sg143
I0
sg144
I0
sg70
I0
sg50
I0
sg145
I0
sS'blender.n.01'
p215
I0
sg147
I0
sg148
I0
sg47
I0
sg149
I0
sg150
I0
sg52
I0
sg151
I0
sg152
I0
sg71
I0
sg153
I0
sg154
I0
ssg38
(dp216
g27
I0
sg29
I0
sg73
I0
sg192
I0
sg168
I0
sg24
I0
sg40
I0
sg180
I0
sg172
I0
sg55
I0
sg9
I0
sg12
I0
sg32
I0
sg28
I0
sg31
I0
sg13
I0
sg74
I0
sg38
I0
sg39
I0
sg20
I0
sg21
I0
sg171
I0
sg30
I0
sg11
I0
sg57
I0
sg19
I0
sg16
I0
sg26
I0
sg18
I0
sg203
I0
sg58
I0
sg17
I0
sg188
I0
sg42
I0
sg36
I0
sg25
I0
sg54
I0
sg37
I0
sg15
I0
sg34
I0
sg33
I0
sg10
I0
sg8
I0
sg14
I0
sg195
I0
sg41
I0
sg43
I0
sg56
I0
sg22
I0
sg23
I0
sg35
I0
ssg39
(dp217
g27
I0
sg29
I0
sg73
I0
sg47
I0
sg53
I0
sg24
I0
sg40
I0
sg46
I0
sg51
I0
sg55
I0
sg9
I0
sg12
I0
sg32
I0
sg28
I0
sg31
I0
sg13
I0
sg74
I0
sg45
I3
sg38
I0
sg39
I11
sg20
I0
sg21
I0
sg48
I0
sg30
I0
sg11
I0
sg57
I0
sg19
I0
sg16
I0
sg44
I0
sg26
I0
sg18
I0
sg59
I0
sg58
I0
sg17
I0
sg49
I0
sg42
I0
sg36
I0
sg25
I0
sg54
I0
sg50
I0
sg37
I0
sg15
I0
sg34
I0
sg33
I0
sg10
I0
sg8
I0
sg14
I0
sg52
I0
sg41
I0
sg43
I0
sg56
I0
sg22
I0
sg23
I0
sg35
I0
ssg20
(dp218
g27
I0
sg29
I0
sg63
I0
sg47
I0
sg53
I0
sg24
I0
sg40
I0
sg46
I0
sg51
I0
sg158
I0
sg9
I0
sg12
I0
sg32
I0
sg28
I0
sg31
I0
sg13
I0
sg62
I0
sg45
I0
sg38
I0
sg39
I0
sg20
I1
sg21
I6
sg48
I0
sg30
I0
sg11
I0
sg159
I0
sg19
I0
sg16
I0
sg44
I0
sg26
I0
sg18
I0
sg160
I0
sg17
I0
sg49
I0
sg42
I0
sg36
I0
sg25
I0
sg60
I0
sg161
I0
sg50
I0
sg61
I0
sg37
I0
sg15
I0
sg34
I0
sg33
I0
sg10
I0
sg8
I0
sg14
I0
sg52
I0
sg41
I0
sg43
I0
sg162
I0
sg22
I0
sg23
I0
sg35
I0
ssg21
(dp219
g27
I0
sg29
I0
sg63
I0
sg47
I0
sg53
I0
sg24
I0
sg40
I0
sg46
I0
sg51
I0
sg9
I0
sg12
I0
sg32
I0
sg28
I0
sg31
I0
sg13
I0
sg62
I0
sg45
I0
sg38
I0
sg39
I0
sg20
I0
sg21
I0
sg48
I0
sg30
I0
sg11
I0
sg101
I0
sg19
I0
sg16
I0
sg44
I0
sg26
I0
sg18
I0
sg103
I0
sg17
I0
sg49
I0
sg42
I0
sg36
I0
sg25
I0
sg50
I0
sg61
I0
sg37
I0
sg15
I0
sg34
I0
sg33
I0
sg10
I0
sg8
I0
sg14
I0
sg52
I0
sg41
I0
sg43
I0
sg116
I0
sg22
I0
sg23
I0
sg35
I0
ssg48
(dp220
g121
I0
sg122
I0
sg63
I0
sg123
I0
sg53
I0
sg124
I0
sg125
I0
sg48
I7
sg51
I0
sg55
I0
sg126
I0
sg127
I0
sg128
I0
sg129
I0
sg130
I0
sg131
I0
sg62
I0
sg45
I0
sg132
I0
sg133
I0
sg134
I0
sg135
I0
sg136
I0
sg137
I0
sg57
I0
sg138
I0
sg139
I0
sg44
I0
sg140
I0
sg102
I0
sg59
I0
sg58
I0
sg141
I0
sg49
I0
sg142
I0
sg143
I0
sg144
I0
sg60
I0
sg54
I0
sg50
I0
sg61
I0
sg145
I0
sg146
I0
sg147
I0
sg148
I0
sg47
I0
sg149
I0
sg150
I0
sg52
I0
sg151
I0
sg152
I0
sg46
I0
sg56
I0
sg153
I0
sg154
I0
sg155
I0
ssg30
(dp221
g27
I0
sg29
I0
sg63
I0
sg47
I0
sg53
I0
sg24
I0
sg40
I0
sg46
I0
sg51
I0
sg68
I0
sg9
I0
sg12
I0
sg32
I0
sg28
I0
sg31
I0
sg13
I0
sg62
I0
sg45
I0
sg38
I0
sg39
I0
sg20
I0
sg21
I0
sg48
I0
sg30
I7
sg11
I0
sg69
I0
sg19
I0
sg16
I0
sg44
I0
sg26
I0
sg18
I0
sg59
I0
sg103
I0
sg17
I0
sg49
I0
sg42
I0
sg36
I0
sg25
I0
sg70
I0
sg50
I0
sg61
I0
sg37
I0
sg15
I0
sg34
I0
sg33
I0
sg10
I0
sg8
I0
sg14
I0
sg52
I0
sg41
I0
sg43
I0
sg71
I0
sg22
I0
sg23
I0
sg35
I0
ssg11
(dp222
g27
I0
sg29
I0
sg63
I0
sg192
I0
sg168
I0
sg24
I0
sg40
I0
sg180
I0
sg172
I0
sg55
I0
sg9
I0
sg12
I0
sg32
I0
sg28
I0
sg31
I0
sg13
I0
sg62
I0
sg38
I0
sg39
I0
sg20
I0
sg21
I0
sg171
I0
sg30
I0
sg11
I7
sg57
I0
sg19
I0
sg16
I0
sg183
I0
sg26
I0
sg18
I0
sg203
I0
sg58
I0
sg17
I0
sg188
I0
sg42
I0
sg36
I0
sg25
I0
sg60
I0
sg54
I0
sg61
I0
sg37
I0
sg15
I0
sg34
I0
sg33
I0
sg10
I0
sg8
I0
sg14
I0
sg195
I0
sg41
I0
sg43
I0
sg56
I0
sg22
I0
sg23
I0
sg35
I0
ssg57
(dp223
g167
I0
sg79
I0
sg63
I0
sg123
I0
sg168
I0
sg169
I0
sg170
I0
sg171
I0
sg172
I0
sg55
I0
sg126
I0
sg155
I0
sg173
I0
sg174
I0
sg175
I0
sg176
I0
sg62
I0
sg177
I0
sg132
I0
sg178
I0
sg179
I0
sg95
I0
sg180
I0
sg137
I0
sg181
I0
sg182
I0
sg139
I0
sg183
I0
sg57
I0
sg102
I0
sg59
I2
sg58
I5
sg184
I0
sg54
I0
sg185
I0
sg186
I0
sg187
I0
sg60
I0
sg188
I0
sg61
I0
sg189
I0
sg146
I0
sg190
I0
sg191
I0
sg192
I0
sg193
I0
sg127
I0
sg194
I0
sg195
I0
sg196
I0
sg197
I0
sg56
I0
sg198
I0
sg199
I0
sg200
I0
ssg19
(dp224
g27
I0
sg29
I0
sg63
I0
sg47
I0
sg53
I0
sg24
I0
sg40
I0
sg46
I0
sg51
I0
sg55
I0
sg9
I0
sg12
I0
sg32
I0
sg28
I0
sg31
I0
sg13
I0
sg62
I0
sg45
I0
sg38
I0
sg39
I0
sg20
I0
sg21
I0
sg48
I0
sg30
I0
sg11
I0
sg57
I0
sg19
I12
sg16
I0
sg44
I2
sg26
I0
sg18
I0
sg59
I0
sg58
I0
sg17
I0
sg49
I0
sg42
I0
sg36
I0
sg25
I0
sg60
I0
sg54
I0
sg50
I0
sg61
I0
sg37
I0
sg15
I0
sg34
I0
sg33
I0
sg10
I0
sg8
I0
sg14
I0
sg52
I0
sg41
I0
sg43
I0
sg56
I0
sg22
I0
sg23
I0
sg35
I0
ssg16
(dp225
g27
I0
sg29
I0
sg63
I0
sg192
I0
sg168
I0
sg24
I0
sg40
I0
sg180
I0
sg172
I0
sg55
I0
sg9
I0
sg12
I0
sg32
I0
sg28
I0
sg31
I0
sg13
I0
sg62
I0
sS'microwave.n.01'
p226
I0
sg38
I0
sg39
I0
sg20
I0
sg21
I0
sg171
I0
sg30
I0
sg11
I0
sg57
I0
sg19
I0
sg16
I7
sg183
I0
sg26
I0
sg18
I0
sg58
I0
sg17
I0
sg188
I0
sg42
I0
sg36
I0
sg25
I0
sg60
I0
sg54
I0
sS'paste.n.03'
p227
I0
sg61
I0
sg37
I0
sg15
I0
sg34
I0
sg33
I0
sg10
I0
sg8
I0
sg14
I0
sg195
I0
sg41
I0
sg43
I0
sg56
I0
sg22
I0
sg23
I0
sg35
I0
ssg44
(dp228
g121
I0
sg122
I0
sS'rice.n.01'
p229
I0
sg53
I0
sg124
I0
sg125
I0
sg46
I0
sg51
I0
sg158
I0
sS'bowl.n.01'
p230
I0
sS'pizza.n.01'
p231
I0
sg128
I0
sg129
I0
sg130
I0
sg131
I0
sg45
I0
sg133
I0
sg134
I0
sg135
I0
sg136
I0
sS'spoon.n.01'
p232
I0
sg159
I0
sg138
I0
sS'banana.n.02'
p233
I0
sg44
I0
sg140
I0
sg48
I0
sg160
I0
sg141
I0
sg49
I0
sg142
I0
sg143
I0
sg144
I0
sg60
I0
sg161
I0
sg50
I0
sg145
I0
sS'blender.n.01'
p234
I0
sg147
I0
sg148
I0
sg47
I0
sg149
I0
sg150
I0
sg52
I0
sg151
I0
sg152
I0
sg162
I0
sg153
I0
sg154
I0
sS'batter.n.02'
p235
I0
ssg26
(dp236
g27
I7
sg29
I0
sg63
I6
sg47
I0
sg53
I0
sg24
I0
sg40
I0
sg46
I0
sg51
I0
sg68
I0
sg9
I0
sg12
I0
sg32
I0
sg28
I0
sg31
I0
sg13
I0
sg62
I0
sg45
I0
sg38
I0
sg39
I0
sg20
I0
sg21
I0
sg48
I0
sg30
I0
sg11
I0
sg69
I0
sg19
I0
sg16
I0
sg44
I0
sg26
I1
sg18
I0
sg59
I0
sg160
I0
sg17
I0
sg49
I0
sg42
I0
sg36
I0
sg25
I0
sg60
I0
sg70
I0
sg50
I0
sg61
I0
sg37
I0
sg15
I0
sg34
I0
sg33
I0
sg10
I0
sg8
I0
sg14
I0
sg52
I0
sg41
I0
sg43
I0
sg71
I0
sg22
I0
sg23
I0
sg35
I0
ssg18
(dp237
g27
I0
sg29
I0
sg63
I0
sg113
I0
sg81
I0
sg24
I0
sg40
I0
sg84
I0
sg85
I0
sg9
I0
sg12
I0
sg32
I0
sg28
I0
sg31
I0
sg13
I0
sg62
I0
sg226
I0
sg38
I0
sg39
I0
sg20
I0
sg21
I0
sg30
I0
sg11
I0
sg101
I0
sg19
I0
sg16
I0
sg26
I0
sg18
I0
sg103
I0
sg17
I0
sg105
I0
sg42
I0
sg36
I0
sg25
I0
sg227
I0
sg61
I0
sg37
I0
sg15
I0
sg34
I0
sg33
I0
sg10
I0
sg8
I0
sg14
I0
sg106
I0
sg41
I0
sg43
I0
sg116
I0
sg22
I0
sg23
I0
sg35
I0
ssg59
(dp238
g167
I0
sS'rice.n.01'
p239
I0
sS'chicken.n.01'
p240
I0
sS'soup.n.01'
p241
I0
sS'refrigerator.n.01'
p242
I0
sS'bread.n.01'
p243
I0
sg68
I0
sg211
I0
sg200
I0
sg194
I0
sg175
I0
sS'pan.n.03'
p244
I0
sg174
I0
sg177
I0
sS'microwave.n.02'
p245
I0
sS'patty.n.01'
p246
I0
sS'spoon.n.01'
p247
I0
sg69
I0
sS'salt.n.02'
p248
I0
sS'countenance.n.03'
p249
I0
sg181
I0
sg59
I0
sS'spread.n.05'
p250
I0
sS'whipped_cream.n.01'
p251
I0
sS'oven.n.01'
p252
I0
sg70
I0
sS'mug.n.04'
p253
I0
sg191
I0
sS'jam.n.01'
p254
I0
sS'put.v.01'
p255
I0
sg173
I0
sS'steak.n.01'
p256
I0
sS'cake.n.03'
p257
I0
sS'french_fries.n.01'
p258
I0
sg71
I0
sg198
I0
sS'batter.n.02'
p259
I0
ssg58
(dp260
g79
I0
sg63
I0
sg123
I0
sg168
I0
sg169
I0
sg170
I0
sg171
I0
sg172
I0
sg55
I0
sg126
I0
sg155
I0
sg88
I0
sg62
I0
sg89
I0
sg176
I0
sg91
I0
sg132
I0
sg178
I0
sg179
I0
sg95
I0
sg180
I0
sg137
I0
sg60
I0
sS'plate.n.04'
p261
I0
sg182
I0
sg139
I0
sg183
I0
sg57
I0
sg102
I0
sg58
I0
sg184
I0
sg54
I0
sg185
I0
sg186
I0
sg187
I0
sg188
I0
sg61
I0
sg189
I0
sg146
I0
sg111
I0
sg112
I0
sg192
I0
sg193
I0
sg127
I0
sg96
I0
sg195
I0
sg196
I0
sg197
I0
sg56
I0
sg190
I0
sg199
I0
sg119
I0
ssg17
(dp262
g27
I0
sg29
I0
sg63
I0
sg47
I0
sg53
I0
sg24
I0
sg40
I0
sg46
I0
sg51
I0
sg158
I0
sg9
I0
sg12
I0
sg32
I0
sg28
I0
sg31
I0
sg13
I0
sg62
I0
sg45
I0
sg38
I0
sg39
I0
sg20
I0
sg21
I0
sg48
I0
sg30
I0
sg11
I0
sg159
I0
sg19
I0
sg16
I0
sg44
I0
sg26
I0
sg18
I5
sg160
I0
sg17
I1
sg49
I0
sg42
I0
sg36
I0
sg25
I0
sg60
I1
sg161
I0
sg50
I0
sg61
I0
sg37
I0
sg15
I0
sg34
I0
sg33
I0
sg10
I0
sg8
I0
sg14
I0
sg52
I0
sg41
I0
sg43
I0
sg162
I0
sg22
I0
sg23
I0
sg35
I0
ssg49
(dp263
g121
I0
sg122
I0
sg63
I0
sg123
I0
sg53
I0
sg124
I0
sg125
I0
sg46
I0
sg51
I0
sg55
I0
sg126
I0
sg127
I0
sg128
I0
sg129
I0
sg130
I0
sg131
I0
sg62
I0
sg45
I0
sg132
I0
sg133
I0
sg134
I0
sg135
I0
sg136
I0
sg137
I0
sg57
I0
sg102
I0
sg138
I0
sg139
I0
sg44
I0
sg140
I0
sg48
I0
sg59
I0
sg58
I0
sg141
I0
sg49
I5
sg142
I0
sg143
I0
sg144
I0
sg60
I0
sg54
I0
sg50
I2
sg61
I0
sg145
I0
sg146
I0
sg147
I0
sg148
I0
sg47
I0
sg149
I0
sg150
I0
sg52
I0
sg151
I0
sg152
I0
sg56
I0
sg153
I0
sg154
I0
sg155
I0
ssg42
(dp264
g27
I0
sg29
I0
sg47
I0
sg53
I0
sg24
I0
sg40
I0
sg46
I0
sg51
I0
sg55
I0
sg9
I0
sg12
I0
sg32
I0
sg28
I0
sg31
I0
sg13
I0
sg45
I0
sg38
I0
sg39
I0
sg20
I0
sg21
I0
sg48
I0
sg30
I0
sg11
I0
sg57
I0
sg19
I0
sg16
I0
sg44
I0
sg26
I0
sg18
I0
sg59
I0
sg58
I0
sg17
I0
sg49
I0
sg42
I7
sg36
I0
sg25
I0
sg60
I0
sg54
I0
sg50
I0
sg37
I0
sg15
I0
sg34
I0
sg33
I0
sg10
I0
sg8
I0
sg14
I0
sg52
I0
sg41
I0
sg43
I0
sg56
I0
sg22
I0
sg23
I0
sg35
I0
ssg36
(dp265
g27
I0
sg29
I0
sg63
I0
sg47
I0
sg53
I0
sg24
I0
sg40
I0
sg46
I0
sg51
I0
sg55
I0
sg9
I0
sg12
I0
sg32
I0
sg28
I0
sg31
I0
sg13
I0
sg62
I0
sg45
I0
sg38
I0
sg39
I0
sg20
I0
sg21
I0
sg48
I0
sg30
I0
sg11
I0
sg57
I0
sg19
I0
sg16
I0
sg44
I0
sg26
I0
sg18
I0
sg59
I0
sg58
I0
sg17
I0
sg49
I0
sg42
I0
sg36
I14
sg25
I0
sg60
I0
sg54
I0
sg50
I0
sg61
I0
sg37
I0
sg15
I0
sg34
I0
sg33
I0
sg10
I0
sg8
I0
sg14
I0
sg52
I0
sg41
I0
sg43
I0
sg56
I0
sg22
I0
sg23
I0
sg35
I0
ssg25
(dp266
g27
I0
sg29
I0
sg63
I0
sg47
I0
sg53
I0
sg24
I0
sg40
I0
sg46
I0
sg51
I0
sg158
I0
sg9
I0
sg12
I0
sg32
I0
sg28
I0
sg31
I0
sg13
I0
sg62
I0
sg45
I0
sg38
I0
sg39
I0
sg20
I0
sg21
I0
sg48
I0
sg30
I0
sg11
I0
sg159
I0
sg19
I0
sg16
I0
sg44
I0
sg26
I0
sg18
I0
sg160
I0
sg17
I0
sg49
I0
sg42
I0
sg36
I0
sg25
I0
sg60
I0
sg161
I0
sg50
I0
sg61
I0
sg37
I0
sg15
I0
sg34
I0
sg33
I0
sg10
I0
sg8
I0
sg14
I0
sg52
I0
sg41
I0
sg43
I0
sg162
I0
sg22
I0
sg23
I0
sg35
I0
ssg60
(dp267
g229
I0
sS'chicken.n.01'
p268
I0
sg169
I0
sS'refrigerator.n.01'
p269
I0
sS'bread.n.01'
p270
I0
sg158
I0
sg230
I0
sg235
I0
sS'pan.n.03'
p271
I0
sg179
I0
sS'patty.n.01'
p272
I0
sg232
I0
sg60
I0
sg261
I0
sS'salt.n.02'
p273
I0
sg233
I0
sg183
I0
sg159
I0
sg160
I0
sg184
I0
sg161
I0
sS'whipped_cream.n.01'
p274
I0
sS'oven.n.01'
p275
I0
sg187
I0
sS'spread.n.05'
p276
I0
sg234
I0
sS'jam.n.01'
p277
I0
sS'put.v.01'
p278
I0
sg231
I0
sS'steak.n.01'
p279
I0
sS'cake.n.03'
p280
I0
sS'french_fries.n.01'
p281
I0
sg162
I0
sg190
I0
sg199
I0
ssg54
(dp282
g167
I0
sg123
I0
sg168
I0
sg169
I0
sg170
I0
sg171
I0
sg172
I0
sg55
I0
sg126
I0
sg155
I0
sg173
I0
sg174
I0
sg175
I0
sg176
I0
sg177
I0
sg132
I0
sg178
I0
sg179
I0
sg180
I0
sg137
I0
sg181
I0
sg182
I0
sg139
I0
sg183
I0
sg57
I0
sg59
I0
sg58
I0
sg184
I0
sg54
I0
sg185
I0
sg186
I0
sg187
I0
sg60
I0
sg188
I0
sg189
I0
sg146
I0
sg190
I0
sg191
I0
sg192
I0
sg193
I0
sg127
I0
sg194
I0
sg195
I0
sg196
I0
sg197
I0
sg56
I0
sg198
I0
sg199
I0
sg200
I0
ssg50
(dp283
g121
I0
sg122
I0
sg53
I0
sg124
I0
sg125
I0
sg46
I0
sg51
I0
sg212
I0
sg128
I0
sg129
I0
sg130
I0
sg131
I0
sg45
I0
sg133
I0
sg134
I0
sg135
I0
sg136
I0
sg213
I0
sg138
I0
sg214
I0
sg44
I0
sg140
I0
sg48
I0
sg141
I0
sg49
I0
sg142
I0
sg143
I0
sg144
I0
sg50
I0
sg145
I0
sg215
I0
sg147
I0
sg148
I0
sg47
I0
sg149
I0
sg150
I0
sg52
I0
sg151
I0
sg152
I0
sg153
I0
sg154
I0
ssg61
(dp284
g63
I0
sg80
I0
sg81
I0
sg82
I0
sg84
I0
sg85
I0
sg86
I0
sg87
I0
sS'dressing.n.01'
p285
I0
sg62
I0
sg89
I0
sg90
I0
sg91
I0
sg94
I0
sg95
I0
sg96
I0
sg97
I0
sg98
I0
sg99
I0
sg100
I0
sg101
I0
sg102
I0
sg103
I0
sg104
I0
sg105
I0
sg106
I0
sg107
I0
sg108
I0
sg61
I0
sg110
I0
sS'salad.n.01'
p286
I0
sS'dressing.n.04'
p287
I0
sg113
I0
sg114
I0
sg115
I0
sg116
I0
sg117
I0
sg118
I0
sS'dish.n.02'
p288
I0
ssg37
(dp289
g27
I0
sg29
I0
sg73
I0
sg47
I0
sg53
I0
sg24
I0
sg40
I0
sg46
I0
sg51
I0
sg55
I0
sg9
I0
sg12
I0
sg32
I0
sg28
I0
sg31
I0
sg13
I0
sg74
I0
sg45
I0
sg38
I4
sg39
I0
sg20
I0
sg21
I0
sg48
I0
sg30
I0
sg11
I0
sg57
I0
sg19
I0
sg16
I0
sg44
I0
sg26
I0
sg18
I0
sg59
I0
sg58
I0
sg17
I0
sg49
I0
sg42
I0
sg36
I0
sg25
I0
sg54
I0
sg50
I0
sg37
I3
sg15
I0
sg34
I0
sg33
I0
sg10
I0
sg8
I0
sg14
I0
sg52
I0
sg41
I0
sg43
I0
sg56
I0
sg22
I0
sg23
I0
sg35
I0
ssg15
(dp290
g27
I0
sg29
I0
sg63
I0
sg192
I0
sg168
I0
sg24
I0
sg40
I0
sg180
I0
sg172
I0
sg55
I0
sg9
I0
sg12
I0
sg32
I0
sg28
I0
sg31
I0
sg13
I0
sg62
I0
sg226
I0
sg38
I0
sg39
I0
sg20
I0
sg21
I0
sg171
I0
sg30
I0
sg11
I0
sg57
I0
sg19
I0
sg16
I0
sg183
I0
sg26
I0
sg18
I0
sg58
I0
sg17
I0
sg188
I0
sg42
I0
sg36
I0
sg25
I0
sg60
I0
sg54
I0
sg227
I0
sg61
I0
sg37
I0
sg15
I7
sg34
I0
sg33
I0
sg10
I0
sg8
I0
sg14
I0
sg195
I0
sg41
I0
sg43
I0
sg56
I0
sg22
I0
sg23
I0
sg35
I0
ssg34
(dp291
g27
I0
sg29
I0
sg73
I0
sg47
I0
sg53
I0
sg24
I0
sg40
I0
sg46
I0
sg51
I0
sg68
I0
sg9
I0
sg12
I0
sg32
I0
sg28
I0
sg31
I0
sg13
I0
sg74
I0
sg45
I0
sg38
I0
sg39
I0
sg20
I0
sg21
I0
sg48
I0
sg30
I0
sg11
I0
sg69
I0
sg19
I0
sg16
I0
sg44
I0
sg26
I0
sg18
I0
sg59
I0
sg76
I0
sg17
I0
sg49
I0
sg42
I0
sg36
I0
sg25
I0
sg70
I0
sg50
I0
sg205
I0
sg37
I0
sg15
I0
sg34
I7
sg33
I0
sg10
I0
sg8
I0
sg14
I0
sg52
I0
sg41
I0
sg43
I0
sg71
I0
sg22
I0
sg23
I0
sg35
I0
ssg33
(dp292
g27
I0
sg29
I0
sg73
I0
sg47
I0
sg53
I0
sg24
I0
sg40
I0
sg46
I0
sg51
I0
sg68
I0
sg9
I0
sg12
I0
sg32
I0
sg28
I0
sg31
I0
sg13
I0
sg74
I0
sg45
I0
sg38
I0
sg39
I0
sg20
I0
sg21
I0
sg48
I0
sg30
I0
sg11
I0
sg69
I0
sg19
I0
sg16
I0
sg44
I0
sg26
I0
sg18
I0
sg59
I0
sg76
I0
sg17
I0
sg49
I0
sg42
I0
sg36
I0
sg25
I0
sg70
I0
sg50
I0
sg205
I0
sg37
I0
sg15
I0
sg34
I0
sg33
I0
sg10
I0
sg8
I0
sg14
I0
sg52
I0
sg41
I0
sg43
I0
sg71
I0
sg22
I0
sg23
I0
sg35
I0
ssg10
(dp293
g27
I0
sg29
I0
sg63
I0
sg192
I0
sg168
I0
sg24
I0
sg40
I0
sg180
I0
sg172
I0
sg55
I0
sg9
I0
sg12
I0
sg32
I0
sg28
I0
sg31
I0
sg13
I0
sg62
I0
sg38
I0
sg39
I0
sg20
I0
sg21
I0
sg171
I0
sg30
I0
sg11
I0
sg57
I0
sg19
I0
sg16
I0
sg183
I0
sg26
I0
sg18
I0
sg203
I0
sg58
I0
sg17
I0
sg188
I0
sg42
I0
sg36
I0
sg25
I0
sg60
I0
sg54
I0
sg61
I0
sg37
I0
sg15
I0
sg34
I0
sg33
I0
sg10
I7
sg8
I0
sg14
I0
sg195
I0
sg41
I0
sg43
I0
sg56
I0
sg22
I0
sg23
I0
sg35
I0
ssg8
(dp294
g27
I0
sg29
I0
sg63
I0
sg47
I0
sg53
I0
sg24
I0
sg40
I0
sg46
I0
sg51
I0
sg55
I0
sg9
I0
sg12
I0
sg32
I0
sg28
I0
sg31
I0
sg13
I0
sg62
I0
sg45
I0
sg38
I0
sg39
I0
sg20
I0
sg21
I0
sg48
I0
sg30
I0
sg11
I0
sg57
I0
sg19
I0
sg16
I0
sg44
I0
sg26
I0
sg18
I0
sg59
I0
sg58
I0
sg17
I0
sg49
I0
sg42
I0
sg36
I0
sg25
I0
sg60
I0
sg54
I0
sg50
I0
sg61
I0
sg37
I0
sg15
I0
sg34
I0
sg33
I0
sg10
I0
sg8
I140
sg14
I0
sg52
I0
sg41
I0
sg43
I0
sg56
I0
sg22
I0
sg23
I0
sg35
I0
ssg14
(dp295
g27
I0
sg29
I0
sg63
I0
sg192
I0
sg168
I0
sg24
I0
sg40
I0
sg180
I0
sg172
I0
sg55
I0
sg9
I0
sg12
I0
sg32
I0
sg28
I0
sg31
I0
sg13
I0
sg62
I0
sg226
I0
sg38
I0
sg39
I0
sg20
I0
sg21
I0
sg171
I0
sg30
I0
sg11
I0
sg57
I0
sg19
I0
sg16
I0
sg183
I0
sg26
I0
sg18
I0
sg58
I0
sg17
I0
sg188
I0
sg42
I0
sg36
I0
sg25
I0
sg60
I0
sg54
I0
sg227
I0
sg61
I0
sg37
I0
sg15
I0
sg34
I0
sg33
I0
sg10
I0
sg8
I0
sg14
I7
sg195
I0
sg41
I0
sg43
I0
sg56
I0
sg22
I0
sg23
I0
sg35
I0
ssg52
(dp296
g121
I0
sg122
I0
sg63
I0
sg123
I0
sg53
I0
sg124
I0
sg125
I0
sg46
I0
sg51
I0
sg55
I0
sg126
I0
sg127
I0
sg128
I0
sg129
I0
sg130
I0
sg131
I0
sg62
I0
sg45
I0
sg132
I0
sg133
I0
sg134
I0
sg135
I0
sg136
I0
sg137
I0
sg57
I0
sg102
I0
sg138
I0
sg139
I0
sg44
I0
sg140
I0
sg48
I0
sg59
I0
sg58
I0
sg141
I0
sg49
I0
sg52
I7
sg143
I0
sg144
I0
sg60
I0
sg54
I0
sg50
I0
sg61
I0
sg145
I0
sg146
I0
sg147
I0
sg148
I0
sg47
I0
sg149
I0
sg150
I0
sg142
I0
sg151
I0
sg152
I0
sg56
I0
sg153
I0
sg154
I0
sg155
I0
ssg41
(dp297
g27
I0
sg29
I0
sg47
I0
sg53
I0
sg24
I0
sg40
I0
sg46
I5
sg51
I0
sg55
I0
sg9
I0
sg12
I0
sg32
I0
sg28
I0
sg31
I0
sg13
I0
sg45
I0
sg38
I0
sg39
I0
sg20
I0
sg21
I0
sg48
I0
sg30
I0
sg11
I0
sg57
I0
sg19
I0
sg16
I0
sg44
I0
sg26
I0
sg18
I0
sg59
I0
sg58
I0
sg17
I0
sg49
I0
sg42
I0
sg36
I0
sg25
I0
sg60
I0
sg54
I0
sg50
I0
sg37
I0
sg15
I0
sg34
I0
sg33
I0
sg10
I0
sg8
I0
sg14
I0
sg52
I0
sg41
I2
sg43
I0
sg56
I0
sg22
I0
sg23
I0
sg35
I0
ssg43
(dp298
g27
I0
sg29
I0
sg47
I0
sg53
I0
sg24
I0
sg40
I0
sg46
I0
sg51
I0
sg55
I0
sg9
I0
sg12
I0
sg32
I0
sg28
I0
sg31
I0
sg13
I0
sg45
I0
sg38
I0
sg39
I0
sg20
I0
sg21
I0
sg48
I0
sg30
I0
sg11
I0
sg57
I0
sg19
I0
sg16
I0
sg44
I0
sg26
I0
sg18
I0
sg59
I0
sg58
I0
sg17
I0
sg49
I0
sg42
I0
sg36
I0
sg25
I0
sg60
I0
sg54
I0
sg50
I0
sg37
I0
sg15
I0
sg34
I0
sg33
I0
sg10
I0
sg8
I0
sg14
I0
sg52
I0
sg41
I0
sg43
I7
sg56
I0
sg22
I0
sg23
I0
sg35
I0
ssg56
(dp299
g167
I0
sg79
I0
sg63
I0
sg123
I0
sg168
I0
sg169
I0
sg170
I0
sg171
I0
sg172
I0
sg55
I0
sg126
I0
sg155
I0
sg173
I0
sg174
I0
sg175
I0
sg176
I0
sg62
I0
sg177
I0
sg132
I0
sg178
I0
sg179
I0
sg95
I0
sg180
I0
sg137
I0
sg181
I0
sg182
I0
sg139
I0
sg183
I0
sg57
I0
sg102
I0
sg59
I0
sg58
I0
sg184
I0
sg188
I0
sg185
I0
sg186
I0
sg187
I0
sg60
I0
sg54
I0
sg61
I0
sg189
I0
sg146
I0
sg190
I0
sg191
I0
sg192
I0
sg193
I0
sg127
I0
sg194
I0
sg195
I0
sg196
I0
sg197
I0
sg56
I7
sg198
I0
sg199
I0
sg200
I0
ssg22
(dp300
g27
I0
sg29
I0
sg63
I0
sg47
I0
sg53
I0
sg24
I0
sg40
I0
sg46
I0
sg51
I0
sg158
I0
sg9
I0
sg12
I0
sg32
I0
sg28
I0
sg31
I0
sg13
I0
sg62
I0
sg45
I0
sg38
I0
sg39
I0
sg20
I0
sg21
I0
sg48
I0
sg30
I0
sg11
I0
sg159
I0
sg19
I0
sg16
I0
sg44
I0
sg26
I0
sg18
I0
sg160
I0
sg17
I0
sg49
I0
sg42
I0
sg36
I0
sg25
I0
sg60
I0
sg161
I0
sg50
I0
sg61
I0
sg37
I0
sg15
I0
sg34
I0
sg33
I0
sg10
I0
sg8
I0
sg14
I0
sg52
I0
sg41
I0
sg43
I0
sg162
I0
sg22
I0
sg23
I7
sg35
I0
ssg23
(dp301
g27
I0
sg29
I0
sg63
I0
sg47
I0
sg53
I0
sg24
I0
sg40
I0
sg46
I0
sg51
I0
sg158
I0
sg9
I0
sg12
I0
sg32
I0
sg28
I0
sg31
I0
sg13
I0
sg62
I0
sg45
I0
sg38
I0
sg39
I0
sg20
I0
sg21
I0
sg48
I0
sg30
I0
sg11
I0
sg159
I0
sg19
I0
sg16
I0
sg44
I0
sg26
I0
sg18
I0
sg160
I0
sg17
I0
sg49
I0
sg42
I0
sg36
I0
sg25
I0
sg60
I0
sg161
I0
sg50
I0
sg61
I0
sg37
I0
sg15
I0
sg34
I0
sg33
I0
sg10
I0
sg8
I0
sg14
I0
sg52
I0
sg41
I0
sg43
I0
sg162
I0
sg22
I0
sg23
I0
sg35
I0
ssg35
(dp302
g27
I0
sg29
I0
sg73
I0
sg47
I0
sg53
I0
sg24
I0
sg40
I0
sg46
I0
sg51
I0
sg68
I0
sg9
I0
sg35
I7
sg32
I0
sg28
I0
sg31
I0
sg13
I0
sg74
I0
sg45
I0
sg38
I0
sg39
I0
sg20
I0
sg21
I0
sg48
I0
sg30
I0
sg11
I0
sg69
I0
sg19
I0
sg16
I0
sg44
I0
sg26
I0
sg18
I0
sg59
I0
sg76
I0
sg17
I0
sg49
I0
sg42
I0
sg36
I0
sg25
I0
sg70
I0
sg50
I0
sg205
I0
sg37
I0
sg15
I0
sg34
I0
sg33
I0
sg10
I0
sg8
I0
sg14
I0
sg52
I0
sg41
I0
sg43
I0
sg71
I0
sg22
I0
sg23
I0
sg12
I0
sssb.