ccopy_reg
_reconstructor
p0
(cutils.eval
ConfusionMatrix
p1
c__builtin__
object
p2
Ntp3
Rp4
(dp5
S'labels'
p6
(lp7
S'fill.v.01'
p8
aS'pitcher.n.02'
p9
aS'milk.n.01'
p10
aS'foam.n.01'
p11
aS'mug.n.04'
p12
aS'flesh.n.01'
p13
aS'slice.v.03'
p14
aS'slice.v.02'
p15
aS'knife.n.01'
p16
aS'knife.n.02'
p17
aS'banana.n.02'
p18
aS'cheese.n.01'
p19
aS'piece.n.08'
p20
aS'slice.n.06'
p21
aS'pizza.n.01'
p22
aS'kettle.n.01'
p23
aS'water.n.06'
p24
aS'opening.n.01'
p25
aS'gap.n.03'
p26
aS'fill.v.09'
p27
aS'batter.n.02'
p28
aS'catsup.n.01'
p29
aS'tomato.n.01'
p30
aS'tomato.n.02'
p31
aS'onion.n.03'
p32
aS'mustard.n.02'
p33
asS'instanceCount'
p34
I27
sS'matrix'
p35
(dp36
g19
(dp37
S'cheese.n.01'
p38
I1
ssg28
(dp39
S'batter.n.02'
p40
I1
ssg11
(dp41
S'foam.n.01'
p42
I1
ssg10
(dp43
S'milk.n.01'
p44
I1
ssg33
(dp45
S'mustard.n.02'
p46
I1
ssg26
(dp47
g26
I0
ssg27
(dp48
S'fill.v.01'
p49
I1
ssg31
(dp50
g31
I0
ssg30
(dp51
g31
I1
ssg8
(dp52
S'fill.v.01'
p53
I3
ssg9
(dp54
S'pitcher.n.02'
p55
I1
ssg15
(dp56
g15
I0
ssg14
(dp57
g15
I4
ssg16
(dp58
g17
I1
ssg18
(dp59
S'banana.n.02'
p60
I1
ssg17
(dp61
g17
I0
ssg29
(dp62
S'catsup.n.01'
p63
I1
ssg20
(dp64
g21
I2
ssg25
(dp65
g26
I1
ssg12
(dp66
S'mug.n.04'
p67
I1
ssg13
(dp68
S'flesh.n.01'
p69
I1
ssg21
(dp70
g21
I0
ssg24
(dp71
S'water.n.06'
p72
I1
ssg22
(dp73
S'pizza.n.01'
p74
I1
ssg23
(dp75
S'kettle.n.01'
p76
I1
ssg32
(dp77
S'onion.n.03'
p78
I1
sssb.