ccopy_reg
_reconstructor
p0
(cutils.eval
ConfusionMatrix
p1
c__builtin__
object
p2
Ntp3
Rp4
(dp5
S'labels'
p6
(lp7
S'piece.n.08'
p8
aS'slice.n.01'
p9
aS'pizza.n.01'
p10
aS'slice.v.03'
p11
aS'fill.v.01'
p12
aS'meet.v.04'
p13
aS'kettle.n.01'
p14
aS'kettle.n.02'
p15
aS'water.n.06'
p16
aS'water.n.03'
p17
aS'opening.n.01'
p18
aS'gap.n.05'
p19
aS'fill.v.09'
p20
aS'batter.n.02'
p21
aS'tomato.n.01'
p22
aS'tomato.n.02'
p23
aS'slice.n.04'
p24
aS'onion.n.03'
p25
aS'onion.n.02'
p26
aS'mustard.n.02'
p27
aS'mustard.n.01'
p28
aS'pan.n.01'
p29
aS'pan.n.02'
p30
aS'pitcher.n.02'
p31
aS'pitcher.n.05'
p32
aS'milk.n.01'
p33
aS'milk.n.04'
p34
aS'mug.n.04'
p35
aS'flesh.n.01'
p36
aS'human_body.n.01'
p37
aS'slice.v.02'
p38
aS'knife.n.01'
p39
aS'banana.n.02'
p40
asS'instanceCount'
p41
I26
sS'matrix'
p42
(dp43
g21
(dp44
S'batter.n.02'
p45
I1
ssg34
(dp46
g34
I0
ssg33
(dp47
g34
I1
ssg29
(dp48
g30
I1
ssg28
(dp49
g28
I0
ssg27
(dp50
g28
I1
ssg19
(dp51
g19
I0
ssg20
(dp52
S'fill.v.09'
p53
I1
ssg23
(dp54
g23
I0
ssg22
(dp55
g23
I1
ssg12
(dp56
g13
I1
sS'fill.v.09'
p57
I3
ssg31
(dp58
g32
I1
ssg32
(dp59
g32
I0
ssg38
(dp60
g38
I0
ssg11
(dp61
g38
I1
sS'slice.v.03'
p62
I2
ssg39
(dp63
S'knife.n.01'
p64
I1
ssg40
(dp65
S'banana.n.02'
p66
I1
ssg13
(dp67
g13
I0
ssg37
(dp68
g37
I0
ssg30
(dp69
g30
I0
ssg8
(dp70
g9
I1
sg24
I1
ssg18
(dp71
g19
I1
ssg35
(dp72
S'mug.n.04'
p73
I1
ssg36
(dp74
g37
I1
ssg17
(dp75
g17
I0
ssg9
(dp76
g9
I0
ssg16
(dp77
g17
I2
ssg24
(dp78
g24
I0
ssg10
(dp79
S'pizza.n.01'
p80
I1
ssg15
(dp81
g15
I0
ssg14
(dp82
g15
I1
ssg25
(dp83
g26
I1
ssg26
(dp84
g26
I0
sssb.