ccopy_reg
_reconstructor
p0
(cutils.eval
ConfusionMatrix
p1
c__builtin__
object
p2
Ntp3
Rp4
(dp5
S'labels'
p6
(lp7
S'opening.n.01'
p8
aS'gap.n.03'
p9
aS'fill.v.09'
p10
aS'fill.v.01'
p11
aS'batter.n.02'
p12
aS'tomato.n.01'
p13
aS'piece.n.08'
p14
aS'slice.n.06'
p15
aS'onion.n.03'
p16
aS'onion.n.02'
p17
aS'mustard.n.02'
p18
aS'pan.n.01'
p19
aS'water.n.06'
p20
aS'pitcher.n.02'
p21
aS'milk.n.01'
p22
aS'foam.n.01'
p23
aS'mug.n.04'
p24
aS'flesh.n.01'
p25
aS'slice.v.03'
p26
aS'slice.v.02'
p27
aS'knife.n.01'
p28
aS'tongue.n.03'
p29
aS'banana.n.02'
p30
aS'cheese.n.01'
p31
aS'pizza.n.01'
p32
asS'instanceCount'
p33
I26
sS'matrix'
p34
(dp35
g31
(dp36
S'cheese.n.01'
p37
I1
ssg12
(dp38
S'batter.n.02'
p39
I1
ssg23
(dp40
S'foam.n.01'
p41
I1
ssg22
(dp42
S'milk.n.01'
p43
I1
ssg19
(dp44
S'pan.n.01'
p45
I1
ssg18
(dp46
S'mustard.n.02'
p47
I1
ssg9
(dp48
g9
I0
ssg10
(dp49
g11
I1
ssg13
(dp50
S'tomato.n.01'
p51
I1
ssg11
(dp52
g11
I3
ssg21
(dp53
S'pitcher.n.02'
p54
I1
ssg27
(dp55
g27
I0
ssg26
(dp56
g27
I4
ssg28
(dp57
g29
I1
ssg30
(dp58
S'banana.n.02'
p59
I1
ssg14
(dp60
g15
I2
ssg8
(dp61
g9
I1
ssg24
(dp62
S'mug.n.04'
p63
I1
ssg25
(dp64
S'flesh.n.01'
p65
I1
ssg15
(dp66
g15
I0
ssg20
(dp67
S'water.n.06'
p68
I1
ssg32
(dp69
S'pizza.n.01'
p70
I1
ssg29
(dp71
g29
I0
ssg16
(dp72
g17
I1
ssg17
(dp73
g17
I0
sssb.