ccopy_reg
_reconstructor
p0
(cutils.eval
ConfusionMatrix
p1
c__builtin__
object
p2
Ntp3
Rp4
(dp5
S'labels'
p6
(lp7
S'piece.n.08'
p8
aS'slice.n.01'
p9
aS'pizza.n.01'
p10
aS'slice.v.03'
p11
aS'fill.v.01'
p12
aS'meet.v.04'
p13
aS'kettle.n.01'
p14
aS'kettle.n.02'
p15
aS'water.n.06'
p16
aS'water.n.03'
p17
aS'opening.n.01'
p18
aS'gap.n.05'
p19
aS'fill.v.09'
p20
aS'batter.n.02'
p21
aS'tomato.n.01'
p22
aS'tomato.n.02'
p23
aS'slice.n.04'
p24
aS'onion.n.03'
p25
aS'onion.n.02'
p26
aS'mustard.n.02'
p27
aS'mustard.n.01'
p28
aS'pan.n.01'
p29
aS'pan.n.02'
p30
aS'pitcher.n.02'
p31
aS'pitcher.n.05'
p32
aS'milk.n.01'
p33
aS'milk.n.04'
p34
aS'mug.n.04'
p35
aS'flesh.n.01'
p36
aS'human_body.n.01'
p37
aS'slice.v.02'
p38
aS'knife.n.01'
p39
aS'banana.n.02'
p40
aS'gap.n.03'
p41
aS'slice.n.06'
p42
aS'foam.n.01'
p43
aS'tongue.n.03'
p44
aS'cheese.n.01'
p45
aS'knife.n.02'
p46
aS'catsup.n.01'
p47
aS'slice.n.05'
p48
aS'mustard.n.03'
p49
aS'pan.n.03'
p50
aS'pitcher.n.01'
p51
aS'chump.n.01'
p52
aS'kettle_hole.n.01'
p53
aS'banana.n.01'
p54
aS'water_system.n.02'
p55
aS'gap.n.01'
p56
aS'batter.n.01'
p57
aS'cut.n.05'
p58
aS'pan.n.04'
p59
aS'milk.n.02'
p60
aS'pitcher.n.03'
p61
aS'pulp.n.02'
p62
asS'instanceCount'
p63
I258
sS'matrix'
p64
(dp65
g45
(dp66
g45
I9
sg48
I0
sg55
I0
sS'batter.n.02'
p67
I0
sg57
I0
sS'milk.n.04'
p68
I0
sg43
I0
sS'pan.n.02'
p69
I0
sS'milk.n.01'
p70
I0
sg60
I0
sS'pan.n.01'
p71
I0
sS'mustard.n.01'
p72
I0
sS'mustard.n.02'
p73
I0
sg49
I0
sg41
I0
sS'fill.v.09'
p74
I0
sS'tomato.n.02'
p75
I0
sS'tomato.n.01'
p76
I0
sS'fill.v.01'
p77
I0
sg61
I0
sS'pitcher.n.02'
p78
I0
sg51
I0
sS'pitcher.n.05'
p79
I0
sg56
I0
sg58
I0
sS'slice.v.02'
p80
I0
sS'slice.v.03'
p81
I0
sg52
I0
sS'knife.n.01'
p82
I0
sg54
I0
sS'banana.n.02'
p83
I0
sg46
I0
sS'meet.v.04'
p84
I0
sg50
I0
sg59
I0
sS'human_body.n.01'
p85
I0
sS'gap.n.05'
p86
I0
sg47
I0
sS'piece.n.08'
p87
I0
sS'opening.n.01'
p88
I0
sS'mug.n.04'
p89
I0
sS'flesh.n.01'
p90
I0
sS'water.n.03'
p91
I0
sS'slice.n.01'
p92
I0
sg42
I0
sS'water.n.06'
p93
I0
sS'slice.n.04'
p94
I0
sS'pizza.n.01'
p95
I0
sS'kettle.n.02'
p96
I0
sg53
I0
sS'kettle.n.01'
p97
I0
sg62
I0
sg44
I0
sS'onion.n.03'
p98
I0
sS'onion.n.02'
p99
I0
ssg48
(dp100
S'cheese.n.01'
p101
I0
sS'pizza.n.01'
p102
I0
sS'batter.n.02'
p103
I0
sg68
I0
sS'foam.n.01'
p104
I0
sS'pan.n.02'
p105
I0
sS'milk.n.01'
p106
I0
sS'pan.n.01'
p107
I0
sg72
I0
sS'mustard.n.02'
p108
I0
sg49
I0
sS'fill.v.09'
p109
I0
sS'tomato.n.02'
p110
I0
sS'tomato.n.01'
p111
I0
sS'fill.v.01'
p112
I0
sS'pitcher.n.02'
p113
I0
sg51
I0
sS'pitcher.n.05'
p114
I0
sS'slice.v.02'
p115
I0
sS'slice.v.03'
p116
I0
sg52
I0
sS'knife.n.01'
p117
I0
sS'banana.n.02'
p118
I0
sS'knife.n.02'
p119
I0
sS'meet.v.04'
p120
I0
sg50
I0
sS'gap.n.05'
p121
I0
sS'catsup.n.01'
p122
I0
sS'piece.n.08'
p123
I0
sS'opening.n.01'
p124
I0
sS'mug.n.04'
p125
I0
sS'flesh.n.01'
p126
I0
sS'water.n.03'
p127
I0
sS'water.n.06'
p128
I0
sS'slice.n.04'
p129
I0
sg48
I0
sS'kettle.n.02'
p130
I0
sg53
I0
sS'kettle.n.01'
p131
I0
sS'tongue.n.03'
p132
I0
sS'onion.n.03'
p133
I0
sS'onion.n.02'
p134
I0
ssg55
(dp135
S'cheese.n.01'
p136
I0
sS'batter.n.02'
p137
I0
sg57
I0
sS'milk.n.04'
p138
I0
sS'milk.n.01'
p139
I0
sg60
I0
sS'pan.n.01'
p140
I0
sS'mustard.n.02'
p141
I0
sg86
I0
sg59
I0
sS'fill.v.09'
p142
I0
sS'tomato.n.02'
p143
I0
sS'tomato.n.01'
p144
I0
sS'fill.v.01'
p145
I0
sg61
I0
sS'pitcher.n.02'
p146
I0
sg56
I0
sg58
I0
sS'slice.v.02'
p147
I0
sS'slice.v.03'
p148
I0
sS'knife.n.01'
p149
I0
sg54
I0
sS'banana.n.02'
p150
I0
sg84
I0
sg85
I0
sg69
I0
sS'piece.n.08'
p151
I0
sS'opening.n.01'
p152
I0
sS'mug.n.04'
p153
I0
sS'flesh.n.01'
p154
I0
sg92
I0
sg55
I0
sS'water.n.06'
p155
I0
sg96
I0
sS'kettle.n.01'
p156
I0
sS'tongue.n.03'
p157
I0
sS'onion.n.03'
p158
I0
sS'onion.n.02'
p159
I0
ssg21
(dp160
g45
I0
sS'slice.n.05'
p161
I0
sg55
I0
sg21
I8
sg57
I1
sg34
I0
sg43
I0
sg33
I0
sg60
I0
sg29
I0
sg28
I0
sg27
I0
sg19
I0
sg41
I0
sg20
I0
sg23
I0
sg22
I0
sg12
I0
sg61
I0
sg31
I0
sg32
I0
sg56
I0
sg58
I0
sg38
I0
sg11
I0
sg39
I0
sg54
I0
sg40
I0
sg46
I0
sg13
I0
sS'pan.n.03'
p162
I0
sg59
I0
sg37
I0
sg30
I0
sg47
I0
sg8
I0
sg18
I0
sg35
I0
sg36
I0
sg17
I0
sg9
I0
sg42
I0
sg16
I0
sg24
I0
sg10
I0
sg15
I0
sg14
I0
sg62
I0
sg44
I0
sg25
I0
sg26
I0
ssg57
(dp163
g136
I0
sg137
I0
sg57
I0
sg139
I0
sg60
I0
sg140
I0
sg141
I0
sg59
I0
sg142
I0
sg144
I0
sg145
I0
sg146
I0
sg56
I0
sg58
I0
sg147
I0
sg148
I0
sg149
I0
sg54
I0
sg150
I0
sg151
I0
sg152
I0
sg154
I0
sg92
I0
sg55
I0
sg155
I0
sg96
I0
sg156
I0
sg157
I0
sg158
I0
sg159
I0
ssg34
(dp164
g101
I0
sS'slice.n.06'
p165
I0
sg21
I0
sg34
I0
sg48
I0
sg33
I0
sg29
I0
sg28
I0
sg27
I0
sg19
I0
sg20
I0
sg23
I0
sg22
I0
sg12
I0
sg61
I0
sg31
I0
sg51
I0
sg32
I0
sg49
I0
sg38
I0
sg11
I0
sg52
I0
sg39
I0
sg40
I0
sg119
I0
sg13
I0
sg50
I0
sg104
I0
sg37
I0
sg30
I0
sg122
I0
sg8
I0
sg18
I0
sg35
I0
sg36
I0
sg17
I0
sg9
I0
sS'water_system.n.02'
p166
I0
sg16
I0
sg24
I0
sg10
I0
sg15
I0
sg53
I0
sg14
I0
sg62
I0
sS'tongue.n.03'
p167
I0
sg25
I0
sg26
I0
ssg43
(dp168
g45
I0
sg48
I0
sg67
I0
sg68
I0
sg43
I5
sg70
I0
sg71
I0
sg73
I0
sg49
I0
sg41
I0
sg74
I0
sg75
I0
sg76
I0
sg77
I0
sS'pitcher.n.03'
p169
I0
sg78
I0
sg51
I0
sg80
I0
sg81
I0
sg52
I0
sg82
I0
sg83
I0
sg46
I0
sS'meet.v.04'
p170
I0
sg50
I0
sS'gap.n.05'
p171
I0
sg47
I0
sg87
I0
sg88
I0
sg89
I0
sg90
I0
sg91
I0
sS'slice.n.01'
p172
I0
sg42
I0
sg93
I0
sg95
I0
sS'kettle.n.02'
p173
I0
sg53
I0
sg97
I0
sg44
I0
sg98
I0
sg99
I0
ssg33
(dp174
g45
I0
sg48
I0
sg55
I0
sg21
I0
sg57
I0
sg34
I6
sg43
I0
sg33
I2
sg60
I1
sg29
I0
sg28
I0
sg27
I0
sg19
I0
sg41
I0
sg20
I0
sg23
I0
sg22
I0
sg12
I0
sg61
I0
sg31
I0
sg51
I0
sg32
I0
sg56
I0
sg49
I0
sg58
I0
sg38
I0
sg11
I0
sg52
I0
sg39
I0
sg54
I0
sg40
I0
sg46
I0
sg13
I0
sg50
I0
sg59
I0
sg37
I0
sg30
I0
sg47
I0
sg8
I0
sg18
I0
sg35
I0
sg36
I0
sg17
I0
sg9
I0
sg42
I0
sg16
I0
sg24
I0
sg10
I0
sg15
I0
sg53
I0
sg14
I0
sg62
I0
sg44
I0
sg25
I0
sg26
I0
ssg60
(dp175
g136
I0
sg137
I0
sg57
I0
sg139
I0
sg60
I0
sg140
I0
sg141
I0
sg59
I0
sg142
I0
sg144
I0
sg145
I0
sg146
I0
sg56
I0
sg58
I0
sg147
I0
sg148
I0
sg149
I0
sg54
I0
sg150
I0
sg151
I0
sg152
I0
sg154
I0
sg92
I0
sg55
I0
sg155
I0
sg96
I0
sg156
I0
sg157
I0
sg158
I0
sg159
I0
ssg29
(dp176
g45
I0
sg48
I0
sg55
I0
sg21
I0
sg57
I0
sg34
I0
sg43
I0
sg33
I0
sg60
I0
sg29
I2
sg28
I0
sg27
I0
sg19
I0
sg41
I0
sg20
I0
sg23
I0
sg22
I0
sg12
I0
sg61
I0
sg31
I0
sg51
I0
sg32
I0
sg56
I0
sg49
I0
sg58
I0
sg38
I0
sg11
I0
sg52
I0
sg39
I0
sg54
I0
sg40
I0
sg119
I0
sg13
I0
sg50
I2
sg59
I1
sg37
I0
sg30
I4
sg122
I0
sg8
I0
sg18
I0
sg35
I0
sg36
I0
sg17
I0
sg9
I0
sg42
I0
sg16
I0
sg24
I0
sg10
I0
sg15
I0
sg53
I0
sg14
I0
sg62
I0
sg44
I0
sg25
I0
sg26
I0
ssg28
(dp177
S'cheese.n.01'
p178
I0
sg21
I0
sg34
I0
sg161
I0
sg33
I0
sg29
I0
sg28
I0
sg27
I0
sg19
I0
sg20
I0
sg23
I0
sg22
I0
sg12
I0
sg31
I0
sg32
I0
sg38
I0
sg11
I0
sg39
I0
sg40
I0
sg13
I0
sg37
I0
sg30
I0
sg8
I0
sg18
I0
sg35
I0
sg36
I0
sg17
I0
sg9
I0
sg16
I0
sg24
I0
sg10
I0
sg15
I0
sg14
I0
sg132
I0
sg25
I0
sg26
I0
ssg27
(dp179
g45
I0
sg48
I0
sg55
I0
sg21
I0
sg57
I0
sg34
I0
sg43
I0
sg33
I0
sg60
I0
sg29
I0
sg28
I2
sg27
I6
sg19
I0
sg41
I0
sg20
I0
sg23
I0
sg22
I0
sg12
I0
sg61
I0
sg31
I0
sg51
I0
sg32
I0
sg56
I0
sg49
I1
sg58
I0
sg38
I0
sg11
I0
sg52
I0
sg39
I0
sg54
I0
sg40
I0
sg46
I0
sg13
I0
sg50
I0
sg59
I0
sg37
I0
sg30
I0
sg47
I0
sg8
I0
sg18
I0
sg35
I0
sg36
I0
sg17
I0
sg9
I0
sg42
I0
sg16
I0
sg24
I0
sg10
I0
sg15
I0
sg53
I0
sg14
I0
sg62
I0
sg44
I0
sg25
I0
sg26
I0
ssg19
(dp180
S'cheese.n.01'
p181
I0
sg161
I0
sg165
I0
sg21
I0
sg34
I0
sS'foam.n.01'
p182
I0
sg33
I0
sg29
I0
sg28
I0
sg27
I0
sg19
I0
sg20
I0
sg23
I0
sg22
I0
sg12
I0
sg61
I0
sg31
I0
sg32
I0
sg38
I0
sg11
I0
sg39
I0
sg40
I0
sg13
I0
sg37
I0
sg30
I0
sg8
I0
sg18
I0
sg35
I0
sg36
I0
sg17
I0
sg9
I0
sg166
I0
sg16
I0
sg24
I0
sg10
I0
sg15
I0
sg14
I0
sg62
I0
sg167
I0
sg25
I0
sg26
I0
ssg41
(dp183
g45
I0
sg67
I0
sg43
I0
sg70
I0
sg71
I0
sg73
I0
sg41
I0
sg74
I0
sg75
I0
sg76
I0
sg77
I0
sg78
I0
sg80
I0
sg81
I0
sg82
I0
sg83
I0
sg46
I0
sg162
I0
sg47
I0
sg87
I0
sg88
I0
sg89
I0
sg90
I0
sg42
I0
sg93
I0
sg95
I0
sg97
I0
sg44
I0
sg98
I0
sg99
I0
ssg20
(dp184
g45
I0
sg48
I0
sg55
I0
sg21
I0
sg57
I0
sg34
I0
sg43
I0
sg33
I0
sg60
I0
sg29
I0
sg28
I0
sg27
I0
sg19
I0
sg41
I0
sg20
I6
sg23
I0
sg22
I0
sg12
I3
sg61
I0
sg31
I0
sg51
I0
sg32
I0
sg56
I0
sg49
I0
sg58
I0
sg38
I0
sg11
I0
sg52
I0
sg39
I0
sg54
I0
sg40
I0
sg46
I0
sg13
I0
sg50
I0
sg59
I0
sg37
I0
sg30
I0
sg47
I0
sg8
I0
sg18
I0
sg35
I0
sg36
I0
sg17
I0
sg9
I0
sg42
I0
sg16
I0
sg24
I0
sg10
I0
sg15
I0
sg53
I0
sg14
I0
sg62
I0
sg44
I0
sg25
I0
sg26
I0
ssg23
(dp185
S'cheese.n.01'
p186
I0
sg48
I0
sg166
I0
sg21
I0
sg34
I0
sS'foam.n.01'
p187
I0
sg33
I0
sg29
I0
sg28
I0
sg27
I0
sg19
I0
sS'gap.n.03'
p188
I0
sg20
I0
sg23
I0
sg22
I0
sg12
I0
sg61
I0
sg31
I0
sg51
I0
sg32
I0
sg49
I0
sg38
I0
sg11
I0
sg52
I0
sg39
I0
sg40
I0
sg46
I0
sg13
I0
sg50
I0
sg37
I0
sg30
I0
sg47
I0
sg8
I0
sg18
I0
sg35
I0
sg36
I0
sg17
I0
sg9
I0
sS'slice.n.06'
p189
I0
sg16
I0
sg24
I0
sg10
I0
sg15
I0
sg53
I0
sg14
I0
sg62
I0
sg167
I0
sg25
I0
sg26
I0
ssg22
(dp190
g45
I0
sg48
I0
sg55
I0
sg21
I0
sg57
I0
sg34
I0
sg43
I0
sg33
I0
sg60
I0
sg29
I0
sg28
I0
sg27
I0
sg19
I0
sg41
I0
sg20
I0
sg23
I6
sg22
I3
sg12
I0
sg61
I0
sg31
I0
sg51
I0
sg32
I0
sg56
I0
sg49
I0
sg58
I0
sg38
I0
sg11
I0
sg52
I0
sg39
I0
sg54
I0
sg40
I0
sg46
I0
sg13
I0
sg50
I0
sg59
I0
sg37
I0
sg30
I0
sg47
I0
sg8
I0
sg18
I0
sg35
I0
sg36
I0
sg17
I0
sg9
I0
sg42
I0
sg16
I0
sg24
I0
sg10
I0
sg15
I0
sg53
I0
sg14
I0
sg62
I0
sg44
I0
sg25
I0
sg26
I0
ssg12
(dp191
g45
I0
sg48
I0
sg55
I0
sg21
I0
sg57
I0
sg34
I0
sg43
I0
sg33
I0
sg60
I0
sg29
I0
sg28
I0
sg27
I0
sg19
I0
sg41
I0
sg20
I19
sg23
I0
sg22
I0
sg12
I12
sg61
I0
sg31
I0
sg51
I0
sg32
I0
sg56
I0
sg49
I0
sg58
I0
sg38
I0
sg11
I0
sg52
I0
sg39
I0
sg54
I0
sg40
I0
sg46
I0
sg13
I5
sg50
I0
sg59
I0
sg37
I0
sg30
I0
sg47
I0
sg8
I0
sg18
I0
sg35
I0
sg36
I0
sg17
I0
sg9
I0
sg42
I0
sg16
I0
sg24
I0
sg10
I0
sg15
I0
sg53
I0
sg14
I0
sg62
I0
sg44
I0
sg25
I0
sg26
I0
ssg61
(dp192
g181
I0
sS'batter.n.02'
p193
I0
sg138
I0
sg182
I0
sS'milk.n.01'
p194
I0
sS'pan.n.01'
p195
I0
sS'mustard.n.02'
p196
I0
sg86
I0
sS'fill.v.09'
p197
I0
sg143
I0
sS'tomato.n.01'
p198
I0
sS'fill.v.01'
p199
I0
sg61
I0
sS'pitcher.n.02'
p200
I0
sS'slice.v.02'
p201
I0
sS'slice.v.03'
p202
I0
sS'knife.n.01'
p203
I0
sS'banana.n.02'
p204
I0
sg84
I0
sg85
I0
sg69
I0
sS'piece.n.08'
p205
I0
sS'opening.n.01'
p206
I0
sg153
I0
sS'flesh.n.01'
p207
I0
sg91
I0
sg172
I0
sg166
I0
sS'water.n.06'
p208
I0
sS'pizza.n.01'
p209
I0
sS'kettle.n.02'
p210
I0
sS'kettle.n.01'
p211
I0
sg167
I0
sS'onion.n.03'
p212
I0
sS'onion.n.02'
p213
I0
ssg31
(dp214
g45
I0
sg48
I0
sg55
I0
sg21
I0
sg57
I0
sg34
I0
sg43
I0
sg33
I0
sg60
I0
sg29
I0
sg28
I0
sg27
I0
sg19
I0
sg41
I0
sg20
I0
sg23
I0
sg22
I0
sg12
I0
sg61
I2
sg31
I3
sg51
I1
sg32
I3
sg56
I0
sg49
I0
sg58
I0
sg38
I0
sg11
I0
sg52
I0
sg39
I0
sg54
I0
sg40
I0
sg46
I0
sg13
I0
sg50
I0
sg59
I0
sg37
I0
sg30
I0
sg47
I0
sg8
I0
sg18
I0
sg35
I0
sg36
I0
sg17
I0
sg9
I0
sg42
I0
sg16
I0
sg24
I0
sg10
I0
sg15
I0
sg53
I0
sg14
I0
sg62
I0
sg44
I0
sg25
I0
sg26
I0
ssg51
(dp215
g101
I0
sg102
I0
sg68
I0
sg104
I0
sg106
I0
sg107
I0
sg108
I0
sg49
I0
sg109
I0
sg110
I0
sg111
I0
sg112
I0
sg113
I0
sg51
I0
sg115
I0
sg116
I0
sg52
I0
sg117
I0
sg118
I0
sg119
I0
sg50
I0
sg122
I0
sg123
I0
sg125
I0
sg126
I0
sg128
I0
sg48
I0
sg53
I0
sg131
I0
sg133
I0
ssg32
(dp216
S'cheese.n.01'
p217
I0
sg21
I0
sg34
I0
sg161
I0
sg33
I0
sg29
I0
sg28
I0
sg27
I0
sg19
I0
sg20
I0
sg23
I0
sg22
I0
sg12
I0
sg31
I0
sg32
I0
sg38
I0
sg11
I0
sg39
I0
sg40
I0
sg13
I0
sg37
I0
sg30
I0
sg8
I0
sg18
I0
sg35
I0
sg36
I0
sg17
I0
sg9
I0
sg165
I0
sg16
I0
sg24
I0
sg10
I0
sg15
I0
sg14
I0
sg62
I0
sg132
I0
sg25
I0
sg26
I0
ssg56
(dp218
g136
I0
sg137
I0
sg57
I0
sg139
I0
sg60
I0
sg140
I0
sg141
I0
sg59
I0
sg56
I0
sg144
I0
sg145
I0
sg142
I0
sg58
I0
sg147
I0
sg148
I0
sg149
I0
sg54
I0
sg150
I0
sg151
I0
sg152
I0
sg154
I0
sg92
I0
sg55
I0
sg155
I0
sg96
I0
sg156
I0
sg157
I0
sg146
I0
sg158
I0
sg159
I0
ssg49
(dp219
g101
I0
sg102
I0
sg68
I0
sg104
I0
sg106
I0
sg107
I0
sg108
I0
sg49
I0
sg109
I0
sg110
I0
sg111
I0
sg112
I0
sg113
I0
sg51
I0
sg115
I0
sg116
I0
sg52
I0
sg117
I0
sg118
I0
sg119
I0
sg50
I0
sg122
I0
sg123
I0
sg125
I0
sg126
I0
sg128
I0
sg48
I0
sg53
I0
sg131
I0
sg133
I0
ssg58
(dp220
g136
I0
sg137
I0
sg57
I0
sg139
I0
sg60
I0
sg140
I0
sg141
I0
sg59
I0
sg142
I0
sg144
I0
sg145
I0
sg146
I0
sg56
I0
sg58
I0
sg147
I0
sg148
I0
sg149
I0
sg54
I0
sg150
I0
sg151
I0
sg152
I0
sg154
I0
sg92
I0
sg55
I0
sg155
I0
sg96
I0
sg156
I0
sg157
I0
sg158
I0
sg159
I0
ssg38
(dp221
g45
I0
sg48
I0
sg55
I0
sg21
I0
sg57
I0
sg34
I0
sg43
I0
sg33
I0
sg60
I0
sg29
I0
sg28
I0
sg27
I0
sg19
I0
sg41
I0
sg20
I0
sg23
I0
sg22
I0
sg12
I0
sg61
I0
sg31
I0
sg51
I0
sg32
I0
sg56
I0
sg49
I0
sg58
I0
sg38
I0
sg11
I0
sg52
I0
sg39
I0
sg54
I0
sg40
I0
sg46
I0
sg13
I0
sg50
I0
sg59
I0
sg37
I0
sg30
I0
sg47
I0
sg8
I0
sg18
I0
sg35
I0
sg36
I0
sg17
I0
sg9
I0
sg42
I0
sg16
I0
sg24
I0
sg10
I0
sg15
I0
sg53
I0
sg14
I0
sg44
I0
sg25
I0
sg26
I0
ssg11
(dp222
g45
I0
sg48
I0
sg55
I0
sg21
I0
sg57
I0
sg34
I0
sg43
I0
sg33
I0
sg60
I0
sg29
I0
sg28
I0
sg27
I0
sg19
I0
sg41
I0
sg20
I0
sg23
I0
sg22
I0
sg12
I0
sg61
I0
sg31
I0
sg51
I0
sg32
I0
sg56
I0
sg49
I0
sg58
I0
sg38
I29
sg11
I7
sg52
I0
sg39
I0
sg54
I0
sg40
I0
sg46
I0
sg13
I0
sg50
I0
sg59
I0
sg37
I0
sg30
I0
sg47
I0
sg8
I0
sg18
I0
sg35
I0
sg36
I0
sg17
I0
sg9
I0
sg42
I0
sg16
I0
sg24
I0
sg10
I0
sg15
I0
sg53
I0
sg14
I0
sg62
I0
sg44
I0
sg25
I0
sg26
I0
ssg52
(dp223
g101
I0
sg102
I0
sg68
I0
sg104
I0
sg106
I0
sg107
I0
sg108
I0
sg49
I0
sg109
I0
sg110
I0
sg111
I0
sg112
I0
sg113
I0
sg51
I0
sg115
I0
sg116
I0
sg52
I0
sg117
I0
sg118
I0
sg119
I0
sg50
I0
sg122
I0
sg123
I0
sg125
I0
sg126
I0
sg128
I0
sg48
I0
sg53
I0
sg131
I0
sg133
I0
ssg39
(dp224
g45
I0
sg48
I0
sg55
I0
sg21
I0
sg57
I0
sg34
I0
sg43
I0
sg33
I0
sg60
I0
sg29
I0
sg28
I0
sg27
I0
sg19
I0
sg41
I0
sg20
I0
sg23
I0
sg22
I0
sg12
I0
sg61
I0
sg31
I0
sg51
I0
sg32
I0
sg56
I0
sg49
I0
sg58
I0
sg38
I0
sg11
I0
sg52
I0
sg39
I3
sg54
I0
sg40
I0
sg46
I2
sg13
I0
sg50
I0
sg59
I0
sg37
I0
sg30
I0
sg47
I0
sg8
I0
sg18
I0
sg35
I0
sg36
I0
sg17
I0
sg9
I0
sg42
I0
sg16
I0
sg24
I0
sg10
I0
sg15
I0
sg53
I0
sg14
I0
sg44
I4
sg25
I0
sg26
I0
ssg54
(dp225
g136
I0
sg137
I0
sg57
I0
sg139
I0
sg60
I0
sg140
I0
sg141
I0
sg59
I0
sg142
I0
sg144
I0
sg145
I0
sg146
I0
sg56
I0
sg58
I0
sg147
I0
sg148
I0
sg149
I0
sg54
I0
sg150
I0
sg151
I0
sg152
I0
sg154
I0
sg92
I0
sg55
I0
sg155
I0
sg96
I0
sg156
I0
sg157
I0
sg158
I0
sg159
I0
ssg40
(dp226
g45
I0
sg48
I0
sg55
I0
sg21
I0
sg57
I0
sg34
I0
sg43
I0
sg33
I0
sg60
I0
sg29
I0
sg28
I0
sg27
I0
sg19
I0
sg41
I0
sg20
I0
sg23
I0
sg22
I0
sg12
I0
sg61
I0
sg31
I0
sg51
I0
sg32
I0
sg56
I0
sg49
I0
sg58
I0
sg38
I0
sg11
I0
sg52
I0
sg39
I0
sg54
I1
sg40
I8
sg46
I0
sg13
I0
sg50
I0
sg59
I0
sg37
I0
sg30
I0
sg47
I0
sg8
I0
sg18
I0
sg35
I0
sg36
I0
sg17
I0
sg9
I0
sg42
I0
sg16
I0
sg24
I0
sg10
I0
sg15
I0
sg53
I0
sg14
I0
sg44
I0
sg25
I0
sg26
I0
ssg46
(dp227
g186
I0
sg48
I0
sS'batter.n.02'
p228
I0
sg68
I0
sg187
I0
sS'milk.n.01'
p229
I0
sg107
I0
sS'mustard.n.02'
p230
I0
sg49
I0
sg188
I0
sS'fill.v.09'
p231
I0
sg75
I0
sS'tomato.n.01'
p232
I0
sS'fill.v.01'
p233
I0
sS'pitcher.n.02'
p234
I0
sg51
I0
sS'slice.v.02'
p235
I0
sS'slice.v.03'
p236
I0
sg52
I0
sS'knife.n.01'
p237
I0
sS'banana.n.02'
p238
I0
sg46
I0
sg50
I0
sg47
I0
sS'piece.n.08'
p239
I0
sS'opening.n.01'
p240
I0
sS'mug.n.04'
p241
I0
sS'flesh.n.01'
p242
I0
sg189
I0
sS'water.n.06'
p243
I0
sS'pizza.n.01'
p244
I0
sg53
I0
sg97
I0
sS'onion.n.03'
p245
I0
ssg13
(dp246
g181
I0
sg161
I0
sg165
I0
sg21
I0
sg34
I0
sg182
I0
sg33
I0
sg29
I0
sg28
I0
sg27
I0
sg19
I0
sg20
I0
sg23
I0
sg22
I0
sg12
I0
sg61
I0
sg31
I0
sg32
I0
sg38
I0
sg11
I0
sg39
I0
sg40
I0
sg13
I0
sg37
I0
sg30
I0
sg8
I0
sg18
I0
sg35
I0
sg36
I0
sg17
I0
sg9
I0
sg166
I0
sg16
I0
sg24
I0
sg10
I0
sg15
I0
sg14
I0
sg62
I0
sg167
I0
sg25
I0
sg26
I0
ssg50
(dp247
g101
I0
sg102
I0
sS'batter.n.02'
p248
I0
sg68
I0
sg104
I0
sg106
I0
sg107
I0
sg50
I0
sg49
I0
sS'gap.n.03'
p249
I0
sg109
I0
sg110
I0
sg111
I0
sg112
I0
sg113
I0
sg51
I0
sg115
I0
sg116
I0
sg52
I0
sg117
I0
sg118
I0
sg119
I0
sg108
I0
sg122
I0
sg123
I0
sS'opening.n.01'
p250
I0
sg125
I0
sg126
I0
sS'slice.n.06'
p251
I0
sg128
I0
sg48
I0
sg53
I0
sg131
I0
sg133
I0
sS'onion.n.02'
p252
I0
ssg59
(dp253
g136
I0
sg137
I0
sg57
I0
sg139
I0
sg60
I0
sg140
I0
sg141
I0
sg59
I0
sg142
I0
sg144
I0
sg145
I0
sg146
I0
sg56
I0
sg58
I0
sg147
I0
sg148
I0
sg149
I0
sg54
I0
sg150
I0
sg151
I0
sg152
I0
sg154
I0
sg92
I0
sg55
I0
sg155
I0
sg96
I0
sg156
I0
sg157
I0
sg158
I0
sg159
I0
ssg37
(dp254
g181
I0
sg21
I0
sg34
I0
sg33
I0
sg29
I0
sg28
I0
sg27
I0
sg19
I0
sg20
I0
sg23
I0
sg22
I0
sg12
I0
sg61
I0
sg31
I0
sg32
I0
sg38
I0
sg11
I0
sg39
I0
sg40
I0
sg13
I0
sg37
I0
sg30
I0
sg8
I0
sg18
I0
sg35
I0
sg36
I0
sg17
I0
sg9
I0
sg166
I0
sg16
I0
sg24
I0
sg10
I0
sg15
I0
sg14
I0
sg167
I0
sg25
I0
sg26
I0
ssg30
(dp255
g181
I0
sg165
I0
sg21
I0
sg34
I0
sg161
I0
sg33
I0
sg29
I0
sg28
I0
sg27
I0
sg30
I0
sg20
I0
sg23
I0
sg22
I0
sg12
I0
sg61
I0
sg31
I0
sg32
I0
sg38
I0
sg11
I0
sg39
I0
sg40
I0
sg13
I0
sg37
I0
sg19
I0
sg8
I0
sg18
I0
sg35
I0
sg36
I0
sg17
I0
sg9
I0
sg166
I0
sg16
I0
sg24
I0
sg10
I0
sg15
I0
sg14
I0
sg62
I0
sg167
I0
sg25
I0
sg26
I0
ssg47
(dp256
g186
I0
sg48
I0
sg228
I0
sg68
I0
sg187
I0
sg229
I0
sg107
I0
sg230
I0
sg49
I0
sg188
I0
sg231
I0
sg75
I0
sg232
I0
sg233
I0
sg234
I0
sg51
I0
sg235
I0
sg236
I0
sg52
I0
sg237
I0
sg238
I0
sg46
I0
sg50
I0
sg47
I2
sg239
I0
sg240
I0
sg241
I0
sg242
I0
sg189
I0
sg243
I0
sg244
I0
sg53
I0
sg97
I0
sg245
I0
ssg8
(dp257
g45
I0
sg48
I3
sg55
I0
sg21
I0
sg57
I0
sg34
I0
sg43
I0
sg33
I0
sg60
I0
sg29
I0
sg28
I0
sg27
I0
sg19
I0
sg41
I0
sg20
I0
sg23
I0
sg22
I0
sg12
I0
sg61
I0
sg31
I0
sg51
I0
sg32
I0
sg56
I0
sg49
I0
sg58
I1
sg38
I0
sg11
I0
sg52
I0
sg39
I0
sg54
I0
sg40
I0
sg46
I0
sg13
I0
sg50
I0
sg59
I0
sg37
I0
sg30
I0
sg47
I0
sg8
I1
sg18
I0
sg35
I0
sg36
I0
sg17
I0
sg9
I3
sg42
I7
sg16
I0
sg24
I3
sg10
I0
sg15
I0
sg53
I0
sg14
I0
sg62
I0
sg44
I0
sg25
I0
sg26
I0
ssg18
(dp258
g45
I0
sg161
I0
sg55
I0
sg21
I0
sg57
I0
sg34
I0
sg43
I0
sg33
I0
sg60
I0
sg29
I0
sg28
I0
sg27
I0
sg19
I5
sg41
I3
sg20
I0
sg23
I0
sg22
I0
sg12
I0
sg61
I0
sg31
I0
sg32
I0
sg56
I1
sg58
I0
sg38
I0
sg11
I0
sg39
I0
sg54
I0
sg40
I0
sg46
I0
sg13
I0
sg162
I0
sg59
I0
sg37
I0
sg30
I0
sg47
I0
sg8
I0
sg18
I0
sg35
I0
sg36
I0
sg17
I0
sg9
I0
sg42
I0
sg16
I0
sg24
I0
sg10
I0
sg15
I0
sg14
I0
sg62
I0
sg44
I0
sg25
I0
sg26
I0
ssg35
(dp259
g45
I0
sg48
I0
sg166
I0
sg21
I0
sg34
I0
sg43
I0
sg33
I0
sg29
I0
sg28
I0
sg27
I0
sg19
I0
sg41
I0
sg20
I0
sg23
I0
sg22
I0
sg12
I0
sg61
I0
sg31
I0
sg51
I0
sg32
I0
sg49
I0
sg38
I0
sg11
I0
sg52
I1
sg39
I0
sg40
I0
sg46
I0
sg13
I0
sg50
I0
sg37
I0
sg30
I0
sg47
I0
sg8
I0
sg18
I0
sg35
I8
sg36
I0
sg17
I0
sg9
I0
sg42
I0
sg16
I0
sg24
I0
sg10
I0
sg15
I0
sg53
I0
sg14
I0
sg62
I0
sg44
I0
sg25
I0
sg26
I0
ssg36
(dp260
g45
I0
sg48
I0
sg55
I0
sg21
I0
sg57
I0
sg34
I0
sg43
I0
sg33
I0
sg60
I0
sg29
I0
sg28
I0
sg27
I0
sg19
I0
sg41
I0
sg20
I0
sg23
I0
sg22
I0
sg12
I0
sg61
I0
sg31
I0
sg51
I0
sg32
I0
sg56
I0
sg49
I0
sg58
I0
sg38
I0
sg11
I0
sg52
I0
sg39
I0
sg54
I0
sg40
I0
sg46
I0
sg13
I0
sg50
I0
sg59
I0
sg37
I2
sg30
I0
sg47
I0
sg8
I0
sg18
I0
sg35
I0
sg36
I6
sg17
I0
sg9
I0
sg42
I0
sg16
I0
sg24
I0
sg10
I0
sg15
I0
sg53
I0
sg14
I0
sg62
I1
sg44
I0
sg25
I0
sg26
I0
ssg17
(dp261
S'cheese.n.01'
p262
I0
sg161
I0
sg21
I0
sg34
I0
sg182
I0
sg33
I0
sg29
I0
sg28
I0
sg27
I0
sg19
I0
sg20
I0
sg23
I0
sg22
I0
sg12
I0
sg169
I0
sg31
I0
sg32
I0
sg38
I0
sg11
I0
sg39
I0
sg40
I0
sg13
I0
sg37
I0
sg30
I0
sg8
I0
sg18
I0
sg35
I0
sg36
I0
sg17
I0
sg9
I0
sg165
I0
sg16
I0
sg24
I0
sg10
I0
sg15
I0
sg14
I0
sg62
I0
sg132
I0
sg25
I0
sg26
I0
ssg9
(dp263
g136
I0
sg21
I0
sg57
I0
sg34
I0
sg182
I0
sg33
I0
sg60
I0
sg29
I0
sg28
I0
sg27
I0
sg19
I0
sg59
I0
sg20
I0
sg23
I0
sg22
I0
sg12
I0
sg169
I0
sg31
I0
sg32
I0
sg56
I0
sg58
I0
sg38
I0
sg11
I0
sg39
I0
sg54
I0
sg40
I0
sg13
I0
sg37
I0
sg30
I0
sg8
I0
sg18
I0
sg35
I0
sg36
I0
sg17
I0
sg9
I0
sg55
I0
sg16
I0
sg24
I0
sg10
I0
sg15
I0
sg14
I0
sg157
I0
sg25
I0
sg26
I0
ssg42
(dp264
g45
I0
sg67
I0
sS'milk.n.04'
p265
I0
sg43
I0
sg70
I0
sg71
I0
sg73
I0
sS'gap.n.05'
p266
I0
sg41
I0
sg74
I0
sg75
I0
sg76
I0
sg77
I0
sg78
I0
sg79
I0
sg80
I0
sg81
I0
sg82
I0
sg83
I0
sg46
I0
sS'meet.v.04'
p267
I0
sg162
I0
sS'pan.n.02'
p268
I0
sg47
I0
sg87
I0
sg88
I0
sg89
I0
sg90
I0
sS'water.n.03'
p269
I0
sg42
I0
sg93
I0
sg94
I0
sg95
I0
sS'kettle.n.02'
p270
I0
sg97
I0
sg62
I0
sg44
I0
sg98
I0
sg99
I0
ssg16
(dp271
g45
I0
sg48
I0
sg55
I3
sg21
I0
sg57
I0
sg34
I0
sg43
I0
sg33
I0
sg60
I0
sg29
I0
sg28
I0
sg27
I0
sg19
I0
sg41
I0
sg20
I0
sg23
I0
sg22
I0
sg12
I0
sg61
I0
sg31
I0
sg51
I0
sg32
I0
sg56
I0
sg49
I0
sg58
I0
sg38
I0
sg11
I0
sg52
I0
sg39
I0
sg54
I0
sg40
I0
sg46
I0
sg13
I0
sg50
I0
sg59
I0
sg37
I0
sg30
I0
sg47
I0
sg8
I0
sg18
I0
sg35
I0
sg36
I0
sg17
I8
sg9
I0
sg42
I0
sg16
I7
sg24
I0
sg10
I0
sg15
I0
sg53
I0
sg14
I0
sg62
I0
sg44
I0
sg25
I0
sg26
I0
ssg24
(dp272
g217
I0
sg21
I0
sg34
I0
sg161
I0
sg33
I0
sg29
I0
sg28
I0
sg27
I0
sg19
I0
sg20
I0
sg23
I0
sg22
I0
sg12
I0
sg31
I0
sg32
I0
sg38
I0
sg11
I0
sg39
I0
sg40
I0
sg13
I0
sg37
I0
sg30
I0
sg8
I0
sg18
I0
sg35
I0
sg36
I0
sg17
I0
sg9
I0
sg165
I0
sg16
I0
sg24
I0
sg10
I0
sg15
I0
sg14
I0
sg62
I0
sg132
I0
sg25
I0
sg26
I0
ssg10
(dp273
g45
I0
sg48
I0
sg21
I0
sg34
I0
sg43
I0
sg33
I0
sg29
I0
sg28
I0
sg27
I0
sg19
I0
sg41
I0
sg20
I0
sg23
I0
sg22
I0
sg12
I0
sg169
I0
sg31
I0
sg51
I0
sg32
I0
sg49
I0
sg38
I0
sg11
I0
sg52
I0
sg39
I0
sg40
I0
sg46
I0
sg13
I0
sg50
I0
sg37
I0
sg30
I0
sg47
I0
sg8
I0
sg18
I0
sg35
I0
sg36
I0
sg17
I0
sg9
I0
sg42
I0
sg16
I0
sg24
I0
sg10
I8
sg15
I0
sg53
I0
sg14
I0
sg62
I0
sg44
I0
sg25
I0
sg26
I0
ssg15
(dp274
g136
I0
sg161
I0
sg165
I0
sg21
I0
sg57
I0
sg34
I0
sg182
I0
sg33
I0
sg60
I0
sg29
I0
sg28
I0
sg27
I0
sg19
I0
sg59
I0
sg20
I0
sg23
I0
sg22
I0
sg12
I0
sg61
I0
sg31
I0
sg32
I0
sg56
I0
sg58
I0
sg38
I0
sg11
I0
sg39
I0
sg54
I0
sg40
I0
sg13
I0
sg37
I0
sg30
I0
sg8
I0
sg18
I0
sg35
I0
sg36
I0
sg17
I0
sg9
I0
sg55
I0
sg16
I0
sg24
I0
sg10
I0
sg15
I0
sg14
I0
sg62
I0
sg157
I0
sg25
I0
sg26
I0
ssg53
(dp275
g101
I0
sg102
I0
sg68
I0
sg104
I0
sg106
I0
sg107
I0
sg108
I0
sg49
I0
sg109
I0
sg110
I0
sg111
I0
sg112
I0
sg113
I0
sg51
I0
sg115
I0
sg116
I0
sg52
I0
sg117
I0
sg118
I0
sg119
I0
sg50
I0
sg122
I0
sg123
I0
sg125
I0
sg126
I0
sg128
I0
sg48
I0
sg53
I0
sg131
I0
sg133
I0
ssg14
(dp276
g186
I0
sg48
I0
sg55
I0
sg21
I0
sg57
I0
sg34
I0
sg187
I0
sg33
I0
sg60
I0
sg29
I0
sg28
I0
sg27
I0
sg19
I0
sg188
I0
sg20
I0
sg23
I0
sg22
I0
sg12
I0
sg61
I0
sg31
I0
sg51
I0
sg32
I0
sg56
I0
sg49
I0
sg58
I0
sg38
I0
sg11
I0
sg52
I0
sg39
I0
sg54
I0
sg40
I0
sg46
I0
sg13
I0
sg50
I0
sg59
I0
sg37
I0
sg30
I0
sg47
I0
sg8
I0
sg18
I0
sg35
I0
sg36
I0
sg17
I0
sg9
I0
sg189
I0
sg16
I0
sg24
I0
sg10
I0
sg15
I6
sg53
I1
sg14
I2
sg62
I0
sg157
I0
sg25
I0
sg26
I0
ssg62
(dp277
g217
I0
sS'batter.n.02'
p278
I0
sg265
I0
sS'milk.n.01'
p279
I0
sS'pan.n.01'
p280
I0
sS'mustard.n.02'
p281
I0
sg266
I0
sS'fill.v.09'
p282
I0
sS'tomato.n.02'
p283
I0
sS'tomato.n.01'
p284
I0
sS'fill.v.01'
p285
I0
sS'pitcher.n.02'
p286
I0
sg79
I0
sS'slice.v.03'
p287
I0
sg267
I0
sg268
I0
sS'piece.n.08'
p288
I0
sS'opening.n.01'
p289
I0
sS'mug.n.04'
p290
I0
sS'flesh.n.01'
p291
I0
sg269
I0
sg165
I0
sS'water.n.06'
p292
I0
sg94
I0
sS'pizza.n.01'
p293
I0
sg270
I0
sS'kettle.n.01'
p294
I0
sg62
I0
sS'onion.n.03'
p295
I0
sS'onion.n.02'
p296
I0
ssg44
(dp297
g45
I0
sg161
I0
sg55
I0
sg67
I0
sg57
I0
sg138
I0
sg43
I0
sg70
I0
sg60
I0
sg71
I0
sg72
I0
sg73
I0
sg86
I0
sg41
I0
sg74
I0
sg143
I0
sg76
I0
sg77
I0
sg61
I0
sg78
I0
sg114
I0
sg56
I0
sg58
I0
sg80
I0
sg81
I0
sg82
I0
sg54
I0
sg83
I0
sg84
I0
sg59
I0
sg85
I0
sg69
I0
sg87
I0
sg88
I0
sg89
I0
sg90
I0
sg127
I0
sg92
I0
sg42
I0
sg93
I0
sg129
I0
sg95
I0
sg96
I0
sg156
I0
sg44
I0
sg98
I0
sg99
I0
ssg25
(dp298
g45
I0
sg48
I0
sg55
I0
sg21
I0
sg57
I0
sg34
I0
sg43
I0
sg33
I0
sg60
I0
sg29
I0
sg28
I0
sg27
I0
sg19
I0
sg41
I0
sg20
I0
sg23
I0
sg22
I0
sg12
I0
sg61
I0
sg31
I0
sg51
I0
sg32
I0
sg56
I0
sg49
I0
sg58
I0
sg38
I0
sg11
I0
sg52
I0
sg39
I0
sg54
I0
sg40
I0
sg46
I0
sg13
I0
sg50
I0
sg59
I0
sg37
I0
sg30
I0
sg47
I0
sg8
I0
sg18
I0
sg35
I0
sg36
I0
sg17
I0
sg9
I0
sg42
I0
sg16
I0
sg24
I0
sg10
I0
sg15
I0
sg53
I0
sg14
I0
sg62
I0
sg44
I0
sg25
I2
sg26
I7
ssg26
(dp299
g45
I0
sg161
I0
sg55
I0
sg21
I0
sg57
I0
sg34
I0
sg43
I0
sg33
I0
sg60
I0
sg29
I0
sg28
I0
sg27
I0
sg19
I0
sg41
I0
sg20
I0
sg23
I0
sg22
I0
sg12
I0
sg61
I0
sg31
I0
sg32
I0
sg56
I0
sg58
I0
sg38
I0
sg11
I0
sg39
I0
sg54
I0
sg40
I0
sg13
I0
sg162
I0
sg59
I0
sg37
I0
sg30
I0
sg8
I0
sg18
I0
sg35
I0
sg36
I0
sg17
I0
sg9
I0
sg42
I0
sg16
I0
sg24
I0
sg10
I0
sg15
I0
sg14
I0
sg62
I0
sg44
I0
sg25
I0
sg26
I0
sssb.