ccopy_reg
_reconstructor
p0
(cutils.eval
ConfusionMatrix
p1
c__builtin__
object
p2
Ntp3
Rp4
(dp5
S'labels'
p6
(lp7
S'fill.v.01'
p8
aS'meet.v.04'
p9
aS'kettle.n.01'
p10
aS'kettle.n.02'
p11
aS'water.n.06'
p12
aS'opening.n.01'
p13
aS'gap.n.05'
p14
aS'fill.v.09'
p15
aS'batter.n.02'
p16
aS'tomato.n.01'
p17
aS'tomato.n.02'
p18
aS'piece.n.08'
p19
aS'onion.n.03'
p20
aS'onion.n.02'
p21
aS'mustard.n.02'
p22
aS'pan.n.01'
p23
aS'pan.n.02'
p24
aS'water_system.n.02'
p25
aS'pitcher.n.02'
p26
aS'pitcher.n.03'
p27
aS'milk.n.01'
p28
aS'milk.n.04'
p29
aS'mug.n.04'
p30
aS'flesh.n.01'
p31
aS'human_body.n.01'
p32
aS'slice.v.03'
p33
aS'slice.v.02'
p34
aS'knife.n.01'
p35
aS'tongue.n.03'
p36
aS'banana.n.02'
p37
aS'cheese.n.01'
p38
asS'instanceCount'
p39
I25
sS'matrix'
p40
(dp41
g38
(dp42
S'cheese.n.01'
p43
I1
ssg16
(dp44
S'batter.n.02'
p45
I1
ssg29
(dp46
g29
I0
ssg28
(dp47
g29
I1
ssg23
(dp48
g24
I1
ssg22
(dp49
S'mustard.n.02'
p50
I1
ssg24
(dp51
g24
I0
ssg15
(dp52
S'fill.v.09'
p53
I1
ssg18
(dp54
g18
I0
ssg17
(dp55
g18
I1
ssg8
(dp56
g9
I1
sS'fill.v.09'
p57
I3
ssg27
(dp58
g27
I0
ssg26
(dp59
g27
I1
ssg34
(dp60
g34
I0
ssg33
(dp61
g34
I2
sS'slice.v.03'
p62
I1
ssg35
(dp63
g36
I1
ssg37
(dp64
S'banana.n.02'
p65
I1
ssg9
(dp66
g9
I0
ssg32
(dp67
g32
I0
ssg14
(dp68
g14
I0
ssg19
(dp69
S'piece.n.08'
p70
I1
ssg13
(dp71
g14
I1
ssg30
(dp72
S'mug.n.04'
p73
I1
ssg31
(dp74
g32
I1
ssg25
(dp75
g25
I0
ssg12
(dp76
g25
I1
sS'water.n.06'
p77
I1
ssg11
(dp78
g11
I0
ssg10
(dp79
g11
I1
ssg36
(dp80
g36
I0
ssg20
(dp81
g21
I1
ssg21
(dp82
g21
I0
sssb.