ccopy_reg
_reconstructor
p0
(cutils.eval
ConfusionMatrix
p1
c__builtin__
object
p2
Ntp3
Rp4
(dp5
S'labels'
p6
(lp7
S'catsup.n.01'
p8
aS'tomato.n.01'
p9
aS'tomato.n.02'
p10
aS'piece.n.08'
p11
aS'slice.n.05'
p12
aS'onion.n.03'
p13
aS'mustard.n.02'
p14
aS'mustard.n.03'
p15
aS'fill.v.01'
p16
aS'fill.v.09'
p17
aS'pan.n.01'
p18
aS'pan.n.03'
p19
aS'water.n.06'
p20
aS'pitcher.n.02'
p21
aS'pitcher.n.01'
p22
aS'milk.n.01'
p23
aS'milk.n.04'
p24
aS'foam.n.01'
p25
aS'mug.n.04'
p26
aS'chump.n.01'
p27
aS'flesh.n.01'
p28
aS'slice.v.03'
p29
aS'slice.v.02'
p30
aS'knife.n.01'
p31
aS'knife.n.02'
p32
aS'banana.n.02'
p33
aS'cheese.n.01'
p34
aS'pizza.n.01'
p35
aS'kettle.n.01'
p36
aS'kettle_hole.n.01'
p37
asS'instanceCount'
p38
I27
sS'matrix'
p39
(dp40
g34
(dp41
S'cheese.n.01'
p42
I1
ssg35
(dp43
S'pizza.n.01'
p44
I1
ssg24
(dp45
g24
I0
ssg25
(dp46
S'foam.n.01'
p47
I1
ssg23
(dp48
g24
I1
ssg18
(dp49
g19
I1
ssg14
(dp50
g15
I1
ssg15
(dp51
g15
I0
ssg17
(dp52
g17
I0
ssg10
(dp53
g10
I0
ssg9
(dp54
g10
I1
ssg16
(dp55
g17
I4
ssg21
(dp56
g22
I1
ssg22
(dp57
g22
I0
ssg30
(dp58
g30
I0
ssg29
(dp59
g30
I4
ssg27
(dp60
g27
I0
ssg31
(dp61
g32
I1
ssg33
(dp62
S'banana.n.02'
p63
I1
ssg32
(dp64
g32
I0
ssg19
(dp65
g19
I0
ssg8
(dp66
S'catsup.n.01'
p67
I1
ssg11
(dp68
g12
I2
ssg26
(dp69
g27
I1
ssg28
(dp70
S'flesh.n.01'
p71
I1
ssg20
(dp72
S'water.n.06'
p73
I2
ssg12
(dp74
g12
I0
ssg37
(dp75
g37
I0
ssg36
(dp76
g37
I1
ssg13
(dp77
S'onion.n.03'
p78
I1
sssb.