ccopy_reg
_reconstructor
p0
(cutils.eval
ConfusionMatrix
p1
c__builtin__
object
p2
Ntp3
Rp4
(dp5
S'labels'
p6
(lp7
S'cheese.n.01'
p8
aS'slice.v.03'
p9
aS'piece.n.08'
p10
aS'slice.n.06'
p11
aS'pizza.n.01'
p12
aS'fill.v.01'
p13
aS'meet.v.04'
p14
aS'kettle.n.01'
p15
aS'kettle.n.02'
p16
aS'water.n.06'
p17
aS'water.n.03'
p18
aS'opening.n.01'
p19
aS'gap.n.05'
p20
aS'fill.v.09'
p21
aS'batter.n.02'
p22
aS'tomato.n.01'
p23
aS'tomato.n.02'
p24
aS'slice.n.04'
p25
aS'onion.n.03'
p26
aS'onion.n.02'
p27
aS'mustard.n.02'
p28
aS'pan.n.01'
p29
aS'pan.n.02'
p30
aS'pitcher.n.02'
p31
aS'pitcher.n.05'
p32
aS'milk.n.01'
p33
aS'milk.n.04'
p34
aS'mug.n.04'
p35
aS'flesh.n.01'
p36
aS'pulp.n.02'
p37
asS'instanceCount'
p38
I25
sS'matrix'
p39
(dp40
g8
(dp41
S'cheese.n.01'
p42
I1
ssg22
(dp43
S'batter.n.02'
p44
I1
ssg34
(dp45
g34
I0
ssg33
(dp46
g34
I1
ssg29
(dp47
g30
I1
ssg28
(dp48
S'mustard.n.02'
p49
I1
ssg20
(dp50
g20
I0
ssg21
(dp51
S'fill.v.09'
p52
I1
ssg24
(dp53
g24
I0
ssg23
(dp54
g24
I1
ssg13
(dp55
g14
I1
sS'fill.v.09'
p56
I3
ssg31
(dp57
g32
I1
ssg32
(dp58
g32
I0
ssg9
(dp59
S'slice.v.03'
p60
I3
ssg14
(dp61
g14
I0
ssg30
(dp62
g30
I0
ssg10
(dp63
g11
I1
sg25
I1
ssg19
(dp64
g20
I1
ssg35
(dp65
S'mug.n.04'
p66
I1
ssg36
(dp67
g37
I1
ssg18
(dp68
g18
I0
ssg11
(dp69
g11
I0
ssg17
(dp70
g18
I2
ssg25
(dp71
g25
I0
ssg12
(dp72
S'pizza.n.01'
p73
I1
ssg16
(dp74
g16
I0
ssg15
(dp75
g16
I1
ssg37
(dp76
g37
I0
ssg26
(dp77
g27
I1
ssg27
(dp78
g27
I0
sssb.