ccopy_reg
_reconstructor
p0
(cutils.eval
ConfusionMatrix
p1
c__builtin__
object
p2
Ntp3
Rp4
(dp5
S'labels'
p6
(lp7
S'stir.v.08'
p8
aS'stir.v.01'
p9
aS'egg.n.02'
p10
aS'coffee.n.01'
p11
aS'apple.n.01'
p12
aS'peanut.n.04'
p13
aS'peanut.n.03'
p14
aS'milk.n.01'
p15
aS'whiskey.n.01'
p16
aS'juice.n.01'
p17
aS'fruit_juice.n.01'
p18
aS'cream.n.02'
p19
aS'butter.n.01'
p20
aS'wine.n.01'
p21
aS'tomato.n.01'
p22
aS'cappuccino.n.01'
p23
aS'champagne.n.01'
p24
aS'vegetable.n.01'
p25
aS'banana.n.02'
p26
aS'sugar.n.01'
p27
aS'coca_cola.n.01'
p28
aS'salt.n.02'
p29
asS'instanceCount'
p30
I36
sS'matrix'
p31
(dp32
g21
(dp33
S'wine.n.01'
p34
I1
ssg8
(dp35
g9
I5
sS'stir.v.08'
p36
I5
ssg12
(dp37
S'apple.n.01'
p38
I1
ssg9
(dp39
g9
I8
ssg28
(dp40
S'coca_cola.n.01'
p41
I1
ssg15
(dp42
S'milk.n.01'
p43
I1
ssg10
(dp44
S'egg.n.02'
p45
I1
ssg20
(dp46
S'butter.n.01'
p47
I1
ssg29
(dp48
S'salt.n.02'
p49
I1
ssg26
(dp50
S'banana.n.02'
p51
I1
ssg19
(dp52
S'cream.n.02'
p53
I1
ssg11
(dp54
S'coffee.n.01'
p55
I1
ssg25
(dp56
S'vegetable.n.01'
p57
I1
ssg16
(dp58
S'whiskey.n.01'
p59
I1
ssg18
(dp60
g18
I0
ssg23
(dp61
S'cappuccino.n.01'
p62
I1
ssg17
(dp63
g18
I1
ssg24
(dp64
S'champagne.n.01'
p65
I1
ssg14
(dp66
g14
I0
ssg13
(dp67
g14
I1
ssg22
(dp68
S'tomato.n.01'
p69
I1
ssg27
(dp70
S'sugar.n.01'
p71
I1
sssb.