ccopy_reg
_reconstructor
p0
(cutils.eval
ConfusionMatrix
p1
c__builtin__
object
p2
Ntp3
Rp4
(dp5
S'labels'
p6
(lp7
S'stir.v.01'
p8
aS'juice.n.01'
p9
aS'fruit_juice.n.01'
p10
aS'stir.v.08'
p11
aS'cream.n.02'
p12
aS'butter.n.01'
p13
aS'wine.n.01'
p14
aS'tomato.n.01'
p15
aS'cappuccino.n.01'
p16
aS'champagne.n.01'
p17
aS'vegetable.n.01'
p18
aS'banana.n.02'
p19
aS'sugar.n.01'
p20
aS'coca_cola.n.01'
p21
aS'salt.n.02'
p22
aS'water.n.06'
p23
aS'tea.n.01'
p24
aS'egg.n.02'
p25
aS'coffee.n.01'
p26
aS'apple.n.01'
p27
aS'peanut.n.04'
p28
aS'peanut.n.03'
p29
asS'instanceCount'
p30
I36
sS'matrix'
p31
(dp32
g14
(dp33
S'wine.n.01'
p34
I1
ssg11
(dp35
S'stir.v.01'
p36
I5
sS'stir.v.08'
p37
I5
ssg27
(dp38
S'apple.n.01'
p39
I1
ssg8
(dp40
S'stir.v.01'
p41
I8
ssg21
(dp42
S'coca_cola.n.01'
p43
I1
ssg25
(dp44
S'egg.n.02'
p45
I1
ssg13
(dp46
S'butter.n.01'
p47
I1
ssg22
(dp48
S'salt.n.02'
p49
I1
ssg19
(dp50
S'banana.n.02'
p51
I1
ssg12
(dp52
S'cream.n.02'
p53
I1
ssg26
(dp54
S'coffee.n.01'
p55
I1
ssg18
(dp56
S'vegetable.n.01'
p57
I1
ssg24
(dp58
S'tea.n.01'
p59
I1
ssg10
(dp60
g10
I0
ssg16
(dp61
S'cappuccino.n.01'
p62
I1
ssg23
(dp63
S'water.n.06'
p64
I1
ssg9
(dp65
g10
I1
ssg17
(dp66
S'champagne.n.01'
p67
I1
ssg29
(dp68
g29
I0
ssg28
(dp69
g29
I1
ssg15
(dp70
S'tomato.n.01'
p71
I1
ssg20
(dp72
S'sugar.n.01'
p73
I1
sssb.