ccopy_reg
_reconstructor
p0
(cutils.eval
ConfusionMatrix
p1
c__builtin__
object
p2
Ntp3
Rp4
(dp5
S'labels'
p6
(lp7
S'stir.v.01'
p8
aS'stir.v.08'
p9
aS'milk.n.01'
p10
aS'milk.n.04'
p11
aS'whiskey.n.01'
p12
aS'juice.n.01'
p13
aS'fruit_juice.n.01'
p14
aS'cream.n.02'
p15
aS'cream.n.03'
p16
aS'butter.n.01'
p17
aS'wine.n.01'
p18
aS'tomato.n.01'
p19
aS'cappuccino.n.01'
p20
aS'champagne.n.01'
p21
aS'champagne.n.02'
p22
aS'vegetable.n.01'
p23
aS'banana.n.02'
p24
aS'sugar.n.01'
p25
aS'carbohydrate.n.01'
p26
aS'coca_cola.n.01'
p27
aS'coke.n.01'
p28
aS'salt.n.02'
p29
aS'salt.n.01'
p30
aS'water.n.06'
p31
aS'water_system.n.02'
p32
aS'tea.n.01'
p33
aS'tea.n.03'
p34
aS'egg.n.02'
p35
aS'egg.n.01'
p36
aS'coffee.n.01'
p37
aS'coffee_bean.n.01'
p38
asS'instanceCount'
p39
I36
sS'matrix'
p40
(dp41
g28
(dp42
g28
I0
ssg38
(dp43
g38
I0
ssg18
(dp44
S'wine.n.01'
p45
I1
ssg26
(dp46
g26
I0
ssg9
(dp47
g9
I8
ssg11
(dp48
g11
I0
ssg8
(dp49
g9
I10
ssg27
(dp50
g28
I1
ssg10
(dp51
g11
I1
ssg35
(dp52
g36
I1
ssg17
(dp53
S'butter.n.01'
p54
I1
ssg33
(dp55
g34
I1
ssg29
(dp56
g30
I1
ssg30
(dp57
g30
I0
ssg24
(dp58
S'banana.n.02'
p59
I1
ssg37
(dp60
g38
I1
ssg15
(dp61
g16
I1
ssg16
(dp62
g16
I0
ssg36
(dp63
g36
I0
ssg12
(dp64
S'whiskey.n.01'
p65
I1
ssg34
(dp66
g34
I0
ssg14
(dp67
g14
I0
ssg20
(dp68
S'cappuccino.n.01'
p69
I1
ssg32
(dp70
g32
I0
ssg31
(dp71
g32
I1
ssg19
(dp72
S'tomato.n.01'
p73
I1
ssg22
(dp74
g22
I0
ssg21
(dp75
g22
I1
ssg23
(dp76
S'vegetable.n.01'
p77
I1
ssg13
(dp78
g14
I1
ssg25
(dp79
g26
I1
sssb.