ccopy_reg
_reconstructor
p0
(cutils.eval
ConfusionMatrix
p1
c__builtin__
object
p2
Ntp3
Rp4
(dp5
S'labels'
p6
(lp7
S'stir.v.01'
p8
aS'champagne.n.01'
p9
aS'vegetable.n.01'
p10
aS'stir.v.08'
p11
aS'banana.n.02'
p12
aS'sugar.n.01'
p13
aS'coca_cola.n.01'
p14
aS'salt.n.02'
p15
aS'water.n.06'
p16
aS'tea.n.01'
p17
aS'egg.n.02'
p18
aS'coffee.n.01'
p19
aS'apple.n.01'
p20
aS'peanut.n.04'
p21
aS'peanut.n.03'
p22
aS'milk.n.01'
p23
aS'whiskey.n.01'
p24
aS'juice.n.01'
p25
aS'fruit_juice.n.01'
p26
aS'cream.n.02'
p27
aS'butter.n.01'
p28
aS'wine.n.01'
p29
asS'instanceCount'
p30
I36
sS'matrix'
p31
(dp32
g29
(dp33
S'wine.n.01'
p34
I1
ssg11
(dp35
S'stir.v.01'
p36
I3
sS'stir.v.08'
p37
I6
ssg20
(dp38
S'apple.n.01'
p39
I1
ssg8
(dp40
S'stir.v.01'
p41
I9
ssg14
(dp42
S'coca_cola.n.01'
p43
I1
ssg23
(dp44
S'milk.n.01'
p45
I1
ssg18
(dp46
S'egg.n.02'
p47
I1
ssg28
(dp48
S'butter.n.01'
p49
I1
ssg24
(dp50
S'whiskey.n.01'
p51
I1
ssg15
(dp52
S'salt.n.02'
p53
I1
ssg12
(dp54
S'banana.n.02'
p55
I1
ssg27
(dp56
S'cream.n.02'
p57
I1
ssg19
(dp58
S'coffee.n.01'
p59
I1
ssg26
(dp60
g26
I0
ssg17
(dp61
S'tea.n.01'
p62
I1
ssg10
(dp63
S'vegetable.n.01'
p64
I1
ssg16
(dp65
S'water.n.06'
p66
I1
ssg9
(dp67
S'champagne.n.01'
p68
I1
ssg22
(dp69
g22
I0
ssg21
(dp70
g22
I1
ssg25
(dp71
g26
I1
ssg13
(dp72
S'sugar.n.01'
p73
I1
sssb.