ccopy_reg
_reconstructor
p0
(cutils.eval
ConfusionMatrix
p1
c__builtin__
object
p2
Ntp3
Rp4
(dp5
S'labels'
p6
(lp7
S'stir.v.08'
p8
aS'butter.n.01'
p9
aS'stir.v.01'
p10
aS'wine.n.01'
p11
aS'tomato.n.01'
p12
aS'cappuccino.n.01'
p13
aS'champagne.n.01'
p14
aS'vegetable.n.01'
p15
aS'banana.n.02'
p16
aS'sugar.n.01'
p17
aS'coca_cola.n.01'
p18
aS'salt.n.02'
p19
aS'water.n.06'
p20
aS'tea.n.01'
p21
aS'egg.n.02'
p22
aS'coffee.n.01'
p23
aS'apple.n.01'
p24
aS'peanut.n.04'
p25
aS'peanut.n.03'
p26
aS'milk.n.01'
p27
aS'whiskey.n.01'
p28
asS'instanceCount'
p29
I36
sS'matrix'
p30
(dp31
g19
(dp32
S'salt.n.02'
p33
I1
ssg15
(dp34
S'vegetable.n.01'
p35
I1
ssg26
(dp36
g26
I0
ssg16
(dp37
S'banana.n.02'
p38
I1
ssg11
(dp39
S'wine.n.01'
p40
I1
ssg27
(dp41
S'milk.n.01'
p42
I1
ssg22
(dp43
S'egg.n.02'
p44
I1
ssg12
(dp45
S'tomato.n.01'
p46
I1
ssg13
(dp47
S'cappuccino.n.01'
p48
I1
ssg23
(dp49
S'coffee.n.01'
p50
I1
ssg20
(dp51
S'water.n.06'
p52
I1
ssg14
(dp53
S'champagne.n.01'
p54
I1
ssg28
(dp55
S'whiskey.n.01'
p56
I1
ssg8
(dp57
S'stir.v.01'
p58
I3
sS'stir.v.08'
p59
I6
ssg24
(dp60
S'apple.n.01'
p61
I1
ssg10
(dp62
S'stir.v.01'
p63
I8
sS'stir.v.08'
p64
I1
ssg18
(dp65
S'coca_cola.n.01'
p66
I1
ssg25
(dp67
g26
I1
ssg9
(dp68
S'butter.n.01'
p69
I1
ssg21
(dp70
S'tea.n.01'
p71
I1
ssg17
(dp72
S'sugar.n.01'
p73
I1
sssb.