ccopy_reg
_reconstructor
p0
(cutils.eval
ConfusionMatrix
p1
c__builtin__
object
p2
Ntp3
Rp4
(dp5
S'labels'
p6
(lp7
S'stir.v.01'
p8
aS'water.n.06'
p9
aS'tea.n.01'
p10
aS'stir.v.08'
p11
aS'egg.n.02'
p12
aS'coffee.n.01'
p13
aS'apple.n.01'
p14
aS'peanut.n.04'
p15
aS'peanut.n.03'
p16
aS'milk.n.01'
p17
aS'whiskey.n.01'
p18
aS'juice.n.01'
p19
aS'fruit_juice.n.01'
p20
aS'cream.n.02'
p21
aS'butter.n.01'
p22
aS'wine.n.01'
p23
aS'tomato.n.01'
p24
aS'cappuccino.n.01'
p25
aS'champagne.n.01'
p26
aS'vegetable.n.01'
p27
aS'banana.n.02'
p28
aS'sugar.n.01'
p29
asS'instanceCount'
p30
I36
sS'matrix'
p31
(dp32
g23
(dp33
S'wine.n.01'
p34
I1
ssg11
(dp35
S'stir.v.08'
p36
I9
ssg14
(dp37
S'apple.n.01'
p38
I1
ssg8
(dp39
S'stir.v.01'
p40
I9
ssg17
(dp41
S'milk.n.01'
p42
I1
ssg12
(dp43
S'egg.n.02'
p44
I1
ssg22
(dp45
S'butter.n.01'
p46
I1
ssg18
(dp47
S'whiskey.n.01'
p48
I1
ssg28
(dp49
S'banana.n.02'
p50
I1
ssg21
(dp51
S'cream.n.02'
p52
I1
ssg13
(dp53
S'coffee.n.01'
p54
I1
ssg27
(dp55
S'vegetable.n.01'
p56
I1
ssg10
(dp57
S'tea.n.01'
p58
I1
ssg20
(dp59
g20
I0
ssg25
(dp60
S'cappuccino.n.01'
p61
I1
ssg9
(dp62
S'water.n.06'
p63
I1
ssg24
(dp64
S'tomato.n.01'
p65
I1
ssg26
(dp66
S'champagne.n.01'
p67
I1
ssg16
(dp68
g16
I0
ssg15
(dp69
g16
I1
ssg19
(dp70
g20
I1
ssg29
(dp71
S'sugar.n.01'
p72
I1
sssb.