ccopy_reg
_reconstructor
p0
(cutils.eval
ConfusionMatrix
p1
c__builtin__
object
p2
Ntp3
Rp4
(dp5
S'labels'
p6
(lp7
S'add.v.01'
p8
aS'rib.n.03'
p9
aS'asparagus.n.02'
p10
aS'salad.n.01'
p11
aS'pan.n.03'
p12
aS'vanilla.n.02'
p13
aS'butter.n.01'
p14
aS'sauce.n.01'
p15
aS'cream.n.02'
p16
aS'dressing.n.01'
p17
aS'stuffing.n.01'
p18
aS'pot.n.01'
p19
aS'pot.n.09'
p20
aS'bean.n.01'
p21
aS'milk.n.01'
p22
aS'milk.n.04'
p23
aS'water.n.06'
p24
aS'flour.n.01'
p25
aS'egg.n.02'
p26
aS'mixing_bowl.n.01'
p27
aS'onion.n.03'
p28
aS'salt.n.02'
p29
aS'meat.n.01'
p30
aS'corn.n.03'
p31
aS'dish.n.02'
p32
aS'sugar.n.01'
p33
aS'french_fries.n.01'
p34
aS'steak.n.01'
p35
asS'instanceCount'
p36
I48
sS'matrix'
p37
(dp38
g31
(dp39
S'corn.n.03'
p40
I1
ssg27
(dp41
S'mixing_bowl.n.01'
p42
I2
ssg32
(dp43
S'dish.n.02'
p44
I1
ssg23
(dp45
g23
I0
ssg8
(dp46
S'add.v.01'
p47
I16
ssg22
(dp48
g23
I1
ssg12
(dp49
S'pan.n.03'
p50
I3
ssg20
(dp51
g20
I0
ssg25
(dp52
S'flour.n.01'
p53
I1
ssg26
(dp54
S'egg.n.02'
p55
I2
ssg14
(dp56
S'butter.n.01'
p57
I3
ssg19
(dp58
g20
I1
ssg10
(dp59
S'asparagus.n.02'
p60
I1
ssg30
(dp61
S'meat.n.01'
p62
I1
ssg13
(dp63
S'vanilla.n.02'
p64
I2
ssg21
(dp65
S'bean.n.01'
p66
I1
ssg15
(dp67
S'sauce.n.01'
p68
I1
ssg29
(dp69
S'salt.n.02'
p70
I1
ssg9
(dp71
S'rib.n.03'
p72
I1
ssg16
(dp73
S'cream.n.02'
p74
I1
ssg35
(dp75
S'steak.n.01'
p76
I1
ssg18
(dp77
g18
I0
ssg24
(dp78
S'water.n.06'
p79
I1
ssg17
(dp80
g18
I1
ssg34
(dp81
S'french_fries.n.01'
p82
I1
ssg11
(dp83
S'salad.n.01'
p84
I2
ssg28
(dp85
S'onion.n.03'
p86
I1
ssg33
(dp87
S'sugar.n.01'
p88
I1
sssb.