ccopy_reg
_reconstructor
p0
(cutils.eval
ConfusionMatrix
p1
c__builtin__
object
p2
Ntp3
Rp4
(dp5
S'labels'
p6
(lp7
S'add.v.01'
p8
aS'ingredient.n.03'
p9
aS'concoction.n.01'
p10
aS'cream.n.02'
p11
aS'cream.n.03'
p12
aS'rib.n.03'
p13
aS'asparagus.n.02'
p14
aS'salad.n.01'
p15
aS'pan.n.03'
p16
aS'vanilla.n.02'
p17
aS'butter.n.01'
p18
aS'sauce.n.01'
p19
aS'dressing.n.01'
p20
aS'stuffing.n.01'
p21
aS'pot.n.01'
p22
aS'pot.n.04'
p23
aS'bean.n.01'
p24
aS'milk.n.01'
p25
aS'water.n.06'
p26
aS'flour.n.01'
p27
aS'egg.n.02'
p28
aS'mixing_bowl.n.01'
p29
aS'onion.n.03'
p30
aS'salt.n.02'
p31
aS'meat.n.01'
p32
aS'corn.n.03'
p33
aS'dish.n.02'
p34
aS'dish.n.01'
p35
aS'sugar.n.01'
p36
aS'french_fries.n.01'
p37
aS'steak.n.01'
p38
asS'instanceCount'
p39
I49
sS'matrix'
p40
(dp41
g33
(dp42
S'corn.n.03'
p43
I1
ssg29
(dp44
S'mixing_bowl.n.01'
p45
I2
ssg34
(dp46
g35
I1
ssg35
(dp47
g35
I0
ssg8
(dp48
S'add.v.01'
p49
I16
ssg25
(dp50
S'milk.n.01'
p51
I1
ssg16
(dp52
S'pan.n.03'
p53
I2
ssg27
(dp54
S'flour.n.01'
p55
I1
ssg28
(dp56
S'egg.n.02'
p57
I1
ssg18
(dp58
S'butter.n.01'
p59
I2
ssg22
(dp60
g23
I1
ssg14
(dp61
S'asparagus.n.02'
p62
I1
ssg32
(dp63
S'meat.n.01'
p64
I1
ssg17
(dp65
S'vanilla.n.02'
p66
I2
ssg24
(dp67
S'bean.n.01'
p68
I1
ssg10
(dp69
S'concoction.n.01'
p70
I1
ssg19
(dp71
S'sauce.n.01'
p72
I1
ssg31
(dp73
S'salt.n.02'
p74
I1
ssg13
(dp75
S'rib.n.03'
p76
I1
ssg11
(dp77
S'cream.n.02'
p78
I1
sg12
I1
ssg9
(dp79
S'ingredient.n.03'
p80
I2
ssg12
(dp81
g12
I0
ssg38
(dp82
S'steak.n.01'
p83
I1
ssg21
(dp84
g21
I0
ssg26
(dp85
S'water.n.06'
p86
I1
ssg20
(dp87
g21
I1
ssg37
(dp88
S'french_fries.n.01'
p89
I1
ssg23
(dp90
g23
I0
ssg15
(dp91
S'salad.n.01'
p92
I2
ssg30
(dp93
S'onion.n.03'
p94
I1
ssg36
(dp95
S'sugar.n.01'
p96
I1
sssb.