ccopy_reg
_reconstructor
p0
(cutils.eval
ConfusionMatrix
p1
c__builtin__
object
p2
Ntp3
Rp4
(dp5
S'labels'
p6
(lp7
S'add.v.01'
p8
aS'mixing_bowl.n.01'
p9
aS'butter.n.01'
p10
aS'sugar.n.01'
p11
aS'french_fries.n.01'
p12
aS'steak.n.01'
p13
aS'pan.n.03'
p14
aS'egg.n.02'
p15
aS'apple.n.01'
p16
aS'vegetable.n.01'
p17
aS'ingredient.n.03'
p18
aS'concoction.n.01'
p19
aS'cream.n.02'
p20
aS'rib.n.03'
p21
aS'asparagus.n.02'
p22
aS'salad.n.01'
p23
aS'vanilla.n.02'
p24
aS'sauce.n.01'
p25
aS'dressing.n.01'
p26
aS'stuffing.n.01'
p27
aS'pot.n.01'
p28
aS'pot.n.09'
p29
aS'bean.n.01'
p30
aS'milk.n.01'
p31
aS'milk.n.04'
p32
aS'water.n.06'
p33
asS'instanceCount'
p34
I46
sS'matrix'
p35
(dp36
g9
(dp37
S'mixing_bowl.n.01'
p38
I1
ssg32
(dp39
g32
I0
ssg16
(dp40
S'apple.n.01'
p41
I1
ssg8
(dp42
S'add.v.01'
p43
I16
ssg31
(dp44
g32
I1
ssg14
(dp45
S'pan.n.03'
p46
I3
ssg29
(dp47
g29
I0
ssg15
(dp48
S'egg.n.02'
p49
I1
ssg10
(dp50
S'butter.n.01'
p51
I3
ssg28
(dp52
g29
I1
ssg22
(dp53
S'asparagus.n.02'
p54
I1
ssg24
(dp55
S'vanilla.n.02'
p56
I2
ssg30
(dp57
S'bean.n.01'
p58
I1
ssg19
(dp59
S'concoction.n.01'
p60
I1
ssg25
(dp61
S'sauce.n.01'
p62
I1
ssg21
(dp63
S'rib.n.03'
p64
I1
ssg20
(dp65
S'cream.n.02'
p66
I2
ssg18
(dp67
S'ingredient.n.03'
p68
I2
ssg13
(dp69
S'steak.n.01'
p70
I1
ssg27
(dp71
g27
I0
ssg17
(dp72
S'vegetable.n.01'
p73
I1
ssg33
(dp74
S'water.n.06'
p75
I1
ssg26
(dp76
g27
I1
ssg12
(dp77
S'french_fries.n.01'
p78
I1
ssg23
(dp79
S'salad.n.01'
p80
I2
ssg11
(dp81
S'sugar.n.01'
p82
I1
sssb.