ccopy_reg
_reconstructor
p0
(cutils.eval
ConfusionMatrix
p1
c__builtin__
object
p2
Ntp3
Rp4
(dp5
S'labels'
p6
(lp7
S'add.v.01'
p8
aS'apple.n.01'
p9
aS'vegetable.n.01'
p10
aS'ingredient.n.03'
p11
aS'concoction.n.01'
p12
aS'cream.n.02'
p13
aS'cream.n.03'
p14
aS'rib.n.03'
p15
aS'asparagus.n.02'
p16
aS'salad.n.01'
p17
aS'pan.n.03'
p18
aS'vanilla.n.02'
p19
aS'butter.n.01'
p20
aS'sauce.n.01'
p21
aS'dressing.n.01'
p22
aS'dressing.n.04'
p23
aS'pot.n.01'
p24
aS'pot.n.04'
p25
aS'bean.n.01'
p26
aS'milk.n.01'
p27
aS'water.n.06'
p28
aS'water_system.n.02'
p29
aS'flour.n.01'
p30
aS'egg.n.02'
p31
aS'mixing_bowl.n.01'
p32
aS'onion.n.03'
p33
aS'salt.n.02'
p34
aS'meat.n.01'
p35
aS'corn.n.03'
p36
aS'dish.n.02'
p37
aS'dish.n.01'
p38
asS'instanceCount'
p39
I46
sS'matrix'
p40
(dp41
g36
(dp42
S'corn.n.03'
p43
I1
ssg32
(dp44
S'mixing_bowl.n.01'
p45
I1
ssg37
(dp46
g38
I1
ssg38
(dp47
g38
I0
ssg9
(dp48
S'apple.n.01'
p49
I1
ssg8
(dp50
S'add.v.01'
p51
I16
ssg27
(dp52
S'milk.n.01'
p53
I1
ssg18
(dp54
S'pan.n.03'
p55
I2
ssg30
(dp56
S'flour.n.01'
p57
I1
ssg25
(dp58
g25
I0
ssg20
(dp59
S'butter.n.01'
p60
I1
ssg24
(dp61
g25
I1
ssg16
(dp62
S'asparagus.n.02'
p63
I1
ssg35
(dp64
S'meat.n.01'
p65
I1
ssg19
(dp66
S'vanilla.n.02'
p67
I2
ssg26
(dp68
S'bean.n.01'
p69
I1
ssg12
(dp70
S'concoction.n.01'
p71
I1
ssg21
(dp72
S'sauce.n.01'
p73
I1
ssg34
(dp74
S'salt.n.02'
p75
I1
ssg15
(dp76
S'rib.n.03'
p77
I1
ssg13
(dp78
g14
I2
ssg11
(dp79
S'ingredient.n.03'
p80
I2
ssg14
(dp81
g14
I0
ssg10
(dp82
S'vegetable.n.01'
p83
I1
ssg23
(dp84
g23
I0
ssg29
(dp85
g29
I0
ssg28
(dp86
g29
I1
ssg22
(dp87
g23
I1
ssg31
(dp88
S'egg.n.02'
p89
I1
ssg17
(dp90
S'salad.n.01'
p91
I2
ssg33
(dp92
S'onion.n.03'
p93
I1
sssb.